ARM GAS  /var/folders/n6/c271nzx11xl4r4_m7sqjlt0m0000gn/T//ccWrwP9n.s 			page 1


   1              		.cpu cortex-m7
   2              		.arch armv7e-m
   3              		.fpu fpv5-d16
   4              		.eabi_attribute 28, 1
   5              		.eabi_attribute 20, 1
   6              		.eabi_attribute 21, 1
   7              		.eabi_attribute 23, 3
   8              		.eabi_attribute 24, 1
   9              		.eabi_attribute 25, 1
  10              		.eabi_attribute 26, 1
  11              		.eabi_attribute 30, 1
  12              		.eabi_attribute 34, 1
  13              		.eabi_attribute 18, 4
  14              		.file	"app_x-cube-ai.c"
  15              		.text
  16              	.Ltext0:
  17              		.cfi_sections	.debug_frame
  18              		.file 1 "X-CUBE-AI/App/app_x-cube-ai.c"
  19              		.section	.rodata.ai_log_err.str1.4,"aMS",%progbits,1
  20              		.align	2
  21              	.LC0:
  22 0000 54454D50 		.ascii	"TEMPLATE - Error (%s) - type=0x%02x code=0x%02x\015"
  22      4C415445 
  22      202D2045 
  22      72726F72 
  22      20282573 
  23 0030 0A00     		.ascii	"\012\000"
  24 0032 0000     		.align	2
  25              	.LC1:
  26 0034 54454D50 		.ascii	"TEMPLATE - Error - type=0x%02x code=0x%02x\015\012\000"
  26      4C415445 
  26      202D2045 
  26      72726F72 
  26      202D2074 
  27              		.section	.text.ai_log_err,"ax",%progbits
  28              		.align	1
  29              		.syntax unified
  30              		.thumb
  31              		.thumb_func
  33              	ai_log_err:
  34              	.LVL0:
  35              	.LFB144:
   1:X-CUBE-AI/App/app_x-cube-ai.c **** 
   2:X-CUBE-AI/App/app_x-cube-ai.c **** /**
   3:X-CUBE-AI/App/app_x-cube-ai.c ****  ******************************************************************************
   4:X-CUBE-AI/App/app_x-cube-ai.c ****  * @file    app_x-cube-ai.c
   5:X-CUBE-AI/App/app_x-cube-ai.c ****  * @author  X-CUBE-AI C code generator
   6:X-CUBE-AI/App/app_x-cube-ai.c ****  * @brief   AI program body
   7:X-CUBE-AI/App/app_x-cube-ai.c ****  ******************************************************************************
   8:X-CUBE-AI/App/app_x-cube-ai.c ****  * @attention
   9:X-CUBE-AI/App/app_x-cube-ai.c ****  *
  10:X-CUBE-AI/App/app_x-cube-ai.c ****  * Copyright (c) 2025 STMicroelectronics.
  11:X-CUBE-AI/App/app_x-cube-ai.c ****  * All rights reserved.
  12:X-CUBE-AI/App/app_x-cube-ai.c ****  *
  13:X-CUBE-AI/App/app_x-cube-ai.c ****  * This software is licensed under terms that can be found in the LICENSE file
  14:X-CUBE-AI/App/app_x-cube-ai.c ****  * in the root directory of this software component.
  15:X-CUBE-AI/App/app_x-cube-ai.c ****  * If no LICENSE file comes with this software, it is provided AS-IS.
ARM GAS  /var/folders/n6/c271nzx11xl4r4_m7sqjlt0m0000gn/T//ccWrwP9n.s 			page 2


  16:X-CUBE-AI/App/app_x-cube-ai.c ****  *
  17:X-CUBE-AI/App/app_x-cube-ai.c ****  ******************************************************************************
  18:X-CUBE-AI/App/app_x-cube-ai.c ****  */
  19:X-CUBE-AI/App/app_x-cube-ai.c **** 
  20:X-CUBE-AI/App/app_x-cube-ai.c **** /*
  21:X-CUBE-AI/App/app_x-cube-ai.c ****  * Description
  22:X-CUBE-AI/App/app_x-cube-ai.c ****  *   v1.0 - Minimum template to show how to use the Embedded Client API
  23:X-CUBE-AI/App/app_x-cube-ai.c ****  *          model. Only one input and one output is supported. All
  24:X-CUBE-AI/App/app_x-cube-ai.c ****  *          memory resources are allocated statically (AI_NETWORK_XX, defines
  25:X-CUBE-AI/App/app_x-cube-ai.c ****  *          are used).
  26:X-CUBE-AI/App/app_x-cube-ai.c ****  *          Re-target of the printf function is out-of-scope.
  27:X-CUBE-AI/App/app_x-cube-ai.c ****  *   v2.0 - add multiple IO and/or multiple heap support
  28:X-CUBE-AI/App/app_x-cube-ai.c ****  *
  29:X-CUBE-AI/App/app_x-cube-ai.c ****  *   For more information, see the embeded documentation:
  30:X-CUBE-AI/App/app_x-cube-ai.c ****  *
  31:X-CUBE-AI/App/app_x-cube-ai.c ****  *       [1] %X_CUBE_AI_DIR%/Documentation/index.html
  32:X-CUBE-AI/App/app_x-cube-ai.c ****  *
  33:X-CUBE-AI/App/app_x-cube-ai.c ****  *   X_CUBE_AI_DIR indicates the location where the X-CUBE-AI pack is installed
  34:X-CUBE-AI/App/app_x-cube-ai.c ****  *   typical : C:\Users\<user_name>\STM32Cube\Repository\STMicroelectronics\X-CUBE-AI\7.1.0
  35:X-CUBE-AI/App/app_x-cube-ai.c ****  */
  36:X-CUBE-AI/App/app_x-cube-ai.c **** 
  37:X-CUBE-AI/App/app_x-cube-ai.c **** #ifdef __cplusplus
  38:X-CUBE-AI/App/app_x-cube-ai.c **** extern "C"
  39:X-CUBE-AI/App/app_x-cube-ai.c **** {
  40:X-CUBE-AI/App/app_x-cube-ai.c **** #endif
  41:X-CUBE-AI/App/app_x-cube-ai.c **** 
  42:X-CUBE-AI/App/app_x-cube-ai.c ****   /* Includes ------------------------------------------------------------------*/
  43:X-CUBE-AI/App/app_x-cube-ai.c **** 
  44:X-CUBE-AI/App/app_x-cube-ai.c **** #if defined(__ICCARM__)
  45:X-CUBE-AI/App/app_x-cube-ai.c **** #elif defined(__CC_ARM) || (__GNUC__)
  46:X-CUBE-AI/App/app_x-cube-ai.c **** #endif
  47:X-CUBE-AI/App/app_x-cube-ai.c **** 
  48:X-CUBE-AI/App/app_x-cube-ai.c **** /* System headers */
  49:X-CUBE-AI/App/app_x-cube-ai.c **** #include <stdint.h>
  50:X-CUBE-AI/App/app_x-cube-ai.c **** #include <stdlib.h>
  51:X-CUBE-AI/App/app_x-cube-ai.c **** #include <stdio.h>
  52:X-CUBE-AI/App/app_x-cube-ai.c **** #include <inttypes.h>
  53:X-CUBE-AI/App/app_x-cube-ai.c **** #include <string.h>
  54:X-CUBE-AI/App/app_x-cube-ai.c **** 
  55:X-CUBE-AI/App/app_x-cube-ai.c **** #include "app_x-cube-ai.h"
  56:X-CUBE-AI/App/app_x-cube-ai.c **** #include "main.h"
  57:X-CUBE-AI/App/app_x-cube-ai.c **** #include "ai_datatypes_defines.h"
  58:X-CUBE-AI/App/app_x-cube-ai.c **** #include "audio_classifier.h"
  59:X-CUBE-AI/App/app_x-cube-ai.c **** #include "audio_classifier_data.h"
  60:X-CUBE-AI/App/app_x-cube-ai.c **** 
  61:X-CUBE-AI/App/app_x-cube-ai.c ****   /* USER CODE BEGIN includes */
  62:X-CUBE-AI/App/app_x-cube-ai.c ****   /* USER CODE END includes */
  63:X-CUBE-AI/App/app_x-cube-ai.c **** 
  64:X-CUBE-AI/App/app_x-cube-ai.c ****   /* IO buffers ----------------------------------------------------------------*/
  65:X-CUBE-AI/App/app_x-cube-ai.c **** 
  66:X-CUBE-AI/App/app_x-cube-ai.c **** #if !defined(AI_AUDIO_CLASSIFIER_INPUTS_IN_ACTIVATIONS)
  67:X-CUBE-AI/App/app_x-cube-ai.c ****   AI_ALIGNED(4)
  68:X-CUBE-AI/App/app_x-cube-ai.c ****   ai_i8 data_in_1[AI_AUDIO_CLASSIFIER_IN_1_SIZE_BYTES];
  69:X-CUBE-AI/App/app_x-cube-ai.c ****   ai_i8 *data_ins[AI_AUDIO_CLASSIFIER_IN_NUM] = {
  70:X-CUBE-AI/App/app_x-cube-ai.c ****       data_in_1};
  71:X-CUBE-AI/App/app_x-cube-ai.c **** #else
  72:X-CUBE-AI/App/app_x-cube-ai.c **** ai_i8 *data_ins[AI_AUDIO_CLASSIFIER_IN_NUM] = {
ARM GAS  /var/folders/n6/c271nzx11xl4r4_m7sqjlt0m0000gn/T//ccWrwP9n.s 			page 3


  73:X-CUBE-AI/App/app_x-cube-ai.c ****     NULL};
  74:X-CUBE-AI/App/app_x-cube-ai.c **** #endif
  75:X-CUBE-AI/App/app_x-cube-ai.c **** 
  76:X-CUBE-AI/App/app_x-cube-ai.c **** #if !defined(AI_AUDIO_CLASSIFIER_OUTPUTS_IN_ACTIVATIONS)
  77:X-CUBE-AI/App/app_x-cube-ai.c ****   AI_ALIGNED(4)
  78:X-CUBE-AI/App/app_x-cube-ai.c ****   ai_i8 data_out_1[AI_AUDIO_CLASSIFIER_OUT_1_SIZE_BYTES];
  79:X-CUBE-AI/App/app_x-cube-ai.c ****   ai_i8 *data_outs[AI_AUDIO_CLASSIFIER_OUT_NUM] = {
  80:X-CUBE-AI/App/app_x-cube-ai.c ****       data_out_1};
  81:X-CUBE-AI/App/app_x-cube-ai.c **** #else
  82:X-CUBE-AI/App/app_x-cube-ai.c **** ai_i8 *data_outs[AI_AUDIO_CLASSIFIER_OUT_NUM] = {
  83:X-CUBE-AI/App/app_x-cube-ai.c ****     NULL};
  84:X-CUBE-AI/App/app_x-cube-ai.c **** #endif
  85:X-CUBE-AI/App/app_x-cube-ai.c **** 
  86:X-CUBE-AI/App/app_x-cube-ai.c ****   /* Activations buffers -------------------------------------------------------*/
  87:X-CUBE-AI/App/app_x-cube-ai.c **** 
  88:X-CUBE-AI/App/app_x-cube-ai.c ****   AI_ALIGNED(32)
  89:X-CUBE-AI/App/app_x-cube-ai.c ****   static uint8_t pool0[AI_AUDIO_CLASSIFIER_DATA_ACTIVATION_1_SIZE];
  90:X-CUBE-AI/App/app_x-cube-ai.c **** 
  91:X-CUBE-AI/App/app_x-cube-ai.c ****   ai_handle data_activations0[] = {pool0};
  92:X-CUBE-AI/App/app_x-cube-ai.c **** 
  93:X-CUBE-AI/App/app_x-cube-ai.c ****   /* AI objects ----------------------------------------------------------------*/
  94:X-CUBE-AI/App/app_x-cube-ai.c **** 
  95:X-CUBE-AI/App/app_x-cube-ai.c ****   static ai_handle audio_classifier = AI_HANDLE_NULL;
  96:X-CUBE-AI/App/app_x-cube-ai.c **** 
  97:X-CUBE-AI/App/app_x-cube-ai.c ****   static ai_buffer *ai_input;
  98:X-CUBE-AI/App/app_x-cube-ai.c ****   static ai_buffer *ai_output;
  99:X-CUBE-AI/App/app_x-cube-ai.c **** 
 100:X-CUBE-AI/App/app_x-cube-ai.c ****   static void ai_log_err(const ai_error err, const char *fct)
 101:X-CUBE-AI/App/app_x-cube-ai.c ****   {
  36              		.loc 1 101 3 view -0
  37              		.cfi_startproc
  38              		@ Volatile: function does not return.
  39              		@ args = 0, pretend = 0, frame = 0
  40              		@ frame_needed = 0, uses_anonymous_args = 0
  41              		.loc 1 101 3 is_stmt 0 view .LVU1
  42 0000 08B5     		push	{r3, lr}
  43              		.cfi_def_cfa_offset 8
  44              		.cfi_offset 3, -8
  45              		.cfi_offset 14, -4
 102:X-CUBE-AI/App/app_x-cube-ai.c ****     /* USER CODE BEGIN log */
 103:X-CUBE-AI/App/app_x-cube-ai.c ****     if (fct)
  46              		.loc 1 103 5 is_stmt 1 view .LVU2
  47              		.loc 1 103 8 is_stmt 0 view .LVU3
  48 0002 29B1     		cbz	r1, .L2
 104:X-CUBE-AI/App/app_x-cube-ai.c ****       printf("TEMPLATE - Error (%s) - type=0x%02x code=0x%02x\r\n", fct,
  49              		.loc 1 104 7 is_stmt 1 view .LVU4
  50 0004 030A     		lsrs	r3, r0, #8
  51 0006 C2B2     		uxtb	r2, r0
  52 0008 0448     		ldr	r0, .L5
  53              	.LVL1:
  54              		.loc 1 104 7 is_stmt 0 view .LVU5
  55 000a FFF7FEFF 		bl	printf
  56              	.LVL2:
  57              	.L3:
 105:X-CUBE-AI/App/app_x-cube-ai.c ****              err.type, err.code);
 106:X-CUBE-AI/App/app_x-cube-ai.c ****     else
 107:X-CUBE-AI/App/app_x-cube-ai.c ****       printf("TEMPLATE - Error - type=0x%02x code=0x%02x\r\n", err.type, err.code);
ARM GAS  /var/folders/n6/c271nzx11xl4r4_m7sqjlt0m0000gn/T//ccWrwP9n.s 			page 4


 108:X-CUBE-AI/App/app_x-cube-ai.c **** 
 109:X-CUBE-AI/App/app_x-cube-ai.c ****     do
  58              		.loc 1 109 5 is_stmt 1 view .LVU6
 110:X-CUBE-AI/App/app_x-cube-ai.c ****     {
 111:X-CUBE-AI/App/app_x-cube-ai.c ****     } while (1);
  59              		.loc 1 111 5 view .LVU7
 110:X-CUBE-AI/App/app_x-cube-ai.c ****     {
  60              		.loc 1 110 5 view .LVU8
  61 000e FEE7     		b	.L3
  62              	.LVL3:
  63              	.L2:
 107:X-CUBE-AI/App/app_x-cube-ai.c **** 
  64              		.loc 1 107 7 view .LVU9
  65 0010 020A     		lsrs	r2, r0, #8
  66 0012 C1B2     		uxtb	r1, r0
  67              	.LVL4:
 107:X-CUBE-AI/App/app_x-cube-ai.c **** 
  68              		.loc 1 107 7 is_stmt 0 view .LVU10
  69 0014 0248     		ldr	r0, .L5+4
  70              	.LVL5:
 107:X-CUBE-AI/App/app_x-cube-ai.c **** 
  71              		.loc 1 107 7 view .LVU11
  72 0016 FFF7FEFF 		bl	printf
  73              	.LVL6:
  74 001a F8E7     		b	.L3
  75              	.L6:
  76              		.align	2
  77              	.L5:
  78 001c 00000000 		.word	.LC0
  79 0020 34000000 		.word	.LC1
  80              		.cfi_endproc
  81              	.LFE144:
  83              		.section	.rodata.ai_boostrap.str1.4,"aMS",%progbits,1
  84              		.align	2
  85              	.LC2:
  86 0000 61695F61 		.ascii	"ai_audio_classifier_create_and_init\000"
  86      7564696F 
  86      5F636C61 
  86      73736966 
  86      6965725F 
  87              		.section	.text.ai_boostrap,"ax",%progbits
  88              		.align	1
  89              		.syntax unified
  90              		.thumb
  91              		.thumb_func
  93              	ai_boostrap:
  94              	.LVL7:
  95              	.LFB145:
 112:X-CUBE-AI/App/app_x-cube-ai.c ****     /* USER CODE END log */
 113:X-CUBE-AI/App/app_x-cube-ai.c ****   }
 114:X-CUBE-AI/App/app_x-cube-ai.c **** 
 115:X-CUBE-AI/App/app_x-cube-ai.c ****   static int ai_boostrap(ai_handle *act_addr)
 116:X-CUBE-AI/App/app_x-cube-ai.c ****   {
  96              		.loc 1 116 3 is_stmt 1 view -0
  97              		.cfi_startproc
  98              		@ args = 0, pretend = 0, frame = 0
  99              		@ frame_needed = 0, uses_anonymous_args = 0
ARM GAS  /var/folders/n6/c271nzx11xl4r4_m7sqjlt0m0000gn/T//ccWrwP9n.s 			page 5


 100              		.loc 1 116 3 is_stmt 0 view .LVU13
 101 0000 10B5     		push	{r4, lr}
 102              		.cfi_def_cfa_offset 8
 103              		.cfi_offset 4, -8
 104              		.cfi_offset 14, -4
 105 0002 0146     		mov	r1, r0
 117:X-CUBE-AI/App/app_x-cube-ai.c ****     ai_error err;
 106              		.loc 1 117 5 is_stmt 1 view .LVU14
 118:X-CUBE-AI/App/app_x-cube-ai.c **** 
 119:X-CUBE-AI/App/app_x-cube-ai.c ****     /* Create and initialize an instance of the model */
 120:X-CUBE-AI/App/app_x-cube-ai.c ****     err = ai_audio_classifier_create_and_init(&audio_classifier, act_addr, NULL);
 107              		.loc 1 120 5 view .LVU15
 108              		.loc 1 120 11 is_stmt 0 view .LVU16
 109 0004 0022     		movs	r2, #0
 110 0006 1A48     		ldr	r0, .L15
 111              	.LVL8:
 112              		.loc 1 120 11 view .LVU17
 113 0008 FFF7FEFF 		bl	ai_audio_classifier_create_and_init
 114              	.LVL9:
 121:X-CUBE-AI/App/app_x-cube-ai.c ****     if (err.type != AI_ERROR_NONE)
 115              		.loc 1 121 5 is_stmt 1 view .LVU18
 116              		.loc 1 121 8 is_stmt 0 view .LVU19
 117 000c 10F0FF0F 		tst	r0, #255
 118 0010 0ED1     		bne	.L14
 122:X-CUBE-AI/App/app_x-cube-ai.c ****     {
 123:X-CUBE-AI/App/app_x-cube-ai.c ****       ai_log_err(err, "ai_audio_classifier_create_and_init");
 124:X-CUBE-AI/App/app_x-cube-ai.c ****       return -1;
 125:X-CUBE-AI/App/app_x-cube-ai.c ****     }
 126:X-CUBE-AI/App/app_x-cube-ai.c **** 
 127:X-CUBE-AI/App/app_x-cube-ai.c ****     ai_input = ai_audio_classifier_inputs_get(audio_classifier, NULL);
 119              		.loc 1 127 5 is_stmt 1 view .LVU20
 120              		.loc 1 127 16 is_stmt 0 view .LVU21
 121 0012 174C     		ldr	r4, .L15
 122 0014 0021     		movs	r1, #0
 123 0016 2068     		ldr	r0, [r4]
 124              	.LVL10:
 125              		.loc 1 127 16 view .LVU22
 126 0018 FFF7FEFF 		bl	ai_audio_classifier_inputs_get
 127              	.LVL11:
 128              		.loc 1 127 14 discriminator 1 view .LVU23
 129 001c 154B     		ldr	r3, .L15+4
 130 001e 1860     		str	r0, [r3]
 128:X-CUBE-AI/App/app_x-cube-ai.c ****     ai_output = ai_audio_classifier_outputs_get(audio_classifier, NULL);
 131              		.loc 1 128 5 is_stmt 1 view .LVU24
 132              		.loc 1 128 17 is_stmt 0 view .LVU25
 133 0020 0021     		movs	r1, #0
 134 0022 2068     		ldr	r0, [r4]
 135 0024 FFF7FEFF 		bl	ai_audio_classifier_outputs_get
 136              	.LVL12:
 137              		.loc 1 128 15 discriminator 1 view .LVU26
 138 0028 134B     		ldr	r3, .L15+8
 139 002a 1860     		str	r0, [r3]
 129:X-CUBE-AI/App/app_x-cube-ai.c **** 
 130:X-CUBE-AI/App/app_x-cube-ai.c **** #if defined(AI_AUDIO_CLASSIFIER_INPUTS_IN_ACTIVATIONS)
 131:X-CUBE-AI/App/app_x-cube-ai.c ****     /*  In the case where "--allocate-inputs" option is used, memory buffer can be
 132:X-CUBE-AI/App/app_x-cube-ai.c ****      *  used from the activations buffer. This is not mandatory.
 133:X-CUBE-AI/App/app_x-cube-ai.c ****      */
ARM GAS  /var/folders/n6/c271nzx11xl4r4_m7sqjlt0m0000gn/T//ccWrwP9n.s 			page 6


 134:X-CUBE-AI/App/app_x-cube-ai.c ****     for (int idx = 0; idx < AI_AUDIO_CLASSIFIER_IN_NUM; idx++)
 140              		.loc 1 134 5 is_stmt 1 view .LVU27
 141              	.LBB2:
 142              		.loc 1 134 10 view .LVU28
 143              	.LVL13:
 144              		.loc 1 134 14 is_stmt 0 view .LVU29
 145 002c 0023     		movs	r3, #0
 146              		.loc 1 134 5 view .LVU30
 147 002e 0DE0     		b	.L9
 148              	.LVL14:
 149              	.L14:
 150              		.loc 1 134 5 view .LVU31
 151              	.LBE2:
 123:X-CUBE-AI/App/app_x-cube-ai.c ****       return -1;
 152              		.loc 1 123 7 is_stmt 1 view .LVU32
 153 0030 1249     		ldr	r1, .L15+12
 154 0032 FFF7FEFF 		bl	ai_log_err
 155              	.LVL15:
 156              	.L10:
 157              	.LBB3:
 135:X-CUBE-AI/App/app_x-cube-ai.c ****     {
 136:X-CUBE-AI/App/app_x-cube-ai.c ****       data_ins[idx] = ai_input[idx].data;
 158              		.loc 1 136 7 view .LVU33
 159              		.loc 1 136 31 is_stmt 0 view .LVU34
 160 0036 C3EBC301 		rsb	r1, r3, r3, lsl #3
 161 003a 0E4A     		ldr	r2, .L15+4
 162 003c 1268     		ldr	r2, [r2]
 163 003e 02EB8102 		add	r2, r2, r1, lsl #2
 164              		.loc 1 136 36 view .LVU35
 165 0042 5168     		ldr	r1, [r2, #4]
 166              		.loc 1 136 21 view .LVU36
 167 0044 0E4A     		ldr	r2, .L15+16
 168 0046 42F82310 		str	r1, [r2, r3, lsl #2]
 134:X-CUBE-AI/App/app_x-cube-ai.c ****     {
 169              		.loc 1 134 60 is_stmt 1 discriminator 3 view .LVU37
 170 004a 0133     		adds	r3, r3, #1
 171              	.LVL16:
 172              	.L9:
 134:X-CUBE-AI/App/app_x-cube-ai.c ****     {
 173              		.loc 1 134 27 discriminator 1 view .LVU38
 174 004c 002B     		cmp	r3, #0
 175 004e F2DD     		ble	.L10
 176              	.LBE3:
 177              	.LBB4:
 137:X-CUBE-AI/App/app_x-cube-ai.c ****     }
 138:X-CUBE-AI/App/app_x-cube-ai.c **** #else
 139:X-CUBE-AI/App/app_x-cube-ai.c ****   for (int idx = 0; idx < AI_AUDIO_CLASSIFIER_IN_NUM; idx++)
 140:X-CUBE-AI/App/app_x-cube-ai.c ****   {
 141:X-CUBE-AI/App/app_x-cube-ai.c ****     ai_input[idx].data = data_ins[idx];
 142:X-CUBE-AI/App/app_x-cube-ai.c ****   }
 143:X-CUBE-AI/App/app_x-cube-ai.c **** #endif
 144:X-CUBE-AI/App/app_x-cube-ai.c **** 
 145:X-CUBE-AI/App/app_x-cube-ai.c **** #if defined(AI_AUDIO_CLASSIFIER_OUTPUTS_IN_ACTIVATIONS)
 146:X-CUBE-AI/App/app_x-cube-ai.c ****     /*  In the case where "--allocate-outputs" option is used, memory buffer can be
 147:X-CUBE-AI/App/app_x-cube-ai.c ****      *  used from the activations buffer. This is no mandatory.
 148:X-CUBE-AI/App/app_x-cube-ai.c ****      */
 149:X-CUBE-AI/App/app_x-cube-ai.c ****     for (int idx = 0; idx < AI_AUDIO_CLASSIFIER_OUT_NUM; idx++)
ARM GAS  /var/folders/n6/c271nzx11xl4r4_m7sqjlt0m0000gn/T//ccWrwP9n.s 			page 7


 178              		.loc 1 149 14 is_stmt 0 view .LVU39
 179 0050 0023     		movs	r3, #0
 180              	.LVL17:
 181              	.L11:
 182              		.loc 1 149 27 is_stmt 1 discriminator 1 view .LVU40
 183 0052 002B     		cmp	r3, #0
 184 0054 01DD     		ble	.L12
 185              	.LBE4:
 150:X-CUBE-AI/App/app_x-cube-ai.c ****     {
 151:X-CUBE-AI/App/app_x-cube-ai.c ****       data_outs[idx] = ai_output[idx].data;
 152:X-CUBE-AI/App/app_x-cube-ai.c ****     }
 153:X-CUBE-AI/App/app_x-cube-ai.c **** #else
 154:X-CUBE-AI/App/app_x-cube-ai.c ****   for (int idx = 0; idx < AI_AUDIO_CLASSIFIER_OUT_NUM; idx++)
 155:X-CUBE-AI/App/app_x-cube-ai.c ****   {
 156:X-CUBE-AI/App/app_x-cube-ai.c ****     ai_output[idx].data = data_outs[idx];
 157:X-CUBE-AI/App/app_x-cube-ai.c ****   }
 158:X-CUBE-AI/App/app_x-cube-ai.c **** #endif
 159:X-CUBE-AI/App/app_x-cube-ai.c **** 
 160:X-CUBE-AI/App/app_x-cube-ai.c ****     return 0;
 186              		.loc 1 160 5 view .LVU41
 161:X-CUBE-AI/App/app_x-cube-ai.c ****   }
 187              		.loc 1 161 3 is_stmt 0 view .LVU42
 188 0056 0020     		movs	r0, #0
 189 0058 10BD     		pop	{r4, pc}
 190              	.L12:
 191              	.LBB5:
 151:X-CUBE-AI/App/app_x-cube-ai.c ****     }
 192              		.loc 1 151 7 is_stmt 1 view .LVU43
 151:X-CUBE-AI/App/app_x-cube-ai.c ****     }
 193              		.loc 1 151 33 is_stmt 0 view .LVU44
 194 005a C3EBC302 		rsb	r2, r3, r3, lsl #3
 195 005e 00EB8202 		add	r2, r0, r2, lsl #2
 151:X-CUBE-AI/App/app_x-cube-ai.c ****     }
 196              		.loc 1 151 38 view .LVU45
 197 0062 5168     		ldr	r1, [r2, #4]
 151:X-CUBE-AI/App/app_x-cube-ai.c ****     }
 198              		.loc 1 151 22 view .LVU46
 199 0064 074A     		ldr	r2, .L15+20
 200 0066 42F82310 		str	r1, [r2, r3, lsl #2]
 149:X-CUBE-AI/App/app_x-cube-ai.c ****     {
 201              		.loc 1 149 61 is_stmt 1 discriminator 3 view .LVU47
 202 006a 0133     		adds	r3, r3, #1
 203              	.LVL18:
 149:X-CUBE-AI/App/app_x-cube-ai.c ****     {
 204              		.loc 1 149 61 is_stmt 0 discriminator 3 view .LVU48
 205 006c F1E7     		b	.L11
 206              	.L16:
 207 006e 00BF     		.align	2
 208              	.L15:
 209 0070 00000000 		.word	audio_classifier
 210 0074 00000000 		.word	ai_input
 211 0078 00000000 		.word	ai_output
 212 007c 00000000 		.word	.LC2
 213 0080 00000000 		.word	data_ins
 214 0084 00000000 		.word	data_outs
 215              	.LBE5:
 216              		.cfi_endproc
ARM GAS  /var/folders/n6/c271nzx11xl4r4_m7sqjlt0m0000gn/T//ccWrwP9n.s 			page 8


 217              	.LFE145:
 219              		.section	.rodata.ai_run.str1.4,"aMS",%progbits,1
 220              		.align	2
 221              	.LC3:
 222 0000 61695F61 		.ascii	"ai_audio_classifier_run\000"
 222      7564696F 
 222      5F636C61 
 222      73736966 
 222      6965725F 
 223              		.section	.text.ai_run,"ax",%progbits
 224              		.align	1
 225              		.syntax unified
 226              		.thumb
 227              		.thumb_func
 229              	ai_run:
 230              	.LFB146:
 162:X-CUBE-AI/App/app_x-cube-ai.c **** 
 163:X-CUBE-AI/App/app_x-cube-ai.c ****   static int ai_run(void)
 164:X-CUBE-AI/App/app_x-cube-ai.c ****   {
 231              		.loc 1 164 3 is_stmt 1 view -0
 232              		.cfi_startproc
 233              		@ args = 0, pretend = 0, frame = 0
 234              		@ frame_needed = 0, uses_anonymous_args = 0
 235 0000 08B5     		push	{r3, lr}
 236              		.cfi_def_cfa_offset 8
 237              		.cfi_offset 3, -8
 238              		.cfi_offset 14, -4
 165:X-CUBE-AI/App/app_x-cube-ai.c ****     ai_i32 batch;
 239              		.loc 1 165 5 view .LVU50
 166:X-CUBE-AI/App/app_x-cube-ai.c **** 
 167:X-CUBE-AI/App/app_x-cube-ai.c ****     batch = ai_audio_classifier_run(audio_classifier, ai_input, ai_output);
 240              		.loc 1 167 5 view .LVU51
 241              		.loc 1 167 13 is_stmt 0 view .LVU52
 242 0002 094B     		ldr	r3, .L21
 243 0004 1A68     		ldr	r2, [r3]
 244 0006 094B     		ldr	r3, .L21+4
 245 0008 1968     		ldr	r1, [r3]
 246 000a 094B     		ldr	r3, .L21+8
 247 000c 1868     		ldr	r0, [r3]
 248 000e FFF7FEFF 		bl	ai_audio_classifier_run
 249              	.LVL19:
 168:X-CUBE-AI/App/app_x-cube-ai.c ****     if (batch != 1)
 250              		.loc 1 168 5 is_stmt 1 view .LVU53
 251              		.loc 1 168 8 is_stmt 0 view .LVU54
 252 0012 0128     		cmp	r0, #1
 253 0014 01D1     		bne	.L20
 169:X-CUBE-AI/App/app_x-cube-ai.c ****     {
 170:X-CUBE-AI/App/app_x-cube-ai.c ****       ai_log_err(ai_audio_classifier_get_error(audio_classifier),
 171:X-CUBE-AI/App/app_x-cube-ai.c ****                  "ai_audio_classifier_run");
 172:X-CUBE-AI/App/app_x-cube-ai.c ****       return -1;
 173:X-CUBE-AI/App/app_x-cube-ai.c ****     }
 174:X-CUBE-AI/App/app_x-cube-ai.c **** 
 175:X-CUBE-AI/App/app_x-cube-ai.c ****     return 0;
 254              		.loc 1 175 5 is_stmt 1 view .LVU55
 176:X-CUBE-AI/App/app_x-cube-ai.c ****   }
 255              		.loc 1 176 3 is_stmt 0 view .LVU56
 256 0016 0020     		movs	r0, #0
ARM GAS  /var/folders/n6/c271nzx11xl4r4_m7sqjlt0m0000gn/T//ccWrwP9n.s 			page 9


 257              	.LVL20:
 258              		.loc 1 176 3 view .LVU57
 259 0018 08BD     		pop	{r3, pc}
 260              	.LVL21:
 261              	.L20:
 170:X-CUBE-AI/App/app_x-cube-ai.c ****                  "ai_audio_classifier_run");
 262              		.loc 1 170 7 is_stmt 1 view .LVU58
 263 001a 054B     		ldr	r3, .L21+8
 264 001c 1868     		ldr	r0, [r3]
 265              	.LVL22:
 170:X-CUBE-AI/App/app_x-cube-ai.c ****                  "ai_audio_classifier_run");
 266              		.loc 1 170 7 is_stmt 0 view .LVU59
 267 001e FFF7FEFF 		bl	ai_audio_classifier_get_error
 268              	.LVL23:
 170:X-CUBE-AI/App/app_x-cube-ai.c ****                  "ai_audio_classifier_run");
 269              		.loc 1 170 7 discriminator 1 view .LVU60
 270 0022 0449     		ldr	r1, .L21+12
 271 0024 FFF7FEFF 		bl	ai_log_err
 272              	.LVL24:
 273              	.L22:
 274              		.align	2
 275              	.L21:
 276 0028 00000000 		.word	ai_output
 277 002c 00000000 		.word	ai_input
 278 0030 00000000 		.word	audio_classifier
 279 0034 00000000 		.word	.LC3
 280              		.cfi_endproc
 281              	.LFE146:
 283              		.section	.text.acquire_and_process_data,"ax",%progbits
 284              		.align	1
 285              		.global	acquire_and_process_data
 286              		.syntax unified
 287              		.thumb
 288              		.thumb_func
 290              	acquire_and_process_data:
 291              	.LVL25:
 292              	.LFB147:
 177:X-CUBE-AI/App/app_x-cube-ai.c **** 
 178:X-CUBE-AI/App/app_x-cube-ai.c ****   /* USER CODE BEGIN 2 */
 179:X-CUBE-AI/App/app_x-cube-ai.c ****   int acquire_and_process_data(ai_i8 *data[], float *data_in)
 180:X-CUBE-AI/App/app_x-cube-ai.c ****   {
 293              		.loc 1 180 3 is_stmt 1 view -0
 294              		.cfi_startproc
 295              		@ args = 0, pretend = 0, frame = 0
 296              		@ frame_needed = 0, uses_anonymous_args = 0
 297              		.loc 1 180 3 is_stmt 0 view .LVU62
 298 0000 00B5     		push	{lr}
 299              		.cfi_def_cfa_offset 4
 300              		.cfi_offset 14, -4
 301 0002 8646     		mov	lr, r0
 181:X-CUBE-AI/App/app_x-cube-ai.c **** 
 182:X-CUBE-AI/App/app_x-cube-ai.c ****     for (int idx = 0; idx < AI_AUDIO_CLASSIFIER_IN_NUM; idx++)
 302              		.loc 1 182 5 is_stmt 1 view .LVU63
 303              	.LBB6:
 304              		.loc 1 182 10 view .LVU64
 305              	.LVL26:
 306              		.loc 1 182 14 is_stmt 0 view .LVU65
ARM GAS  /var/folders/n6/c271nzx11xl4r4_m7sqjlt0m0000gn/T//ccWrwP9n.s 			page 10


 307 0004 4FF0000C 		mov	ip, #0
 308              	.LVL27:
 309              	.L24:
 310              		.loc 1 182 27 is_stmt 1 discriminator 1 view .LVU66
 311 0008 BCF1000F 		cmp	ip, #0
 312 000c 02DD     		ble	.L27
 313              	.LBE6:
 183:X-CUBE-AI/App/app_x-cube-ai.c ****     {
 184:X-CUBE-AI/App/app_x-cube-ai.c ****       float *data_in = (float *)data[idx];
 185:X-CUBE-AI/App/app_x-cube-ai.c ****       for (int i = 0; i < AI_AUDIO_CLASSIFIER_IN_1_SIZE_BYTES; i++)
 186:X-CUBE-AI/App/app_x-cube-ai.c ****       {
 187:X-CUBE-AI/App/app_x-cube-ai.c ****         data_in[i] = 1.0;
 188:X-CUBE-AI/App/app_x-cube-ai.c ****       }
 189:X-CUBE-AI/App/app_x-cube-ai.c ****     }
 190:X-CUBE-AI/App/app_x-cube-ai.c **** 
 191:X-CUBE-AI/App/app_x-cube-ai.c ****     return 0;
 314              		.loc 1 191 5 view .LVU67
 192:X-CUBE-AI/App/app_x-cube-ai.c ****   }
 315              		.loc 1 192 3 is_stmt 0 view .LVU68
 316 000e 0020     		movs	r0, #0
 317 0010 5DF804FB 		ldr	pc, [sp], #4
 318              	.L27:
 319              	.LBB9:
 320              	.LBB7:
 184:X-CUBE-AI/App/app_x-cube-ai.c ****       for (int i = 0; i < AI_AUDIO_CLASSIFIER_IN_1_SIZE_BYTES; i++)
 321              		.loc 1 184 7 is_stmt 1 view .LVU69
 184:X-CUBE-AI/App/app_x-cube-ai.c ****       for (int i = 0; i < AI_AUDIO_CLASSIFIER_IN_1_SIZE_BYTES; i++)
 322              		.loc 1 184 14 is_stmt 0 view .LVU70
 323 0014 5EF82C00 		ldr	r0, [lr, ip, lsl #2]
 324              	.LVL28:
 185:X-CUBE-AI/App/app_x-cube-ai.c ****       {
 325              		.loc 1 185 7 is_stmt 1 view .LVU71
 326              	.LBB8:
 185:X-CUBE-AI/App/app_x-cube-ai.c ****       {
 327              		.loc 1 185 12 view .LVU72
 185:X-CUBE-AI/App/app_x-cube-ai.c ****       {
 328              		.loc 1 185 16 is_stmt 0 view .LVU73
 329 0018 0023     		movs	r3, #0
 185:X-CUBE-AI/App/app_x-cube-ai.c ****       {
 330              		.loc 1 185 7 view .LVU74
 331 001a 05E0     		b	.L25
 332              	.LVL29:
 333              	.L26:
 187:X-CUBE-AI/App/app_x-cube-ai.c ****       }
 334              		.loc 1 187 9 is_stmt 1 view .LVU75
 187:X-CUBE-AI/App/app_x-cube-ai.c ****       }
 335              		.loc 1 187 16 is_stmt 0 view .LVU76
 336 001c 00EB8302 		add	r2, r0, r3, lsl #2
 187:X-CUBE-AI/App/app_x-cube-ai.c ****       }
 337              		.loc 1 187 20 view .LVU77
 338 0020 4FF07E51 		mov	r1, #1065353216
 339 0024 1160     		str	r1, [r2]	@ float
 185:X-CUBE-AI/App/app_x-cube-ai.c ****       {
 340              		.loc 1 185 65 is_stmt 1 discriminator 3 view .LVU78
 341 0026 0133     		adds	r3, r3, #1
 342              	.LVL30:
 343              	.L25:
ARM GAS  /var/folders/n6/c271nzx11xl4r4_m7sqjlt0m0000gn/T//ccWrwP9n.s 			page 11


 185:X-CUBE-AI/App/app_x-cube-ai.c ****       {
 344              		.loc 1 185 25 discriminator 1 view .LVU79
 345 0028 B3F5706F 		cmp	r3, #3840
 346 002c F6DB     		blt	.L26
 347              	.LBE8:
 348              	.LBE7:
 182:X-CUBE-AI/App/app_x-cube-ai.c ****     {
 349              		.loc 1 182 60 discriminator 2 view .LVU80
 350 002e 0CF1010C 		add	ip, ip, #1
 351              	.LVL31:
 182:X-CUBE-AI/App/app_x-cube-ai.c ****     {
 352              		.loc 1 182 60 is_stmt 0 discriminator 2 view .LVU81
 353 0032 E9E7     		b	.L24
 354              	.LBE9:
 355              		.cfi_endproc
 356              	.LFE147:
 358              		.section	.rodata.post_process.str1.4,"aMS",%progbits,1
 359              		.align	2
 360              	.LC4:
 361 0000 64617461 		.ascii	"data[%d][%d] = %d\015\012\000"
 361      5B25645D 
 361      5B25645D 
 361      203D2025 
 361      640D0A00 
 362              		.section	.text.post_process,"ax",%progbits
 363              		.align	1
 364              		.global	post_process
 365              		.syntax unified
 366              		.thumb
 367              		.thumb_func
 369              	post_process:
 370              	.LVL32:
 371              	.LFB148:
 193:X-CUBE-AI/App/app_x-cube-ai.c **** 
 194:X-CUBE-AI/App/app_x-cube-ai.c ****   int post_process(ai_i8 *data[])
 195:X-CUBE-AI/App/app_x-cube-ai.c ****   {
 372              		.loc 1 195 3 is_stmt 1 view -0
 373              		.cfi_startproc
 374              		@ args = 0, pretend = 0, frame = 16
 375              		@ frame_needed = 0, uses_anonymous_args = 0
 376              		.loc 1 195 3 is_stmt 0 view .LVU83
 377 0000 70B5     		push	{r4, r5, r6, lr}
 378              		.cfi_def_cfa_offset 16
 379              		.cfi_offset 4, -16
 380              		.cfi_offset 5, -12
 381              		.cfi_offset 6, -8
 382              		.cfi_offset 14, -4
 383 0002 84B0     		sub	sp, sp, #16
 384              		.cfi_def_cfa_offset 32
 385 0004 0646     		mov	r6, r0
 196:X-CUBE-AI/App/app_x-cube-ai.c ****     /* process the predictions*/
 197:X-CUBE-AI/App/app_x-cube-ai.c ****     for (int idx = 0; idx < AI_AUDIO_CLASSIFIER_OUT_NUM; idx++)
 386              		.loc 1 197 5 is_stmt 1 view .LVU84
 387              	.LBB10:
 388              		.loc 1 197 10 view .LVU85
 389              	.LVL33:
 390              		.loc 1 197 14 is_stmt 0 view .LVU86
ARM GAS  /var/folders/n6/c271nzx11xl4r4_m7sqjlt0m0000gn/T//ccWrwP9n.s 			page 12


 391 0006 0025     		movs	r5, #0
 392              	.LVL34:
 393              	.L30:
 394              		.loc 1 197 27 is_stmt 1 discriminator 1 view .LVU87
 395 0008 002D     		cmp	r5, #0
 396 000a 02DD     		ble	.L33
 397              	.LBE10:
 198:X-CUBE-AI/App/app_x-cube-ai.c ****     {
 199:X-CUBE-AI/App/app_x-cube-ai.c ****       float data_out[AI_AUDIO_CLASSIFIER_OUT_1_SIZE];
 200:X-CUBE-AI/App/app_x-cube-ai.c ****       memcpy(data_out, data[idx], AI_AUDIO_CLASSIFIER_OUT_1_SIZE_BYTES);
 201:X-CUBE-AI/App/app_x-cube-ai.c ****       for (int i = 0; i < AI_AUDIO_CLASSIFIER_OUT_1_SIZE; i++)
 202:X-CUBE-AI/App/app_x-cube-ai.c ****       {
 203:X-CUBE-AI/App/app_x-cube-ai.c ****         printf("data[%d][%d] = %d\r\n", idx, i, (int)(data_out[i] * 10000));
 204:X-CUBE-AI/App/app_x-cube-ai.c ****       }
 205:X-CUBE-AI/App/app_x-cube-ai.c ****     }
 206:X-CUBE-AI/App/app_x-cube-ai.c **** 
 207:X-CUBE-AI/App/app_x-cube-ai.c ****     return 0;
 398              		.loc 1 207 5 view .LVU88
 208:X-CUBE-AI/App/app_x-cube-ai.c ****   }
 399              		.loc 1 208 3 is_stmt 0 view .LVU89
 400 000c 0020     		movs	r0, #0
 401 000e 04B0     		add	sp, sp, #16
 402              		.cfi_remember_state
 403              		.cfi_def_cfa_offset 16
 404              		@ sp needed
 405 0010 70BD     		pop	{r4, r5, r6, pc}
 406              	.LVL35:
 407              	.L33:
 408              		.cfi_restore_state
 409              	.LBB13:
 410              	.LBB11:
 199:X-CUBE-AI/App/app_x-cube-ai.c ****       memcpy(data_out, data[idx], AI_AUDIO_CLASSIFIER_OUT_1_SIZE_BYTES);
 411              		.loc 1 199 7 is_stmt 1 view .LVU90
 200:X-CUBE-AI/App/app_x-cube-ai.c ****       for (int i = 0; i < AI_AUDIO_CLASSIFIER_OUT_1_SIZE; i++)
 412              		.loc 1 200 7 view .LVU91
 413 0012 56F82530 		ldr	r3, [r6, r5, lsl #2]
 414 0016 6C46     		mov	r4, sp
 415 0018 1868     		ldr	r0, [r3]	@ unaligned
 416 001a 5968     		ldr	r1, [r3, #4]	@ unaligned
 417 001c 9A68     		ldr	r2, [r3, #8]	@ unaligned
 418 001e DB68     		ldr	r3, [r3, #12]	@ unaligned
 419 0020 0FC4     		stmia	r4!, {r0, r1, r2, r3}
 201:X-CUBE-AI/App/app_x-cube-ai.c ****       {
 420              		.loc 1 201 7 view .LVU92
 421              	.LBB12:
 201:X-CUBE-AI/App/app_x-cube-ai.c ****       {
 422              		.loc 1 201 12 view .LVU93
 423              	.LVL36:
 201:X-CUBE-AI/App/app_x-cube-ai.c ****       {
 424              		.loc 1 201 16 is_stmt 0 view .LVU94
 425 0022 0024     		movs	r4, #0
 201:X-CUBE-AI/App/app_x-cube-ai.c ****       {
 426              		.loc 1 201 7 view .LVU95
 427 0024 12E0     		b	.L31
 428              	.LVL37:
 429              	.L32:
 203:X-CUBE-AI/App/app_x-cube-ai.c ****       }
ARM GAS  /var/folders/n6/c271nzx11xl4r4_m7sqjlt0m0000gn/T//ccWrwP9n.s 			page 13


 430              		.loc 1 203 9 is_stmt 1 view .LVU96
 203:X-CUBE-AI/App/app_x-cube-ai.c ****       }
 431              		.loc 1 203 63 is_stmt 0 view .LVU97
 432 0026 04AB     		add	r3, sp, #16
 433 0028 03EB8403 		add	r3, r3, r4, lsl #2
 434 002c 53ED047A 		vldr.32	s15, [r3, #-16]
 203:X-CUBE-AI/App/app_x-cube-ai.c ****       }
 435              		.loc 1 203 67 view .LVU98
 436 0030 9FED087A 		vldr.32	s14, .L35
 437 0034 67EE877A 		vmul.f32	s15, s15, s14
 203:X-CUBE-AI/App/app_x-cube-ai.c ****       }
 438              		.loc 1 203 9 view .LVU99
 439 0038 FDEEE77A 		vcvt.s32.f32	s15, s15
 440 003c 17EE903A 		vmov	r3, s15	@ int
 441 0040 2246     		mov	r2, r4
 442 0042 2946     		mov	r1, r5
 443 0044 0448     		ldr	r0, .L35+4
 444 0046 FFF7FEFF 		bl	printf
 445              	.LVL38:
 201:X-CUBE-AI/App/app_x-cube-ai.c ****       {
 446              		.loc 1 201 60 is_stmt 1 discriminator 3 view .LVU100
 447 004a 0134     		adds	r4, r4, #1
 448              	.LVL39:
 449              	.L31:
 201:X-CUBE-AI/App/app_x-cube-ai.c ****       {
 450              		.loc 1 201 25 discriminator 1 view .LVU101
 451 004c 032C     		cmp	r4, #3
 452 004e EADD     		ble	.L32
 453              	.LBE12:
 454              	.LBE11:
 197:X-CUBE-AI/App/app_x-cube-ai.c ****     {
 455              		.loc 1 197 61 discriminator 2 view .LVU102
 456 0050 0135     		adds	r5, r5, #1
 457              	.LVL40:
 197:X-CUBE-AI/App/app_x-cube-ai.c ****     {
 458              		.loc 1 197 61 is_stmt 0 discriminator 2 view .LVU103
 459 0052 D9E7     		b	.L30
 460              	.L36:
 461              		.align	2
 462              	.L35:
 463 0054 00401C46 		.word	1176256512
 464 0058 00000000 		.word	.LC4
 465              	.LBE13:
 466              		.cfi_endproc
 467              	.LFE148:
 469              		.section	.rodata.MX_X_CUBE_AI_Init.str1.4,"aMS",%progbits,1
 470              		.align	2
 471              	.LC5:
 472 0000 0D0A5445 		.ascii	"\015\012TEMPLATE - initialization\015\000"
 472      4D504C41 
 472      5445202D 
 472      20696E69 
 472      7469616C 
 473              		.section	.text.MX_X_CUBE_AI_Init,"ax",%progbits
 474              		.align	1
 475              		.global	MX_X_CUBE_AI_Init
 476              		.syntax unified
ARM GAS  /var/folders/n6/c271nzx11xl4r4_m7sqjlt0m0000gn/T//ccWrwP9n.s 			page 14


 477              		.thumb
 478              		.thumb_func
 480              	MX_X_CUBE_AI_Init:
 481              	.LFB149:
 209:X-CUBE-AI/App/app_x-cube-ai.c ****   /* USER CODE END 2 */
 210:X-CUBE-AI/App/app_x-cube-ai.c **** 
 211:X-CUBE-AI/App/app_x-cube-ai.c ****   /* Entry points --------------------------------------------------------------*/
 212:X-CUBE-AI/App/app_x-cube-ai.c **** 
 213:X-CUBE-AI/App/app_x-cube-ai.c ****   void MX_X_CUBE_AI_Init(void)
 214:X-CUBE-AI/App/app_x-cube-ai.c ****   {
 482              		.loc 1 214 3 is_stmt 1 view -0
 483              		.cfi_startproc
 484              		@ args = 0, pretend = 0, frame = 0
 485              		@ frame_needed = 0, uses_anonymous_args = 0
 486 0000 08B5     		push	{r3, lr}
 487              		.cfi_def_cfa_offset 8
 488              		.cfi_offset 3, -8
 489              		.cfi_offset 14, -4
 215:X-CUBE-AI/App/app_x-cube-ai.c ****     /* USER CODE BEGIN 5 */
 216:X-CUBE-AI/App/app_x-cube-ai.c ****     printf("\r\nTEMPLATE - initialization\r\n");
 490              		.loc 1 216 5 view .LVU105
 491 0002 0348     		ldr	r0, .L39
 492 0004 FFF7FEFF 		bl	puts
 493              	.LVL41:
 217:X-CUBE-AI/App/app_x-cube-ai.c **** 
 218:X-CUBE-AI/App/app_x-cube-ai.c ****     ai_boostrap(data_activations0);
 494              		.loc 1 218 5 view .LVU106
 495 0008 0248     		ldr	r0, .L39+4
 496 000a FFF7FEFF 		bl	ai_boostrap
 497              	.LVL42:
 219:X-CUBE-AI/App/app_x-cube-ai.c ****     /* USER CODE END 5 */
 220:X-CUBE-AI/App/app_x-cube-ai.c ****   }
 498              		.loc 1 220 3 is_stmt 0 view .LVU107
 499 000e 08BD     		pop	{r3, pc}
 500              	.L40:
 501              		.align	2
 502              	.L39:
 503 0010 00000000 		.word	.LC5
 504 0014 00000000 		.word	data_activations0
 505              		.cfi_endproc
 506              	.LFE149:
 508              		.section	.rodata.MX_X_CUBE_AI_Process.str1.4,"aMS",%progbits,1
 509              		.align	2
 510              	.LC6:
 511 0000 54454D50 		.ascii	"TEMPLATE - run - main loop\015\000"
 511      4C415445 
 511      202D2072 
 511      756E202D 
 511      206D6169 
 512              		.align	2
 513              	.LC7:
 514 001c 54454D50 		.ascii	"TEMPLATE - run - main loop - OK\015\000"
 514      4C415445 
 514      202D2072 
 514      756E202D 
 514      206D6169 
 515 003d 000000   		.align	2
ARM GAS  /var/folders/n6/c271nzx11xl4r4_m7sqjlt0m0000gn/T//ccWrwP9n.s 			page 15


 516              	.LC8:
 517 0040 50726F63 		.ascii	"Process has FAILED\000"
 517      65737320 
 517      68617320 
 517      4641494C 
 517      454400
 518              		.section	.text.MX_X_CUBE_AI_Process,"ax",%progbits
 519              		.align	1
 520              		.global	MX_X_CUBE_AI_Process
 521              		.syntax unified
 522              		.thumb
 523              		.thumb_func
 525              	MX_X_CUBE_AI_Process:
 526              	.LVL43:
 527              	.LFB150:
 221:X-CUBE-AI/App/app_x-cube-ai.c **** 
 222:X-CUBE-AI/App/app_x-cube-ai.c ****   void MX_X_CUBE_AI_Process(float *data_in, float *data_out)
 223:X-CUBE-AI/App/app_x-cube-ai.c ****   {
 528              		.loc 1 223 3 is_stmt 1 view -0
 529              		.cfi_startproc
 530              		@ args = 0, pretend = 0, frame = 0
 531              		@ frame_needed = 0, uses_anonymous_args = 0
 532              		.loc 1 223 3 is_stmt 0 view .LVU109
 533 0000 10B5     		push	{r4, lr}
 534              		.cfi_def_cfa_offset 8
 535              		.cfi_offset 4, -8
 536              		.cfi_offset 14, -4
 537 0002 0446     		mov	r4, r0
 224:X-CUBE-AI/App/app_x-cube-ai.c ****     /* USER CODE BEGIN 6 */
 225:X-CUBE-AI/App/app_x-cube-ai.c ****     int res = -1;
 538              		.loc 1 225 5 is_stmt 1 view .LVU110
 539              	.LVL44:
 226:X-CUBE-AI/App/app_x-cube-ai.c **** 
 227:X-CUBE-AI/App/app_x-cube-ai.c ****     printf("TEMPLATE - run - main loop\r\n");
 540              		.loc 1 227 5 view .LVU111
 541 0004 1148     		ldr	r0, .L48
 542              	.LVL45:
 543              		.loc 1 227 5 is_stmt 0 view .LVU112
 544 0006 FFF7FEFF 		bl	puts
 545              	.LVL46:
 228:X-CUBE-AI/App/app_x-cube-ai.c **** 
 229:X-CUBE-AI/App/app_x-cube-ai.c ****     if (audio_classifier)
 546              		.loc 1 229 5 is_stmt 1 view .LVU113
 547              		.loc 1 229 9 is_stmt 0 view .LVU114
 548 000a 114B     		ldr	r3, .L48+4
 549 000c 1B68     		ldr	r3, [r3]
 550              		.loc 1 229 8 view .LVU115
 551 000e 93B1     		cbz	r3, .L42
 230:X-CUBE-AI/App/app_x-cube-ai.c ****     {
 231:X-CUBE-AI/App/app_x-cube-ai.c ****       printf("TEMPLATE - run - main loop - OK\r\n");
 552              		.loc 1 231 7 is_stmt 1 view .LVU116
 553 0010 1048     		ldr	r0, .L48+8
 554 0012 FFF7FEFF 		bl	puts
 555              	.LVL47:
 232:X-CUBE-AI/App/app_x-cube-ai.c **** 
 233:X-CUBE-AI/App/app_x-cube-ai.c ****       do
 556              		.loc 1 233 7 view .LVU117
ARM GAS  /var/folders/n6/c271nzx11xl4r4_m7sqjlt0m0000gn/T//ccWrwP9n.s 			page 16


 234:X-CUBE-AI/App/app_x-cube-ai.c ****       {
 235:X-CUBE-AI/App/app_x-cube-ai.c ****         /* 1 - acquire and pre-process input data */
 236:X-CUBE-AI/App/app_x-cube-ai.c ****         res = acquire_and_process_data(data_ins, data_in);
 557              		.loc 1 236 9 view .LVU118
 558              		.loc 1 236 15 is_stmt 0 view .LVU119
 559 0016 2146     		mov	r1, r4
 560 0018 0F48     		ldr	r0, .L48+12
 561 001a FFF7FEFF 		bl	acquire_and_process_data
 562              	.LVL48:
 237:X-CUBE-AI/App/app_x-cube-ai.c ****         /* 2 - process the data - call inference engine */
 238:X-CUBE-AI/App/app_x-cube-ai.c ****         if (res == 0)
 563              		.loc 1 238 9 is_stmt 1 view .LVU120
 564              		.loc 1 238 12 is_stmt 0 view .LVU121
 565 001e 0346     		mov	r3, r0
 566 0020 08B1     		cbz	r0, .L46
 567              	.L43:
 239:X-CUBE-AI/App/app_x-cube-ai.c ****           res = ai_run();
 240:X-CUBE-AI/App/app_x-cube-ai.c ****         /* 3- post-process the predictions */
 241:X-CUBE-AI/App/app_x-cube-ai.c ****         if (res == 0)
 568              		.loc 1 241 9 is_stmt 1 view .LVU122
 569              		.loc 1 241 12 is_stmt 0 view .LVU123
 570 0022 23B1     		cbz	r3, .L47
 571              	.LVL49:
 572              	.L44:
 242:X-CUBE-AI/App/app_x-cube-ai.c ****           res = post_process(data_outs);
 243:X-CUBE-AI/App/app_x-cube-ai.c ****         while (1)
 573              		.loc 1 243 9 is_stmt 1 view .LVU124
 244:X-CUBE-AI/App/app_x-cube-ai.c ****         {
 245:X-CUBE-AI/App/app_x-cube-ai.c ****         }
 574              		.loc 1 245 9 view .LVU125
 243:X-CUBE-AI/App/app_x-cube-ai.c ****         {
 575              		.loc 1 243 15 view .LVU126
 576 0024 FEE7     		b	.L44
 577              	.LVL50:
 578              	.L46:
 239:X-CUBE-AI/App/app_x-cube-ai.c ****         /* 3- post-process the predictions */
 579              		.loc 1 239 11 view .LVU127
 239:X-CUBE-AI/App/app_x-cube-ai.c ****         /* 3- post-process the predictions */
 580              		.loc 1 239 17 is_stmt 0 view .LVU128
 581 0026 FFF7FEFF 		bl	ai_run
 582              	.LVL51:
 239:X-CUBE-AI/App/app_x-cube-ai.c ****         /* 3- post-process the predictions */
 583              		.loc 1 239 17 view .LVU129
 584 002a 0346     		mov	r3, r0
 585              	.LVL52:
 239:X-CUBE-AI/App/app_x-cube-ai.c ****         /* 3- post-process the predictions */
 586              		.loc 1 239 17 view .LVU130
 587 002c F9E7     		b	.L43
 588              	.L47:
 242:X-CUBE-AI/App/app_x-cube-ai.c ****         while (1)
 589              		.loc 1 242 11 is_stmt 1 view .LVU131
 242:X-CUBE-AI/App/app_x-cube-ai.c ****         while (1)
 590              		.loc 1 242 17 is_stmt 0 view .LVU132
 591 002e 0B48     		ldr	r0, .L48+16
 592              	.LVL53:
 242:X-CUBE-AI/App/app_x-cube-ai.c ****         while (1)
 593              		.loc 1 242 17 view .LVU133
ARM GAS  /var/folders/n6/c271nzx11xl4r4_m7sqjlt0m0000gn/T//ccWrwP9n.s 			page 17


 594 0030 FFF7FEFF 		bl	post_process
 595              	.LVL54:
 242:X-CUBE-AI/App/app_x-cube-ai.c ****         while (1)
 596              		.loc 1 242 17 view .LVU134
 597 0034 F6E7     		b	.L44
 598              	.LVL55:
 599              	.L42:
 246:X-CUBE-AI/App/app_x-cube-ai.c ****       } while (res == 0);
 247:X-CUBE-AI/App/app_x-cube-ai.c ****     }
 248:X-CUBE-AI/App/app_x-cube-ai.c **** 
 249:X-CUBE-AI/App/app_x-cube-ai.c ****     if (res)
 600              		.loc 1 249 5 is_stmt 1 view .LVU135
 601              	.LBB14:
 250:X-CUBE-AI/App/app_x-cube-ai.c ****     {
 251:X-CUBE-AI/App/app_x-cube-ai.c ****       ai_error err = {AI_ERROR_INVALID_STATE, AI_ERROR_CODE_NETWORK};
 602              		.loc 1 251 7 view .LVU136
 603              		.loc 1 251 16 is_stmt 0 view .LVU137
 604 0036 0020     		movs	r0, #0
 605              	.LVL56:
 606              		.loc 1 251 16 view .LVU138
 607 0038 1123     		movs	r3, #17
 608 003a 63F30700 		bfi	r0, r3, #0, #8
 609              	.LVL57:
 610              		.loc 1 251 16 view .LVU139
 611 003e 1023     		movs	r3, #16
 612 0040 63F31F20 		bfi	r0, r3, #8, #24
 252:X-CUBE-AI/App/app_x-cube-ai.c ****       ai_log_err(err, "Process has FAILED");
 613              		.loc 1 252 7 is_stmt 1 view .LVU140
 614 0044 0649     		ldr	r1, .L48+20
 615 0046 FFF7FEFF 		bl	ai_log_err
 616              	.LVL58:
 617              	.L49:
 618              		.loc 1 252 7 is_stmt 0 view .LVU141
 619 004a 00BF     		.align	2
 620              	.L48:
 621 004c 00000000 		.word	.LC6
 622 0050 00000000 		.word	audio_classifier
 623 0054 1C000000 		.word	.LC7
 624 0058 00000000 		.word	data_ins
 625 005c 00000000 		.word	data_outs
 626 0060 40000000 		.word	.LC8
 627              	.LBE14:
 628              		.cfi_endproc
 629              	.LFE150:
 631              		.section	.bss.ai_output,"aw",%nobits
 632              		.align	2
 635              	ai_output:
 636 0000 00000000 		.space	4
 637              		.section	.bss.ai_input,"aw",%nobits
 638              		.align	2
 641              	ai_input:
 642 0000 00000000 		.space	4
 643              		.section	.bss.audio_classifier,"aw",%nobits
 644              		.align	2
 647              	audio_classifier:
 648 0000 00000000 		.space	4
 649              		.global	data_activations0
ARM GAS  /var/folders/n6/c271nzx11xl4r4_m7sqjlt0m0000gn/T//ccWrwP9n.s 			page 18


 650              		.section	.data.data_activations0,"aw"
 651              		.align	2
 654              	data_activations0:
 655 0000 00000000 		.word	pool0
 656              		.section	.bss.pool0,"aw",%nobits
 657              		.align	5
 660              	pool0:
 661 0000 00000000 		.space	19344
 661      00000000 
 661      00000000 
 661      00000000 
 661      00000000 
 662              		.global	data_outs
 663              		.section	.bss.data_outs,"aw",%nobits
 664              		.align	2
 667              	data_outs:
 668 0000 00000000 		.space	4
 669              		.global	data_ins
 670              		.section	.bss.data_ins,"aw",%nobits
 671              		.align	2
 674              	data_ins:
 675 0000 00000000 		.space	4
 676              		.text
 677              	.Letext0:
 678              		.file 2 "/Users/killian/Library/Application Support/Code/User/globalStorage/bmd.stm32-for-vscode/@
 679              		.file 3 "/Users/killian/Library/Application Support/Code/User/globalStorage/bmd.stm32-for-vscode/@
 680              		.file 4 "/Users/killian/Library/Application Support/Code/User/globalStorage/bmd.stm32-for-vscode/@
 681              		.file 5 "Middlewares/ST/AI/Inc/ai_platform.h"
 682              		.file 6 "X-CUBE-AI/App/audio_classifier.h"
 683              		.file 7 "/Users/killian/Library/Application Support/Code/User/globalStorage/bmd.stm32-for-vscode/@
 684              		.file 8 "/Users/killian/Library/Application Support/Code/User/globalStorage/bmd.stm32-for-vscode/@
 685              		.file 9 "<built-in>"
ARM GAS  /var/folders/n6/c271nzx11xl4r4_m7sqjlt0m0000gn/T//ccWrwP9n.s 			page 19

