ARM GAS  /var/folders/n6/c271nzx11xl4r4_m7sqjlt0m0000gn/T//ccAqnbdx.s 			page 1


   1              		.cpu cortex-m7
   2              		.arch armv7e-m
   3              		.fpu fpv5-d16
   4              		.eabi_attribute 28, 1
   5              		.eabi_attribute 20, 1
   6              		.eabi_attribute 21, 1
   7              		.eabi_attribute 23, 3
   8              		.eabi_attribute 24, 1
   9              		.eabi_attribute 25, 1
  10              		.eabi_attribute 26, 1
  11              		.eabi_attribute 30, 1
  12              		.eabi_attribute 34, 1
  13              		.eabi_attribute 18, 4
  14              		.file	"arm_cfft_radix4_init_f32.c"
  15              		.text
  16              	.Ltext0:
  17              		.cfi_sections	.debug_frame
  18              		.file 1 "Drivers/CMSIS/DSP/Source/TransformFunctions/arm_cfft_radix4_init_f32.c"
  19              		.section	.text.arm_cfft_radix4_init_f32,"ax",%progbits
  20              		.align	1
  21              		.global	arm_cfft_radix4_init_f32
  22              		.syntax unified
  23              		.thumb
  24              		.thumb_func
  26              	arm_cfft_radix4_init_f32:
  27              	.LVL0:
  28              	.LFB135:
   1:Drivers/CMSIS/DSP/Source/TransformFunctions/arm_cfft_radix4_init_f32.c **** /* ----------------------------------------------------------------------
   2:Drivers/CMSIS/DSP/Source/TransformFunctions/arm_cfft_radix4_init_f32.c ****  * Project:      CMSIS DSP Library
   3:Drivers/CMSIS/DSP/Source/TransformFunctions/arm_cfft_radix4_init_f32.c ****  * Title:        arm_cfft_radix4_init_f32.c
   4:Drivers/CMSIS/DSP/Source/TransformFunctions/arm_cfft_radix4_init_f32.c ****  * Description:  Radix-4 Decimation in Frequency Floating-point CFFT & CIFFT Initialization functio
   5:Drivers/CMSIS/DSP/Source/TransformFunctions/arm_cfft_radix4_init_f32.c ****  *
   6:Drivers/CMSIS/DSP/Source/TransformFunctions/arm_cfft_radix4_init_f32.c ****  * $Date:        27. January 2017
   7:Drivers/CMSIS/DSP/Source/TransformFunctions/arm_cfft_radix4_init_f32.c ****  * $Revision:    V.1.5.1
   8:Drivers/CMSIS/DSP/Source/TransformFunctions/arm_cfft_radix4_init_f32.c ****  *
   9:Drivers/CMSIS/DSP/Source/TransformFunctions/arm_cfft_radix4_init_f32.c ****  * Target Processor: Cortex-M cores
  10:Drivers/CMSIS/DSP/Source/TransformFunctions/arm_cfft_radix4_init_f32.c ****  * -------------------------------------------------------------------- */
  11:Drivers/CMSIS/DSP/Source/TransformFunctions/arm_cfft_radix4_init_f32.c **** /*
  12:Drivers/CMSIS/DSP/Source/TransformFunctions/arm_cfft_radix4_init_f32.c ****  * Copyright (C) 2010-2017 ARM Limited or its affiliates. All rights reserved.
  13:Drivers/CMSIS/DSP/Source/TransformFunctions/arm_cfft_radix4_init_f32.c ****  *
  14:Drivers/CMSIS/DSP/Source/TransformFunctions/arm_cfft_radix4_init_f32.c ****  * SPDX-License-Identifier: Apache-2.0
  15:Drivers/CMSIS/DSP/Source/TransformFunctions/arm_cfft_radix4_init_f32.c ****  *
  16:Drivers/CMSIS/DSP/Source/TransformFunctions/arm_cfft_radix4_init_f32.c ****  * Licensed under the Apache License, Version 2.0 (the License); you may
  17:Drivers/CMSIS/DSP/Source/TransformFunctions/arm_cfft_radix4_init_f32.c ****  * not use this file except in compliance with the License.
  18:Drivers/CMSIS/DSP/Source/TransformFunctions/arm_cfft_radix4_init_f32.c ****  * You may obtain a copy of the License at
  19:Drivers/CMSIS/DSP/Source/TransformFunctions/arm_cfft_radix4_init_f32.c ****  *
  20:Drivers/CMSIS/DSP/Source/TransformFunctions/arm_cfft_radix4_init_f32.c ****  * www.apache.org/licenses/LICENSE-2.0
  21:Drivers/CMSIS/DSP/Source/TransformFunctions/arm_cfft_radix4_init_f32.c ****  *
  22:Drivers/CMSIS/DSP/Source/TransformFunctions/arm_cfft_radix4_init_f32.c ****  * Unless required by applicable law or agreed to in writing, software
  23:Drivers/CMSIS/DSP/Source/TransformFunctions/arm_cfft_radix4_init_f32.c ****  * distributed under the License is distributed on an AS IS BASIS, WITHOUT
  24:Drivers/CMSIS/DSP/Source/TransformFunctions/arm_cfft_radix4_init_f32.c ****  * WARRANTIES OR CONDITIONS OF ANY KIND, either express or implied.
  25:Drivers/CMSIS/DSP/Source/TransformFunctions/arm_cfft_radix4_init_f32.c ****  * See the License for the specific language governing permissions and
  26:Drivers/CMSIS/DSP/Source/TransformFunctions/arm_cfft_radix4_init_f32.c ****  * limitations under the License.
  27:Drivers/CMSIS/DSP/Source/TransformFunctions/arm_cfft_radix4_init_f32.c ****  */
  28:Drivers/CMSIS/DSP/Source/TransformFunctions/arm_cfft_radix4_init_f32.c **** 
  29:Drivers/CMSIS/DSP/Source/TransformFunctions/arm_cfft_radix4_init_f32.c **** #include "arm_math.h"
  30:Drivers/CMSIS/DSP/Source/TransformFunctions/arm_cfft_radix4_init_f32.c **** #include "arm_common_tables.h"
ARM GAS  /var/folders/n6/c271nzx11xl4r4_m7sqjlt0m0000gn/T//ccAqnbdx.s 			page 2


  31:Drivers/CMSIS/DSP/Source/TransformFunctions/arm_cfft_radix4_init_f32.c **** 
  32:Drivers/CMSIS/DSP/Source/TransformFunctions/arm_cfft_radix4_init_f32.c **** /**
  33:Drivers/CMSIS/DSP/Source/TransformFunctions/arm_cfft_radix4_init_f32.c ****  * @ingroup groupTransforms
  34:Drivers/CMSIS/DSP/Source/TransformFunctions/arm_cfft_radix4_init_f32.c ****  */
  35:Drivers/CMSIS/DSP/Source/TransformFunctions/arm_cfft_radix4_init_f32.c **** 
  36:Drivers/CMSIS/DSP/Source/TransformFunctions/arm_cfft_radix4_init_f32.c **** /**
  37:Drivers/CMSIS/DSP/Source/TransformFunctions/arm_cfft_radix4_init_f32.c ****  * @addtogroup ComplexFFT
  38:Drivers/CMSIS/DSP/Source/TransformFunctions/arm_cfft_radix4_init_f32.c ****  * @{
  39:Drivers/CMSIS/DSP/Source/TransformFunctions/arm_cfft_radix4_init_f32.c ****  */
  40:Drivers/CMSIS/DSP/Source/TransformFunctions/arm_cfft_radix4_init_f32.c **** 
  41:Drivers/CMSIS/DSP/Source/TransformFunctions/arm_cfft_radix4_init_f32.c **** /**
  42:Drivers/CMSIS/DSP/Source/TransformFunctions/arm_cfft_radix4_init_f32.c **** * @brief  Initialization function for the floating-point CFFT/CIFFT.
  43:Drivers/CMSIS/DSP/Source/TransformFunctions/arm_cfft_radix4_init_f32.c **** * @deprecated Do not use this function.  It has been superceded by \ref arm_cfft_f32 and will be re
  44:Drivers/CMSIS/DSP/Source/TransformFunctions/arm_cfft_radix4_init_f32.c **** * in the future.
  45:Drivers/CMSIS/DSP/Source/TransformFunctions/arm_cfft_radix4_init_f32.c **** * @param[in,out] *S             points to an instance of the floating-point CFFT/CIFFT structure.
  46:Drivers/CMSIS/DSP/Source/TransformFunctions/arm_cfft_radix4_init_f32.c **** * @param[in]     fftLen         length of the FFT.
  47:Drivers/CMSIS/DSP/Source/TransformFunctions/arm_cfft_radix4_init_f32.c **** * @param[in]     ifftFlag       flag that selects forward (ifftFlag=0) or inverse (ifftFlag=1) tran
  48:Drivers/CMSIS/DSP/Source/TransformFunctions/arm_cfft_radix4_init_f32.c **** * @param[in]     bitReverseFlag flag that enables (bitReverseFlag=1) or disables (bitReverseFlag=0)
  49:Drivers/CMSIS/DSP/Source/TransformFunctions/arm_cfft_radix4_init_f32.c **** * @return        The function returns ARM_MATH_SUCCESS if initialization is successful or ARM_MATH_
  50:Drivers/CMSIS/DSP/Source/TransformFunctions/arm_cfft_radix4_init_f32.c **** *
  51:Drivers/CMSIS/DSP/Source/TransformFunctions/arm_cfft_radix4_init_f32.c **** * \par Description:
  52:Drivers/CMSIS/DSP/Source/TransformFunctions/arm_cfft_radix4_init_f32.c **** * \par
  53:Drivers/CMSIS/DSP/Source/TransformFunctions/arm_cfft_radix4_init_f32.c **** * The parameter <code>ifftFlag</code> controls whether a forward or inverse transform is computed.
  54:Drivers/CMSIS/DSP/Source/TransformFunctions/arm_cfft_radix4_init_f32.c **** * Set(=1) ifftFlag for calculation of CIFFT otherwise  CFFT is calculated
  55:Drivers/CMSIS/DSP/Source/TransformFunctions/arm_cfft_radix4_init_f32.c **** * \par
  56:Drivers/CMSIS/DSP/Source/TransformFunctions/arm_cfft_radix4_init_f32.c **** * The parameter <code>bitReverseFlag</code> controls whether output is in normal order or bit rever
  57:Drivers/CMSIS/DSP/Source/TransformFunctions/arm_cfft_radix4_init_f32.c **** * Set(=1) bitReverseFlag for output to be in normal order otherwise output is in bit reversed order
  58:Drivers/CMSIS/DSP/Source/TransformFunctions/arm_cfft_radix4_init_f32.c **** * \par
  59:Drivers/CMSIS/DSP/Source/TransformFunctions/arm_cfft_radix4_init_f32.c **** * The parameter <code>fftLen</code>	Specifies length of CFFT/CIFFT process. Supported FFT Lengths a
  60:Drivers/CMSIS/DSP/Source/TransformFunctions/arm_cfft_radix4_init_f32.c **** * \par
  61:Drivers/CMSIS/DSP/Source/TransformFunctions/arm_cfft_radix4_init_f32.c **** * This Function also initializes Twiddle factor table pointer and Bit reversal table pointer.
  62:Drivers/CMSIS/DSP/Source/TransformFunctions/arm_cfft_radix4_init_f32.c **** */
  63:Drivers/CMSIS/DSP/Source/TransformFunctions/arm_cfft_radix4_init_f32.c **** 
  64:Drivers/CMSIS/DSP/Source/TransformFunctions/arm_cfft_radix4_init_f32.c **** arm_status arm_cfft_radix4_init_f32(
  65:Drivers/CMSIS/DSP/Source/TransformFunctions/arm_cfft_radix4_init_f32.c ****   arm_cfft_radix4_instance_f32 * S,
  66:Drivers/CMSIS/DSP/Source/TransformFunctions/arm_cfft_radix4_init_f32.c ****   uint16_t fftLen,
  67:Drivers/CMSIS/DSP/Source/TransformFunctions/arm_cfft_radix4_init_f32.c ****   uint8_t ifftFlag,
  68:Drivers/CMSIS/DSP/Source/TransformFunctions/arm_cfft_radix4_init_f32.c ****   uint8_t bitReverseFlag)
  69:Drivers/CMSIS/DSP/Source/TransformFunctions/arm_cfft_radix4_init_f32.c **** {
  29              		.loc 1 69 1 view -0
  30              		.cfi_startproc
  31              		@ args = 0, pretend = 0, frame = 0
  32              		@ frame_needed = 0, uses_anonymous_args = 0
  33              		@ link register save eliminated.
  34              		.loc 1 69 1 is_stmt 0 view .LVU1
  35 0000 10B4     		push	{r4}
  36              		.cfi_def_cfa_offset 4
  37              		.cfi_offset 4, -4
  70:Drivers/CMSIS/DSP/Source/TransformFunctions/arm_cfft_radix4_init_f32.c ****   /*  Initialise the default arm status */
  71:Drivers/CMSIS/DSP/Source/TransformFunctions/arm_cfft_radix4_init_f32.c ****   arm_status status = ARM_MATH_SUCCESS;
  38              		.loc 1 71 3 is_stmt 1 view .LVU2
  39              	.LVL1:
  72:Drivers/CMSIS/DSP/Source/TransformFunctions/arm_cfft_radix4_init_f32.c **** 
  73:Drivers/CMSIS/DSP/Source/TransformFunctions/arm_cfft_radix4_init_f32.c ****   /*  Initialise the FFT length */
  74:Drivers/CMSIS/DSP/Source/TransformFunctions/arm_cfft_radix4_init_f32.c ****   S->fftLen = fftLen;
  40              		.loc 1 74 3 view .LVU3
  41              		.loc 1 74 13 is_stmt 0 view .LVU4
ARM GAS  /var/folders/n6/c271nzx11xl4r4_m7sqjlt0m0000gn/T//ccAqnbdx.s 			page 3


  42 0002 0180     		strh	r1, [r0]	@ movhi
  75:Drivers/CMSIS/DSP/Source/TransformFunctions/arm_cfft_radix4_init_f32.c **** 
  76:Drivers/CMSIS/DSP/Source/TransformFunctions/arm_cfft_radix4_init_f32.c ****   /*  Initialise the Twiddle coefficient pointer */
  77:Drivers/CMSIS/DSP/Source/TransformFunctions/arm_cfft_radix4_init_f32.c ****   S->pTwiddle = (float32_t *) twiddleCoef;
  43              		.loc 1 77 3 is_stmt 1 view .LVU5
  44              		.loc 1 77 15 is_stmt 0 view .LVU6
  45 0004 264C     		ldr	r4, .L12
  46 0006 4460     		str	r4, [r0, #4]
  78:Drivers/CMSIS/DSP/Source/TransformFunctions/arm_cfft_radix4_init_f32.c **** 
  79:Drivers/CMSIS/DSP/Source/TransformFunctions/arm_cfft_radix4_init_f32.c ****   /*  Initialise the Flag for selection of CFFT or CIFFT */
  80:Drivers/CMSIS/DSP/Source/TransformFunctions/arm_cfft_radix4_init_f32.c ****   S->ifftFlag = ifftFlag;
  47              		.loc 1 80 3 is_stmt 1 view .LVU7
  48              		.loc 1 80 15 is_stmt 0 view .LVU8
  49 0008 8270     		strb	r2, [r0, #2]
  81:Drivers/CMSIS/DSP/Source/TransformFunctions/arm_cfft_radix4_init_f32.c **** 
  82:Drivers/CMSIS/DSP/Source/TransformFunctions/arm_cfft_radix4_init_f32.c ****   /*  Initialise the Flag for calculation Bit reversal or not */
  83:Drivers/CMSIS/DSP/Source/TransformFunctions/arm_cfft_radix4_init_f32.c ****   S->bitReverseFlag = bitReverseFlag;
  50              		.loc 1 83 3 is_stmt 1 view .LVU9
  51              		.loc 1 83 21 is_stmt 0 view .LVU10
  52 000a C370     		strb	r3, [r0, #3]
  84:Drivers/CMSIS/DSP/Source/TransformFunctions/arm_cfft_radix4_init_f32.c **** 
  85:Drivers/CMSIS/DSP/Source/TransformFunctions/arm_cfft_radix4_init_f32.c ****   /*  Initializations of structure parameters depending on the FFT length */
  86:Drivers/CMSIS/DSP/Source/TransformFunctions/arm_cfft_radix4_init_f32.c ****   switch (S->fftLen)
  53              		.loc 1 86 3 is_stmt 1 view .LVU11
  54 000c B1F5807F 		cmp	r1, #256
  55 0010 2DD0     		beq	.L2
  56 0012 11D9     		bls	.L10
  57 0014 B1F5806F 		cmp	r1, #1024
  58 0018 1FD0     		beq	.L7
  59 001a B1F5805F 		cmp	r1, #4096
  60 001e 3BD1     		bne	.L8
  87:Drivers/CMSIS/DSP/Source/TransformFunctions/arm_cfft_radix4_init_f32.c ****   {
  88:Drivers/CMSIS/DSP/Source/TransformFunctions/arm_cfft_radix4_init_f32.c **** 
  89:Drivers/CMSIS/DSP/Source/TransformFunctions/arm_cfft_radix4_init_f32.c ****   case 4096U:
  90:Drivers/CMSIS/DSP/Source/TransformFunctions/arm_cfft_radix4_init_f32.c ****     /*  Initializations of structure parameters for 4096 point FFT */
  91:Drivers/CMSIS/DSP/Source/TransformFunctions/arm_cfft_radix4_init_f32.c **** 
  92:Drivers/CMSIS/DSP/Source/TransformFunctions/arm_cfft_radix4_init_f32.c ****     /*  Initialise the twiddle coef modifier value */
  93:Drivers/CMSIS/DSP/Source/TransformFunctions/arm_cfft_radix4_init_f32.c ****     S->twidCoefModifier = 1U;
  61              		.loc 1 93 5 view .LVU12
  62              		.loc 1 93 25 is_stmt 0 view .LVU13
  63 0020 0123     		movs	r3, #1
  64              	.LVL2:
  65              		.loc 1 93 25 view .LVU14
  66 0022 8381     		strh	r3, [r0, #12]	@ movhi
  94:Drivers/CMSIS/DSP/Source/TransformFunctions/arm_cfft_radix4_init_f32.c ****     /*  Initialise the bit reversal table modifier */
  95:Drivers/CMSIS/DSP/Source/TransformFunctions/arm_cfft_radix4_init_f32.c ****     S->bitRevFactor = 1U;
  67              		.loc 1 95 5 is_stmt 1 view .LVU15
  68              		.loc 1 95 21 is_stmt 0 view .LVU16
  69 0024 C381     		strh	r3, [r0, #14]	@ movhi
  96:Drivers/CMSIS/DSP/Source/TransformFunctions/arm_cfft_radix4_init_f32.c ****     /*  Initialise the bit reversal table pointer */
  97:Drivers/CMSIS/DSP/Source/TransformFunctions/arm_cfft_radix4_init_f32.c ****     S->pBitRevTable = (uint16_t *) armBitRevTable;
  70              		.loc 1 97 5 is_stmt 1 view .LVU17
  71              		.loc 1 97 21 is_stmt 0 view .LVU18
  72 0026 1F4B     		ldr	r3, .L12+4
  73 0028 8360     		str	r3, [r0, #8]
  98:Drivers/CMSIS/DSP/Source/TransformFunctions/arm_cfft_radix4_init_f32.c ****     /*  Initialise the 1/fftLen Value */
  99:Drivers/CMSIS/DSP/Source/TransformFunctions/arm_cfft_radix4_init_f32.c ****     S->onebyfftLen = 0.000244140625;
ARM GAS  /var/folders/n6/c271nzx11xl4r4_m7sqjlt0m0000gn/T//ccAqnbdx.s 			page 4


  74              		.loc 1 99 5 is_stmt 1 view .LVU19
  75              		.loc 1 99 20 is_stmt 0 view .LVU20
  76 002a 4FF06653 		mov	r3, #964689920
  77 002e 0361     		str	r3, [r0, #16]	@ float
 100:Drivers/CMSIS/DSP/Source/TransformFunctions/arm_cfft_radix4_init_f32.c ****     break;
  78              		.loc 1 100 5 is_stmt 1 view .LVU21
  71:Drivers/CMSIS/DSP/Source/TransformFunctions/arm_cfft_radix4_init_f32.c **** 
  79              		.loc 1 71 14 is_stmt 0 view .LVU22
  80 0030 0020     		movs	r0, #0
  81              	.LVL3:
  82              	.L6:
 101:Drivers/CMSIS/DSP/Source/TransformFunctions/arm_cfft_radix4_init_f32.c **** 
 102:Drivers/CMSIS/DSP/Source/TransformFunctions/arm_cfft_radix4_init_f32.c ****   case 1024U:
 103:Drivers/CMSIS/DSP/Source/TransformFunctions/arm_cfft_radix4_init_f32.c ****     /*  Initializations of structure parameters for 1024 point FFT */
 104:Drivers/CMSIS/DSP/Source/TransformFunctions/arm_cfft_radix4_init_f32.c **** 
 105:Drivers/CMSIS/DSP/Source/TransformFunctions/arm_cfft_radix4_init_f32.c ****     /*  Initialise the twiddle coef modifier value */
 106:Drivers/CMSIS/DSP/Source/TransformFunctions/arm_cfft_radix4_init_f32.c ****     S->twidCoefModifier = 4U;
 107:Drivers/CMSIS/DSP/Source/TransformFunctions/arm_cfft_radix4_init_f32.c ****     /*  Initialise the bit reversal table modifier */
 108:Drivers/CMSIS/DSP/Source/TransformFunctions/arm_cfft_radix4_init_f32.c ****     S->bitRevFactor = 4U;
 109:Drivers/CMSIS/DSP/Source/TransformFunctions/arm_cfft_radix4_init_f32.c ****     /*  Initialise the bit reversal table pointer */
 110:Drivers/CMSIS/DSP/Source/TransformFunctions/arm_cfft_radix4_init_f32.c ****     S->pBitRevTable = (uint16_t *) & armBitRevTable[3];
 111:Drivers/CMSIS/DSP/Source/TransformFunctions/arm_cfft_radix4_init_f32.c ****     /*  Initialise the 1/fftLen Value */
 112:Drivers/CMSIS/DSP/Source/TransformFunctions/arm_cfft_radix4_init_f32.c ****     S->onebyfftLen = 0.0009765625f;
 113:Drivers/CMSIS/DSP/Source/TransformFunctions/arm_cfft_radix4_init_f32.c ****     break;
 114:Drivers/CMSIS/DSP/Source/TransformFunctions/arm_cfft_radix4_init_f32.c **** 
 115:Drivers/CMSIS/DSP/Source/TransformFunctions/arm_cfft_radix4_init_f32.c **** 
 116:Drivers/CMSIS/DSP/Source/TransformFunctions/arm_cfft_radix4_init_f32.c ****   case 256U:
 117:Drivers/CMSIS/DSP/Source/TransformFunctions/arm_cfft_radix4_init_f32.c ****     /*  Initializations of structure parameters for 256 point FFT */
 118:Drivers/CMSIS/DSP/Source/TransformFunctions/arm_cfft_radix4_init_f32.c ****     S->twidCoefModifier = 16U;
 119:Drivers/CMSIS/DSP/Source/TransformFunctions/arm_cfft_radix4_init_f32.c ****     S->bitRevFactor = 16U;
 120:Drivers/CMSIS/DSP/Source/TransformFunctions/arm_cfft_radix4_init_f32.c ****     S->pBitRevTable = (uint16_t *) & armBitRevTable[15];
 121:Drivers/CMSIS/DSP/Source/TransformFunctions/arm_cfft_radix4_init_f32.c ****     S->onebyfftLen = 0.00390625f;
 122:Drivers/CMSIS/DSP/Source/TransformFunctions/arm_cfft_radix4_init_f32.c ****     break;
 123:Drivers/CMSIS/DSP/Source/TransformFunctions/arm_cfft_radix4_init_f32.c **** 
 124:Drivers/CMSIS/DSP/Source/TransformFunctions/arm_cfft_radix4_init_f32.c ****   case 64U:
 125:Drivers/CMSIS/DSP/Source/TransformFunctions/arm_cfft_radix4_init_f32.c ****     /*  Initializations of structure parameters for 64 point FFT */
 126:Drivers/CMSIS/DSP/Source/TransformFunctions/arm_cfft_radix4_init_f32.c ****     S->twidCoefModifier = 64U;
 127:Drivers/CMSIS/DSP/Source/TransformFunctions/arm_cfft_radix4_init_f32.c ****     S->bitRevFactor = 64U;
 128:Drivers/CMSIS/DSP/Source/TransformFunctions/arm_cfft_radix4_init_f32.c ****     S->pBitRevTable = (uint16_t *) & armBitRevTable[63];
 129:Drivers/CMSIS/DSP/Source/TransformFunctions/arm_cfft_radix4_init_f32.c ****     S->onebyfftLen = 0.015625f;
 130:Drivers/CMSIS/DSP/Source/TransformFunctions/arm_cfft_radix4_init_f32.c ****     break;
 131:Drivers/CMSIS/DSP/Source/TransformFunctions/arm_cfft_radix4_init_f32.c **** 
 132:Drivers/CMSIS/DSP/Source/TransformFunctions/arm_cfft_radix4_init_f32.c ****   case 16U:
 133:Drivers/CMSIS/DSP/Source/TransformFunctions/arm_cfft_radix4_init_f32.c ****     /*  Initializations of structure parameters for 16 point FFT */
 134:Drivers/CMSIS/DSP/Source/TransformFunctions/arm_cfft_radix4_init_f32.c ****     S->twidCoefModifier = 256U;
 135:Drivers/CMSIS/DSP/Source/TransformFunctions/arm_cfft_radix4_init_f32.c ****     S->bitRevFactor = 256U;
 136:Drivers/CMSIS/DSP/Source/TransformFunctions/arm_cfft_radix4_init_f32.c ****     S->pBitRevTable = (uint16_t *) & armBitRevTable[255];
 137:Drivers/CMSIS/DSP/Source/TransformFunctions/arm_cfft_radix4_init_f32.c ****     S->onebyfftLen = 0.0625f;
 138:Drivers/CMSIS/DSP/Source/TransformFunctions/arm_cfft_radix4_init_f32.c ****     break;
 139:Drivers/CMSIS/DSP/Source/TransformFunctions/arm_cfft_radix4_init_f32.c **** 
 140:Drivers/CMSIS/DSP/Source/TransformFunctions/arm_cfft_radix4_init_f32.c **** 
 141:Drivers/CMSIS/DSP/Source/TransformFunctions/arm_cfft_radix4_init_f32.c ****   default:
 142:Drivers/CMSIS/DSP/Source/TransformFunctions/arm_cfft_radix4_init_f32.c ****     /*  Reporting argument error if fftSize is not valid value */
 143:Drivers/CMSIS/DSP/Source/TransformFunctions/arm_cfft_radix4_init_f32.c ****     status = ARM_MATH_ARGUMENT_ERROR;
 144:Drivers/CMSIS/DSP/Source/TransformFunctions/arm_cfft_radix4_init_f32.c ****     break;
 145:Drivers/CMSIS/DSP/Source/TransformFunctions/arm_cfft_radix4_init_f32.c ****   }
 146:Drivers/CMSIS/DSP/Source/TransformFunctions/arm_cfft_radix4_init_f32.c **** 
ARM GAS  /var/folders/n6/c271nzx11xl4r4_m7sqjlt0m0000gn/T//ccAqnbdx.s 			page 5


 147:Drivers/CMSIS/DSP/Source/TransformFunctions/arm_cfft_radix4_init_f32.c ****   return (status);
  83              		.loc 1 147 3 is_stmt 1 view .LVU23
 148:Drivers/CMSIS/DSP/Source/TransformFunctions/arm_cfft_radix4_init_f32.c **** }
  84              		.loc 1 148 1 is_stmt 0 view .LVU24
  85 0032 5DF8044B 		ldr	r4, [sp], #4
  86              		.cfi_remember_state
  87              		.cfi_restore 4
  88              		.cfi_def_cfa_offset 0
  89 0036 7047     		bx	lr
  90              	.LVL4:
  91              	.L10:
  92              		.cfi_restore_state
  86:Drivers/CMSIS/DSP/Source/TransformFunctions/arm_cfft_radix4_init_f32.c ****   {
  93              		.loc 1 86 3 view .LVU25
  94 0038 1029     		cmp	r1, #16
  95 003a 22D0     		beq	.L4
  96 003c 4029     		cmp	r1, #64
  97 003e 09D1     		bne	.L11
 126:Drivers/CMSIS/DSP/Source/TransformFunctions/arm_cfft_radix4_init_f32.c ****     S->bitRevFactor = 64U;
  98              		.loc 1 126 5 is_stmt 1 view .LVU26
 126:Drivers/CMSIS/DSP/Source/TransformFunctions/arm_cfft_radix4_init_f32.c ****     S->bitRevFactor = 64U;
  99              		.loc 1 126 25 is_stmt 0 view .LVU27
 100 0040 4023     		movs	r3, #64
 101              	.LVL5:
 126:Drivers/CMSIS/DSP/Source/TransformFunctions/arm_cfft_radix4_init_f32.c ****     S->bitRevFactor = 64U;
 102              		.loc 1 126 25 view .LVU28
 103 0042 8381     		strh	r3, [r0, #12]	@ movhi
 127:Drivers/CMSIS/DSP/Source/TransformFunctions/arm_cfft_radix4_init_f32.c ****     S->pBitRevTable = (uint16_t *) & armBitRevTable[63];
 104              		.loc 1 127 5 is_stmt 1 view .LVU29
 127:Drivers/CMSIS/DSP/Source/TransformFunctions/arm_cfft_radix4_init_f32.c ****     S->pBitRevTable = (uint16_t *) & armBitRevTable[63];
 105              		.loc 1 127 21 is_stmt 0 view .LVU30
 106 0044 C381     		strh	r3, [r0, #14]	@ movhi
 128:Drivers/CMSIS/DSP/Source/TransformFunctions/arm_cfft_radix4_init_f32.c ****     S->onebyfftLen = 0.015625f;
 107              		.loc 1 128 5 is_stmt 1 view .LVU31
 128:Drivers/CMSIS/DSP/Source/TransformFunctions/arm_cfft_radix4_init_f32.c ****     S->onebyfftLen = 0.015625f;
 108              		.loc 1 128 21 is_stmt 0 view .LVU32
 109 0046 184B     		ldr	r3, .L12+8
 110 0048 8360     		str	r3, [r0, #8]
 129:Drivers/CMSIS/DSP/Source/TransformFunctions/arm_cfft_radix4_init_f32.c ****     break;
 111              		.loc 1 129 5 is_stmt 1 view .LVU33
 129:Drivers/CMSIS/DSP/Source/TransformFunctions/arm_cfft_radix4_init_f32.c ****     break;
 112              		.loc 1 129 20 is_stmt 0 view .LVU34
 113 004a 4FF07253 		mov	r3, #1015021568
 114 004e 0361     		str	r3, [r0, #16]	@ float
 130:Drivers/CMSIS/DSP/Source/TransformFunctions/arm_cfft_radix4_init_f32.c **** 
 115              		.loc 1 130 5 is_stmt 1 view .LVU35
  71:Drivers/CMSIS/DSP/Source/TransformFunctions/arm_cfft_radix4_init_f32.c **** 
 116              		.loc 1 71 14 is_stmt 0 view .LVU36
 117 0050 0020     		movs	r0, #0
 118              	.LVL6:
 130:Drivers/CMSIS/DSP/Source/TransformFunctions/arm_cfft_radix4_init_f32.c **** 
 119              		.loc 1 130 5 view .LVU37
 120 0052 EEE7     		b	.L6
 121              	.LVL7:
 122              	.L11:
  86:Drivers/CMSIS/DSP/Source/TransformFunctions/arm_cfft_radix4_init_f32.c ****   {
 123              		.loc 1 86 3 view .LVU38
ARM GAS  /var/folders/n6/c271nzx11xl4r4_m7sqjlt0m0000gn/T//ccAqnbdx.s 			page 6


 124 0054 4FF0FF30 		mov	r0, #-1
 125              	.LVL8:
  86:Drivers/CMSIS/DSP/Source/TransformFunctions/arm_cfft_radix4_init_f32.c ****   {
 126              		.loc 1 86 3 view .LVU39
 127 0058 EBE7     		b	.L6
 128              	.LVL9:
 129              	.L7:
 106:Drivers/CMSIS/DSP/Source/TransformFunctions/arm_cfft_radix4_init_f32.c ****     /*  Initialise the bit reversal table modifier */
 130              		.loc 1 106 5 is_stmt 1 view .LVU40
 106:Drivers/CMSIS/DSP/Source/TransformFunctions/arm_cfft_radix4_init_f32.c ****     /*  Initialise the bit reversal table modifier */
 131              		.loc 1 106 25 is_stmt 0 view .LVU41
 132 005a 0423     		movs	r3, #4
 133              	.LVL10:
 106:Drivers/CMSIS/DSP/Source/TransformFunctions/arm_cfft_radix4_init_f32.c ****     /*  Initialise the bit reversal table modifier */
 134              		.loc 1 106 25 view .LVU42
 135 005c 8381     		strh	r3, [r0, #12]	@ movhi
 108:Drivers/CMSIS/DSP/Source/TransformFunctions/arm_cfft_radix4_init_f32.c ****     /*  Initialise the bit reversal table pointer */
 136              		.loc 1 108 5 is_stmt 1 view .LVU43
 108:Drivers/CMSIS/DSP/Source/TransformFunctions/arm_cfft_radix4_init_f32.c ****     /*  Initialise the bit reversal table pointer */
 137              		.loc 1 108 21 is_stmt 0 view .LVU44
 138 005e C381     		strh	r3, [r0, #14]	@ movhi
 110:Drivers/CMSIS/DSP/Source/TransformFunctions/arm_cfft_radix4_init_f32.c ****     /*  Initialise the 1/fftLen Value */
 139              		.loc 1 110 5 is_stmt 1 view .LVU45
 110:Drivers/CMSIS/DSP/Source/TransformFunctions/arm_cfft_radix4_init_f32.c ****     /*  Initialise the 1/fftLen Value */
 140              		.loc 1 110 21 is_stmt 0 view .LVU46
 141 0060 124B     		ldr	r3, .L12+12
 142 0062 8360     		str	r3, [r0, #8]
 112:Drivers/CMSIS/DSP/Source/TransformFunctions/arm_cfft_radix4_init_f32.c ****     break;
 143              		.loc 1 112 5 is_stmt 1 view .LVU47
 112:Drivers/CMSIS/DSP/Source/TransformFunctions/arm_cfft_radix4_init_f32.c ****     break;
 144              		.loc 1 112 20 is_stmt 0 view .LVU48
 145 0064 4FF06A53 		mov	r3, #981467136
 146 0068 0361     		str	r3, [r0, #16]	@ float
 113:Drivers/CMSIS/DSP/Source/TransformFunctions/arm_cfft_radix4_init_f32.c **** 
 147              		.loc 1 113 5 is_stmt 1 view .LVU49
  71:Drivers/CMSIS/DSP/Source/TransformFunctions/arm_cfft_radix4_init_f32.c **** 
 148              		.loc 1 71 14 is_stmt 0 view .LVU50
 149 006a 0020     		movs	r0, #0
 150              	.LVL11:
 113:Drivers/CMSIS/DSP/Source/TransformFunctions/arm_cfft_radix4_init_f32.c **** 
 151              		.loc 1 113 5 view .LVU51
 152 006c E1E7     		b	.L6
 153              	.LVL12:
 154              	.L2:
 118:Drivers/CMSIS/DSP/Source/TransformFunctions/arm_cfft_radix4_init_f32.c ****     S->bitRevFactor = 16U;
 155              		.loc 1 118 5 is_stmt 1 view .LVU52
 118:Drivers/CMSIS/DSP/Source/TransformFunctions/arm_cfft_radix4_init_f32.c ****     S->bitRevFactor = 16U;
 156              		.loc 1 118 25 is_stmt 0 view .LVU53
 157 006e 1023     		movs	r3, #16
 158              	.LVL13:
 118:Drivers/CMSIS/DSP/Source/TransformFunctions/arm_cfft_radix4_init_f32.c ****     S->bitRevFactor = 16U;
 159              		.loc 1 118 25 view .LVU54
 160 0070 8381     		strh	r3, [r0, #12]	@ movhi
 119:Drivers/CMSIS/DSP/Source/TransformFunctions/arm_cfft_radix4_init_f32.c ****     S->pBitRevTable = (uint16_t *) & armBitRevTable[15];
 161              		.loc 1 119 5 is_stmt 1 view .LVU55
 119:Drivers/CMSIS/DSP/Source/TransformFunctions/arm_cfft_radix4_init_f32.c ****     S->pBitRevTable = (uint16_t *) & armBitRevTable[15];
 162              		.loc 1 119 21 is_stmt 0 view .LVU56
ARM GAS  /var/folders/n6/c271nzx11xl4r4_m7sqjlt0m0000gn/T//ccAqnbdx.s 			page 7


 163 0072 C381     		strh	r3, [r0, #14]	@ movhi
 120:Drivers/CMSIS/DSP/Source/TransformFunctions/arm_cfft_radix4_init_f32.c ****     S->onebyfftLen = 0.00390625f;
 164              		.loc 1 120 5 is_stmt 1 view .LVU57
 120:Drivers/CMSIS/DSP/Source/TransformFunctions/arm_cfft_radix4_init_f32.c ****     S->onebyfftLen = 0.00390625f;
 165              		.loc 1 120 21 is_stmt 0 view .LVU58
 166 0074 0E4B     		ldr	r3, .L12+16
 167 0076 8360     		str	r3, [r0, #8]
 121:Drivers/CMSIS/DSP/Source/TransformFunctions/arm_cfft_radix4_init_f32.c ****     break;
 168              		.loc 1 121 5 is_stmt 1 view .LVU59
 121:Drivers/CMSIS/DSP/Source/TransformFunctions/arm_cfft_radix4_init_f32.c ****     break;
 169              		.loc 1 121 20 is_stmt 0 view .LVU60
 170 0078 4FF06E53 		mov	r3, #998244352
 171 007c 0361     		str	r3, [r0, #16]	@ float
 122:Drivers/CMSIS/DSP/Source/TransformFunctions/arm_cfft_radix4_init_f32.c **** 
 172              		.loc 1 122 5 is_stmt 1 view .LVU61
  71:Drivers/CMSIS/DSP/Source/TransformFunctions/arm_cfft_radix4_init_f32.c **** 
 173              		.loc 1 71 14 is_stmt 0 view .LVU62
 174 007e 0020     		movs	r0, #0
 175              	.LVL14:
 122:Drivers/CMSIS/DSP/Source/TransformFunctions/arm_cfft_radix4_init_f32.c **** 
 176              		.loc 1 122 5 view .LVU63
 177 0080 D7E7     		b	.L6
 178              	.LVL15:
 179              	.L4:
 134:Drivers/CMSIS/DSP/Source/TransformFunctions/arm_cfft_radix4_init_f32.c ****     S->bitRevFactor = 256U;
 180              		.loc 1 134 5 is_stmt 1 view .LVU64
 134:Drivers/CMSIS/DSP/Source/TransformFunctions/arm_cfft_radix4_init_f32.c ****     S->bitRevFactor = 256U;
 181              		.loc 1 134 25 is_stmt 0 view .LVU65
 182 0082 4FF48073 		mov	r3, #256
 183              	.LVL16:
 134:Drivers/CMSIS/DSP/Source/TransformFunctions/arm_cfft_radix4_init_f32.c ****     S->bitRevFactor = 256U;
 184              		.loc 1 134 25 view .LVU66
 185 0086 8381     		strh	r3, [r0, #12]	@ movhi
 135:Drivers/CMSIS/DSP/Source/TransformFunctions/arm_cfft_radix4_init_f32.c ****     S->pBitRevTable = (uint16_t *) & armBitRevTable[255];
 186              		.loc 1 135 5 is_stmt 1 view .LVU67
 135:Drivers/CMSIS/DSP/Source/TransformFunctions/arm_cfft_radix4_init_f32.c ****     S->pBitRevTable = (uint16_t *) & armBitRevTable[255];
 187              		.loc 1 135 21 is_stmt 0 view .LVU68
 188 0088 C381     		strh	r3, [r0, #14]	@ movhi
 136:Drivers/CMSIS/DSP/Source/TransformFunctions/arm_cfft_radix4_init_f32.c ****     S->onebyfftLen = 0.0625f;
 189              		.loc 1 136 5 is_stmt 1 view .LVU69
 136:Drivers/CMSIS/DSP/Source/TransformFunctions/arm_cfft_radix4_init_f32.c ****     S->onebyfftLen = 0.0625f;
 190              		.loc 1 136 21 is_stmt 0 view .LVU70
 191 008a 0A4B     		ldr	r3, .L12+20
 192 008c 8360     		str	r3, [r0, #8]
 137:Drivers/CMSIS/DSP/Source/TransformFunctions/arm_cfft_radix4_init_f32.c ****     break;
 193              		.loc 1 137 5 is_stmt 1 view .LVU71
 137:Drivers/CMSIS/DSP/Source/TransformFunctions/arm_cfft_radix4_init_f32.c ****     break;
 194              		.loc 1 137 20 is_stmt 0 view .LVU72
 195 008e 4FF07653 		mov	r3, #1031798784
 196 0092 0361     		str	r3, [r0, #16]	@ float
 138:Drivers/CMSIS/DSP/Source/TransformFunctions/arm_cfft_radix4_init_f32.c **** 
 197              		.loc 1 138 5 is_stmt 1 view .LVU73
  71:Drivers/CMSIS/DSP/Source/TransformFunctions/arm_cfft_radix4_init_f32.c **** 
 198              		.loc 1 71 14 is_stmt 0 view .LVU74
 199 0094 0020     		movs	r0, #0
 200              	.LVL17:
 138:Drivers/CMSIS/DSP/Source/TransformFunctions/arm_cfft_radix4_init_f32.c **** 
ARM GAS  /var/folders/n6/c271nzx11xl4r4_m7sqjlt0m0000gn/T//ccAqnbdx.s 			page 8


 201              		.loc 1 138 5 view .LVU75
 202 0096 CCE7     		b	.L6
 203              	.LVL18:
 204              	.L8:
  86:Drivers/CMSIS/DSP/Source/TransformFunctions/arm_cfft_radix4_init_f32.c ****   {
 205              		.loc 1 86 3 view .LVU76
 206 0098 4FF0FF30 		mov	r0, #-1
 207              	.LVL19:
  86:Drivers/CMSIS/DSP/Source/TransformFunctions/arm_cfft_radix4_init_f32.c ****   {
 208              		.loc 1 86 3 view .LVU77
 209 009c C9E7     		b	.L6
 210              	.L13:
 211 009e 00BF     		.align	2
 212              	.L12:
 213 00a0 00000000 		.word	twiddleCoef_4096
 214 00a4 00000000 		.word	armBitRevTable
 215 00a8 7E000000 		.word	armBitRevTable+126
 216 00ac 06000000 		.word	armBitRevTable+6
 217 00b0 1E000000 		.word	armBitRevTable+30
 218 00b4 FE010000 		.word	armBitRevTable+510
 219              		.cfi_endproc
 220              	.LFE135:
 222              		.text
 223              	.Letext0:
 224              		.file 2 "/Users/killian/Library/Application Support/Code/User/globalStorage/bmd.stm32-for-vscode/@
 225              		.file 3 "/Users/killian/Library/Application Support/Code/User/globalStorage/bmd.stm32-for-vscode/@
 226              		.file 4 "Drivers/CMSIS/DSP/Include/arm_math.h"
 227              		.file 5 "Drivers/CMSIS/DSP/Include/arm_common_tables.h"
ARM GAS  /var/folders/n6/c271nzx11xl4r4_m7sqjlt0m0000gn/T//ccAqnbdx.s 			page 9

