ARM GAS  /var/folders/n6/c271nzx11xl4r4_m7sqjlt0m0000gn/T//ccHXJXpd.s 			page 1


   1              		.cpu cortex-m7
   2              		.arch armv7e-m
   3              		.fpu fpv5-d16
   4              		.eabi_attribute 28, 1
   5              		.eabi_attribute 20, 1
   6              		.eabi_attribute 21, 1
   7              		.eabi_attribute 23, 3
   8              		.eabi_attribute 24, 1
   9              		.eabi_attribute 25, 1
  10              		.eabi_attribute 26, 1
  11              		.eabi_attribute 30, 1
  12              		.eabi_attribute 34, 1
  13              		.eabi_attribute 18, 4
  14              		.file	"arm_shift_q15.c"
  15              		.text
  16              	.Ltext0:
  17              		.cfi_sections	.debug_frame
  18              		.file 1 "Drivers/CMSIS/DSP/Source/BasicMathFunctions/arm_shift_q15.c"
  19              		.section	.text.arm_shift_q15,"ax",%progbits
  20              		.align	1
  21              		.global	arm_shift_q15
  22              		.syntax unified
  23              		.thumb
  24              		.thumb_func
  26              	arm_shift_q15:
  27              	.LVL0:
  28              	.LFB135:
   1:Drivers/CMSIS/DSP/Source/BasicMathFunctions/arm_shift_q15.c **** /* ----------------------------------------------------------------------
   2:Drivers/CMSIS/DSP/Source/BasicMathFunctions/arm_shift_q15.c ****  * Project:      CMSIS DSP Library
   3:Drivers/CMSIS/DSP/Source/BasicMathFunctions/arm_shift_q15.c ****  * Title:        arm_shift_q15.c
   4:Drivers/CMSIS/DSP/Source/BasicMathFunctions/arm_shift_q15.c ****  * Description:  Shifts the elements of a Q15 vector by a specified number of bits
   5:Drivers/CMSIS/DSP/Source/BasicMathFunctions/arm_shift_q15.c ****  *
   6:Drivers/CMSIS/DSP/Source/BasicMathFunctions/arm_shift_q15.c ****  * $Date:        27. January 2017
   7:Drivers/CMSIS/DSP/Source/BasicMathFunctions/arm_shift_q15.c ****  * $Revision:    V.1.5.1
   8:Drivers/CMSIS/DSP/Source/BasicMathFunctions/arm_shift_q15.c ****  *
   9:Drivers/CMSIS/DSP/Source/BasicMathFunctions/arm_shift_q15.c ****  * Target Processor: Cortex-M cores
  10:Drivers/CMSIS/DSP/Source/BasicMathFunctions/arm_shift_q15.c ****  * -------------------------------------------------------------------- */
  11:Drivers/CMSIS/DSP/Source/BasicMathFunctions/arm_shift_q15.c **** /*
  12:Drivers/CMSIS/DSP/Source/BasicMathFunctions/arm_shift_q15.c ****  * Copyright (C) 2010-2017 ARM Limited or its affiliates. All rights reserved.
  13:Drivers/CMSIS/DSP/Source/BasicMathFunctions/arm_shift_q15.c ****  *
  14:Drivers/CMSIS/DSP/Source/BasicMathFunctions/arm_shift_q15.c ****  * SPDX-License-Identifier: Apache-2.0
  15:Drivers/CMSIS/DSP/Source/BasicMathFunctions/arm_shift_q15.c ****  *
  16:Drivers/CMSIS/DSP/Source/BasicMathFunctions/arm_shift_q15.c ****  * Licensed under the Apache License, Version 2.0 (the License); you may
  17:Drivers/CMSIS/DSP/Source/BasicMathFunctions/arm_shift_q15.c ****  * not use this file except in compliance with the License.
  18:Drivers/CMSIS/DSP/Source/BasicMathFunctions/arm_shift_q15.c ****  * You may obtain a copy of the License at
  19:Drivers/CMSIS/DSP/Source/BasicMathFunctions/arm_shift_q15.c ****  *
  20:Drivers/CMSIS/DSP/Source/BasicMathFunctions/arm_shift_q15.c ****  * www.apache.org/licenses/LICENSE-2.0
  21:Drivers/CMSIS/DSP/Source/BasicMathFunctions/arm_shift_q15.c ****  *
  22:Drivers/CMSIS/DSP/Source/BasicMathFunctions/arm_shift_q15.c ****  * Unless required by applicable law or agreed to in writing, software
  23:Drivers/CMSIS/DSP/Source/BasicMathFunctions/arm_shift_q15.c ****  * distributed under the License is distributed on an AS IS BASIS, WITHOUT
  24:Drivers/CMSIS/DSP/Source/BasicMathFunctions/arm_shift_q15.c ****  * WARRANTIES OR CONDITIONS OF ANY KIND, either express or implied.
  25:Drivers/CMSIS/DSP/Source/BasicMathFunctions/arm_shift_q15.c ****  * See the License for the specific language governing permissions and
  26:Drivers/CMSIS/DSP/Source/BasicMathFunctions/arm_shift_q15.c ****  * limitations under the License.
  27:Drivers/CMSIS/DSP/Source/BasicMathFunctions/arm_shift_q15.c ****  */
  28:Drivers/CMSIS/DSP/Source/BasicMathFunctions/arm_shift_q15.c **** 
  29:Drivers/CMSIS/DSP/Source/BasicMathFunctions/arm_shift_q15.c **** #include "arm_math.h"
  30:Drivers/CMSIS/DSP/Source/BasicMathFunctions/arm_shift_q15.c **** 
ARM GAS  /var/folders/n6/c271nzx11xl4r4_m7sqjlt0m0000gn/T//ccHXJXpd.s 			page 2


  31:Drivers/CMSIS/DSP/Source/BasicMathFunctions/arm_shift_q15.c **** /**
  32:Drivers/CMSIS/DSP/Source/BasicMathFunctions/arm_shift_q15.c ****  * @ingroup groupMath
  33:Drivers/CMSIS/DSP/Source/BasicMathFunctions/arm_shift_q15.c ****  */
  34:Drivers/CMSIS/DSP/Source/BasicMathFunctions/arm_shift_q15.c **** 
  35:Drivers/CMSIS/DSP/Source/BasicMathFunctions/arm_shift_q15.c **** /**
  36:Drivers/CMSIS/DSP/Source/BasicMathFunctions/arm_shift_q15.c ****  * @addtogroup shift
  37:Drivers/CMSIS/DSP/Source/BasicMathFunctions/arm_shift_q15.c ****  * @{
  38:Drivers/CMSIS/DSP/Source/BasicMathFunctions/arm_shift_q15.c ****  */
  39:Drivers/CMSIS/DSP/Source/BasicMathFunctions/arm_shift_q15.c **** 
  40:Drivers/CMSIS/DSP/Source/BasicMathFunctions/arm_shift_q15.c **** /**
  41:Drivers/CMSIS/DSP/Source/BasicMathFunctions/arm_shift_q15.c ****  * @brief  Shifts the elements of a Q15 vector a specified number of bits.
  42:Drivers/CMSIS/DSP/Source/BasicMathFunctions/arm_shift_q15.c ****  * @param[in]  *pSrc points to the input vector
  43:Drivers/CMSIS/DSP/Source/BasicMathFunctions/arm_shift_q15.c ****  * @param[in]  shiftBits number of bits to shift.  A positive value shifts left; a negative value s
  44:Drivers/CMSIS/DSP/Source/BasicMathFunctions/arm_shift_q15.c ****  * @param[out]  *pDst points to the output vector
  45:Drivers/CMSIS/DSP/Source/BasicMathFunctions/arm_shift_q15.c ****  * @param[in]  blockSize number of samples in the vector
  46:Drivers/CMSIS/DSP/Source/BasicMathFunctions/arm_shift_q15.c ****  * @return none.
  47:Drivers/CMSIS/DSP/Source/BasicMathFunctions/arm_shift_q15.c ****  *
  48:Drivers/CMSIS/DSP/Source/BasicMathFunctions/arm_shift_q15.c ****  * <b>Scaling and Overflow Behavior:</b>
  49:Drivers/CMSIS/DSP/Source/BasicMathFunctions/arm_shift_q15.c ****  * \par
  50:Drivers/CMSIS/DSP/Source/BasicMathFunctions/arm_shift_q15.c ****  * The function uses saturating arithmetic.
  51:Drivers/CMSIS/DSP/Source/BasicMathFunctions/arm_shift_q15.c ****  * Results outside of the allowable Q15 range [0x8000 0x7FFF] will be saturated.
  52:Drivers/CMSIS/DSP/Source/BasicMathFunctions/arm_shift_q15.c ****  */
  53:Drivers/CMSIS/DSP/Source/BasicMathFunctions/arm_shift_q15.c **** 
  54:Drivers/CMSIS/DSP/Source/BasicMathFunctions/arm_shift_q15.c **** void arm_shift_q15(
  55:Drivers/CMSIS/DSP/Source/BasicMathFunctions/arm_shift_q15.c ****   q15_t * pSrc,
  56:Drivers/CMSIS/DSP/Source/BasicMathFunctions/arm_shift_q15.c ****   int8_t shiftBits,
  57:Drivers/CMSIS/DSP/Source/BasicMathFunctions/arm_shift_q15.c ****   q15_t * pDst,
  58:Drivers/CMSIS/DSP/Source/BasicMathFunctions/arm_shift_q15.c ****   uint32_t blockSize)
  59:Drivers/CMSIS/DSP/Source/BasicMathFunctions/arm_shift_q15.c **** {
  29              		.loc 1 59 1 view -0
  30              		.cfi_startproc
  31              		@ args = 0, pretend = 0, frame = 0
  32              		@ frame_needed = 0, uses_anonymous_args = 0
  33              		.loc 1 59 1 is_stmt 0 view .LVU1
  34 0000 70B5     		push	{r4, r5, r6, lr}
  35              		.cfi_def_cfa_offset 16
  36              		.cfi_offset 4, -16
  37              		.cfi_offset 5, -12
  38              		.cfi_offset 6, -8
  39              		.cfi_offset 14, -4
  60:Drivers/CMSIS/DSP/Source/BasicMathFunctions/arm_shift_q15.c ****   uint32_t blkCnt;                               /* loop counter */
  40              		.loc 1 60 3 is_stmt 1 view .LVU2
  61:Drivers/CMSIS/DSP/Source/BasicMathFunctions/arm_shift_q15.c ****   uint8_t sign;                                  /* Sign of shiftBits */
  41              		.loc 1 61 3 view .LVU3
  62:Drivers/CMSIS/DSP/Source/BasicMathFunctions/arm_shift_q15.c **** 
  63:Drivers/CMSIS/DSP/Source/BasicMathFunctions/arm_shift_q15.c **** #if defined (ARM_MATH_DSP)
  64:Drivers/CMSIS/DSP/Source/BasicMathFunctions/arm_shift_q15.c **** 
  65:Drivers/CMSIS/DSP/Source/BasicMathFunctions/arm_shift_q15.c **** /* Run the below code for Cortex-M4 and Cortex-M3 */
  66:Drivers/CMSIS/DSP/Source/BasicMathFunctions/arm_shift_q15.c **** 
  67:Drivers/CMSIS/DSP/Source/BasicMathFunctions/arm_shift_q15.c ****   q15_t in1, in2;                                /* Temporary variables */
  42              		.loc 1 67 3 view .LVU4
  68:Drivers/CMSIS/DSP/Source/BasicMathFunctions/arm_shift_q15.c **** 
  69:Drivers/CMSIS/DSP/Source/BasicMathFunctions/arm_shift_q15.c **** 
  70:Drivers/CMSIS/DSP/Source/BasicMathFunctions/arm_shift_q15.c ****   /*loop Unrolling */
  71:Drivers/CMSIS/DSP/Source/BasicMathFunctions/arm_shift_q15.c ****   blkCnt = blockSize >> 2U;
  43              		.loc 1 71 3 view .LVU5
  44              		.loc 1 71 10 is_stmt 0 view .LVU6
ARM GAS  /var/folders/n6/c271nzx11xl4r4_m7sqjlt0m0000gn/T//ccHXJXpd.s 			page 3


  45 0002 9C08     		lsrs	r4, r3, #2
  46              	.LVL1:
  72:Drivers/CMSIS/DSP/Source/BasicMathFunctions/arm_shift_q15.c **** 
  73:Drivers/CMSIS/DSP/Source/BasicMathFunctions/arm_shift_q15.c ****   /* Getting the sign of shiftBits */
  74:Drivers/CMSIS/DSP/Source/BasicMathFunctions/arm_shift_q15.c ****   sign = (shiftBits & 0x80);
  47              		.loc 1 74 3 is_stmt 1 view .LVU7
  75:Drivers/CMSIS/DSP/Source/BasicMathFunctions/arm_shift_q15.c **** 
  76:Drivers/CMSIS/DSP/Source/BasicMathFunctions/arm_shift_q15.c ****   /* If the shift value is positive then do right shift else left shift */
  77:Drivers/CMSIS/DSP/Source/BasicMathFunctions/arm_shift_q15.c ****   if (sign == 0U)
  48              		.loc 1 77 3 view .LVU8
  49              		.loc 1 77 6 is_stmt 0 view .LVU9
  50 0004 B1F1000C 		subs	ip, r1, #0
  51 0008 25DA     		bge	.L2
  52 000a 51E0     		b	.L3
  53              	.LVL2:
  54              	.L4:
  78:Drivers/CMSIS/DSP/Source/BasicMathFunctions/arm_shift_q15.c ****   {
  79:Drivers/CMSIS/DSP/Source/BasicMathFunctions/arm_shift_q15.c ****     /* First part of the processing with loop unrolling.  Compute 4 outputs at a time.
  80:Drivers/CMSIS/DSP/Source/BasicMathFunctions/arm_shift_q15.c ****      ** a second loop below computes the remaining 1 to 3 samples. */
  81:Drivers/CMSIS/DSP/Source/BasicMathFunctions/arm_shift_q15.c ****     while (blkCnt > 0U)
  82:Drivers/CMSIS/DSP/Source/BasicMathFunctions/arm_shift_q15.c ****     {
  83:Drivers/CMSIS/DSP/Source/BasicMathFunctions/arm_shift_q15.c ****       /* Read 2 inputs */
  84:Drivers/CMSIS/DSP/Source/BasicMathFunctions/arm_shift_q15.c ****       in1 = *pSrc++;
  55              		.loc 1 84 7 is_stmt 1 view .LVU10
  56              		.loc 1 84 11 is_stmt 0 view .LVU11
  57 000c B0F90010 		ldrsh	r1, [r0]
  58              	.LVL3:
  85:Drivers/CMSIS/DSP/Source/BasicMathFunctions/arm_shift_q15.c ****       in2 = *pSrc++;
  59              		.loc 1 85 7 is_stmt 1 view .LVU12
  60              		.loc 1 85 11 is_stmt 0 view .LVU13
  61 0010 B0F90250 		ldrsh	r5, [r0, #2]
  62              	.LVL4:
  86:Drivers/CMSIS/DSP/Source/BasicMathFunctions/arm_shift_q15.c ****       /* C = A << shiftBits */
  87:Drivers/CMSIS/DSP/Source/BasicMathFunctions/arm_shift_q15.c ****       /* Shift the inputs and then store the results in the destination buffer. */
  88:Drivers/CMSIS/DSP/Source/BasicMathFunctions/arm_shift_q15.c **** #ifndef  ARM_MATH_BIG_ENDIAN
  89:Drivers/CMSIS/DSP/Source/BasicMathFunctions/arm_shift_q15.c **** 
  90:Drivers/CMSIS/DSP/Source/BasicMathFunctions/arm_shift_q15.c ****       *__SIMD32(pDst)++ = __PKHBT(__SSAT((in1 << shiftBits), 16),
  63              		.loc 1 90 7 is_stmt 1 view .LVU14
  64              	.LBB2:
  65              		.loc 1 90 27 view .LVU15
  66 0014 01FA0CF1 		lsl	r1, r1, ip
  67              	.LVL5:
  68              		.loc 1 90 27 view .LVU16
  69              		.syntax unified
  70              	@ 90 "Drivers/CMSIS/DSP/Source/BasicMathFunctions/arm_shift_q15.c" 1
  71 0018 01F30F01 		ssat r1, #16, r1
  72              	@ 0 "" 2
  73              	.LVL6:
  74              		.loc 1 90 27 view .LVU17
  75              		.thumb
  76              		.syntax unified
  77              	.LBE2:
  78              	.LBB3:
  79              		.loc 1 90 27 view .LVU18
  80 001c 05FA0CF5 		lsl	r5, r5, ip
  81              	.LVL7:
  82              		.loc 1 90 27 view .LVU19
ARM GAS  /var/folders/n6/c271nzx11xl4r4_m7sqjlt0m0000gn/T//ccHXJXpd.s 			page 4


  83              		.syntax unified
  84              	@ 90 "Drivers/CMSIS/DSP/Source/BasicMathFunctions/arm_shift_q15.c" 1
  85 0020 05F30F05 		ssat r5, #16, r5
  86              	@ 0 "" 2
  87              	.LVL8:
  88              		.loc 1 90 27 view .LVU20
  89              		.loc 1 90 27 is_stmt 0 view .LVU21
  90              		.thumb
  91              		.syntax unified
  92              	.LBE3:
  93 0024 89B2     		uxth	r1, r1
  94              	.LVL9:
  95              		.loc 1 90 27 view .LVU22
  96 0026 41EA0541 		orr	r1, r1, r5, lsl #16
  97              		.loc 1 90 25 view .LVU23
  98 002a 1546     		mov	r5, r2
  99              	.LVL10:
 100              		.loc 1 90 25 view .LVU24
 101 002c 45F8081B 		str	r1, [r5], #8
 102              	.LVL11:
  91:Drivers/CMSIS/DSP/Source/BasicMathFunctions/arm_shift_q15.c ****                                   __SSAT((in2 << shiftBits), 16), 16);
  92:Drivers/CMSIS/DSP/Source/BasicMathFunctions/arm_shift_q15.c **** 
  93:Drivers/CMSIS/DSP/Source/BasicMathFunctions/arm_shift_q15.c **** #else
  94:Drivers/CMSIS/DSP/Source/BasicMathFunctions/arm_shift_q15.c **** 
  95:Drivers/CMSIS/DSP/Source/BasicMathFunctions/arm_shift_q15.c ****       *__SIMD32(pDst)++ = __PKHBT(__SSAT((in2 << shiftBits), 16),
  96:Drivers/CMSIS/DSP/Source/BasicMathFunctions/arm_shift_q15.c ****                                   __SSAT((in1 << shiftBits), 16), 16);
  97:Drivers/CMSIS/DSP/Source/BasicMathFunctions/arm_shift_q15.c **** 
  98:Drivers/CMSIS/DSP/Source/BasicMathFunctions/arm_shift_q15.c **** #endif /* #ifndef  ARM_MATH_BIG_ENDIAN    */
  99:Drivers/CMSIS/DSP/Source/BasicMathFunctions/arm_shift_q15.c **** 
 100:Drivers/CMSIS/DSP/Source/BasicMathFunctions/arm_shift_q15.c ****       in1 = *pSrc++;
 103              		.loc 1 100 7 is_stmt 1 view .LVU25
 104              		.loc 1 100 11 is_stmt 0 view .LVU26
 105 0030 B0F90410 		ldrsh	r1, [r0, #4]
 106              	.LVL12:
 101:Drivers/CMSIS/DSP/Source/BasicMathFunctions/arm_shift_q15.c ****       in2 = *pSrc++;
 107              		.loc 1 101 7 is_stmt 1 view .LVU27
 108              		.loc 1 101 11 is_stmt 0 view .LVU28
 109 0034 B0F906E0 		ldrsh	lr, [r0, #6]
 110              	.LVL13:
 102:Drivers/CMSIS/DSP/Source/BasicMathFunctions/arm_shift_q15.c **** 
 103:Drivers/CMSIS/DSP/Source/BasicMathFunctions/arm_shift_q15.c **** #ifndef  ARM_MATH_BIG_ENDIAN
 104:Drivers/CMSIS/DSP/Source/BasicMathFunctions/arm_shift_q15.c **** 
 105:Drivers/CMSIS/DSP/Source/BasicMathFunctions/arm_shift_q15.c ****       *__SIMD32(pDst)++ = __PKHBT(__SSAT((in1 << shiftBits), 16),
 111              		.loc 1 105 7 is_stmt 1 view .LVU29
 112              	.LBB4:
 113              		.loc 1 105 27 view .LVU30
 114 0038 01FA0CF1 		lsl	r1, r1, ip
 115              	.LVL14:
 116              		.loc 1 105 27 view .LVU31
 117              		.syntax unified
 118              	@ 105 "Drivers/CMSIS/DSP/Source/BasicMathFunctions/arm_shift_q15.c" 1
 119 003c 01F30F01 		ssat r1, #16, r1
 120              	@ 0 "" 2
 121              	.LVL15:
 122              		.loc 1 105 27 view .LVU32
 123              		.thumb
 124              		.syntax unified
ARM GAS  /var/folders/n6/c271nzx11xl4r4_m7sqjlt0m0000gn/T//ccHXJXpd.s 			page 5


 125              	.LBE4:
 126              	.LBB5:
 127              		.loc 1 105 27 view .LVU33
 128 0040 0EFA0CFE 		lsl	lr, lr, ip
 129              	.LVL16:
 130              		.loc 1 105 27 view .LVU34
 131              		.syntax unified
 132              	@ 105 "Drivers/CMSIS/DSP/Source/BasicMathFunctions/arm_shift_q15.c" 1
 133 0044 0EF30F0E 		ssat lr, #16, lr
 134              	@ 0 "" 2
 135              	.LVL17:
 136              		.loc 1 105 27 view .LVU35
 137              		.loc 1 105 27 is_stmt 0 view .LVU36
 138              		.thumb
 139              		.syntax unified
 140              	.LBE5:
 141 0048 89B2     		uxth	r1, r1
 142              	.LVL18:
 143              		.loc 1 105 27 view .LVU37
 144 004a 41EA0E41 		orr	r1, r1, lr, lsl #16
 145              		.loc 1 105 25 view .LVU38
 146 004e 5160     		str	r1, [r2, #4]
 147              	.LVL19:
 106:Drivers/CMSIS/DSP/Source/BasicMathFunctions/arm_shift_q15.c ****                                   __SSAT((in2 << shiftBits), 16), 16);
 107:Drivers/CMSIS/DSP/Source/BasicMathFunctions/arm_shift_q15.c **** 
 108:Drivers/CMSIS/DSP/Source/BasicMathFunctions/arm_shift_q15.c **** #else
 109:Drivers/CMSIS/DSP/Source/BasicMathFunctions/arm_shift_q15.c **** 
 110:Drivers/CMSIS/DSP/Source/BasicMathFunctions/arm_shift_q15.c ****       *__SIMD32(pDst)++ = __PKHBT(__SSAT((in2 << shiftBits), 16),
 111:Drivers/CMSIS/DSP/Source/BasicMathFunctions/arm_shift_q15.c ****                                   __SSAT((in1 << shiftBits), 16), 16);
 112:Drivers/CMSIS/DSP/Source/BasicMathFunctions/arm_shift_q15.c **** 
 113:Drivers/CMSIS/DSP/Source/BasicMathFunctions/arm_shift_q15.c **** #endif /* #ifndef  ARM_MATH_BIG_ENDIAN    */
 114:Drivers/CMSIS/DSP/Source/BasicMathFunctions/arm_shift_q15.c **** 
 115:Drivers/CMSIS/DSP/Source/BasicMathFunctions/arm_shift_q15.c ****       /* Decrement the loop counter */
 116:Drivers/CMSIS/DSP/Source/BasicMathFunctions/arm_shift_q15.c ****       blkCnt--;
 148              		.loc 1 116 7 is_stmt 1 view .LVU39
 149              		.loc 1 116 13 is_stmt 0 view .LVU40
 150 0050 013C     		subs	r4, r4, #1
 151              	.LVL20:
 105:Drivers/CMSIS/DSP/Source/BasicMathFunctions/arm_shift_q15.c ****                                   __SSAT((in2 << shiftBits), 16), 16);
 152              		.loc 1 105 22 view .LVU41
 153 0052 2A46     		mov	r2, r5
 101:Drivers/CMSIS/DSP/Source/BasicMathFunctions/arm_shift_q15.c **** 
 154              		.loc 1 101 18 view .LVU42
 155 0054 0830     		adds	r0, r0, #8
 156              	.LVL21:
 157              	.L2:
  81:Drivers/CMSIS/DSP/Source/BasicMathFunctions/arm_shift_q15.c ****     {
 158              		.loc 1 81 19 is_stmt 1 view .LVU43
 159 0056 002C     		cmp	r4, #0
 160 0058 D8D1     		bne	.L4
 117:Drivers/CMSIS/DSP/Source/BasicMathFunctions/arm_shift_q15.c ****     }
 118:Drivers/CMSIS/DSP/Source/BasicMathFunctions/arm_shift_q15.c **** 
 119:Drivers/CMSIS/DSP/Source/BasicMathFunctions/arm_shift_q15.c ****     /* If the blockSize is not a multiple of 4, compute any remaining output samples here.
 120:Drivers/CMSIS/DSP/Source/BasicMathFunctions/arm_shift_q15.c ****      ** No loop unrolling is used. */
 121:Drivers/CMSIS/DSP/Source/BasicMathFunctions/arm_shift_q15.c ****     blkCnt = blockSize % 0x4U;
 161              		.loc 1 121 5 view .LVU44
 162              		.loc 1 121 12 is_stmt 0 view .LVU45
ARM GAS  /var/folders/n6/c271nzx11xl4r4_m7sqjlt0m0000gn/T//ccHXJXpd.s 			page 6


 163 005a 03F00303 		and	r3, r3, #3
 164              	.LVL22:
 122:Drivers/CMSIS/DSP/Source/BasicMathFunctions/arm_shift_q15.c **** 
 123:Drivers/CMSIS/DSP/Source/BasicMathFunctions/arm_shift_q15.c ****     while (blkCnt > 0U)
 165              		.loc 1 123 5 is_stmt 1 view .LVU46
 166              		.loc 1 123 11 is_stmt 0 view .LVU47
 167 005e 08E0     		b	.L5
 168              	.L6:
 124:Drivers/CMSIS/DSP/Source/BasicMathFunctions/arm_shift_q15.c ****     {
 125:Drivers/CMSIS/DSP/Source/BasicMathFunctions/arm_shift_q15.c ****       /* C = A << shiftBits */
 126:Drivers/CMSIS/DSP/Source/BasicMathFunctions/arm_shift_q15.c ****       /* Shift and then store the results in the destination buffer. */
 127:Drivers/CMSIS/DSP/Source/BasicMathFunctions/arm_shift_q15.c ****       *pDst++ = __SSAT((*pSrc++ << shiftBits), 16);
 169              		.loc 1 127 7 is_stmt 1 view .LVU48
 170              	.LBB6:
 171              		.loc 1 127 17 view .LVU49
 172              	.LVL23:
 173              		.loc 1 127 17 is_stmt 0 view .LVU50
 174 0060 30F9021B 		ldrsh	r1, [r0], #2
 175              	.LVL24:
 176              		.loc 1 127 17 view .LVU51
 177 0064 01FA0CF1 		lsl	r1, r1, ip
 178              	.LVL25:
 179              		.loc 1 127 17 is_stmt 1 view .LVU52
 180              		.syntax unified
 181              	@ 127 "Drivers/CMSIS/DSP/Source/BasicMathFunctions/arm_shift_q15.c" 1
 182 0068 01F30F01 		ssat r1, #16, r1
 183              	@ 0 "" 2
 184              	.LVL26:
 185              		.loc 1 127 17 view .LVU53
 186              		.loc 1 127 17 is_stmt 0 view .LVU54
 187              		.thumb
 188              		.syntax unified
 189              	.LBE6:
 190              		.loc 1 127 15 view .LVU55
 191 006c 22F8021B 		strh	r1, [r2], #2	@ movhi
 192              	.LVL27:
 128:Drivers/CMSIS/DSP/Source/BasicMathFunctions/arm_shift_q15.c **** 
 129:Drivers/CMSIS/DSP/Source/BasicMathFunctions/arm_shift_q15.c ****       /* Decrement the loop counter */
 130:Drivers/CMSIS/DSP/Source/BasicMathFunctions/arm_shift_q15.c ****       blkCnt--;
 193              		.loc 1 130 7 is_stmt 1 view .LVU56
 194              		.loc 1 130 13 is_stmt 0 view .LVU57
 195 0070 013B     		subs	r3, r3, #1
 196              	.LVL28:
 197              	.L5:
 123:Drivers/CMSIS/DSP/Source/BasicMathFunctions/arm_shift_q15.c ****     {
 198              		.loc 1 123 19 is_stmt 1 view .LVU58
 199 0072 002B     		cmp	r3, #0
 200 0074 F4D1     		bne	.L6
 201              	.L1:
 131:Drivers/CMSIS/DSP/Source/BasicMathFunctions/arm_shift_q15.c ****     }
 132:Drivers/CMSIS/DSP/Source/BasicMathFunctions/arm_shift_q15.c ****   }
 133:Drivers/CMSIS/DSP/Source/BasicMathFunctions/arm_shift_q15.c ****   else
 134:Drivers/CMSIS/DSP/Source/BasicMathFunctions/arm_shift_q15.c ****   {
 135:Drivers/CMSIS/DSP/Source/BasicMathFunctions/arm_shift_q15.c ****     /* First part of the processing with loop unrolling.  Compute 4 outputs at a time.
 136:Drivers/CMSIS/DSP/Source/BasicMathFunctions/arm_shift_q15.c ****      ** a second loop below computes the remaining 1 to 3 samples. */
 137:Drivers/CMSIS/DSP/Source/BasicMathFunctions/arm_shift_q15.c ****     while (blkCnt > 0U)
 138:Drivers/CMSIS/DSP/Source/BasicMathFunctions/arm_shift_q15.c ****     {
ARM GAS  /var/folders/n6/c271nzx11xl4r4_m7sqjlt0m0000gn/T//ccHXJXpd.s 			page 7


 139:Drivers/CMSIS/DSP/Source/BasicMathFunctions/arm_shift_q15.c ****       /* Read 2 inputs */
 140:Drivers/CMSIS/DSP/Source/BasicMathFunctions/arm_shift_q15.c ****       in1 = *pSrc++;
 141:Drivers/CMSIS/DSP/Source/BasicMathFunctions/arm_shift_q15.c ****       in2 = *pSrc++;
 142:Drivers/CMSIS/DSP/Source/BasicMathFunctions/arm_shift_q15.c **** 
 143:Drivers/CMSIS/DSP/Source/BasicMathFunctions/arm_shift_q15.c ****       /* C = A >> shiftBits */
 144:Drivers/CMSIS/DSP/Source/BasicMathFunctions/arm_shift_q15.c ****       /* Shift the inputs and then store the results in the destination buffer. */
 145:Drivers/CMSIS/DSP/Source/BasicMathFunctions/arm_shift_q15.c **** #ifndef  ARM_MATH_BIG_ENDIAN
 146:Drivers/CMSIS/DSP/Source/BasicMathFunctions/arm_shift_q15.c **** 
 147:Drivers/CMSIS/DSP/Source/BasicMathFunctions/arm_shift_q15.c ****       *__SIMD32(pDst)++ = __PKHBT((in1 >> -shiftBits),
 148:Drivers/CMSIS/DSP/Source/BasicMathFunctions/arm_shift_q15.c ****                                   (in2 >> -shiftBits), 16);
 149:Drivers/CMSIS/DSP/Source/BasicMathFunctions/arm_shift_q15.c **** 
 150:Drivers/CMSIS/DSP/Source/BasicMathFunctions/arm_shift_q15.c **** #else
 151:Drivers/CMSIS/DSP/Source/BasicMathFunctions/arm_shift_q15.c **** 
 152:Drivers/CMSIS/DSP/Source/BasicMathFunctions/arm_shift_q15.c ****       *__SIMD32(pDst)++ = __PKHBT((in2 >> -shiftBits),
 153:Drivers/CMSIS/DSP/Source/BasicMathFunctions/arm_shift_q15.c ****                                   (in1 >> -shiftBits), 16);
 154:Drivers/CMSIS/DSP/Source/BasicMathFunctions/arm_shift_q15.c **** 
 155:Drivers/CMSIS/DSP/Source/BasicMathFunctions/arm_shift_q15.c **** #endif /* #ifndef  ARM_MATH_BIG_ENDIAN    */
 156:Drivers/CMSIS/DSP/Source/BasicMathFunctions/arm_shift_q15.c **** 
 157:Drivers/CMSIS/DSP/Source/BasicMathFunctions/arm_shift_q15.c ****       in1 = *pSrc++;
 158:Drivers/CMSIS/DSP/Source/BasicMathFunctions/arm_shift_q15.c ****       in2 = *pSrc++;
 159:Drivers/CMSIS/DSP/Source/BasicMathFunctions/arm_shift_q15.c **** 
 160:Drivers/CMSIS/DSP/Source/BasicMathFunctions/arm_shift_q15.c **** #ifndef  ARM_MATH_BIG_ENDIAN
 161:Drivers/CMSIS/DSP/Source/BasicMathFunctions/arm_shift_q15.c **** 
 162:Drivers/CMSIS/DSP/Source/BasicMathFunctions/arm_shift_q15.c ****       *__SIMD32(pDst)++ = __PKHBT((in1 >> -shiftBits),
 163:Drivers/CMSIS/DSP/Source/BasicMathFunctions/arm_shift_q15.c ****                                   (in2 >> -shiftBits), 16);
 164:Drivers/CMSIS/DSP/Source/BasicMathFunctions/arm_shift_q15.c **** 
 165:Drivers/CMSIS/DSP/Source/BasicMathFunctions/arm_shift_q15.c **** #else
 166:Drivers/CMSIS/DSP/Source/BasicMathFunctions/arm_shift_q15.c **** 
 167:Drivers/CMSIS/DSP/Source/BasicMathFunctions/arm_shift_q15.c ****       *__SIMD32(pDst)++ = __PKHBT((in2 >> -shiftBits),
 168:Drivers/CMSIS/DSP/Source/BasicMathFunctions/arm_shift_q15.c ****                                   (in1 >> -shiftBits), 16);
 169:Drivers/CMSIS/DSP/Source/BasicMathFunctions/arm_shift_q15.c **** 
 170:Drivers/CMSIS/DSP/Source/BasicMathFunctions/arm_shift_q15.c **** #endif /* #ifndef  ARM_MATH_BIG_ENDIAN    */
 171:Drivers/CMSIS/DSP/Source/BasicMathFunctions/arm_shift_q15.c **** 
 172:Drivers/CMSIS/DSP/Source/BasicMathFunctions/arm_shift_q15.c ****       /* Decrement the loop counter */
 173:Drivers/CMSIS/DSP/Source/BasicMathFunctions/arm_shift_q15.c ****       blkCnt--;
 174:Drivers/CMSIS/DSP/Source/BasicMathFunctions/arm_shift_q15.c ****     }
 175:Drivers/CMSIS/DSP/Source/BasicMathFunctions/arm_shift_q15.c **** 
 176:Drivers/CMSIS/DSP/Source/BasicMathFunctions/arm_shift_q15.c ****     /* If the blockSize is not a multiple of 4, compute any remaining output samples here.
 177:Drivers/CMSIS/DSP/Source/BasicMathFunctions/arm_shift_q15.c ****      ** No loop unrolling is used. */
 178:Drivers/CMSIS/DSP/Source/BasicMathFunctions/arm_shift_q15.c ****     blkCnt = blockSize % 0x4U;
 179:Drivers/CMSIS/DSP/Source/BasicMathFunctions/arm_shift_q15.c **** 
 180:Drivers/CMSIS/DSP/Source/BasicMathFunctions/arm_shift_q15.c ****     while (blkCnt > 0U)
 181:Drivers/CMSIS/DSP/Source/BasicMathFunctions/arm_shift_q15.c ****     {
 182:Drivers/CMSIS/DSP/Source/BasicMathFunctions/arm_shift_q15.c ****       /* C = A >> shiftBits */
 183:Drivers/CMSIS/DSP/Source/BasicMathFunctions/arm_shift_q15.c ****       /* Shift the inputs and then store the results in the destination buffer. */
 184:Drivers/CMSIS/DSP/Source/BasicMathFunctions/arm_shift_q15.c ****       *pDst++ = (*pSrc++ >> -shiftBits);
 185:Drivers/CMSIS/DSP/Source/BasicMathFunctions/arm_shift_q15.c **** 
 186:Drivers/CMSIS/DSP/Source/BasicMathFunctions/arm_shift_q15.c ****       /* Decrement the loop counter */
 187:Drivers/CMSIS/DSP/Source/BasicMathFunctions/arm_shift_q15.c ****       blkCnt--;
 188:Drivers/CMSIS/DSP/Source/BasicMathFunctions/arm_shift_q15.c ****     }
 189:Drivers/CMSIS/DSP/Source/BasicMathFunctions/arm_shift_q15.c ****   }
 190:Drivers/CMSIS/DSP/Source/BasicMathFunctions/arm_shift_q15.c **** 
 191:Drivers/CMSIS/DSP/Source/BasicMathFunctions/arm_shift_q15.c **** #else
 192:Drivers/CMSIS/DSP/Source/BasicMathFunctions/arm_shift_q15.c **** 
 193:Drivers/CMSIS/DSP/Source/BasicMathFunctions/arm_shift_q15.c ****   /* Run the below code for Cortex-M0 */
 194:Drivers/CMSIS/DSP/Source/BasicMathFunctions/arm_shift_q15.c **** 
 195:Drivers/CMSIS/DSP/Source/BasicMathFunctions/arm_shift_q15.c ****   /* Getting the sign of shiftBits */
ARM GAS  /var/folders/n6/c271nzx11xl4r4_m7sqjlt0m0000gn/T//ccHXJXpd.s 			page 8


 196:Drivers/CMSIS/DSP/Source/BasicMathFunctions/arm_shift_q15.c ****   sign = (shiftBits & 0x80);
 197:Drivers/CMSIS/DSP/Source/BasicMathFunctions/arm_shift_q15.c **** 
 198:Drivers/CMSIS/DSP/Source/BasicMathFunctions/arm_shift_q15.c ****   /* If the shift value is positive then do right shift else left shift */
 199:Drivers/CMSIS/DSP/Source/BasicMathFunctions/arm_shift_q15.c ****   if (sign == 0U)
 200:Drivers/CMSIS/DSP/Source/BasicMathFunctions/arm_shift_q15.c ****   {
 201:Drivers/CMSIS/DSP/Source/BasicMathFunctions/arm_shift_q15.c ****     /* Initialize blkCnt with number of samples */
 202:Drivers/CMSIS/DSP/Source/BasicMathFunctions/arm_shift_q15.c ****     blkCnt = blockSize;
 203:Drivers/CMSIS/DSP/Source/BasicMathFunctions/arm_shift_q15.c **** 
 204:Drivers/CMSIS/DSP/Source/BasicMathFunctions/arm_shift_q15.c ****     while (blkCnt > 0U)
 205:Drivers/CMSIS/DSP/Source/BasicMathFunctions/arm_shift_q15.c ****     {
 206:Drivers/CMSIS/DSP/Source/BasicMathFunctions/arm_shift_q15.c ****       /* C = A << shiftBits */
 207:Drivers/CMSIS/DSP/Source/BasicMathFunctions/arm_shift_q15.c ****       /* Shift and then store the results in the destination buffer. */
 208:Drivers/CMSIS/DSP/Source/BasicMathFunctions/arm_shift_q15.c ****       *pDst++ = __SSAT(((q31_t) * pSrc++ << shiftBits), 16);
 209:Drivers/CMSIS/DSP/Source/BasicMathFunctions/arm_shift_q15.c **** 
 210:Drivers/CMSIS/DSP/Source/BasicMathFunctions/arm_shift_q15.c ****       /* Decrement the loop counter */
 211:Drivers/CMSIS/DSP/Source/BasicMathFunctions/arm_shift_q15.c ****       blkCnt--;
 212:Drivers/CMSIS/DSP/Source/BasicMathFunctions/arm_shift_q15.c ****     }
 213:Drivers/CMSIS/DSP/Source/BasicMathFunctions/arm_shift_q15.c ****   }
 214:Drivers/CMSIS/DSP/Source/BasicMathFunctions/arm_shift_q15.c ****   else
 215:Drivers/CMSIS/DSP/Source/BasicMathFunctions/arm_shift_q15.c ****   {
 216:Drivers/CMSIS/DSP/Source/BasicMathFunctions/arm_shift_q15.c ****     /* Initialize blkCnt with number of samples */
 217:Drivers/CMSIS/DSP/Source/BasicMathFunctions/arm_shift_q15.c ****     blkCnt = blockSize;
 218:Drivers/CMSIS/DSP/Source/BasicMathFunctions/arm_shift_q15.c **** 
 219:Drivers/CMSIS/DSP/Source/BasicMathFunctions/arm_shift_q15.c ****     while (blkCnt > 0U)
 220:Drivers/CMSIS/DSP/Source/BasicMathFunctions/arm_shift_q15.c ****     {
 221:Drivers/CMSIS/DSP/Source/BasicMathFunctions/arm_shift_q15.c ****       /* C = A >> shiftBits */
 222:Drivers/CMSIS/DSP/Source/BasicMathFunctions/arm_shift_q15.c ****       /* Shift the inputs and then store the results in the destination buffer. */
 223:Drivers/CMSIS/DSP/Source/BasicMathFunctions/arm_shift_q15.c ****       *pDst++ = (*pSrc++ >> -shiftBits);
 224:Drivers/CMSIS/DSP/Source/BasicMathFunctions/arm_shift_q15.c **** 
 225:Drivers/CMSIS/DSP/Source/BasicMathFunctions/arm_shift_q15.c ****       /* Decrement the loop counter */
 226:Drivers/CMSIS/DSP/Source/BasicMathFunctions/arm_shift_q15.c ****       blkCnt--;
 227:Drivers/CMSIS/DSP/Source/BasicMathFunctions/arm_shift_q15.c ****     }
 228:Drivers/CMSIS/DSP/Source/BasicMathFunctions/arm_shift_q15.c ****   }
 229:Drivers/CMSIS/DSP/Source/BasicMathFunctions/arm_shift_q15.c **** 
 230:Drivers/CMSIS/DSP/Source/BasicMathFunctions/arm_shift_q15.c **** #endif /* #if defined (ARM_MATH_DSP) */
 231:Drivers/CMSIS/DSP/Source/BasicMathFunctions/arm_shift_q15.c **** 
 232:Drivers/CMSIS/DSP/Source/BasicMathFunctions/arm_shift_q15.c **** }
 202              		.loc 1 232 1 is_stmt 0 view .LVU59
 203 0076 70BD     		pop	{r4, r5, r6, pc}
 204              	.LVL29:
 205              	.L8:
 140:Drivers/CMSIS/DSP/Source/BasicMathFunctions/arm_shift_q15.c ****       in2 = *pSrc++;
 206              		.loc 1 140 7 is_stmt 1 view .LVU60
 140:Drivers/CMSIS/DSP/Source/BasicMathFunctions/arm_shift_q15.c ****       in2 = *pSrc++;
 207              		.loc 1 140 11 is_stmt 0 view .LVU61
 208 0078 B0F90010 		ldrsh	r1, [r0]
 209              	.LVL30:
 141:Drivers/CMSIS/DSP/Source/BasicMathFunctions/arm_shift_q15.c **** 
 210              		.loc 1 141 7 is_stmt 1 view .LVU62
 141:Drivers/CMSIS/DSP/Source/BasicMathFunctions/arm_shift_q15.c **** 
 211              		.loc 1 141 11 is_stmt 0 view .LVU63
 212 007c B0F90260 		ldrsh	r6, [r0, #2]
 213              	.LVL31:
 147:Drivers/CMSIS/DSP/Source/BasicMathFunctions/arm_shift_q15.c ****                                   (in2 >> -shiftBits), 16);
 214              		.loc 1 147 7 is_stmt 1 view .LVU64
 147:Drivers/CMSIS/DSP/Source/BasicMathFunctions/arm_shift_q15.c ****                                   (in2 >> -shiftBits), 16);
 215              		.loc 1 147 27 is_stmt 0 view .LVU65
ARM GAS  /var/folders/n6/c271nzx11xl4r4_m7sqjlt0m0000gn/T//ccHXJXpd.s 			page 9


 216 0080 CCF10005 		rsb	r5, ip, #0
 217 0084 2941     		asrs	r1, r1, r5
 218 0086 2E41     		asrs	r6, r6, r5
 219              	.LVL32:
 147:Drivers/CMSIS/DSP/Source/BasicMathFunctions/arm_shift_q15.c ****                                   (in2 >> -shiftBits), 16);
 220              		.loc 1 147 27 view .LVU66
 221 0088 89B2     		uxth	r1, r1
 222 008a 41EA0641 		orr	r1, r1, r6, lsl #16
 147:Drivers/CMSIS/DSP/Source/BasicMathFunctions/arm_shift_q15.c ****                                   (in2 >> -shiftBits), 16);
 223              		.loc 1 147 25 view .LVU67
 224 008e 9646     		mov	lr, r2
 225 0090 4EF8081B 		str	r1, [lr], #8
 226              	.LVL33:
 157:Drivers/CMSIS/DSP/Source/BasicMathFunctions/arm_shift_q15.c ****       in2 = *pSrc++;
 227              		.loc 1 157 7 is_stmt 1 view .LVU68
 157:Drivers/CMSIS/DSP/Source/BasicMathFunctions/arm_shift_q15.c ****       in2 = *pSrc++;
 228              		.loc 1 157 11 is_stmt 0 view .LVU69
 229 0094 B0F90410 		ldrsh	r1, [r0, #4]
 230              	.LVL34:
 158:Drivers/CMSIS/DSP/Source/BasicMathFunctions/arm_shift_q15.c **** 
 231              		.loc 1 158 7 is_stmt 1 view .LVU70
 158:Drivers/CMSIS/DSP/Source/BasicMathFunctions/arm_shift_q15.c **** 
 232              		.loc 1 158 11 is_stmt 0 view .LVU71
 233 0098 B0F90660 		ldrsh	r6, [r0, #6]
 234              	.LVL35:
 162:Drivers/CMSIS/DSP/Source/BasicMathFunctions/arm_shift_q15.c ****                                   (in2 >> -shiftBits), 16);
 235              		.loc 1 162 7 is_stmt 1 view .LVU72
 162:Drivers/CMSIS/DSP/Source/BasicMathFunctions/arm_shift_q15.c ****                                   (in2 >> -shiftBits), 16);
 236              		.loc 1 162 27 is_stmt 0 view .LVU73
 237 009c 2941     		asrs	r1, r1, r5
 238 009e 46FA05F5 		asr	r5, r6, r5
 239              	.LVL36:
 162:Drivers/CMSIS/DSP/Source/BasicMathFunctions/arm_shift_q15.c ****                                   (in2 >> -shiftBits), 16);
 240              		.loc 1 162 27 view .LVU74
 241 00a2 89B2     		uxth	r1, r1
 242 00a4 41EA0541 		orr	r1, r1, r5, lsl #16
 162:Drivers/CMSIS/DSP/Source/BasicMathFunctions/arm_shift_q15.c ****                                   (in2 >> -shiftBits), 16);
 243              		.loc 1 162 25 view .LVU75
 244 00a8 5160     		str	r1, [r2, #4]
 245              	.LVL37:
 173:Drivers/CMSIS/DSP/Source/BasicMathFunctions/arm_shift_q15.c ****     }
 246              		.loc 1 173 7 is_stmt 1 view .LVU76
 173:Drivers/CMSIS/DSP/Source/BasicMathFunctions/arm_shift_q15.c ****     }
 247              		.loc 1 173 13 is_stmt 0 view .LVU77
 248 00aa 013C     		subs	r4, r4, #1
 249              	.LVL38:
 162:Drivers/CMSIS/DSP/Source/BasicMathFunctions/arm_shift_q15.c ****                                   (in2 >> -shiftBits), 16);
 250              		.loc 1 162 22 view .LVU78
 251 00ac 7246     		mov	r2, lr
 158:Drivers/CMSIS/DSP/Source/BasicMathFunctions/arm_shift_q15.c **** 
 252              		.loc 1 158 18 view .LVU79
 253 00ae 0830     		adds	r0, r0, #8
 254              	.LVL39:
 255              	.L3:
 137:Drivers/CMSIS/DSP/Source/BasicMathFunctions/arm_shift_q15.c ****     {
 256              		.loc 1 137 19 is_stmt 1 view .LVU80
 257 00b0 002C     		cmp	r4, #0
ARM GAS  /var/folders/n6/c271nzx11xl4r4_m7sqjlt0m0000gn/T//ccHXJXpd.s 			page 10


 258 00b2 E1D1     		bne	.L8
 178:Drivers/CMSIS/DSP/Source/BasicMathFunctions/arm_shift_q15.c **** 
 259              		.loc 1 178 5 view .LVU81
 178:Drivers/CMSIS/DSP/Source/BasicMathFunctions/arm_shift_q15.c **** 
 260              		.loc 1 178 12 is_stmt 0 view .LVU82
 261 00b4 03F00303 		and	r3, r3, #3
 262              	.LVL40:
 180:Drivers/CMSIS/DSP/Source/BasicMathFunctions/arm_shift_q15.c ****     {
 263              		.loc 1 180 5 is_stmt 1 view .LVU83
 180:Drivers/CMSIS/DSP/Source/BasicMathFunctions/arm_shift_q15.c ****     {
 264              		.loc 1 180 11 is_stmt 0 view .LVU84
 265 00b8 07E0     		b	.L9
 266              	.L10:
 184:Drivers/CMSIS/DSP/Source/BasicMathFunctions/arm_shift_q15.c **** 
 267              		.loc 1 184 7 is_stmt 1 view .LVU85
 268              	.LVL41:
 184:Drivers/CMSIS/DSP/Source/BasicMathFunctions/arm_shift_q15.c **** 
 269              		.loc 1 184 18 is_stmt 0 view .LVU86
 270 00ba 30F9021B 		ldrsh	r1, [r0], #2
 271              	.LVL42:
 184:Drivers/CMSIS/DSP/Source/BasicMathFunctions/arm_shift_q15.c **** 
 272              		.loc 1 184 29 view .LVU87
 273 00be CCF10004 		rsb	r4, ip, #0
 184:Drivers/CMSIS/DSP/Source/BasicMathFunctions/arm_shift_q15.c **** 
 274              		.loc 1 184 26 view .LVU88
 275 00c2 2141     		asrs	r1, r1, r4
 276              	.LVL43:
 184:Drivers/CMSIS/DSP/Source/BasicMathFunctions/arm_shift_q15.c **** 
 277              		.loc 1 184 15 view .LVU89
 278 00c4 22F8021B 		strh	r1, [r2], #2	@ movhi
 279              	.LVL44:
 187:Drivers/CMSIS/DSP/Source/BasicMathFunctions/arm_shift_q15.c ****     }
 280              		.loc 1 187 7 is_stmt 1 view .LVU90
 187:Drivers/CMSIS/DSP/Source/BasicMathFunctions/arm_shift_q15.c ****     }
 281              		.loc 1 187 13 is_stmt 0 view .LVU91
 282 00c8 013B     		subs	r3, r3, #1
 283              	.LVL45:
 284              	.L9:
 180:Drivers/CMSIS/DSP/Source/BasicMathFunctions/arm_shift_q15.c ****     {
 285              		.loc 1 180 19 is_stmt 1 view .LVU92
 286 00ca 002B     		cmp	r3, #0
 287 00cc F5D1     		bne	.L10
 180:Drivers/CMSIS/DSP/Source/BasicMathFunctions/arm_shift_q15.c ****     {
 288              		.loc 1 180 19 is_stmt 0 view .LVU93
 289 00ce D2E7     		b	.L1
 290              		.cfi_endproc
 291              	.LFE135:
 293              		.text
 294              	.Letext0:
 295              		.file 2 "/Users/killian/Library/Application Support/Code/User/globalStorage/bmd.stm32-for-vscode/@
 296              		.file 3 "/Users/killian/Library/Application Support/Code/User/globalStorage/bmd.stm32-for-vscode/@
 297              		.file 4 "Drivers/CMSIS/DSP/Include/arm_math.h"
ARM GAS  /var/folders/n6/c271nzx11xl4r4_m7sqjlt0m0000gn/T//ccHXJXpd.s 			page 11


DEFINED SYMBOLS
                            *ABS*:00000000 arm_shift_q15.c
/var/folders/n6/c271nzx11xl4r4_m7sqjlt0m0000gn/T//ccHXJXpd.s:20     .text.arm_shift_q15:00000000 $t
/var/folders/n6/c271nzx11xl4r4_m7sqjlt0m0000gn/T//ccHXJXpd.s:26     .text.arm_shift_q15:00000000 arm_shift_q15

NO UNDEFINED SYMBOLS
