ARM GAS  /var/folders/n6/c271nzx11xl4r4_m7sqjlt0m0000gn/T//ccXskxb1.s 			page 1


   1              		.cpu cortex-m7
   2              		.arch armv7e-m
   3              		.fpu fpv5-d16
   4              		.eabi_attribute 28, 1
   5              		.eabi_attribute 20, 1
   6              		.eabi_attribute 21, 1
   7              		.eabi_attribute 23, 3
   8              		.eabi_attribute 24, 1
   9              		.eabi_attribute 25, 1
  10              		.eabi_attribute 26, 1
  11              		.eabi_attribute 30, 1
  12              		.eabi_attribute 34, 1
  13              		.eabi_attribute 18, 4
  14              		.file	"arm_copy_q7.c"
  15              		.text
  16              	.Ltext0:
  17              		.cfi_sections	.debug_frame
  18              		.file 1 "Drivers/CMSIS/DSP/Source/SupportFunctions/arm_copy_q7.c"
  19              		.section	.text.arm_copy_q7,"ax",%progbits
  20              		.align	1
  21              		.global	arm_copy_q7
  22              		.syntax unified
  23              		.thumb
  24              		.thumb_func
  26              	arm_copy_q7:
  27              	.LVL0:
  28              	.LFB135:
   1:Drivers/CMSIS/DSP/Source/SupportFunctions/arm_copy_q7.c **** /* ----------------------------------------------------------------------
   2:Drivers/CMSIS/DSP/Source/SupportFunctions/arm_copy_q7.c ****  * Project:      CMSIS DSP Library
   3:Drivers/CMSIS/DSP/Source/SupportFunctions/arm_copy_q7.c ****  * Title:        arm_copy_q7.c
   4:Drivers/CMSIS/DSP/Source/SupportFunctions/arm_copy_q7.c ****  * Description:  Copies the elements of a Q7 vector
   5:Drivers/CMSIS/DSP/Source/SupportFunctions/arm_copy_q7.c ****  *
   6:Drivers/CMSIS/DSP/Source/SupportFunctions/arm_copy_q7.c ****  * $Date:        27. January 2017
   7:Drivers/CMSIS/DSP/Source/SupportFunctions/arm_copy_q7.c ****  * $Revision:    V.1.5.1
   8:Drivers/CMSIS/DSP/Source/SupportFunctions/arm_copy_q7.c ****  *
   9:Drivers/CMSIS/DSP/Source/SupportFunctions/arm_copy_q7.c ****  * Target Processor: Cortex-M cores
  10:Drivers/CMSIS/DSP/Source/SupportFunctions/arm_copy_q7.c ****  * -------------------------------------------------------------------- */
  11:Drivers/CMSIS/DSP/Source/SupportFunctions/arm_copy_q7.c **** /*
  12:Drivers/CMSIS/DSP/Source/SupportFunctions/arm_copy_q7.c ****  * Copyright (C) 2010-2017 ARM Limited or its affiliates. All rights reserved.
  13:Drivers/CMSIS/DSP/Source/SupportFunctions/arm_copy_q7.c ****  *
  14:Drivers/CMSIS/DSP/Source/SupportFunctions/arm_copy_q7.c ****  * SPDX-License-Identifier: Apache-2.0
  15:Drivers/CMSIS/DSP/Source/SupportFunctions/arm_copy_q7.c ****  *
  16:Drivers/CMSIS/DSP/Source/SupportFunctions/arm_copy_q7.c ****  * Licensed under the Apache License, Version 2.0 (the License); you may
  17:Drivers/CMSIS/DSP/Source/SupportFunctions/arm_copy_q7.c ****  * not use this file except in compliance with the License.
  18:Drivers/CMSIS/DSP/Source/SupportFunctions/arm_copy_q7.c ****  * You may obtain a copy of the License at
  19:Drivers/CMSIS/DSP/Source/SupportFunctions/arm_copy_q7.c ****  *
  20:Drivers/CMSIS/DSP/Source/SupportFunctions/arm_copy_q7.c ****  * www.apache.org/licenses/LICENSE-2.0
  21:Drivers/CMSIS/DSP/Source/SupportFunctions/arm_copy_q7.c ****  *
  22:Drivers/CMSIS/DSP/Source/SupportFunctions/arm_copy_q7.c ****  * Unless required by applicable law or agreed to in writing, software
  23:Drivers/CMSIS/DSP/Source/SupportFunctions/arm_copy_q7.c ****  * distributed under the License is distributed on an AS IS BASIS, WITHOUT
  24:Drivers/CMSIS/DSP/Source/SupportFunctions/arm_copy_q7.c ****  * WARRANTIES OR CONDITIONS OF ANY KIND, either express or implied.
  25:Drivers/CMSIS/DSP/Source/SupportFunctions/arm_copy_q7.c ****  * See the License for the specific language governing permissions and
  26:Drivers/CMSIS/DSP/Source/SupportFunctions/arm_copy_q7.c ****  * limitations under the License.
  27:Drivers/CMSIS/DSP/Source/SupportFunctions/arm_copy_q7.c ****  */
  28:Drivers/CMSIS/DSP/Source/SupportFunctions/arm_copy_q7.c **** 
  29:Drivers/CMSIS/DSP/Source/SupportFunctions/arm_copy_q7.c **** #include "arm_math.h"
  30:Drivers/CMSIS/DSP/Source/SupportFunctions/arm_copy_q7.c **** 
ARM GAS  /var/folders/n6/c271nzx11xl4r4_m7sqjlt0m0000gn/T//ccXskxb1.s 			page 2


  31:Drivers/CMSIS/DSP/Source/SupportFunctions/arm_copy_q7.c **** /**
  32:Drivers/CMSIS/DSP/Source/SupportFunctions/arm_copy_q7.c ****  * @ingroup groupSupport
  33:Drivers/CMSIS/DSP/Source/SupportFunctions/arm_copy_q7.c ****  */
  34:Drivers/CMSIS/DSP/Source/SupportFunctions/arm_copy_q7.c **** 
  35:Drivers/CMSIS/DSP/Source/SupportFunctions/arm_copy_q7.c **** /**
  36:Drivers/CMSIS/DSP/Source/SupportFunctions/arm_copy_q7.c ****  * @addtogroup copy
  37:Drivers/CMSIS/DSP/Source/SupportFunctions/arm_copy_q7.c ****  * @{
  38:Drivers/CMSIS/DSP/Source/SupportFunctions/arm_copy_q7.c ****  */
  39:Drivers/CMSIS/DSP/Source/SupportFunctions/arm_copy_q7.c **** 
  40:Drivers/CMSIS/DSP/Source/SupportFunctions/arm_copy_q7.c **** /**
  41:Drivers/CMSIS/DSP/Source/SupportFunctions/arm_copy_q7.c ****  * @brief Copies the elements of a Q7 vector.
  42:Drivers/CMSIS/DSP/Source/SupportFunctions/arm_copy_q7.c ****  * @param[in]       *pSrc points to input vector
  43:Drivers/CMSIS/DSP/Source/SupportFunctions/arm_copy_q7.c ****  * @param[out]      *pDst points to output vector
  44:Drivers/CMSIS/DSP/Source/SupportFunctions/arm_copy_q7.c ****  * @param[in]       blockSize length of the input vector
  45:Drivers/CMSIS/DSP/Source/SupportFunctions/arm_copy_q7.c ****  * @return none.
  46:Drivers/CMSIS/DSP/Source/SupportFunctions/arm_copy_q7.c ****  *
  47:Drivers/CMSIS/DSP/Source/SupportFunctions/arm_copy_q7.c ****  */
  48:Drivers/CMSIS/DSP/Source/SupportFunctions/arm_copy_q7.c **** 
  49:Drivers/CMSIS/DSP/Source/SupportFunctions/arm_copy_q7.c **** void arm_copy_q7(
  50:Drivers/CMSIS/DSP/Source/SupportFunctions/arm_copy_q7.c ****   q7_t * pSrc,
  51:Drivers/CMSIS/DSP/Source/SupportFunctions/arm_copy_q7.c ****   q7_t * pDst,
  52:Drivers/CMSIS/DSP/Source/SupportFunctions/arm_copy_q7.c ****   uint32_t blockSize)
  53:Drivers/CMSIS/DSP/Source/SupportFunctions/arm_copy_q7.c **** {
  29              		.loc 1 53 1 view -0
  30              		.cfi_startproc
  31              		@ args = 0, pretend = 0, frame = 0
  32              		@ frame_needed = 0, uses_anonymous_args = 0
  33              		@ link register save eliminated.
  54:Drivers/CMSIS/DSP/Source/SupportFunctions/arm_copy_q7.c ****   uint32_t blkCnt;                               /* loop counter */
  34              		.loc 1 54 3 view .LVU1
  55:Drivers/CMSIS/DSP/Source/SupportFunctions/arm_copy_q7.c **** 
  56:Drivers/CMSIS/DSP/Source/SupportFunctions/arm_copy_q7.c **** #if defined (ARM_MATH_DSP)
  57:Drivers/CMSIS/DSP/Source/SupportFunctions/arm_copy_q7.c **** 
  58:Drivers/CMSIS/DSP/Source/SupportFunctions/arm_copy_q7.c ****   /* Run the below code for Cortex-M4 and Cortex-M3 */
  59:Drivers/CMSIS/DSP/Source/SupportFunctions/arm_copy_q7.c **** 
  60:Drivers/CMSIS/DSP/Source/SupportFunctions/arm_copy_q7.c ****   /*loop Unrolling */
  61:Drivers/CMSIS/DSP/Source/SupportFunctions/arm_copy_q7.c ****   blkCnt = blockSize >> 2U;
  35              		.loc 1 61 3 view .LVU2
  36              		.loc 1 61 10 is_stmt 0 view .LVU3
  37 0000 9308     		lsrs	r3, r2, #2
  38              	.LVL1:
  62:Drivers/CMSIS/DSP/Source/SupportFunctions/arm_copy_q7.c **** 
  63:Drivers/CMSIS/DSP/Source/SupportFunctions/arm_copy_q7.c ****   /* First part of the processing with loop unrolling.  Compute 4 outputs at a time.
  64:Drivers/CMSIS/DSP/Source/SupportFunctions/arm_copy_q7.c ****    ** a second loop below computes the remaining 1 to 3 samples. */
  65:Drivers/CMSIS/DSP/Source/SupportFunctions/arm_copy_q7.c ****   while (blkCnt > 0U)
  39              		.loc 1 65 3 is_stmt 1 view .LVU4
  40              		.loc 1 65 17 view .LVU5
  41 0002 A3B1     		cbz	r3, .L12
  53:Drivers/CMSIS/DSP/Source/SupportFunctions/arm_copy_q7.c ****   uint32_t blkCnt;                               /* loop counter */
  42              		.loc 1 53 1 is_stmt 0 view .LVU6
  43 0004 10B4     		push	{r4}
  44              		.cfi_def_cfa_offset 4
  45              		.cfi_offset 4, -4
  46              	.L3:
  66:Drivers/CMSIS/DSP/Source/SupportFunctions/arm_copy_q7.c ****   {
  67:Drivers/CMSIS/DSP/Source/SupportFunctions/arm_copy_q7.c ****     /* C = A */
  68:Drivers/CMSIS/DSP/Source/SupportFunctions/arm_copy_q7.c ****     /* Copy and then store the results in the destination buffer */
ARM GAS  /var/folders/n6/c271nzx11xl4r4_m7sqjlt0m0000gn/T//ccXskxb1.s 			page 3


  69:Drivers/CMSIS/DSP/Source/SupportFunctions/arm_copy_q7.c ****     /* 4 samples are copied and stored at a time using SIMD */
  70:Drivers/CMSIS/DSP/Source/SupportFunctions/arm_copy_q7.c ****     *__SIMD32(pDst)++ = *__SIMD32(pSrc)++;
  47              		.loc 1 70 5 is_stmt 1 view .LVU7
  48              	.LVL2:
  49              		.loc 1 70 25 is_stmt 0 view .LVU8
  50 0006 50F8044B 		ldr	r4, [r0], #4
  51              	.LVL3:
  52              		.loc 1 70 23 view .LVU9
  53 000a 41F8044B 		str	r4, [r1], #4
  54              	.LVL4:
  71:Drivers/CMSIS/DSP/Source/SupportFunctions/arm_copy_q7.c **** 
  72:Drivers/CMSIS/DSP/Source/SupportFunctions/arm_copy_q7.c ****     /* Decrement the loop counter */
  73:Drivers/CMSIS/DSP/Source/SupportFunctions/arm_copy_q7.c ****     blkCnt--;
  55              		.loc 1 73 5 is_stmt 1 view .LVU10
  56              		.loc 1 73 11 is_stmt 0 view .LVU11
  57 000e 013B     		subs	r3, r3, #1
  58              	.LVL5:
  65:Drivers/CMSIS/DSP/Source/SupportFunctions/arm_copy_q7.c ****   {
  59              		.loc 1 65 17 is_stmt 1 view .LVU12
  60 0010 002B     		cmp	r3, #0
  61 0012 F8D1     		bne	.L3
  74:Drivers/CMSIS/DSP/Source/SupportFunctions/arm_copy_q7.c ****   }
  75:Drivers/CMSIS/DSP/Source/SupportFunctions/arm_copy_q7.c **** 
  76:Drivers/CMSIS/DSP/Source/SupportFunctions/arm_copy_q7.c ****   /* If the blockSize is not a multiple of 4, compute any remaining output samples here.
  77:Drivers/CMSIS/DSP/Source/SupportFunctions/arm_copy_q7.c ****    ** No loop unrolling is used. */
  78:Drivers/CMSIS/DSP/Source/SupportFunctions/arm_copy_q7.c ****   blkCnt = blockSize % 0x4U;
  62              		.loc 1 78 3 view .LVU13
  63              		.loc 1 78 10 is_stmt 0 view .LVU14
  64 0014 02F00302 		and	r2, r2, #3
  65              	.LVL6:
  79:Drivers/CMSIS/DSP/Source/SupportFunctions/arm_copy_q7.c **** 
  80:Drivers/CMSIS/DSP/Source/SupportFunctions/arm_copy_q7.c **** #else
  81:Drivers/CMSIS/DSP/Source/SupportFunctions/arm_copy_q7.c **** 
  82:Drivers/CMSIS/DSP/Source/SupportFunctions/arm_copy_q7.c ****   /* Run the below code for Cortex-M0 */
  83:Drivers/CMSIS/DSP/Source/SupportFunctions/arm_copy_q7.c **** 
  84:Drivers/CMSIS/DSP/Source/SupportFunctions/arm_copy_q7.c ****   /* Loop over blockSize number of values */
  85:Drivers/CMSIS/DSP/Source/SupportFunctions/arm_copy_q7.c ****   blkCnt = blockSize;
  86:Drivers/CMSIS/DSP/Source/SupportFunctions/arm_copy_q7.c **** 
  87:Drivers/CMSIS/DSP/Source/SupportFunctions/arm_copy_q7.c **** #endif /* #if defined (ARM_MATH_DSP) */
  88:Drivers/CMSIS/DSP/Source/SupportFunctions/arm_copy_q7.c **** 
  89:Drivers/CMSIS/DSP/Source/SupportFunctions/arm_copy_q7.c **** 
  90:Drivers/CMSIS/DSP/Source/SupportFunctions/arm_copy_q7.c ****   while (blkCnt > 0U)
  66              		.loc 1 90 3 is_stmt 1 view .LVU15
  67              		.loc 1 90 9 is_stmt 0 view .LVU16
  68 0018 04E0     		b	.L4
  69              	.L5:
  91:Drivers/CMSIS/DSP/Source/SupportFunctions/arm_copy_q7.c ****   {
  92:Drivers/CMSIS/DSP/Source/SupportFunctions/arm_copy_q7.c ****     /* C = A */
  93:Drivers/CMSIS/DSP/Source/SupportFunctions/arm_copy_q7.c ****     /* Copy and then store the results in the destination buffer */
  94:Drivers/CMSIS/DSP/Source/SupportFunctions/arm_copy_q7.c ****     *pDst++ = *pSrc++;
  70              		.loc 1 94 5 is_stmt 1 view .LVU17
  71              	.LVL7:
  72              		.loc 1 94 15 is_stmt 0 view .LVU18
  73 001a 10F9013B 		ldrsb	r3, [r0], #1
  74              	.LVL8:
  75              		.loc 1 94 13 view .LVU19
  76 001e 01F8013B 		strb	r3, [r1], #1
ARM GAS  /var/folders/n6/c271nzx11xl4r4_m7sqjlt0m0000gn/T//ccXskxb1.s 			page 4


  77              	.LVL9:
  95:Drivers/CMSIS/DSP/Source/SupportFunctions/arm_copy_q7.c **** 
  96:Drivers/CMSIS/DSP/Source/SupportFunctions/arm_copy_q7.c ****     /* Decrement the loop counter */
  97:Drivers/CMSIS/DSP/Source/SupportFunctions/arm_copy_q7.c ****     blkCnt--;
  78              		.loc 1 97 5 is_stmt 1 view .LVU20
  79              		.loc 1 97 11 is_stmt 0 view .LVU21
  80 0022 013A     		subs	r2, r2, #1
  81              	.LVL10:
  82              	.L4:
  90:Drivers/CMSIS/DSP/Source/SupportFunctions/arm_copy_q7.c ****   {
  83              		.loc 1 90 17 is_stmt 1 view .LVU22
  84 0024 002A     		cmp	r2, #0
  85 0026 F8D1     		bne	.L5
  98:Drivers/CMSIS/DSP/Source/SupportFunctions/arm_copy_q7.c ****   }
  99:Drivers/CMSIS/DSP/Source/SupportFunctions/arm_copy_q7.c **** }
  86              		.loc 1 99 1 is_stmt 0 view .LVU23
  87 0028 5DF8044B 		ldr	r4, [sp], #4
  88              		.cfi_restore 4
  89              		.cfi_def_cfa_offset 0
  90 002c 7047     		bx	lr
  91              	.LVL11:
  92              	.L12:
  78:Drivers/CMSIS/DSP/Source/SupportFunctions/arm_copy_q7.c **** 
  93              		.loc 1 78 3 is_stmt 1 view .LVU24
  78:Drivers/CMSIS/DSP/Source/SupportFunctions/arm_copy_q7.c **** 
  94              		.loc 1 78 10 is_stmt 0 view .LVU25
  95 002e 02F00302 		and	r2, r2, #3
  96              	.LVL12:
  90:Drivers/CMSIS/DSP/Source/SupportFunctions/arm_copy_q7.c ****   {
  97              		.loc 1 90 3 is_stmt 1 view .LVU26
  98 0032 04E0     		b	.L9
  99              	.L10:
  94:Drivers/CMSIS/DSP/Source/SupportFunctions/arm_copy_q7.c **** 
 100              		.loc 1 94 5 view .LVU27
 101              	.LVL13:
  94:Drivers/CMSIS/DSP/Source/SupportFunctions/arm_copy_q7.c **** 
 102              		.loc 1 94 15 is_stmt 0 view .LVU28
 103 0034 10F9013B 		ldrsb	r3, [r0], #1
 104              	.LVL14:
  94:Drivers/CMSIS/DSP/Source/SupportFunctions/arm_copy_q7.c **** 
 105              		.loc 1 94 13 view .LVU29
 106 0038 01F8013B 		strb	r3, [r1], #1
 107              	.LVL15:
  97:Drivers/CMSIS/DSP/Source/SupportFunctions/arm_copy_q7.c ****   }
 108              		.loc 1 97 5 is_stmt 1 view .LVU30
  97:Drivers/CMSIS/DSP/Source/SupportFunctions/arm_copy_q7.c ****   }
 109              		.loc 1 97 11 is_stmt 0 view .LVU31
 110 003c 013A     		subs	r2, r2, #1
 111              	.LVL16:
 112              	.L9:
  90:Drivers/CMSIS/DSP/Source/SupportFunctions/arm_copy_q7.c ****   {
 113              		.loc 1 90 17 is_stmt 1 view .LVU32
 114 003e 002A     		cmp	r2, #0
 115 0040 F8D1     		bne	.L10
  90:Drivers/CMSIS/DSP/Source/SupportFunctions/arm_copy_q7.c ****   {
 116              		.loc 1 90 17 is_stmt 0 view .LVU33
 117 0042 7047     		bx	lr
ARM GAS  /var/folders/n6/c271nzx11xl4r4_m7sqjlt0m0000gn/T//ccXskxb1.s 			page 5


 118              		.cfi_endproc
 119              	.LFE135:
 121              		.text
 122              	.Letext0:
 123              		.file 2 "/Users/killian/Library/Application Support/Code/User/globalStorage/bmd.stm32-for-vscode/@
 124              		.file 3 "/Users/killian/Library/Application Support/Code/User/globalStorage/bmd.stm32-for-vscode/@
 125              		.file 4 "Drivers/CMSIS/DSP/Include/arm_math.h"
ARM GAS  /var/folders/n6/c271nzx11xl4r4_m7sqjlt0m0000gn/T//ccXskxb1.s 			page 6


DEFINED SYMBOLS
                            *ABS*:00000000 arm_copy_q7.c
/var/folders/n6/c271nzx11xl4r4_m7sqjlt0m0000gn/T//ccXskxb1.s:20     .text.arm_copy_q7:00000000 $t
/var/folders/n6/c271nzx11xl4r4_m7sqjlt0m0000gn/T//ccXskxb1.s:26     .text.arm_copy_q7:00000000 arm_copy_q7

NO UNDEFINED SYMBOLS
