ARM GAS  /var/folders/n6/c271nzx11xl4r4_m7sqjlt0m0000gn/T//ccCFD2rk.s 			page 1


   1              		.cpu cortex-m7
   2              		.arch armv7e-m
   3              		.fpu fpv5-d16
   4              		.eabi_attribute 28, 1
   5              		.eabi_attribute 20, 1
   6              		.eabi_attribute 21, 1
   7              		.eabi_attribute 23, 3
   8              		.eabi_attribute 24, 1
   9              		.eabi_attribute 25, 1
  10              		.eabi_attribute 26, 1
  11              		.eabi_attribute 30, 1
  12              		.eabi_attribute 34, 1
  13              		.eabi_attribute 18, 4
  14              		.file	"arm_min_q31.c"
  15              		.text
  16              	.Ltext0:
  17              		.cfi_sections	.debug_frame
  18              		.file 1 "Drivers/CMSIS/DSP/Source/StatisticsFunctions/arm_min_q31.c"
  19              		.section	.text.arm_min_q31,"ax",%progbits
  20              		.align	1
  21              		.global	arm_min_q31
  22              		.syntax unified
  23              		.thumb
  24              		.thumb_func
  26              	arm_min_q31:
  27              	.LVL0:
  28              	.LFB135:
   1:Drivers/CMSIS/DSP/Source/StatisticsFunctions/arm_min_q31.c **** /* ----------------------------------------------------------------------
   2:Drivers/CMSIS/DSP/Source/StatisticsFunctions/arm_min_q31.c ****  * Project:      CMSIS DSP Library
   3:Drivers/CMSIS/DSP/Source/StatisticsFunctions/arm_min_q31.c ****  * Title:        arm_min_q31.c
   4:Drivers/CMSIS/DSP/Source/StatisticsFunctions/arm_min_q31.c ****  * Description:  Minimum value of a Q31 vector
   5:Drivers/CMSIS/DSP/Source/StatisticsFunctions/arm_min_q31.c ****  *
   6:Drivers/CMSIS/DSP/Source/StatisticsFunctions/arm_min_q31.c ****  * $Date:        27. January 2017
   7:Drivers/CMSIS/DSP/Source/StatisticsFunctions/arm_min_q31.c ****  * $Revision:    V.1.5.1
   8:Drivers/CMSIS/DSP/Source/StatisticsFunctions/arm_min_q31.c ****  *
   9:Drivers/CMSIS/DSP/Source/StatisticsFunctions/arm_min_q31.c ****  * Target Processor: Cortex-M cores
  10:Drivers/CMSIS/DSP/Source/StatisticsFunctions/arm_min_q31.c ****  * -------------------------------------------------------------------- */
  11:Drivers/CMSIS/DSP/Source/StatisticsFunctions/arm_min_q31.c **** /*
  12:Drivers/CMSIS/DSP/Source/StatisticsFunctions/arm_min_q31.c ****  * Copyright (C) 2010-2017 ARM Limited or its affiliates. All rights reserved.
  13:Drivers/CMSIS/DSP/Source/StatisticsFunctions/arm_min_q31.c ****  *
  14:Drivers/CMSIS/DSP/Source/StatisticsFunctions/arm_min_q31.c ****  * SPDX-License-Identifier: Apache-2.0
  15:Drivers/CMSIS/DSP/Source/StatisticsFunctions/arm_min_q31.c ****  *
  16:Drivers/CMSIS/DSP/Source/StatisticsFunctions/arm_min_q31.c ****  * Licensed under the Apache License, Version 2.0 (the License); you may
  17:Drivers/CMSIS/DSP/Source/StatisticsFunctions/arm_min_q31.c ****  * not use this file except in compliance with the License.
  18:Drivers/CMSIS/DSP/Source/StatisticsFunctions/arm_min_q31.c ****  * You may obtain a copy of the License at
  19:Drivers/CMSIS/DSP/Source/StatisticsFunctions/arm_min_q31.c ****  *
  20:Drivers/CMSIS/DSP/Source/StatisticsFunctions/arm_min_q31.c ****  * www.apache.org/licenses/LICENSE-2.0
  21:Drivers/CMSIS/DSP/Source/StatisticsFunctions/arm_min_q31.c ****  *
  22:Drivers/CMSIS/DSP/Source/StatisticsFunctions/arm_min_q31.c ****  * Unless required by applicable law or agreed to in writing, software
  23:Drivers/CMSIS/DSP/Source/StatisticsFunctions/arm_min_q31.c ****  * distributed under the License is distributed on an AS IS BASIS, WITHOUT
  24:Drivers/CMSIS/DSP/Source/StatisticsFunctions/arm_min_q31.c ****  * WARRANTIES OR CONDITIONS OF ANY KIND, either express or implied.
  25:Drivers/CMSIS/DSP/Source/StatisticsFunctions/arm_min_q31.c ****  * See the License for the specific language governing permissions and
  26:Drivers/CMSIS/DSP/Source/StatisticsFunctions/arm_min_q31.c ****  * limitations under the License.
  27:Drivers/CMSIS/DSP/Source/StatisticsFunctions/arm_min_q31.c ****  */
  28:Drivers/CMSIS/DSP/Source/StatisticsFunctions/arm_min_q31.c **** 
  29:Drivers/CMSIS/DSP/Source/StatisticsFunctions/arm_min_q31.c **** #include "arm_math.h"
  30:Drivers/CMSIS/DSP/Source/StatisticsFunctions/arm_min_q31.c **** 
ARM GAS  /var/folders/n6/c271nzx11xl4r4_m7sqjlt0m0000gn/T//ccCFD2rk.s 			page 2


  31:Drivers/CMSIS/DSP/Source/StatisticsFunctions/arm_min_q31.c **** /**
  32:Drivers/CMSIS/DSP/Source/StatisticsFunctions/arm_min_q31.c ****  * @ingroup groupStats
  33:Drivers/CMSIS/DSP/Source/StatisticsFunctions/arm_min_q31.c ****  */
  34:Drivers/CMSIS/DSP/Source/StatisticsFunctions/arm_min_q31.c **** 
  35:Drivers/CMSIS/DSP/Source/StatisticsFunctions/arm_min_q31.c **** 
  36:Drivers/CMSIS/DSP/Source/StatisticsFunctions/arm_min_q31.c **** /**
  37:Drivers/CMSIS/DSP/Source/StatisticsFunctions/arm_min_q31.c ****  * @addtogroup Min
  38:Drivers/CMSIS/DSP/Source/StatisticsFunctions/arm_min_q31.c ****  * @{
  39:Drivers/CMSIS/DSP/Source/StatisticsFunctions/arm_min_q31.c ****  */
  40:Drivers/CMSIS/DSP/Source/StatisticsFunctions/arm_min_q31.c **** 
  41:Drivers/CMSIS/DSP/Source/StatisticsFunctions/arm_min_q31.c **** 
  42:Drivers/CMSIS/DSP/Source/StatisticsFunctions/arm_min_q31.c **** /**
  43:Drivers/CMSIS/DSP/Source/StatisticsFunctions/arm_min_q31.c ****  * @brief Minimum value of a Q31 vector.
  44:Drivers/CMSIS/DSP/Source/StatisticsFunctions/arm_min_q31.c ****  * @param[in]       *pSrc points to the input vector
  45:Drivers/CMSIS/DSP/Source/StatisticsFunctions/arm_min_q31.c ****  * @param[in]       blockSize length of the input vector
  46:Drivers/CMSIS/DSP/Source/StatisticsFunctions/arm_min_q31.c ****  * @param[out]      *pResult minimum value returned here
  47:Drivers/CMSIS/DSP/Source/StatisticsFunctions/arm_min_q31.c ****  * @param[out]      *pIndex index of minimum value returned here
  48:Drivers/CMSIS/DSP/Source/StatisticsFunctions/arm_min_q31.c ****  * @return none.
  49:Drivers/CMSIS/DSP/Source/StatisticsFunctions/arm_min_q31.c ****  */
  50:Drivers/CMSIS/DSP/Source/StatisticsFunctions/arm_min_q31.c **** 
  51:Drivers/CMSIS/DSP/Source/StatisticsFunctions/arm_min_q31.c **** void arm_min_q31(
  52:Drivers/CMSIS/DSP/Source/StatisticsFunctions/arm_min_q31.c ****   q31_t * pSrc,
  53:Drivers/CMSIS/DSP/Source/StatisticsFunctions/arm_min_q31.c ****   uint32_t blockSize,
  54:Drivers/CMSIS/DSP/Source/StatisticsFunctions/arm_min_q31.c ****   q31_t * pResult,
  55:Drivers/CMSIS/DSP/Source/StatisticsFunctions/arm_min_q31.c ****   uint32_t * pIndex)
  56:Drivers/CMSIS/DSP/Source/StatisticsFunctions/arm_min_q31.c **** {
  29              		.loc 1 56 1 view -0
  30              		.cfi_startproc
  31              		@ args = 0, pretend = 0, frame = 0
  32              		@ frame_needed = 0, uses_anonymous_args = 0
  33              		.loc 1 56 1 is_stmt 0 view .LVU1
  34 0000 2DE9F043 		push	{r4, r5, r6, r7, r8, r9, lr}
  35              		.cfi_def_cfa_offset 28
  36              		.cfi_offset 4, -28
  37              		.cfi_offset 5, -24
  38              		.cfi_offset 6, -20
  39              		.cfi_offset 7, -16
  40              		.cfi_offset 8, -12
  41              		.cfi_offset 9, -8
  42              		.cfi_offset 14, -4
  43 0004 9146     		mov	r9, r2
  44 0006 9E46     		mov	lr, r3
  57:Drivers/CMSIS/DSP/Source/StatisticsFunctions/arm_min_q31.c **** #if defined (ARM_MATH_DSP)
  58:Drivers/CMSIS/DSP/Source/StatisticsFunctions/arm_min_q31.c ****   /* Run the below code for Cortex-M4 and Cortex-M3 */
  59:Drivers/CMSIS/DSP/Source/StatisticsFunctions/arm_min_q31.c **** 
  60:Drivers/CMSIS/DSP/Source/StatisticsFunctions/arm_min_q31.c ****   q31_t minVal1, minVal2, out;                   /* Temporary variables to store the output value. 
  45              		.loc 1 60 3 is_stmt 1 view .LVU2
  61:Drivers/CMSIS/DSP/Source/StatisticsFunctions/arm_min_q31.c ****   uint32_t blkCnt, outIndex, count;              /* loop counter */
  46              		.loc 1 61 3 view .LVU3
  62:Drivers/CMSIS/DSP/Source/StatisticsFunctions/arm_min_q31.c **** 
  63:Drivers/CMSIS/DSP/Source/StatisticsFunctions/arm_min_q31.c ****   /* Initialise the count value. */
  64:Drivers/CMSIS/DSP/Source/StatisticsFunctions/arm_min_q31.c ****   count = 0U;
  47              		.loc 1 64 3 view .LVU4
  48              	.LVL1:
  65:Drivers/CMSIS/DSP/Source/StatisticsFunctions/arm_min_q31.c ****   /* Initialise the index value to zero. */
  66:Drivers/CMSIS/DSP/Source/StatisticsFunctions/arm_min_q31.c ****   outIndex = 0U;
  49              		.loc 1 66 3 view .LVU5
ARM GAS  /var/folders/n6/c271nzx11xl4r4_m7sqjlt0m0000gn/T//ccCFD2rk.s 			page 3


  67:Drivers/CMSIS/DSP/Source/StatisticsFunctions/arm_min_q31.c ****   /* Load first input value that act as reference value for comparision */
  68:Drivers/CMSIS/DSP/Source/StatisticsFunctions/arm_min_q31.c ****   out = *pSrc++;
  50              		.loc 1 68 3 view .LVU6
  51              		.loc 1 68 7 is_stmt 0 view .LVU7
  52 0008 50F8044B 		ldr	r4, [r0], #4
  53              	.LVL2:
  69:Drivers/CMSIS/DSP/Source/StatisticsFunctions/arm_min_q31.c **** 
  70:Drivers/CMSIS/DSP/Source/StatisticsFunctions/arm_min_q31.c ****   /* Loop unrolling */
  71:Drivers/CMSIS/DSP/Source/StatisticsFunctions/arm_min_q31.c ****   blkCnt = (blockSize - 1U) >> 2U;
  54              		.loc 1 71 3 is_stmt 1 view .LVU8
  55              		.loc 1 71 23 is_stmt 0 view .LVU9
  56 000c 4D1E     		subs	r5, r1, #1
  57              		.loc 1 71 10 view .LVU10
  58 000e AE08     		lsrs	r6, r5, #2
  59              	.LVL3:
  72:Drivers/CMSIS/DSP/Source/StatisticsFunctions/arm_min_q31.c **** 
  73:Drivers/CMSIS/DSP/Source/StatisticsFunctions/arm_min_q31.c ****   while (blkCnt > 0U)
  60              		.loc 1 73 3 is_stmt 1 view .LVU11
  64:Drivers/CMSIS/DSP/Source/StatisticsFunctions/arm_min_q31.c ****   /* Initialise the index value to zero. */
  61              		.loc 1 64 9 is_stmt 0 view .LVU12
  62 0010 4FF0000C 		mov	ip, #0
  66:Drivers/CMSIS/DSP/Source/StatisticsFunctions/arm_min_q31.c ****   /* Load first input value that act as reference value for comparision */
  63              		.loc 1 66 12 view .LVU13
  64 0014 6746     		mov	r7, ip
  65              		.loc 1 73 9 view .LVU14
  66 0016 03E0     		b	.L2
  67              	.LVL4:
  68              	.L6:
  74:Drivers/CMSIS/DSP/Source/StatisticsFunctions/arm_min_q31.c ****   {
  75:Drivers/CMSIS/DSP/Source/StatisticsFunctions/arm_min_q31.c ****     /* Initialize minVal to the next consecutive values one by one */
  76:Drivers/CMSIS/DSP/Source/StatisticsFunctions/arm_min_q31.c ****     minVal1 = *pSrc++;
  77:Drivers/CMSIS/DSP/Source/StatisticsFunctions/arm_min_q31.c ****     minVal2 = *pSrc++;
  78:Drivers/CMSIS/DSP/Source/StatisticsFunctions/arm_min_q31.c **** 
  79:Drivers/CMSIS/DSP/Source/StatisticsFunctions/arm_min_q31.c ****     /* compare for the minimum value */
  80:Drivers/CMSIS/DSP/Source/StatisticsFunctions/arm_min_q31.c ****     if (out > minVal1)
  81:Drivers/CMSIS/DSP/Source/StatisticsFunctions/arm_min_q31.c ****     {
  82:Drivers/CMSIS/DSP/Source/StatisticsFunctions/arm_min_q31.c ****       /* Update the minimum value and its index */
  83:Drivers/CMSIS/DSP/Source/StatisticsFunctions/arm_min_q31.c ****       out = minVal1;
  84:Drivers/CMSIS/DSP/Source/StatisticsFunctions/arm_min_q31.c ****       outIndex = count + 1U;
  85:Drivers/CMSIS/DSP/Source/StatisticsFunctions/arm_min_q31.c ****     }
  86:Drivers/CMSIS/DSP/Source/StatisticsFunctions/arm_min_q31.c **** 
  87:Drivers/CMSIS/DSP/Source/StatisticsFunctions/arm_min_q31.c ****     /* compare for the minimum value */
  88:Drivers/CMSIS/DSP/Source/StatisticsFunctions/arm_min_q31.c ****     if (out > minVal2)
  89:Drivers/CMSIS/DSP/Source/StatisticsFunctions/arm_min_q31.c ****     {
  90:Drivers/CMSIS/DSP/Source/StatisticsFunctions/arm_min_q31.c ****       /* Update the minimum value and its index */
  91:Drivers/CMSIS/DSP/Source/StatisticsFunctions/arm_min_q31.c ****       out = minVal2;
  92:Drivers/CMSIS/DSP/Source/StatisticsFunctions/arm_min_q31.c ****       outIndex = count + 2U;
  93:Drivers/CMSIS/DSP/Source/StatisticsFunctions/arm_min_q31.c ****     }
  94:Drivers/CMSIS/DSP/Source/StatisticsFunctions/arm_min_q31.c **** 
  95:Drivers/CMSIS/DSP/Source/StatisticsFunctions/arm_min_q31.c ****     /* Initialize minVal to the next consecutive values one by one */
  96:Drivers/CMSIS/DSP/Source/StatisticsFunctions/arm_min_q31.c ****     minVal1 = *pSrc++;
  97:Drivers/CMSIS/DSP/Source/StatisticsFunctions/arm_min_q31.c ****     minVal2 = *pSrc++;
  98:Drivers/CMSIS/DSP/Source/StatisticsFunctions/arm_min_q31.c **** 
  99:Drivers/CMSIS/DSP/Source/StatisticsFunctions/arm_min_q31.c ****     /* compare for the minimum value */
 100:Drivers/CMSIS/DSP/Source/StatisticsFunctions/arm_min_q31.c ****     if (out > minVal1)
 101:Drivers/CMSIS/DSP/Source/StatisticsFunctions/arm_min_q31.c ****     {
 102:Drivers/CMSIS/DSP/Source/StatisticsFunctions/arm_min_q31.c ****       /* Update the minimum value and its index */
ARM GAS  /var/folders/n6/c271nzx11xl4r4_m7sqjlt0m0000gn/T//ccCFD2rk.s 			page 4


 103:Drivers/CMSIS/DSP/Source/StatisticsFunctions/arm_min_q31.c ****       out = minVal1;
 104:Drivers/CMSIS/DSP/Source/StatisticsFunctions/arm_min_q31.c ****       outIndex = count + 3U;
 105:Drivers/CMSIS/DSP/Source/StatisticsFunctions/arm_min_q31.c ****     }
 106:Drivers/CMSIS/DSP/Source/StatisticsFunctions/arm_min_q31.c **** 
 107:Drivers/CMSIS/DSP/Source/StatisticsFunctions/arm_min_q31.c ****     /* compare for the minimum value */
 108:Drivers/CMSIS/DSP/Source/StatisticsFunctions/arm_min_q31.c ****     if (out > minVal2)
 109:Drivers/CMSIS/DSP/Source/StatisticsFunctions/arm_min_q31.c ****     {
 110:Drivers/CMSIS/DSP/Source/StatisticsFunctions/arm_min_q31.c ****       /* Update the minimum value and its index */
 111:Drivers/CMSIS/DSP/Source/StatisticsFunctions/arm_min_q31.c ****       out = minVal2;
 112:Drivers/CMSIS/DSP/Source/StatisticsFunctions/arm_min_q31.c ****       outIndex = count + 4U;
 113:Drivers/CMSIS/DSP/Source/StatisticsFunctions/arm_min_q31.c ****     }
 114:Drivers/CMSIS/DSP/Source/StatisticsFunctions/arm_min_q31.c **** 
 115:Drivers/CMSIS/DSP/Source/StatisticsFunctions/arm_min_q31.c ****     count += 4U;
  69              		.loc 1 115 5 is_stmt 1 view .LVU15
  70              		.loc 1 115 11 is_stmt 0 view .LVU16
  71 0018 0CF1040C 		add	ip, ip, #4
  72              	.LVL5:
 116:Drivers/CMSIS/DSP/Source/StatisticsFunctions/arm_min_q31.c **** 
 117:Drivers/CMSIS/DSP/Source/StatisticsFunctions/arm_min_q31.c ****     /* Decrement the loop counter */
 118:Drivers/CMSIS/DSP/Source/StatisticsFunctions/arm_min_q31.c ****     blkCnt--;
  73              		.loc 1 118 5 is_stmt 1 view .LVU17
  74              		.loc 1 118 11 is_stmt 0 view .LVU18
  75 001c 013E     		subs	r6, r6, #1
  76              	.LVL6:
  97:Drivers/CMSIS/DSP/Source/StatisticsFunctions/arm_min_q31.c **** 
  77              		.loc 1 97 20 view .LVU19
  78 001e 4046     		mov	r0, r8
  79              	.LVL7:
  80              	.L2:
  73:Drivers/CMSIS/DSP/Source/StatisticsFunctions/arm_min_q31.c ****   {
  81              		.loc 1 73 17 is_stmt 1 view .LVU20
  82 0020 D6B1     		cbz	r6, .L12
  76:Drivers/CMSIS/DSP/Source/StatisticsFunctions/arm_min_q31.c ****     minVal2 = *pSrc++;
  83              		.loc 1 76 5 view .LVU21
  84              	.LVL8:
  76:Drivers/CMSIS/DSP/Source/StatisticsFunctions/arm_min_q31.c ****     minVal2 = *pSrc++;
  85              		.loc 1 76 13 is_stmt 0 view .LVU22
  86 0022 0268     		ldr	r2, [r0]
  87              	.LVL9:
  77:Drivers/CMSIS/DSP/Source/StatisticsFunctions/arm_min_q31.c **** 
  88              		.loc 1 77 5 is_stmt 1 view .LVU23
  77:Drivers/CMSIS/DSP/Source/StatisticsFunctions/arm_min_q31.c **** 
  89              		.loc 1 77 13 is_stmt 0 view .LVU24
  90 0024 4368     		ldr	r3, [r0, #4]
  91              	.LVL10:
  80:Drivers/CMSIS/DSP/Source/StatisticsFunctions/arm_min_q31.c ****     {
  92              		.loc 1 80 5 is_stmt 1 view .LVU25
  80:Drivers/CMSIS/DSP/Source/StatisticsFunctions/arm_min_q31.c ****     {
  93              		.loc 1 80 8 is_stmt 0 view .LVU26
  94 0026 9442     		cmp	r4, r2
  95 0028 02DD     		ble	.L3
  83:Drivers/CMSIS/DSP/Source/StatisticsFunctions/arm_min_q31.c ****       outIndex = count + 1U;
  96              		.loc 1 83 7 is_stmt 1 view .LVU27
  97              	.LVL11:
  84:Drivers/CMSIS/DSP/Source/StatisticsFunctions/arm_min_q31.c ****     }
  98              		.loc 1 84 7 view .LVU28
  84:Drivers/CMSIS/DSP/Source/StatisticsFunctions/arm_min_q31.c ****     }
ARM GAS  /var/folders/n6/c271nzx11xl4r4_m7sqjlt0m0000gn/T//ccCFD2rk.s 			page 5


  99              		.loc 1 84 16 is_stmt 0 view .LVU29
 100 002a 0CF10107 		add	r7, ip, #1
 101              	.LVL12:
  83:Drivers/CMSIS/DSP/Source/StatisticsFunctions/arm_min_q31.c ****       outIndex = count + 1U;
 102              		.loc 1 83 11 view .LVU30
 103 002e 1446     		mov	r4, r2
 104              	.LVL13:
 105              	.L3:
  88:Drivers/CMSIS/DSP/Source/StatisticsFunctions/arm_min_q31.c ****     {
 106              		.loc 1 88 5 is_stmt 1 view .LVU31
  88:Drivers/CMSIS/DSP/Source/StatisticsFunctions/arm_min_q31.c ****     {
 107              		.loc 1 88 8 is_stmt 0 view .LVU32
 108 0030 9C42     		cmp	r4, r3
 109 0032 02DD     		ble	.L4
  91:Drivers/CMSIS/DSP/Source/StatisticsFunctions/arm_min_q31.c ****       outIndex = count + 2U;
 110              		.loc 1 91 7 is_stmt 1 view .LVU33
 111              	.LVL14:
  92:Drivers/CMSIS/DSP/Source/StatisticsFunctions/arm_min_q31.c ****     }
 112              		.loc 1 92 7 view .LVU34
  92:Drivers/CMSIS/DSP/Source/StatisticsFunctions/arm_min_q31.c ****     }
 113              		.loc 1 92 16 is_stmt 0 view .LVU35
 114 0034 0CF10207 		add	r7, ip, #2
 115              	.LVL15:
  91:Drivers/CMSIS/DSP/Source/StatisticsFunctions/arm_min_q31.c ****       outIndex = count + 2U;
 116              		.loc 1 91 11 view .LVU36
 117 0038 1C46     		mov	r4, r3
 118              	.LVL16:
 119              	.L4:
  96:Drivers/CMSIS/DSP/Source/StatisticsFunctions/arm_min_q31.c ****     minVal2 = *pSrc++;
 120              		.loc 1 96 5 is_stmt 1 view .LVU37
  96:Drivers/CMSIS/DSP/Source/StatisticsFunctions/arm_min_q31.c ****     minVal2 = *pSrc++;
 121              		.loc 1 96 13 is_stmt 0 view .LVU38
 122 003a 8368     		ldr	r3, [r0, #8]
 123              	.LVL17:
  97:Drivers/CMSIS/DSP/Source/StatisticsFunctions/arm_min_q31.c **** 
 124              		.loc 1 97 5 is_stmt 1 view .LVU39
  97:Drivers/CMSIS/DSP/Source/StatisticsFunctions/arm_min_q31.c **** 
 125              		.loc 1 97 20 is_stmt 0 view .LVU40
 126 003c 00F11008 		add	r8, r0, #16
 127              	.LVL18:
  97:Drivers/CMSIS/DSP/Source/StatisticsFunctions/arm_min_q31.c **** 
 128              		.loc 1 97 13 view .LVU41
 129 0040 C068     		ldr	r0, [r0, #12]
 130              	.LVL19:
 100:Drivers/CMSIS/DSP/Source/StatisticsFunctions/arm_min_q31.c ****     {
 131              		.loc 1 100 5 is_stmt 1 view .LVU42
 100:Drivers/CMSIS/DSP/Source/StatisticsFunctions/arm_min_q31.c ****     {
 132              		.loc 1 100 8 is_stmt 0 view .LVU43
 133 0042 9C42     		cmp	r4, r3
 134 0044 02DD     		ble	.L5
 103:Drivers/CMSIS/DSP/Source/StatisticsFunctions/arm_min_q31.c ****       outIndex = count + 3U;
 135              		.loc 1 103 7 is_stmt 1 view .LVU44
 136              	.LVL20:
 104:Drivers/CMSIS/DSP/Source/StatisticsFunctions/arm_min_q31.c ****     }
 137              		.loc 1 104 7 view .LVU45
 104:Drivers/CMSIS/DSP/Source/StatisticsFunctions/arm_min_q31.c ****     }
 138              		.loc 1 104 16 is_stmt 0 view .LVU46
ARM GAS  /var/folders/n6/c271nzx11xl4r4_m7sqjlt0m0000gn/T//ccCFD2rk.s 			page 6


 139 0046 0CF10307 		add	r7, ip, #3
 140              	.LVL21:
 103:Drivers/CMSIS/DSP/Source/StatisticsFunctions/arm_min_q31.c ****       outIndex = count + 3U;
 141              		.loc 1 103 11 view .LVU47
 142 004a 1C46     		mov	r4, r3
 143              	.LVL22:
 144              	.L5:
 108:Drivers/CMSIS/DSP/Source/StatisticsFunctions/arm_min_q31.c ****     {
 145              		.loc 1 108 5 is_stmt 1 view .LVU48
 108:Drivers/CMSIS/DSP/Source/StatisticsFunctions/arm_min_q31.c ****     {
 146              		.loc 1 108 8 is_stmt 0 view .LVU49
 147 004c 8442     		cmp	r4, r0
 148 004e E3DD     		ble	.L6
 111:Drivers/CMSIS/DSP/Source/StatisticsFunctions/arm_min_q31.c ****       outIndex = count + 4U;
 149              		.loc 1 111 7 is_stmt 1 view .LVU50
 150              	.LVL23:
 112:Drivers/CMSIS/DSP/Source/StatisticsFunctions/arm_min_q31.c ****     }
 151              		.loc 1 112 7 view .LVU51
 112:Drivers/CMSIS/DSP/Source/StatisticsFunctions/arm_min_q31.c ****     }
 152              		.loc 1 112 16 is_stmt 0 view .LVU52
 153 0050 0CF10407 		add	r7, ip, #4
 154              	.LVL24:
 111:Drivers/CMSIS/DSP/Source/StatisticsFunctions/arm_min_q31.c ****       outIndex = count + 4U;
 155              		.loc 1 111 11 view .LVU53
 156 0054 0446     		mov	r4, r0
 157 0056 DFE7     		b	.L6
 158              	.LVL25:
 159              	.L12:
 119:Drivers/CMSIS/DSP/Source/StatisticsFunctions/arm_min_q31.c ****   }
 120:Drivers/CMSIS/DSP/Source/StatisticsFunctions/arm_min_q31.c **** 
 121:Drivers/CMSIS/DSP/Source/StatisticsFunctions/arm_min_q31.c ****   /* if (blockSize - 1U) is not multiple of 4 */
 122:Drivers/CMSIS/DSP/Source/StatisticsFunctions/arm_min_q31.c ****   blkCnt = (blockSize - 1U) % 4U;
 160              		.loc 1 122 3 is_stmt 1 view .LVU54
 161              		.loc 1 122 10 is_stmt 0 view .LVU55
 162 0058 05F00305 		and	r5, r5, #3
 163              	.LVL26:
 123:Drivers/CMSIS/DSP/Source/StatisticsFunctions/arm_min_q31.c **** 
 124:Drivers/CMSIS/DSP/Source/StatisticsFunctions/arm_min_q31.c **** #else
 125:Drivers/CMSIS/DSP/Source/StatisticsFunctions/arm_min_q31.c ****   /* Run the below code for Cortex-M0 */
 126:Drivers/CMSIS/DSP/Source/StatisticsFunctions/arm_min_q31.c **** 
 127:Drivers/CMSIS/DSP/Source/StatisticsFunctions/arm_min_q31.c ****   q31_t minVal1, out;                            /* Temporary variables to store the output value. 
 128:Drivers/CMSIS/DSP/Source/StatisticsFunctions/arm_min_q31.c ****   uint32_t blkCnt, outIndex;                     /* loop counter */
 129:Drivers/CMSIS/DSP/Source/StatisticsFunctions/arm_min_q31.c **** 
 130:Drivers/CMSIS/DSP/Source/StatisticsFunctions/arm_min_q31.c ****   /* Initialise the index value to zero. */
 131:Drivers/CMSIS/DSP/Source/StatisticsFunctions/arm_min_q31.c ****   outIndex = 0U;
 132:Drivers/CMSIS/DSP/Source/StatisticsFunctions/arm_min_q31.c ****   /* Load first input value that act as reference value for comparision */
 133:Drivers/CMSIS/DSP/Source/StatisticsFunctions/arm_min_q31.c ****   out = *pSrc++;
 134:Drivers/CMSIS/DSP/Source/StatisticsFunctions/arm_min_q31.c **** 
 135:Drivers/CMSIS/DSP/Source/StatisticsFunctions/arm_min_q31.c ****   blkCnt = (blockSize - 1U);
 136:Drivers/CMSIS/DSP/Source/StatisticsFunctions/arm_min_q31.c **** 
 137:Drivers/CMSIS/DSP/Source/StatisticsFunctions/arm_min_q31.c **** #endif /* #if defined (ARM_MATH_DSP) */
 138:Drivers/CMSIS/DSP/Source/StatisticsFunctions/arm_min_q31.c **** 
 139:Drivers/CMSIS/DSP/Source/StatisticsFunctions/arm_min_q31.c ****   while (blkCnt > 0U)
 164              		.loc 1 139 3 is_stmt 1 view .LVU56
 165              		.loc 1 139 9 is_stmt 0 view .LVU57
 166 005c 00E0     		b	.L8
 167              	.LVL27:
ARM GAS  /var/folders/n6/c271nzx11xl4r4_m7sqjlt0m0000gn/T//ccCFD2rk.s 			page 7


 168              	.L9:
 140:Drivers/CMSIS/DSP/Source/StatisticsFunctions/arm_min_q31.c ****   {
 141:Drivers/CMSIS/DSP/Source/StatisticsFunctions/arm_min_q31.c ****     /* Initialize minVal to the next consecutive values one by one */
 142:Drivers/CMSIS/DSP/Source/StatisticsFunctions/arm_min_q31.c ****     minVal1 = *pSrc++;
 143:Drivers/CMSIS/DSP/Source/StatisticsFunctions/arm_min_q31.c **** 
 144:Drivers/CMSIS/DSP/Source/StatisticsFunctions/arm_min_q31.c ****     /* compare for the minimum value */
 145:Drivers/CMSIS/DSP/Source/StatisticsFunctions/arm_min_q31.c ****     if (out > minVal1)
 146:Drivers/CMSIS/DSP/Source/StatisticsFunctions/arm_min_q31.c ****     {
 147:Drivers/CMSIS/DSP/Source/StatisticsFunctions/arm_min_q31.c ****       /* Update the minimum value and it's index */
 148:Drivers/CMSIS/DSP/Source/StatisticsFunctions/arm_min_q31.c ****       out = minVal1;
 149:Drivers/CMSIS/DSP/Source/StatisticsFunctions/arm_min_q31.c ****       outIndex = blockSize - blkCnt;
 150:Drivers/CMSIS/DSP/Source/StatisticsFunctions/arm_min_q31.c ****     }
 151:Drivers/CMSIS/DSP/Source/StatisticsFunctions/arm_min_q31.c **** 
 152:Drivers/CMSIS/DSP/Source/StatisticsFunctions/arm_min_q31.c ****     /* Decrement the loop counter */
 153:Drivers/CMSIS/DSP/Source/StatisticsFunctions/arm_min_q31.c ****     blkCnt--;
 169              		.loc 1 153 5 is_stmt 1 view .LVU58
 170              		.loc 1 153 11 is_stmt 0 view .LVU59
 171 005e 013D     		subs	r5, r5, #1
 172              	.LVL28:
 173              	.L8:
 139:Drivers/CMSIS/DSP/Source/StatisticsFunctions/arm_min_q31.c ****   {
 174              		.loc 1 139 17 is_stmt 1 view .LVU60
 175 0060 35B1     		cbz	r5, .L13
 142:Drivers/CMSIS/DSP/Source/StatisticsFunctions/arm_min_q31.c **** 
 176              		.loc 1 142 5 view .LVU61
 177              	.LVL29:
 142:Drivers/CMSIS/DSP/Source/StatisticsFunctions/arm_min_q31.c **** 
 178              		.loc 1 142 13 is_stmt 0 view .LVU62
 179 0062 50F8046B 		ldr	r6, [r0], #4
 180              	.LVL30:
 145:Drivers/CMSIS/DSP/Source/StatisticsFunctions/arm_min_q31.c ****     {
 181              		.loc 1 145 5 is_stmt 1 view .LVU63
 145:Drivers/CMSIS/DSP/Source/StatisticsFunctions/arm_min_q31.c ****     {
 182              		.loc 1 145 8 is_stmt 0 view .LVU64
 183 0066 B442     		cmp	r4, r6
 184 0068 F9DD     		ble	.L9
 148:Drivers/CMSIS/DSP/Source/StatisticsFunctions/arm_min_q31.c ****       outIndex = blockSize - blkCnt;
 185              		.loc 1 148 7 is_stmt 1 view .LVU65
 186              	.LVL31:
 149:Drivers/CMSIS/DSP/Source/StatisticsFunctions/arm_min_q31.c ****     }
 187              		.loc 1 149 7 view .LVU66
 149:Drivers/CMSIS/DSP/Source/StatisticsFunctions/arm_min_q31.c ****     }
 188              		.loc 1 149 16 is_stmt 0 view .LVU67
 189 006a 4F1B     		subs	r7, r1, r5
 190              	.LVL32:
 148:Drivers/CMSIS/DSP/Source/StatisticsFunctions/arm_min_q31.c ****       outIndex = blockSize - blkCnt;
 191              		.loc 1 148 11 view .LVU68
 192 006c 3446     		mov	r4, r6
 193 006e F6E7     		b	.L9
 194              	.LVL33:
 195              	.L13:
 154:Drivers/CMSIS/DSP/Source/StatisticsFunctions/arm_min_q31.c ****   }
 155:Drivers/CMSIS/DSP/Source/StatisticsFunctions/arm_min_q31.c **** 
 156:Drivers/CMSIS/DSP/Source/StatisticsFunctions/arm_min_q31.c ****   /* Store the minimum value and it's index into destination pointers */
 157:Drivers/CMSIS/DSP/Source/StatisticsFunctions/arm_min_q31.c ****   *pResult = out;
 196              		.loc 1 157 3 is_stmt 1 view .LVU69
 197              		.loc 1 157 12 is_stmt 0 view .LVU70
ARM GAS  /var/folders/n6/c271nzx11xl4r4_m7sqjlt0m0000gn/T//ccCFD2rk.s 			page 8


 198 0070 C9F80040 		str	r4, [r9]
 158:Drivers/CMSIS/DSP/Source/StatisticsFunctions/arm_min_q31.c ****   *pIndex = outIndex;
 199              		.loc 1 158 3 is_stmt 1 view .LVU71
 200              		.loc 1 158 11 is_stmt 0 view .LVU72
 201 0074 CEF80070 		str	r7, [lr]
 159:Drivers/CMSIS/DSP/Source/StatisticsFunctions/arm_min_q31.c **** }
 202              		.loc 1 159 1 view .LVU73
 203 0078 BDE8F083 		pop	{r4, r5, r6, r7, r8, r9, pc}
 204              		.loc 1 159 1 view .LVU74
 205              		.cfi_endproc
 206              	.LFE135:
 208              		.text
 209              	.Letext0:
 210              		.file 2 "/Users/killian/Library/Application Support/Code/User/globalStorage/bmd.stm32-for-vscode/@
 211              		.file 3 "/Users/killian/Library/Application Support/Code/User/globalStorage/bmd.stm32-for-vscode/@
 212              		.file 4 "Drivers/CMSIS/DSP/Include/arm_math.h"
ARM GAS  /var/folders/n6/c271nzx11xl4r4_m7sqjlt0m0000gn/T//ccCFD2rk.s 			page 9

