ARM GAS  /var/folders/n6/c271nzx11xl4r4_m7sqjlt0m0000gn/T//ccklmIMk.s 			page 1


   1              		.cpu cortex-m7
   2              		.arch armv7e-m
   3              		.fpu fpv5-d16
   4              		.eabi_attribute 28, 1
   5              		.eabi_attribute 20, 1
   6              		.eabi_attribute 21, 1
   7              		.eabi_attribute 23, 3
   8              		.eabi_attribute 24, 1
   9              		.eabi_attribute 25, 1
  10              		.eabi_attribute 26, 1
  11              		.eabi_attribute 30, 1
  12              		.eabi_attribute 34, 1
  13              		.eabi_attribute 18, 4
  14              		.file	"arm_cmplx_mult_cmplx_f32.c"
  15              		.text
  16              	.Ltext0:
  17              		.cfi_sections	.debug_frame
  18              		.file 1 "Drivers/CMSIS/DSP/Source/ComplexMathFunctions/arm_cmplx_mult_cmplx_f32.c"
  19              		.section	.text.arm_cmplx_mult_cmplx_f32,"ax",%progbits
  20              		.align	1
  21              		.global	arm_cmplx_mult_cmplx_f32
  22              		.syntax unified
  23              		.thumb
  24              		.thumb_func
  26              	arm_cmplx_mult_cmplx_f32:
  27              	.LVL0:
  28              	.LFB135:
   1:Drivers/CMSIS/DSP/Source/ComplexMathFunctions/arm_cmplx_mult_cmplx_f32.c **** /* ----------------------------------------------------------------------
   2:Drivers/CMSIS/DSP/Source/ComplexMathFunctions/arm_cmplx_mult_cmplx_f32.c ****  * Project:      CMSIS DSP Library
   3:Drivers/CMSIS/DSP/Source/ComplexMathFunctions/arm_cmplx_mult_cmplx_f32.c ****  * Title:        arm_cmplx_mult_cmplx_f32.c
   4:Drivers/CMSIS/DSP/Source/ComplexMathFunctions/arm_cmplx_mult_cmplx_f32.c ****  * Description:  Floating-point complex-by-complex multiplication
   5:Drivers/CMSIS/DSP/Source/ComplexMathFunctions/arm_cmplx_mult_cmplx_f32.c ****  *
   6:Drivers/CMSIS/DSP/Source/ComplexMathFunctions/arm_cmplx_mult_cmplx_f32.c ****  * $Date:        27. January 2017
   7:Drivers/CMSIS/DSP/Source/ComplexMathFunctions/arm_cmplx_mult_cmplx_f32.c ****  * $Revision:    V.1.5.1
   8:Drivers/CMSIS/DSP/Source/ComplexMathFunctions/arm_cmplx_mult_cmplx_f32.c ****  *
   9:Drivers/CMSIS/DSP/Source/ComplexMathFunctions/arm_cmplx_mult_cmplx_f32.c ****  * Target Processor: Cortex-M cores
  10:Drivers/CMSIS/DSP/Source/ComplexMathFunctions/arm_cmplx_mult_cmplx_f32.c ****  * -------------------------------------------------------------------- */
  11:Drivers/CMSIS/DSP/Source/ComplexMathFunctions/arm_cmplx_mult_cmplx_f32.c **** /*
  12:Drivers/CMSIS/DSP/Source/ComplexMathFunctions/arm_cmplx_mult_cmplx_f32.c ****  * Copyright (C) 2010-2017 ARM Limited or its affiliates. All rights reserved.
  13:Drivers/CMSIS/DSP/Source/ComplexMathFunctions/arm_cmplx_mult_cmplx_f32.c ****  *
  14:Drivers/CMSIS/DSP/Source/ComplexMathFunctions/arm_cmplx_mult_cmplx_f32.c ****  * SPDX-License-Identifier: Apache-2.0
  15:Drivers/CMSIS/DSP/Source/ComplexMathFunctions/arm_cmplx_mult_cmplx_f32.c ****  *
  16:Drivers/CMSIS/DSP/Source/ComplexMathFunctions/arm_cmplx_mult_cmplx_f32.c ****  * Licensed under the Apache License, Version 2.0 (the License); you may
  17:Drivers/CMSIS/DSP/Source/ComplexMathFunctions/arm_cmplx_mult_cmplx_f32.c ****  * not use this file except in compliance with the License.
  18:Drivers/CMSIS/DSP/Source/ComplexMathFunctions/arm_cmplx_mult_cmplx_f32.c ****  * You may obtain a copy of the License at
  19:Drivers/CMSIS/DSP/Source/ComplexMathFunctions/arm_cmplx_mult_cmplx_f32.c ****  *
  20:Drivers/CMSIS/DSP/Source/ComplexMathFunctions/arm_cmplx_mult_cmplx_f32.c ****  * www.apache.org/licenses/LICENSE-2.0
  21:Drivers/CMSIS/DSP/Source/ComplexMathFunctions/arm_cmplx_mult_cmplx_f32.c ****  *
  22:Drivers/CMSIS/DSP/Source/ComplexMathFunctions/arm_cmplx_mult_cmplx_f32.c ****  * Unless required by applicable law or agreed to in writing, software
  23:Drivers/CMSIS/DSP/Source/ComplexMathFunctions/arm_cmplx_mult_cmplx_f32.c ****  * distributed under the License is distributed on an AS IS BASIS, WITHOUT
  24:Drivers/CMSIS/DSP/Source/ComplexMathFunctions/arm_cmplx_mult_cmplx_f32.c ****  * WARRANTIES OR CONDITIONS OF ANY KIND, either express or implied.
  25:Drivers/CMSIS/DSP/Source/ComplexMathFunctions/arm_cmplx_mult_cmplx_f32.c ****  * See the License for the specific language governing permissions and
  26:Drivers/CMSIS/DSP/Source/ComplexMathFunctions/arm_cmplx_mult_cmplx_f32.c ****  * limitations under the License.
  27:Drivers/CMSIS/DSP/Source/ComplexMathFunctions/arm_cmplx_mult_cmplx_f32.c ****  */
  28:Drivers/CMSIS/DSP/Source/ComplexMathFunctions/arm_cmplx_mult_cmplx_f32.c **** 
  29:Drivers/CMSIS/DSP/Source/ComplexMathFunctions/arm_cmplx_mult_cmplx_f32.c **** #include "arm_math.h"
  30:Drivers/CMSIS/DSP/Source/ComplexMathFunctions/arm_cmplx_mult_cmplx_f32.c **** 
ARM GAS  /var/folders/n6/c271nzx11xl4r4_m7sqjlt0m0000gn/T//ccklmIMk.s 			page 2


  31:Drivers/CMSIS/DSP/Source/ComplexMathFunctions/arm_cmplx_mult_cmplx_f32.c **** /**
  32:Drivers/CMSIS/DSP/Source/ComplexMathFunctions/arm_cmplx_mult_cmplx_f32.c ****  * @ingroup groupCmplxMath
  33:Drivers/CMSIS/DSP/Source/ComplexMathFunctions/arm_cmplx_mult_cmplx_f32.c ****  */
  34:Drivers/CMSIS/DSP/Source/ComplexMathFunctions/arm_cmplx_mult_cmplx_f32.c **** 
  35:Drivers/CMSIS/DSP/Source/ComplexMathFunctions/arm_cmplx_mult_cmplx_f32.c **** /**
  36:Drivers/CMSIS/DSP/Source/ComplexMathFunctions/arm_cmplx_mult_cmplx_f32.c ****  * @defgroup CmplxByCmplxMult Complex-by-Complex Multiplication
  37:Drivers/CMSIS/DSP/Source/ComplexMathFunctions/arm_cmplx_mult_cmplx_f32.c ****  *
  38:Drivers/CMSIS/DSP/Source/ComplexMathFunctions/arm_cmplx_mult_cmplx_f32.c ****  * Multiplies a complex vector by another complex vector and generates a complex result.
  39:Drivers/CMSIS/DSP/Source/ComplexMathFunctions/arm_cmplx_mult_cmplx_f32.c ****  * The data in the complex arrays is stored in an interleaved fashion
  40:Drivers/CMSIS/DSP/Source/ComplexMathFunctions/arm_cmplx_mult_cmplx_f32.c ****  * (real, imag, real, imag, ...).
  41:Drivers/CMSIS/DSP/Source/ComplexMathFunctions/arm_cmplx_mult_cmplx_f32.c ****  * The parameter <code>numSamples</code> represents the number of complex
  42:Drivers/CMSIS/DSP/Source/ComplexMathFunctions/arm_cmplx_mult_cmplx_f32.c ****  * samples processed.  The complex arrays have a total of <code>2*numSamples</code>
  43:Drivers/CMSIS/DSP/Source/ComplexMathFunctions/arm_cmplx_mult_cmplx_f32.c ****  * real values.
  44:Drivers/CMSIS/DSP/Source/ComplexMathFunctions/arm_cmplx_mult_cmplx_f32.c ****  *
  45:Drivers/CMSIS/DSP/Source/ComplexMathFunctions/arm_cmplx_mult_cmplx_f32.c ****  * The underlying algorithm is used:
  46:Drivers/CMSIS/DSP/Source/ComplexMathFunctions/arm_cmplx_mult_cmplx_f32.c ****  *
  47:Drivers/CMSIS/DSP/Source/ComplexMathFunctions/arm_cmplx_mult_cmplx_f32.c ****  * <pre>
  48:Drivers/CMSIS/DSP/Source/ComplexMathFunctions/arm_cmplx_mult_cmplx_f32.c ****  * for(n=0; n<numSamples; n++) {
  49:Drivers/CMSIS/DSP/Source/ComplexMathFunctions/arm_cmplx_mult_cmplx_f32.c ****  *     pDst[(2*n)+0] = pSrcA[(2*n)+0] * pSrcB[(2*n)+0] - pSrcA[(2*n)+1] * pSrcB[(2*n)+1];
  50:Drivers/CMSIS/DSP/Source/ComplexMathFunctions/arm_cmplx_mult_cmplx_f32.c ****  *     pDst[(2*n)+1] = pSrcA[(2*n)+0] * pSrcB[(2*n)+1] + pSrcA[(2*n)+1] * pSrcB[(2*n)+0];
  51:Drivers/CMSIS/DSP/Source/ComplexMathFunctions/arm_cmplx_mult_cmplx_f32.c ****  * }
  52:Drivers/CMSIS/DSP/Source/ComplexMathFunctions/arm_cmplx_mult_cmplx_f32.c ****  * </pre>
  53:Drivers/CMSIS/DSP/Source/ComplexMathFunctions/arm_cmplx_mult_cmplx_f32.c ****  *
  54:Drivers/CMSIS/DSP/Source/ComplexMathFunctions/arm_cmplx_mult_cmplx_f32.c ****  * There are separate functions for floating-point, Q15, and Q31 data types.
  55:Drivers/CMSIS/DSP/Source/ComplexMathFunctions/arm_cmplx_mult_cmplx_f32.c ****  */
  56:Drivers/CMSIS/DSP/Source/ComplexMathFunctions/arm_cmplx_mult_cmplx_f32.c **** 
  57:Drivers/CMSIS/DSP/Source/ComplexMathFunctions/arm_cmplx_mult_cmplx_f32.c **** /**
  58:Drivers/CMSIS/DSP/Source/ComplexMathFunctions/arm_cmplx_mult_cmplx_f32.c ****  * @addtogroup CmplxByCmplxMult
  59:Drivers/CMSIS/DSP/Source/ComplexMathFunctions/arm_cmplx_mult_cmplx_f32.c ****  * @{
  60:Drivers/CMSIS/DSP/Source/ComplexMathFunctions/arm_cmplx_mult_cmplx_f32.c ****  */
  61:Drivers/CMSIS/DSP/Source/ComplexMathFunctions/arm_cmplx_mult_cmplx_f32.c **** 
  62:Drivers/CMSIS/DSP/Source/ComplexMathFunctions/arm_cmplx_mult_cmplx_f32.c **** 
  63:Drivers/CMSIS/DSP/Source/ComplexMathFunctions/arm_cmplx_mult_cmplx_f32.c **** /**
  64:Drivers/CMSIS/DSP/Source/ComplexMathFunctions/arm_cmplx_mult_cmplx_f32.c ****  * @brief  Floating-point complex-by-complex multiplication
  65:Drivers/CMSIS/DSP/Source/ComplexMathFunctions/arm_cmplx_mult_cmplx_f32.c ****  * @param[in]  *pSrcA points to the first input vector
  66:Drivers/CMSIS/DSP/Source/ComplexMathFunctions/arm_cmplx_mult_cmplx_f32.c ****  * @param[in]  *pSrcB points to the second input vector
  67:Drivers/CMSIS/DSP/Source/ComplexMathFunctions/arm_cmplx_mult_cmplx_f32.c ****  * @param[out]  *pDst  points to the output vector
  68:Drivers/CMSIS/DSP/Source/ComplexMathFunctions/arm_cmplx_mult_cmplx_f32.c ****  * @param[in]  numSamples number of complex samples in each vector
  69:Drivers/CMSIS/DSP/Source/ComplexMathFunctions/arm_cmplx_mult_cmplx_f32.c ****  * @return none.
  70:Drivers/CMSIS/DSP/Source/ComplexMathFunctions/arm_cmplx_mult_cmplx_f32.c ****  */
  71:Drivers/CMSIS/DSP/Source/ComplexMathFunctions/arm_cmplx_mult_cmplx_f32.c **** 
  72:Drivers/CMSIS/DSP/Source/ComplexMathFunctions/arm_cmplx_mult_cmplx_f32.c **** void arm_cmplx_mult_cmplx_f32(
  73:Drivers/CMSIS/DSP/Source/ComplexMathFunctions/arm_cmplx_mult_cmplx_f32.c ****   float32_t * pSrcA,
  74:Drivers/CMSIS/DSP/Source/ComplexMathFunctions/arm_cmplx_mult_cmplx_f32.c ****   float32_t * pSrcB,
  75:Drivers/CMSIS/DSP/Source/ComplexMathFunctions/arm_cmplx_mult_cmplx_f32.c ****   float32_t * pDst,
  76:Drivers/CMSIS/DSP/Source/ComplexMathFunctions/arm_cmplx_mult_cmplx_f32.c ****   uint32_t numSamples)
  77:Drivers/CMSIS/DSP/Source/ComplexMathFunctions/arm_cmplx_mult_cmplx_f32.c **** {
  29              		.loc 1 77 1 view -0
  30              		.cfi_startproc
  31              		@ args = 0, pretend = 0, frame = 0
  32              		@ frame_needed = 0, uses_anonymous_args = 0
  33              		@ link register save eliminated.
  34              		.loc 1 77 1 is_stmt 0 view .LVU1
  35 0000 10B4     		push	{r4}
  36              		.cfi_def_cfa_offset 4
  37              		.cfi_offset 4, -4
  78:Drivers/CMSIS/DSP/Source/ComplexMathFunctions/arm_cmplx_mult_cmplx_f32.c ****   float32_t a1, b1, c1, d1;                      /* Temporary variables to store real and imaginary
ARM GAS  /var/folders/n6/c271nzx11xl4r4_m7sqjlt0m0000gn/T//ccklmIMk.s 			page 3


  38              		.loc 1 78 3 is_stmt 1 view .LVU2
  79:Drivers/CMSIS/DSP/Source/ComplexMathFunctions/arm_cmplx_mult_cmplx_f32.c ****   uint32_t blkCnt;                               /* loop counters */
  39              		.loc 1 79 3 view .LVU3
  80:Drivers/CMSIS/DSP/Source/ComplexMathFunctions/arm_cmplx_mult_cmplx_f32.c **** 
  81:Drivers/CMSIS/DSP/Source/ComplexMathFunctions/arm_cmplx_mult_cmplx_f32.c **** #if defined (ARM_MATH_DSP)
  82:Drivers/CMSIS/DSP/Source/ComplexMathFunctions/arm_cmplx_mult_cmplx_f32.c **** 
  83:Drivers/CMSIS/DSP/Source/ComplexMathFunctions/arm_cmplx_mult_cmplx_f32.c ****   /* Run the below code for Cortex-M4 and Cortex-M3 */
  84:Drivers/CMSIS/DSP/Source/ComplexMathFunctions/arm_cmplx_mult_cmplx_f32.c ****   float32_t a2, b2, c2, d2;                      /* Temporary variables to store real and imaginary
  40              		.loc 1 84 3 view .LVU4
  85:Drivers/CMSIS/DSP/Source/ComplexMathFunctions/arm_cmplx_mult_cmplx_f32.c ****   float32_t acc1, acc2, acc3, acc4;
  41              		.loc 1 85 3 view .LVU5
  86:Drivers/CMSIS/DSP/Source/ComplexMathFunctions/arm_cmplx_mult_cmplx_f32.c **** 
  87:Drivers/CMSIS/DSP/Source/ComplexMathFunctions/arm_cmplx_mult_cmplx_f32.c **** 
  88:Drivers/CMSIS/DSP/Source/ComplexMathFunctions/arm_cmplx_mult_cmplx_f32.c ****   /* loop Unrolling */
  89:Drivers/CMSIS/DSP/Source/ComplexMathFunctions/arm_cmplx_mult_cmplx_f32.c ****   blkCnt = numSamples >> 2U;
  42              		.loc 1 89 3 view .LVU6
  43              		.loc 1 89 10 is_stmt 0 view .LVU7
  44 0002 9C08     		lsrs	r4, r3, #2
  45              	.LVL1:
  90:Drivers/CMSIS/DSP/Source/ComplexMathFunctions/arm_cmplx_mult_cmplx_f32.c **** 
  91:Drivers/CMSIS/DSP/Source/ComplexMathFunctions/arm_cmplx_mult_cmplx_f32.c ****   /* First part of the processing with loop unrolling.  Compute 4 outputs at a time.
  92:Drivers/CMSIS/DSP/Source/ComplexMathFunctions/arm_cmplx_mult_cmplx_f32.c ****    ** a second loop below computes the remaining 1 to 3 samples. */
  93:Drivers/CMSIS/DSP/Source/ComplexMathFunctions/arm_cmplx_mult_cmplx_f32.c ****   while (blkCnt > 0U)
  46              		.loc 1 93 3 is_stmt 1 view .LVU8
  47              		.loc 1 93 9 is_stmt 0 view .LVU9
  48 0004 63E0     		b	.L2
  49              	.L3:
  94:Drivers/CMSIS/DSP/Source/ComplexMathFunctions/arm_cmplx_mult_cmplx_f32.c ****   {
  95:Drivers/CMSIS/DSP/Source/ComplexMathFunctions/arm_cmplx_mult_cmplx_f32.c ****     /* C[2 * i] = A[2 * i] * B[2 * i] - A[2 * i + 1] * B[2 * i + 1].  */
  96:Drivers/CMSIS/DSP/Source/ComplexMathFunctions/arm_cmplx_mult_cmplx_f32.c ****     /* C[2 * i + 1] = A[2 * i] * B[2 * i + 1] + A[2 * i + 1] * B[2 * i].  */
  97:Drivers/CMSIS/DSP/Source/ComplexMathFunctions/arm_cmplx_mult_cmplx_f32.c ****     a1 = *pSrcA;                /* A[2 * i] */
  50              		.loc 1 97 5 is_stmt 1 view .LVU10
  51              		.loc 1 97 8 is_stmt 0 view .LVU11
  52 0006 90ED007A 		vldr.32	s14, [r0]
  53              	.LVL2:
  98:Drivers/CMSIS/DSP/Source/ComplexMathFunctions/arm_cmplx_mult_cmplx_f32.c ****     c1 = *pSrcB;                /* B[2 * i] */
  54              		.loc 1 98 5 is_stmt 1 view .LVU12
  55              		.loc 1 98 8 is_stmt 0 view .LVU13
  56 000a D1ED007A 		vldr.32	s15, [r1]
  57              	.LVL3:
  99:Drivers/CMSIS/DSP/Source/ComplexMathFunctions/arm_cmplx_mult_cmplx_f32.c **** 
 100:Drivers/CMSIS/DSP/Source/ComplexMathFunctions/arm_cmplx_mult_cmplx_f32.c ****     b1 = *(pSrcA + 1);          /* A[2 * i + 1] */
  58              		.loc 1 100 5 is_stmt 1 view .LVU14
  59              		.loc 1 100 8 is_stmt 0 view .LVU15
  60 000e D0ED015A 		vldr.32	s11, [r0, #4]
  61              	.LVL4:
 101:Drivers/CMSIS/DSP/Source/ComplexMathFunctions/arm_cmplx_mult_cmplx_f32.c ****     acc1 = a1 * c1;             /* acc1 = A[2 * i] * B[2 * i] */
  62              		.loc 1 101 5 is_stmt 1 view .LVU16
  63              		.loc 1 101 10 is_stmt 0 view .LVU17
  64 0012 27EE274A 		vmul.f32	s8, s14, s15
  65              	.LVL5:
 102:Drivers/CMSIS/DSP/Source/ComplexMathFunctions/arm_cmplx_mult_cmplx_f32.c **** 
 103:Drivers/CMSIS/DSP/Source/ComplexMathFunctions/arm_cmplx_mult_cmplx_f32.c ****     a2 = *(pSrcA + 2);          /* A[2 * i + 2] */
  66              		.loc 1 103 5 is_stmt 1 view .LVU18
  67              		.loc 1 103 8 is_stmt 0 view .LVU19
  68 0016 90ED026A 		vldr.32	s12, [r0, #8]
  69              	.LVL6:
ARM GAS  /var/folders/n6/c271nzx11xl4r4_m7sqjlt0m0000gn/T//ccklmIMk.s 			page 4


 104:Drivers/CMSIS/DSP/Source/ComplexMathFunctions/arm_cmplx_mult_cmplx_f32.c ****     acc2 = (b1 * c1);           /* acc2 = A[2 * i + 1] * B[2 * i] */
  70              		.loc 1 104 5 is_stmt 1 view .LVU20
  71              		.loc 1 104 10 is_stmt 0 view .LVU21
  72 001a 67EEA56A 		vmul.f32	s13, s15, s11
  73              	.LVL7:
 105:Drivers/CMSIS/DSP/Source/ComplexMathFunctions/arm_cmplx_mult_cmplx_f32.c **** 
 106:Drivers/CMSIS/DSP/Source/ComplexMathFunctions/arm_cmplx_mult_cmplx_f32.c ****     d1 = *(pSrcB + 1);          /* B[2 * i + 1] */
  74              		.loc 1 106 5 is_stmt 1 view .LVU22
  75              		.loc 1 106 8 is_stmt 0 view .LVU23
  76 001e 91ED015A 		vldr.32	s10, [r1, #4]
  77              	.LVL8:
 107:Drivers/CMSIS/DSP/Source/ComplexMathFunctions/arm_cmplx_mult_cmplx_f32.c ****     c2 = *(pSrcB + 2);          /* B[2 * i + 2] */
  78              		.loc 1 107 5 is_stmt 1 view .LVU24
  79              		.loc 1 107 8 is_stmt 0 view .LVU25
  80 0022 D1ED027A 		vldr.32	s15, [r1, #8]
  81              	.LVL9:
 108:Drivers/CMSIS/DSP/Source/ComplexMathFunctions/arm_cmplx_mult_cmplx_f32.c ****     acc1 -= b1 * d1;            /* acc1 =      A[2 * i] * B[2 * i] - A[2 * i + 1] * B[2 * i + 1] */
  82              		.loc 1 108 5 is_stmt 1 view .LVU26
  83              		.loc 1 108 16 is_stmt 0 view .LVU27
  84 0026 65EE855A 		vmul.f32	s11, s11, s10
  85              	.LVL10:
  86              		.loc 1 108 10 view .LVU28
  87 002a 34EE654A 		vsub.f32	s8, s8, s11
  88              	.LVL11:
 109:Drivers/CMSIS/DSP/Source/ComplexMathFunctions/arm_cmplx_mult_cmplx_f32.c **** 
 110:Drivers/CMSIS/DSP/Source/ComplexMathFunctions/arm_cmplx_mult_cmplx_f32.c ****     d2 = *(pSrcB + 3);          /* B[2 * i + 3] */
  89              		.loc 1 110 5 is_stmt 1 view .LVU29
  90              		.loc 1 110 8 is_stmt 0 view .LVU30
  91 002e D1ED035A 		vldr.32	s11, [r1, #12]
  92              	.LVL12:
 111:Drivers/CMSIS/DSP/Source/ComplexMathFunctions/arm_cmplx_mult_cmplx_f32.c ****     acc3 = a2 * c2;             /* acc3 =       A[2 * i + 2] * B[2 * i + 2] */
  93              		.loc 1 111 5 is_stmt 1 view .LVU31
  94              		.loc 1 111 10 is_stmt 0 view .LVU32
  95 0032 66EE274A 		vmul.f32	s9, s12, s15
  96              	.LVL13:
 112:Drivers/CMSIS/DSP/Source/ComplexMathFunctions/arm_cmplx_mult_cmplx_f32.c **** 
 113:Drivers/CMSIS/DSP/Source/ComplexMathFunctions/arm_cmplx_mult_cmplx_f32.c ****     b2 = *(pSrcA + 3);          /* A[2 * i + 3] */
  97              		.loc 1 113 5 is_stmt 1 view .LVU33
  98              		.loc 1 113 8 is_stmt 0 view .LVU34
  99 0036 D0ED033A 		vldr.32	s7, [r0, #12]
 100              	.LVL14:
 114:Drivers/CMSIS/DSP/Source/ComplexMathFunctions/arm_cmplx_mult_cmplx_f32.c ****     acc2 += (a1 * d1);          /* acc2 =      A[2 * i + 1] * B[2 * i] + A[2 * i] * B[2 * i + 1] */
 101              		.loc 1 114 5 is_stmt 1 view .LVU35
 102              		.loc 1 114 17 is_stmt 0 view .LVU36
 103 003a 27EE057A 		vmul.f32	s14, s14, s10
 104              	.LVL15:
 105              		.loc 1 114 10 view .LVU37
 106 003e 77EE266A 		vadd.f32	s13, s14, s13
 107              	.LVL16:
 115:Drivers/CMSIS/DSP/Source/ComplexMathFunctions/arm_cmplx_mult_cmplx_f32.c **** 
 116:Drivers/CMSIS/DSP/Source/ComplexMathFunctions/arm_cmplx_mult_cmplx_f32.c ****     a1 = *(pSrcA + 4);          /* A[2 * i + 4] */
 108              		.loc 1 116 5 is_stmt 1 view .LVU38
 109              		.loc 1 116 8 is_stmt 0 view .LVU39
 110 0042 90ED047A 		vldr.32	s14, [r0, #16]
 111              	.LVL17:
 117:Drivers/CMSIS/DSP/Source/ComplexMathFunctions/arm_cmplx_mult_cmplx_f32.c ****     acc4 = (a2 * d2);           /* acc4 =   A[2 * i + 2] * B[2 * i + 3] */
 112              		.loc 1 117 5 is_stmt 1 view .LVU40
ARM GAS  /var/folders/n6/c271nzx11xl4r4_m7sqjlt0m0000gn/T//ccklmIMk.s 			page 5


 113              		.loc 1 117 10 is_stmt 0 view .LVU41
 114 0046 26EE255A 		vmul.f32	s10, s12, s11
 115              	.LVL18:
 118:Drivers/CMSIS/DSP/Source/ComplexMathFunctions/arm_cmplx_mult_cmplx_f32.c **** 
 119:Drivers/CMSIS/DSP/Source/ComplexMathFunctions/arm_cmplx_mult_cmplx_f32.c ****     c1 = *(pSrcB + 4);          /* B[2 * i + 4] */
 116              		.loc 1 119 5 is_stmt 1 view .LVU42
 117              		.loc 1 119 8 is_stmt 0 view .LVU43
 118 004a 91ED046A 		vldr.32	s12, [r1, #16]
 119              	.LVL19:
 120:Drivers/CMSIS/DSP/Source/ComplexMathFunctions/arm_cmplx_mult_cmplx_f32.c ****     acc3 -= (b2 * d2);          /* acc3 =       A[2 * i + 2] * B[2 * i + 2] - A[2 * i + 3] * B[2 * 
 120              		.loc 1 120 5 is_stmt 1 view .LVU44
 121              		.loc 1 120 17 is_stmt 0 view .LVU45
 122 004e 65EEA35A 		vmul.f32	s11, s11, s7
 123              	.LVL20:
 124              		.loc 1 120 10 view .LVU46
 125 0052 74EEE54A 		vsub.f32	s9, s9, s11
 126              	.LVL21:
 121:Drivers/CMSIS/DSP/Source/ComplexMathFunctions/arm_cmplx_mult_cmplx_f32.c ****     *pDst = acc1;               /* C[2 * i] = A[2 * i] * B[2 * i] - A[2 * i + 1] * B[2 * i + 1] */
 127              		.loc 1 121 5 is_stmt 1 view .LVU47
 128              		.loc 1 121 11 is_stmt 0 view .LVU48
 129 0056 82ED004A 		vstr.32	s8, [r2]
 130              	.LVL22:
 122:Drivers/CMSIS/DSP/Source/ComplexMathFunctions/arm_cmplx_mult_cmplx_f32.c **** 
 123:Drivers/CMSIS/DSP/Source/ComplexMathFunctions/arm_cmplx_mult_cmplx_f32.c ****     b1 = *(pSrcA + 5);          /* A[2 * i + 5] */
 131              		.loc 1 123 5 is_stmt 1 view .LVU49
 132              		.loc 1 123 8 is_stmt 0 view .LVU50
 133 005a D0ED055A 		vldr.32	s11, [r0, #20]
 134              	.LVL23:
 124:Drivers/CMSIS/DSP/Source/ComplexMathFunctions/arm_cmplx_mult_cmplx_f32.c ****     acc4 += b2 * c2;            /* acc4 =   A[2 * i + 2] * B[2 * i + 3] + A[2 * i + 3] * B[2 * i + 
 135              		.loc 1 124 5 is_stmt 1 view .LVU51
 136              		.loc 1 124 16 is_stmt 0 view .LVU52
 137 005e 67EEA37A 		vmul.f32	s15, s15, s7
 138              	.LVL24:
 139              		.loc 1 124 10 view .LVU53
 140 0062 77EE857A 		vadd.f32	s15, s15, s10
 141              	.LVL25:
 125:Drivers/CMSIS/DSP/Source/ComplexMathFunctions/arm_cmplx_mult_cmplx_f32.c **** 
 126:Drivers/CMSIS/DSP/Source/ComplexMathFunctions/arm_cmplx_mult_cmplx_f32.c ****     *(pDst + 1) = acc2;         /* C[2 * i + 1] = A[2 * i + 1] * B[2 * i] + A[2 * i] * B[2 * i + 1]
 142              		.loc 1 126 5 is_stmt 1 view .LVU54
 143              		.loc 1 126 17 is_stmt 0 view .LVU55
 144 0066 C2ED016A 		vstr.32	s13, [r2, #4]
 127:Drivers/CMSIS/DSP/Source/ComplexMathFunctions/arm_cmplx_mult_cmplx_f32.c ****     acc1 = (a1 * c1);
 145              		.loc 1 127 5 is_stmt 1 view .LVU56
 146              		.loc 1 127 10 is_stmt 0 view .LVU57
 147 006a 27EE065A 		vmul.f32	s10, s14, s12
 148              	.LVL26:
 128:Drivers/CMSIS/DSP/Source/ComplexMathFunctions/arm_cmplx_mult_cmplx_f32.c **** 
 129:Drivers/CMSIS/DSP/Source/ComplexMathFunctions/arm_cmplx_mult_cmplx_f32.c ****     d1 = *(pSrcB + 5);
 149              		.loc 1 129 5 is_stmt 1 view .LVU58
 150              		.loc 1 129 8 is_stmt 0 view .LVU59
 151 006e 91ED054A 		vldr.32	s8, [r1, #20]
 152              	.LVL27:
 130:Drivers/CMSIS/DSP/Source/ComplexMathFunctions/arm_cmplx_mult_cmplx_f32.c ****     acc2 = (b1 * c1);
 153              		.loc 1 130 5 is_stmt 1 view .LVU60
 154              		.loc 1 130 10 is_stmt 0 view .LVU61
 155 0072 26EE256A 		vmul.f32	s12, s12, s11
 156              	.LVL28:
ARM GAS  /var/folders/n6/c271nzx11xl4r4_m7sqjlt0m0000gn/T//ccklmIMk.s 			page 6


 131:Drivers/CMSIS/DSP/Source/ComplexMathFunctions/arm_cmplx_mult_cmplx_f32.c **** 
 132:Drivers/CMSIS/DSP/Source/ComplexMathFunctions/arm_cmplx_mult_cmplx_f32.c ****     *(pDst + 2) = acc3;
 157              		.loc 1 132 5 is_stmt 1 view .LVU62
 158              		.loc 1 132 17 is_stmt 0 view .LVU63
 159 0076 C2ED024A 		vstr.32	s9, [r2, #8]
 133:Drivers/CMSIS/DSP/Source/ComplexMathFunctions/arm_cmplx_mult_cmplx_f32.c ****     *(pDst + 3) = acc4;
 160              		.loc 1 133 5 is_stmt 1 view .LVU64
 161              		.loc 1 133 17 is_stmt 0 view .LVU65
 162 007a C2ED037A 		vstr.32	s15, [r2, #12]
 134:Drivers/CMSIS/DSP/Source/ComplexMathFunctions/arm_cmplx_mult_cmplx_f32.c **** 
 135:Drivers/CMSIS/DSP/Source/ComplexMathFunctions/arm_cmplx_mult_cmplx_f32.c ****     a2 = *(pSrcA + 6);
 163              		.loc 1 135 5 is_stmt 1 view .LVU66
 164              		.loc 1 135 8 is_stmt 0 view .LVU67
 165 007e D0ED067A 		vldr.32	s15, [r0, #24]
 166              	.LVL29:
 136:Drivers/CMSIS/DSP/Source/ComplexMathFunctions/arm_cmplx_mult_cmplx_f32.c ****     acc1 -= (b1 * d1);
 167              		.loc 1 136 5 is_stmt 1 view .LVU68
 168              		.loc 1 136 17 is_stmt 0 view .LVU69
 169 0082 65EE845A 		vmul.f32	s11, s11, s8
 170              	.LVL30:
 171              		.loc 1 136 10 view .LVU70
 172 0086 35EE655A 		vsub.f32	s10, s10, s11
 173              	.LVL31:
 137:Drivers/CMSIS/DSP/Source/ComplexMathFunctions/arm_cmplx_mult_cmplx_f32.c **** 
 138:Drivers/CMSIS/DSP/Source/ComplexMathFunctions/arm_cmplx_mult_cmplx_f32.c ****     c2 = *(pSrcB + 6);
 174              		.loc 1 138 5 is_stmt 1 view .LVU71
 175              		.loc 1 138 8 is_stmt 0 view .LVU72
 176 008a D1ED066A 		vldr.32	s13, [r1, #24]
 177              	.LVL32:
 139:Drivers/CMSIS/DSP/Source/ComplexMathFunctions/arm_cmplx_mult_cmplx_f32.c ****     acc2 += (a1 * d1);
 178              		.loc 1 139 5 is_stmt 1 view .LVU73
 179              		.loc 1 139 17 is_stmt 0 view .LVU74
 180 008e 27EE047A 		vmul.f32	s14, s14, s8
 181              	.LVL33:
 182              		.loc 1 139 10 view .LVU75
 183 0092 37EE067A 		vadd.f32	s14, s14, s12
 184              	.LVL34:
 140:Drivers/CMSIS/DSP/Source/ComplexMathFunctions/arm_cmplx_mult_cmplx_f32.c **** 
 141:Drivers/CMSIS/DSP/Source/ComplexMathFunctions/arm_cmplx_mult_cmplx_f32.c ****     b2 = *(pSrcA + 7);
 185              		.loc 1 141 5 is_stmt 1 view .LVU76
 186              		.loc 1 141 8 is_stmt 0 view .LVU77
 187 0096 90ED076A 		vldr.32	s12, [r0, #28]
 188              	.LVL35:
 142:Drivers/CMSIS/DSP/Source/ComplexMathFunctions/arm_cmplx_mult_cmplx_f32.c ****     acc3 = (a2 * c2);
 189              		.loc 1 142 5 is_stmt 1 view .LVU78
 190              		.loc 1 142 10 is_stmt 0 view .LVU79
 191 009a 67EEA65A 		vmul.f32	s11, s15, s13
 192              	.LVL36:
 143:Drivers/CMSIS/DSP/Source/ComplexMathFunctions/arm_cmplx_mult_cmplx_f32.c **** 
 144:Drivers/CMSIS/DSP/Source/ComplexMathFunctions/arm_cmplx_mult_cmplx_f32.c ****     d2 = *(pSrcB + 7);
 193              		.loc 1 144 5 is_stmt 1 view .LVU80
 194              		.loc 1 144 8 is_stmt 0 view .LVU81
 195 009e D1ED074A 		vldr.32	s9, [r1, #28]
 196              	.LVL37:
 145:Drivers/CMSIS/DSP/Source/ComplexMathFunctions/arm_cmplx_mult_cmplx_f32.c ****     acc4 = (b2 * c2);
 197              		.loc 1 145 5 is_stmt 1 view .LVU82
 198              		.loc 1 145 10 is_stmt 0 view .LVU83
ARM GAS  /var/folders/n6/c271nzx11xl4r4_m7sqjlt0m0000gn/T//ccklmIMk.s 			page 7


 199 00a2 66EE866A 		vmul.f32	s13, s13, s12
 200              	.LVL38:
 146:Drivers/CMSIS/DSP/Source/ComplexMathFunctions/arm_cmplx_mult_cmplx_f32.c **** 
 147:Drivers/CMSIS/DSP/Source/ComplexMathFunctions/arm_cmplx_mult_cmplx_f32.c ****     *(pDst + 4) = acc1;
 201              		.loc 1 147 5 is_stmt 1 view .LVU84
 202              		.loc 1 147 17 is_stmt 0 view .LVU85
 203 00a6 82ED045A 		vstr.32	s10, [r2, #16]
 204              	.LVL39:
 148:Drivers/CMSIS/DSP/Source/ComplexMathFunctions/arm_cmplx_mult_cmplx_f32.c ****     pSrcA += 8U;
 205              		.loc 1 148 5 is_stmt 1 view .LVU86
 206              		.loc 1 148 11 is_stmt 0 view .LVU87
 207 00aa 2030     		adds	r0, r0, #32
 208              	.LVL40:
 149:Drivers/CMSIS/DSP/Source/ComplexMathFunctions/arm_cmplx_mult_cmplx_f32.c **** 
 150:Drivers/CMSIS/DSP/Source/ComplexMathFunctions/arm_cmplx_mult_cmplx_f32.c ****     acc3 -= (b2 * d2);
 209              		.loc 1 150 5 is_stmt 1 view .LVU88
 210              		.loc 1 150 17 is_stmt 0 view .LVU89
 211 00ac 26EE246A 		vmul.f32	s12, s12, s9
 212              	.LVL41:
 213              		.loc 1 150 10 view .LVU90
 214 00b0 35EEC66A 		vsub.f32	s12, s11, s12
 215              	.LVL42:
 151:Drivers/CMSIS/DSP/Source/ComplexMathFunctions/arm_cmplx_mult_cmplx_f32.c ****     acc4 += (a2 * d2);
 216              		.loc 1 151 5 is_stmt 1 view .LVU91
 217              		.loc 1 151 17 is_stmt 0 view .LVU92
 218 00b4 67EEA47A 		vmul.f32	s15, s15, s9
 219              	.LVL43:
 220              		.loc 1 151 10 view .LVU93
 221 00b8 77EEA67A 		vadd.f32	s15, s15, s13
 222              	.LVL44:
 152:Drivers/CMSIS/DSP/Source/ComplexMathFunctions/arm_cmplx_mult_cmplx_f32.c **** 
 153:Drivers/CMSIS/DSP/Source/ComplexMathFunctions/arm_cmplx_mult_cmplx_f32.c ****     *(pDst + 5) = acc2;
 223              		.loc 1 153 5 is_stmt 1 view .LVU94
 224              		.loc 1 153 17 is_stmt 0 view .LVU95
 225 00bc 82ED057A 		vstr.32	s14, [r2, #20]
 154:Drivers/CMSIS/DSP/Source/ComplexMathFunctions/arm_cmplx_mult_cmplx_f32.c ****     pSrcB += 8U;
 226              		.loc 1 154 5 is_stmt 1 view .LVU96
 227              		.loc 1 154 11 is_stmt 0 view .LVU97
 228 00c0 2031     		adds	r1, r1, #32
 229              	.LVL45:
 155:Drivers/CMSIS/DSP/Source/ComplexMathFunctions/arm_cmplx_mult_cmplx_f32.c **** 
 156:Drivers/CMSIS/DSP/Source/ComplexMathFunctions/arm_cmplx_mult_cmplx_f32.c ****     *(pDst + 6) = acc3;
 230              		.loc 1 156 5 is_stmt 1 view .LVU98
 231              		.loc 1 156 17 is_stmt 0 view .LVU99
 232 00c2 82ED066A 		vstr.32	s12, [r2, #24]
 157:Drivers/CMSIS/DSP/Source/ComplexMathFunctions/arm_cmplx_mult_cmplx_f32.c ****     *(pDst + 7) = acc4;
 233              		.loc 1 157 5 is_stmt 1 view .LVU100
 234              		.loc 1 157 17 is_stmt 0 view .LVU101
 235 00c6 C2ED077A 		vstr.32	s15, [r2, #28]
 158:Drivers/CMSIS/DSP/Source/ComplexMathFunctions/arm_cmplx_mult_cmplx_f32.c **** 
 159:Drivers/CMSIS/DSP/Source/ComplexMathFunctions/arm_cmplx_mult_cmplx_f32.c ****     pDst += 8U;
 236              		.loc 1 159 5 is_stmt 1 view .LVU102
 237              		.loc 1 159 10 is_stmt 0 view .LVU103
 238 00ca 2032     		adds	r2, r2, #32
 239              	.LVL46:
 160:Drivers/CMSIS/DSP/Source/ComplexMathFunctions/arm_cmplx_mult_cmplx_f32.c **** 
 161:Drivers/CMSIS/DSP/Source/ComplexMathFunctions/arm_cmplx_mult_cmplx_f32.c ****     /* Decrement the numSamples loop counter */
ARM GAS  /var/folders/n6/c271nzx11xl4r4_m7sqjlt0m0000gn/T//ccklmIMk.s 			page 8


 162:Drivers/CMSIS/DSP/Source/ComplexMathFunctions/arm_cmplx_mult_cmplx_f32.c ****     blkCnt--;
 240              		.loc 1 162 5 is_stmt 1 view .LVU104
 241              		.loc 1 162 11 is_stmt 0 view .LVU105
 242 00cc 013C     		subs	r4, r4, #1
 243              	.LVL47:
 244              	.L2:
  93:Drivers/CMSIS/DSP/Source/ComplexMathFunctions/arm_cmplx_mult_cmplx_f32.c ****   {
 245              		.loc 1 93 17 is_stmt 1 view .LVU106
 246 00ce 002C     		cmp	r4, #0
 247 00d0 99D1     		bne	.L3
 163:Drivers/CMSIS/DSP/Source/ComplexMathFunctions/arm_cmplx_mult_cmplx_f32.c ****   }
 164:Drivers/CMSIS/DSP/Source/ComplexMathFunctions/arm_cmplx_mult_cmplx_f32.c **** 
 165:Drivers/CMSIS/DSP/Source/ComplexMathFunctions/arm_cmplx_mult_cmplx_f32.c ****   /* If the numSamples is not a multiple of 4, compute any remaining output samples here.
 166:Drivers/CMSIS/DSP/Source/ComplexMathFunctions/arm_cmplx_mult_cmplx_f32.c ****    ** No loop unrolling is used. */
 167:Drivers/CMSIS/DSP/Source/ComplexMathFunctions/arm_cmplx_mult_cmplx_f32.c ****   blkCnt = numSamples % 0x4U;
 248              		.loc 1 167 3 view .LVU107
 249              		.loc 1 167 10 is_stmt 0 view .LVU108
 250 00d2 03F00303 		and	r3, r3, #3
 251              	.LVL48:
 168:Drivers/CMSIS/DSP/Source/ComplexMathFunctions/arm_cmplx_mult_cmplx_f32.c **** 
 169:Drivers/CMSIS/DSP/Source/ComplexMathFunctions/arm_cmplx_mult_cmplx_f32.c **** #else
 170:Drivers/CMSIS/DSP/Source/ComplexMathFunctions/arm_cmplx_mult_cmplx_f32.c **** 
 171:Drivers/CMSIS/DSP/Source/ComplexMathFunctions/arm_cmplx_mult_cmplx_f32.c ****   /* Run the below code for Cortex-M0 */
 172:Drivers/CMSIS/DSP/Source/ComplexMathFunctions/arm_cmplx_mult_cmplx_f32.c ****   blkCnt = numSamples;
 173:Drivers/CMSIS/DSP/Source/ComplexMathFunctions/arm_cmplx_mult_cmplx_f32.c **** 
 174:Drivers/CMSIS/DSP/Source/ComplexMathFunctions/arm_cmplx_mult_cmplx_f32.c **** #endif /* #if defined (ARM_MATH_DSP) */
 175:Drivers/CMSIS/DSP/Source/ComplexMathFunctions/arm_cmplx_mult_cmplx_f32.c **** 
 176:Drivers/CMSIS/DSP/Source/ComplexMathFunctions/arm_cmplx_mult_cmplx_f32.c ****   while (blkCnt > 0U)
 252              		.loc 1 176 3 is_stmt 1 view .LVU109
 253              		.loc 1 176 9 is_stmt 0 view .LVU110
 254 00d6 21E0     		b	.L4
 255              	.L5:
 177:Drivers/CMSIS/DSP/Source/ComplexMathFunctions/arm_cmplx_mult_cmplx_f32.c ****   {
 178:Drivers/CMSIS/DSP/Source/ComplexMathFunctions/arm_cmplx_mult_cmplx_f32.c ****     /* C[2 * i] = A[2 * i] * B[2 * i] - A[2 * i + 1] * B[2 * i + 1].  */
 179:Drivers/CMSIS/DSP/Source/ComplexMathFunctions/arm_cmplx_mult_cmplx_f32.c ****     /* C[2 * i + 1] = A[2 * i] * B[2 * i + 1] + A[2 * i + 1] * B[2 * i].  */
 180:Drivers/CMSIS/DSP/Source/ComplexMathFunctions/arm_cmplx_mult_cmplx_f32.c ****     a1 = *pSrcA++;
 256              		.loc 1 180 5 is_stmt 1 view .LVU111
 257              	.LVL49:
 258              		.loc 1 180 8 is_stmt 0 view .LVU112
 259 00d8 00F1080C 		add	ip, r0, #8
 260 00dc D0ED007A 		vldr.32	s15, [r0]
 261              	.LVL50:
 181:Drivers/CMSIS/DSP/Source/ComplexMathFunctions/arm_cmplx_mult_cmplx_f32.c ****     b1 = *pSrcA++;
 262              		.loc 1 181 5 is_stmt 1 view .LVU113
 263              		.loc 1 181 8 is_stmt 0 view .LVU114
 264 00e0 90ED017A 		vldr.32	s14, [r0, #4]
 265              	.LVL51:
 182:Drivers/CMSIS/DSP/Source/ComplexMathFunctions/arm_cmplx_mult_cmplx_f32.c ****     c1 = *pSrcB++;
 266              		.loc 1 182 5 is_stmt 1 view .LVU115
 267              		.loc 1 182 8 is_stmt 0 view .LVU116
 268 00e4 0846     		mov	r0, r1
 269 00e6 0830     		adds	r0, r0, #8
 270 00e8 91ED006A 		vldr.32	s12, [r1]
 271              	.LVL52:
 183:Drivers/CMSIS/DSP/Source/ComplexMathFunctions/arm_cmplx_mult_cmplx_f32.c ****     d1 = *pSrcB++;
 272              		.loc 1 183 5 is_stmt 1 view .LVU117
 273              		.loc 1 183 8 is_stmt 0 view .LVU118
ARM GAS  /var/folders/n6/c271nzx11xl4r4_m7sqjlt0m0000gn/T//ccklmIMk.s 			page 9


 274 00ec D1ED015A 		vldr.32	s11, [r1, #4]
 275              	.LVL53:
 184:Drivers/CMSIS/DSP/Source/ComplexMathFunctions/arm_cmplx_mult_cmplx_f32.c **** 
 185:Drivers/CMSIS/DSP/Source/ComplexMathFunctions/arm_cmplx_mult_cmplx_f32.c ****     /* store the result in the destination buffer. */
 186:Drivers/CMSIS/DSP/Source/ComplexMathFunctions/arm_cmplx_mult_cmplx_f32.c ****     *pDst++ = (a1 * c1) - (b1 * d1);
 276              		.loc 1 186 5 is_stmt 1 view .LVU119
 277              		.loc 1 186 19 is_stmt 0 view .LVU120
 278 00f0 67EE866A 		vmul.f32	s13, s15, s12
 279              		.loc 1 186 31 view .LVU121
 280 00f4 27EE255A 		vmul.f32	s10, s14, s11
 281              	.LVL54:
 282              		.loc 1 186 25 view .LVU122
 283 00f8 76EEC56A 		vsub.f32	s13, s13, s10
 284              		.loc 1 186 13 view .LVU123
 285 00fc 1146     		mov	r1, r2
 286 00fe 0831     		adds	r1, r1, #8
 287 0100 C2ED006A 		vstr.32	s13, [r2]
 187:Drivers/CMSIS/DSP/Source/ComplexMathFunctions/arm_cmplx_mult_cmplx_f32.c ****     *pDst++ = (a1 * d1) + (b1 * c1);
 288              		.loc 1 187 5 is_stmt 1 view .LVU124
 289              		.loc 1 187 19 is_stmt 0 view .LVU125
 290 0104 67EEA57A 		vmul.f32	s15, s15, s11
 291              	.LVL55:
 292              		.loc 1 187 31 view .LVU126
 293 0108 27EE067A 		vmul.f32	s14, s14, s12
 294              	.LVL56:
 295              		.loc 1 187 25 view .LVU127
 296 010c 77EE877A 		vadd.f32	s15, s15, s14
 297              		.loc 1 187 13 view .LVU128
 298 0110 C2ED017A 		vstr.32	s15, [r2, #4]
 188:Drivers/CMSIS/DSP/Source/ComplexMathFunctions/arm_cmplx_mult_cmplx_f32.c **** 
 189:Drivers/CMSIS/DSP/Source/ComplexMathFunctions/arm_cmplx_mult_cmplx_f32.c ****     /* Decrement the numSamples loop counter */
 190:Drivers/CMSIS/DSP/Source/ComplexMathFunctions/arm_cmplx_mult_cmplx_f32.c ****     blkCnt--;
 299              		.loc 1 190 5 is_stmt 1 view .LVU129
 300              		.loc 1 190 11 is_stmt 0 view .LVU130
 301 0114 013B     		subs	r3, r3, #1
 302              	.LVL57:
 187:Drivers/CMSIS/DSP/Source/ComplexMathFunctions/arm_cmplx_mult_cmplx_f32.c ****     *pDst++ = (a1 * d1) + (b1 * c1);
 303              		.loc 1 187 10 view .LVU131
 304 0116 0A46     		mov	r2, r1
 183:Drivers/CMSIS/DSP/Source/ComplexMathFunctions/arm_cmplx_mult_cmplx_f32.c **** 
 305              		.loc 1 183 16 view .LVU132
 306 0118 0146     		mov	r1, r0
 307              	.LVL58:
 181:Drivers/CMSIS/DSP/Source/ComplexMathFunctions/arm_cmplx_mult_cmplx_f32.c ****     c1 = *pSrcB++;
 308              		.loc 1 181 16 view .LVU133
 309 011a 6046     		mov	r0, ip
 310              	.LVL59:
 311              	.L4:
 176:Drivers/CMSIS/DSP/Source/ComplexMathFunctions/arm_cmplx_mult_cmplx_f32.c ****   {
 312              		.loc 1 176 17 is_stmt 1 view .LVU134
 313 011c 002B     		cmp	r3, #0
 314 011e DBD1     		bne	.L5
 191:Drivers/CMSIS/DSP/Source/ComplexMathFunctions/arm_cmplx_mult_cmplx_f32.c ****   }
 192:Drivers/CMSIS/DSP/Source/ComplexMathFunctions/arm_cmplx_mult_cmplx_f32.c **** }
 315              		.loc 1 192 1 is_stmt 0 view .LVU135
 316 0120 5DF8044B 		ldr	r4, [sp], #4
 317              		.cfi_restore 4
ARM GAS  /var/folders/n6/c271nzx11xl4r4_m7sqjlt0m0000gn/T//ccklmIMk.s 			page 10


 318              		.cfi_def_cfa_offset 0
 319 0124 7047     		bx	lr
 320              		.cfi_endproc
 321              	.LFE135:
 323              		.text
 324              	.Letext0:
 325              		.file 2 "/Users/killian/Library/Application Support/Code/User/globalStorage/bmd.stm32-for-vscode/@
 326              		.file 3 "/Users/killian/Library/Application Support/Code/User/globalStorage/bmd.stm32-for-vscode/@
 327              		.file 4 "Drivers/CMSIS/DSP/Include/arm_math.h"
ARM GAS  /var/folders/n6/c271nzx11xl4r4_m7sqjlt0m0000gn/T//ccklmIMk.s 			page 11


DEFINED SYMBOLS
                            *ABS*:00000000 arm_cmplx_mult_cmplx_f32.c
/var/folders/n6/c271nzx11xl4r4_m7sqjlt0m0000gn/T//ccklmIMk.s:20     .text.arm_cmplx_mult_cmplx_f32:00000000 $t
/var/folders/n6/c271nzx11xl4r4_m7sqjlt0m0000gn/T//ccklmIMk.s:26     .text.arm_cmplx_mult_cmplx_f32:00000000 arm_cmplx_mult_cmplx_f32

NO UNDEFINED SYMBOLS
