ARM GAS  /var/folders/n6/c271nzx11xl4r4_m7sqjlt0m0000gn/T//ccsvuvwZ.s 			page 1


   1              		.cpu cortex-m7
   2              		.arch armv7e-m
   3              		.fpu fpv5-d16
   4              		.eabi_attribute 28, 1
   5              		.eabi_attribute 20, 1
   6              		.eabi_attribute 21, 1
   7              		.eabi_attribute 23, 3
   8              		.eabi_attribute 24, 1
   9              		.eabi_attribute 25, 1
  10              		.eabi_attribute 26, 1
  11              		.eabi_attribute 30, 1
  12              		.eabi_attribute 34, 1
  13              		.eabi_attribute 18, 4
  14              		.file	"arm_biquad_cascade_stereo_df2T_f32.c"
  15              		.text
  16              	.Ltext0:
  17              		.cfi_sections	.debug_frame
  18              		.file 1 "Drivers/CMSIS/DSP/Source/FilteringFunctions/arm_biquad_cascade_stereo_df2T_f32.c"
  19              		.section	.text.arm_biquad_cascade_stereo_df2T_f32,"ax",%progbits
  20              		.align	1
  21              		.global	arm_biquad_cascade_stereo_df2T_f32
  22              		.syntax unified
  23              		.thumb
  24              		.thumb_func
  26              	arm_biquad_cascade_stereo_df2T_f32:
  27              	.LVL0:
  28              	.LFB135:
   1:Drivers/CMSIS/DSP/Source/FilteringFunctions/arm_biquad_cascade_stereo_df2T_f32.c **** /* ----------------------------------------------------------------------
   2:Drivers/CMSIS/DSP/Source/FilteringFunctions/arm_biquad_cascade_stereo_df2T_f32.c ****  * Project:      CMSIS DSP Library
   3:Drivers/CMSIS/DSP/Source/FilteringFunctions/arm_biquad_cascade_stereo_df2T_f32.c ****  * Title:        arm_biquad_cascade_stereo_df2T_f32.c
   4:Drivers/CMSIS/DSP/Source/FilteringFunctions/arm_biquad_cascade_stereo_df2T_f32.c ****  * Description:  Processing function for floating-point transposed direct form II Biquad cascade fi
   5:Drivers/CMSIS/DSP/Source/FilteringFunctions/arm_biquad_cascade_stereo_df2T_f32.c ****  *
   6:Drivers/CMSIS/DSP/Source/FilteringFunctions/arm_biquad_cascade_stereo_df2T_f32.c ****  * $Date:        27. January 2017
   7:Drivers/CMSIS/DSP/Source/FilteringFunctions/arm_biquad_cascade_stereo_df2T_f32.c ****  * $Revision:    V.1.5.1
   8:Drivers/CMSIS/DSP/Source/FilteringFunctions/arm_biquad_cascade_stereo_df2T_f32.c ****  *
   9:Drivers/CMSIS/DSP/Source/FilteringFunctions/arm_biquad_cascade_stereo_df2T_f32.c ****  * Target Processor: Cortex-M cores
  10:Drivers/CMSIS/DSP/Source/FilteringFunctions/arm_biquad_cascade_stereo_df2T_f32.c ****  * -------------------------------------------------------------------- */
  11:Drivers/CMSIS/DSP/Source/FilteringFunctions/arm_biquad_cascade_stereo_df2T_f32.c **** /*
  12:Drivers/CMSIS/DSP/Source/FilteringFunctions/arm_biquad_cascade_stereo_df2T_f32.c ****  * Copyright (C) 2010-2017 ARM Limited or its affiliates. All rights reserved.
  13:Drivers/CMSIS/DSP/Source/FilteringFunctions/arm_biquad_cascade_stereo_df2T_f32.c ****  *
  14:Drivers/CMSIS/DSP/Source/FilteringFunctions/arm_biquad_cascade_stereo_df2T_f32.c ****  * SPDX-License-Identifier: Apache-2.0
  15:Drivers/CMSIS/DSP/Source/FilteringFunctions/arm_biquad_cascade_stereo_df2T_f32.c ****  *
  16:Drivers/CMSIS/DSP/Source/FilteringFunctions/arm_biquad_cascade_stereo_df2T_f32.c ****  * Licensed under the Apache License, Version 2.0 (the License); you may
  17:Drivers/CMSIS/DSP/Source/FilteringFunctions/arm_biquad_cascade_stereo_df2T_f32.c ****  * not use this file except in compliance with the License.
  18:Drivers/CMSIS/DSP/Source/FilteringFunctions/arm_biquad_cascade_stereo_df2T_f32.c ****  * You may obtain a copy of the License at
  19:Drivers/CMSIS/DSP/Source/FilteringFunctions/arm_biquad_cascade_stereo_df2T_f32.c ****  *
  20:Drivers/CMSIS/DSP/Source/FilteringFunctions/arm_biquad_cascade_stereo_df2T_f32.c ****  * www.apache.org/licenses/LICENSE-2.0
  21:Drivers/CMSIS/DSP/Source/FilteringFunctions/arm_biquad_cascade_stereo_df2T_f32.c ****  *
  22:Drivers/CMSIS/DSP/Source/FilteringFunctions/arm_biquad_cascade_stereo_df2T_f32.c ****  * Unless required by applicable law or agreed to in writing, software
  23:Drivers/CMSIS/DSP/Source/FilteringFunctions/arm_biquad_cascade_stereo_df2T_f32.c ****  * distributed under the License is distributed on an AS IS BASIS, WITHOUT
  24:Drivers/CMSIS/DSP/Source/FilteringFunctions/arm_biquad_cascade_stereo_df2T_f32.c ****  * WARRANTIES OR CONDITIONS OF ANY KIND, either express or implied.
  25:Drivers/CMSIS/DSP/Source/FilteringFunctions/arm_biquad_cascade_stereo_df2T_f32.c ****  * See the License for the specific language governing permissions and
  26:Drivers/CMSIS/DSP/Source/FilteringFunctions/arm_biquad_cascade_stereo_df2T_f32.c ****  * limitations under the License.
  27:Drivers/CMSIS/DSP/Source/FilteringFunctions/arm_biquad_cascade_stereo_df2T_f32.c ****  */
  28:Drivers/CMSIS/DSP/Source/FilteringFunctions/arm_biquad_cascade_stereo_df2T_f32.c **** 
  29:Drivers/CMSIS/DSP/Source/FilteringFunctions/arm_biquad_cascade_stereo_df2T_f32.c **** #include "arm_math.h"
  30:Drivers/CMSIS/DSP/Source/FilteringFunctions/arm_biquad_cascade_stereo_df2T_f32.c **** 
ARM GAS  /var/folders/n6/c271nzx11xl4r4_m7sqjlt0m0000gn/T//ccsvuvwZ.s 			page 2


  31:Drivers/CMSIS/DSP/Source/FilteringFunctions/arm_biquad_cascade_stereo_df2T_f32.c **** /**
  32:Drivers/CMSIS/DSP/Source/FilteringFunctions/arm_biquad_cascade_stereo_df2T_f32.c **** * @ingroup groupFilters
  33:Drivers/CMSIS/DSP/Source/FilteringFunctions/arm_biquad_cascade_stereo_df2T_f32.c **** */
  34:Drivers/CMSIS/DSP/Source/FilteringFunctions/arm_biquad_cascade_stereo_df2T_f32.c **** 
  35:Drivers/CMSIS/DSP/Source/FilteringFunctions/arm_biquad_cascade_stereo_df2T_f32.c **** /**
  36:Drivers/CMSIS/DSP/Source/FilteringFunctions/arm_biquad_cascade_stereo_df2T_f32.c **** * @defgroup BiquadCascadeDF2T Biquad Cascade IIR Filters Using a Direct Form II Transposed Structur
  37:Drivers/CMSIS/DSP/Source/FilteringFunctions/arm_biquad_cascade_stereo_df2T_f32.c **** *
  38:Drivers/CMSIS/DSP/Source/FilteringFunctions/arm_biquad_cascade_stereo_df2T_f32.c **** * This set of functions implements arbitrary order recursive (IIR) filters using a transposed direc
  39:Drivers/CMSIS/DSP/Source/FilteringFunctions/arm_biquad_cascade_stereo_df2T_f32.c **** * The filters are implemented as a cascade of second order Biquad sections.
  40:Drivers/CMSIS/DSP/Source/FilteringFunctions/arm_biquad_cascade_stereo_df2T_f32.c **** * These functions provide a slight memory savings as compared to the direct form I Biquad filter fu
  41:Drivers/CMSIS/DSP/Source/FilteringFunctions/arm_biquad_cascade_stereo_df2T_f32.c **** * Only floating-point data is supported.
  42:Drivers/CMSIS/DSP/Source/FilteringFunctions/arm_biquad_cascade_stereo_df2T_f32.c **** *
  43:Drivers/CMSIS/DSP/Source/FilteringFunctions/arm_biquad_cascade_stereo_df2T_f32.c **** * This function operate on blocks of input and output data and each call to the function
  44:Drivers/CMSIS/DSP/Source/FilteringFunctions/arm_biquad_cascade_stereo_df2T_f32.c **** * processes <code>blockSize</code> samples through the filter.
  45:Drivers/CMSIS/DSP/Source/FilteringFunctions/arm_biquad_cascade_stereo_df2T_f32.c **** * <code>pSrc</code> points to the array of input data and
  46:Drivers/CMSIS/DSP/Source/FilteringFunctions/arm_biquad_cascade_stereo_df2T_f32.c **** * <code>pDst</code> points to the array of output data.
  47:Drivers/CMSIS/DSP/Source/FilteringFunctions/arm_biquad_cascade_stereo_df2T_f32.c **** * Both arrays contain <code>blockSize</code> values.
  48:Drivers/CMSIS/DSP/Source/FilteringFunctions/arm_biquad_cascade_stereo_df2T_f32.c **** *
  49:Drivers/CMSIS/DSP/Source/FilteringFunctions/arm_biquad_cascade_stereo_df2T_f32.c **** * \par Algorithm
  50:Drivers/CMSIS/DSP/Source/FilteringFunctions/arm_biquad_cascade_stereo_df2T_f32.c **** * Each Biquad stage implements a second order filter using the difference equation:
  51:Drivers/CMSIS/DSP/Source/FilteringFunctions/arm_biquad_cascade_stereo_df2T_f32.c **** * <pre>
  52:Drivers/CMSIS/DSP/Source/FilteringFunctions/arm_biquad_cascade_stereo_df2T_f32.c **** *    y[n] = b0 * x[n] + d1
  53:Drivers/CMSIS/DSP/Source/FilteringFunctions/arm_biquad_cascade_stereo_df2T_f32.c **** *    d1 = b1 * x[n] + a1 * y[n] + d2
  54:Drivers/CMSIS/DSP/Source/FilteringFunctions/arm_biquad_cascade_stereo_df2T_f32.c **** *    d2 = b2 * x[n] + a2 * y[n]
  55:Drivers/CMSIS/DSP/Source/FilteringFunctions/arm_biquad_cascade_stereo_df2T_f32.c **** * </pre>
  56:Drivers/CMSIS/DSP/Source/FilteringFunctions/arm_biquad_cascade_stereo_df2T_f32.c **** * where d1 and d2 represent the two state values.
  57:Drivers/CMSIS/DSP/Source/FilteringFunctions/arm_biquad_cascade_stereo_df2T_f32.c **** *
  58:Drivers/CMSIS/DSP/Source/FilteringFunctions/arm_biquad_cascade_stereo_df2T_f32.c **** * \par
  59:Drivers/CMSIS/DSP/Source/FilteringFunctions/arm_biquad_cascade_stereo_df2T_f32.c **** * A Biquad filter using a transposed Direct Form II structure is shown below.
  60:Drivers/CMSIS/DSP/Source/FilteringFunctions/arm_biquad_cascade_stereo_df2T_f32.c **** * \image html BiquadDF2Transposed.gif "Single transposed Direct Form II Biquad"
  61:Drivers/CMSIS/DSP/Source/FilteringFunctions/arm_biquad_cascade_stereo_df2T_f32.c **** * Coefficients <code>b0, b1, and b2 </code> multiply the input signal <code>x[n]</code> and are ref
  62:Drivers/CMSIS/DSP/Source/FilteringFunctions/arm_biquad_cascade_stereo_df2T_f32.c **** * Coefficients <code>a1</code> and <code>a2</code> multiply the output signal <code>y[n]</code> and
  63:Drivers/CMSIS/DSP/Source/FilteringFunctions/arm_biquad_cascade_stereo_df2T_f32.c **** * Pay careful attention to the sign of the feedback coefficients.
  64:Drivers/CMSIS/DSP/Source/FilteringFunctions/arm_biquad_cascade_stereo_df2T_f32.c **** * Some design tools flip the sign of the feedback coefficients:
  65:Drivers/CMSIS/DSP/Source/FilteringFunctions/arm_biquad_cascade_stereo_df2T_f32.c **** * <pre>
  66:Drivers/CMSIS/DSP/Source/FilteringFunctions/arm_biquad_cascade_stereo_df2T_f32.c **** *    y[n] = b0 * x[n] + d1;
  67:Drivers/CMSIS/DSP/Source/FilteringFunctions/arm_biquad_cascade_stereo_df2T_f32.c **** *    d1 = b1 * x[n] - a1 * y[n] + d2;
  68:Drivers/CMSIS/DSP/Source/FilteringFunctions/arm_biquad_cascade_stereo_df2T_f32.c **** *    d2 = b2 * x[n] - a2 * y[n];
  69:Drivers/CMSIS/DSP/Source/FilteringFunctions/arm_biquad_cascade_stereo_df2T_f32.c **** * </pre>
  70:Drivers/CMSIS/DSP/Source/FilteringFunctions/arm_biquad_cascade_stereo_df2T_f32.c **** * In this case the feedback coefficients <code>a1</code> and <code>a2</code> must be negated when u
  71:Drivers/CMSIS/DSP/Source/FilteringFunctions/arm_biquad_cascade_stereo_df2T_f32.c **** *
  72:Drivers/CMSIS/DSP/Source/FilteringFunctions/arm_biquad_cascade_stereo_df2T_f32.c **** * \par
  73:Drivers/CMSIS/DSP/Source/FilteringFunctions/arm_biquad_cascade_stereo_df2T_f32.c **** * Higher order filters are realized as a cascade of second order sections.
  74:Drivers/CMSIS/DSP/Source/FilteringFunctions/arm_biquad_cascade_stereo_df2T_f32.c **** * <code>numStages</code> refers to the number of second order stages used.
  75:Drivers/CMSIS/DSP/Source/FilteringFunctions/arm_biquad_cascade_stereo_df2T_f32.c **** * For example, an 8th order filter would be realized with <code>numStages=4</code> second order sta
  76:Drivers/CMSIS/DSP/Source/FilteringFunctions/arm_biquad_cascade_stereo_df2T_f32.c **** * A 9th order filter would be realized with <code>numStages=5</code> second order stages with the
  77:Drivers/CMSIS/DSP/Source/FilteringFunctions/arm_biquad_cascade_stereo_df2T_f32.c **** * coefficients for one of the stages configured as a first order filter (<code>b2=0</code> and <cod
  78:Drivers/CMSIS/DSP/Source/FilteringFunctions/arm_biquad_cascade_stereo_df2T_f32.c **** *
  79:Drivers/CMSIS/DSP/Source/FilteringFunctions/arm_biquad_cascade_stereo_df2T_f32.c **** * \par
  80:Drivers/CMSIS/DSP/Source/FilteringFunctions/arm_biquad_cascade_stereo_df2T_f32.c **** * <code>pState</code> points to the state variable array.
  81:Drivers/CMSIS/DSP/Source/FilteringFunctions/arm_biquad_cascade_stereo_df2T_f32.c **** * Each Biquad stage has 2 state variables <code>d1</code> and <code>d2</code>.
  82:Drivers/CMSIS/DSP/Source/FilteringFunctions/arm_biquad_cascade_stereo_df2T_f32.c **** * The state variables are arranged in the <code>pState</code> array as:
  83:Drivers/CMSIS/DSP/Source/FilteringFunctions/arm_biquad_cascade_stereo_df2T_f32.c **** * <pre>
  84:Drivers/CMSIS/DSP/Source/FilteringFunctions/arm_biquad_cascade_stereo_df2T_f32.c **** *     {d11, d12, d21, d22, ...}
  85:Drivers/CMSIS/DSP/Source/FilteringFunctions/arm_biquad_cascade_stereo_df2T_f32.c **** * </pre>
  86:Drivers/CMSIS/DSP/Source/FilteringFunctions/arm_biquad_cascade_stereo_df2T_f32.c **** * where <code>d1x</code> refers to the state variables for the first Biquad and
  87:Drivers/CMSIS/DSP/Source/FilteringFunctions/arm_biquad_cascade_stereo_df2T_f32.c **** * <code>d2x</code> refers to the state variables for the second Biquad.
ARM GAS  /var/folders/n6/c271nzx11xl4r4_m7sqjlt0m0000gn/T//ccsvuvwZ.s 			page 3


  88:Drivers/CMSIS/DSP/Source/FilteringFunctions/arm_biquad_cascade_stereo_df2T_f32.c **** * The state array has a total length of <code>2*numStages</code> values.
  89:Drivers/CMSIS/DSP/Source/FilteringFunctions/arm_biquad_cascade_stereo_df2T_f32.c **** * The state variables are updated after each block of data is processed; the coefficients are untou
  90:Drivers/CMSIS/DSP/Source/FilteringFunctions/arm_biquad_cascade_stereo_df2T_f32.c **** *
  91:Drivers/CMSIS/DSP/Source/FilteringFunctions/arm_biquad_cascade_stereo_df2T_f32.c **** * \par
  92:Drivers/CMSIS/DSP/Source/FilteringFunctions/arm_biquad_cascade_stereo_df2T_f32.c **** * The CMSIS library contains Biquad filters in both Direct Form I and transposed Direct Form II.
  93:Drivers/CMSIS/DSP/Source/FilteringFunctions/arm_biquad_cascade_stereo_df2T_f32.c **** * The advantage of the Direct Form I structure is that it is numerically more robust for fixed-poin
  94:Drivers/CMSIS/DSP/Source/FilteringFunctions/arm_biquad_cascade_stereo_df2T_f32.c **** * That is why the Direct Form I structure supports Q15 and Q31 data types.
  95:Drivers/CMSIS/DSP/Source/FilteringFunctions/arm_biquad_cascade_stereo_df2T_f32.c **** * The transposed Direct Form II structure, on the other hand, requires a wide dynamic range for the
  96:Drivers/CMSIS/DSP/Source/FilteringFunctions/arm_biquad_cascade_stereo_df2T_f32.c **** * Because of this, the CMSIS library only has a floating-point version of the Direct Form II Biquad
  97:Drivers/CMSIS/DSP/Source/FilteringFunctions/arm_biquad_cascade_stereo_df2T_f32.c **** * The advantage of the Direct Form II Biquad is that it requires half the number of state variables
  98:Drivers/CMSIS/DSP/Source/FilteringFunctions/arm_biquad_cascade_stereo_df2T_f32.c **** *
  99:Drivers/CMSIS/DSP/Source/FilteringFunctions/arm_biquad_cascade_stereo_df2T_f32.c **** * \par Instance Structure
 100:Drivers/CMSIS/DSP/Source/FilteringFunctions/arm_biquad_cascade_stereo_df2T_f32.c **** * The coefficients and state variables for a filter are stored together in an instance data structu
 101:Drivers/CMSIS/DSP/Source/FilteringFunctions/arm_biquad_cascade_stereo_df2T_f32.c **** * A separate instance structure must be defined for each filter.
 102:Drivers/CMSIS/DSP/Source/FilteringFunctions/arm_biquad_cascade_stereo_df2T_f32.c **** * Coefficient arrays may be shared among several instances while state variable arrays cannot be sh
 103:Drivers/CMSIS/DSP/Source/FilteringFunctions/arm_biquad_cascade_stereo_df2T_f32.c **** *
 104:Drivers/CMSIS/DSP/Source/FilteringFunctions/arm_biquad_cascade_stereo_df2T_f32.c **** * \par Init Functions
 105:Drivers/CMSIS/DSP/Source/FilteringFunctions/arm_biquad_cascade_stereo_df2T_f32.c **** * There is also an associated initialization function.
 106:Drivers/CMSIS/DSP/Source/FilteringFunctions/arm_biquad_cascade_stereo_df2T_f32.c **** * The initialization function performs following operations:
 107:Drivers/CMSIS/DSP/Source/FilteringFunctions/arm_biquad_cascade_stereo_df2T_f32.c **** * - Sets the values of the internal structure fields.
 108:Drivers/CMSIS/DSP/Source/FilteringFunctions/arm_biquad_cascade_stereo_df2T_f32.c **** * - Zeros out the values in the state buffer.
 109:Drivers/CMSIS/DSP/Source/FilteringFunctions/arm_biquad_cascade_stereo_df2T_f32.c **** * To do this manually without calling the init function, assign the follow subfields of the instanc
 110:Drivers/CMSIS/DSP/Source/FilteringFunctions/arm_biquad_cascade_stereo_df2T_f32.c **** * numStages, pCoeffs, pState. Also set all of the values in pState to zero.
 111:Drivers/CMSIS/DSP/Source/FilteringFunctions/arm_biquad_cascade_stereo_df2T_f32.c **** *
 112:Drivers/CMSIS/DSP/Source/FilteringFunctions/arm_biquad_cascade_stereo_df2T_f32.c **** * \par
 113:Drivers/CMSIS/DSP/Source/FilteringFunctions/arm_biquad_cascade_stereo_df2T_f32.c **** * Use of the initialization function is optional.
 114:Drivers/CMSIS/DSP/Source/FilteringFunctions/arm_biquad_cascade_stereo_df2T_f32.c **** * However, if the initialization function is used, then the instance structure cannot be placed int
 115:Drivers/CMSIS/DSP/Source/FilteringFunctions/arm_biquad_cascade_stereo_df2T_f32.c **** * To place an instance structure into a const data section, the instance structure must be manually
 116:Drivers/CMSIS/DSP/Source/FilteringFunctions/arm_biquad_cascade_stereo_df2T_f32.c **** * Set the values in the state buffer to zeros before static initialization.
 117:Drivers/CMSIS/DSP/Source/FilteringFunctions/arm_biquad_cascade_stereo_df2T_f32.c **** * For example, to statically initialize the instance structure use
 118:Drivers/CMSIS/DSP/Source/FilteringFunctions/arm_biquad_cascade_stereo_df2T_f32.c **** * <pre>
 119:Drivers/CMSIS/DSP/Source/FilteringFunctions/arm_biquad_cascade_stereo_df2T_f32.c **** *     arm_biquad_cascade_df2T_instance_f32 S1 = {numStages, pState, pCoeffs};
 120:Drivers/CMSIS/DSP/Source/FilteringFunctions/arm_biquad_cascade_stereo_df2T_f32.c **** * </pre>
 121:Drivers/CMSIS/DSP/Source/FilteringFunctions/arm_biquad_cascade_stereo_df2T_f32.c **** * where <code>numStages</code> is the number of Biquad stages in the filter; <code>pState</code> is
 122:Drivers/CMSIS/DSP/Source/FilteringFunctions/arm_biquad_cascade_stereo_df2T_f32.c **** * <code>pCoeffs</code> is the address of the coefficient buffer;
 123:Drivers/CMSIS/DSP/Source/FilteringFunctions/arm_biquad_cascade_stereo_df2T_f32.c **** *
 124:Drivers/CMSIS/DSP/Source/FilteringFunctions/arm_biquad_cascade_stereo_df2T_f32.c **** */
 125:Drivers/CMSIS/DSP/Source/FilteringFunctions/arm_biquad_cascade_stereo_df2T_f32.c **** 
 126:Drivers/CMSIS/DSP/Source/FilteringFunctions/arm_biquad_cascade_stereo_df2T_f32.c **** /**
 127:Drivers/CMSIS/DSP/Source/FilteringFunctions/arm_biquad_cascade_stereo_df2T_f32.c **** * @addtogroup BiquadCascadeDF2T
 128:Drivers/CMSIS/DSP/Source/FilteringFunctions/arm_biquad_cascade_stereo_df2T_f32.c **** * @{
 129:Drivers/CMSIS/DSP/Source/FilteringFunctions/arm_biquad_cascade_stereo_df2T_f32.c **** */
 130:Drivers/CMSIS/DSP/Source/FilteringFunctions/arm_biquad_cascade_stereo_df2T_f32.c **** 
 131:Drivers/CMSIS/DSP/Source/FilteringFunctions/arm_biquad_cascade_stereo_df2T_f32.c **** /**
 132:Drivers/CMSIS/DSP/Source/FilteringFunctions/arm_biquad_cascade_stereo_df2T_f32.c **** * @brief Processing function for the floating-point transposed direct form II Biquad cascade filter
 133:Drivers/CMSIS/DSP/Source/FilteringFunctions/arm_biquad_cascade_stereo_df2T_f32.c **** * @param[in]  *S        points to an instance of the filter data structure.
 134:Drivers/CMSIS/DSP/Source/FilteringFunctions/arm_biquad_cascade_stereo_df2T_f32.c **** * @param[in]  *pSrc     points to the block of input data.
 135:Drivers/CMSIS/DSP/Source/FilteringFunctions/arm_biquad_cascade_stereo_df2T_f32.c **** * @param[out] *pDst     points to the block of output data
 136:Drivers/CMSIS/DSP/Source/FilteringFunctions/arm_biquad_cascade_stereo_df2T_f32.c **** * @param[in]  blockSize number of samples to process.
 137:Drivers/CMSIS/DSP/Source/FilteringFunctions/arm_biquad_cascade_stereo_df2T_f32.c **** * @return none.
 138:Drivers/CMSIS/DSP/Source/FilteringFunctions/arm_biquad_cascade_stereo_df2T_f32.c **** */
 139:Drivers/CMSIS/DSP/Source/FilteringFunctions/arm_biquad_cascade_stereo_df2T_f32.c **** 
 140:Drivers/CMSIS/DSP/Source/FilteringFunctions/arm_biquad_cascade_stereo_df2T_f32.c **** 
 141:Drivers/CMSIS/DSP/Source/FilteringFunctions/arm_biquad_cascade_stereo_df2T_f32.c **** LOW_OPTIMIZATION_ENTER
 142:Drivers/CMSIS/DSP/Source/FilteringFunctions/arm_biquad_cascade_stereo_df2T_f32.c **** void arm_biquad_cascade_stereo_df2T_f32(
 143:Drivers/CMSIS/DSP/Source/FilteringFunctions/arm_biquad_cascade_stereo_df2T_f32.c **** const arm_biquad_cascade_stereo_df2T_instance_f32 * S,
 144:Drivers/CMSIS/DSP/Source/FilteringFunctions/arm_biquad_cascade_stereo_df2T_f32.c **** float32_t * pSrc,
ARM GAS  /var/folders/n6/c271nzx11xl4r4_m7sqjlt0m0000gn/T//ccsvuvwZ.s 			page 4


 145:Drivers/CMSIS/DSP/Source/FilteringFunctions/arm_biquad_cascade_stereo_df2T_f32.c **** float32_t * pDst,
 146:Drivers/CMSIS/DSP/Source/FilteringFunctions/arm_biquad_cascade_stereo_df2T_f32.c **** uint32_t blockSize)
 147:Drivers/CMSIS/DSP/Source/FilteringFunctions/arm_biquad_cascade_stereo_df2T_f32.c **** {
  29              		.loc 1 147 1 view -0
  30              		.cfi_startproc
  31              		@ args = 0, pretend = 0, frame = 0
  32              		@ frame_needed = 0, uses_anonymous_args = 0
  33              		.loc 1 147 1 is_stmt 0 view .LVU1
  34 0000 2DE9F04F 		push	{r4, r5, r6, r7, r8, r9, r10, fp, lr}
  35              		.cfi_def_cfa_offset 36
  36              		.cfi_offset 4, -36
  37              		.cfi_offset 5, -32
  38              		.cfi_offset 6, -28
  39              		.cfi_offset 7, -24
  40              		.cfi_offset 8, -20
  41              		.cfi_offset 9, -16
  42              		.cfi_offset 10, -12
  43              		.cfi_offset 11, -8
  44              		.cfi_offset 14, -4
  45 0004 2DED0C8B 		vpush.64	{d8, d9, d10, d11, d12, d13}
  46              		.cfi_def_cfa_offset 84
  47              		.cfi_offset 80, -84
  48              		.cfi_offset 81, -80
  49              		.cfi_offset 82, -76
  50              		.cfi_offset 83, -72
  51              		.cfi_offset 84, -68
  52              		.cfi_offset 85, -64
  53              		.cfi_offset 86, -60
  54              		.cfi_offset 87, -56
  55              		.cfi_offset 88, -52
  56              		.cfi_offset 89, -48
  57              		.cfi_offset 90, -44
  58              		.cfi_offset 91, -40
  59 0008 1546     		mov	r5, r2
 148:Drivers/CMSIS/DSP/Source/FilteringFunctions/arm_biquad_cascade_stereo_df2T_f32.c **** 
 149:Drivers/CMSIS/DSP/Source/FilteringFunctions/arm_biquad_cascade_stereo_df2T_f32.c ****     float32_t *pIn = pSrc;                         /*  source pointer            */
  60              		.loc 1 149 5 is_stmt 1 view .LVU2
  61              	.LVL1:
 150:Drivers/CMSIS/DSP/Source/FilteringFunctions/arm_biquad_cascade_stereo_df2T_f32.c ****     float32_t *pOut = pDst;                        /*  destination pointer       */
  62              		.loc 1 150 5 view .LVU3
 151:Drivers/CMSIS/DSP/Source/FilteringFunctions/arm_biquad_cascade_stereo_df2T_f32.c ****     float32_t *pState = S->pState;                 /*  State pointer             */
  63              		.loc 1 151 5 view .LVU4
 152:Drivers/CMSIS/DSP/Source/FilteringFunctions/arm_biquad_cascade_stereo_df2T_f32.c ****     float32_t *pCoeffs = S->pCoeffs;               /*  coefficient pointer       */
  64              		.loc 1 152 5 view .LVU5
 153:Drivers/CMSIS/DSP/Source/FilteringFunctions/arm_biquad_cascade_stereo_df2T_f32.c ****     float32_t acc1a, acc1b;                        /*  accumulator               */
  65              		.loc 1 153 5 view .LVU6
 154:Drivers/CMSIS/DSP/Source/FilteringFunctions/arm_biquad_cascade_stereo_df2T_f32.c ****     float32_t b0, b1, b2, a1, a2;                  /*  Filter coefficients       */
  66              		.loc 1 154 5 view .LVU7
 155:Drivers/CMSIS/DSP/Source/FilteringFunctions/arm_biquad_cascade_stereo_df2T_f32.c ****     float32_t Xn1a, Xn1b;                          /*  temporary input           */
  67              		.loc 1 155 5 view .LVU8
 156:Drivers/CMSIS/DSP/Source/FilteringFunctions/arm_biquad_cascade_stereo_df2T_f32.c ****     float32_t d1a, d2a, d1b, d2b;                  /*  state variables           */
  68              		.loc 1 156 5 view .LVU9
 157:Drivers/CMSIS/DSP/Source/FilteringFunctions/arm_biquad_cascade_stereo_df2T_f32.c ****     uint32_t sample, stage = S->numStages;         /*  loop counters             */
  69              		.loc 1 157 5 view .LVU10
  70              		.loc 1 157 22 is_stmt 0 view .LVU11
  71 000a 0478     		ldrb	r4, [r0]	@ zero_extendqisi2
  72              	.LVL2:
ARM GAS  /var/folders/n6/c271nzx11xl4r4_m7sqjlt0m0000gn/T//ccsvuvwZ.s 			page 5


 158:Drivers/CMSIS/DSP/Source/FilteringFunctions/arm_biquad_cascade_stereo_df2T_f32.c **** 
 159:Drivers/CMSIS/DSP/Source/FilteringFunctions/arm_biquad_cascade_stereo_df2T_f32.c **** #if defined(ARM_MATH_CM7)
 160:Drivers/CMSIS/DSP/Source/FilteringFunctions/arm_biquad_cascade_stereo_df2T_f32.c **** 
 161:Drivers/CMSIS/DSP/Source/FilteringFunctions/arm_biquad_cascade_stereo_df2T_f32.c ****     float32_t Xn2a, Xn3a, Xn4a, Xn5a, Xn6a, Xn7a, Xn8a;         /*  Input State variables     */
 162:Drivers/CMSIS/DSP/Source/FilteringFunctions/arm_biquad_cascade_stereo_df2T_f32.c ****     float32_t Xn2b, Xn3b, Xn4b, Xn5b, Xn6b, Xn7b, Xn8b;         /*  Input State variables     */
 163:Drivers/CMSIS/DSP/Source/FilteringFunctions/arm_biquad_cascade_stereo_df2T_f32.c ****     float32_t acc2a, acc3a, acc4a, acc5a, acc6a, acc7a, acc8a;  /*  Simulates the accumulator */
 164:Drivers/CMSIS/DSP/Source/FilteringFunctions/arm_biquad_cascade_stereo_df2T_f32.c ****     float32_t acc2b, acc3b, acc4b, acc5b, acc6b, acc7b, acc8b;  /*  Simulates the accumulator */
 165:Drivers/CMSIS/DSP/Source/FilteringFunctions/arm_biquad_cascade_stereo_df2T_f32.c **** 
 166:Drivers/CMSIS/DSP/Source/FilteringFunctions/arm_biquad_cascade_stereo_df2T_f32.c ****     do
 167:Drivers/CMSIS/DSP/Source/FilteringFunctions/arm_biquad_cascade_stereo_df2T_f32.c ****     {
 168:Drivers/CMSIS/DSP/Source/FilteringFunctions/arm_biquad_cascade_stereo_df2T_f32.c ****         /* Reading the coefficients */
 169:Drivers/CMSIS/DSP/Source/FilteringFunctions/arm_biquad_cascade_stereo_df2T_f32.c ****         b0 = pCoeffs[0];
 170:Drivers/CMSIS/DSP/Source/FilteringFunctions/arm_biquad_cascade_stereo_df2T_f32.c ****         b1 = pCoeffs[1];
 171:Drivers/CMSIS/DSP/Source/FilteringFunctions/arm_biquad_cascade_stereo_df2T_f32.c ****         b2 = pCoeffs[2];
 172:Drivers/CMSIS/DSP/Source/FilteringFunctions/arm_biquad_cascade_stereo_df2T_f32.c ****         a1 = pCoeffs[3];
 173:Drivers/CMSIS/DSP/Source/FilteringFunctions/arm_biquad_cascade_stereo_df2T_f32.c ****         /* Apply loop unrolling and compute 8 output values simultaneously. */
 174:Drivers/CMSIS/DSP/Source/FilteringFunctions/arm_biquad_cascade_stereo_df2T_f32.c ****         sample = blockSize >> 3U;
  73              		.loc 1 174 16 view .LVU12
  74 000c DE08     		lsrs	r6, r3, #3
  75 000e 8268     		ldr	r2, [r0, #8]
  76              	.LVL3:
  77              		.loc 1 174 16 view .LVU13
  78 0010 02F1140E 		add	lr, r2, #20
  79 0014 4268     		ldr	r2, [r0, #4]
  80 0016 02F1100C 		add	ip, r2, #16
  81 001a 4FEA861A 		lsl	r10, r6, #6
  82 001e 05EB8619 		add	r9, r5, r6, lsl #6
 175:Drivers/CMSIS/DSP/Source/FilteringFunctions/arm_biquad_cascade_stereo_df2T_f32.c ****         a2 = pCoeffs[4];
 176:Drivers/CMSIS/DSP/Source/FilteringFunctions/arm_biquad_cascade_stereo_df2T_f32.c **** 
 177:Drivers/CMSIS/DSP/Source/FilteringFunctions/arm_biquad_cascade_stereo_df2T_f32.c ****         /*Reading the state values */
 178:Drivers/CMSIS/DSP/Source/FilteringFunctions/arm_biquad_cascade_stereo_df2T_f32.c ****         d1a = pState[0];
 179:Drivers/CMSIS/DSP/Source/FilteringFunctions/arm_biquad_cascade_stereo_df2T_f32.c ****         d2a = pState[1];
 180:Drivers/CMSIS/DSP/Source/FilteringFunctions/arm_biquad_cascade_stereo_df2T_f32.c ****         d1b = pState[2];
 181:Drivers/CMSIS/DSP/Source/FilteringFunctions/arm_biquad_cascade_stereo_df2T_f32.c ****         d2b = pState[3];
 182:Drivers/CMSIS/DSP/Source/FilteringFunctions/arm_biquad_cascade_stereo_df2T_f32.c **** 
 183:Drivers/CMSIS/DSP/Source/FilteringFunctions/arm_biquad_cascade_stereo_df2T_f32.c ****         pCoeffs += 5U;
 184:Drivers/CMSIS/DSP/Source/FilteringFunctions/arm_biquad_cascade_stereo_df2T_f32.c **** 
 185:Drivers/CMSIS/DSP/Source/FilteringFunctions/arm_biquad_cascade_stereo_df2T_f32.c ****         /* First part of the processing with loop unrolling.  Compute 8 outputs at a time.
 186:Drivers/CMSIS/DSP/Source/FilteringFunctions/arm_biquad_cascade_stereo_df2T_f32.c ****         ** a second loop below computes the remaining 1 to 7 samples. */
 187:Drivers/CMSIS/DSP/Source/FilteringFunctions/arm_biquad_cascade_stereo_df2T_f32.c ****         while (sample > 0U) {
 188:Drivers/CMSIS/DSP/Source/FilteringFunctions/arm_biquad_cascade_stereo_df2T_f32.c **** 
 189:Drivers/CMSIS/DSP/Source/FilteringFunctions/arm_biquad_cascade_stereo_df2T_f32.c ****             /* y[n] = b0 * x[n] + d1 */
 190:Drivers/CMSIS/DSP/Source/FilteringFunctions/arm_biquad_cascade_stereo_df2T_f32.c ****             /* d1 = b1 * x[n] + a1 * y[n] + d2 */
 191:Drivers/CMSIS/DSP/Source/FilteringFunctions/arm_biquad_cascade_stereo_df2T_f32.c ****             /* d2 = b2 * x[n] + a2 * y[n] */
 192:Drivers/CMSIS/DSP/Source/FilteringFunctions/arm_biquad_cascade_stereo_df2T_f32.c **** 
 193:Drivers/CMSIS/DSP/Source/FilteringFunctions/arm_biquad_cascade_stereo_df2T_f32.c ****             /* Read the first 2 inputs. 2 cycles */
 194:Drivers/CMSIS/DSP/Source/FilteringFunctions/arm_biquad_cascade_stereo_df2T_f32.c ****             Xn1a  = pIn[0 ];
 195:Drivers/CMSIS/DSP/Source/FilteringFunctions/arm_biquad_cascade_stereo_df2T_f32.c ****             Xn1b  = pIn[1 ];
 196:Drivers/CMSIS/DSP/Source/FilteringFunctions/arm_biquad_cascade_stereo_df2T_f32.c **** 
 197:Drivers/CMSIS/DSP/Source/FilteringFunctions/arm_biquad_cascade_stereo_df2T_f32.c ****             /* Sample 1. 5 cycles */
 198:Drivers/CMSIS/DSP/Source/FilteringFunctions/arm_biquad_cascade_stereo_df2T_f32.c ****             Xn2a  = pIn[2 ];
 199:Drivers/CMSIS/DSP/Source/FilteringFunctions/arm_biquad_cascade_stereo_df2T_f32.c ****             acc1a = b0 * Xn1a + d1a;
 200:Drivers/CMSIS/DSP/Source/FilteringFunctions/arm_biquad_cascade_stereo_df2T_f32.c **** 
 201:Drivers/CMSIS/DSP/Source/FilteringFunctions/arm_biquad_cascade_stereo_df2T_f32.c ****             Xn2b  = pIn[3 ];
 202:Drivers/CMSIS/DSP/Source/FilteringFunctions/arm_biquad_cascade_stereo_df2T_f32.c ****             d1a = b1 * Xn1a + d2a;
 203:Drivers/CMSIS/DSP/Source/FilteringFunctions/arm_biquad_cascade_stereo_df2T_f32.c **** 
 204:Drivers/CMSIS/DSP/Source/FilteringFunctions/arm_biquad_cascade_stereo_df2T_f32.c ****             Xn3a  = pIn[4 ];
ARM GAS  /var/folders/n6/c271nzx11xl4r4_m7sqjlt0m0000gn/T//ccsvuvwZ.s 			page 6


 205:Drivers/CMSIS/DSP/Source/FilteringFunctions/arm_biquad_cascade_stereo_df2T_f32.c ****             d2a = b2 * Xn1a;
 206:Drivers/CMSIS/DSP/Source/FilteringFunctions/arm_biquad_cascade_stereo_df2T_f32.c **** 
 207:Drivers/CMSIS/DSP/Source/FilteringFunctions/arm_biquad_cascade_stereo_df2T_f32.c ****             Xn3b  = pIn[5 ];
 208:Drivers/CMSIS/DSP/Source/FilteringFunctions/arm_biquad_cascade_stereo_df2T_f32.c ****             d1a += a1 * acc1a;
 209:Drivers/CMSIS/DSP/Source/FilteringFunctions/arm_biquad_cascade_stereo_df2T_f32.c **** 
 210:Drivers/CMSIS/DSP/Source/FilteringFunctions/arm_biquad_cascade_stereo_df2T_f32.c ****             Xn4a  = pIn[6 ];
 211:Drivers/CMSIS/DSP/Source/FilteringFunctions/arm_biquad_cascade_stereo_df2T_f32.c ****             d2a += a2 * acc1a;
 212:Drivers/CMSIS/DSP/Source/FilteringFunctions/arm_biquad_cascade_stereo_df2T_f32.c **** 
 213:Drivers/CMSIS/DSP/Source/FilteringFunctions/arm_biquad_cascade_stereo_df2T_f32.c ****             /* Sample 2. 5 cycles */
 214:Drivers/CMSIS/DSP/Source/FilteringFunctions/arm_biquad_cascade_stereo_df2T_f32.c ****             Xn4b  = pIn[7 ];
 215:Drivers/CMSIS/DSP/Source/FilteringFunctions/arm_biquad_cascade_stereo_df2T_f32.c ****             acc1b = b0 * Xn1b + d1b;
 216:Drivers/CMSIS/DSP/Source/FilteringFunctions/arm_biquad_cascade_stereo_df2T_f32.c **** 
 217:Drivers/CMSIS/DSP/Source/FilteringFunctions/arm_biquad_cascade_stereo_df2T_f32.c ****             Xn5a  = pIn[8 ];
 218:Drivers/CMSIS/DSP/Source/FilteringFunctions/arm_biquad_cascade_stereo_df2T_f32.c ****             d1b = b1 * Xn1b + d2b;
 219:Drivers/CMSIS/DSP/Source/FilteringFunctions/arm_biquad_cascade_stereo_df2T_f32.c **** 
 220:Drivers/CMSIS/DSP/Source/FilteringFunctions/arm_biquad_cascade_stereo_df2T_f32.c ****             Xn5b = pIn[9 ];
 221:Drivers/CMSIS/DSP/Source/FilteringFunctions/arm_biquad_cascade_stereo_df2T_f32.c ****             d2b = b2 * Xn1b;
 222:Drivers/CMSIS/DSP/Source/FilteringFunctions/arm_biquad_cascade_stereo_df2T_f32.c **** 
 223:Drivers/CMSIS/DSP/Source/FilteringFunctions/arm_biquad_cascade_stereo_df2T_f32.c ****             Xn6a = pIn[10];
 224:Drivers/CMSIS/DSP/Source/FilteringFunctions/arm_biquad_cascade_stereo_df2T_f32.c ****             d1b += a1 * acc1b;
 225:Drivers/CMSIS/DSP/Source/FilteringFunctions/arm_biquad_cascade_stereo_df2T_f32.c **** 
 226:Drivers/CMSIS/DSP/Source/FilteringFunctions/arm_biquad_cascade_stereo_df2T_f32.c ****             Xn6b = pIn[11];
 227:Drivers/CMSIS/DSP/Source/FilteringFunctions/arm_biquad_cascade_stereo_df2T_f32.c ****             d2b += a2 * acc1b;
 228:Drivers/CMSIS/DSP/Source/FilteringFunctions/arm_biquad_cascade_stereo_df2T_f32.c **** 
 229:Drivers/CMSIS/DSP/Source/FilteringFunctions/arm_biquad_cascade_stereo_df2T_f32.c ****             /* Sample 3. 5 cycles */
 230:Drivers/CMSIS/DSP/Source/FilteringFunctions/arm_biquad_cascade_stereo_df2T_f32.c ****             Xn7a = pIn[12];
 231:Drivers/CMSIS/DSP/Source/FilteringFunctions/arm_biquad_cascade_stereo_df2T_f32.c ****             acc2a = b0 * Xn2a + d1a;
 232:Drivers/CMSIS/DSP/Source/FilteringFunctions/arm_biquad_cascade_stereo_df2T_f32.c **** 
 233:Drivers/CMSIS/DSP/Source/FilteringFunctions/arm_biquad_cascade_stereo_df2T_f32.c ****             Xn7b = pIn[13];
 234:Drivers/CMSIS/DSP/Source/FilteringFunctions/arm_biquad_cascade_stereo_df2T_f32.c ****             d1a = b1 * Xn2a + d2a;
 235:Drivers/CMSIS/DSP/Source/FilteringFunctions/arm_biquad_cascade_stereo_df2T_f32.c **** 
 236:Drivers/CMSIS/DSP/Source/FilteringFunctions/arm_biquad_cascade_stereo_df2T_f32.c ****             Xn8a = pIn[14];
 237:Drivers/CMSIS/DSP/Source/FilteringFunctions/arm_biquad_cascade_stereo_df2T_f32.c ****             d2a = b2 * Xn2a;
 238:Drivers/CMSIS/DSP/Source/FilteringFunctions/arm_biquad_cascade_stereo_df2T_f32.c **** 
 239:Drivers/CMSIS/DSP/Source/FilteringFunctions/arm_biquad_cascade_stereo_df2T_f32.c ****             Xn8b = pIn[15];
 240:Drivers/CMSIS/DSP/Source/FilteringFunctions/arm_biquad_cascade_stereo_df2T_f32.c ****             d1a += a1 * acc2a;
 241:Drivers/CMSIS/DSP/Source/FilteringFunctions/arm_biquad_cascade_stereo_df2T_f32.c **** 
 242:Drivers/CMSIS/DSP/Source/FilteringFunctions/arm_biquad_cascade_stereo_df2T_f32.c ****             pIn += 16;
 243:Drivers/CMSIS/DSP/Source/FilteringFunctions/arm_biquad_cascade_stereo_df2T_f32.c ****             d2a += a2 * acc2a;
 244:Drivers/CMSIS/DSP/Source/FilteringFunctions/arm_biquad_cascade_stereo_df2T_f32.c **** 
 245:Drivers/CMSIS/DSP/Source/FilteringFunctions/arm_biquad_cascade_stereo_df2T_f32.c ****             /* Sample 4. 5 cycles */
 246:Drivers/CMSIS/DSP/Source/FilteringFunctions/arm_biquad_cascade_stereo_df2T_f32.c ****             acc2b = b0 * Xn2b + d1b;
 247:Drivers/CMSIS/DSP/Source/FilteringFunctions/arm_biquad_cascade_stereo_df2T_f32.c ****             d1b = b1 * Xn2b + d2b;
 248:Drivers/CMSIS/DSP/Source/FilteringFunctions/arm_biquad_cascade_stereo_df2T_f32.c ****             d2b = b2 * Xn2b;
 249:Drivers/CMSIS/DSP/Source/FilteringFunctions/arm_biquad_cascade_stereo_df2T_f32.c ****             d1b += a1 * acc2b;
 250:Drivers/CMSIS/DSP/Source/FilteringFunctions/arm_biquad_cascade_stereo_df2T_f32.c ****             d2b += a2 * acc2b;
 251:Drivers/CMSIS/DSP/Source/FilteringFunctions/arm_biquad_cascade_stereo_df2T_f32.c **** 
 252:Drivers/CMSIS/DSP/Source/FilteringFunctions/arm_biquad_cascade_stereo_df2T_f32.c ****             /* Sample 5. 5 cycles */
 253:Drivers/CMSIS/DSP/Source/FilteringFunctions/arm_biquad_cascade_stereo_df2T_f32.c ****             acc3a = b0 * Xn3a + d1a;
 254:Drivers/CMSIS/DSP/Source/FilteringFunctions/arm_biquad_cascade_stereo_df2T_f32.c ****             d1a = b1 * Xn3a + d2a;
 255:Drivers/CMSIS/DSP/Source/FilteringFunctions/arm_biquad_cascade_stereo_df2T_f32.c ****             d2a = b2 * Xn3a;
 256:Drivers/CMSIS/DSP/Source/FilteringFunctions/arm_biquad_cascade_stereo_df2T_f32.c ****             d1a += a1 * acc3a;
 257:Drivers/CMSIS/DSP/Source/FilteringFunctions/arm_biquad_cascade_stereo_df2T_f32.c ****             d2a += a2 * acc3a;
 258:Drivers/CMSIS/DSP/Source/FilteringFunctions/arm_biquad_cascade_stereo_df2T_f32.c **** 
 259:Drivers/CMSIS/DSP/Source/FilteringFunctions/arm_biquad_cascade_stereo_df2T_f32.c ****             /* Sample 6. 5 cycles */
 260:Drivers/CMSIS/DSP/Source/FilteringFunctions/arm_biquad_cascade_stereo_df2T_f32.c ****             acc3b = b0 * Xn3b + d1b;
 261:Drivers/CMSIS/DSP/Source/FilteringFunctions/arm_biquad_cascade_stereo_df2T_f32.c ****             d1b = b1 * Xn3b + d2b;
ARM GAS  /var/folders/n6/c271nzx11xl4r4_m7sqjlt0m0000gn/T//ccsvuvwZ.s 			page 7


 262:Drivers/CMSIS/DSP/Source/FilteringFunctions/arm_biquad_cascade_stereo_df2T_f32.c ****             d2b = b2 * Xn3b;
 263:Drivers/CMSIS/DSP/Source/FilteringFunctions/arm_biquad_cascade_stereo_df2T_f32.c ****             d1b += a1 * acc3b;
 264:Drivers/CMSIS/DSP/Source/FilteringFunctions/arm_biquad_cascade_stereo_df2T_f32.c ****             d2b += a2 * acc3b;
 265:Drivers/CMSIS/DSP/Source/FilteringFunctions/arm_biquad_cascade_stereo_df2T_f32.c **** 
 266:Drivers/CMSIS/DSP/Source/FilteringFunctions/arm_biquad_cascade_stereo_df2T_f32.c ****             /* Sample 7. 5 cycles */
 267:Drivers/CMSIS/DSP/Source/FilteringFunctions/arm_biquad_cascade_stereo_df2T_f32.c ****             acc4a = b0 * Xn4a + d1a;
 268:Drivers/CMSIS/DSP/Source/FilteringFunctions/arm_biquad_cascade_stereo_df2T_f32.c ****             d1a = b1 * Xn4a + d2a;
 269:Drivers/CMSIS/DSP/Source/FilteringFunctions/arm_biquad_cascade_stereo_df2T_f32.c ****             d2a = b2 * Xn4a;
 270:Drivers/CMSIS/DSP/Source/FilteringFunctions/arm_biquad_cascade_stereo_df2T_f32.c ****             d1a += a1 * acc4a;
 271:Drivers/CMSIS/DSP/Source/FilteringFunctions/arm_biquad_cascade_stereo_df2T_f32.c ****             d2a += a2 * acc4a;
 272:Drivers/CMSIS/DSP/Source/FilteringFunctions/arm_biquad_cascade_stereo_df2T_f32.c **** 
 273:Drivers/CMSIS/DSP/Source/FilteringFunctions/arm_biquad_cascade_stereo_df2T_f32.c ****             /* Sample 8. 5 cycles */
 274:Drivers/CMSIS/DSP/Source/FilteringFunctions/arm_biquad_cascade_stereo_df2T_f32.c ****             acc4b = b0 * Xn4b + d1b;
 275:Drivers/CMSIS/DSP/Source/FilteringFunctions/arm_biquad_cascade_stereo_df2T_f32.c ****             d1b = b1 * Xn4b + d2b;
 276:Drivers/CMSIS/DSP/Source/FilteringFunctions/arm_biquad_cascade_stereo_df2T_f32.c ****             d2b = b2 * Xn4b;
 277:Drivers/CMSIS/DSP/Source/FilteringFunctions/arm_biquad_cascade_stereo_df2T_f32.c ****             d1b += a1 * acc4b;
 278:Drivers/CMSIS/DSP/Source/FilteringFunctions/arm_biquad_cascade_stereo_df2T_f32.c ****             d2b += a2 * acc4b;
 279:Drivers/CMSIS/DSP/Source/FilteringFunctions/arm_biquad_cascade_stereo_df2T_f32.c **** 
 280:Drivers/CMSIS/DSP/Source/FilteringFunctions/arm_biquad_cascade_stereo_df2T_f32.c ****             /* Sample 9. 5 cycles */
 281:Drivers/CMSIS/DSP/Source/FilteringFunctions/arm_biquad_cascade_stereo_df2T_f32.c ****             acc5a = b0 * Xn5a + d1a;
 282:Drivers/CMSIS/DSP/Source/FilteringFunctions/arm_biquad_cascade_stereo_df2T_f32.c ****             d1a = b1 * Xn5a + d2a;
 283:Drivers/CMSIS/DSP/Source/FilteringFunctions/arm_biquad_cascade_stereo_df2T_f32.c ****             d2a = b2 * Xn5a;
 284:Drivers/CMSIS/DSP/Source/FilteringFunctions/arm_biquad_cascade_stereo_df2T_f32.c ****             d1a += a1 * acc5a;
 285:Drivers/CMSIS/DSP/Source/FilteringFunctions/arm_biquad_cascade_stereo_df2T_f32.c ****             d2a += a2 * acc5a;
 286:Drivers/CMSIS/DSP/Source/FilteringFunctions/arm_biquad_cascade_stereo_df2T_f32.c **** 
 287:Drivers/CMSIS/DSP/Source/FilteringFunctions/arm_biquad_cascade_stereo_df2T_f32.c ****             /* Sample 10. 5 cycles */
 288:Drivers/CMSIS/DSP/Source/FilteringFunctions/arm_biquad_cascade_stereo_df2T_f32.c ****             acc5b = b0 * Xn5b + d1b;
 289:Drivers/CMSIS/DSP/Source/FilteringFunctions/arm_biquad_cascade_stereo_df2T_f32.c ****             d1b = b1 * Xn5b + d2b;
 290:Drivers/CMSIS/DSP/Source/FilteringFunctions/arm_biquad_cascade_stereo_df2T_f32.c ****             d2b = b2 * Xn5b;
 291:Drivers/CMSIS/DSP/Source/FilteringFunctions/arm_biquad_cascade_stereo_df2T_f32.c ****             d1b += a1 * acc5b;
 292:Drivers/CMSIS/DSP/Source/FilteringFunctions/arm_biquad_cascade_stereo_df2T_f32.c ****             d2b += a2 * acc5b;
 293:Drivers/CMSIS/DSP/Source/FilteringFunctions/arm_biquad_cascade_stereo_df2T_f32.c **** 
 294:Drivers/CMSIS/DSP/Source/FilteringFunctions/arm_biquad_cascade_stereo_df2T_f32.c ****             /* Sample 11. 5 cycles */
 295:Drivers/CMSIS/DSP/Source/FilteringFunctions/arm_biquad_cascade_stereo_df2T_f32.c ****             acc6a = b0 * Xn6a + d1a;
 296:Drivers/CMSIS/DSP/Source/FilteringFunctions/arm_biquad_cascade_stereo_df2T_f32.c ****             d1a = b1 * Xn6a + d2a;
 297:Drivers/CMSIS/DSP/Source/FilteringFunctions/arm_biquad_cascade_stereo_df2T_f32.c ****             d2a = b2 * Xn6a;
 298:Drivers/CMSIS/DSP/Source/FilteringFunctions/arm_biquad_cascade_stereo_df2T_f32.c ****             d1a += a1 * acc6a;
 299:Drivers/CMSIS/DSP/Source/FilteringFunctions/arm_biquad_cascade_stereo_df2T_f32.c ****             d2a += a2 * acc6a;
 300:Drivers/CMSIS/DSP/Source/FilteringFunctions/arm_biquad_cascade_stereo_df2T_f32.c **** 
 301:Drivers/CMSIS/DSP/Source/FilteringFunctions/arm_biquad_cascade_stereo_df2T_f32.c ****             /* Sample 12. 5 cycles */
 302:Drivers/CMSIS/DSP/Source/FilteringFunctions/arm_biquad_cascade_stereo_df2T_f32.c ****             acc6b = b0 * Xn6b + d1b;
 303:Drivers/CMSIS/DSP/Source/FilteringFunctions/arm_biquad_cascade_stereo_df2T_f32.c ****             d1b = b1 * Xn6b + d2b;
 304:Drivers/CMSIS/DSP/Source/FilteringFunctions/arm_biquad_cascade_stereo_df2T_f32.c ****             d2b = b2 * Xn6b;
 305:Drivers/CMSIS/DSP/Source/FilteringFunctions/arm_biquad_cascade_stereo_df2T_f32.c ****             d1b += a1 * acc6b;
 306:Drivers/CMSIS/DSP/Source/FilteringFunctions/arm_biquad_cascade_stereo_df2T_f32.c ****             d2b += a2 * acc6b;
 307:Drivers/CMSIS/DSP/Source/FilteringFunctions/arm_biquad_cascade_stereo_df2T_f32.c **** 
 308:Drivers/CMSIS/DSP/Source/FilteringFunctions/arm_biquad_cascade_stereo_df2T_f32.c ****             /* Sample 13. 5 cycles */
 309:Drivers/CMSIS/DSP/Source/FilteringFunctions/arm_biquad_cascade_stereo_df2T_f32.c ****             acc7a = b0 * Xn7a + d1a;
 310:Drivers/CMSIS/DSP/Source/FilteringFunctions/arm_biquad_cascade_stereo_df2T_f32.c ****             d1a = b1 * Xn7a + d2a;
 311:Drivers/CMSIS/DSP/Source/FilteringFunctions/arm_biquad_cascade_stereo_df2T_f32.c **** 
 312:Drivers/CMSIS/DSP/Source/FilteringFunctions/arm_biquad_cascade_stereo_df2T_f32.c ****             pOut[0 ] = acc1a ;
 313:Drivers/CMSIS/DSP/Source/FilteringFunctions/arm_biquad_cascade_stereo_df2T_f32.c ****             d2a = b2 * Xn7a;
 314:Drivers/CMSIS/DSP/Source/FilteringFunctions/arm_biquad_cascade_stereo_df2T_f32.c **** 
 315:Drivers/CMSIS/DSP/Source/FilteringFunctions/arm_biquad_cascade_stereo_df2T_f32.c ****             pOut[1 ] = acc1b ;
 316:Drivers/CMSIS/DSP/Source/FilteringFunctions/arm_biquad_cascade_stereo_df2T_f32.c ****             d1a += a1 * acc7a;
 317:Drivers/CMSIS/DSP/Source/FilteringFunctions/arm_biquad_cascade_stereo_df2T_f32.c **** 
 318:Drivers/CMSIS/DSP/Source/FilteringFunctions/arm_biquad_cascade_stereo_df2T_f32.c ****             pOut[2 ] = acc2a ;
ARM GAS  /var/folders/n6/c271nzx11xl4r4_m7sqjlt0m0000gn/T//ccsvuvwZ.s 			page 8


 319:Drivers/CMSIS/DSP/Source/FilteringFunctions/arm_biquad_cascade_stereo_df2T_f32.c ****             d2a += a2 * acc7a;
 320:Drivers/CMSIS/DSP/Source/FilteringFunctions/arm_biquad_cascade_stereo_df2T_f32.c **** 
 321:Drivers/CMSIS/DSP/Source/FilteringFunctions/arm_biquad_cascade_stereo_df2T_f32.c ****             /* Sample 14. 5 cycles */
 322:Drivers/CMSIS/DSP/Source/FilteringFunctions/arm_biquad_cascade_stereo_df2T_f32.c ****             pOut[3 ] = acc2b ;
 323:Drivers/CMSIS/DSP/Source/FilteringFunctions/arm_biquad_cascade_stereo_df2T_f32.c ****             acc7b = b0 * Xn7b + d1b;
 324:Drivers/CMSIS/DSP/Source/FilteringFunctions/arm_biquad_cascade_stereo_df2T_f32.c **** 
 325:Drivers/CMSIS/DSP/Source/FilteringFunctions/arm_biquad_cascade_stereo_df2T_f32.c ****             pOut[4 ] = acc3a ;
 326:Drivers/CMSIS/DSP/Source/FilteringFunctions/arm_biquad_cascade_stereo_df2T_f32.c ****             d1b = b1 * Xn7b + d2b;
 327:Drivers/CMSIS/DSP/Source/FilteringFunctions/arm_biquad_cascade_stereo_df2T_f32.c **** 
 328:Drivers/CMSIS/DSP/Source/FilteringFunctions/arm_biquad_cascade_stereo_df2T_f32.c ****             pOut[5 ] = acc3b ;
 329:Drivers/CMSIS/DSP/Source/FilteringFunctions/arm_biquad_cascade_stereo_df2T_f32.c ****             d2b = b2 * Xn7b;
 330:Drivers/CMSIS/DSP/Source/FilteringFunctions/arm_biquad_cascade_stereo_df2T_f32.c **** 
 331:Drivers/CMSIS/DSP/Source/FilteringFunctions/arm_biquad_cascade_stereo_df2T_f32.c ****             pOut[6 ] = acc4a ;
 332:Drivers/CMSIS/DSP/Source/FilteringFunctions/arm_biquad_cascade_stereo_df2T_f32.c ****             d1b += a1 * acc7b;
 333:Drivers/CMSIS/DSP/Source/FilteringFunctions/arm_biquad_cascade_stereo_df2T_f32.c **** 
 334:Drivers/CMSIS/DSP/Source/FilteringFunctions/arm_biquad_cascade_stereo_df2T_f32.c ****             pOut[7 ] = acc4b ;
 335:Drivers/CMSIS/DSP/Source/FilteringFunctions/arm_biquad_cascade_stereo_df2T_f32.c ****             d2b += a2 * acc7b;
 336:Drivers/CMSIS/DSP/Source/FilteringFunctions/arm_biquad_cascade_stereo_df2T_f32.c **** 
 337:Drivers/CMSIS/DSP/Source/FilteringFunctions/arm_biquad_cascade_stereo_df2T_f32.c ****             /* Sample 15. 5 cycles */
 338:Drivers/CMSIS/DSP/Source/FilteringFunctions/arm_biquad_cascade_stereo_df2T_f32.c ****             pOut[8 ] = acc5a ;
 339:Drivers/CMSIS/DSP/Source/FilteringFunctions/arm_biquad_cascade_stereo_df2T_f32.c ****             acc8a = b0 * Xn8a + d1a;
 340:Drivers/CMSIS/DSP/Source/FilteringFunctions/arm_biquad_cascade_stereo_df2T_f32.c **** 
 341:Drivers/CMSIS/DSP/Source/FilteringFunctions/arm_biquad_cascade_stereo_df2T_f32.c ****             pOut[9 ] = acc5b;
 342:Drivers/CMSIS/DSP/Source/FilteringFunctions/arm_biquad_cascade_stereo_df2T_f32.c ****             d1a = b1 * Xn8a + d2a;
 343:Drivers/CMSIS/DSP/Source/FilteringFunctions/arm_biquad_cascade_stereo_df2T_f32.c **** 
 344:Drivers/CMSIS/DSP/Source/FilteringFunctions/arm_biquad_cascade_stereo_df2T_f32.c ****             pOut[10] = acc6a;
 345:Drivers/CMSIS/DSP/Source/FilteringFunctions/arm_biquad_cascade_stereo_df2T_f32.c ****             d2a = b2 * Xn8a;
 346:Drivers/CMSIS/DSP/Source/FilteringFunctions/arm_biquad_cascade_stereo_df2T_f32.c **** 
 347:Drivers/CMSIS/DSP/Source/FilteringFunctions/arm_biquad_cascade_stereo_df2T_f32.c ****             pOut[11] = acc6b;
 348:Drivers/CMSIS/DSP/Source/FilteringFunctions/arm_biquad_cascade_stereo_df2T_f32.c ****             d1a += a1 * acc8a;
 349:Drivers/CMSIS/DSP/Source/FilteringFunctions/arm_biquad_cascade_stereo_df2T_f32.c **** 
 350:Drivers/CMSIS/DSP/Source/FilteringFunctions/arm_biquad_cascade_stereo_df2T_f32.c ****             pOut[12] = acc7a;
 351:Drivers/CMSIS/DSP/Source/FilteringFunctions/arm_biquad_cascade_stereo_df2T_f32.c ****             d2a += a2 * acc8a;
 352:Drivers/CMSIS/DSP/Source/FilteringFunctions/arm_biquad_cascade_stereo_df2T_f32.c **** 
 353:Drivers/CMSIS/DSP/Source/FilteringFunctions/arm_biquad_cascade_stereo_df2T_f32.c ****             /* Sample 16. 5 cycles */
 354:Drivers/CMSIS/DSP/Source/FilteringFunctions/arm_biquad_cascade_stereo_df2T_f32.c ****             pOut[13] = acc7b;
 355:Drivers/CMSIS/DSP/Source/FilteringFunctions/arm_biquad_cascade_stereo_df2T_f32.c ****             acc8b = b0 * Xn8b + d1b;
 356:Drivers/CMSIS/DSP/Source/FilteringFunctions/arm_biquad_cascade_stereo_df2T_f32.c **** 
 357:Drivers/CMSIS/DSP/Source/FilteringFunctions/arm_biquad_cascade_stereo_df2T_f32.c ****             pOut[14] = acc8a;
 358:Drivers/CMSIS/DSP/Source/FilteringFunctions/arm_biquad_cascade_stereo_df2T_f32.c ****             d1b = b1 * Xn8b + d2b;
 359:Drivers/CMSIS/DSP/Source/FilteringFunctions/arm_biquad_cascade_stereo_df2T_f32.c **** 
 360:Drivers/CMSIS/DSP/Source/FilteringFunctions/arm_biquad_cascade_stereo_df2T_f32.c ****             pOut[15] = acc8b;
 361:Drivers/CMSIS/DSP/Source/FilteringFunctions/arm_biquad_cascade_stereo_df2T_f32.c ****             d2b = b2 * Xn8b;
 362:Drivers/CMSIS/DSP/Source/FilteringFunctions/arm_biquad_cascade_stereo_df2T_f32.c **** 
 363:Drivers/CMSIS/DSP/Source/FilteringFunctions/arm_biquad_cascade_stereo_df2T_f32.c ****             sample--;
 364:Drivers/CMSIS/DSP/Source/FilteringFunctions/arm_biquad_cascade_stereo_df2T_f32.c ****             d1b += a1 * acc8b;
 365:Drivers/CMSIS/DSP/Source/FilteringFunctions/arm_biquad_cascade_stereo_df2T_f32.c **** 
 366:Drivers/CMSIS/DSP/Source/FilteringFunctions/arm_biquad_cascade_stereo_df2T_f32.c ****             pOut += 16;
 367:Drivers/CMSIS/DSP/Source/FilteringFunctions/arm_biquad_cascade_stereo_df2T_f32.c ****             d2b += a2 * acc8b;
 368:Drivers/CMSIS/DSP/Source/FilteringFunctions/arm_biquad_cascade_stereo_df2T_f32.c ****         }
 369:Drivers/CMSIS/DSP/Source/FilteringFunctions/arm_biquad_cascade_stereo_df2T_f32.c **** 
 370:Drivers/CMSIS/DSP/Source/FilteringFunctions/arm_biquad_cascade_stereo_df2T_f32.c ****         sample = blockSize & 0x7U;
  83              		.loc 1 370 16 view .LVU14
  84 0022 03F00707 		and	r7, r3, #7
  85 0026 07F10108 		add	r8, r7, #1
  86 002a 4FEAC808 		lsl	r8, r8, #3
  87 002e 00E0     		b	.L6
ARM GAS  /var/folders/n6/c271nzx11xl4r4_m7sqjlt0m0000gn/T//ccsvuvwZ.s 			page 9


  88              	.LVL4:
  89              	.L8:
 371:Drivers/CMSIS/DSP/Source/FilteringFunctions/arm_biquad_cascade_stereo_df2T_f32.c ****         while (sample > 0U) {
 372:Drivers/CMSIS/DSP/Source/FilteringFunctions/arm_biquad_cascade_stereo_df2T_f32.c ****             /* Read the input */
 373:Drivers/CMSIS/DSP/Source/FilteringFunctions/arm_biquad_cascade_stereo_df2T_f32.c ****             Xn1a = *pIn++; //Channel a
 374:Drivers/CMSIS/DSP/Source/FilteringFunctions/arm_biquad_cascade_stereo_df2T_f32.c ****             Xn1b = *pIn++; //Channel b
 375:Drivers/CMSIS/DSP/Source/FilteringFunctions/arm_biquad_cascade_stereo_df2T_f32.c **** 
 376:Drivers/CMSIS/DSP/Source/FilteringFunctions/arm_biquad_cascade_stereo_df2T_f32.c ****             /* y[n] = b0 * x[n] + d1 */
 377:Drivers/CMSIS/DSP/Source/FilteringFunctions/arm_biquad_cascade_stereo_df2T_f32.c ****             acc1a = (b0 * Xn1a) + d1a;
 378:Drivers/CMSIS/DSP/Source/FilteringFunctions/arm_biquad_cascade_stereo_df2T_f32.c ****             acc1b = (b0 * Xn1b) + d1b;
 379:Drivers/CMSIS/DSP/Source/FilteringFunctions/arm_biquad_cascade_stereo_df2T_f32.c **** 
 380:Drivers/CMSIS/DSP/Source/FilteringFunctions/arm_biquad_cascade_stereo_df2T_f32.c ****             /* Store the result in the accumulator in the destination buffer. */
 381:Drivers/CMSIS/DSP/Source/FilteringFunctions/arm_biquad_cascade_stereo_df2T_f32.c ****             *pOut++ = acc1a;
 382:Drivers/CMSIS/DSP/Source/FilteringFunctions/arm_biquad_cascade_stereo_df2T_f32.c ****             *pOut++ = acc1b;
 383:Drivers/CMSIS/DSP/Source/FilteringFunctions/arm_biquad_cascade_stereo_df2T_f32.c **** 
 384:Drivers/CMSIS/DSP/Source/FilteringFunctions/arm_biquad_cascade_stereo_df2T_f32.c ****             /* Every time after the output is computed state should be updated. */
 385:Drivers/CMSIS/DSP/Source/FilteringFunctions/arm_biquad_cascade_stereo_df2T_f32.c ****             /* d1 = b1 * x[n] + a1 * y[n] + d2 */
 386:Drivers/CMSIS/DSP/Source/FilteringFunctions/arm_biquad_cascade_stereo_df2T_f32.c ****             d1a = ((b1 * Xn1a) + (a1 * acc1a)) + d2a;
 387:Drivers/CMSIS/DSP/Source/FilteringFunctions/arm_biquad_cascade_stereo_df2T_f32.c ****             d1b = ((b1 * Xn1b) + (a1 * acc1b)) + d2b;
 388:Drivers/CMSIS/DSP/Source/FilteringFunctions/arm_biquad_cascade_stereo_df2T_f32.c **** 
 389:Drivers/CMSIS/DSP/Source/FilteringFunctions/arm_biquad_cascade_stereo_df2T_f32.c ****             /* d2 = b2 * x[n] + a2 * y[n] */
 390:Drivers/CMSIS/DSP/Source/FilteringFunctions/arm_biquad_cascade_stereo_df2T_f32.c ****             d2a = (b2 * Xn1a) + (a2 * acc1a);
 391:Drivers/CMSIS/DSP/Source/FilteringFunctions/arm_biquad_cascade_stereo_df2T_f32.c ****             d2b = (b2 * Xn1b) + (a2 * acc1b);
 392:Drivers/CMSIS/DSP/Source/FilteringFunctions/arm_biquad_cascade_stereo_df2T_f32.c **** 
 393:Drivers/CMSIS/DSP/Source/FilteringFunctions/arm_biquad_cascade_stereo_df2T_f32.c ****             sample--;
 394:Drivers/CMSIS/DSP/Source/FilteringFunctions/arm_biquad_cascade_stereo_df2T_f32.c ****         }
 395:Drivers/CMSIS/DSP/Source/FilteringFunctions/arm_biquad_cascade_stereo_df2T_f32.c **** 
 396:Drivers/CMSIS/DSP/Source/FilteringFunctions/arm_biquad_cascade_stereo_df2T_f32.c ****         /* Store the updated state variables back into the state array */
 397:Drivers/CMSIS/DSP/Source/FilteringFunctions/arm_biquad_cascade_stereo_df2T_f32.c ****         pState[0] = d1a;
 398:Drivers/CMSIS/DSP/Source/FilteringFunctions/arm_biquad_cascade_stereo_df2T_f32.c ****         pState[1] = d2a;
 399:Drivers/CMSIS/DSP/Source/FilteringFunctions/arm_biquad_cascade_stereo_df2T_f32.c **** 
 400:Drivers/CMSIS/DSP/Source/FilteringFunctions/arm_biquad_cascade_stereo_df2T_f32.c ****         pState[2] = d1b;
 401:Drivers/CMSIS/DSP/Source/FilteringFunctions/arm_biquad_cascade_stereo_df2T_f32.c ****         pState[3] = d2b;
 402:Drivers/CMSIS/DSP/Source/FilteringFunctions/arm_biquad_cascade_stereo_df2T_f32.c **** 
 403:Drivers/CMSIS/DSP/Source/FilteringFunctions/arm_biquad_cascade_stereo_df2T_f32.c ****         /* The current stage input is given as the output to the next stage */
 404:Drivers/CMSIS/DSP/Source/FilteringFunctions/arm_biquad_cascade_stereo_df2T_f32.c ****         pIn = pDst;
  90              		.loc 1 404 13 view .LVU15
  91 0030 2946     		mov	r1, r5
  92              	.LVL5:
  93              	.L6:
 161:Drivers/CMSIS/DSP/Source/FilteringFunctions/arm_biquad_cascade_stereo_df2T_f32.c ****     float32_t Xn2b, Xn3b, Xn4b, Xn5b, Xn6b, Xn7b, Xn8b;         /*  Input State variables     */
  94              		.loc 1 161 5 is_stmt 1 view .LVU16
 162:Drivers/CMSIS/DSP/Source/FilteringFunctions/arm_biquad_cascade_stereo_df2T_f32.c ****     float32_t acc2a, acc3a, acc4a, acc5a, acc6a, acc7a, acc8a;  /*  Simulates the accumulator */
  95              		.loc 1 162 5 view .LVU17
 163:Drivers/CMSIS/DSP/Source/FilteringFunctions/arm_biquad_cascade_stereo_df2T_f32.c ****     float32_t acc2b, acc3b, acc4b, acc5b, acc6b, acc7b, acc8b;  /*  Simulates the accumulator */
  96              		.loc 1 163 5 view .LVU18
 164:Drivers/CMSIS/DSP/Source/FilteringFunctions/arm_biquad_cascade_stereo_df2T_f32.c **** 
  97              		.loc 1 164 5 view .LVU19
 166:Drivers/CMSIS/DSP/Source/FilteringFunctions/arm_biquad_cascade_stereo_df2T_f32.c ****     {
  98              		.loc 1 166 5 view .LVU20
 169:Drivers/CMSIS/DSP/Source/FilteringFunctions/arm_biquad_cascade_stereo_df2T_f32.c ****         b1 = pCoeffs[1];
  99              		.loc 1 169 9 view .LVU21
 169:Drivers/CMSIS/DSP/Source/FilteringFunctions/arm_biquad_cascade_stereo_df2T_f32.c ****         b1 = pCoeffs[1];
 100              		.loc 1 169 12 is_stmt 0 view .LVU22
 101 0032 5EED057A 		vldr.32	s15, [lr, #-20]
 102              	.LVL6:
 170:Drivers/CMSIS/DSP/Source/FilteringFunctions/arm_biquad_cascade_stereo_df2T_f32.c ****         b2 = pCoeffs[2];
ARM GAS  /var/folders/n6/c271nzx11xl4r4_m7sqjlt0m0000gn/T//ccsvuvwZ.s 			page 10


 103              		.loc 1 170 9 is_stmt 1 view .LVU23
 170:Drivers/CMSIS/DSP/Source/FilteringFunctions/arm_biquad_cascade_stereo_df2T_f32.c ****         b2 = pCoeffs[2];
 104              		.loc 1 170 12 is_stmt 0 view .LVU24
 105 0036 1EED047A 		vldr.32	s14, [lr, #-16]
 106              	.LVL7:
 171:Drivers/CMSIS/DSP/Source/FilteringFunctions/arm_biquad_cascade_stereo_df2T_f32.c ****         a1 = pCoeffs[3];
 107              		.loc 1 171 9 is_stmt 1 view .LVU25
 171:Drivers/CMSIS/DSP/Source/FilteringFunctions/arm_biquad_cascade_stereo_df2T_f32.c ****         a1 = pCoeffs[3];
 108              		.loc 1 171 12 is_stmt 0 view .LVU26
 109 003a 5EED036A 		vldr.32	s13, [lr, #-12]
 110              	.LVL8:
 172:Drivers/CMSIS/DSP/Source/FilteringFunctions/arm_biquad_cascade_stereo_df2T_f32.c ****         /* Apply loop unrolling and compute 8 output values simultaneously. */
 111              		.loc 1 172 9 is_stmt 1 view .LVU27
 172:Drivers/CMSIS/DSP/Source/FilteringFunctions/arm_biquad_cascade_stereo_df2T_f32.c ****         /* Apply loop unrolling and compute 8 output values simultaneously. */
 112              		.loc 1 172 12 is_stmt 0 view .LVU28
 113 003e 1EED026A 		vldr.32	s12, [lr, #-8]
 114              	.LVL9:
 174:Drivers/CMSIS/DSP/Source/FilteringFunctions/arm_biquad_cascade_stereo_df2T_f32.c ****         a2 = pCoeffs[4];
 115              		.loc 1 174 9 is_stmt 1 view .LVU29
 175:Drivers/CMSIS/DSP/Source/FilteringFunctions/arm_biquad_cascade_stereo_df2T_f32.c **** 
 116              		.loc 1 175 9 view .LVU30
 175:Drivers/CMSIS/DSP/Source/FilteringFunctions/arm_biquad_cascade_stereo_df2T_f32.c **** 
 117              		.loc 1 175 12 is_stmt 0 view .LVU31
 118 0042 5EED015A 		vldr.32	s11, [lr, #-4]
 119              	.LVL10:
 178:Drivers/CMSIS/DSP/Source/FilteringFunctions/arm_biquad_cascade_stereo_df2T_f32.c ****         d2a = pState[1];
 120              		.loc 1 178 9 is_stmt 1 view .LVU32
 121 0046 6246     		mov	r2, ip
 178:Drivers/CMSIS/DSP/Source/FilteringFunctions/arm_biquad_cascade_stereo_df2T_f32.c ****         d2a = pState[1];
 122              		.loc 1 178 13 is_stmt 0 view .LVU33
 123 0048 1CED042A 		vldr.32	s4, [ip, #-16]
 124              	.LVL11:
 179:Drivers/CMSIS/DSP/Source/FilteringFunctions/arm_biquad_cascade_stereo_df2T_f32.c ****         d1b = pState[2];
 125              		.loc 1 179 9 is_stmt 1 view .LVU34
 179:Drivers/CMSIS/DSP/Source/FilteringFunctions/arm_biquad_cascade_stereo_df2T_f32.c ****         d1b = pState[2];
 126              		.loc 1 179 13 is_stmt 0 view .LVU35
 127 004c 5CED031A 		vldr.32	s3, [ip, #-12]
 128              	.LVL12:
 180:Drivers/CMSIS/DSP/Source/FilteringFunctions/arm_biquad_cascade_stereo_df2T_f32.c ****         d2b = pState[3];
 129              		.loc 1 180 9 is_stmt 1 view .LVU36
 180:Drivers/CMSIS/DSP/Source/FilteringFunctions/arm_biquad_cascade_stereo_df2T_f32.c ****         d2b = pState[3];
 130              		.loc 1 180 13 is_stmt 0 view .LVU37
 131 0050 5CED024A 		vldr.32	s9, [ip, #-8]
 132              	.LVL13:
 181:Drivers/CMSIS/DSP/Source/FilteringFunctions/arm_biquad_cascade_stereo_df2T_f32.c **** 
 133              		.loc 1 181 9 is_stmt 1 view .LVU38
 181:Drivers/CMSIS/DSP/Source/FilteringFunctions/arm_biquad_cascade_stereo_df2T_f32.c **** 
 134              		.loc 1 181 13 is_stmt 0 view .LVU39
 135 0054 1CED015A 		vldr.32	s10, [ip, #-4]
 136              	.LVL14:
 183:Drivers/CMSIS/DSP/Source/FilteringFunctions/arm_biquad_cascade_stereo_df2T_f32.c **** 
 137              		.loc 1 183 9 is_stmt 1 view .LVU40
 187:Drivers/CMSIS/DSP/Source/FilteringFunctions/arm_biquad_cascade_stereo_df2T_f32.c **** 
 138              		.loc 1 187 9 view .LVU41
 187:Drivers/CMSIS/DSP/Source/FilteringFunctions/arm_biquad_cascade_stereo_df2T_f32.c **** 
 139              		.loc 1 187 23 view .LVU42
 140 0058 002E     		cmp	r6, #0
ARM GAS  /var/folders/n6/c271nzx11xl4r4_m7sqjlt0m0000gn/T//ccsvuvwZ.s 			page 11


 141 005a 00F0B581 		beq	.L7
 187:Drivers/CMSIS/DSP/Source/FilteringFunctions/arm_biquad_cascade_stereo_df2T_f32.c **** 
 142              		.loc 1 187 23 is_stmt 0 view .LVU43
 143 005e 01F14000 		add	r0, r1, #64
 144 0062 05F14003 		add	r3, r5, #64
 174:Drivers/CMSIS/DSP/Source/FilteringFunctions/arm_biquad_cascade_stereo_df2T_f32.c ****         a2 = pCoeffs[4];
 145              		.loc 1 174 16 view .LVU44
 146 0066 B346     		mov	fp, r6
 147              	.LVL15:
 148              	.L3:
 194:Drivers/CMSIS/DSP/Source/FilteringFunctions/arm_biquad_cascade_stereo_df2T_f32.c ****             Xn1b  = pIn[1 ];
 149              		.loc 1 194 13 is_stmt 1 view .LVU45
 194:Drivers/CMSIS/DSP/Source/FilteringFunctions/arm_biquad_cascade_stereo_df2T_f32.c ****             Xn1b  = pIn[1 ];
 150              		.loc 1 194 19 is_stmt 0 view .LVU46
 151 0068 10ED104A 		vldr.32	s8, [r0, #-64]
 152              	.LVL16:
 195:Drivers/CMSIS/DSP/Source/FilteringFunctions/arm_biquad_cascade_stereo_df2T_f32.c **** 
 153              		.loc 1 195 13 is_stmt 1 view .LVU47
 195:Drivers/CMSIS/DSP/Source/FilteringFunctions/arm_biquad_cascade_stereo_df2T_f32.c **** 
 154              		.loc 1 195 19 is_stmt 0 view .LVU48
 155 006c 10ED0F3A 		vldr.32	s6, [r0, #-60]
 156              	.LVL17:
 198:Drivers/CMSIS/DSP/Source/FilteringFunctions/arm_biquad_cascade_stereo_df2T_f32.c ****             acc1a = b0 * Xn1a + d1a;
 157              		.loc 1 198 13 is_stmt 1 view .LVU49
 198:Drivers/CMSIS/DSP/Source/FilteringFunctions/arm_biquad_cascade_stereo_df2T_f32.c ****             acc1a = b0 * Xn1a + d1a;
 158              		.loc 1 198 19 is_stmt 0 view .LVU50
 159 0070 10ED0E8A 		vldr.32	s16, [r0, #-56]
 160              	.LVL18:
 199:Drivers/CMSIS/DSP/Source/FilteringFunctions/arm_biquad_cascade_stereo_df2T_f32.c **** 
 161              		.loc 1 199 13 is_stmt 1 view .LVU51
 199:Drivers/CMSIS/DSP/Source/FilteringFunctions/arm_biquad_cascade_stereo_df2T_f32.c **** 
 162              		.loc 1 199 24 is_stmt 0 view .LVU52
 163 0074 67EE84BA 		vmul.f32	s23, s15, s8
 199:Drivers/CMSIS/DSP/Source/FilteringFunctions/arm_biquad_cascade_stereo_df2T_f32.c **** 
 164              		.loc 1 199 19 view .LVU53
 165 0078 7BEE82BA 		vadd.f32	s23, s23, s4
 166              	.LVL19:
 201:Drivers/CMSIS/DSP/Source/FilteringFunctions/arm_biquad_cascade_stereo_df2T_f32.c ****             d1a = b1 * Xn1a + d2a;
 167              		.loc 1 201 13 is_stmt 1 view .LVU54
 201:Drivers/CMSIS/DSP/Source/FilteringFunctions/arm_biquad_cascade_stereo_df2T_f32.c ****             d1a = b1 * Xn1a + d2a;
 168              		.loc 1 201 19 is_stmt 0 view .LVU55
 169 007c 10ED0D0A 		vldr.32	s0, [r0, #-52]
 170              	.LVL20:
 202:Drivers/CMSIS/DSP/Source/FilteringFunctions/arm_biquad_cascade_stereo_df2T_f32.c **** 
 171              		.loc 1 202 13 is_stmt 1 view .LVU56
 202:Drivers/CMSIS/DSP/Source/FilteringFunctions/arm_biquad_cascade_stereo_df2T_f32.c **** 
 172              		.loc 1 202 22 is_stmt 0 view .LVU57
 173 0080 67EE043A 		vmul.f32	s7, s14, s8
 202:Drivers/CMSIS/DSP/Source/FilteringFunctions/arm_biquad_cascade_stereo_df2T_f32.c **** 
 174              		.loc 1 202 17 view .LVU58
 175 0084 73EEA13A 		vadd.f32	s7, s7, s3
 176              	.LVL21:
 204:Drivers/CMSIS/DSP/Source/FilteringFunctions/arm_biquad_cascade_stereo_df2T_f32.c ****             d2a = b2 * Xn1a;
 177              		.loc 1 204 13 is_stmt 1 view .LVU59
 204:Drivers/CMSIS/DSP/Source/FilteringFunctions/arm_biquad_cascade_stereo_df2T_f32.c ****             d2a = b2 * Xn1a;
 178              		.loc 1 204 19 is_stmt 0 view .LVU60
 179 0088 50ED0C0A 		vldr.32	s1, [r0, #-48]
ARM GAS  /var/folders/n6/c271nzx11xl4r4_m7sqjlt0m0000gn/T//ccsvuvwZ.s 			page 12


 180              	.LVL22:
 205:Drivers/CMSIS/DSP/Source/FilteringFunctions/arm_biquad_cascade_stereo_df2T_f32.c **** 
 181              		.loc 1 205 13 is_stmt 1 view .LVU61
 205:Drivers/CMSIS/DSP/Source/FilteringFunctions/arm_biquad_cascade_stereo_df2T_f32.c **** 
 182              		.loc 1 205 17 is_stmt 0 view .LVU62
 183 008c 26EE84DA 		vmul.f32	s26, s13, s8
 184              	.LVL23:
 207:Drivers/CMSIS/DSP/Source/FilteringFunctions/arm_biquad_cascade_stereo_df2T_f32.c ****             d1a += a1 * acc1a;
 185              		.loc 1 207 13 is_stmt 1 view .LVU63
 207:Drivers/CMSIS/DSP/Source/FilteringFunctions/arm_biquad_cascade_stereo_df2T_f32.c ****             d1a += a1 * acc1a;
 186              		.loc 1 207 19 is_stmt 0 view .LVU64
 187 0090 10ED0B4A 		vldr.32	s8, [r0, #-44]
 188              	.LVL24:
 208:Drivers/CMSIS/DSP/Source/FilteringFunctions/arm_biquad_cascade_stereo_df2T_f32.c **** 
 189              		.loc 1 208 13 is_stmt 1 view .LVU65
 210:Drivers/CMSIS/DSP/Source/FilteringFunctions/arm_biquad_cascade_stereo_df2T_f32.c ****             d2a += a2 * acc1a;
 190              		.loc 1 210 13 view .LVU66
 210:Drivers/CMSIS/DSP/Source/FilteringFunctions/arm_biquad_cascade_stereo_df2T_f32.c ****             d2a += a2 * acc1a;
 191              		.loc 1 210 19 is_stmt 0 view .LVU67
 192 0094 50ED0A2A 		vldr.32	s5, [r0, #-40]
 193              	.LVL25:
 211:Drivers/CMSIS/DSP/Source/FilteringFunctions/arm_biquad_cascade_stereo_df2T_f32.c **** 
 194              		.loc 1 211 13 is_stmt 1 view .LVU68
 214:Drivers/CMSIS/DSP/Source/FilteringFunctions/arm_biquad_cascade_stereo_df2T_f32.c ****             acc1b = b0 * Xn1b + d1b;
 195              		.loc 1 214 13 view .LVU69
 214:Drivers/CMSIS/DSP/Source/FilteringFunctions/arm_biquad_cascade_stereo_df2T_f32.c ****             acc1b = b0 * Xn1b + d1b;
 196              		.loc 1 214 19 is_stmt 0 view .LVU70
 197 0098 10ED091A 		vldr.32	s2, [r0, #-36]
 198              	.LVL26:
 215:Drivers/CMSIS/DSP/Source/FilteringFunctions/arm_biquad_cascade_stereo_df2T_f32.c **** 
 199              		.loc 1 215 13 is_stmt 1 view .LVU71
 215:Drivers/CMSIS/DSP/Source/FilteringFunctions/arm_biquad_cascade_stereo_df2T_f32.c **** 
 200              		.loc 1 215 24 is_stmt 0 view .LVU72
 201 009c 27EE83BA 		vmul.f32	s22, s15, s6
 215:Drivers/CMSIS/DSP/Source/FilteringFunctions/arm_biquad_cascade_stereo_df2T_f32.c **** 
 202              		.loc 1 215 19 view .LVU73
 203 00a0 3BEE24BA 		vadd.f32	s22, s22, s9
 204              	.LVL27:
 217:Drivers/CMSIS/DSP/Source/FilteringFunctions/arm_biquad_cascade_stereo_df2T_f32.c ****             d1b = b1 * Xn1b + d2b;
 205              		.loc 1 217 13 is_stmt 1 view .LVU74
 217:Drivers/CMSIS/DSP/Source/FilteringFunctions/arm_biquad_cascade_stereo_df2T_f32.c ****             d1b = b1 * Xn1b + d2b;
 206              		.loc 1 217 19 is_stmt 0 view .LVU75
 207 00a4 10ED082A 		vldr.32	s4, [r0, #-32]
 208              	.LVL28:
 218:Drivers/CMSIS/DSP/Source/FilteringFunctions/arm_biquad_cascade_stereo_df2T_f32.c **** 
 209              		.loc 1 218 13 is_stmt 1 view .LVU76
 218:Drivers/CMSIS/DSP/Source/FilteringFunctions/arm_biquad_cascade_stereo_df2T_f32.c **** 
 210              		.loc 1 218 22 is_stmt 0 view .LVU77
 211 00a8 67EE03CA 		vmul.f32	s25, s14, s6
 218:Drivers/CMSIS/DSP/Source/FilteringFunctions/arm_biquad_cascade_stereo_df2T_f32.c **** 
 212              		.loc 1 218 17 view .LVU78
 213 00ac 7CEE85CA 		vadd.f32	s25, s25, s10
 214              	.LVL29:
 220:Drivers/CMSIS/DSP/Source/FilteringFunctions/arm_biquad_cascade_stereo_df2T_f32.c ****             d2b = b2 * Xn1b;
 215              		.loc 1 220 13 is_stmt 1 view .LVU79
 220:Drivers/CMSIS/DSP/Source/FilteringFunctions/arm_biquad_cascade_stereo_df2T_f32.c ****             d2b = b2 * Xn1b;
 216              		.loc 1 220 18 is_stmt 0 view .LVU80
ARM GAS  /var/folders/n6/c271nzx11xl4r4_m7sqjlt0m0000gn/T//ccsvuvwZ.s 			page 13


 217 00b0 50ED07AA 		vldr.32	s21, [r0, #-28]
 218              	.LVL30:
 221:Drivers/CMSIS/DSP/Source/FilteringFunctions/arm_biquad_cascade_stereo_df2T_f32.c **** 
 219              		.loc 1 221 13 is_stmt 1 view .LVU81
 221:Drivers/CMSIS/DSP/Source/FilteringFunctions/arm_biquad_cascade_stereo_df2T_f32.c **** 
 220              		.loc 1 221 17 is_stmt 0 view .LVU82
 221 00b4 26EE833A 		vmul.f32	s6, s13, s6
 222              	.LVL31:
 223:Drivers/CMSIS/DSP/Source/FilteringFunctions/arm_biquad_cascade_stereo_df2T_f32.c ****             d1b += a1 * acc1b;
 223              		.loc 1 223 13 is_stmt 1 view .LVU83
 223:Drivers/CMSIS/DSP/Source/FilteringFunctions/arm_biquad_cascade_stereo_df2T_f32.c ****             d1b += a1 * acc1b;
 224              		.loc 1 223 18 is_stmt 0 view .LVU84
 225 00b8 10ED06AA 		vldr.32	s20, [r0, #-24]
 226              	.LVL32:
 224:Drivers/CMSIS/DSP/Source/FilteringFunctions/arm_biquad_cascade_stereo_df2T_f32.c **** 
 227              		.loc 1 224 13 is_stmt 1 view .LVU85
 226:Drivers/CMSIS/DSP/Source/FilteringFunctions/arm_biquad_cascade_stereo_df2T_f32.c ****             d2b += a2 * acc1b;
 228              		.loc 1 226 13 view .LVU86
 226:Drivers/CMSIS/DSP/Source/FilteringFunctions/arm_biquad_cascade_stereo_df2T_f32.c ****             d2b += a2 * acc1b;
 229              		.loc 1 226 18 is_stmt 0 view .LVU87
 230 00bc 50ED051A 		vldr.32	s3, [r0, #-20]
 231              	.LVL33:
 227:Drivers/CMSIS/DSP/Source/FilteringFunctions/arm_biquad_cascade_stereo_df2T_f32.c **** 
 232              		.loc 1 227 13 is_stmt 1 view .LVU88
 230:Drivers/CMSIS/DSP/Source/FilteringFunctions/arm_biquad_cascade_stereo_df2T_f32.c ****             acc2a = b0 * Xn2a + d1a;
 233              		.loc 1 230 13 view .LVU89
 230:Drivers/CMSIS/DSP/Source/FilteringFunctions/arm_biquad_cascade_stereo_df2T_f32.c ****             acc2a = b0 * Xn2a + d1a;
 234              		.loc 1 230 18 is_stmt 0 view .LVU90
 235 00c0 50ED049A 		vldr.32	s19, [r0, #-16]
 236              	.LVL34:
 231:Drivers/CMSIS/DSP/Source/FilteringFunctions/arm_biquad_cascade_stereo_df2T_f32.c **** 
 237              		.loc 1 231 13 is_stmt 1 view .LVU91
 208:Drivers/CMSIS/DSP/Source/FilteringFunctions/arm_biquad_cascade_stereo_df2T_f32.c **** 
 238              		.loc 1 208 23 is_stmt 0 view .LVU92
 239 00c4 66EE2B8A 		vmul.f32	s17, s12, s23
 208:Drivers/CMSIS/DSP/Source/FilteringFunctions/arm_biquad_cascade_stereo_df2T_f32.c **** 
 240              		.loc 1 208 17 view .LVU93
 241 00c8 78EEA38A 		vadd.f32	s17, s17, s7
 242              	.LVL35:
 231:Drivers/CMSIS/DSP/Source/FilteringFunctions/arm_biquad_cascade_stereo_df2T_f32.c **** 
 243              		.loc 1 231 24 view .LVU94
 244 00cc 27EE885A 		vmul.f32	s10, s15, s16
 231:Drivers/CMSIS/DSP/Source/FilteringFunctions/arm_biquad_cascade_stereo_df2T_f32.c **** 
 245              		.loc 1 231 19 view .LVU95
 246 00d0 78EE858A 		vadd.f32	s17, s17, s10
 247              	.LVL36:
 233:Drivers/CMSIS/DSP/Source/FilteringFunctions/arm_biquad_cascade_stereo_df2T_f32.c ****             d1a = b1 * Xn2a + d2a;
 248              		.loc 1 233 13 is_stmt 1 view .LVU96
 233:Drivers/CMSIS/DSP/Source/FilteringFunctions/arm_biquad_cascade_stereo_df2T_f32.c ****             d1a = b1 * Xn2a + d2a;
 249              		.loc 1 233 18 is_stmt 0 view .LVU97
 250 00d4 10ED039A 		vldr.32	s18, [r0, #-12]
 251              	.LVL37:
 234:Drivers/CMSIS/DSP/Source/FilteringFunctions/arm_biquad_cascade_stereo_df2T_f32.c **** 
 252              		.loc 1 234 13 is_stmt 1 view .LVU98
 211:Drivers/CMSIS/DSP/Source/FilteringFunctions/arm_biquad_cascade_stereo_df2T_f32.c **** 
 253              		.loc 1 211 23 is_stmt 0 view .LVU99
 254 00d8 25EEABCA 		vmul.f32	s24, s11, s23
ARM GAS  /var/folders/n6/c271nzx11xl4r4_m7sqjlt0m0000gn/T//ccsvuvwZ.s 			page 14


 211:Drivers/CMSIS/DSP/Source/FilteringFunctions/arm_biquad_cascade_stereo_df2T_f32.c **** 
 255              		.loc 1 211 17 view .LVU100
 256 00dc 3CEE0DCA 		vadd.f32	s24, s24, s26
 257              	.LVL38:
 234:Drivers/CMSIS/DSP/Source/FilteringFunctions/arm_biquad_cascade_stereo_df2T_f32.c **** 
 258              		.loc 1 234 22 view .LVU101
 259 00e0 27EE085A 		vmul.f32	s10, s14, s16
 234:Drivers/CMSIS/DSP/Source/FilteringFunctions/arm_biquad_cascade_stereo_df2T_f32.c **** 
 260              		.loc 1 234 17 view .LVU102
 261 00e4 3CEE05CA 		vadd.f32	s24, s24, s10
 262              	.LVL39:
 236:Drivers/CMSIS/DSP/Source/FilteringFunctions/arm_biquad_cascade_stereo_df2T_f32.c ****             d2a = b2 * Xn2a;
 263              		.loc 1 236 13 is_stmt 1 view .LVU103
 236:Drivers/CMSIS/DSP/Source/FilteringFunctions/arm_biquad_cascade_stereo_df2T_f32.c ****             d2a = b2 * Xn2a;
 264              		.loc 1 236 18 is_stmt 0 view .LVU104
 265 00e8 10ED025A 		vldr.32	s10, [r0, #-8]
 266              	.LVL40:
 237:Drivers/CMSIS/DSP/Source/FilteringFunctions/arm_biquad_cascade_stereo_df2T_f32.c **** 
 267              		.loc 1 237 13 is_stmt 1 view .LVU105
 237:Drivers/CMSIS/DSP/Source/FilteringFunctions/arm_biquad_cascade_stereo_df2T_f32.c **** 
 268              		.loc 1 237 17 is_stmt 0 view .LVU106
 269 00ec 26EE888A 		vmul.f32	s16, s13, s16
 270              	.LVL41:
 239:Drivers/CMSIS/DSP/Source/FilteringFunctions/arm_biquad_cascade_stereo_df2T_f32.c ****             d1a += a1 * acc2a;
 271              		.loc 1 239 13 is_stmt 1 view .LVU107
 239:Drivers/CMSIS/DSP/Source/FilteringFunctions/arm_biquad_cascade_stereo_df2T_f32.c ****             d1a += a1 * acc2a;
 272              		.loc 1 239 18 is_stmt 0 view .LVU108
 273 00f0 50ED013A 		vldr.32	s7, [r0, #-4]
 274              	.LVL42:
 240:Drivers/CMSIS/DSP/Source/FilteringFunctions/arm_biquad_cascade_stereo_df2T_f32.c **** 
 275              		.loc 1 240 13 is_stmt 1 view .LVU109
 242:Drivers/CMSIS/DSP/Source/FilteringFunctions/arm_biquad_cascade_stereo_df2T_f32.c ****             d2a += a2 * acc2a;
 276              		.loc 1 242 13 view .LVU110
 243:Drivers/CMSIS/DSP/Source/FilteringFunctions/arm_biquad_cascade_stereo_df2T_f32.c **** 
 277              		.loc 1 243 13 view .LVU111
 246:Drivers/CMSIS/DSP/Source/FilteringFunctions/arm_biquad_cascade_stereo_df2T_f32.c ****             d1b = b1 * Xn2b + d2b;
 278              		.loc 1 246 13 view .LVU112
 224:Drivers/CMSIS/DSP/Source/FilteringFunctions/arm_biquad_cascade_stereo_df2T_f32.c **** 
 279              		.loc 1 224 23 is_stmt 0 view .LVU113
 280 00f4 66EE0B4A 		vmul.f32	s9, s12, s22
 224:Drivers/CMSIS/DSP/Source/FilteringFunctions/arm_biquad_cascade_stereo_df2T_f32.c **** 
 281              		.loc 1 224 17 view .LVU114
 282 00f8 74EEAC4A 		vadd.f32	s9, s9, s25
 283              	.LVL43:
 246:Drivers/CMSIS/DSP/Source/FilteringFunctions/arm_biquad_cascade_stereo_df2T_f32.c ****             d1b = b1 * Xn2b + d2b;
 284              		.loc 1 246 24 view .LVU115
 285 00fc 67EE80CA 		vmul.f32	s25, s15, s0
 246:Drivers/CMSIS/DSP/Source/FilteringFunctions/arm_biquad_cascade_stereo_df2T_f32.c ****             d1b = b1 * Xn2b + d2b;
 286              		.loc 1 246 19 view .LVU116
 287 0100 74EEAC4A 		vadd.f32	s9, s9, s25
 288              	.LVL44:
 247:Drivers/CMSIS/DSP/Source/FilteringFunctions/arm_biquad_cascade_stereo_df2T_f32.c ****             d2b = b2 * Xn2b;
 289              		.loc 1 247 13 is_stmt 1 view .LVU117
 227:Drivers/CMSIS/DSP/Source/FilteringFunctions/arm_biquad_cascade_stereo_df2T_f32.c **** 
 290              		.loc 1 227 23 is_stmt 0 view .LVU118
 291 0104 65EE8BCA 		vmul.f32	s25, s11, s22
 227:Drivers/CMSIS/DSP/Source/FilteringFunctions/arm_biquad_cascade_stereo_df2T_f32.c **** 
ARM GAS  /var/folders/n6/c271nzx11xl4r4_m7sqjlt0m0000gn/T//ccsvuvwZ.s 			page 15


 292              		.loc 1 227 17 view .LVU119
 293 0108 7CEE83CA 		vadd.f32	s25, s25, s6
 294              	.LVL45:
 247:Drivers/CMSIS/DSP/Source/FilteringFunctions/arm_biquad_cascade_stereo_df2T_f32.c ****             d2b = b2 * Xn2b;
 295              		.loc 1 247 22 view .LVU120
 296 010c 27EE003A 		vmul.f32	s6, s14, s0
 247:Drivers/CMSIS/DSP/Source/FilteringFunctions/arm_biquad_cascade_stereo_df2T_f32.c ****             d2b = b2 * Xn2b;
 297              		.loc 1 247 17 view .LVU121
 298 0110 7CEE83CA 		vadd.f32	s25, s25, s6
 299              	.LVL46:
 248:Drivers/CMSIS/DSP/Source/FilteringFunctions/arm_biquad_cascade_stereo_df2T_f32.c ****             d1b += a1 * acc2b;
 300              		.loc 1 248 13 is_stmt 1 view .LVU122
 248:Drivers/CMSIS/DSP/Source/FilteringFunctions/arm_biquad_cascade_stereo_df2T_f32.c ****             d1b += a1 * acc2b;
 301              		.loc 1 248 17 is_stmt 0 view .LVU123
 302 0114 26EE800A 		vmul.f32	s0, s13, s0
 303              	.LVL47:
 249:Drivers/CMSIS/DSP/Source/FilteringFunctions/arm_biquad_cascade_stereo_df2T_f32.c ****             d2b += a2 * acc2b;
 304              		.loc 1 249 13 is_stmt 1 view .LVU124
 250:Drivers/CMSIS/DSP/Source/FilteringFunctions/arm_biquad_cascade_stereo_df2T_f32.c **** 
 305              		.loc 1 250 13 view .LVU125
 253:Drivers/CMSIS/DSP/Source/FilteringFunctions/arm_biquad_cascade_stereo_df2T_f32.c ****             d1a = b1 * Xn3a + d2a;
 306              		.loc 1 253 13 view .LVU126
 240:Drivers/CMSIS/DSP/Source/FilteringFunctions/arm_biquad_cascade_stereo_df2T_f32.c **** 
 307              		.loc 1 240 23 is_stmt 0 view .LVU127
 308 0118 26EE283A 		vmul.f32	s6, s12, s17
 240:Drivers/CMSIS/DSP/Source/FilteringFunctions/arm_biquad_cascade_stereo_df2T_f32.c **** 
 309              		.loc 1 240 17 view .LVU128
 310 011c 33EE0C3A 		vadd.f32	s6, s6, s24
 311              	.LVL48:
 253:Drivers/CMSIS/DSP/Source/FilteringFunctions/arm_biquad_cascade_stereo_df2T_f32.c ****             d1a = b1 * Xn3a + d2a;
 312              		.loc 1 253 24 view .LVU129
 313 0120 27EEA0CA 		vmul.f32	s24, s15, s1
 253:Drivers/CMSIS/DSP/Source/FilteringFunctions/arm_biquad_cascade_stereo_df2T_f32.c ****             d1a = b1 * Xn3a + d2a;
 314              		.loc 1 253 19 view .LVU130
 315 0124 33EE0C3A 		vadd.f32	s6, s6, s24
 316              	.LVL49:
 254:Drivers/CMSIS/DSP/Source/FilteringFunctions/arm_biquad_cascade_stereo_df2T_f32.c ****             d2a = b2 * Xn3a;
 317              		.loc 1 254 13 is_stmt 1 view .LVU131
 243:Drivers/CMSIS/DSP/Source/FilteringFunctions/arm_biquad_cascade_stereo_df2T_f32.c **** 
 318              		.loc 1 243 23 is_stmt 0 view .LVU132
 319 0128 25EEA8CA 		vmul.f32	s24, s11, s17
 243:Drivers/CMSIS/DSP/Source/FilteringFunctions/arm_biquad_cascade_stereo_df2T_f32.c **** 
 320              		.loc 1 243 17 view .LVU133
 321 012c 3CEE08CA 		vadd.f32	s24, s24, s16
 322              	.LVL50:
 254:Drivers/CMSIS/DSP/Source/FilteringFunctions/arm_biquad_cascade_stereo_df2T_f32.c ****             d2a = b2 * Xn3a;
 323              		.loc 1 254 22 view .LVU134
 324 0130 27EE208A 		vmul.f32	s16, s14, s1
 254:Drivers/CMSIS/DSP/Source/FilteringFunctions/arm_biquad_cascade_stereo_df2T_f32.c ****             d2a = b2 * Xn3a;
 325              		.loc 1 254 17 view .LVU135
 326 0134 3CEE08CA 		vadd.f32	s24, s24, s16
 327              	.LVL51:
 255:Drivers/CMSIS/DSP/Source/FilteringFunctions/arm_biquad_cascade_stereo_df2T_f32.c ****             d1a += a1 * acc3a;
 328              		.loc 1 255 13 is_stmt 1 view .LVU136
 255:Drivers/CMSIS/DSP/Source/FilteringFunctions/arm_biquad_cascade_stereo_df2T_f32.c ****             d1a += a1 * acc3a;
 329              		.loc 1 255 17 is_stmt 0 view .LVU137
 330 0138 66EEA00A 		vmul.f32	s1, s13, s1
ARM GAS  /var/folders/n6/c271nzx11xl4r4_m7sqjlt0m0000gn/T//ccsvuvwZ.s 			page 16


 331              	.LVL52:
 256:Drivers/CMSIS/DSP/Source/FilteringFunctions/arm_biquad_cascade_stereo_df2T_f32.c ****             d2a += a2 * acc3a;
 332              		.loc 1 256 13 is_stmt 1 view .LVU138
 257:Drivers/CMSIS/DSP/Source/FilteringFunctions/arm_biquad_cascade_stereo_df2T_f32.c **** 
 333              		.loc 1 257 13 view .LVU139
 260:Drivers/CMSIS/DSP/Source/FilteringFunctions/arm_biquad_cascade_stereo_df2T_f32.c ****             d1b = b1 * Xn3b + d2b;
 334              		.loc 1 260 13 view .LVU140
 249:Drivers/CMSIS/DSP/Source/FilteringFunctions/arm_biquad_cascade_stereo_df2T_f32.c ****             d2b += a2 * acc2b;
 335              		.loc 1 249 23 is_stmt 0 view .LVU141
 336 013c 26EE248A 		vmul.f32	s16, s12, s9
 249:Drivers/CMSIS/DSP/Source/FilteringFunctions/arm_biquad_cascade_stereo_df2T_f32.c ****             d2b += a2 * acc2b;
 337              		.loc 1 249 17 view .LVU142
 338 0140 38EE2C8A 		vadd.f32	s16, s16, s25
 339              	.LVL53:
 260:Drivers/CMSIS/DSP/Source/FilteringFunctions/arm_biquad_cascade_stereo_df2T_f32.c ****             d1b = b1 * Xn3b + d2b;
 340              		.loc 1 260 24 view .LVU143
 341 0144 67EE84CA 		vmul.f32	s25, s15, s8
 260:Drivers/CMSIS/DSP/Source/FilteringFunctions/arm_biquad_cascade_stereo_df2T_f32.c ****             d1b = b1 * Xn3b + d2b;
 342              		.loc 1 260 19 view .LVU144
 343 0148 38EE2C8A 		vadd.f32	s16, s16, s25
 344              	.LVL54:
 261:Drivers/CMSIS/DSP/Source/FilteringFunctions/arm_biquad_cascade_stereo_df2T_f32.c ****             d2b = b2 * Xn3b;
 345              		.loc 1 261 13 is_stmt 1 view .LVU145
 250:Drivers/CMSIS/DSP/Source/FilteringFunctions/arm_biquad_cascade_stereo_df2T_f32.c **** 
 346              		.loc 1 250 23 is_stmt 0 view .LVU146
 347 014c 65EEA4CA 		vmul.f32	s25, s11, s9
 250:Drivers/CMSIS/DSP/Source/FilteringFunctions/arm_biquad_cascade_stereo_df2T_f32.c **** 
 348              		.loc 1 250 17 view .LVU147
 349 0150 7CEE80CA 		vadd.f32	s25, s25, s0
 350              	.LVL55:
 261:Drivers/CMSIS/DSP/Source/FilteringFunctions/arm_biquad_cascade_stereo_df2T_f32.c ****             d2b = b2 * Xn3b;
 351              		.loc 1 261 22 view .LVU148
 352 0154 27EE040A 		vmul.f32	s0, s14, s8
 261:Drivers/CMSIS/DSP/Source/FilteringFunctions/arm_biquad_cascade_stereo_df2T_f32.c ****             d2b = b2 * Xn3b;
 353              		.loc 1 261 17 view .LVU149
 354 0158 7CEE80CA 		vadd.f32	s25, s25, s0
 355              	.LVL56:
 262:Drivers/CMSIS/DSP/Source/FilteringFunctions/arm_biquad_cascade_stereo_df2T_f32.c ****             d1b += a1 * acc3b;
 356              		.loc 1 262 13 is_stmt 1 view .LVU150
 262:Drivers/CMSIS/DSP/Source/FilteringFunctions/arm_biquad_cascade_stereo_df2T_f32.c ****             d1b += a1 * acc3b;
 357              		.loc 1 262 17 is_stmt 0 view .LVU151
 358 015c 26EE844A 		vmul.f32	s8, s13, s8
 359              	.LVL57:
 263:Drivers/CMSIS/DSP/Source/FilteringFunctions/arm_biquad_cascade_stereo_df2T_f32.c ****             d2b += a2 * acc3b;
 360              		.loc 1 263 13 is_stmt 1 view .LVU152
 264:Drivers/CMSIS/DSP/Source/FilteringFunctions/arm_biquad_cascade_stereo_df2T_f32.c **** 
 361              		.loc 1 264 13 view .LVU153
 267:Drivers/CMSIS/DSP/Source/FilteringFunctions/arm_biquad_cascade_stereo_df2T_f32.c ****             d1a = b1 * Xn4a + d2a;
 362              		.loc 1 267 13 view .LVU154
 256:Drivers/CMSIS/DSP/Source/FilteringFunctions/arm_biquad_cascade_stereo_df2T_f32.c ****             d2a += a2 * acc3a;
 363              		.loc 1 256 23 is_stmt 0 view .LVU155
 364 0160 26EE030A 		vmul.f32	s0, s12, s6
 256:Drivers/CMSIS/DSP/Source/FilteringFunctions/arm_biquad_cascade_stereo_df2T_f32.c ****             d2a += a2 * acc3a;
 365              		.loc 1 256 17 view .LVU156
 366 0164 30EE0C0A 		vadd.f32	s0, s0, s24
 367              	.LVL58:
 267:Drivers/CMSIS/DSP/Source/FilteringFunctions/arm_biquad_cascade_stereo_df2T_f32.c ****             d1a = b1 * Xn4a + d2a;
ARM GAS  /var/folders/n6/c271nzx11xl4r4_m7sqjlt0m0000gn/T//ccsvuvwZ.s 			page 17


 368              		.loc 1 267 24 view .LVU157
 369 0168 27EEA2CA 		vmul.f32	s24, s15, s5
 267:Drivers/CMSIS/DSP/Source/FilteringFunctions/arm_biquad_cascade_stereo_df2T_f32.c ****             d1a = b1 * Xn4a + d2a;
 370              		.loc 1 267 19 view .LVU158
 371 016c 30EE0C0A 		vadd.f32	s0, s0, s24
 372              	.LVL59:
 268:Drivers/CMSIS/DSP/Source/FilteringFunctions/arm_biquad_cascade_stereo_df2T_f32.c ****             d2a = b2 * Xn4a;
 373              		.loc 1 268 13 is_stmt 1 view .LVU159
 257:Drivers/CMSIS/DSP/Source/FilteringFunctions/arm_biquad_cascade_stereo_df2T_f32.c **** 
 374              		.loc 1 257 23 is_stmt 0 view .LVU160
 375 0170 25EE83CA 		vmul.f32	s24, s11, s6
 257:Drivers/CMSIS/DSP/Source/FilteringFunctions/arm_biquad_cascade_stereo_df2T_f32.c **** 
 376              		.loc 1 257 17 view .LVU161
 377 0174 3CEE20CA 		vadd.f32	s24, s24, s1
 378              	.LVL60:
 268:Drivers/CMSIS/DSP/Source/FilteringFunctions/arm_biquad_cascade_stereo_df2T_f32.c ****             d2a = b2 * Xn4a;
 379              		.loc 1 268 22 view .LVU162
 380 0178 67EE220A 		vmul.f32	s1, s14, s5
 268:Drivers/CMSIS/DSP/Source/FilteringFunctions/arm_biquad_cascade_stereo_df2T_f32.c ****             d2a = b2 * Xn4a;
 381              		.loc 1 268 17 view .LVU163
 382 017c 3CEE20CA 		vadd.f32	s24, s24, s1
 383              	.LVL61:
 269:Drivers/CMSIS/DSP/Source/FilteringFunctions/arm_biquad_cascade_stereo_df2T_f32.c ****             d1a += a1 * acc4a;
 384              		.loc 1 269 13 is_stmt 1 view .LVU164
 269:Drivers/CMSIS/DSP/Source/FilteringFunctions/arm_biquad_cascade_stereo_df2T_f32.c ****             d1a += a1 * acc4a;
 385              		.loc 1 269 17 is_stmt 0 view .LVU165
 386 0180 66EEA22A 		vmul.f32	s5, s13, s5
 387              	.LVL62:
 270:Drivers/CMSIS/DSP/Source/FilteringFunctions/arm_biquad_cascade_stereo_df2T_f32.c ****             d2a += a2 * acc4a;
 388              		.loc 1 270 13 is_stmt 1 view .LVU166
 271:Drivers/CMSIS/DSP/Source/FilteringFunctions/arm_biquad_cascade_stereo_df2T_f32.c **** 
 389              		.loc 1 271 13 view .LVU167
 274:Drivers/CMSIS/DSP/Source/FilteringFunctions/arm_biquad_cascade_stereo_df2T_f32.c ****             d1b = b1 * Xn4b + d2b;
 390              		.loc 1 274 13 view .LVU168
 263:Drivers/CMSIS/DSP/Source/FilteringFunctions/arm_biquad_cascade_stereo_df2T_f32.c ****             d2b += a2 * acc3b;
 391              		.loc 1 263 23 is_stmt 0 view .LVU169
 392 0184 66EE080A 		vmul.f32	s1, s12, s16
 263:Drivers/CMSIS/DSP/Source/FilteringFunctions/arm_biquad_cascade_stereo_df2T_f32.c ****             d2b += a2 * acc3b;
 393              		.loc 1 263 17 view .LVU170
 394 0188 70EEAC0A 		vadd.f32	s1, s1, s25
 395              	.LVL63:
 274:Drivers/CMSIS/DSP/Source/FilteringFunctions/arm_biquad_cascade_stereo_df2T_f32.c ****             d1b = b1 * Xn4b + d2b;
 396              		.loc 1 274 24 view .LVU171
 397 018c 67EE81CA 		vmul.f32	s25, s15, s2
 274:Drivers/CMSIS/DSP/Source/FilteringFunctions/arm_biquad_cascade_stereo_df2T_f32.c ****             d1b = b1 * Xn4b + d2b;
 398              		.loc 1 274 19 view .LVU172
 399 0190 70EEAC0A 		vadd.f32	s1, s1, s25
 400              	.LVL64:
 275:Drivers/CMSIS/DSP/Source/FilteringFunctions/arm_biquad_cascade_stereo_df2T_f32.c ****             d2b = b2 * Xn4b;
 401              		.loc 1 275 13 is_stmt 1 view .LVU173
 264:Drivers/CMSIS/DSP/Source/FilteringFunctions/arm_biquad_cascade_stereo_df2T_f32.c **** 
 402              		.loc 1 264 23 is_stmt 0 view .LVU174
 403 0194 65EE88CA 		vmul.f32	s25, s11, s16
 264:Drivers/CMSIS/DSP/Source/FilteringFunctions/arm_biquad_cascade_stereo_df2T_f32.c **** 
 404              		.loc 1 264 17 view .LVU175
 405 0198 7CEE84CA 		vadd.f32	s25, s25, s8
 406              	.LVL65:
ARM GAS  /var/folders/n6/c271nzx11xl4r4_m7sqjlt0m0000gn/T//ccsvuvwZ.s 			page 18


 275:Drivers/CMSIS/DSP/Source/FilteringFunctions/arm_biquad_cascade_stereo_df2T_f32.c ****             d2b = b2 * Xn4b;
 407              		.loc 1 275 22 view .LVU176
 408 019c 27EE014A 		vmul.f32	s8, s14, s2
 275:Drivers/CMSIS/DSP/Source/FilteringFunctions/arm_biquad_cascade_stereo_df2T_f32.c ****             d2b = b2 * Xn4b;
 409              		.loc 1 275 17 view .LVU177
 410 01a0 7CEE84CA 		vadd.f32	s25, s25, s8
 411              	.LVL66:
 276:Drivers/CMSIS/DSP/Source/FilteringFunctions/arm_biquad_cascade_stereo_df2T_f32.c ****             d1b += a1 * acc4b;
 412              		.loc 1 276 13 is_stmt 1 view .LVU178
 276:Drivers/CMSIS/DSP/Source/FilteringFunctions/arm_biquad_cascade_stereo_df2T_f32.c ****             d1b += a1 * acc4b;
 413              		.loc 1 276 17 is_stmt 0 view .LVU179
 414 01a4 26EE811A 		vmul.f32	s2, s13, s2
 415              	.LVL67:
 277:Drivers/CMSIS/DSP/Source/FilteringFunctions/arm_biquad_cascade_stereo_df2T_f32.c ****             d2b += a2 * acc4b;
 416              		.loc 1 277 13 is_stmt 1 view .LVU180
 278:Drivers/CMSIS/DSP/Source/FilteringFunctions/arm_biquad_cascade_stereo_df2T_f32.c **** 
 417              		.loc 1 278 13 view .LVU181
 281:Drivers/CMSIS/DSP/Source/FilteringFunctions/arm_biquad_cascade_stereo_df2T_f32.c ****             d1a = b1 * Xn5a + d2a;
 418              		.loc 1 281 13 view .LVU182
 270:Drivers/CMSIS/DSP/Source/FilteringFunctions/arm_biquad_cascade_stereo_df2T_f32.c ****             d2a += a2 * acc4a;
 419              		.loc 1 270 23 is_stmt 0 view .LVU183
 420 01a8 26EE004A 		vmul.f32	s8, s12, s0
 270:Drivers/CMSIS/DSP/Source/FilteringFunctions/arm_biquad_cascade_stereo_df2T_f32.c ****             d2a += a2 * acc4a;
 421              		.loc 1 270 17 view .LVU184
 422 01ac 34EE0C4A 		vadd.f32	s8, s8, s24
 423              	.LVL68:
 281:Drivers/CMSIS/DSP/Source/FilteringFunctions/arm_biquad_cascade_stereo_df2T_f32.c ****             d1a = b1 * Xn5a + d2a;
 424              		.loc 1 281 24 view .LVU185
 425 01b0 27EE82CA 		vmul.f32	s24, s15, s4
 281:Drivers/CMSIS/DSP/Source/FilteringFunctions/arm_biquad_cascade_stereo_df2T_f32.c ****             d1a = b1 * Xn5a + d2a;
 426              		.loc 1 281 19 view .LVU186
 427 01b4 34EE0C4A 		vadd.f32	s8, s8, s24
 428              	.LVL69:
 282:Drivers/CMSIS/DSP/Source/FilteringFunctions/arm_biquad_cascade_stereo_df2T_f32.c ****             d2a = b2 * Xn5a;
 429              		.loc 1 282 13 is_stmt 1 view .LVU187
 271:Drivers/CMSIS/DSP/Source/FilteringFunctions/arm_biquad_cascade_stereo_df2T_f32.c **** 
 430              		.loc 1 271 23 is_stmt 0 view .LVU188
 431 01b8 25EE80CA 		vmul.f32	s24, s11, s0
 271:Drivers/CMSIS/DSP/Source/FilteringFunctions/arm_biquad_cascade_stereo_df2T_f32.c **** 
 432              		.loc 1 271 17 view .LVU189
 433 01bc 3CEE22CA 		vadd.f32	s24, s24, s5
 434              	.LVL70:
 282:Drivers/CMSIS/DSP/Source/FilteringFunctions/arm_biquad_cascade_stereo_df2T_f32.c ****             d2a = b2 * Xn5a;
 435              		.loc 1 282 22 view .LVU190
 436 01c0 67EE022A 		vmul.f32	s5, s14, s4
 282:Drivers/CMSIS/DSP/Source/FilteringFunctions/arm_biquad_cascade_stereo_df2T_f32.c ****             d2a = b2 * Xn5a;
 437              		.loc 1 282 17 view .LVU191
 438 01c4 3CEE22CA 		vadd.f32	s24, s24, s5
 439              	.LVL71:
 283:Drivers/CMSIS/DSP/Source/FilteringFunctions/arm_biquad_cascade_stereo_df2T_f32.c ****             d1a += a1 * acc5a;
 440              		.loc 1 283 13 is_stmt 1 view .LVU192
 283:Drivers/CMSIS/DSP/Source/FilteringFunctions/arm_biquad_cascade_stereo_df2T_f32.c ****             d1a += a1 * acc5a;
 441              		.loc 1 283 17 is_stmt 0 view .LVU193
 442 01c8 26EE822A 		vmul.f32	s4, s13, s4
 443              	.LVL72:
 284:Drivers/CMSIS/DSP/Source/FilteringFunctions/arm_biquad_cascade_stereo_df2T_f32.c ****             d2a += a2 * acc5a;
 444              		.loc 1 284 13 is_stmt 1 view .LVU194
ARM GAS  /var/folders/n6/c271nzx11xl4r4_m7sqjlt0m0000gn/T//ccsvuvwZ.s 			page 19


 285:Drivers/CMSIS/DSP/Source/FilteringFunctions/arm_biquad_cascade_stereo_df2T_f32.c **** 
 445              		.loc 1 285 13 view .LVU195
 288:Drivers/CMSIS/DSP/Source/FilteringFunctions/arm_biquad_cascade_stereo_df2T_f32.c ****             d1b = b1 * Xn5b + d2b;
 446              		.loc 1 288 13 view .LVU196
 277:Drivers/CMSIS/DSP/Source/FilteringFunctions/arm_biquad_cascade_stereo_df2T_f32.c ****             d2b += a2 * acc4b;
 447              		.loc 1 277 23 is_stmt 0 view .LVU197
 448 01cc 66EE202A 		vmul.f32	s5, s12, s1
 277:Drivers/CMSIS/DSP/Source/FilteringFunctions/arm_biquad_cascade_stereo_df2T_f32.c ****             d2b += a2 * acc4b;
 449              		.loc 1 277 17 view .LVU198
 450 01d0 72EEAC2A 		vadd.f32	s5, s5, s25
 451              	.LVL73:
 288:Drivers/CMSIS/DSP/Source/FilteringFunctions/arm_biquad_cascade_stereo_df2T_f32.c ****             d1b = b1 * Xn5b + d2b;
 452              		.loc 1 288 24 view .LVU199
 453 01d4 67EEAACA 		vmul.f32	s25, s15, s21
 288:Drivers/CMSIS/DSP/Source/FilteringFunctions/arm_biquad_cascade_stereo_df2T_f32.c ****             d1b = b1 * Xn5b + d2b;
 454              		.loc 1 288 19 view .LVU200
 455 01d8 72EEAC2A 		vadd.f32	s5, s5, s25
 456              	.LVL74:
 289:Drivers/CMSIS/DSP/Source/FilteringFunctions/arm_biquad_cascade_stereo_df2T_f32.c ****             d2b = b2 * Xn5b;
 457              		.loc 1 289 13 is_stmt 1 view .LVU201
 278:Drivers/CMSIS/DSP/Source/FilteringFunctions/arm_biquad_cascade_stereo_df2T_f32.c **** 
 458              		.loc 1 278 23 is_stmt 0 view .LVU202
 459 01dc 65EEA0CA 		vmul.f32	s25, s11, s1
 278:Drivers/CMSIS/DSP/Source/FilteringFunctions/arm_biquad_cascade_stereo_df2T_f32.c **** 
 460              		.loc 1 278 17 view .LVU203
 461 01e0 7CEE81CA 		vadd.f32	s25, s25, s2
 462              	.LVL75:
 289:Drivers/CMSIS/DSP/Source/FilteringFunctions/arm_biquad_cascade_stereo_df2T_f32.c ****             d2b = b2 * Xn5b;
 463              		.loc 1 289 22 view .LVU204
 464 01e4 27EE2A1A 		vmul.f32	s2, s14, s21
 289:Drivers/CMSIS/DSP/Source/FilteringFunctions/arm_biquad_cascade_stereo_df2T_f32.c ****             d2b = b2 * Xn5b;
 465              		.loc 1 289 17 view .LVU205
 466 01e8 7CEE81CA 		vadd.f32	s25, s25, s2
 467              	.LVL76:
 290:Drivers/CMSIS/DSP/Source/FilteringFunctions/arm_biquad_cascade_stereo_df2T_f32.c ****             d1b += a1 * acc5b;
 468              		.loc 1 290 13 is_stmt 1 view .LVU206
 290:Drivers/CMSIS/DSP/Source/FilteringFunctions/arm_biquad_cascade_stereo_df2T_f32.c ****             d1b += a1 * acc5b;
 469              		.loc 1 290 17 is_stmt 0 view .LVU207
 470 01ec 66EEAADA 		vmul.f32	s27, s13, s21
 471              	.LVL77:
 291:Drivers/CMSIS/DSP/Source/FilteringFunctions/arm_biquad_cascade_stereo_df2T_f32.c ****             d2b += a2 * acc5b;
 472              		.loc 1 291 13 is_stmt 1 view .LVU208
 292:Drivers/CMSIS/DSP/Source/FilteringFunctions/arm_biquad_cascade_stereo_df2T_f32.c **** 
 473              		.loc 1 292 13 view .LVU209
 295:Drivers/CMSIS/DSP/Source/FilteringFunctions/arm_biquad_cascade_stereo_df2T_f32.c ****             d1a = b1 * Xn6a + d2a;
 474              		.loc 1 295 13 view .LVU210
 284:Drivers/CMSIS/DSP/Source/FilteringFunctions/arm_biquad_cascade_stereo_df2T_f32.c ****             d2a += a2 * acc5a;
 475              		.loc 1 284 23 is_stmt 0 view .LVU211
 476 01f0 26EE041A 		vmul.f32	s2, s12, s8
 284:Drivers/CMSIS/DSP/Source/FilteringFunctions/arm_biquad_cascade_stereo_df2T_f32.c ****             d2a += a2 * acc5a;
 477              		.loc 1 284 17 view .LVU212
 478 01f4 31EE0C1A 		vadd.f32	s2, s2, s24
 479              	.LVL78:
 295:Drivers/CMSIS/DSP/Source/FilteringFunctions/arm_biquad_cascade_stereo_df2T_f32.c ****             d1a = b1 * Xn6a + d2a;
 480              		.loc 1 295 24 view .LVU213
 481 01f8 67EE8AAA 		vmul.f32	s21, s15, s20
 482              	.LVL79:
ARM GAS  /var/folders/n6/c271nzx11xl4r4_m7sqjlt0m0000gn/T//ccsvuvwZ.s 			page 20


 295:Drivers/CMSIS/DSP/Source/FilteringFunctions/arm_biquad_cascade_stereo_df2T_f32.c ****             d1a = b1 * Xn6a + d2a;
 483              		.loc 1 295 19 view .LVU214
 484 01fc 31EE2A1A 		vadd.f32	s2, s2, s21
 485              	.LVL80:
 296:Drivers/CMSIS/DSP/Source/FilteringFunctions/arm_biquad_cascade_stereo_df2T_f32.c ****             d2a = b2 * Xn6a;
 486              		.loc 1 296 13 is_stmt 1 view .LVU215
 285:Drivers/CMSIS/DSP/Source/FilteringFunctions/arm_biquad_cascade_stereo_df2T_f32.c **** 
 487              		.loc 1 285 23 is_stmt 0 view .LVU216
 488 0200 25EE84CA 		vmul.f32	s24, s11, s8
 489              	.LVL81:
 285:Drivers/CMSIS/DSP/Source/FilteringFunctions/arm_biquad_cascade_stereo_df2T_f32.c **** 
 490              		.loc 1 285 17 view .LVU217
 491 0204 3CEE02CA 		vadd.f32	s24, s24, s4
 492              	.LVL82:
 296:Drivers/CMSIS/DSP/Source/FilteringFunctions/arm_biquad_cascade_stereo_df2T_f32.c ****             d2a = b2 * Xn6a;
 493              		.loc 1 296 22 view .LVU218
 494 0208 27EE0A2A 		vmul.f32	s4, s14, s20
 296:Drivers/CMSIS/DSP/Source/FilteringFunctions/arm_biquad_cascade_stereo_df2T_f32.c ****             d2a = b2 * Xn6a;
 495              		.loc 1 296 17 view .LVU219
 496 020c 3CEE02CA 		vadd.f32	s24, s24, s4
 497              	.LVL83:
 297:Drivers/CMSIS/DSP/Source/FilteringFunctions/arm_biquad_cascade_stereo_df2T_f32.c ****             d1a += a1 * acc6a;
 498              		.loc 1 297 13 is_stmt 1 view .LVU220
 297:Drivers/CMSIS/DSP/Source/FilteringFunctions/arm_biquad_cascade_stereo_df2T_f32.c ****             d1a += a1 * acc6a;
 499              		.loc 1 297 17 is_stmt 0 view .LVU221
 500 0210 26EE8ADA 		vmul.f32	s26, s13, s20
 501              	.LVL84:
 298:Drivers/CMSIS/DSP/Source/FilteringFunctions/arm_biquad_cascade_stereo_df2T_f32.c ****             d2a += a2 * acc6a;
 502              		.loc 1 298 13 is_stmt 1 view .LVU222
 299:Drivers/CMSIS/DSP/Source/FilteringFunctions/arm_biquad_cascade_stereo_df2T_f32.c **** 
 503              		.loc 1 299 13 view .LVU223
 302:Drivers/CMSIS/DSP/Source/FilteringFunctions/arm_biquad_cascade_stereo_df2T_f32.c ****             d1b = b1 * Xn6b + d2b;
 504              		.loc 1 302 13 view .LVU224
 291:Drivers/CMSIS/DSP/Source/FilteringFunctions/arm_biquad_cascade_stereo_df2T_f32.c ****             d2b += a2 * acc5b;
 505              		.loc 1 291 23 is_stmt 0 view .LVU225
 506 0214 26EE222A 		vmul.f32	s4, s12, s5
 291:Drivers/CMSIS/DSP/Source/FilteringFunctions/arm_biquad_cascade_stereo_df2T_f32.c ****             d2b += a2 * acc5b;
 507              		.loc 1 291 17 view .LVU226
 508 0218 32EE2C2A 		vadd.f32	s4, s4, s25
 509              	.LVL85:
 302:Drivers/CMSIS/DSP/Source/FilteringFunctions/arm_biquad_cascade_stereo_df2T_f32.c ****             d1b = b1 * Xn6b + d2b;
 510              		.loc 1 302 24 view .LVU227
 511 021c 27EEA1AA 		vmul.f32	s20, s15, s3
 512              	.LVL86:
 302:Drivers/CMSIS/DSP/Source/FilteringFunctions/arm_biquad_cascade_stereo_df2T_f32.c ****             d1b = b1 * Xn6b + d2b;
 513              		.loc 1 302 19 view .LVU228
 514 0220 32EE0A2A 		vadd.f32	s4, s4, s20
 515              	.LVL87:
 303:Drivers/CMSIS/DSP/Source/FilteringFunctions/arm_biquad_cascade_stereo_df2T_f32.c ****             d2b = b2 * Xn6b;
 516              		.loc 1 303 13 is_stmt 1 view .LVU229
 292:Drivers/CMSIS/DSP/Source/FilteringFunctions/arm_biquad_cascade_stereo_df2T_f32.c **** 
 517              		.loc 1 292 23 is_stmt 0 view .LVU230
 518 0224 65EEA2AA 		vmul.f32	s21, s11, s5
 292:Drivers/CMSIS/DSP/Source/FilteringFunctions/arm_biquad_cascade_stereo_df2T_f32.c **** 
 519              		.loc 1 292 17 view .LVU231
 520 0228 7AEEADAA 		vadd.f32	s21, s21, s27
 521              	.LVL88:
ARM GAS  /var/folders/n6/c271nzx11xl4r4_m7sqjlt0m0000gn/T//ccsvuvwZ.s 			page 21


 303:Drivers/CMSIS/DSP/Source/FilteringFunctions/arm_biquad_cascade_stereo_df2T_f32.c ****             d2b = b2 * Xn6b;
 522              		.loc 1 303 22 view .LVU232
 523 022c 27EE21AA 		vmul.f32	s20, s14, s3
 303:Drivers/CMSIS/DSP/Source/FilteringFunctions/arm_biquad_cascade_stereo_df2T_f32.c ****             d2b = b2 * Xn6b;
 524              		.loc 1 303 17 view .LVU233
 525 0230 7AEE8AAA 		vadd.f32	s21, s21, s20
 526              	.LVL89:
 304:Drivers/CMSIS/DSP/Source/FilteringFunctions/arm_biquad_cascade_stereo_df2T_f32.c ****             d1b += a1 * acc6b;
 527              		.loc 1 304 13 is_stmt 1 view .LVU234
 304:Drivers/CMSIS/DSP/Source/FilteringFunctions/arm_biquad_cascade_stereo_df2T_f32.c ****             d1b += a1 * acc6b;
 528              		.loc 1 304 17 is_stmt 0 view .LVU235
 529 0234 66EEA1CA 		vmul.f32	s25, s13, s3
 530              	.LVL90:
 305:Drivers/CMSIS/DSP/Source/FilteringFunctions/arm_biquad_cascade_stereo_df2T_f32.c ****             d2b += a2 * acc6b;
 531              		.loc 1 305 13 is_stmt 1 view .LVU236
 306:Drivers/CMSIS/DSP/Source/FilteringFunctions/arm_biquad_cascade_stereo_df2T_f32.c **** 
 532              		.loc 1 306 13 view .LVU237
 309:Drivers/CMSIS/DSP/Source/FilteringFunctions/arm_biquad_cascade_stereo_df2T_f32.c ****             d1a = b1 * Xn7a + d2a;
 533              		.loc 1 309 13 view .LVU238
 298:Drivers/CMSIS/DSP/Source/FilteringFunctions/arm_biquad_cascade_stereo_df2T_f32.c ****             d2a += a2 * acc6a;
 534              		.loc 1 298 23 is_stmt 0 view .LVU239
 535 0238 66EE011A 		vmul.f32	s3, s12, s2
 536              	.LVL91:
 298:Drivers/CMSIS/DSP/Source/FilteringFunctions/arm_biquad_cascade_stereo_df2T_f32.c ****             d2a += a2 * acc6a;
 537              		.loc 1 298 17 view .LVU240
 538 023c 71EE8C1A 		vadd.f32	s3, s3, s24
 539              	.LVL92:
 309:Drivers/CMSIS/DSP/Source/FilteringFunctions/arm_biquad_cascade_stereo_df2T_f32.c ****             d1a = b1 * Xn7a + d2a;
 540              		.loc 1 309 24 view .LVU241
 541 0240 27EEA9AA 		vmul.f32	s20, s15, s19
 309:Drivers/CMSIS/DSP/Source/FilteringFunctions/arm_biquad_cascade_stereo_df2T_f32.c ****             d1a = b1 * Xn7a + d2a;
 542              		.loc 1 309 19 view .LVU242
 543 0244 71EE8A1A 		vadd.f32	s3, s3, s20
 544              	.LVL93:
 310:Drivers/CMSIS/DSP/Source/FilteringFunctions/arm_biquad_cascade_stereo_df2T_f32.c **** 
 545              		.loc 1 310 13 is_stmt 1 view .LVU243
 299:Drivers/CMSIS/DSP/Source/FilteringFunctions/arm_biquad_cascade_stereo_df2T_f32.c **** 
 546              		.loc 1 299 23 is_stmt 0 view .LVU244
 547 0248 25EE81AA 		vmul.f32	s20, s11, s2
 299:Drivers/CMSIS/DSP/Source/FilteringFunctions/arm_biquad_cascade_stereo_df2T_f32.c **** 
 548              		.loc 1 299 17 view .LVU245
 549 024c 3AEE0DAA 		vadd.f32	s20, s20, s26
 550              	.LVL94:
 310:Drivers/CMSIS/DSP/Source/FilteringFunctions/arm_biquad_cascade_stereo_df2T_f32.c **** 
 551              		.loc 1 310 22 view .LVU246
 552 0250 27EE29CA 		vmul.f32	s24, s14, s19
 553              	.LVL95:
 310:Drivers/CMSIS/DSP/Source/FilteringFunctions/arm_biquad_cascade_stereo_df2T_f32.c **** 
 554              		.loc 1 310 17 view .LVU247
 555 0254 3AEE0CAA 		vadd.f32	s20, s20, s24
 556              	.LVL96:
 312:Drivers/CMSIS/DSP/Source/FilteringFunctions/arm_biquad_cascade_stereo_df2T_f32.c ****             d2a = b2 * Xn7a;
 557              		.loc 1 312 13 is_stmt 1 view .LVU248
 312:Drivers/CMSIS/DSP/Source/FilteringFunctions/arm_biquad_cascade_stereo_df2T_f32.c ****             d2a = b2 * Xn7a;
 558              		.loc 1 312 22 is_stmt 0 view .LVU249
 559 0258 43ED10BA 		vstr.32	s23, [r3, #-64]
 560              	.LVL97:
ARM GAS  /var/folders/n6/c271nzx11xl4r4_m7sqjlt0m0000gn/T//ccsvuvwZ.s 			page 22


 313:Drivers/CMSIS/DSP/Source/FilteringFunctions/arm_biquad_cascade_stereo_df2T_f32.c **** 
 561              		.loc 1 313 13 is_stmt 1 view .LVU250
 313:Drivers/CMSIS/DSP/Source/FilteringFunctions/arm_biquad_cascade_stereo_df2T_f32.c **** 
 562              		.loc 1 313 17 is_stmt 0 view .LVU251
 563 025c 66EEA99A 		vmul.f32	s19, s13, s19
 564              	.LVL98:
 315:Drivers/CMSIS/DSP/Source/FilteringFunctions/arm_biquad_cascade_stereo_df2T_f32.c ****             d1a += a1 * acc7a;
 565              		.loc 1 315 13 is_stmt 1 view .LVU252
 315:Drivers/CMSIS/DSP/Source/FilteringFunctions/arm_biquad_cascade_stereo_df2T_f32.c ****             d1a += a1 * acc7a;
 566              		.loc 1 315 22 is_stmt 0 view .LVU253
 567 0260 03ED0FBA 		vstr.32	s22, [r3, #-60]
 316:Drivers/CMSIS/DSP/Source/FilteringFunctions/arm_biquad_cascade_stereo_df2T_f32.c **** 
 568              		.loc 1 316 13 is_stmt 1 view .LVU254
 569              	.LVL99:
 318:Drivers/CMSIS/DSP/Source/FilteringFunctions/arm_biquad_cascade_stereo_df2T_f32.c ****             d2a += a2 * acc7a;
 570              		.loc 1 318 13 view .LVU255
 318:Drivers/CMSIS/DSP/Source/FilteringFunctions/arm_biquad_cascade_stereo_df2T_f32.c ****             d2a += a2 * acc7a;
 571              		.loc 1 318 22 is_stmt 0 view .LVU256
 572 0264 43ED0E8A 		vstr.32	s17, [r3, #-56]
 319:Drivers/CMSIS/DSP/Source/FilteringFunctions/arm_biquad_cascade_stereo_df2T_f32.c **** 
 573              		.loc 1 319 13 is_stmt 1 view .LVU257
 574              	.LVL100:
 322:Drivers/CMSIS/DSP/Source/FilteringFunctions/arm_biquad_cascade_stereo_df2T_f32.c ****             acc7b = b0 * Xn7b + d1b;
 575              		.loc 1 322 13 view .LVU258
 322:Drivers/CMSIS/DSP/Source/FilteringFunctions/arm_biquad_cascade_stereo_df2T_f32.c ****             acc7b = b0 * Xn7b + d1b;
 576              		.loc 1 322 22 is_stmt 0 view .LVU259
 577 0268 43ED0D4A 		vstr.32	s9, [r3, #-52]
 323:Drivers/CMSIS/DSP/Source/FilteringFunctions/arm_biquad_cascade_stereo_df2T_f32.c **** 
 578              		.loc 1 323 13 is_stmt 1 view .LVU260
 305:Drivers/CMSIS/DSP/Source/FilteringFunctions/arm_biquad_cascade_stereo_df2T_f32.c ****             d2b += a2 * acc6b;
 579              		.loc 1 305 23 is_stmt 0 view .LVU261
 580 026c 66EE024A 		vmul.f32	s9, s12, s4
 581              	.LVL101:
 305:Drivers/CMSIS/DSP/Source/FilteringFunctions/arm_biquad_cascade_stereo_df2T_f32.c ****             d2b += a2 * acc6b;
 582              		.loc 1 305 17 view .LVU262
 583 0270 74EEAA4A 		vadd.f32	s9, s9, s21
 584              	.LVL102:
 323:Drivers/CMSIS/DSP/Source/FilteringFunctions/arm_biquad_cascade_stereo_df2T_f32.c **** 
 585              		.loc 1 323 24 view .LVU263
 586 0274 67EE898A 		vmul.f32	s17, s15, s18
 587              	.LVL103:
 323:Drivers/CMSIS/DSP/Source/FilteringFunctions/arm_biquad_cascade_stereo_df2T_f32.c **** 
 588              		.loc 1 323 19 view .LVU264
 589 0278 74EEA84A 		vadd.f32	s9, s9, s17
 590              	.LVL104:
 325:Drivers/CMSIS/DSP/Source/FilteringFunctions/arm_biquad_cascade_stereo_df2T_f32.c ****             d1b = b1 * Xn7b + d2b;
 591              		.loc 1 325 13 is_stmt 1 view .LVU265
 325:Drivers/CMSIS/DSP/Source/FilteringFunctions/arm_biquad_cascade_stereo_df2T_f32.c ****             d1b = b1 * Xn7b + d2b;
 592              		.loc 1 325 22 is_stmt 0 view .LVU266
 593 027c 03ED0C3A 		vstr.32	s6, [r3, #-48]
 326:Drivers/CMSIS/DSP/Source/FilteringFunctions/arm_biquad_cascade_stereo_df2T_f32.c **** 
 594              		.loc 1 326 13 is_stmt 1 view .LVU267
 306:Drivers/CMSIS/DSP/Source/FilteringFunctions/arm_biquad_cascade_stereo_df2T_f32.c **** 
 595              		.loc 1 306 23 is_stmt 0 view .LVU268
 596 0280 25EE823A 		vmul.f32	s6, s11, s4
 597              	.LVL105:
 306:Drivers/CMSIS/DSP/Source/FilteringFunctions/arm_biquad_cascade_stereo_df2T_f32.c **** 
ARM GAS  /var/folders/n6/c271nzx11xl4r4_m7sqjlt0m0000gn/T//ccsvuvwZ.s 			page 23


 598              		.loc 1 306 17 view .LVU269
 599 0284 33EE2C3A 		vadd.f32	s6, s6, s25
 600              	.LVL106:
 326:Drivers/CMSIS/DSP/Source/FilteringFunctions/arm_biquad_cascade_stereo_df2T_f32.c **** 
 601              		.loc 1 326 22 view .LVU270
 602 0288 67EE098A 		vmul.f32	s17, s14, s18
 326:Drivers/CMSIS/DSP/Source/FilteringFunctions/arm_biquad_cascade_stereo_df2T_f32.c **** 
 603              		.loc 1 326 17 view .LVU271
 604 028c 33EE283A 		vadd.f32	s6, s6, s17
 605              	.LVL107:
 328:Drivers/CMSIS/DSP/Source/FilteringFunctions/arm_biquad_cascade_stereo_df2T_f32.c ****             d2b = b2 * Xn7b;
 606              		.loc 1 328 13 is_stmt 1 view .LVU272
 328:Drivers/CMSIS/DSP/Source/FilteringFunctions/arm_biquad_cascade_stereo_df2T_f32.c ****             d2b = b2 * Xn7b;
 607              		.loc 1 328 22 is_stmt 0 view .LVU273
 608 0290 03ED0B8A 		vstr.32	s16, [r3, #-44]
 329:Drivers/CMSIS/DSP/Source/FilteringFunctions/arm_biquad_cascade_stereo_df2T_f32.c **** 
 609              		.loc 1 329 13 is_stmt 1 view .LVU274
 329:Drivers/CMSIS/DSP/Source/FilteringFunctions/arm_biquad_cascade_stereo_df2T_f32.c **** 
 610              		.loc 1 329 17 is_stmt 0 view .LVU275
 611 0294 26EE899A 		vmul.f32	s18, s13, s18
 612              	.LVL108:
 331:Drivers/CMSIS/DSP/Source/FilteringFunctions/arm_biquad_cascade_stereo_df2T_f32.c ****             d1b += a1 * acc7b;
 613              		.loc 1 331 13 is_stmt 1 view .LVU276
 331:Drivers/CMSIS/DSP/Source/FilteringFunctions/arm_biquad_cascade_stereo_df2T_f32.c ****             d1b += a1 * acc7b;
 614              		.loc 1 331 22 is_stmt 0 view .LVU277
 615 0298 03ED0A0A 		vstr.32	s0, [r3, #-40]
 332:Drivers/CMSIS/DSP/Source/FilteringFunctions/arm_biquad_cascade_stereo_df2T_f32.c **** 
 616              		.loc 1 332 13 is_stmt 1 view .LVU278
 617              	.LVL109:
 334:Drivers/CMSIS/DSP/Source/FilteringFunctions/arm_biquad_cascade_stereo_df2T_f32.c ****             d2b += a2 * acc7b;
 618              		.loc 1 334 13 view .LVU279
 334:Drivers/CMSIS/DSP/Source/FilteringFunctions/arm_biquad_cascade_stereo_df2T_f32.c ****             d2b += a2 * acc7b;
 619              		.loc 1 334 22 is_stmt 0 view .LVU280
 620 029c 43ED090A 		vstr.32	s1, [r3, #-36]
 335:Drivers/CMSIS/DSP/Source/FilteringFunctions/arm_biquad_cascade_stereo_df2T_f32.c **** 
 621              		.loc 1 335 13 is_stmt 1 view .LVU281
 622              	.LVL110:
 338:Drivers/CMSIS/DSP/Source/FilteringFunctions/arm_biquad_cascade_stereo_df2T_f32.c ****             acc8a = b0 * Xn8a + d1a;
 623              		.loc 1 338 13 view .LVU282
 338:Drivers/CMSIS/DSP/Source/FilteringFunctions/arm_biquad_cascade_stereo_df2T_f32.c ****             acc8a = b0 * Xn8a + d1a;
 624              		.loc 1 338 22 is_stmt 0 view .LVU283
 625 02a0 03ED084A 		vstr.32	s8, [r3, #-32]
 339:Drivers/CMSIS/DSP/Source/FilteringFunctions/arm_biquad_cascade_stereo_df2T_f32.c **** 
 626              		.loc 1 339 13 is_stmt 1 view .LVU284
 316:Drivers/CMSIS/DSP/Source/FilteringFunctions/arm_biquad_cascade_stereo_df2T_f32.c **** 
 627              		.loc 1 316 23 is_stmt 0 view .LVU285
 628 02a4 26EE214A 		vmul.f32	s8, s12, s3
 629              	.LVL111:
 316:Drivers/CMSIS/DSP/Source/FilteringFunctions/arm_biquad_cascade_stereo_df2T_f32.c **** 
 630              		.loc 1 316 17 view .LVU286
 631 02a8 34EE0A4A 		vadd.f32	s8, s8, s20
 632              	.LVL112:
 339:Drivers/CMSIS/DSP/Source/FilteringFunctions/arm_biquad_cascade_stereo_df2T_f32.c **** 
 633              		.loc 1 339 24 view .LVU287
 634 02ac 67EE850A 		vmul.f32	s1, s15, s10
 635              	.LVL113:
 339:Drivers/CMSIS/DSP/Source/FilteringFunctions/arm_biquad_cascade_stereo_df2T_f32.c **** 
ARM GAS  /var/folders/n6/c271nzx11xl4r4_m7sqjlt0m0000gn/T//ccsvuvwZ.s 			page 24


 636              		.loc 1 339 19 view .LVU288
 637 02b0 34EE204A 		vadd.f32	s8, s8, s1
 638              	.LVL114:
 341:Drivers/CMSIS/DSP/Source/FilteringFunctions/arm_biquad_cascade_stereo_df2T_f32.c ****             d1a = b1 * Xn8a + d2a;
 639              		.loc 1 341 13 is_stmt 1 view .LVU289
 341:Drivers/CMSIS/DSP/Source/FilteringFunctions/arm_biquad_cascade_stereo_df2T_f32.c ****             d1a = b1 * Xn8a + d2a;
 640              		.loc 1 341 22 is_stmt 0 view .LVU290
 641 02b4 43ED072A 		vstr.32	s5, [r3, #-28]
 342:Drivers/CMSIS/DSP/Source/FilteringFunctions/arm_biquad_cascade_stereo_df2T_f32.c **** 
 642              		.loc 1 342 13 is_stmt 1 view .LVU291
 319:Drivers/CMSIS/DSP/Source/FilteringFunctions/arm_biquad_cascade_stereo_df2T_f32.c **** 
 643              		.loc 1 319 23 is_stmt 0 view .LVU292
 644 02b8 65EEA12A 		vmul.f32	s5, s11, s3
 645              	.LVL115:
 319:Drivers/CMSIS/DSP/Source/FilteringFunctions/arm_biquad_cascade_stereo_df2T_f32.c **** 
 646              		.loc 1 319 17 view .LVU293
 647 02bc 72EEA92A 		vadd.f32	s5, s5, s19
 648              	.LVL116:
 342:Drivers/CMSIS/DSP/Source/FilteringFunctions/arm_biquad_cascade_stereo_df2T_f32.c **** 
 649              		.loc 1 342 22 view .LVU294
 650 02c0 67EE050A 		vmul.f32	s1, s14, s10
 342:Drivers/CMSIS/DSP/Source/FilteringFunctions/arm_biquad_cascade_stereo_df2T_f32.c **** 
 651              		.loc 1 342 17 view .LVU295
 652 02c4 72EEA02A 		vadd.f32	s5, s5, s1
 653              	.LVL117:
 344:Drivers/CMSIS/DSP/Source/FilteringFunctions/arm_biquad_cascade_stereo_df2T_f32.c ****             d2a = b2 * Xn8a;
 654              		.loc 1 344 13 is_stmt 1 view .LVU296
 344:Drivers/CMSIS/DSP/Source/FilteringFunctions/arm_biquad_cascade_stereo_df2T_f32.c ****             d2a = b2 * Xn8a;
 655              		.loc 1 344 22 is_stmt 0 view .LVU297
 656 02c8 03ED061A 		vstr.32	s2, [r3, #-24]
 345:Drivers/CMSIS/DSP/Source/FilteringFunctions/arm_biquad_cascade_stereo_df2T_f32.c **** 
 657              		.loc 1 345 13 is_stmt 1 view .LVU298
 345:Drivers/CMSIS/DSP/Source/FilteringFunctions/arm_biquad_cascade_stereo_df2T_f32.c **** 
 658              		.loc 1 345 17 is_stmt 0 view .LVU299
 659 02cc 26EE855A 		vmul.f32	s10, s13, s10
 660              	.LVL118:
 347:Drivers/CMSIS/DSP/Source/FilteringFunctions/arm_biquad_cascade_stereo_df2T_f32.c ****             d1a += a1 * acc8a;
 661              		.loc 1 347 13 is_stmt 1 view .LVU300
 347:Drivers/CMSIS/DSP/Source/FilteringFunctions/arm_biquad_cascade_stereo_df2T_f32.c ****             d1a += a1 * acc8a;
 662              		.loc 1 347 22 is_stmt 0 view .LVU301
 663 02d0 03ED052A 		vstr.32	s4, [r3, #-20]
 348:Drivers/CMSIS/DSP/Source/FilteringFunctions/arm_biquad_cascade_stereo_df2T_f32.c **** 
 664              		.loc 1 348 13 is_stmt 1 view .LVU302
 348:Drivers/CMSIS/DSP/Source/FilteringFunctions/arm_biquad_cascade_stereo_df2T_f32.c **** 
 665              		.loc 1 348 23 is_stmt 0 view .LVU303
 666 02d4 26EE042A 		vmul.f32	s4, s12, s8
 667              	.LVL119:
 348:Drivers/CMSIS/DSP/Source/FilteringFunctions/arm_biquad_cascade_stereo_df2T_f32.c **** 
 668              		.loc 1 348 17 view .LVU304
 669 02d8 32EE222A 		vadd.f32	s4, s4, s5
 670              	.LVL120:
 350:Drivers/CMSIS/DSP/Source/FilteringFunctions/arm_biquad_cascade_stereo_df2T_f32.c ****             d2a += a2 * acc8a;
 671              		.loc 1 350 13 is_stmt 1 view .LVU305
 350:Drivers/CMSIS/DSP/Source/FilteringFunctions/arm_biquad_cascade_stereo_df2T_f32.c ****             d2a += a2 * acc8a;
 672              		.loc 1 350 22 is_stmt 0 view .LVU306
 673 02dc 43ED041A 		vstr.32	s3, [r3, #-16]
 351:Drivers/CMSIS/DSP/Source/FilteringFunctions/arm_biquad_cascade_stereo_df2T_f32.c **** 
ARM GAS  /var/folders/n6/c271nzx11xl4r4_m7sqjlt0m0000gn/T//ccsvuvwZ.s 			page 25


 674              		.loc 1 351 13 is_stmt 1 view .LVU307
 351:Drivers/CMSIS/DSP/Source/FilteringFunctions/arm_biquad_cascade_stereo_df2T_f32.c **** 
 675              		.loc 1 351 23 is_stmt 0 view .LVU308
 676 02e0 65EE841A 		vmul.f32	s3, s11, s8
 677              	.LVL121:
 351:Drivers/CMSIS/DSP/Source/FilteringFunctions/arm_biquad_cascade_stereo_df2T_f32.c **** 
 678              		.loc 1 351 17 view .LVU309
 679 02e4 71EE851A 		vadd.f32	s3, s3, s10
 680              	.LVL122:
 354:Drivers/CMSIS/DSP/Source/FilteringFunctions/arm_biquad_cascade_stereo_df2T_f32.c ****             acc8b = b0 * Xn8b + d1b;
 681              		.loc 1 354 13 is_stmt 1 view .LVU310
 354:Drivers/CMSIS/DSP/Source/FilteringFunctions/arm_biquad_cascade_stereo_df2T_f32.c ****             acc8b = b0 * Xn8b + d1b;
 682              		.loc 1 354 22 is_stmt 0 view .LVU311
 683 02e8 43ED034A 		vstr.32	s9, [r3, #-12]
 355:Drivers/CMSIS/DSP/Source/FilteringFunctions/arm_biquad_cascade_stereo_df2T_f32.c **** 
 684              		.loc 1 355 13 is_stmt 1 view .LVU312
 332:Drivers/CMSIS/DSP/Source/FilteringFunctions/arm_biquad_cascade_stereo_df2T_f32.c **** 
 685              		.loc 1 332 23 is_stmt 0 view .LVU313
 686 02ec 26EE245A 		vmul.f32	s10, s12, s9
 332:Drivers/CMSIS/DSP/Source/FilteringFunctions/arm_biquad_cascade_stereo_df2T_f32.c **** 
 687              		.loc 1 332 17 view .LVU314
 688 02f0 35EE035A 		vadd.f32	s10, s10, s6
 689              	.LVL123:
 355:Drivers/CMSIS/DSP/Source/FilteringFunctions/arm_biquad_cascade_stereo_df2T_f32.c **** 
 690              		.loc 1 355 24 view .LVU315
 691 02f4 27EEA33A 		vmul.f32	s6, s15, s7
 355:Drivers/CMSIS/DSP/Source/FilteringFunctions/arm_biquad_cascade_stereo_df2T_f32.c **** 
 692              		.loc 1 355 19 view .LVU316
 693 02f8 35EE035A 		vadd.f32	s10, s10, s6
 694              	.LVL124:
 357:Drivers/CMSIS/DSP/Source/FilteringFunctions/arm_biquad_cascade_stereo_df2T_f32.c ****             d1b = b1 * Xn8b + d2b;
 695              		.loc 1 357 13 is_stmt 1 view .LVU317
 357:Drivers/CMSIS/DSP/Source/FilteringFunctions/arm_biquad_cascade_stereo_df2T_f32.c ****             d1b = b1 * Xn8b + d2b;
 696              		.loc 1 357 22 is_stmt 0 view .LVU318
 697 02fc 03ED024A 		vstr.32	s8, [r3, #-8]
 358:Drivers/CMSIS/DSP/Source/FilteringFunctions/arm_biquad_cascade_stereo_df2T_f32.c **** 
 698              		.loc 1 358 13 is_stmt 1 view .LVU319
 335:Drivers/CMSIS/DSP/Source/FilteringFunctions/arm_biquad_cascade_stereo_df2T_f32.c **** 
 699              		.loc 1 335 23 is_stmt 0 view .LVU320
 700 0300 25EEA44A 		vmul.f32	s8, s11, s9
 701              	.LVL125:
 335:Drivers/CMSIS/DSP/Source/FilteringFunctions/arm_biquad_cascade_stereo_df2T_f32.c **** 
 702              		.loc 1 335 17 view .LVU321
 703 0304 34EE094A 		vadd.f32	s8, s8, s18
 704              	.LVL126:
 358:Drivers/CMSIS/DSP/Source/FilteringFunctions/arm_biquad_cascade_stereo_df2T_f32.c **** 
 705              		.loc 1 358 22 view .LVU322
 706 0308 67EE234A 		vmul.f32	s9, s14, s7
 707              	.LVL127:
 358:Drivers/CMSIS/DSP/Source/FilteringFunctions/arm_biquad_cascade_stereo_df2T_f32.c **** 
 708              		.loc 1 358 17 view .LVU323
 709 030c 34EE244A 		vadd.f32	s8, s8, s9
 710              	.LVL128:
 360:Drivers/CMSIS/DSP/Source/FilteringFunctions/arm_biquad_cascade_stereo_df2T_f32.c ****             d2b = b2 * Xn8b;
 711              		.loc 1 360 13 is_stmt 1 view .LVU324
 360:Drivers/CMSIS/DSP/Source/FilteringFunctions/arm_biquad_cascade_stereo_df2T_f32.c ****             d2b = b2 * Xn8b;
 712              		.loc 1 360 22 is_stmt 0 view .LVU325
ARM GAS  /var/folders/n6/c271nzx11xl4r4_m7sqjlt0m0000gn/T//ccsvuvwZ.s 			page 26


 713 0310 03ED015A 		vstr.32	s10, [r3, #-4]
 361:Drivers/CMSIS/DSP/Source/FilteringFunctions/arm_biquad_cascade_stereo_df2T_f32.c **** 
 714              		.loc 1 361 13 is_stmt 1 view .LVU326
 361:Drivers/CMSIS/DSP/Source/FilteringFunctions/arm_biquad_cascade_stereo_df2T_f32.c **** 
 715              		.loc 1 361 17 is_stmt 0 view .LVU327
 716 0314 66EEA33A 		vmul.f32	s7, s13, s7
 717              	.LVL129:
 363:Drivers/CMSIS/DSP/Source/FilteringFunctions/arm_biquad_cascade_stereo_df2T_f32.c ****             d1b += a1 * acc8b;
 718              		.loc 1 363 13 is_stmt 1 view .LVU328
 364:Drivers/CMSIS/DSP/Source/FilteringFunctions/arm_biquad_cascade_stereo_df2T_f32.c **** 
 719              		.loc 1 364 13 view .LVU329
 364:Drivers/CMSIS/DSP/Source/FilteringFunctions/arm_biquad_cascade_stereo_df2T_f32.c **** 
 720              		.loc 1 364 23 is_stmt 0 view .LVU330
 721 0318 66EE054A 		vmul.f32	s9, s12, s10
 364:Drivers/CMSIS/DSP/Source/FilteringFunctions/arm_biquad_cascade_stereo_df2T_f32.c **** 
 722              		.loc 1 364 17 view .LVU331
 723 031c 74EE844A 		vadd.f32	s9, s9, s8
 724              	.LVL130:
 366:Drivers/CMSIS/DSP/Source/FilteringFunctions/arm_biquad_cascade_stereo_df2T_f32.c ****             d2b += a2 * acc8b;
 725              		.loc 1 366 13 is_stmt 1 view .LVU332
 367:Drivers/CMSIS/DSP/Source/FilteringFunctions/arm_biquad_cascade_stereo_df2T_f32.c ****         }
 726              		.loc 1 367 13 view .LVU333
 367:Drivers/CMSIS/DSP/Source/FilteringFunctions/arm_biquad_cascade_stereo_df2T_f32.c ****         }
 727              		.loc 1 367 23 is_stmt 0 view .LVU334
 728 0320 25EE855A 		vmul.f32	s10, s11, s10
 729              	.LVL131:
 367:Drivers/CMSIS/DSP/Source/FilteringFunctions/arm_biquad_cascade_stereo_df2T_f32.c ****         }
 730              		.loc 1 367 17 view .LVU335
 731 0324 35EE235A 		vadd.f32	s10, s10, s7
 732              	.LVL132:
 187:Drivers/CMSIS/DSP/Source/FilteringFunctions/arm_biquad_cascade_stereo_df2T_f32.c **** 
 733              		.loc 1 187 23 is_stmt 1 view .LVU336
 734 0328 4030     		adds	r0, r0, #64
 735              	.LVL133:
 187:Drivers/CMSIS/DSP/Source/FilteringFunctions/arm_biquad_cascade_stereo_df2T_f32.c **** 
 736              		.loc 1 187 23 is_stmt 0 view .LVU337
 737 032a 4033     		adds	r3, r3, #64
 738              	.LVL134:
 187:Drivers/CMSIS/DSP/Source/FilteringFunctions/arm_biquad_cascade_stereo_df2T_f32.c **** 
 739              		.loc 1 187 23 view .LVU338
 740 032c BBF1010B 		subs	fp, fp, #1
 741              	.LVL135:
 187:Drivers/CMSIS/DSP/Source/FilteringFunctions/arm_biquad_cascade_stereo_df2T_f32.c **** 
 742              		.loc 1 187 23 view .LVU339
 743 0330 7FF49AAE 		bne	.L3
 744 0334 5144     		add	r1, r1, r10
 745 0336 4846     		mov	r0, r9
 746              	.LVL136:
 747              	.L2:
 370:Drivers/CMSIS/DSP/Source/FilteringFunctions/arm_biquad_cascade_stereo_df2T_f32.c ****         while (sample > 0U) {
 748              		.loc 1 370 9 is_stmt 1 view .LVU340
 371:Drivers/CMSIS/DSP/Source/FilteringFunctions/arm_biquad_cascade_stereo_df2T_f32.c ****             /* Read the input */
 749              		.loc 1 371 9 view .LVU341
 371:Drivers/CMSIS/DSP/Source/FilteringFunctions/arm_biquad_cascade_stereo_df2T_f32.c ****             /* Read the input */
 750              		.loc 1 371 23 view .LVU342
 751 0338 9FB3     		cbz	r7, .L4
 371:Drivers/CMSIS/DSP/Source/FilteringFunctions/arm_biquad_cascade_stereo_df2T_f32.c ****             /* Read the input */
ARM GAS  /var/folders/n6/c271nzx11xl4r4_m7sqjlt0m0000gn/T//ccsvuvwZ.s 			page 27


 752              		.loc 1 371 23 is_stmt 0 view .LVU343
 753 033a 01F10803 		add	r3, r1, #8
 754 033e 0830     		adds	r0, r0, #8
 755 0340 4144     		add	r1, r1, r8
 756              	.LVL137:
 757              	.L5:
 373:Drivers/CMSIS/DSP/Source/FilteringFunctions/arm_biquad_cascade_stereo_df2T_f32.c ****             Xn1b = *pIn++; //Channel b
 758              		.loc 1 373 13 is_stmt 1 view .LVU344
 373:Drivers/CMSIS/DSP/Source/FilteringFunctions/arm_biquad_cascade_stereo_df2T_f32.c ****             Xn1b = *pIn++; //Channel b
 759              		.loc 1 373 18 is_stmt 0 view .LVU345
 760 0342 53ED022A 		vldr.32	s5, [r3, #-8]
 761              	.LVL138:
 374:Drivers/CMSIS/DSP/Source/FilteringFunctions/arm_biquad_cascade_stereo_df2T_f32.c **** 
 762              		.loc 1 374 13 is_stmt 1 view .LVU346
 374:Drivers/CMSIS/DSP/Source/FilteringFunctions/arm_biquad_cascade_stereo_df2T_f32.c **** 
 763              		.loc 1 374 18 is_stmt 0 view .LVU347
 764 0346 13ED013A 		vldr.32	s6, [r3, #-4]
 765              	.LVL139:
 377:Drivers/CMSIS/DSP/Source/FilteringFunctions/arm_biquad_cascade_stereo_df2T_f32.c ****             acc1b = (b0 * Xn1b) + d1b;
 766              		.loc 1 377 13 is_stmt 1 view .LVU348
 377:Drivers/CMSIS/DSP/Source/FilteringFunctions/arm_biquad_cascade_stereo_df2T_f32.c ****             acc1b = (b0 * Xn1b) + d1b;
 767              		.loc 1 377 25 is_stmt 0 view .LVU349
 768 034a 67EEA23A 		vmul.f32	s7, s15, s5
 377:Drivers/CMSIS/DSP/Source/FilteringFunctions/arm_biquad_cascade_stereo_df2T_f32.c ****             acc1b = (b0 * Xn1b) + d1b;
 769              		.loc 1 377 19 view .LVU350
 770 034e 73EE823A 		vadd.f32	s7, s7, s4
 771              	.LVL140:
 378:Drivers/CMSIS/DSP/Source/FilteringFunctions/arm_biquad_cascade_stereo_df2T_f32.c **** 
 772              		.loc 1 378 13 is_stmt 1 view .LVU351
 378:Drivers/CMSIS/DSP/Source/FilteringFunctions/arm_biquad_cascade_stereo_df2T_f32.c **** 
 773              		.loc 1 378 25 is_stmt 0 view .LVU352
 774 0352 27EE834A 		vmul.f32	s8, s15, s6
 378:Drivers/CMSIS/DSP/Source/FilteringFunctions/arm_biquad_cascade_stereo_df2T_f32.c **** 
 775              		.loc 1 378 19 view .LVU353
 776 0356 34EE244A 		vadd.f32	s8, s8, s9
 777              	.LVL141:
 381:Drivers/CMSIS/DSP/Source/FilteringFunctions/arm_biquad_cascade_stereo_df2T_f32.c ****             *pOut++ = acc1b;
 778              		.loc 1 381 13 is_stmt 1 view .LVU354
 381:Drivers/CMSIS/DSP/Source/FilteringFunctions/arm_biquad_cascade_stereo_df2T_f32.c ****             *pOut++ = acc1b;
 779              		.loc 1 381 21 is_stmt 0 view .LVU355
 780 035a 40ED023A 		vstr.32	s7, [r0, #-8]
 382:Drivers/CMSIS/DSP/Source/FilteringFunctions/arm_biquad_cascade_stereo_df2T_f32.c **** 
 781              		.loc 1 382 13 is_stmt 1 view .LVU356
 382:Drivers/CMSIS/DSP/Source/FilteringFunctions/arm_biquad_cascade_stereo_df2T_f32.c **** 
 782              		.loc 1 382 21 is_stmt 0 view .LVU357
 783 035e 00ED014A 		vstr.32	s8, [r0, #-4]
 386:Drivers/CMSIS/DSP/Source/FilteringFunctions/arm_biquad_cascade_stereo_df2T_f32.c ****             d1b = ((b1 * Xn1b) + (a1 * acc1b)) + d2b;
 784              		.loc 1 386 13 is_stmt 1 view .LVU358
 386:Drivers/CMSIS/DSP/Source/FilteringFunctions/arm_biquad_cascade_stereo_df2T_f32.c ****             d1b = ((b1 * Xn1b) + (a1 * acc1b)) + d2b;
 785              		.loc 1 386 24 is_stmt 0 view .LVU359
 786 0362 27EE222A 		vmul.f32	s4, s14, s5
 787              	.LVL142:
 386:Drivers/CMSIS/DSP/Source/FilteringFunctions/arm_biquad_cascade_stereo_df2T_f32.c ****             d1b = ((b1 * Xn1b) + (a1 * acc1b)) + d2b;
 788              		.loc 1 386 38 view .LVU360
 789 0366 66EE234A 		vmul.f32	s9, s12, s7
 790              	.LVL143:
 386:Drivers/CMSIS/DSP/Source/FilteringFunctions/arm_biquad_cascade_stereo_df2T_f32.c ****             d1b = ((b1 * Xn1b) + (a1 * acc1b)) + d2b;
ARM GAS  /var/folders/n6/c271nzx11xl4r4_m7sqjlt0m0000gn/T//ccsvuvwZ.s 			page 28


 791              		.loc 1 386 32 view .LVU361
 792 036a 32EE242A 		vadd.f32	s4, s4, s9
 386:Drivers/CMSIS/DSP/Source/FilteringFunctions/arm_biquad_cascade_stereo_df2T_f32.c ****             d1b = ((b1 * Xn1b) + (a1 * acc1b)) + d2b;
 793              		.loc 1 386 17 view .LVU362
 794 036e 32EE212A 		vadd.f32	s4, s4, s3
 795              	.LVL144:
 387:Drivers/CMSIS/DSP/Source/FilteringFunctions/arm_biquad_cascade_stereo_df2T_f32.c **** 
 796              		.loc 1 387 13 is_stmt 1 view .LVU363
 387:Drivers/CMSIS/DSP/Source/FilteringFunctions/arm_biquad_cascade_stereo_df2T_f32.c **** 
 797              		.loc 1 387 24 is_stmt 0 view .LVU364
 798 0372 67EE034A 		vmul.f32	s9, s14, s6
 387:Drivers/CMSIS/DSP/Source/FilteringFunctions/arm_biquad_cascade_stereo_df2T_f32.c **** 
 799              		.loc 1 387 38 view .LVU365
 800 0376 66EE041A 		vmul.f32	s3, s12, s8
 801              	.LVL145:
 387:Drivers/CMSIS/DSP/Source/FilteringFunctions/arm_biquad_cascade_stereo_df2T_f32.c **** 
 802              		.loc 1 387 32 view .LVU366
 803 037a 74EEA14A 		vadd.f32	s9, s9, s3
 387:Drivers/CMSIS/DSP/Source/FilteringFunctions/arm_biquad_cascade_stereo_df2T_f32.c **** 
 804              		.loc 1 387 17 view .LVU367
 805 037e 74EE854A 		vadd.f32	s9, s9, s10
 806              	.LVL146:
 390:Drivers/CMSIS/DSP/Source/FilteringFunctions/arm_biquad_cascade_stereo_df2T_f32.c ****             d2b = (b2 * Xn1b) + (a2 * acc1b);
 807              		.loc 1 390 13 is_stmt 1 view .LVU368
 390:Drivers/CMSIS/DSP/Source/FilteringFunctions/arm_biquad_cascade_stereo_df2T_f32.c ****             d2b = (b2 * Xn1b) + (a2 * acc1b);
 808              		.loc 1 390 23 is_stmt 0 view .LVU369
 809 0382 66EEA22A 		vmul.f32	s5, s13, s5
 810              	.LVL147:
 390:Drivers/CMSIS/DSP/Source/FilteringFunctions/arm_biquad_cascade_stereo_df2T_f32.c ****             d2b = (b2 * Xn1b) + (a2 * acc1b);
 811              		.loc 1 390 37 view .LVU370
 812 0386 65EEA33A 		vmul.f32	s7, s11, s7
 813              	.LVL148:
 390:Drivers/CMSIS/DSP/Source/FilteringFunctions/arm_biquad_cascade_stereo_df2T_f32.c ****             d2b = (b2 * Xn1b) + (a2 * acc1b);
 814              		.loc 1 390 17 view .LVU371
 815 038a 72EEA31A 		vadd.f32	s3, s5, s7
 816              	.LVL149:
 391:Drivers/CMSIS/DSP/Source/FilteringFunctions/arm_biquad_cascade_stereo_df2T_f32.c **** 
 817              		.loc 1 391 13 is_stmt 1 view .LVU372
 391:Drivers/CMSIS/DSP/Source/FilteringFunctions/arm_biquad_cascade_stereo_df2T_f32.c **** 
 818              		.loc 1 391 23 is_stmt 0 view .LVU373
 819 038e 26EE833A 		vmul.f32	s6, s13, s6
 820              	.LVL150:
 391:Drivers/CMSIS/DSP/Source/FilteringFunctions/arm_biquad_cascade_stereo_df2T_f32.c **** 
 821              		.loc 1 391 37 view .LVU374
 822 0392 25EE844A 		vmul.f32	s8, s11, s8
 823              	.LVL151:
 391:Drivers/CMSIS/DSP/Source/FilteringFunctions/arm_biquad_cascade_stereo_df2T_f32.c **** 
 824              		.loc 1 391 17 view .LVU375
 825 0396 33EE045A 		vadd.f32	s10, s6, s8
 826              	.LVL152:
 393:Drivers/CMSIS/DSP/Source/FilteringFunctions/arm_biquad_cascade_stereo_df2T_f32.c ****         }
 827              		.loc 1 393 13 is_stmt 1 view .LVU376
 371:Drivers/CMSIS/DSP/Source/FilteringFunctions/arm_biquad_cascade_stereo_df2T_f32.c ****             /* Read the input */
 828              		.loc 1 371 23 view .LVU377
 829 039a 0833     		adds	r3, r3, #8
 830              	.LVL153:
 371:Drivers/CMSIS/DSP/Source/FilteringFunctions/arm_biquad_cascade_stereo_df2T_f32.c ****             /* Read the input */
ARM GAS  /var/folders/n6/c271nzx11xl4r4_m7sqjlt0m0000gn/T//ccsvuvwZ.s 			page 29


 831              		.loc 1 371 23 is_stmt 0 view .LVU378
 832 039c 0830     		adds	r0, r0, #8
 833              	.LVL154:
 371:Drivers/CMSIS/DSP/Source/FilteringFunctions/arm_biquad_cascade_stereo_df2T_f32.c ****             /* Read the input */
 834              		.loc 1 371 23 view .LVU379
 835 039e 8B42     		cmp	r3, r1
 836 03a0 CFD1     		bne	.L5
 837              	.LVL155:
 838              	.L4:
 397:Drivers/CMSIS/DSP/Source/FilteringFunctions/arm_biquad_cascade_stereo_df2T_f32.c ****         pState[1] = d2a;
 839              		.loc 1 397 9 is_stmt 1 view .LVU380
 397:Drivers/CMSIS/DSP/Source/FilteringFunctions/arm_biquad_cascade_stereo_df2T_f32.c ****         pState[1] = d2a;
 840              		.loc 1 397 19 is_stmt 0 view .LVU381
 841 03a2 02ED042A 		vstr.32	s4, [r2, #-16]
 398:Drivers/CMSIS/DSP/Source/FilteringFunctions/arm_biquad_cascade_stereo_df2T_f32.c **** 
 842              		.loc 1 398 9 is_stmt 1 view .LVU382
 398:Drivers/CMSIS/DSP/Source/FilteringFunctions/arm_biquad_cascade_stereo_df2T_f32.c **** 
 843              		.loc 1 398 19 is_stmt 0 view .LVU383
 844 03a6 42ED031A 		vstr.32	s3, [r2, #-12]
 400:Drivers/CMSIS/DSP/Source/FilteringFunctions/arm_biquad_cascade_stereo_df2T_f32.c ****         pState[3] = d2b;
 845              		.loc 1 400 9 is_stmt 1 view .LVU384
 400:Drivers/CMSIS/DSP/Source/FilteringFunctions/arm_biquad_cascade_stereo_df2T_f32.c ****         pState[3] = d2b;
 846              		.loc 1 400 19 is_stmt 0 view .LVU385
 847 03aa 42ED024A 		vstr.32	s9, [r2, #-8]
 401:Drivers/CMSIS/DSP/Source/FilteringFunctions/arm_biquad_cascade_stereo_df2T_f32.c **** 
 848              		.loc 1 401 9 is_stmt 1 view .LVU386
 401:Drivers/CMSIS/DSP/Source/FilteringFunctions/arm_biquad_cascade_stereo_df2T_f32.c **** 
 849              		.loc 1 401 19 is_stmt 0 view .LVU387
 850 03ae 02ED015A 		vstr.32	s10, [r2, #-4]
 851              		.loc 1 404 9 is_stmt 1 view .LVU388
 405:Drivers/CMSIS/DSP/Source/FilteringFunctions/arm_biquad_cascade_stereo_df2T_f32.c ****         /* decrement the loop counter */
 406:Drivers/CMSIS/DSP/Source/FilteringFunctions/arm_biquad_cascade_stereo_df2T_f32.c ****         stage--;
 852              		.loc 1 406 9 view .LVU389
 853              	.LVL156:
 407:Drivers/CMSIS/DSP/Source/FilteringFunctions/arm_biquad_cascade_stereo_df2T_f32.c **** 
 408:Drivers/CMSIS/DSP/Source/FilteringFunctions/arm_biquad_cascade_stereo_df2T_f32.c ****         pState += 4U;
 854              		.loc 1 408 9 view .LVU390
 409:Drivers/CMSIS/DSP/Source/FilteringFunctions/arm_biquad_cascade_stereo_df2T_f32.c ****         /*Reset the output working pointer */
 410:Drivers/CMSIS/DSP/Source/FilteringFunctions/arm_biquad_cascade_stereo_df2T_f32.c ****         pOut = pDst;
 855              		.loc 1 410 9 view .LVU391
 411:Drivers/CMSIS/DSP/Source/FilteringFunctions/arm_biquad_cascade_stereo_df2T_f32.c **** 
 412:Drivers/CMSIS/DSP/Source/FilteringFunctions/arm_biquad_cascade_stereo_df2T_f32.c ****     } while (stage > 0U);
 856              		.loc 1 412 20 view .LVU392
 857 03b2 0EF1140E 		add	lr, lr, #20
 858              	.LVL157:
 859              		.loc 1 412 20 is_stmt 0 view .LVU393
 860 03b6 0CF1100C 		add	ip, ip, #16
 861              	.LVL158:
 862              		.loc 1 412 20 view .LVU394
 863 03ba 013C     		subs	r4, r4, #1
 864              	.LVL159:
 865              		.loc 1 412 20 view .LVU395
 866 03bc 7FF438AE 		bne	.L8
 413:Drivers/CMSIS/DSP/Source/FilteringFunctions/arm_biquad_cascade_stereo_df2T_f32.c **** 
 414:Drivers/CMSIS/DSP/Source/FilteringFunctions/arm_biquad_cascade_stereo_df2T_f32.c **** #elif defined(ARM_MATH_CM0_FAMILY)
 415:Drivers/CMSIS/DSP/Source/FilteringFunctions/arm_biquad_cascade_stereo_df2T_f32.c **** 
 416:Drivers/CMSIS/DSP/Source/FilteringFunctions/arm_biquad_cascade_stereo_df2T_f32.c ****     /* Run the below code for Cortex-M0 */
ARM GAS  /var/folders/n6/c271nzx11xl4r4_m7sqjlt0m0000gn/T//ccsvuvwZ.s 			page 30


 417:Drivers/CMSIS/DSP/Source/FilteringFunctions/arm_biquad_cascade_stereo_df2T_f32.c **** 
 418:Drivers/CMSIS/DSP/Source/FilteringFunctions/arm_biquad_cascade_stereo_df2T_f32.c ****     do
 419:Drivers/CMSIS/DSP/Source/FilteringFunctions/arm_biquad_cascade_stereo_df2T_f32.c ****     {
 420:Drivers/CMSIS/DSP/Source/FilteringFunctions/arm_biquad_cascade_stereo_df2T_f32.c ****         /* Reading the coefficients */
 421:Drivers/CMSIS/DSP/Source/FilteringFunctions/arm_biquad_cascade_stereo_df2T_f32.c ****         b0 = *pCoeffs++;
 422:Drivers/CMSIS/DSP/Source/FilteringFunctions/arm_biquad_cascade_stereo_df2T_f32.c ****         b1 = *pCoeffs++;
 423:Drivers/CMSIS/DSP/Source/FilteringFunctions/arm_biquad_cascade_stereo_df2T_f32.c ****         b2 = *pCoeffs++;
 424:Drivers/CMSIS/DSP/Source/FilteringFunctions/arm_biquad_cascade_stereo_df2T_f32.c ****         a1 = *pCoeffs++;
 425:Drivers/CMSIS/DSP/Source/FilteringFunctions/arm_biquad_cascade_stereo_df2T_f32.c ****         a2 = *pCoeffs++;
 426:Drivers/CMSIS/DSP/Source/FilteringFunctions/arm_biquad_cascade_stereo_df2T_f32.c **** 
 427:Drivers/CMSIS/DSP/Source/FilteringFunctions/arm_biquad_cascade_stereo_df2T_f32.c ****         /*Reading the state values */
 428:Drivers/CMSIS/DSP/Source/FilteringFunctions/arm_biquad_cascade_stereo_df2T_f32.c ****         d1a = pState[0];
 429:Drivers/CMSIS/DSP/Source/FilteringFunctions/arm_biquad_cascade_stereo_df2T_f32.c ****         d2a = pState[1];
 430:Drivers/CMSIS/DSP/Source/FilteringFunctions/arm_biquad_cascade_stereo_df2T_f32.c ****         d1b = pState[2];
 431:Drivers/CMSIS/DSP/Source/FilteringFunctions/arm_biquad_cascade_stereo_df2T_f32.c ****         d2b = pState[3];
 432:Drivers/CMSIS/DSP/Source/FilteringFunctions/arm_biquad_cascade_stereo_df2T_f32.c **** 
 433:Drivers/CMSIS/DSP/Source/FilteringFunctions/arm_biquad_cascade_stereo_df2T_f32.c **** 
 434:Drivers/CMSIS/DSP/Source/FilteringFunctions/arm_biquad_cascade_stereo_df2T_f32.c ****         sample = blockSize;
 435:Drivers/CMSIS/DSP/Source/FilteringFunctions/arm_biquad_cascade_stereo_df2T_f32.c **** 
 436:Drivers/CMSIS/DSP/Source/FilteringFunctions/arm_biquad_cascade_stereo_df2T_f32.c ****         while (sample > 0U)
 437:Drivers/CMSIS/DSP/Source/FilteringFunctions/arm_biquad_cascade_stereo_df2T_f32.c ****         {
 438:Drivers/CMSIS/DSP/Source/FilteringFunctions/arm_biquad_cascade_stereo_df2T_f32.c ****             /* Read the input */
 439:Drivers/CMSIS/DSP/Source/FilteringFunctions/arm_biquad_cascade_stereo_df2T_f32.c ****             Xn1a = *pIn++; //Channel a
 440:Drivers/CMSIS/DSP/Source/FilteringFunctions/arm_biquad_cascade_stereo_df2T_f32.c ****             Xn1b = *pIn++; //Channel b
 441:Drivers/CMSIS/DSP/Source/FilteringFunctions/arm_biquad_cascade_stereo_df2T_f32.c **** 
 442:Drivers/CMSIS/DSP/Source/FilteringFunctions/arm_biquad_cascade_stereo_df2T_f32.c ****             /* y[n] = b0 * x[n] + d1 */
 443:Drivers/CMSIS/DSP/Source/FilteringFunctions/arm_biquad_cascade_stereo_df2T_f32.c ****             acc1a = (b0 * Xn1a) + d1a;
 444:Drivers/CMSIS/DSP/Source/FilteringFunctions/arm_biquad_cascade_stereo_df2T_f32.c ****             acc1b = (b0 * Xn1b) + d1b;
 445:Drivers/CMSIS/DSP/Source/FilteringFunctions/arm_biquad_cascade_stereo_df2T_f32.c **** 
 446:Drivers/CMSIS/DSP/Source/FilteringFunctions/arm_biquad_cascade_stereo_df2T_f32.c ****             /* Store the result in the accumulator in the destination buffer. */
 447:Drivers/CMSIS/DSP/Source/FilteringFunctions/arm_biquad_cascade_stereo_df2T_f32.c ****             *pOut++ = acc1a;
 448:Drivers/CMSIS/DSP/Source/FilteringFunctions/arm_biquad_cascade_stereo_df2T_f32.c ****             *pOut++ = acc1b;
 449:Drivers/CMSIS/DSP/Source/FilteringFunctions/arm_biquad_cascade_stereo_df2T_f32.c **** 
 450:Drivers/CMSIS/DSP/Source/FilteringFunctions/arm_biquad_cascade_stereo_df2T_f32.c ****             /* Every time after the output is computed state should be updated. */
 451:Drivers/CMSIS/DSP/Source/FilteringFunctions/arm_biquad_cascade_stereo_df2T_f32.c ****             /* d1 = b1 * x[n] + a1 * y[n] + d2 */
 452:Drivers/CMSIS/DSP/Source/FilteringFunctions/arm_biquad_cascade_stereo_df2T_f32.c ****             d1a = ((b1 * Xn1a) + (a1 * acc1a)) + d2a;
 453:Drivers/CMSIS/DSP/Source/FilteringFunctions/arm_biquad_cascade_stereo_df2T_f32.c ****             d1b = ((b1 * Xn1b) + (a1 * acc1b)) + d2b;
 454:Drivers/CMSIS/DSP/Source/FilteringFunctions/arm_biquad_cascade_stereo_df2T_f32.c **** 
 455:Drivers/CMSIS/DSP/Source/FilteringFunctions/arm_biquad_cascade_stereo_df2T_f32.c ****             /* d2 = b2 * x[n] + a2 * y[n] */
 456:Drivers/CMSIS/DSP/Source/FilteringFunctions/arm_biquad_cascade_stereo_df2T_f32.c ****             d2a = (b2 * Xn1a) + (a2 * acc1a);
 457:Drivers/CMSIS/DSP/Source/FilteringFunctions/arm_biquad_cascade_stereo_df2T_f32.c ****             d2b = (b2 * Xn1b) + (a2 * acc1b);
 458:Drivers/CMSIS/DSP/Source/FilteringFunctions/arm_biquad_cascade_stereo_df2T_f32.c **** 
 459:Drivers/CMSIS/DSP/Source/FilteringFunctions/arm_biquad_cascade_stereo_df2T_f32.c ****             /* decrement the loop counter */
 460:Drivers/CMSIS/DSP/Source/FilteringFunctions/arm_biquad_cascade_stereo_df2T_f32.c ****             sample--;
 461:Drivers/CMSIS/DSP/Source/FilteringFunctions/arm_biquad_cascade_stereo_df2T_f32.c ****         }
 462:Drivers/CMSIS/DSP/Source/FilteringFunctions/arm_biquad_cascade_stereo_df2T_f32.c **** 
 463:Drivers/CMSIS/DSP/Source/FilteringFunctions/arm_biquad_cascade_stereo_df2T_f32.c ****         /* Store the updated state variables back into the state array */
 464:Drivers/CMSIS/DSP/Source/FilteringFunctions/arm_biquad_cascade_stereo_df2T_f32.c ****         *pState++ = d1a;
 465:Drivers/CMSIS/DSP/Source/FilteringFunctions/arm_biquad_cascade_stereo_df2T_f32.c ****         *pState++ = d2a;
 466:Drivers/CMSIS/DSP/Source/FilteringFunctions/arm_biquad_cascade_stereo_df2T_f32.c ****         *pState++ = d1b;
 467:Drivers/CMSIS/DSP/Source/FilteringFunctions/arm_biquad_cascade_stereo_df2T_f32.c ****         *pState++ = d2b;
 468:Drivers/CMSIS/DSP/Source/FilteringFunctions/arm_biquad_cascade_stereo_df2T_f32.c **** 
 469:Drivers/CMSIS/DSP/Source/FilteringFunctions/arm_biquad_cascade_stereo_df2T_f32.c ****         /* The current stage input is given as the output to the next stage */
 470:Drivers/CMSIS/DSP/Source/FilteringFunctions/arm_biquad_cascade_stereo_df2T_f32.c ****         pIn = pDst;
 471:Drivers/CMSIS/DSP/Source/FilteringFunctions/arm_biquad_cascade_stereo_df2T_f32.c **** 
 472:Drivers/CMSIS/DSP/Source/FilteringFunctions/arm_biquad_cascade_stereo_df2T_f32.c ****         /*Reset the output working pointer */
 473:Drivers/CMSIS/DSP/Source/FilteringFunctions/arm_biquad_cascade_stereo_df2T_f32.c ****         pOut = pDst;
ARM GAS  /var/folders/n6/c271nzx11xl4r4_m7sqjlt0m0000gn/T//ccsvuvwZ.s 			page 31


 474:Drivers/CMSIS/DSP/Source/FilteringFunctions/arm_biquad_cascade_stereo_df2T_f32.c **** 
 475:Drivers/CMSIS/DSP/Source/FilteringFunctions/arm_biquad_cascade_stereo_df2T_f32.c ****         /* decrement the loop counter */
 476:Drivers/CMSIS/DSP/Source/FilteringFunctions/arm_biquad_cascade_stereo_df2T_f32.c ****         stage--;
 477:Drivers/CMSIS/DSP/Source/FilteringFunctions/arm_biquad_cascade_stereo_df2T_f32.c **** 
 478:Drivers/CMSIS/DSP/Source/FilteringFunctions/arm_biquad_cascade_stereo_df2T_f32.c ****     } while (stage > 0U);
 479:Drivers/CMSIS/DSP/Source/FilteringFunctions/arm_biquad_cascade_stereo_df2T_f32.c **** 
 480:Drivers/CMSIS/DSP/Source/FilteringFunctions/arm_biquad_cascade_stereo_df2T_f32.c **** #else
 481:Drivers/CMSIS/DSP/Source/FilteringFunctions/arm_biquad_cascade_stereo_df2T_f32.c **** 
 482:Drivers/CMSIS/DSP/Source/FilteringFunctions/arm_biquad_cascade_stereo_df2T_f32.c ****     float32_t Xn2a, Xn3a, Xn4a;                          /*  Input State variables     */
 483:Drivers/CMSIS/DSP/Source/FilteringFunctions/arm_biquad_cascade_stereo_df2T_f32.c ****     float32_t Xn2b, Xn3b, Xn4b;                          /*  Input State variables     */
 484:Drivers/CMSIS/DSP/Source/FilteringFunctions/arm_biquad_cascade_stereo_df2T_f32.c ****     float32_t acc2a, acc3a, acc4a;                       /*  accumulator               */
 485:Drivers/CMSIS/DSP/Source/FilteringFunctions/arm_biquad_cascade_stereo_df2T_f32.c ****     float32_t acc2b, acc3b, acc4b;                       /*  accumulator               */
 486:Drivers/CMSIS/DSP/Source/FilteringFunctions/arm_biquad_cascade_stereo_df2T_f32.c ****     float32_t p0a, p1a, p2a, p3a, p4a, A1a;
 487:Drivers/CMSIS/DSP/Source/FilteringFunctions/arm_biquad_cascade_stereo_df2T_f32.c ****     float32_t p0b, p1b, p2b, p3b, p4b, A1b;
 488:Drivers/CMSIS/DSP/Source/FilteringFunctions/arm_biquad_cascade_stereo_df2T_f32.c **** 
 489:Drivers/CMSIS/DSP/Source/FilteringFunctions/arm_biquad_cascade_stereo_df2T_f32.c ****     /* Run the below code for Cortex-M4 and Cortex-M3 */
 490:Drivers/CMSIS/DSP/Source/FilteringFunctions/arm_biquad_cascade_stereo_df2T_f32.c ****     do
 491:Drivers/CMSIS/DSP/Source/FilteringFunctions/arm_biquad_cascade_stereo_df2T_f32.c ****     {
 492:Drivers/CMSIS/DSP/Source/FilteringFunctions/arm_biquad_cascade_stereo_df2T_f32.c ****         /* Reading the coefficients */
 493:Drivers/CMSIS/DSP/Source/FilteringFunctions/arm_biquad_cascade_stereo_df2T_f32.c ****         b0 = *pCoeffs++;
 494:Drivers/CMSIS/DSP/Source/FilteringFunctions/arm_biquad_cascade_stereo_df2T_f32.c ****         b1 = *pCoeffs++;
 495:Drivers/CMSIS/DSP/Source/FilteringFunctions/arm_biquad_cascade_stereo_df2T_f32.c ****         b2 = *pCoeffs++;
 496:Drivers/CMSIS/DSP/Source/FilteringFunctions/arm_biquad_cascade_stereo_df2T_f32.c ****         a1 = *pCoeffs++;
 497:Drivers/CMSIS/DSP/Source/FilteringFunctions/arm_biquad_cascade_stereo_df2T_f32.c ****         a2 = *pCoeffs++;
 498:Drivers/CMSIS/DSP/Source/FilteringFunctions/arm_biquad_cascade_stereo_df2T_f32.c **** 
 499:Drivers/CMSIS/DSP/Source/FilteringFunctions/arm_biquad_cascade_stereo_df2T_f32.c ****         /*Reading the state values */
 500:Drivers/CMSIS/DSP/Source/FilteringFunctions/arm_biquad_cascade_stereo_df2T_f32.c ****         d1a = pState[0];
 501:Drivers/CMSIS/DSP/Source/FilteringFunctions/arm_biquad_cascade_stereo_df2T_f32.c ****         d2a = pState[1];
 502:Drivers/CMSIS/DSP/Source/FilteringFunctions/arm_biquad_cascade_stereo_df2T_f32.c ****         d1b = pState[2];
 503:Drivers/CMSIS/DSP/Source/FilteringFunctions/arm_biquad_cascade_stereo_df2T_f32.c ****         d2b = pState[3];
 504:Drivers/CMSIS/DSP/Source/FilteringFunctions/arm_biquad_cascade_stereo_df2T_f32.c **** 
 505:Drivers/CMSIS/DSP/Source/FilteringFunctions/arm_biquad_cascade_stereo_df2T_f32.c ****         /* Apply loop unrolling and compute 4 output values simultaneously. */
 506:Drivers/CMSIS/DSP/Source/FilteringFunctions/arm_biquad_cascade_stereo_df2T_f32.c ****         sample = blockSize >> 2U;
 507:Drivers/CMSIS/DSP/Source/FilteringFunctions/arm_biquad_cascade_stereo_df2T_f32.c **** 
 508:Drivers/CMSIS/DSP/Source/FilteringFunctions/arm_biquad_cascade_stereo_df2T_f32.c ****         /* First part of the processing with loop unrolling.  Compute 4 outputs at a time.
 509:Drivers/CMSIS/DSP/Source/FilteringFunctions/arm_biquad_cascade_stereo_df2T_f32.c ****         ** a second loop below computes the remaining 1 to 3 samples. */
 510:Drivers/CMSIS/DSP/Source/FilteringFunctions/arm_biquad_cascade_stereo_df2T_f32.c ****         while (sample > 0U) {
 511:Drivers/CMSIS/DSP/Source/FilteringFunctions/arm_biquad_cascade_stereo_df2T_f32.c **** 
 512:Drivers/CMSIS/DSP/Source/FilteringFunctions/arm_biquad_cascade_stereo_df2T_f32.c ****             /* y[n] = b0 * x[n] + d1 */
 513:Drivers/CMSIS/DSP/Source/FilteringFunctions/arm_biquad_cascade_stereo_df2T_f32.c ****             /* d1 = b1 * x[n] + a1 * y[n] + d2 */
 514:Drivers/CMSIS/DSP/Source/FilteringFunctions/arm_biquad_cascade_stereo_df2T_f32.c ****             /* d2 = b2 * x[n] + a2 * y[n] */
 515:Drivers/CMSIS/DSP/Source/FilteringFunctions/arm_biquad_cascade_stereo_df2T_f32.c **** 
 516:Drivers/CMSIS/DSP/Source/FilteringFunctions/arm_biquad_cascade_stereo_df2T_f32.c ****             /* Read the four inputs */
 517:Drivers/CMSIS/DSP/Source/FilteringFunctions/arm_biquad_cascade_stereo_df2T_f32.c ****             Xn1a = pIn[0];
 518:Drivers/CMSIS/DSP/Source/FilteringFunctions/arm_biquad_cascade_stereo_df2T_f32.c ****             Xn1b = pIn[1];
 519:Drivers/CMSIS/DSP/Source/FilteringFunctions/arm_biquad_cascade_stereo_df2T_f32.c ****             Xn2a = pIn[2];
 520:Drivers/CMSIS/DSP/Source/FilteringFunctions/arm_biquad_cascade_stereo_df2T_f32.c ****             Xn2b = pIn[3];
 521:Drivers/CMSIS/DSP/Source/FilteringFunctions/arm_biquad_cascade_stereo_df2T_f32.c ****             Xn3a = pIn[4];
 522:Drivers/CMSIS/DSP/Source/FilteringFunctions/arm_biquad_cascade_stereo_df2T_f32.c ****             Xn3b = pIn[5];
 523:Drivers/CMSIS/DSP/Source/FilteringFunctions/arm_biquad_cascade_stereo_df2T_f32.c ****             Xn4a = pIn[6];
 524:Drivers/CMSIS/DSP/Source/FilteringFunctions/arm_biquad_cascade_stereo_df2T_f32.c ****             Xn4b = pIn[7];
 525:Drivers/CMSIS/DSP/Source/FilteringFunctions/arm_biquad_cascade_stereo_df2T_f32.c ****             pIn += 8;
 526:Drivers/CMSIS/DSP/Source/FilteringFunctions/arm_biquad_cascade_stereo_df2T_f32.c **** 
 527:Drivers/CMSIS/DSP/Source/FilteringFunctions/arm_biquad_cascade_stereo_df2T_f32.c ****             p0a = b0 * Xn1a;
 528:Drivers/CMSIS/DSP/Source/FilteringFunctions/arm_biquad_cascade_stereo_df2T_f32.c ****             p0b = b0 * Xn1b;
 529:Drivers/CMSIS/DSP/Source/FilteringFunctions/arm_biquad_cascade_stereo_df2T_f32.c ****             p1a = b1 * Xn1a;
 530:Drivers/CMSIS/DSP/Source/FilteringFunctions/arm_biquad_cascade_stereo_df2T_f32.c ****             p1b = b1 * Xn1b;
ARM GAS  /var/folders/n6/c271nzx11xl4r4_m7sqjlt0m0000gn/T//ccsvuvwZ.s 			page 32


 531:Drivers/CMSIS/DSP/Source/FilteringFunctions/arm_biquad_cascade_stereo_df2T_f32.c ****             acc1a = p0a + d1a;
 532:Drivers/CMSIS/DSP/Source/FilteringFunctions/arm_biquad_cascade_stereo_df2T_f32.c ****             acc1b = p0b + d1b;
 533:Drivers/CMSIS/DSP/Source/FilteringFunctions/arm_biquad_cascade_stereo_df2T_f32.c ****             p0a = b0 * Xn2a;
 534:Drivers/CMSIS/DSP/Source/FilteringFunctions/arm_biquad_cascade_stereo_df2T_f32.c ****             p0b = b0 * Xn2b;
 535:Drivers/CMSIS/DSP/Source/FilteringFunctions/arm_biquad_cascade_stereo_df2T_f32.c ****             p3a = a1 * acc1a;
 536:Drivers/CMSIS/DSP/Source/FilteringFunctions/arm_biquad_cascade_stereo_df2T_f32.c ****             p3b = a1 * acc1b;
 537:Drivers/CMSIS/DSP/Source/FilteringFunctions/arm_biquad_cascade_stereo_df2T_f32.c ****             p2a = b2 * Xn1a;
 538:Drivers/CMSIS/DSP/Source/FilteringFunctions/arm_biquad_cascade_stereo_df2T_f32.c ****             p2b = b2 * Xn1b;
 539:Drivers/CMSIS/DSP/Source/FilteringFunctions/arm_biquad_cascade_stereo_df2T_f32.c ****             A1a = p1a + p3a;
 540:Drivers/CMSIS/DSP/Source/FilteringFunctions/arm_biquad_cascade_stereo_df2T_f32.c ****             A1b = p1b + p3b;
 541:Drivers/CMSIS/DSP/Source/FilteringFunctions/arm_biquad_cascade_stereo_df2T_f32.c ****             p4a = a2 * acc1a;
 542:Drivers/CMSIS/DSP/Source/FilteringFunctions/arm_biquad_cascade_stereo_df2T_f32.c ****             p4b = a2 * acc1b;
 543:Drivers/CMSIS/DSP/Source/FilteringFunctions/arm_biquad_cascade_stereo_df2T_f32.c ****             d1a = A1a + d2a;
 544:Drivers/CMSIS/DSP/Source/FilteringFunctions/arm_biquad_cascade_stereo_df2T_f32.c ****             d1b = A1b + d2b;
 545:Drivers/CMSIS/DSP/Source/FilteringFunctions/arm_biquad_cascade_stereo_df2T_f32.c ****             d2a = p2a + p4a;
 546:Drivers/CMSIS/DSP/Source/FilteringFunctions/arm_biquad_cascade_stereo_df2T_f32.c ****             d2b = p2b + p4b;
 547:Drivers/CMSIS/DSP/Source/FilteringFunctions/arm_biquad_cascade_stereo_df2T_f32.c **** 
 548:Drivers/CMSIS/DSP/Source/FilteringFunctions/arm_biquad_cascade_stereo_df2T_f32.c ****             p1a = b1 * Xn2a;
 549:Drivers/CMSIS/DSP/Source/FilteringFunctions/arm_biquad_cascade_stereo_df2T_f32.c ****             p1b = b1 * Xn2b;
 550:Drivers/CMSIS/DSP/Source/FilteringFunctions/arm_biquad_cascade_stereo_df2T_f32.c ****             acc2a = p0a + d1a;
 551:Drivers/CMSIS/DSP/Source/FilteringFunctions/arm_biquad_cascade_stereo_df2T_f32.c ****             acc2b = p0b + d1b;
 552:Drivers/CMSIS/DSP/Source/FilteringFunctions/arm_biquad_cascade_stereo_df2T_f32.c ****             p0a = b0 * Xn3a;
 553:Drivers/CMSIS/DSP/Source/FilteringFunctions/arm_biquad_cascade_stereo_df2T_f32.c ****             p0b = b0 * Xn3b;
 554:Drivers/CMSIS/DSP/Source/FilteringFunctions/arm_biquad_cascade_stereo_df2T_f32.c ****             p3a = a1 * acc2a;
 555:Drivers/CMSIS/DSP/Source/FilteringFunctions/arm_biquad_cascade_stereo_df2T_f32.c ****             p3b = a1 * acc2b;
 556:Drivers/CMSIS/DSP/Source/FilteringFunctions/arm_biquad_cascade_stereo_df2T_f32.c ****             p2a = b2 * Xn2a;
 557:Drivers/CMSIS/DSP/Source/FilteringFunctions/arm_biquad_cascade_stereo_df2T_f32.c ****             p2b = b2 * Xn2b;
 558:Drivers/CMSIS/DSP/Source/FilteringFunctions/arm_biquad_cascade_stereo_df2T_f32.c ****             A1a = p1a + p3a;
 559:Drivers/CMSIS/DSP/Source/FilteringFunctions/arm_biquad_cascade_stereo_df2T_f32.c ****             A1b = p1b + p3b;
 560:Drivers/CMSIS/DSP/Source/FilteringFunctions/arm_biquad_cascade_stereo_df2T_f32.c ****             p4a = a2 * acc2a;
 561:Drivers/CMSIS/DSP/Source/FilteringFunctions/arm_biquad_cascade_stereo_df2T_f32.c ****             p4b = a2 * acc2b;
 562:Drivers/CMSIS/DSP/Source/FilteringFunctions/arm_biquad_cascade_stereo_df2T_f32.c ****             d1a = A1a + d2a;
 563:Drivers/CMSIS/DSP/Source/FilteringFunctions/arm_biquad_cascade_stereo_df2T_f32.c ****             d1b = A1b + d2b;
 564:Drivers/CMSIS/DSP/Source/FilteringFunctions/arm_biquad_cascade_stereo_df2T_f32.c ****             d2a = p2a + p4a;
 565:Drivers/CMSIS/DSP/Source/FilteringFunctions/arm_biquad_cascade_stereo_df2T_f32.c ****             d2b = p2b + p4b;
 566:Drivers/CMSIS/DSP/Source/FilteringFunctions/arm_biquad_cascade_stereo_df2T_f32.c **** 
 567:Drivers/CMSIS/DSP/Source/FilteringFunctions/arm_biquad_cascade_stereo_df2T_f32.c ****             p1a = b1 * Xn3a;
 568:Drivers/CMSIS/DSP/Source/FilteringFunctions/arm_biquad_cascade_stereo_df2T_f32.c ****             p1b = b1 * Xn3b;
 569:Drivers/CMSIS/DSP/Source/FilteringFunctions/arm_biquad_cascade_stereo_df2T_f32.c ****             acc3a = p0a + d1a;
 570:Drivers/CMSIS/DSP/Source/FilteringFunctions/arm_biquad_cascade_stereo_df2T_f32.c ****             acc3b = p0b + d1b;
 571:Drivers/CMSIS/DSP/Source/FilteringFunctions/arm_biquad_cascade_stereo_df2T_f32.c ****             p0a = b0 * Xn4a;
 572:Drivers/CMSIS/DSP/Source/FilteringFunctions/arm_biquad_cascade_stereo_df2T_f32.c ****             p0b = b0 * Xn4b;
 573:Drivers/CMSIS/DSP/Source/FilteringFunctions/arm_biquad_cascade_stereo_df2T_f32.c ****             p3a = a1 * acc3a;
 574:Drivers/CMSIS/DSP/Source/FilteringFunctions/arm_biquad_cascade_stereo_df2T_f32.c ****             p3b = a1 * acc3b;
 575:Drivers/CMSIS/DSP/Source/FilteringFunctions/arm_biquad_cascade_stereo_df2T_f32.c ****             p2a = b2 * Xn3a;
 576:Drivers/CMSIS/DSP/Source/FilteringFunctions/arm_biquad_cascade_stereo_df2T_f32.c ****             p2b = b2 * Xn3b;
 577:Drivers/CMSIS/DSP/Source/FilteringFunctions/arm_biquad_cascade_stereo_df2T_f32.c ****             A1a = p1a + p3a;
 578:Drivers/CMSIS/DSP/Source/FilteringFunctions/arm_biquad_cascade_stereo_df2T_f32.c ****             A1b = p1b + p3b;
 579:Drivers/CMSIS/DSP/Source/FilteringFunctions/arm_biquad_cascade_stereo_df2T_f32.c ****             p4a = a2 * acc3a;
 580:Drivers/CMSIS/DSP/Source/FilteringFunctions/arm_biquad_cascade_stereo_df2T_f32.c ****             p4b = a2 * acc3b;
 581:Drivers/CMSIS/DSP/Source/FilteringFunctions/arm_biquad_cascade_stereo_df2T_f32.c ****             d1a = A1a + d2a;
 582:Drivers/CMSIS/DSP/Source/FilteringFunctions/arm_biquad_cascade_stereo_df2T_f32.c ****             d1b = A1b + d2b;
 583:Drivers/CMSIS/DSP/Source/FilteringFunctions/arm_biquad_cascade_stereo_df2T_f32.c ****             d2a = p2a + p4a;
 584:Drivers/CMSIS/DSP/Source/FilteringFunctions/arm_biquad_cascade_stereo_df2T_f32.c ****             d2b = p2b + p4b;
 585:Drivers/CMSIS/DSP/Source/FilteringFunctions/arm_biquad_cascade_stereo_df2T_f32.c **** 
 586:Drivers/CMSIS/DSP/Source/FilteringFunctions/arm_biquad_cascade_stereo_df2T_f32.c ****             acc4a = p0a + d1a;
 587:Drivers/CMSIS/DSP/Source/FilteringFunctions/arm_biquad_cascade_stereo_df2T_f32.c ****             acc4b = p0b + d1b;
ARM GAS  /var/folders/n6/c271nzx11xl4r4_m7sqjlt0m0000gn/T//ccsvuvwZ.s 			page 33


 588:Drivers/CMSIS/DSP/Source/FilteringFunctions/arm_biquad_cascade_stereo_df2T_f32.c ****             p1a = b1 * Xn4a;
 589:Drivers/CMSIS/DSP/Source/FilteringFunctions/arm_biquad_cascade_stereo_df2T_f32.c ****             p1b = b1 * Xn4b;
 590:Drivers/CMSIS/DSP/Source/FilteringFunctions/arm_biquad_cascade_stereo_df2T_f32.c ****             p3a = a1 * acc4a;
 591:Drivers/CMSIS/DSP/Source/FilteringFunctions/arm_biquad_cascade_stereo_df2T_f32.c ****             p3b = a1 * acc4b;
 592:Drivers/CMSIS/DSP/Source/FilteringFunctions/arm_biquad_cascade_stereo_df2T_f32.c ****             p2a = b2 * Xn4a;
 593:Drivers/CMSIS/DSP/Source/FilteringFunctions/arm_biquad_cascade_stereo_df2T_f32.c ****             p2b = b2 * Xn4b;
 594:Drivers/CMSIS/DSP/Source/FilteringFunctions/arm_biquad_cascade_stereo_df2T_f32.c ****             A1a = p1a + p3a;
 595:Drivers/CMSIS/DSP/Source/FilteringFunctions/arm_biquad_cascade_stereo_df2T_f32.c ****             A1b = p1b + p3b;
 596:Drivers/CMSIS/DSP/Source/FilteringFunctions/arm_biquad_cascade_stereo_df2T_f32.c ****             p4a = a2 * acc4a;
 597:Drivers/CMSIS/DSP/Source/FilteringFunctions/arm_biquad_cascade_stereo_df2T_f32.c ****             p4b = a2 * acc4b;
 598:Drivers/CMSIS/DSP/Source/FilteringFunctions/arm_biquad_cascade_stereo_df2T_f32.c ****             d1a = A1a + d2a;
 599:Drivers/CMSIS/DSP/Source/FilteringFunctions/arm_biquad_cascade_stereo_df2T_f32.c ****             d1b = A1b + d2b;
 600:Drivers/CMSIS/DSP/Source/FilteringFunctions/arm_biquad_cascade_stereo_df2T_f32.c ****             d2a = p2a + p4a;
 601:Drivers/CMSIS/DSP/Source/FilteringFunctions/arm_biquad_cascade_stereo_df2T_f32.c ****             d2b = p2b + p4b;
 602:Drivers/CMSIS/DSP/Source/FilteringFunctions/arm_biquad_cascade_stereo_df2T_f32.c **** 
 603:Drivers/CMSIS/DSP/Source/FilteringFunctions/arm_biquad_cascade_stereo_df2T_f32.c ****             pOut[0] = acc1a;
 604:Drivers/CMSIS/DSP/Source/FilteringFunctions/arm_biquad_cascade_stereo_df2T_f32.c ****             pOut[1] = acc1b;
 605:Drivers/CMSIS/DSP/Source/FilteringFunctions/arm_biquad_cascade_stereo_df2T_f32.c ****             pOut[2] = acc2a;
 606:Drivers/CMSIS/DSP/Source/FilteringFunctions/arm_biquad_cascade_stereo_df2T_f32.c ****             pOut[3] = acc2b;
 607:Drivers/CMSIS/DSP/Source/FilteringFunctions/arm_biquad_cascade_stereo_df2T_f32.c ****             pOut[4] = acc3a;
 608:Drivers/CMSIS/DSP/Source/FilteringFunctions/arm_biquad_cascade_stereo_df2T_f32.c ****             pOut[5] = acc3b;
 609:Drivers/CMSIS/DSP/Source/FilteringFunctions/arm_biquad_cascade_stereo_df2T_f32.c ****             pOut[6] = acc4a;
 610:Drivers/CMSIS/DSP/Source/FilteringFunctions/arm_biquad_cascade_stereo_df2T_f32.c ****             pOut[7] = acc4b;
 611:Drivers/CMSIS/DSP/Source/FilteringFunctions/arm_biquad_cascade_stereo_df2T_f32.c ****             pOut += 8;
 612:Drivers/CMSIS/DSP/Source/FilteringFunctions/arm_biquad_cascade_stereo_df2T_f32.c **** 
 613:Drivers/CMSIS/DSP/Source/FilteringFunctions/arm_biquad_cascade_stereo_df2T_f32.c ****             sample--;
 614:Drivers/CMSIS/DSP/Source/FilteringFunctions/arm_biquad_cascade_stereo_df2T_f32.c ****         }
 615:Drivers/CMSIS/DSP/Source/FilteringFunctions/arm_biquad_cascade_stereo_df2T_f32.c **** 
 616:Drivers/CMSIS/DSP/Source/FilteringFunctions/arm_biquad_cascade_stereo_df2T_f32.c ****         sample = blockSize & 0x3U;
 617:Drivers/CMSIS/DSP/Source/FilteringFunctions/arm_biquad_cascade_stereo_df2T_f32.c ****         while (sample > 0U) {
 618:Drivers/CMSIS/DSP/Source/FilteringFunctions/arm_biquad_cascade_stereo_df2T_f32.c ****             Xn1a = *pIn++;
 619:Drivers/CMSIS/DSP/Source/FilteringFunctions/arm_biquad_cascade_stereo_df2T_f32.c ****             Xn1b = *pIn++;
 620:Drivers/CMSIS/DSP/Source/FilteringFunctions/arm_biquad_cascade_stereo_df2T_f32.c **** 
 621:Drivers/CMSIS/DSP/Source/FilteringFunctions/arm_biquad_cascade_stereo_df2T_f32.c ****             p0a = b0 * Xn1a;
 622:Drivers/CMSIS/DSP/Source/FilteringFunctions/arm_biquad_cascade_stereo_df2T_f32.c ****             p0b = b0 * Xn1b;
 623:Drivers/CMSIS/DSP/Source/FilteringFunctions/arm_biquad_cascade_stereo_df2T_f32.c ****             p1a = b1 * Xn1a;
 624:Drivers/CMSIS/DSP/Source/FilteringFunctions/arm_biquad_cascade_stereo_df2T_f32.c ****             p1b = b1 * Xn1b;
 625:Drivers/CMSIS/DSP/Source/FilteringFunctions/arm_biquad_cascade_stereo_df2T_f32.c ****             acc1a = p0a + d1a;
 626:Drivers/CMSIS/DSP/Source/FilteringFunctions/arm_biquad_cascade_stereo_df2T_f32.c ****             acc1b = p0b + d1b;
 627:Drivers/CMSIS/DSP/Source/FilteringFunctions/arm_biquad_cascade_stereo_df2T_f32.c ****             p3a = a1 * acc1a;
 628:Drivers/CMSIS/DSP/Source/FilteringFunctions/arm_biquad_cascade_stereo_df2T_f32.c ****             p3b = a1 * acc1b;
 629:Drivers/CMSIS/DSP/Source/FilteringFunctions/arm_biquad_cascade_stereo_df2T_f32.c ****             p2a = b2 * Xn1a;
 630:Drivers/CMSIS/DSP/Source/FilteringFunctions/arm_biquad_cascade_stereo_df2T_f32.c ****             p2b = b2 * Xn1b;
 631:Drivers/CMSIS/DSP/Source/FilteringFunctions/arm_biquad_cascade_stereo_df2T_f32.c ****             A1a = p1a + p3a;
 632:Drivers/CMSIS/DSP/Source/FilteringFunctions/arm_biquad_cascade_stereo_df2T_f32.c ****             A1b = p1b + p3b;
 633:Drivers/CMSIS/DSP/Source/FilteringFunctions/arm_biquad_cascade_stereo_df2T_f32.c ****             p4a = a2 * acc1a;
 634:Drivers/CMSIS/DSP/Source/FilteringFunctions/arm_biquad_cascade_stereo_df2T_f32.c ****             p4b = a2 * acc1b;
 635:Drivers/CMSIS/DSP/Source/FilteringFunctions/arm_biquad_cascade_stereo_df2T_f32.c ****             d1a = A1a + d2a;
 636:Drivers/CMSIS/DSP/Source/FilteringFunctions/arm_biquad_cascade_stereo_df2T_f32.c ****             d1b = A1b + d2b;
 637:Drivers/CMSIS/DSP/Source/FilteringFunctions/arm_biquad_cascade_stereo_df2T_f32.c ****             d2a = p2a + p4a;
 638:Drivers/CMSIS/DSP/Source/FilteringFunctions/arm_biquad_cascade_stereo_df2T_f32.c ****             d2b = p2b + p4b;
 639:Drivers/CMSIS/DSP/Source/FilteringFunctions/arm_biquad_cascade_stereo_df2T_f32.c **** 
 640:Drivers/CMSIS/DSP/Source/FilteringFunctions/arm_biquad_cascade_stereo_df2T_f32.c ****             *pOut++ = acc1a;
 641:Drivers/CMSIS/DSP/Source/FilteringFunctions/arm_biquad_cascade_stereo_df2T_f32.c ****             *pOut++ = acc1b;
 642:Drivers/CMSIS/DSP/Source/FilteringFunctions/arm_biquad_cascade_stereo_df2T_f32.c **** 
 643:Drivers/CMSIS/DSP/Source/FilteringFunctions/arm_biquad_cascade_stereo_df2T_f32.c ****             sample--;
 644:Drivers/CMSIS/DSP/Source/FilteringFunctions/arm_biquad_cascade_stereo_df2T_f32.c ****         }
ARM GAS  /var/folders/n6/c271nzx11xl4r4_m7sqjlt0m0000gn/T//ccsvuvwZ.s 			page 34


 645:Drivers/CMSIS/DSP/Source/FilteringFunctions/arm_biquad_cascade_stereo_df2T_f32.c **** 
 646:Drivers/CMSIS/DSP/Source/FilteringFunctions/arm_biquad_cascade_stereo_df2T_f32.c ****         /* Store the updated state variables back into the state array */
 647:Drivers/CMSIS/DSP/Source/FilteringFunctions/arm_biquad_cascade_stereo_df2T_f32.c ****         *pState++ = d1a;
 648:Drivers/CMSIS/DSP/Source/FilteringFunctions/arm_biquad_cascade_stereo_df2T_f32.c ****         *pState++ = d2a;
 649:Drivers/CMSIS/DSP/Source/FilteringFunctions/arm_biquad_cascade_stereo_df2T_f32.c ****         *pState++ = d1b;
 650:Drivers/CMSIS/DSP/Source/FilteringFunctions/arm_biquad_cascade_stereo_df2T_f32.c ****         *pState++ = d2b;
 651:Drivers/CMSIS/DSP/Source/FilteringFunctions/arm_biquad_cascade_stereo_df2T_f32.c **** 
 652:Drivers/CMSIS/DSP/Source/FilteringFunctions/arm_biquad_cascade_stereo_df2T_f32.c ****         /* The current stage input is given as the output to the next stage */
 653:Drivers/CMSIS/DSP/Source/FilteringFunctions/arm_biquad_cascade_stereo_df2T_f32.c ****         pIn = pDst;
 654:Drivers/CMSIS/DSP/Source/FilteringFunctions/arm_biquad_cascade_stereo_df2T_f32.c **** 
 655:Drivers/CMSIS/DSP/Source/FilteringFunctions/arm_biquad_cascade_stereo_df2T_f32.c ****         /*Reset the output working pointer */
 656:Drivers/CMSIS/DSP/Source/FilteringFunctions/arm_biquad_cascade_stereo_df2T_f32.c ****         pOut = pDst;
 657:Drivers/CMSIS/DSP/Source/FilteringFunctions/arm_biquad_cascade_stereo_df2T_f32.c **** 
 658:Drivers/CMSIS/DSP/Source/FilteringFunctions/arm_biquad_cascade_stereo_df2T_f32.c ****         /* decrement the loop counter */
 659:Drivers/CMSIS/DSP/Source/FilteringFunctions/arm_biquad_cascade_stereo_df2T_f32.c ****         stage--;
 660:Drivers/CMSIS/DSP/Source/FilteringFunctions/arm_biquad_cascade_stereo_df2T_f32.c **** 
 661:Drivers/CMSIS/DSP/Source/FilteringFunctions/arm_biquad_cascade_stereo_df2T_f32.c ****     } while (stage > 0U);
 662:Drivers/CMSIS/DSP/Source/FilteringFunctions/arm_biquad_cascade_stereo_df2T_f32.c **** 
 663:Drivers/CMSIS/DSP/Source/FilteringFunctions/arm_biquad_cascade_stereo_df2T_f32.c **** #endif
 664:Drivers/CMSIS/DSP/Source/FilteringFunctions/arm_biquad_cascade_stereo_df2T_f32.c **** 
 665:Drivers/CMSIS/DSP/Source/FilteringFunctions/arm_biquad_cascade_stereo_df2T_f32.c **** }
 867              		.loc 1 665 1 view .LVU396
 868 03c0 BDEC0C8B 		vldm	sp!, {d8-d13}
 869              		.cfi_remember_state
 870              		.cfi_restore 90
 871              		.cfi_restore 91
 872              		.cfi_restore 88
 873              		.cfi_restore 89
 874              		.cfi_restore 86
 875              		.cfi_restore 87
 876              		.cfi_restore 84
 877              		.cfi_restore 85
 878              		.cfi_restore 82
 879              		.cfi_restore 83
 880              		.cfi_restore 80
 881              		.cfi_restore 81
 882              		.cfi_def_cfa_offset 36
 883 03c4 BDE8F08F 		pop	{r4, r5, r6, r7, r8, r9, r10, fp, pc}
 884              	.LVL160:
 885              	.L7:
 886              		.cfi_restore_state
 187:Drivers/CMSIS/DSP/Source/FilteringFunctions/arm_biquad_cascade_stereo_df2T_f32.c **** 
 887              		.loc 1 187 23 view .LVU397
 888 03c8 2846     		mov	r0, r5
 889 03ca B5E7     		b	.L2
 890              		.cfi_endproc
 891              	.LFE135:
 893              		.text
 894              	.Letext0:
 895              		.file 2 "/Users/killian/Library/Application Support/Code/User/globalStorage/bmd.stm32-for-vscode/@
 896              		.file 3 "/Users/killian/Library/Application Support/Code/User/globalStorage/bmd.stm32-for-vscode/@
 897              		.file 4 "Drivers/CMSIS/DSP/Include/arm_math.h"
ARM GAS  /var/folders/n6/c271nzx11xl4r4_m7sqjlt0m0000gn/T//ccsvuvwZ.s 			page 35

