ARM GAS  /var/folders/n6/c271nzx11xl4r4_m7sqjlt0m0000gn/T//ccsecID7.s 			page 1


   1              		.cpu cortex-m7
   2              		.arch armv7e-m
   3              		.fpu fpv5-d16
   4              		.eabi_attribute 28, 1
   5              		.eabi_attribute 20, 1
   6              		.eabi_attribute 21, 1
   7              		.eabi_attribute 23, 3
   8              		.eabi_attribute 24, 1
   9              		.eabi_attribute 25, 1
  10              		.eabi_attribute 26, 1
  11              		.eabi_attribute 30, 1
  12              		.eabi_attribute 34, 1
  13              		.eabi_attribute 18, 4
  14              		.file	"arm_biquad_cascade_df1_32x64_q31.c"
  15              		.text
  16              	.Ltext0:
  17              		.cfi_sections	.debug_frame
  18              		.file 1 "Drivers/CMSIS/DSP/Source/FilteringFunctions/arm_biquad_cascade_df1_32x64_q31.c"
  19              		.section	.text.arm_biquad_cas_df1_32x64_q31,"ax",%progbits
  20              		.align	1
  21              		.global	arm_biquad_cas_df1_32x64_q31
  22              		.syntax unified
  23              		.thumb
  24              		.thumb_func
  26              	arm_biquad_cas_df1_32x64_q31:
  27              	.LVL0:
  28              	.LFB135:
   1:Drivers/CMSIS/DSP/Source/FilteringFunctions/arm_biquad_cascade_df1_32x64_q31.c **** /* ----------------------------------------------------------------------
   2:Drivers/CMSIS/DSP/Source/FilteringFunctions/arm_biquad_cascade_df1_32x64_q31.c ****  * Project:      CMSIS DSP Library
   3:Drivers/CMSIS/DSP/Source/FilteringFunctions/arm_biquad_cascade_df1_32x64_q31.c ****  * Title:        arm_biquad_cascade_df1_32x64_q31.c
   4:Drivers/CMSIS/DSP/Source/FilteringFunctions/arm_biquad_cascade_df1_32x64_q31.c ****  * Description:  High precision Q31 Biquad cascade filter processing function
   5:Drivers/CMSIS/DSP/Source/FilteringFunctions/arm_biquad_cascade_df1_32x64_q31.c ****  *
   6:Drivers/CMSIS/DSP/Source/FilteringFunctions/arm_biquad_cascade_df1_32x64_q31.c ****  * $Date:        27. January 2017
   7:Drivers/CMSIS/DSP/Source/FilteringFunctions/arm_biquad_cascade_df1_32x64_q31.c ****  * $Revision:    V.1.5.1
   8:Drivers/CMSIS/DSP/Source/FilteringFunctions/arm_biquad_cascade_df1_32x64_q31.c ****  *
   9:Drivers/CMSIS/DSP/Source/FilteringFunctions/arm_biquad_cascade_df1_32x64_q31.c ****  * Target Processor: Cortex-M cores
  10:Drivers/CMSIS/DSP/Source/FilteringFunctions/arm_biquad_cascade_df1_32x64_q31.c ****  * -------------------------------------------------------------------- */
  11:Drivers/CMSIS/DSP/Source/FilteringFunctions/arm_biquad_cascade_df1_32x64_q31.c **** /*
  12:Drivers/CMSIS/DSP/Source/FilteringFunctions/arm_biquad_cascade_df1_32x64_q31.c ****  * Copyright (C) 2010-2017 ARM Limited or its affiliates. All rights reserved.
  13:Drivers/CMSIS/DSP/Source/FilteringFunctions/arm_biquad_cascade_df1_32x64_q31.c ****  *
  14:Drivers/CMSIS/DSP/Source/FilteringFunctions/arm_biquad_cascade_df1_32x64_q31.c ****  * SPDX-License-Identifier: Apache-2.0
  15:Drivers/CMSIS/DSP/Source/FilteringFunctions/arm_biquad_cascade_df1_32x64_q31.c ****  *
  16:Drivers/CMSIS/DSP/Source/FilteringFunctions/arm_biquad_cascade_df1_32x64_q31.c ****  * Licensed under the Apache License, Version 2.0 (the License); you may
  17:Drivers/CMSIS/DSP/Source/FilteringFunctions/arm_biquad_cascade_df1_32x64_q31.c ****  * not use this file except in compliance with the License.
  18:Drivers/CMSIS/DSP/Source/FilteringFunctions/arm_biquad_cascade_df1_32x64_q31.c ****  * You may obtain a copy of the License at
  19:Drivers/CMSIS/DSP/Source/FilteringFunctions/arm_biquad_cascade_df1_32x64_q31.c ****  *
  20:Drivers/CMSIS/DSP/Source/FilteringFunctions/arm_biquad_cascade_df1_32x64_q31.c ****  * www.apache.org/licenses/LICENSE-2.0
  21:Drivers/CMSIS/DSP/Source/FilteringFunctions/arm_biquad_cascade_df1_32x64_q31.c ****  *
  22:Drivers/CMSIS/DSP/Source/FilteringFunctions/arm_biquad_cascade_df1_32x64_q31.c ****  * Unless required by applicable law or agreed to in writing, software
  23:Drivers/CMSIS/DSP/Source/FilteringFunctions/arm_biquad_cascade_df1_32x64_q31.c ****  * distributed under the License is distributed on an AS IS BASIS, WITHOUT
  24:Drivers/CMSIS/DSP/Source/FilteringFunctions/arm_biquad_cascade_df1_32x64_q31.c ****  * WARRANTIES OR CONDITIONS OF ANY KIND, either express or implied.
  25:Drivers/CMSIS/DSP/Source/FilteringFunctions/arm_biquad_cascade_df1_32x64_q31.c ****  * See the License for the specific language governing permissions and
  26:Drivers/CMSIS/DSP/Source/FilteringFunctions/arm_biquad_cascade_df1_32x64_q31.c ****  * limitations under the License.
  27:Drivers/CMSIS/DSP/Source/FilteringFunctions/arm_biquad_cascade_df1_32x64_q31.c ****  */
  28:Drivers/CMSIS/DSP/Source/FilteringFunctions/arm_biquad_cascade_df1_32x64_q31.c **** 
  29:Drivers/CMSIS/DSP/Source/FilteringFunctions/arm_biquad_cascade_df1_32x64_q31.c **** #include "arm_math.h"
  30:Drivers/CMSIS/DSP/Source/FilteringFunctions/arm_biquad_cascade_df1_32x64_q31.c **** 
ARM GAS  /var/folders/n6/c271nzx11xl4r4_m7sqjlt0m0000gn/T//ccsecID7.s 			page 2


  31:Drivers/CMSIS/DSP/Source/FilteringFunctions/arm_biquad_cascade_df1_32x64_q31.c **** /**
  32:Drivers/CMSIS/DSP/Source/FilteringFunctions/arm_biquad_cascade_df1_32x64_q31.c ****  * @ingroup groupFilters
  33:Drivers/CMSIS/DSP/Source/FilteringFunctions/arm_biquad_cascade_df1_32x64_q31.c ****  */
  34:Drivers/CMSIS/DSP/Source/FilteringFunctions/arm_biquad_cascade_df1_32x64_q31.c **** 
  35:Drivers/CMSIS/DSP/Source/FilteringFunctions/arm_biquad_cascade_df1_32x64_q31.c **** /**
  36:Drivers/CMSIS/DSP/Source/FilteringFunctions/arm_biquad_cascade_df1_32x64_q31.c ****  * @defgroup BiquadCascadeDF1_32x64 High Precision Q31 Biquad Cascade Filter
  37:Drivers/CMSIS/DSP/Source/FilteringFunctions/arm_biquad_cascade_df1_32x64_q31.c ****  *
  38:Drivers/CMSIS/DSP/Source/FilteringFunctions/arm_biquad_cascade_df1_32x64_q31.c ****  * This function implements a high precision Biquad cascade filter which operates on
  39:Drivers/CMSIS/DSP/Source/FilteringFunctions/arm_biquad_cascade_df1_32x64_q31.c ****  * Q31 data values.  The filter coefficients are in 1.31 format and the state variables
  40:Drivers/CMSIS/DSP/Source/FilteringFunctions/arm_biquad_cascade_df1_32x64_q31.c ****  * are in 1.63 format.  The double precision state variables reduce quantization noise
  41:Drivers/CMSIS/DSP/Source/FilteringFunctions/arm_biquad_cascade_df1_32x64_q31.c ****  * in the filter and provide a cleaner output.
  42:Drivers/CMSIS/DSP/Source/FilteringFunctions/arm_biquad_cascade_df1_32x64_q31.c ****  * These filters are particularly useful when implementing filters in which the
  43:Drivers/CMSIS/DSP/Source/FilteringFunctions/arm_biquad_cascade_df1_32x64_q31.c ****  * singularities are close to the unit circle.  This is common for low pass or high
  44:Drivers/CMSIS/DSP/Source/FilteringFunctions/arm_biquad_cascade_df1_32x64_q31.c ****  * pass filters with very low cutoff frequencies.
  45:Drivers/CMSIS/DSP/Source/FilteringFunctions/arm_biquad_cascade_df1_32x64_q31.c ****  *
  46:Drivers/CMSIS/DSP/Source/FilteringFunctions/arm_biquad_cascade_df1_32x64_q31.c ****  * The function operates on blocks of input and output data
  47:Drivers/CMSIS/DSP/Source/FilteringFunctions/arm_biquad_cascade_df1_32x64_q31.c ****  * and each call to the function processes <code>blockSize</code> samples through
  48:Drivers/CMSIS/DSP/Source/FilteringFunctions/arm_biquad_cascade_df1_32x64_q31.c ****  * the filter. <code>pSrc</code> and <code>pDst</code> points to input and output arrays
  49:Drivers/CMSIS/DSP/Source/FilteringFunctions/arm_biquad_cascade_df1_32x64_q31.c ****  * containing <code>blockSize</code> Q31 values.
  50:Drivers/CMSIS/DSP/Source/FilteringFunctions/arm_biquad_cascade_df1_32x64_q31.c ****  *
  51:Drivers/CMSIS/DSP/Source/FilteringFunctions/arm_biquad_cascade_df1_32x64_q31.c ****  * \par Algorithm
  52:Drivers/CMSIS/DSP/Source/FilteringFunctions/arm_biquad_cascade_df1_32x64_q31.c ****  * Each Biquad stage implements a second order filter using the difference equation:
  53:Drivers/CMSIS/DSP/Source/FilteringFunctions/arm_biquad_cascade_df1_32x64_q31.c ****  * <pre>
  54:Drivers/CMSIS/DSP/Source/FilteringFunctions/arm_biquad_cascade_df1_32x64_q31.c ****  *     y[n] = b0 * x[n] + b1 * x[n-1] + b2 * x[n-2] + a1 * y[n-1] + a2 * y[n-2]
  55:Drivers/CMSIS/DSP/Source/FilteringFunctions/arm_biquad_cascade_df1_32x64_q31.c ****  * </pre>
  56:Drivers/CMSIS/DSP/Source/FilteringFunctions/arm_biquad_cascade_df1_32x64_q31.c ****  * A Direct Form I algorithm is used with 5 coefficients and 4 state variables per stage.
  57:Drivers/CMSIS/DSP/Source/FilteringFunctions/arm_biquad_cascade_df1_32x64_q31.c ****  * \image html Biquad.gif "Single Biquad filter stage"
  58:Drivers/CMSIS/DSP/Source/FilteringFunctions/arm_biquad_cascade_df1_32x64_q31.c ****  * Coefficients <code>b0, b1, and b2 </code> multiply the input signal <code>x[n]</code> and are re
  59:Drivers/CMSIS/DSP/Source/FilteringFunctions/arm_biquad_cascade_df1_32x64_q31.c ****  * Coefficients <code>a1</code> and <code>a2</code> multiply the output signal <code>y[n]</code> an
  60:Drivers/CMSIS/DSP/Source/FilteringFunctions/arm_biquad_cascade_df1_32x64_q31.c ****  * Pay careful attention to the sign of the feedback coefficients.
  61:Drivers/CMSIS/DSP/Source/FilteringFunctions/arm_biquad_cascade_df1_32x64_q31.c ****  * Some design tools use the difference equation
  62:Drivers/CMSIS/DSP/Source/FilteringFunctions/arm_biquad_cascade_df1_32x64_q31.c ****  * <pre>
  63:Drivers/CMSIS/DSP/Source/FilteringFunctions/arm_biquad_cascade_df1_32x64_q31.c ****  *     y[n] = b0 * x[n] + b1 * x[n-1] + b2 * x[n-2] - a1 * y[n-1] - a2 * y[n-2]
  64:Drivers/CMSIS/DSP/Source/FilteringFunctions/arm_biquad_cascade_df1_32x64_q31.c ****  * </pre>
  65:Drivers/CMSIS/DSP/Source/FilteringFunctions/arm_biquad_cascade_df1_32x64_q31.c ****  * In this case the feedback coefficients <code>a1</code> and <code>a2</code> must be negated when 
  66:Drivers/CMSIS/DSP/Source/FilteringFunctions/arm_biquad_cascade_df1_32x64_q31.c ****  *
  67:Drivers/CMSIS/DSP/Source/FilteringFunctions/arm_biquad_cascade_df1_32x64_q31.c ****  * \par
  68:Drivers/CMSIS/DSP/Source/FilteringFunctions/arm_biquad_cascade_df1_32x64_q31.c ****  * Higher order filters are realized as a cascade of second order sections.
  69:Drivers/CMSIS/DSP/Source/FilteringFunctions/arm_biquad_cascade_df1_32x64_q31.c ****  * <code>numStages</code> refers to the number of second order stages used.
  70:Drivers/CMSIS/DSP/Source/FilteringFunctions/arm_biquad_cascade_df1_32x64_q31.c ****  * For example, an 8th order filter would be realized with <code>numStages=4</code> second order st
  71:Drivers/CMSIS/DSP/Source/FilteringFunctions/arm_biquad_cascade_df1_32x64_q31.c ****  * \image html BiquadCascade.gif "8th order filter using a cascade of Biquad stages"
  72:Drivers/CMSIS/DSP/Source/FilteringFunctions/arm_biquad_cascade_df1_32x64_q31.c ****  * A 9th order filter would be realized with <code>numStages=5</code> second order stages with the 
  73:Drivers/CMSIS/DSP/Source/FilteringFunctions/arm_biquad_cascade_df1_32x64_q31.c ****  *
  74:Drivers/CMSIS/DSP/Source/FilteringFunctions/arm_biquad_cascade_df1_32x64_q31.c ****  * \par
  75:Drivers/CMSIS/DSP/Source/FilteringFunctions/arm_biquad_cascade_df1_32x64_q31.c ****  * The <code>pState</code> points to state variables array .
  76:Drivers/CMSIS/DSP/Source/FilteringFunctions/arm_biquad_cascade_df1_32x64_q31.c ****  * Each Biquad stage has 4 state variables <code>x[n-1], x[n-2], y[n-1],</code> and <code>y[n-2]</c
  77:Drivers/CMSIS/DSP/Source/FilteringFunctions/arm_biquad_cascade_df1_32x64_q31.c ****  * The state variables are arranged in the array as:
  78:Drivers/CMSIS/DSP/Source/FilteringFunctions/arm_biquad_cascade_df1_32x64_q31.c ****  * <pre>
  79:Drivers/CMSIS/DSP/Source/FilteringFunctions/arm_biquad_cascade_df1_32x64_q31.c ****  *     {x[n-1], x[n-2], y[n-1], y[n-2]}
  80:Drivers/CMSIS/DSP/Source/FilteringFunctions/arm_biquad_cascade_df1_32x64_q31.c ****  * </pre>
  81:Drivers/CMSIS/DSP/Source/FilteringFunctions/arm_biquad_cascade_df1_32x64_q31.c ****  *
  82:Drivers/CMSIS/DSP/Source/FilteringFunctions/arm_biquad_cascade_df1_32x64_q31.c ****  * \par
  83:Drivers/CMSIS/DSP/Source/FilteringFunctions/arm_biquad_cascade_df1_32x64_q31.c ****  * The 4 state variables for stage 1 are first, then the 4 state variables for stage 2, and so on.
  84:Drivers/CMSIS/DSP/Source/FilteringFunctions/arm_biquad_cascade_df1_32x64_q31.c ****  * The state array has a total length of <code>4*numStages</code> values of data in 1.63 format.
  85:Drivers/CMSIS/DSP/Source/FilteringFunctions/arm_biquad_cascade_df1_32x64_q31.c ****  * The state variables are updated after each block of data is processed; the coefficients are unto
  86:Drivers/CMSIS/DSP/Source/FilteringFunctions/arm_biquad_cascade_df1_32x64_q31.c ****  *
  87:Drivers/CMSIS/DSP/Source/FilteringFunctions/arm_biquad_cascade_df1_32x64_q31.c ****  * \par Instance Structure
ARM GAS  /var/folders/n6/c271nzx11xl4r4_m7sqjlt0m0000gn/T//ccsecID7.s 			page 3


  88:Drivers/CMSIS/DSP/Source/FilteringFunctions/arm_biquad_cascade_df1_32x64_q31.c ****  * The coefficients and state variables for a filter are stored together in an instance data struct
  89:Drivers/CMSIS/DSP/Source/FilteringFunctions/arm_biquad_cascade_df1_32x64_q31.c ****  * A separate instance structure must be defined for each filter.
  90:Drivers/CMSIS/DSP/Source/FilteringFunctions/arm_biquad_cascade_df1_32x64_q31.c ****  * Coefficient arrays may be shared among several instances while state variable arrays cannot be s
  91:Drivers/CMSIS/DSP/Source/FilteringFunctions/arm_biquad_cascade_df1_32x64_q31.c ****  *
  92:Drivers/CMSIS/DSP/Source/FilteringFunctions/arm_biquad_cascade_df1_32x64_q31.c ****  * \par Init Function
  93:Drivers/CMSIS/DSP/Source/FilteringFunctions/arm_biquad_cascade_df1_32x64_q31.c ****  * There is also an associated initialization function which performs the following operations:
  94:Drivers/CMSIS/DSP/Source/FilteringFunctions/arm_biquad_cascade_df1_32x64_q31.c ****  * - Sets the values of the internal structure fields.
  95:Drivers/CMSIS/DSP/Source/FilteringFunctions/arm_biquad_cascade_df1_32x64_q31.c ****  * - Zeros out the values in the state buffer.
  96:Drivers/CMSIS/DSP/Source/FilteringFunctions/arm_biquad_cascade_df1_32x64_q31.c ****  * To do this manually without calling the init function, assign the follow subfields of the instan
  97:Drivers/CMSIS/DSP/Source/FilteringFunctions/arm_biquad_cascade_df1_32x64_q31.c ****  * numStages, pCoeffs, postShift, pState. Also set all of the values in pState to zero.
  98:Drivers/CMSIS/DSP/Source/FilteringFunctions/arm_biquad_cascade_df1_32x64_q31.c ****  *
  99:Drivers/CMSIS/DSP/Source/FilteringFunctions/arm_biquad_cascade_df1_32x64_q31.c ****  * \par
 100:Drivers/CMSIS/DSP/Source/FilteringFunctions/arm_biquad_cascade_df1_32x64_q31.c ****  * Use of the initialization function is optional.
 101:Drivers/CMSIS/DSP/Source/FilteringFunctions/arm_biquad_cascade_df1_32x64_q31.c ****  * However, if the initialization function is used, then the instance structure cannot be placed in
 102:Drivers/CMSIS/DSP/Source/FilteringFunctions/arm_biquad_cascade_df1_32x64_q31.c ****  * To place an instance structure into a const data section, the instance structure must be manuall
 103:Drivers/CMSIS/DSP/Source/FilteringFunctions/arm_biquad_cascade_df1_32x64_q31.c ****  * Set the values in the state buffer to zeros before static initialization.
 104:Drivers/CMSIS/DSP/Source/FilteringFunctions/arm_biquad_cascade_df1_32x64_q31.c ****  * For example, to statically initialize the filter instance structure use
 105:Drivers/CMSIS/DSP/Source/FilteringFunctions/arm_biquad_cascade_df1_32x64_q31.c ****  * <pre>
 106:Drivers/CMSIS/DSP/Source/FilteringFunctions/arm_biquad_cascade_df1_32x64_q31.c ****  *     arm_biquad_cas_df1_32x64_ins_q31 S1 = {numStages, pState, pCoeffs, postShift};
 107:Drivers/CMSIS/DSP/Source/FilteringFunctions/arm_biquad_cascade_df1_32x64_q31.c ****  * </pre>
 108:Drivers/CMSIS/DSP/Source/FilteringFunctions/arm_biquad_cascade_df1_32x64_q31.c ****  * where <code>numStages</code> is the number of Biquad stages in the filter; <code>pState</code> i
 109:Drivers/CMSIS/DSP/Source/FilteringFunctions/arm_biquad_cascade_df1_32x64_q31.c ****  * <code>pCoeffs</code> is the address of the coefficient buffer; <code>postShift</code> shift to b
 110:Drivers/CMSIS/DSP/Source/FilteringFunctions/arm_biquad_cascade_df1_32x64_q31.c ****  * \par Fixed-Point Behavior
 111:Drivers/CMSIS/DSP/Source/FilteringFunctions/arm_biquad_cascade_df1_32x64_q31.c ****  * Care must be taken while using Biquad Cascade 32x64 filter function.
 112:Drivers/CMSIS/DSP/Source/FilteringFunctions/arm_biquad_cascade_df1_32x64_q31.c ****  * Following issues must be considered:
 113:Drivers/CMSIS/DSP/Source/FilteringFunctions/arm_biquad_cascade_df1_32x64_q31.c ****  * - Scaling of coefficients
 114:Drivers/CMSIS/DSP/Source/FilteringFunctions/arm_biquad_cascade_df1_32x64_q31.c ****  * - Filter gain
 115:Drivers/CMSIS/DSP/Source/FilteringFunctions/arm_biquad_cascade_df1_32x64_q31.c ****  * - Overflow and saturation
 116:Drivers/CMSIS/DSP/Source/FilteringFunctions/arm_biquad_cascade_df1_32x64_q31.c ****  *
 117:Drivers/CMSIS/DSP/Source/FilteringFunctions/arm_biquad_cascade_df1_32x64_q31.c ****  * \par
 118:Drivers/CMSIS/DSP/Source/FilteringFunctions/arm_biquad_cascade_df1_32x64_q31.c ****  * Filter coefficients are represented as fractional values and
 119:Drivers/CMSIS/DSP/Source/FilteringFunctions/arm_biquad_cascade_df1_32x64_q31.c ****  * restricted to lie in the range <code>[-1 +1)</code>.
 120:Drivers/CMSIS/DSP/Source/FilteringFunctions/arm_biquad_cascade_df1_32x64_q31.c ****  * The processing function has an additional scaling parameter <code>postShift</code>
 121:Drivers/CMSIS/DSP/Source/FilteringFunctions/arm_biquad_cascade_df1_32x64_q31.c ****  * which allows the filter coefficients to exceed the range <code>[+1 -1)</code>.
 122:Drivers/CMSIS/DSP/Source/FilteringFunctions/arm_biquad_cascade_df1_32x64_q31.c ****  * At the output of the filter's accumulator is a shift register which shifts the result by <code>p
 123:Drivers/CMSIS/DSP/Source/FilteringFunctions/arm_biquad_cascade_df1_32x64_q31.c ****  * \image html BiquadPostshift.gif "Fixed-point Biquad with shift by postShift bits after accumulat
 124:Drivers/CMSIS/DSP/Source/FilteringFunctions/arm_biquad_cascade_df1_32x64_q31.c ****  * This essentially scales the filter coefficients by <code>2^postShift</code>.
 125:Drivers/CMSIS/DSP/Source/FilteringFunctions/arm_biquad_cascade_df1_32x64_q31.c ****  * For example, to realize the coefficients
 126:Drivers/CMSIS/DSP/Source/FilteringFunctions/arm_biquad_cascade_df1_32x64_q31.c ****  * <pre>
 127:Drivers/CMSIS/DSP/Source/FilteringFunctions/arm_biquad_cascade_df1_32x64_q31.c ****  *    {1.5, -0.8, 1.2, 1.6, -0.9}
 128:Drivers/CMSIS/DSP/Source/FilteringFunctions/arm_biquad_cascade_df1_32x64_q31.c ****  * </pre>
 129:Drivers/CMSIS/DSP/Source/FilteringFunctions/arm_biquad_cascade_df1_32x64_q31.c ****  * set the Coefficient array to:
 130:Drivers/CMSIS/DSP/Source/FilteringFunctions/arm_biquad_cascade_df1_32x64_q31.c ****  * <pre>
 131:Drivers/CMSIS/DSP/Source/FilteringFunctions/arm_biquad_cascade_df1_32x64_q31.c ****  *    {0.75, -0.4, 0.6, 0.8, -0.45}
 132:Drivers/CMSIS/DSP/Source/FilteringFunctions/arm_biquad_cascade_df1_32x64_q31.c ****  * </pre>
 133:Drivers/CMSIS/DSP/Source/FilteringFunctions/arm_biquad_cascade_df1_32x64_q31.c ****  * and set <code>postShift=1</code>
 134:Drivers/CMSIS/DSP/Source/FilteringFunctions/arm_biquad_cascade_df1_32x64_q31.c ****  *
 135:Drivers/CMSIS/DSP/Source/FilteringFunctions/arm_biquad_cascade_df1_32x64_q31.c ****  * \par
 136:Drivers/CMSIS/DSP/Source/FilteringFunctions/arm_biquad_cascade_df1_32x64_q31.c ****  * The second thing to keep in mind is the gain through the filter.
 137:Drivers/CMSIS/DSP/Source/FilteringFunctions/arm_biquad_cascade_df1_32x64_q31.c ****  * The frequency response of a Biquad filter is a function of its coefficients.
 138:Drivers/CMSIS/DSP/Source/FilteringFunctions/arm_biquad_cascade_df1_32x64_q31.c ****  * It is possible for the gain through the filter to exceed 1.0 meaning that the filter increases t
 139:Drivers/CMSIS/DSP/Source/FilteringFunctions/arm_biquad_cascade_df1_32x64_q31.c ****  * This means that an input signal with amplitude < 1.0 may result in an output > 1.0 and these are
 140:Drivers/CMSIS/DSP/Source/FilteringFunctions/arm_biquad_cascade_df1_32x64_q31.c ****  * To avoid this behavior the filter needs to be scaled down such that its peak gain < 1.0 or the i
 141:Drivers/CMSIS/DSP/Source/FilteringFunctions/arm_biquad_cascade_df1_32x64_q31.c ****  *
 142:Drivers/CMSIS/DSP/Source/FilteringFunctions/arm_biquad_cascade_df1_32x64_q31.c ****  * \par
 143:Drivers/CMSIS/DSP/Source/FilteringFunctions/arm_biquad_cascade_df1_32x64_q31.c ****  * The third item to consider is the overflow and saturation behavior of the fixed-point Q31 versio
 144:Drivers/CMSIS/DSP/Source/FilteringFunctions/arm_biquad_cascade_df1_32x64_q31.c ****  * This is described in the function specific documentation below.
ARM GAS  /var/folders/n6/c271nzx11xl4r4_m7sqjlt0m0000gn/T//ccsecID7.s 			page 4


 145:Drivers/CMSIS/DSP/Source/FilteringFunctions/arm_biquad_cascade_df1_32x64_q31.c ****  */
 146:Drivers/CMSIS/DSP/Source/FilteringFunctions/arm_biquad_cascade_df1_32x64_q31.c **** 
 147:Drivers/CMSIS/DSP/Source/FilteringFunctions/arm_biquad_cascade_df1_32x64_q31.c **** /**
 148:Drivers/CMSIS/DSP/Source/FilteringFunctions/arm_biquad_cascade_df1_32x64_q31.c ****  * @addtogroup BiquadCascadeDF1_32x64
 149:Drivers/CMSIS/DSP/Source/FilteringFunctions/arm_biquad_cascade_df1_32x64_q31.c ****  * @{
 150:Drivers/CMSIS/DSP/Source/FilteringFunctions/arm_biquad_cascade_df1_32x64_q31.c ****  */
 151:Drivers/CMSIS/DSP/Source/FilteringFunctions/arm_biquad_cascade_df1_32x64_q31.c **** 
 152:Drivers/CMSIS/DSP/Source/FilteringFunctions/arm_biquad_cascade_df1_32x64_q31.c **** /**
 153:Drivers/CMSIS/DSP/Source/FilteringFunctions/arm_biquad_cascade_df1_32x64_q31.c ****  * @details
 154:Drivers/CMSIS/DSP/Source/FilteringFunctions/arm_biquad_cascade_df1_32x64_q31.c **** 
 155:Drivers/CMSIS/DSP/Source/FilteringFunctions/arm_biquad_cascade_df1_32x64_q31.c ****  * @param[in]  *S points to an instance of the high precision Q31 Biquad cascade filter.
 156:Drivers/CMSIS/DSP/Source/FilteringFunctions/arm_biquad_cascade_df1_32x64_q31.c ****  * @param[in]  *pSrc points to the block of input data.
 157:Drivers/CMSIS/DSP/Source/FilteringFunctions/arm_biquad_cascade_df1_32x64_q31.c ****  * @param[out] *pDst points to the block of output data.
 158:Drivers/CMSIS/DSP/Source/FilteringFunctions/arm_biquad_cascade_df1_32x64_q31.c ****  * @param[in]  blockSize number of samples to process.
 159:Drivers/CMSIS/DSP/Source/FilteringFunctions/arm_biquad_cascade_df1_32x64_q31.c ****  * @return none.
 160:Drivers/CMSIS/DSP/Source/FilteringFunctions/arm_biquad_cascade_df1_32x64_q31.c ****  *
 161:Drivers/CMSIS/DSP/Source/FilteringFunctions/arm_biquad_cascade_df1_32x64_q31.c ****  * \par
 162:Drivers/CMSIS/DSP/Source/FilteringFunctions/arm_biquad_cascade_df1_32x64_q31.c ****  * The function is implemented using an internal 64-bit accumulator.
 163:Drivers/CMSIS/DSP/Source/FilteringFunctions/arm_biquad_cascade_df1_32x64_q31.c ****  * The accumulator has a 2.62 format and maintains full precision of the intermediate multiplicatio
 164:Drivers/CMSIS/DSP/Source/FilteringFunctions/arm_biquad_cascade_df1_32x64_q31.c ****  * Thus, if the accumulator result overflows it wraps around rather than clip.
 165:Drivers/CMSIS/DSP/Source/FilteringFunctions/arm_biquad_cascade_df1_32x64_q31.c ****  * In order to avoid overflows completely the input signal must be scaled down by 2 bits and lie in
 166:Drivers/CMSIS/DSP/Source/FilteringFunctions/arm_biquad_cascade_df1_32x64_q31.c ****  * After all 5 multiply-accumulates are performed, the 2.62 accumulator is shifted by <code>postShi
 167:Drivers/CMSIS/DSP/Source/FilteringFunctions/arm_biquad_cascade_df1_32x64_q31.c ****  * 1.31 format by discarding the low 32 bits.
 168:Drivers/CMSIS/DSP/Source/FilteringFunctions/arm_biquad_cascade_df1_32x64_q31.c ****  *
 169:Drivers/CMSIS/DSP/Source/FilteringFunctions/arm_biquad_cascade_df1_32x64_q31.c ****  * \par
 170:Drivers/CMSIS/DSP/Source/FilteringFunctions/arm_biquad_cascade_df1_32x64_q31.c ****  * Two related functions are provided in the CMSIS DSP library.
 171:Drivers/CMSIS/DSP/Source/FilteringFunctions/arm_biquad_cascade_df1_32x64_q31.c ****  * <code>arm_biquad_cascade_df1_q31()</code> implements a Biquad cascade with 32-bit coefficients a
 172:Drivers/CMSIS/DSP/Source/FilteringFunctions/arm_biquad_cascade_df1_32x64_q31.c ****  * <code>arm_biquad_cascade_df1_fast_q31()</code> implements a Biquad cascade with 32-bit coefficie
 173:Drivers/CMSIS/DSP/Source/FilteringFunctions/arm_biquad_cascade_df1_32x64_q31.c ****  */
 174:Drivers/CMSIS/DSP/Source/FilteringFunctions/arm_biquad_cascade_df1_32x64_q31.c **** 
 175:Drivers/CMSIS/DSP/Source/FilteringFunctions/arm_biquad_cascade_df1_32x64_q31.c **** void arm_biquad_cas_df1_32x64_q31(
 176:Drivers/CMSIS/DSP/Source/FilteringFunctions/arm_biquad_cascade_df1_32x64_q31.c ****   const arm_biquad_cas_df1_32x64_ins_q31 * S,
 177:Drivers/CMSIS/DSP/Source/FilteringFunctions/arm_biquad_cascade_df1_32x64_q31.c ****   q31_t * pSrc,
 178:Drivers/CMSIS/DSP/Source/FilteringFunctions/arm_biquad_cascade_df1_32x64_q31.c ****   q31_t * pDst,
 179:Drivers/CMSIS/DSP/Source/FilteringFunctions/arm_biquad_cascade_df1_32x64_q31.c ****   uint32_t blockSize)
 180:Drivers/CMSIS/DSP/Source/FilteringFunctions/arm_biquad_cascade_df1_32x64_q31.c **** {
  29              		.loc 1 180 1 view -0
  30              		.cfi_startproc
  31              		@ args = 0, pretend = 0, frame = 104
  32              		@ frame_needed = 0, uses_anonymous_args = 0
  33              		.loc 1 180 1 is_stmt 0 view .LVU1
  34 0000 2DE9F04F 		push	{r4, r5, r6, r7, r8, r9, r10, fp, lr}
  35              		.cfi_def_cfa_offset 36
  36              		.cfi_offset 4, -36
  37              		.cfi_offset 5, -32
  38              		.cfi_offset 6, -28
  39              		.cfi_offset 7, -24
  40              		.cfi_offset 8, -20
  41              		.cfi_offset 9, -16
  42              		.cfi_offset 10, -12
  43              		.cfi_offset 11, -8
  44              		.cfi_offset 14, -4
  45 0004 9BB0     		sub	sp, sp, #108
  46              		.cfi_def_cfa_offset 144
  47 0006 0691     		str	r1, [sp, #24]
  48 0008 1992     		str	r2, [sp, #100]
  49 000a 1493     		str	r3, [sp, #80]
ARM GAS  /var/folders/n6/c271nzx11xl4r4_m7sqjlt0m0000gn/T//ccsecID7.s 			page 5


 181:Drivers/CMSIS/DSP/Source/FilteringFunctions/arm_biquad_cascade_df1_32x64_q31.c ****   q31_t *pIn = pSrc;                             /*  input pointer initialization  */
  50              		.loc 1 181 3 is_stmt 1 view .LVU2
  51              	.LVL1:
 182:Drivers/CMSIS/DSP/Source/FilteringFunctions/arm_biquad_cascade_df1_32x64_q31.c ****   q31_t *pOut = pDst;                            /*  output pointer initialization */
  52              		.loc 1 182 3 view .LVU3
 183:Drivers/CMSIS/DSP/Source/FilteringFunctions/arm_biquad_cascade_df1_32x64_q31.c ****   q63_t *pState = S->pState;                     /*  state pointer initialization  */
  53              		.loc 1 183 3 view .LVU4
  54              		.loc 1 183 10 is_stmt 0 view .LVU5
  55 000c D0F804C0 		ldr	ip, [r0, #4]
  56              	.LVL2:
 184:Drivers/CMSIS/DSP/Source/FilteringFunctions/arm_biquad_cascade_df1_32x64_q31.c ****   q31_t *pCoeffs = S->pCoeffs;                   /*  coeff pointer initialization  */
  57              		.loc 1 184 3 is_stmt 1 view .LVU6
  58              		.loc 1 184 10 is_stmt 0 view .LVU7
  59 0010 8768     		ldr	r7, [r0, #8]
  60              	.LVL3:
 185:Drivers/CMSIS/DSP/Source/FilteringFunctions/arm_biquad_cascade_df1_32x64_q31.c ****   q63_t acc;                                     /*  accumulator                   */
  61              		.loc 1 185 3 is_stmt 1 view .LVU8
 186:Drivers/CMSIS/DSP/Source/FilteringFunctions/arm_biquad_cascade_df1_32x64_q31.c ****   q31_t Xn1, Xn2;                                /*  Input Filter state variables        */
  62              		.loc 1 186 3 view .LVU9
 187:Drivers/CMSIS/DSP/Source/FilteringFunctions/arm_biquad_cascade_df1_32x64_q31.c ****   q63_t Yn1, Yn2;                                /*  Output Filter state variables        */
  63              		.loc 1 187 3 view .LVU10
 188:Drivers/CMSIS/DSP/Source/FilteringFunctions/arm_biquad_cascade_df1_32x64_q31.c ****   q31_t b0, b1, b2, a1, a2;                      /*  Filter coefficients           */
  64              		.loc 1 188 3 view .LVU11
 189:Drivers/CMSIS/DSP/Source/FilteringFunctions/arm_biquad_cascade_df1_32x64_q31.c ****   q31_t Xn;                                      /*  temporary input               */
  65              		.loc 1 189 3 view .LVU12
 190:Drivers/CMSIS/DSP/Source/FilteringFunctions/arm_biquad_cascade_df1_32x64_q31.c ****   int32_t shift = (int32_t) S->postShift + 1;    /*  Shift to be applied to the output */
  66              		.loc 1 190 3 view .LVU13
  67              		.loc 1 190 30 is_stmt 0 view .LVU14
  68 0012 037B     		ldrb	r3, [r0, #12]	@ zero_extendqisi2
  69              	.LVL4:
  70              		.loc 1 190 11 view .LVU15
  71 0014 5C1C     		adds	r4, r3, #1
  72              	.LVL5:
 191:Drivers/CMSIS/DSP/Source/FilteringFunctions/arm_biquad_cascade_df1_32x64_q31.c ****   uint32_t sample, stage = S->numStages;         /*  loop counters                     */
  73              		.loc 1 191 3 is_stmt 1 view .LVU16
  74              		.loc 1 191 29 is_stmt 0 view .LVU17
  75 0016 90F80080 		ldrb	r8, [r0]	@ zero_extendqisi2
  76              	.LVL6:
 192:Drivers/CMSIS/DSP/Source/FilteringFunctions/arm_biquad_cascade_df1_32x64_q31.c ****   q31_t acc_l, acc_h;                            /*  temporary output               */
  77              		.loc 1 192 3 is_stmt 1 view .LVU18
 193:Drivers/CMSIS/DSP/Source/FilteringFunctions/arm_biquad_cascade_df1_32x64_q31.c ****   uint32_t uShift = ((uint32_t) S->postShift + 1U);
  78              		.loc 1 193 3 view .LVU19
 194:Drivers/CMSIS/DSP/Source/FilteringFunctions/arm_biquad_cascade_df1_32x64_q31.c ****   uint32_t lShift = 32U - uShift;                /*  Shift to be applied to the output */
  79              		.loc 1 194 3 view .LVU20
  80              		.loc 1 194 12 is_stmt 0 view .LVU21
  81 001a C3F11F03 		rsb	r3, r3, #31
  82 001e 0893     		str	r3, [sp, #32]
  83              	.LVL7:
  84              		.loc 1 194 12 view .LVU22
  85 0020 6246     		mov	r2, ip
  86              	.LVL8:
  87              		.loc 1 194 12 view .LVU23
  88 0022 CDF85480 		str	r8, [sp, #84]
  89 0026 A046     		mov	r8, r4
  90              	.LVL9:
  91              		.loc 1 194 12 view .LVU24
  92 0028 74E2     		b	.L6
ARM GAS  /var/folders/n6/c271nzx11xl4r4_m7sqjlt0m0000gn/T//ccsecID7.s 			page 6


  93              	.LVL10:
  94              	.L3:
 195:Drivers/CMSIS/DSP/Source/FilteringFunctions/arm_biquad_cascade_df1_32x64_q31.c **** 
 196:Drivers/CMSIS/DSP/Source/FilteringFunctions/arm_biquad_cascade_df1_32x64_q31.c **** 
 197:Drivers/CMSIS/DSP/Source/FilteringFunctions/arm_biquad_cascade_df1_32x64_q31.c **** #if defined (ARM_MATH_DSP)
 198:Drivers/CMSIS/DSP/Source/FilteringFunctions/arm_biquad_cascade_df1_32x64_q31.c **** 
 199:Drivers/CMSIS/DSP/Source/FilteringFunctions/arm_biquad_cascade_df1_32x64_q31.c ****   /* Run the below code for Cortex-M4 and Cortex-M3 */
 200:Drivers/CMSIS/DSP/Source/FilteringFunctions/arm_biquad_cascade_df1_32x64_q31.c **** 
 201:Drivers/CMSIS/DSP/Source/FilteringFunctions/arm_biquad_cascade_df1_32x64_q31.c ****   do
 202:Drivers/CMSIS/DSP/Source/FilteringFunctions/arm_biquad_cascade_df1_32x64_q31.c ****   {
 203:Drivers/CMSIS/DSP/Source/FilteringFunctions/arm_biquad_cascade_df1_32x64_q31.c ****     /* Reading the coefficients */
 204:Drivers/CMSIS/DSP/Source/FilteringFunctions/arm_biquad_cascade_df1_32x64_q31.c ****     b0 = *pCoeffs++;
 205:Drivers/CMSIS/DSP/Source/FilteringFunctions/arm_biquad_cascade_df1_32x64_q31.c ****     b1 = *pCoeffs++;
 206:Drivers/CMSIS/DSP/Source/FilteringFunctions/arm_biquad_cascade_df1_32x64_q31.c ****     b2 = *pCoeffs++;
 207:Drivers/CMSIS/DSP/Source/FilteringFunctions/arm_biquad_cascade_df1_32x64_q31.c ****     a1 = *pCoeffs++;
 208:Drivers/CMSIS/DSP/Source/FilteringFunctions/arm_biquad_cascade_df1_32x64_q31.c ****     a2 = *pCoeffs++;
 209:Drivers/CMSIS/DSP/Source/FilteringFunctions/arm_biquad_cascade_df1_32x64_q31.c **** 
 210:Drivers/CMSIS/DSP/Source/FilteringFunctions/arm_biquad_cascade_df1_32x64_q31.c ****     /* Reading the state values */
 211:Drivers/CMSIS/DSP/Source/FilteringFunctions/arm_biquad_cascade_df1_32x64_q31.c ****     Xn1 = (q31_t) (pState[0]);
 212:Drivers/CMSIS/DSP/Source/FilteringFunctions/arm_biquad_cascade_df1_32x64_q31.c ****     Xn2 = (q31_t) (pState[1]);
 213:Drivers/CMSIS/DSP/Source/FilteringFunctions/arm_biquad_cascade_df1_32x64_q31.c ****     Yn1 = pState[2];
 214:Drivers/CMSIS/DSP/Source/FilteringFunctions/arm_biquad_cascade_df1_32x64_q31.c ****     Yn2 = pState[3];
 215:Drivers/CMSIS/DSP/Source/FilteringFunctions/arm_biquad_cascade_df1_32x64_q31.c **** 
 216:Drivers/CMSIS/DSP/Source/FilteringFunctions/arm_biquad_cascade_df1_32x64_q31.c ****     /* Apply loop unrolling and compute 4 output values simultaneously. */
 217:Drivers/CMSIS/DSP/Source/FilteringFunctions/arm_biquad_cascade_df1_32x64_q31.c ****     /* The variable acc hold output value that is being computed and
 218:Drivers/CMSIS/DSP/Source/FilteringFunctions/arm_biquad_cascade_df1_32x64_q31.c ****      * stored in the destination buffer
 219:Drivers/CMSIS/DSP/Source/FilteringFunctions/arm_biquad_cascade_df1_32x64_q31.c ****      * acc =  b0 * x[n] + b1 * x[n-1] + b2 * x[n-2] + a1 * y[n-1] + a2 * y[n-2]
 220:Drivers/CMSIS/DSP/Source/FilteringFunctions/arm_biquad_cascade_df1_32x64_q31.c ****      */
 221:Drivers/CMSIS/DSP/Source/FilteringFunctions/arm_biquad_cascade_df1_32x64_q31.c **** 
 222:Drivers/CMSIS/DSP/Source/FilteringFunctions/arm_biquad_cascade_df1_32x64_q31.c ****     sample = blockSize >> 2U;
 223:Drivers/CMSIS/DSP/Source/FilteringFunctions/arm_biquad_cascade_df1_32x64_q31.c **** 
 224:Drivers/CMSIS/DSP/Source/FilteringFunctions/arm_biquad_cascade_df1_32x64_q31.c ****     /* First part of the processing with loop unrolling. Compute 4 outputs at a time.
 225:Drivers/CMSIS/DSP/Source/FilteringFunctions/arm_biquad_cascade_df1_32x64_q31.c ****      ** a second loop below computes the remaining 1 to 3 samples. */
 226:Drivers/CMSIS/DSP/Source/FilteringFunctions/arm_biquad_cascade_df1_32x64_q31.c ****     while (sample > 0U)
 227:Drivers/CMSIS/DSP/Source/FilteringFunctions/arm_biquad_cascade_df1_32x64_q31.c ****     {
 228:Drivers/CMSIS/DSP/Source/FilteringFunctions/arm_biquad_cascade_df1_32x64_q31.c ****       /* Read the input */
 229:Drivers/CMSIS/DSP/Source/FilteringFunctions/arm_biquad_cascade_df1_32x64_q31.c ****       Xn = *pIn++;
  95              		.loc 1 229 7 is_stmt 1 view .LVU25
  96              		.loc 1 229 10 is_stmt 0 view .LVU26
  97 002a 069B     		ldr	r3, [sp, #24]
  98              	.LVL11:
  99              		.loc 1 229 10 view .LVU27
 100 002c 1B68     		ldr	r3, [r3]
 101              	.LVL12:
 230:Drivers/CMSIS/DSP/Source/FilteringFunctions/arm_biquad_cascade_df1_32x64_q31.c **** 
 231:Drivers/CMSIS/DSP/Source/FilteringFunctions/arm_biquad_cascade_df1_32x64_q31.c ****       /* acc =  b0 * x[n] + b1 * x[n-1] + b2 * x[n-2] + a1 * y[n-1] + a2 * y[n-2] */
 232:Drivers/CMSIS/DSP/Source/FilteringFunctions/arm_biquad_cascade_df1_32x64_q31.c **** 
 233:Drivers/CMSIS/DSP/Source/FilteringFunctions/arm_biquad_cascade_df1_32x64_q31.c ****       /* acc =  b0 * x[n] */
 234:Drivers/CMSIS/DSP/Source/FilteringFunctions/arm_biquad_cascade_df1_32x64_q31.c ****       acc = (q63_t) Xn *b0;
 102              		.loc 1 234 7 is_stmt 1 view .LVU28
 103              		.loc 1 234 13 is_stmt 0 view .LVU29
 104 002e DF17     		asrs	r7, r3, #31
 105              		.loc 1 234 24 view .LVU30
 106 0030 049A     		ldr	r2, [sp, #16]
 107 0032 D417     		asrs	r4, r2, #31
 108              		.loc 1 234 11 view .LVU31
 109 0034 0A94     		str	r4, [sp, #40]
ARM GAS  /var/folders/n6/c271nzx11xl4r4_m7sqjlt0m0000gn/T//ccsecID7.s 			page 7


 110 0036 03FB04F5 		mul	r5, r3, r4
 111 003a 0F97     		str	r7, [sp, #60]
 112 003c 02FB0755 		mla	r5, r2, r7, r5
 113 0040 0993     		str	r3, [sp, #36]
 114 0042 A3FB02A2 		umull	r10, r2, r3, r2
 115 0046 1544     		add	r5, r5, r2
 116              	.LVL13:
 235:Drivers/CMSIS/DSP/Source/FilteringFunctions/arm_biquad_cascade_df1_32x64_q31.c **** 
 236:Drivers/CMSIS/DSP/Source/FilteringFunctions/arm_biquad_cascade_df1_32x64_q31.c ****       /* acc +=  b1 * x[n-1] */
 237:Drivers/CMSIS/DSP/Source/FilteringFunctions/arm_biquad_cascade_df1_32x64_q31.c ****       acc += (q63_t) Xn1 *b1;
 117              		.loc 1 237 7 is_stmt 1 view .LVU32
 118              		.loc 1 237 14 is_stmt 0 view .LVU33
 119 0048 C317     		asrs	r3, r0, #31
 120              	.LVL14:
 121              		.loc 1 237 26 view .LVU34
 122 004a 029C     		ldr	r4, [sp, #8]
 123 004c E717     		asrs	r7, r4, #31
 124 004e 0B97     		str	r7, [sp, #44]
 125 0050 00FB07F7 		mul	r7, r0, r7
 126 0054 0D93     		str	r3, [sp, #52]
 127 0056 04FB0377 		mla	r7, r4, r3, r7
 128 005a A0FB0424 		umull	r2, r4, r0, r4
 129 005e 3C44     		add	r4, r4, r7
 130              		.loc 1 237 11 view .LVU35
 131 0060 12EB0A02 		adds	r2, r2, r10
 132 0064 45EB0404 		adc	r4, r5, r4
 133              	.LVL15:
 238:Drivers/CMSIS/DSP/Source/FilteringFunctions/arm_biquad_cascade_df1_32x64_q31.c **** 
 239:Drivers/CMSIS/DSP/Source/FilteringFunctions/arm_biquad_cascade_df1_32x64_q31.c ****       /* acc +=  b[2] * x[n-2] */
 240:Drivers/CMSIS/DSP/Source/FilteringFunctions/arm_biquad_cascade_df1_32x64_q31.c ****       acc += (q63_t) Xn2 *b2;
 134              		.loc 1 240 7 is_stmt 1 view .LVU36
 135              		.loc 1 240 14 is_stmt 0 view .LVU37
 136 0068 F717     		asrs	r7, r6, #31
 137              		.loc 1 240 26 view .LVU38
 138 006a 0399     		ldr	r1, [sp, #12]
 139 006c CB17     		asrs	r3, r1, #31
 140 006e 0C93     		str	r3, [sp, #48]
 141 0070 06FB03F5 		mul	r5, r6, r3
 142 0074 01FB0755 		mla	r5, r1, r7, r5
 143 0078 A6FB0167 		umull	r6, r7, r6, r1
 144              	.LVL16:
 145              		.loc 1 240 26 view .LVU39
 146 007c 2F44     		add	r7, r7, r5
 147              		.loc 1 240 11 view .LVU40
 148 007e B618     		adds	r6, r6, r2
 149 0080 47EB0407 		adc	r7, r7, r4
 150              	.LVL17:
 241:Drivers/CMSIS/DSP/Source/FilteringFunctions/arm_biquad_cascade_df1_32x64_q31.c **** 
 242:Drivers/CMSIS/DSP/Source/FilteringFunctions/arm_biquad_cascade_df1_32x64_q31.c ****       /* acc +=  a1 * y[n-1] */
 243:Drivers/CMSIS/DSP/Source/FilteringFunctions/arm_biquad_cascade_df1_32x64_q31.c ****       acc += mult32x64(Yn1, a1);
 151              		.loc 1 243 7 is_stmt 1 view .LVU41
 152              	.LBB22:
 153              	.LBI22:
 154              		.file 2 "Drivers/CMSIS/DSP/Include/arm_math.h"
   1:Drivers/CMSIS/DSP/Include/arm_math.h **** /******************************************************************************
   2:Drivers/CMSIS/DSP/Include/arm_math.h ****  * @file     arm_math.h
   3:Drivers/CMSIS/DSP/Include/arm_math.h ****  * @brief    Public header file for CMSIS DSP LibraryU
ARM GAS  /var/folders/n6/c271nzx11xl4r4_m7sqjlt0m0000gn/T//ccsecID7.s 			page 8


   4:Drivers/CMSIS/DSP/Include/arm_math.h ****  * @version  V1.5.3
   5:Drivers/CMSIS/DSP/Include/arm_math.h ****  * @date     10. January 2018
   6:Drivers/CMSIS/DSP/Include/arm_math.h ****  ******************************************************************************/
   7:Drivers/CMSIS/DSP/Include/arm_math.h **** /*
   8:Drivers/CMSIS/DSP/Include/arm_math.h ****  * Copyright (c) 2010-2018 Arm Limited or its affiliates. All rights reserved.
   9:Drivers/CMSIS/DSP/Include/arm_math.h ****  *
  10:Drivers/CMSIS/DSP/Include/arm_math.h ****  * SPDX-License-Identifier: Apache-2.0
  11:Drivers/CMSIS/DSP/Include/arm_math.h ****  *
  12:Drivers/CMSIS/DSP/Include/arm_math.h ****  * Licensed under the Apache License, Version 2.0 (the License); you may
  13:Drivers/CMSIS/DSP/Include/arm_math.h ****  * not use this file except in compliance with the License.
  14:Drivers/CMSIS/DSP/Include/arm_math.h ****  * You may obtain a copy of the License at
  15:Drivers/CMSIS/DSP/Include/arm_math.h ****  *
  16:Drivers/CMSIS/DSP/Include/arm_math.h ****  * www.apache.org/licenses/LICENSE-2.0
  17:Drivers/CMSIS/DSP/Include/arm_math.h ****  *
  18:Drivers/CMSIS/DSP/Include/arm_math.h ****  * Unless required by applicable law or agreed to in writing, software
  19:Drivers/CMSIS/DSP/Include/arm_math.h ****  * distributed under the License is distributed on an AS IS BASIS, WITHOUT
  20:Drivers/CMSIS/DSP/Include/arm_math.h ****  * WARRANTIES OR CONDITIONS OF ANY KIND, either express or implied.
  21:Drivers/CMSIS/DSP/Include/arm_math.h ****  * See the License for the specific language governing permissions and
  22:Drivers/CMSIS/DSP/Include/arm_math.h ****  * limitations under the License.
  23:Drivers/CMSIS/DSP/Include/arm_math.h ****  */
  24:Drivers/CMSIS/DSP/Include/arm_math.h **** 
  25:Drivers/CMSIS/DSP/Include/arm_math.h **** /**
  26:Drivers/CMSIS/DSP/Include/arm_math.h ****    \mainpage CMSIS DSP Software Library
  27:Drivers/CMSIS/DSP/Include/arm_math.h ****    *
  28:Drivers/CMSIS/DSP/Include/arm_math.h ****    * Introduction
  29:Drivers/CMSIS/DSP/Include/arm_math.h ****    * ------------
  30:Drivers/CMSIS/DSP/Include/arm_math.h ****    *
  31:Drivers/CMSIS/DSP/Include/arm_math.h ****    * This user manual describes the CMSIS DSP software library,
  32:Drivers/CMSIS/DSP/Include/arm_math.h ****    * a suite of common signal processing functions for use on Cortex-M processor based devices.
  33:Drivers/CMSIS/DSP/Include/arm_math.h ****    *
  34:Drivers/CMSIS/DSP/Include/arm_math.h ****    * The library is divided into a number of functions each covering a specific category:
  35:Drivers/CMSIS/DSP/Include/arm_math.h ****    * - Basic math functions
  36:Drivers/CMSIS/DSP/Include/arm_math.h ****    * - Fast math functions
  37:Drivers/CMSIS/DSP/Include/arm_math.h ****    * - Complex math functions
  38:Drivers/CMSIS/DSP/Include/arm_math.h ****    * - Filters
  39:Drivers/CMSIS/DSP/Include/arm_math.h ****    * - Matrix functions
  40:Drivers/CMSIS/DSP/Include/arm_math.h ****    * - Transforms
  41:Drivers/CMSIS/DSP/Include/arm_math.h ****    * - Motor control functions
  42:Drivers/CMSIS/DSP/Include/arm_math.h ****    * - Statistical functions
  43:Drivers/CMSIS/DSP/Include/arm_math.h ****    * - Support functions
  44:Drivers/CMSIS/DSP/Include/arm_math.h ****    * - Interpolation functions
  45:Drivers/CMSIS/DSP/Include/arm_math.h ****    *
  46:Drivers/CMSIS/DSP/Include/arm_math.h ****    * The library has separate functions for operating on 8-bit integers, 16-bit integers,
  47:Drivers/CMSIS/DSP/Include/arm_math.h ****    * 32-bit integer and 32-bit floating-point values.
  48:Drivers/CMSIS/DSP/Include/arm_math.h ****    *
  49:Drivers/CMSIS/DSP/Include/arm_math.h ****    * Using the Library
  50:Drivers/CMSIS/DSP/Include/arm_math.h ****    * ------------
  51:Drivers/CMSIS/DSP/Include/arm_math.h ****    *
  52:Drivers/CMSIS/DSP/Include/arm_math.h ****    * The library installer contains prebuilt versions of the libraries in the <code>Lib</code> fold
  53:Drivers/CMSIS/DSP/Include/arm_math.h ****    * - arm_cortexM7lfdp_math.lib (Cortex-M7, Little endian, Double Precision Floating Point Unit)
  54:Drivers/CMSIS/DSP/Include/arm_math.h ****    * - arm_cortexM7bfdp_math.lib (Cortex-M7, Big endian, Double Precision Floating Point Unit)
  55:Drivers/CMSIS/DSP/Include/arm_math.h ****    * - arm_cortexM7lfsp_math.lib (Cortex-M7, Little endian, Single Precision Floating Point Unit)
  56:Drivers/CMSIS/DSP/Include/arm_math.h ****    * - arm_cortexM7bfsp_math.lib (Cortex-M7, Big endian and Single Precision Floating Point Unit on
  57:Drivers/CMSIS/DSP/Include/arm_math.h ****    * - arm_cortexM7l_math.lib (Cortex-M7, Little endian)
  58:Drivers/CMSIS/DSP/Include/arm_math.h ****    * - arm_cortexM7b_math.lib (Cortex-M7, Big endian)
  59:Drivers/CMSIS/DSP/Include/arm_math.h ****    * - arm_cortexM4lf_math.lib (Cortex-M4, Little endian, Floating Point Unit)
  60:Drivers/CMSIS/DSP/Include/arm_math.h ****    * - arm_cortexM4bf_math.lib (Cortex-M4, Big endian, Floating Point Unit)
ARM GAS  /var/folders/n6/c271nzx11xl4r4_m7sqjlt0m0000gn/T//ccsecID7.s 			page 9


  61:Drivers/CMSIS/DSP/Include/arm_math.h ****    * - arm_cortexM4l_math.lib (Cortex-M4, Little endian)
  62:Drivers/CMSIS/DSP/Include/arm_math.h ****    * - arm_cortexM4b_math.lib (Cortex-M4, Big endian)
  63:Drivers/CMSIS/DSP/Include/arm_math.h ****    * - arm_cortexM3l_math.lib (Cortex-M3, Little endian)
  64:Drivers/CMSIS/DSP/Include/arm_math.h ****    * - arm_cortexM3b_math.lib (Cortex-M3, Big endian)
  65:Drivers/CMSIS/DSP/Include/arm_math.h ****    * - arm_cortexM0l_math.lib (Cortex-M0 / Cortex-M0+, Little endian)
  66:Drivers/CMSIS/DSP/Include/arm_math.h ****    * - arm_cortexM0b_math.lib (Cortex-M0 / Cortex-M0+, Big endian)
  67:Drivers/CMSIS/DSP/Include/arm_math.h ****    * - arm_ARMv8MBLl_math.lib (Armv8-M Baseline, Little endian)
  68:Drivers/CMSIS/DSP/Include/arm_math.h ****    * - arm_ARMv8MMLl_math.lib (Armv8-M Mainline, Little endian)
  69:Drivers/CMSIS/DSP/Include/arm_math.h ****    * - arm_ARMv8MMLlfsp_math.lib (Armv8-M Mainline, Little endian, Single Precision Floating Point 
  70:Drivers/CMSIS/DSP/Include/arm_math.h ****    * - arm_ARMv8MMLld_math.lib (Armv8-M Mainline, Little endian, DSP instructions)
  71:Drivers/CMSIS/DSP/Include/arm_math.h ****    * - arm_ARMv8MMLldfsp_math.lib (Armv8-M Mainline, Little endian, DSP instructions, Single Precis
  72:Drivers/CMSIS/DSP/Include/arm_math.h ****    *
  73:Drivers/CMSIS/DSP/Include/arm_math.h ****    * The library functions are declared in the public file <code>arm_math.h</code> which is placed 
  74:Drivers/CMSIS/DSP/Include/arm_math.h ****    * Simply include this file and link the appropriate library in the application and begin calling
  75:Drivers/CMSIS/DSP/Include/arm_math.h ****    * public header file <code> arm_math.h</code> for Cortex-M cores with little endian and big endi
  76:Drivers/CMSIS/DSP/Include/arm_math.h ****    * Define the appropriate preprocessor macro ARM_MATH_CM7 or ARM_MATH_CM4 or ARM_MATH_CM3 or
  77:Drivers/CMSIS/DSP/Include/arm_math.h ****    * ARM_MATH_CM0 or ARM_MATH_CM0PLUS depending on the target processor in the application.
  78:Drivers/CMSIS/DSP/Include/arm_math.h ****    * For Armv8-M cores define preprocessor macro ARM_MATH_ARMV8MBL or ARM_MATH_ARMV8MML.
  79:Drivers/CMSIS/DSP/Include/arm_math.h ****    * Set preprocessor macro __DSP_PRESENT if Armv8-M Mainline core supports DSP instructions.
  80:Drivers/CMSIS/DSP/Include/arm_math.h ****    *
  81:Drivers/CMSIS/DSP/Include/arm_math.h ****    *
  82:Drivers/CMSIS/DSP/Include/arm_math.h ****    * Examples
  83:Drivers/CMSIS/DSP/Include/arm_math.h ****    * --------
  84:Drivers/CMSIS/DSP/Include/arm_math.h ****    *
  85:Drivers/CMSIS/DSP/Include/arm_math.h ****    * The library ships with a number of examples which demonstrate how to use the library functions
  86:Drivers/CMSIS/DSP/Include/arm_math.h ****    *
  87:Drivers/CMSIS/DSP/Include/arm_math.h ****    * Toolchain Support
  88:Drivers/CMSIS/DSP/Include/arm_math.h ****    * ------------
  89:Drivers/CMSIS/DSP/Include/arm_math.h ****    *
  90:Drivers/CMSIS/DSP/Include/arm_math.h ****    * The library has been developed and tested with MDK version 5.14.0.0
  91:Drivers/CMSIS/DSP/Include/arm_math.h ****    * The library is being tested in GCC and IAR toolchains and updates on this activity will be mad
  92:Drivers/CMSIS/DSP/Include/arm_math.h ****    *
  93:Drivers/CMSIS/DSP/Include/arm_math.h ****    * Building the Library
  94:Drivers/CMSIS/DSP/Include/arm_math.h ****    * ------------
  95:Drivers/CMSIS/DSP/Include/arm_math.h ****    *
  96:Drivers/CMSIS/DSP/Include/arm_math.h ****    * The library installer contains a project file to rebuild libraries on MDK toolchain in the <co
  97:Drivers/CMSIS/DSP/Include/arm_math.h ****    * - arm_cortexM_math.uvprojx
  98:Drivers/CMSIS/DSP/Include/arm_math.h ****    *
  99:Drivers/CMSIS/DSP/Include/arm_math.h ****    *
 100:Drivers/CMSIS/DSP/Include/arm_math.h ****    * The libraries can be built by opening the arm_cortexM_math.uvprojx project in MDK-ARM, selecti
 101:Drivers/CMSIS/DSP/Include/arm_math.h ****    *
 102:Drivers/CMSIS/DSP/Include/arm_math.h ****    * Preprocessor Macros
 103:Drivers/CMSIS/DSP/Include/arm_math.h ****    * ------------
 104:Drivers/CMSIS/DSP/Include/arm_math.h ****    *
 105:Drivers/CMSIS/DSP/Include/arm_math.h ****    * Each library project have different preprocessor macros.
 106:Drivers/CMSIS/DSP/Include/arm_math.h ****    *
 107:Drivers/CMSIS/DSP/Include/arm_math.h ****    * - UNALIGNED_SUPPORT_DISABLE:
 108:Drivers/CMSIS/DSP/Include/arm_math.h ****    *
 109:Drivers/CMSIS/DSP/Include/arm_math.h ****    * Define macro UNALIGNED_SUPPORT_DISABLE, If the silicon does not support unaligned memory acces
 110:Drivers/CMSIS/DSP/Include/arm_math.h ****    *
 111:Drivers/CMSIS/DSP/Include/arm_math.h ****    * - ARM_MATH_BIG_ENDIAN:
 112:Drivers/CMSIS/DSP/Include/arm_math.h ****    *
 113:Drivers/CMSIS/DSP/Include/arm_math.h ****    * Define macro ARM_MATH_BIG_ENDIAN to build the library for big endian targets. By default libra
 114:Drivers/CMSIS/DSP/Include/arm_math.h ****    *
 115:Drivers/CMSIS/DSP/Include/arm_math.h ****    * - ARM_MATH_MATRIX_CHECK:
 116:Drivers/CMSIS/DSP/Include/arm_math.h ****    *
 117:Drivers/CMSIS/DSP/Include/arm_math.h ****    * Define macro ARM_MATH_MATRIX_CHECK for checking on the input and output sizes of matrices
ARM GAS  /var/folders/n6/c271nzx11xl4r4_m7sqjlt0m0000gn/T//ccsecID7.s 			page 10


 118:Drivers/CMSIS/DSP/Include/arm_math.h ****    *
 119:Drivers/CMSIS/DSP/Include/arm_math.h ****    * - ARM_MATH_ROUNDING:
 120:Drivers/CMSIS/DSP/Include/arm_math.h ****    *
 121:Drivers/CMSIS/DSP/Include/arm_math.h ****    * Define macro ARM_MATH_ROUNDING for rounding on support functions
 122:Drivers/CMSIS/DSP/Include/arm_math.h ****    *
 123:Drivers/CMSIS/DSP/Include/arm_math.h ****    * - ARM_MATH_CMx:
 124:Drivers/CMSIS/DSP/Include/arm_math.h ****    *
 125:Drivers/CMSIS/DSP/Include/arm_math.h ****    * Define macro ARM_MATH_CM4 for building the library on Cortex-M4 target, ARM_MATH_CM3 for build
 126:Drivers/CMSIS/DSP/Include/arm_math.h ****    * and ARM_MATH_CM0 for building library on Cortex-M0 target, ARM_MATH_CM0PLUS for building libra
 127:Drivers/CMSIS/DSP/Include/arm_math.h ****    * ARM_MATH_CM7 for building the library on cortex-M7.
 128:Drivers/CMSIS/DSP/Include/arm_math.h ****    *
 129:Drivers/CMSIS/DSP/Include/arm_math.h ****    * - ARM_MATH_ARMV8MxL:
 130:Drivers/CMSIS/DSP/Include/arm_math.h ****    *
 131:Drivers/CMSIS/DSP/Include/arm_math.h ****    * Define macro ARM_MATH_ARMV8MBL for building the library on Armv8-M Baseline target, ARM_MATH_A
 132:Drivers/CMSIS/DSP/Include/arm_math.h ****    * on Armv8-M Mainline target.
 133:Drivers/CMSIS/DSP/Include/arm_math.h ****    *
 134:Drivers/CMSIS/DSP/Include/arm_math.h ****    * - __FPU_PRESENT:
 135:Drivers/CMSIS/DSP/Include/arm_math.h ****    *
 136:Drivers/CMSIS/DSP/Include/arm_math.h ****    * Initialize macro __FPU_PRESENT = 1 when building on FPU supported Targets. Enable this macro f
 137:Drivers/CMSIS/DSP/Include/arm_math.h ****    *
 138:Drivers/CMSIS/DSP/Include/arm_math.h ****    * - __DSP_PRESENT:
 139:Drivers/CMSIS/DSP/Include/arm_math.h ****    *
 140:Drivers/CMSIS/DSP/Include/arm_math.h ****    * Initialize macro __DSP_PRESENT = 1 when Armv8-M Mainline core supports DSP instructions.
 141:Drivers/CMSIS/DSP/Include/arm_math.h ****    *
 142:Drivers/CMSIS/DSP/Include/arm_math.h ****    * <hr>
 143:Drivers/CMSIS/DSP/Include/arm_math.h ****    * CMSIS-DSP in ARM::CMSIS Pack
 144:Drivers/CMSIS/DSP/Include/arm_math.h ****    * -----------------------------
 145:Drivers/CMSIS/DSP/Include/arm_math.h ****    *
 146:Drivers/CMSIS/DSP/Include/arm_math.h ****    * The following files relevant to CMSIS-DSP are present in the <b>ARM::CMSIS</b> Pack directorie
 147:Drivers/CMSIS/DSP/Include/arm_math.h ****    * |File/Folder                   |Content                                                       
 148:Drivers/CMSIS/DSP/Include/arm_math.h ****    * |------------------------------|--------------------------------------------------------------
 149:Drivers/CMSIS/DSP/Include/arm_math.h ****    * |\b CMSIS\\Documentation\\DSP  | This documentation                                           
 150:Drivers/CMSIS/DSP/Include/arm_math.h ****    * |\b CMSIS\\DSP_Lib             | Software license agreement (license.txt)                     
 151:Drivers/CMSIS/DSP/Include/arm_math.h ****    * |\b CMSIS\\DSP_Lib\\Examples   | Example projects demonstrating the usage of the library funct
 152:Drivers/CMSIS/DSP/Include/arm_math.h ****    * |\b CMSIS\\DSP_Lib\\Source     | Source files for rebuilding the library                      
 153:Drivers/CMSIS/DSP/Include/arm_math.h ****    *
 154:Drivers/CMSIS/DSP/Include/arm_math.h ****    * <hr>
 155:Drivers/CMSIS/DSP/Include/arm_math.h ****    * Revision History of CMSIS-DSP
 156:Drivers/CMSIS/DSP/Include/arm_math.h ****    * ------------
 157:Drivers/CMSIS/DSP/Include/arm_math.h ****    * Please refer to \ref ChangeLog_pg.
 158:Drivers/CMSIS/DSP/Include/arm_math.h ****    *
 159:Drivers/CMSIS/DSP/Include/arm_math.h ****    * Copyright Notice
 160:Drivers/CMSIS/DSP/Include/arm_math.h ****    * ------------
 161:Drivers/CMSIS/DSP/Include/arm_math.h ****    *
 162:Drivers/CMSIS/DSP/Include/arm_math.h ****    * Copyright (C) 2010-2015 Arm Limited. All rights reserved.
 163:Drivers/CMSIS/DSP/Include/arm_math.h ****    */
 164:Drivers/CMSIS/DSP/Include/arm_math.h **** 
 165:Drivers/CMSIS/DSP/Include/arm_math.h **** /**
 166:Drivers/CMSIS/DSP/Include/arm_math.h ****  * @defgroup groupMath Basic Math Functions
 167:Drivers/CMSIS/DSP/Include/arm_math.h ****  */
 168:Drivers/CMSIS/DSP/Include/arm_math.h **** 
 169:Drivers/CMSIS/DSP/Include/arm_math.h **** /**
 170:Drivers/CMSIS/DSP/Include/arm_math.h ****  * @defgroup groupFastMath Fast Math Functions
 171:Drivers/CMSIS/DSP/Include/arm_math.h ****  * This set of functions provides a fast approximation to sine, cosine, and square root.
 172:Drivers/CMSIS/DSP/Include/arm_math.h ****  * As compared to most of the other functions in the CMSIS math library, the fast math functions
 173:Drivers/CMSIS/DSP/Include/arm_math.h ****  * operate on individual values and not arrays.
 174:Drivers/CMSIS/DSP/Include/arm_math.h ****  * There are separate functions for Q15, Q31, and floating-point data.
ARM GAS  /var/folders/n6/c271nzx11xl4r4_m7sqjlt0m0000gn/T//ccsecID7.s 			page 11


 175:Drivers/CMSIS/DSP/Include/arm_math.h ****  *
 176:Drivers/CMSIS/DSP/Include/arm_math.h ****  */
 177:Drivers/CMSIS/DSP/Include/arm_math.h **** 
 178:Drivers/CMSIS/DSP/Include/arm_math.h **** /**
 179:Drivers/CMSIS/DSP/Include/arm_math.h ****  * @defgroup groupCmplxMath Complex Math Functions
 180:Drivers/CMSIS/DSP/Include/arm_math.h ****  * This set of functions operates on complex data vectors.
 181:Drivers/CMSIS/DSP/Include/arm_math.h ****  * The data in the complex arrays is stored in an interleaved fashion
 182:Drivers/CMSIS/DSP/Include/arm_math.h ****  * (real, imag, real, imag, ...).
 183:Drivers/CMSIS/DSP/Include/arm_math.h ****  * In the API functions, the number of samples in a complex array refers
 184:Drivers/CMSIS/DSP/Include/arm_math.h ****  * to the number of complex values; the array contains twice this number of
 185:Drivers/CMSIS/DSP/Include/arm_math.h ****  * real values.
 186:Drivers/CMSIS/DSP/Include/arm_math.h ****  */
 187:Drivers/CMSIS/DSP/Include/arm_math.h **** 
 188:Drivers/CMSIS/DSP/Include/arm_math.h **** /**
 189:Drivers/CMSIS/DSP/Include/arm_math.h ****  * @defgroup groupFilters Filtering Functions
 190:Drivers/CMSIS/DSP/Include/arm_math.h ****  */
 191:Drivers/CMSIS/DSP/Include/arm_math.h **** 
 192:Drivers/CMSIS/DSP/Include/arm_math.h **** /**
 193:Drivers/CMSIS/DSP/Include/arm_math.h ****  * @defgroup groupMatrix Matrix Functions
 194:Drivers/CMSIS/DSP/Include/arm_math.h ****  *
 195:Drivers/CMSIS/DSP/Include/arm_math.h ****  * This set of functions provides basic matrix math operations.
 196:Drivers/CMSIS/DSP/Include/arm_math.h ****  * The functions operate on matrix data structures.  For example,
 197:Drivers/CMSIS/DSP/Include/arm_math.h ****  * the type
 198:Drivers/CMSIS/DSP/Include/arm_math.h ****  * definition for the floating-point matrix structure is shown
 199:Drivers/CMSIS/DSP/Include/arm_math.h ****  * below:
 200:Drivers/CMSIS/DSP/Include/arm_math.h ****  * <pre>
 201:Drivers/CMSIS/DSP/Include/arm_math.h ****  *     typedef struct
 202:Drivers/CMSIS/DSP/Include/arm_math.h ****  *     {
 203:Drivers/CMSIS/DSP/Include/arm_math.h ****  *       uint16_t numRows;     // number of rows of the matrix.
 204:Drivers/CMSIS/DSP/Include/arm_math.h ****  *       uint16_t numCols;     // number of columns of the matrix.
 205:Drivers/CMSIS/DSP/Include/arm_math.h ****  *       float32_t *pData;     // points to the data of the matrix.
 206:Drivers/CMSIS/DSP/Include/arm_math.h ****  *     } arm_matrix_instance_f32;
 207:Drivers/CMSIS/DSP/Include/arm_math.h ****  * </pre>
 208:Drivers/CMSIS/DSP/Include/arm_math.h ****  * There are similar definitions for Q15 and Q31 data types.
 209:Drivers/CMSIS/DSP/Include/arm_math.h ****  *
 210:Drivers/CMSIS/DSP/Include/arm_math.h ****  * The structure specifies the size of the matrix and then points to
 211:Drivers/CMSIS/DSP/Include/arm_math.h ****  * an array of data.  The array is of size <code>numRows X numCols</code>
 212:Drivers/CMSIS/DSP/Include/arm_math.h ****  * and the values are arranged in row order.  That is, the
 213:Drivers/CMSIS/DSP/Include/arm_math.h ****  * matrix element (i, j) is stored at:
 214:Drivers/CMSIS/DSP/Include/arm_math.h ****  * <pre>
 215:Drivers/CMSIS/DSP/Include/arm_math.h ****  *     pData[i*numCols + j]
 216:Drivers/CMSIS/DSP/Include/arm_math.h ****  * </pre>
 217:Drivers/CMSIS/DSP/Include/arm_math.h ****  *
 218:Drivers/CMSIS/DSP/Include/arm_math.h ****  * \par Init Functions
 219:Drivers/CMSIS/DSP/Include/arm_math.h ****  * There is an associated initialization function for each type of matrix
 220:Drivers/CMSIS/DSP/Include/arm_math.h ****  * data structure.
 221:Drivers/CMSIS/DSP/Include/arm_math.h ****  * The initialization function sets the values of the internal structure fields.
 222:Drivers/CMSIS/DSP/Include/arm_math.h ****  * Refer to the function <code>arm_mat_init_f32()</code>, <code>arm_mat_init_q31()</code>
 223:Drivers/CMSIS/DSP/Include/arm_math.h ****  * and <code>arm_mat_init_q15()</code> for floating-point, Q31 and Q15 types,  respectively.
 224:Drivers/CMSIS/DSP/Include/arm_math.h ****  *
 225:Drivers/CMSIS/DSP/Include/arm_math.h ****  * \par
 226:Drivers/CMSIS/DSP/Include/arm_math.h ****  * Use of the initialization function is optional. However, if initialization function is used
 227:Drivers/CMSIS/DSP/Include/arm_math.h ****  * then the instance structure cannot be placed into a const data section.
 228:Drivers/CMSIS/DSP/Include/arm_math.h ****  * To place the instance structure in a const data
 229:Drivers/CMSIS/DSP/Include/arm_math.h ****  * section, manually initialize the data structure.  For example:
 230:Drivers/CMSIS/DSP/Include/arm_math.h ****  * <pre>
 231:Drivers/CMSIS/DSP/Include/arm_math.h ****  * <code>arm_matrix_instance_f32 S = {nRows, nColumns, pData};</code>
ARM GAS  /var/folders/n6/c271nzx11xl4r4_m7sqjlt0m0000gn/T//ccsecID7.s 			page 12


 232:Drivers/CMSIS/DSP/Include/arm_math.h ****  * <code>arm_matrix_instance_q31 S = {nRows, nColumns, pData};</code>
 233:Drivers/CMSIS/DSP/Include/arm_math.h ****  * <code>arm_matrix_instance_q15 S = {nRows, nColumns, pData};</code>
 234:Drivers/CMSIS/DSP/Include/arm_math.h ****  * </pre>
 235:Drivers/CMSIS/DSP/Include/arm_math.h ****  * where <code>nRows</code> specifies the number of rows, <code>nColumns</code>
 236:Drivers/CMSIS/DSP/Include/arm_math.h ****  * specifies the number of columns, and <code>pData</code> points to the
 237:Drivers/CMSIS/DSP/Include/arm_math.h ****  * data array.
 238:Drivers/CMSIS/DSP/Include/arm_math.h ****  *
 239:Drivers/CMSIS/DSP/Include/arm_math.h ****  * \par Size Checking
 240:Drivers/CMSIS/DSP/Include/arm_math.h ****  * By default all of the matrix functions perform size checking on the input and
 241:Drivers/CMSIS/DSP/Include/arm_math.h ****  * output matrices. For example, the matrix addition function verifies that the
 242:Drivers/CMSIS/DSP/Include/arm_math.h ****  * two input matrices and the output matrix all have the same number of rows and
 243:Drivers/CMSIS/DSP/Include/arm_math.h ****  * columns. If the size check fails the functions return:
 244:Drivers/CMSIS/DSP/Include/arm_math.h ****  * <pre>
 245:Drivers/CMSIS/DSP/Include/arm_math.h ****  *     ARM_MATH_SIZE_MISMATCH
 246:Drivers/CMSIS/DSP/Include/arm_math.h ****  * </pre>
 247:Drivers/CMSIS/DSP/Include/arm_math.h ****  * Otherwise the functions return
 248:Drivers/CMSIS/DSP/Include/arm_math.h ****  * <pre>
 249:Drivers/CMSIS/DSP/Include/arm_math.h ****  *     ARM_MATH_SUCCESS
 250:Drivers/CMSIS/DSP/Include/arm_math.h ****  * </pre>
 251:Drivers/CMSIS/DSP/Include/arm_math.h ****  * There is some overhead associated with this matrix size checking.
 252:Drivers/CMSIS/DSP/Include/arm_math.h ****  * The matrix size checking is enabled via the \#define
 253:Drivers/CMSIS/DSP/Include/arm_math.h ****  * <pre>
 254:Drivers/CMSIS/DSP/Include/arm_math.h ****  *     ARM_MATH_MATRIX_CHECK
 255:Drivers/CMSIS/DSP/Include/arm_math.h ****  * </pre>
 256:Drivers/CMSIS/DSP/Include/arm_math.h ****  * within the library project settings.  By default this macro is defined
 257:Drivers/CMSIS/DSP/Include/arm_math.h ****  * and size checking is enabled. By changing the project settings and
 258:Drivers/CMSIS/DSP/Include/arm_math.h ****  * undefining this macro size checking is eliminated and the functions
 259:Drivers/CMSIS/DSP/Include/arm_math.h ****  * run a bit faster. With size checking disabled the functions always
 260:Drivers/CMSIS/DSP/Include/arm_math.h ****  * return <code>ARM_MATH_SUCCESS</code>.
 261:Drivers/CMSIS/DSP/Include/arm_math.h ****  */
 262:Drivers/CMSIS/DSP/Include/arm_math.h **** 
 263:Drivers/CMSIS/DSP/Include/arm_math.h **** /**
 264:Drivers/CMSIS/DSP/Include/arm_math.h ****  * @defgroup groupTransforms Transform Functions
 265:Drivers/CMSIS/DSP/Include/arm_math.h ****  */
 266:Drivers/CMSIS/DSP/Include/arm_math.h **** 
 267:Drivers/CMSIS/DSP/Include/arm_math.h **** /**
 268:Drivers/CMSIS/DSP/Include/arm_math.h ****  * @defgroup groupController Controller Functions
 269:Drivers/CMSIS/DSP/Include/arm_math.h ****  */
 270:Drivers/CMSIS/DSP/Include/arm_math.h **** 
 271:Drivers/CMSIS/DSP/Include/arm_math.h **** /**
 272:Drivers/CMSIS/DSP/Include/arm_math.h ****  * @defgroup groupStats Statistics Functions
 273:Drivers/CMSIS/DSP/Include/arm_math.h ****  */
 274:Drivers/CMSIS/DSP/Include/arm_math.h **** /**
 275:Drivers/CMSIS/DSP/Include/arm_math.h ****  * @defgroup groupSupport Support Functions
 276:Drivers/CMSIS/DSP/Include/arm_math.h ****  */
 277:Drivers/CMSIS/DSP/Include/arm_math.h **** 
 278:Drivers/CMSIS/DSP/Include/arm_math.h **** /**
 279:Drivers/CMSIS/DSP/Include/arm_math.h ****  * @defgroup groupInterpolation Interpolation Functions
 280:Drivers/CMSIS/DSP/Include/arm_math.h ****  * These functions perform 1- and 2-dimensional interpolation of data.
 281:Drivers/CMSIS/DSP/Include/arm_math.h ****  * Linear interpolation is used for 1-dimensional data and
 282:Drivers/CMSIS/DSP/Include/arm_math.h ****  * bilinear interpolation is used for 2-dimensional data.
 283:Drivers/CMSIS/DSP/Include/arm_math.h ****  */
 284:Drivers/CMSIS/DSP/Include/arm_math.h **** 
 285:Drivers/CMSIS/DSP/Include/arm_math.h **** /**
 286:Drivers/CMSIS/DSP/Include/arm_math.h ****  * @defgroup groupExamples Examples
 287:Drivers/CMSIS/DSP/Include/arm_math.h ****  */
 288:Drivers/CMSIS/DSP/Include/arm_math.h **** #ifndef _ARM_MATH_H
ARM GAS  /var/folders/n6/c271nzx11xl4r4_m7sqjlt0m0000gn/T//ccsecID7.s 			page 13


 289:Drivers/CMSIS/DSP/Include/arm_math.h **** #define _ARM_MATH_H
 290:Drivers/CMSIS/DSP/Include/arm_math.h **** 
 291:Drivers/CMSIS/DSP/Include/arm_math.h **** /* Compiler specific diagnostic adjustment */
 292:Drivers/CMSIS/DSP/Include/arm_math.h **** #if defined(__CC_ARM)
 293:Drivers/CMSIS/DSP/Include/arm_math.h **** 
 294:Drivers/CMSIS/DSP/Include/arm_math.h **** #elif defined(__ARMCC_VERSION) && (__ARMCC_VERSION >= 6010050)
 295:Drivers/CMSIS/DSP/Include/arm_math.h **** 
 296:Drivers/CMSIS/DSP/Include/arm_math.h **** #elif defined(__GNUC__)
 297:Drivers/CMSIS/DSP/Include/arm_math.h **** #pragma GCC diagnostic push
 298:Drivers/CMSIS/DSP/Include/arm_math.h **** #pragma GCC diagnostic ignored "-Wsign-conversion"
 299:Drivers/CMSIS/DSP/Include/arm_math.h **** #pragma GCC diagnostic ignored "-Wconversion"
 300:Drivers/CMSIS/DSP/Include/arm_math.h **** #pragma GCC diagnostic ignored "-Wunused-parameter"
 301:Drivers/CMSIS/DSP/Include/arm_math.h **** 
 302:Drivers/CMSIS/DSP/Include/arm_math.h **** #elif defined(__ICCARM__)
 303:Drivers/CMSIS/DSP/Include/arm_math.h **** 
 304:Drivers/CMSIS/DSP/Include/arm_math.h **** #elif defined(__TI_ARM__)
 305:Drivers/CMSIS/DSP/Include/arm_math.h **** 
 306:Drivers/CMSIS/DSP/Include/arm_math.h **** #elif defined(__CSMC__)
 307:Drivers/CMSIS/DSP/Include/arm_math.h **** 
 308:Drivers/CMSIS/DSP/Include/arm_math.h **** #elif defined(__TASKING__)
 309:Drivers/CMSIS/DSP/Include/arm_math.h **** 
 310:Drivers/CMSIS/DSP/Include/arm_math.h **** #else
 311:Drivers/CMSIS/DSP/Include/arm_math.h **** #error Unknown compiler
 312:Drivers/CMSIS/DSP/Include/arm_math.h **** #endif
 313:Drivers/CMSIS/DSP/Include/arm_math.h **** #define ARM_MATH_CM7
 314:Drivers/CMSIS/DSP/Include/arm_math.h **** 
 315:Drivers/CMSIS/DSP/Include/arm_math.h **** #define __CMSIS_GENERIC /* disable NVIC and Systick functions */
 316:Drivers/CMSIS/DSP/Include/arm_math.h **** 
 317:Drivers/CMSIS/DSP/Include/arm_math.h **** #if defined(ARM_MATH_CM7)
 318:Drivers/CMSIS/DSP/Include/arm_math.h **** #include "core_cm7.h"
 319:Drivers/CMSIS/DSP/Include/arm_math.h **** #define ARM_MATH_DSP
 320:Drivers/CMSIS/DSP/Include/arm_math.h **** #elif defined(ARM_MATH_CM4)
 321:Drivers/CMSIS/DSP/Include/arm_math.h **** #include "core_cm4.h"
 322:Drivers/CMSIS/DSP/Include/arm_math.h **** #define ARM_MATH_DSP
 323:Drivers/CMSIS/DSP/Include/arm_math.h **** #elif defined(ARM_MATH_CM3)
 324:Drivers/CMSIS/DSP/Include/arm_math.h **** #include "core_cm3.h"
 325:Drivers/CMSIS/DSP/Include/arm_math.h **** #elif defined(ARM_MATH_CM0)
 326:Drivers/CMSIS/DSP/Include/arm_math.h **** #include "core_cm0.h"
 327:Drivers/CMSIS/DSP/Include/arm_math.h **** #define ARM_MATH_CM0_FAMILY
 328:Drivers/CMSIS/DSP/Include/arm_math.h **** #elif defined(ARM_MATH_CM0PLUS)
 329:Drivers/CMSIS/DSP/Include/arm_math.h **** #include "core_cm0plus.h"
 330:Drivers/CMSIS/DSP/Include/arm_math.h **** #define ARM_MATH_CM0_FAMILY
 331:Drivers/CMSIS/DSP/Include/arm_math.h **** #elif defined(ARM_MATH_ARMV8MBL)
 332:Drivers/CMSIS/DSP/Include/arm_math.h **** #include "core_armv8mbl.h"
 333:Drivers/CMSIS/DSP/Include/arm_math.h **** #define ARM_MATH_CM0_FAMILY
 334:Drivers/CMSIS/DSP/Include/arm_math.h **** #elif defined(ARM_MATH_ARMV8MML)
 335:Drivers/CMSIS/DSP/Include/arm_math.h **** #include "core_armv8mml.h"
 336:Drivers/CMSIS/DSP/Include/arm_math.h **** #if (defined(__DSP_PRESENT) && (__DSP_PRESENT == 1))
 337:Drivers/CMSIS/DSP/Include/arm_math.h **** #define ARM_MATH_DSP
 338:Drivers/CMSIS/DSP/Include/arm_math.h **** #endif
 339:Drivers/CMSIS/DSP/Include/arm_math.h **** #else
 340:Drivers/CMSIS/DSP/Include/arm_math.h **** #error "Define according the used Cortex core ARM_MATH_CM7, ARM_MATH_CM4, ARM_MATH_CM3, ARM_MATH_CM
 341:Drivers/CMSIS/DSP/Include/arm_math.h **** #endif
 342:Drivers/CMSIS/DSP/Include/arm_math.h **** 
 343:Drivers/CMSIS/DSP/Include/arm_math.h **** #undef __CMSIS_GENERIC /* enable NVIC and Systick functions */
 344:Drivers/CMSIS/DSP/Include/arm_math.h **** #include "string.h"
 345:Drivers/CMSIS/DSP/Include/arm_math.h **** #include "math.h"
ARM GAS  /var/folders/n6/c271nzx11xl4r4_m7sqjlt0m0000gn/T//ccsecID7.s 			page 14


 346:Drivers/CMSIS/DSP/Include/arm_math.h **** #ifdef __cplusplus
 347:Drivers/CMSIS/DSP/Include/arm_math.h **** extern "C"
 348:Drivers/CMSIS/DSP/Include/arm_math.h **** {
 349:Drivers/CMSIS/DSP/Include/arm_math.h **** #endif
 350:Drivers/CMSIS/DSP/Include/arm_math.h **** 
 351:Drivers/CMSIS/DSP/Include/arm_math.h ****   /**
 352:Drivers/CMSIS/DSP/Include/arm_math.h ****    * @brief Macros required for reciprocal calculation in Normalized LMS
 353:Drivers/CMSIS/DSP/Include/arm_math.h ****    */
 354:Drivers/CMSIS/DSP/Include/arm_math.h **** 
 355:Drivers/CMSIS/DSP/Include/arm_math.h **** #define DELTA_Q31 (0x100)
 356:Drivers/CMSIS/DSP/Include/arm_math.h **** #define DELTA_Q15 0x5
 357:Drivers/CMSIS/DSP/Include/arm_math.h **** #define INDEX_MASK 0x0000003F
 358:Drivers/CMSIS/DSP/Include/arm_math.h **** #ifndef PI
 359:Drivers/CMSIS/DSP/Include/arm_math.h **** #define PI 3.14159265358979f
 360:Drivers/CMSIS/DSP/Include/arm_math.h **** #endif
 361:Drivers/CMSIS/DSP/Include/arm_math.h **** 
 362:Drivers/CMSIS/DSP/Include/arm_math.h ****   /**
 363:Drivers/CMSIS/DSP/Include/arm_math.h ****    * @brief Macros required for SINE and COSINE Fast math approximations
 364:Drivers/CMSIS/DSP/Include/arm_math.h ****    */
 365:Drivers/CMSIS/DSP/Include/arm_math.h **** 
 366:Drivers/CMSIS/DSP/Include/arm_math.h **** #define FAST_MATH_TABLE_SIZE 512
 367:Drivers/CMSIS/DSP/Include/arm_math.h **** #define FAST_MATH_Q31_SHIFT (32 - 10)
 368:Drivers/CMSIS/DSP/Include/arm_math.h **** #define FAST_MATH_Q15_SHIFT (16 - 10)
 369:Drivers/CMSIS/DSP/Include/arm_math.h **** #define CONTROLLER_Q31_SHIFT (32 - 9)
 370:Drivers/CMSIS/DSP/Include/arm_math.h **** #define TABLE_SPACING_Q31 0x400000
 371:Drivers/CMSIS/DSP/Include/arm_math.h **** #define TABLE_SPACING_Q15 0x80
 372:Drivers/CMSIS/DSP/Include/arm_math.h **** 
 373:Drivers/CMSIS/DSP/Include/arm_math.h ****   /**
 374:Drivers/CMSIS/DSP/Include/arm_math.h ****    * @brief Macros required for SINE and COSINE Controller functions
 375:Drivers/CMSIS/DSP/Include/arm_math.h ****    */
 376:Drivers/CMSIS/DSP/Include/arm_math.h ****   /* 1.31(q31) Fixed value of 2/360 */
 377:Drivers/CMSIS/DSP/Include/arm_math.h ****   /* -1 to +1 is divided into 360 values so total spacing is (2/360) */
 378:Drivers/CMSIS/DSP/Include/arm_math.h **** #define INPUT_SPACING 0xB60B61
 379:Drivers/CMSIS/DSP/Include/arm_math.h **** 
 380:Drivers/CMSIS/DSP/Include/arm_math.h ****   /**
 381:Drivers/CMSIS/DSP/Include/arm_math.h ****    * @brief Macro for Unaligned Support
 382:Drivers/CMSIS/DSP/Include/arm_math.h ****    */
 383:Drivers/CMSIS/DSP/Include/arm_math.h **** #ifndef UNALIGNED_SUPPORT_DISABLE
 384:Drivers/CMSIS/DSP/Include/arm_math.h **** #define ALIGN4
 385:Drivers/CMSIS/DSP/Include/arm_math.h **** #else
 386:Drivers/CMSIS/DSP/Include/arm_math.h **** #if defined(__GNUC__)
 387:Drivers/CMSIS/DSP/Include/arm_math.h **** #define ALIGN4 __attribute__((aligned(4)))
 388:Drivers/CMSIS/DSP/Include/arm_math.h **** #else
 389:Drivers/CMSIS/DSP/Include/arm_math.h **** #define ALIGN4 __align(4)
 390:Drivers/CMSIS/DSP/Include/arm_math.h **** #endif
 391:Drivers/CMSIS/DSP/Include/arm_math.h **** #endif /* #ifndef UNALIGNED_SUPPORT_DISABLE */
 392:Drivers/CMSIS/DSP/Include/arm_math.h **** 
 393:Drivers/CMSIS/DSP/Include/arm_math.h ****   /**
 394:Drivers/CMSIS/DSP/Include/arm_math.h ****    * @brief Error status returned by some functions in the library.
 395:Drivers/CMSIS/DSP/Include/arm_math.h ****    */
 396:Drivers/CMSIS/DSP/Include/arm_math.h **** 
 397:Drivers/CMSIS/DSP/Include/arm_math.h ****   typedef enum
 398:Drivers/CMSIS/DSP/Include/arm_math.h ****   {
 399:Drivers/CMSIS/DSP/Include/arm_math.h ****     ARM_MATH_SUCCESS = 0,         /**< No error */
 400:Drivers/CMSIS/DSP/Include/arm_math.h ****     ARM_MATH_ARGUMENT_ERROR = -1, /**< One or more arguments are incorrect */
 401:Drivers/CMSIS/DSP/Include/arm_math.h ****     ARM_MATH_LENGTH_ERROR = -2,   /**< Length of data buffer is incorrect */
 402:Drivers/CMSIS/DSP/Include/arm_math.h ****     ARM_MATH_SIZE_MISMATCH = -3,  /**< Size of matrices is not compatible with the operation. */
ARM GAS  /var/folders/n6/c271nzx11xl4r4_m7sqjlt0m0000gn/T//ccsecID7.s 			page 15


 403:Drivers/CMSIS/DSP/Include/arm_math.h ****     ARM_MATH_NANINF = -4,         /**< Not-a-number (NaN) or infinity is generated */
 404:Drivers/CMSIS/DSP/Include/arm_math.h ****     ARM_MATH_SINGULAR = -5,       /**< Generated by matrix inversion if the input matrix is singula
 405:Drivers/CMSIS/DSP/Include/arm_math.h ****     ARM_MATH_TEST_FAILURE = -6    /**< Test Failed  */
 406:Drivers/CMSIS/DSP/Include/arm_math.h ****   } arm_status;
 407:Drivers/CMSIS/DSP/Include/arm_math.h **** 
 408:Drivers/CMSIS/DSP/Include/arm_math.h ****   /**
 409:Drivers/CMSIS/DSP/Include/arm_math.h ****    * @brief 8-bit fractional data type in 1.7 format.
 410:Drivers/CMSIS/DSP/Include/arm_math.h ****    */
 411:Drivers/CMSIS/DSP/Include/arm_math.h ****   typedef int8_t q7_t;
 412:Drivers/CMSIS/DSP/Include/arm_math.h **** 
 413:Drivers/CMSIS/DSP/Include/arm_math.h ****   /**
 414:Drivers/CMSIS/DSP/Include/arm_math.h ****    * @brief 16-bit fractional data type in 1.15 format.
 415:Drivers/CMSIS/DSP/Include/arm_math.h ****    */
 416:Drivers/CMSIS/DSP/Include/arm_math.h ****   typedef int16_t q15_t;
 417:Drivers/CMSIS/DSP/Include/arm_math.h **** 
 418:Drivers/CMSIS/DSP/Include/arm_math.h ****   /**
 419:Drivers/CMSIS/DSP/Include/arm_math.h ****    * @brief 32-bit fractional data type in 1.31 format.
 420:Drivers/CMSIS/DSP/Include/arm_math.h ****    */
 421:Drivers/CMSIS/DSP/Include/arm_math.h ****   typedef int32_t q31_t;
 422:Drivers/CMSIS/DSP/Include/arm_math.h **** 
 423:Drivers/CMSIS/DSP/Include/arm_math.h ****   /**
 424:Drivers/CMSIS/DSP/Include/arm_math.h ****    * @brief 64-bit fractional data type in 1.63 format.
 425:Drivers/CMSIS/DSP/Include/arm_math.h ****    */
 426:Drivers/CMSIS/DSP/Include/arm_math.h ****   typedef int64_t q63_t;
 427:Drivers/CMSIS/DSP/Include/arm_math.h **** 
 428:Drivers/CMSIS/DSP/Include/arm_math.h ****   /**
 429:Drivers/CMSIS/DSP/Include/arm_math.h ****    * @brief 32-bit floating-point type definition.
 430:Drivers/CMSIS/DSP/Include/arm_math.h ****    */
 431:Drivers/CMSIS/DSP/Include/arm_math.h ****   typedef float float32_t;
 432:Drivers/CMSIS/DSP/Include/arm_math.h **** 
 433:Drivers/CMSIS/DSP/Include/arm_math.h ****   /**
 434:Drivers/CMSIS/DSP/Include/arm_math.h ****    * @brief 64-bit floating-point type definition.
 435:Drivers/CMSIS/DSP/Include/arm_math.h ****    */
 436:Drivers/CMSIS/DSP/Include/arm_math.h ****   typedef double float64_t;
 437:Drivers/CMSIS/DSP/Include/arm_math.h **** 
 438:Drivers/CMSIS/DSP/Include/arm_math.h ****   /**
 439:Drivers/CMSIS/DSP/Include/arm_math.h ****    * @brief definition to read/write two 16 bit values.
 440:Drivers/CMSIS/DSP/Include/arm_math.h ****    */
 441:Drivers/CMSIS/DSP/Include/arm_math.h **** #if defined(__CC_ARM)
 442:Drivers/CMSIS/DSP/Include/arm_math.h **** #define __SIMD32_TYPE int32_t __packed
 443:Drivers/CMSIS/DSP/Include/arm_math.h **** #define CMSIS_UNUSED __attribute__((unused))
 444:Drivers/CMSIS/DSP/Include/arm_math.h **** #define CMSIS_INLINE __attribute__((always_inline))
 445:Drivers/CMSIS/DSP/Include/arm_math.h **** 
 446:Drivers/CMSIS/DSP/Include/arm_math.h **** #elif defined(__ARMCC_VERSION) && (__ARMCC_VERSION >= 6010050)
 447:Drivers/CMSIS/DSP/Include/arm_math.h **** #define __SIMD32_TYPE int32_t
 448:Drivers/CMSIS/DSP/Include/arm_math.h **** #define CMSIS_UNUSED __attribute__((unused))
 449:Drivers/CMSIS/DSP/Include/arm_math.h **** #define CMSIS_INLINE __attribute__((always_inline))
 450:Drivers/CMSIS/DSP/Include/arm_math.h **** 
 451:Drivers/CMSIS/DSP/Include/arm_math.h **** #elif defined(__GNUC__)
 452:Drivers/CMSIS/DSP/Include/arm_math.h **** #define __SIMD32_TYPE int32_t
 453:Drivers/CMSIS/DSP/Include/arm_math.h **** #define CMSIS_UNUSED __attribute__((unused))
 454:Drivers/CMSIS/DSP/Include/arm_math.h **** #define CMSIS_INLINE __attribute__((always_inline))
 455:Drivers/CMSIS/DSP/Include/arm_math.h **** 
 456:Drivers/CMSIS/DSP/Include/arm_math.h **** #elif defined(__ICCARM__)
 457:Drivers/CMSIS/DSP/Include/arm_math.h **** #define __SIMD32_TYPE int32_t __packed
 458:Drivers/CMSIS/DSP/Include/arm_math.h **** #define CMSIS_UNUSED
 459:Drivers/CMSIS/DSP/Include/arm_math.h **** #define CMSIS_INLINE
ARM GAS  /var/folders/n6/c271nzx11xl4r4_m7sqjlt0m0000gn/T//ccsecID7.s 			page 16


 460:Drivers/CMSIS/DSP/Include/arm_math.h **** 
 461:Drivers/CMSIS/DSP/Include/arm_math.h **** #elif defined(__TI_ARM__)
 462:Drivers/CMSIS/DSP/Include/arm_math.h **** #define __SIMD32_TYPE int32_t
 463:Drivers/CMSIS/DSP/Include/arm_math.h **** #define CMSIS_UNUSED __attribute__((unused))
 464:Drivers/CMSIS/DSP/Include/arm_math.h **** #define CMSIS_INLINE
 465:Drivers/CMSIS/DSP/Include/arm_math.h **** 
 466:Drivers/CMSIS/DSP/Include/arm_math.h **** #elif defined(__CSMC__)
 467:Drivers/CMSIS/DSP/Include/arm_math.h **** #define __SIMD32_TYPE int32_t
 468:Drivers/CMSIS/DSP/Include/arm_math.h **** #define CMSIS_UNUSED
 469:Drivers/CMSIS/DSP/Include/arm_math.h **** #define CMSIS_INLINE
 470:Drivers/CMSIS/DSP/Include/arm_math.h **** 
 471:Drivers/CMSIS/DSP/Include/arm_math.h **** #elif defined(__TASKING__)
 472:Drivers/CMSIS/DSP/Include/arm_math.h **** #define __SIMD32_TYPE __unaligned int32_t
 473:Drivers/CMSIS/DSP/Include/arm_math.h **** #define CMSIS_UNUSED
 474:Drivers/CMSIS/DSP/Include/arm_math.h **** #define CMSIS_INLINE
 475:Drivers/CMSIS/DSP/Include/arm_math.h **** 
 476:Drivers/CMSIS/DSP/Include/arm_math.h **** #else
 477:Drivers/CMSIS/DSP/Include/arm_math.h **** #error Unknown compiler
 478:Drivers/CMSIS/DSP/Include/arm_math.h **** #endif
 479:Drivers/CMSIS/DSP/Include/arm_math.h **** 
 480:Drivers/CMSIS/DSP/Include/arm_math.h **** #define __SIMD32(addr) (*(__SIMD32_TYPE **)&(addr))
 481:Drivers/CMSIS/DSP/Include/arm_math.h **** #define __SIMD32_CONST(addr) ((__SIMD32_TYPE *)(addr))
 482:Drivers/CMSIS/DSP/Include/arm_math.h **** #define _SIMD32_OFFSET(addr) (*(__SIMD32_TYPE *)(addr))
 483:Drivers/CMSIS/DSP/Include/arm_math.h **** #define __SIMD64(addr) (*(int64_t **)&(addr))
 484:Drivers/CMSIS/DSP/Include/arm_math.h **** 
 485:Drivers/CMSIS/DSP/Include/arm_math.h **** #if !defined(ARM_MATH_DSP)
 486:Drivers/CMSIS/DSP/Include/arm_math.h ****   /**
 487:Drivers/CMSIS/DSP/Include/arm_math.h ****    * @brief definition to pack two 16 bit values.
 488:Drivers/CMSIS/DSP/Include/arm_math.h ****    */
 489:Drivers/CMSIS/DSP/Include/arm_math.h **** #define __PKHBT(ARG1, ARG2, ARG3) ((((int32_t)(ARG1) << 0) & (int32_t)0x0000FFFF) | \
 490:Drivers/CMSIS/DSP/Include/arm_math.h ****                                    (((int32_t)(ARG2) << ARG3) & (int32_t)0xFFFF0000))
 491:Drivers/CMSIS/DSP/Include/arm_math.h **** #define __PKHTB(ARG1, ARG2, ARG3) ((((int32_t)(ARG1) << 0) & (int32_t)0xFFFF0000) | \
 492:Drivers/CMSIS/DSP/Include/arm_math.h ****                                    (((int32_t)(ARG2) >> ARG3) & (int32_t)0x0000FFFF))
 493:Drivers/CMSIS/DSP/Include/arm_math.h **** 
 494:Drivers/CMSIS/DSP/Include/arm_math.h **** #endif /* !defined (ARM_MATH_DSP) */
 495:Drivers/CMSIS/DSP/Include/arm_math.h **** 
 496:Drivers/CMSIS/DSP/Include/arm_math.h ****   /**
 497:Drivers/CMSIS/DSP/Include/arm_math.h ****    * @brief definition to pack four 8 bit values.
 498:Drivers/CMSIS/DSP/Include/arm_math.h ****    */
 499:Drivers/CMSIS/DSP/Include/arm_math.h **** #ifndef ARM_MATH_BIG_ENDIAN
 500:Drivers/CMSIS/DSP/Include/arm_math.h **** 
 501:Drivers/CMSIS/DSP/Include/arm_math.h **** #define __PACKq7(v0, v1, v2, v3) ((((int32_t)(v0) << 0) & (int32_t)0x000000FF) |  \
 502:Drivers/CMSIS/DSP/Include/arm_math.h ****                                   (((int32_t)(v1) << 8) & (int32_t)0x0000FF00) |  \
 503:Drivers/CMSIS/DSP/Include/arm_math.h ****                                   (((int32_t)(v2) << 16) & (int32_t)0x00FF0000) | \
 504:Drivers/CMSIS/DSP/Include/arm_math.h ****                                   (((int32_t)(v3) << 24) & (int32_t)0xFF000000))
 505:Drivers/CMSIS/DSP/Include/arm_math.h **** #else
 506:Drivers/CMSIS/DSP/Include/arm_math.h **** 
 507:Drivers/CMSIS/DSP/Include/arm_math.h **** #define __PACKq7(v0, v1, v2, v3) ((((int32_t)(v3) << 0) & (int32_t)0x000000FF) |  \
 508:Drivers/CMSIS/DSP/Include/arm_math.h ****                                   (((int32_t)(v2) << 8) & (int32_t)0x0000FF00) |  \
 509:Drivers/CMSIS/DSP/Include/arm_math.h ****                                   (((int32_t)(v1) << 16) & (int32_t)0x00FF0000) | \
 510:Drivers/CMSIS/DSP/Include/arm_math.h ****                                   (((int32_t)(v0) << 24) & (int32_t)0xFF000000))
 511:Drivers/CMSIS/DSP/Include/arm_math.h **** 
 512:Drivers/CMSIS/DSP/Include/arm_math.h **** #endif
 513:Drivers/CMSIS/DSP/Include/arm_math.h **** 
 514:Drivers/CMSIS/DSP/Include/arm_math.h ****   /**
 515:Drivers/CMSIS/DSP/Include/arm_math.h ****    * @brief Clips Q63 to Q31 values.
 516:Drivers/CMSIS/DSP/Include/arm_math.h ****    */
ARM GAS  /var/folders/n6/c271nzx11xl4r4_m7sqjlt0m0000gn/T//ccsecID7.s 			page 17


 517:Drivers/CMSIS/DSP/Include/arm_math.h ****   CMSIS_INLINE __STATIC_INLINE q31_t clip_q63_to_q31(
 518:Drivers/CMSIS/DSP/Include/arm_math.h ****       q63_t x)
 519:Drivers/CMSIS/DSP/Include/arm_math.h ****   {
 520:Drivers/CMSIS/DSP/Include/arm_math.h ****     return ((q31_t)(x >> 32) != ((q31_t)x >> 31)) ? ((0x7FFFFFFF ^ ((q31_t)(x >> 63)))) : (q31_t)x;
 521:Drivers/CMSIS/DSP/Include/arm_math.h ****   }
 522:Drivers/CMSIS/DSP/Include/arm_math.h **** 
 523:Drivers/CMSIS/DSP/Include/arm_math.h ****   /**
 524:Drivers/CMSIS/DSP/Include/arm_math.h ****    * @brief Clips Q63 to Q15 values.
 525:Drivers/CMSIS/DSP/Include/arm_math.h ****    */
 526:Drivers/CMSIS/DSP/Include/arm_math.h ****   CMSIS_INLINE __STATIC_INLINE q15_t clip_q63_to_q15(
 527:Drivers/CMSIS/DSP/Include/arm_math.h ****       q63_t x)
 528:Drivers/CMSIS/DSP/Include/arm_math.h ****   {
 529:Drivers/CMSIS/DSP/Include/arm_math.h ****     return ((q31_t)(x >> 32) != ((q31_t)x >> 31)) ? ((0x7FFF ^ ((q15_t)(x >> 63)))) : (q15_t)(x >> 
 530:Drivers/CMSIS/DSP/Include/arm_math.h ****   }
 531:Drivers/CMSIS/DSP/Include/arm_math.h **** 
 532:Drivers/CMSIS/DSP/Include/arm_math.h ****   /**
 533:Drivers/CMSIS/DSP/Include/arm_math.h ****    * @brief Clips Q31 to Q7 values.
 534:Drivers/CMSIS/DSP/Include/arm_math.h ****    */
 535:Drivers/CMSIS/DSP/Include/arm_math.h ****   CMSIS_INLINE __STATIC_INLINE q7_t clip_q31_to_q7(
 536:Drivers/CMSIS/DSP/Include/arm_math.h ****       q31_t x)
 537:Drivers/CMSIS/DSP/Include/arm_math.h ****   {
 538:Drivers/CMSIS/DSP/Include/arm_math.h ****     return ((q31_t)(x >> 24) != ((q31_t)x >> 23)) ? ((0x7F ^ ((q7_t)(x >> 31)))) : (q7_t)x;
 539:Drivers/CMSIS/DSP/Include/arm_math.h ****   }
 540:Drivers/CMSIS/DSP/Include/arm_math.h **** 
 541:Drivers/CMSIS/DSP/Include/arm_math.h ****   /**
 542:Drivers/CMSIS/DSP/Include/arm_math.h ****    * @brief Clips Q31 to Q15 values.
 543:Drivers/CMSIS/DSP/Include/arm_math.h ****    */
 544:Drivers/CMSIS/DSP/Include/arm_math.h ****   CMSIS_INLINE __STATIC_INLINE q15_t clip_q31_to_q15(
 545:Drivers/CMSIS/DSP/Include/arm_math.h ****       q31_t x)
 546:Drivers/CMSIS/DSP/Include/arm_math.h ****   {
 547:Drivers/CMSIS/DSP/Include/arm_math.h ****     return ((q31_t)(x >> 16) != ((q31_t)x >> 15)) ? ((0x7FFF ^ ((q15_t)(x >> 31)))) : (q15_t)x;
 548:Drivers/CMSIS/DSP/Include/arm_math.h ****   }
 549:Drivers/CMSIS/DSP/Include/arm_math.h **** 
 550:Drivers/CMSIS/DSP/Include/arm_math.h ****   /**
 551:Drivers/CMSIS/DSP/Include/arm_math.h ****    * @brief Multiplies 32 X 64 and returns 32 bit result in 2.30 format.
 552:Drivers/CMSIS/DSP/Include/arm_math.h ****    */
 553:Drivers/CMSIS/DSP/Include/arm_math.h **** 
 554:Drivers/CMSIS/DSP/Include/arm_math.h ****   CMSIS_INLINE __STATIC_INLINE q63_t mult32x64(
 155              		.loc 2 554 38 view .LVU42
 156              	.LBB23:
 555:Drivers/CMSIS/DSP/Include/arm_math.h ****       q63_t x,
 556:Drivers/CMSIS/DSP/Include/arm_math.h ****       q31_t y)
 557:Drivers/CMSIS/DSP/Include/arm_math.h ****   {
 558:Drivers/CMSIS/DSP/Include/arm_math.h ****     return ((((q63_t)(x & 0x00000000FFFFFFFF) * y) >> 32) +
 157              		.loc 2 558 5 view .LVU43
 158              		.loc 2 558 47 is_stmt 0 view .LVU44
 159 0084 4FEAEC72 		asr	r2, ip, #31
 160 0088 0099     		ldr	r1, [sp]
 161 008a A1FB0C45 		umull	r4, r5, r1, ip
 162 008e 1346     		mov	r3, r2
 163 0090 01FB0255 		mla	r5, r1, r2, r5
 559:Drivers/CMSIS/DSP/Include/arm_math.h ****             (((q63_t)(x >> 32) * y)));
 164              		.loc 2 559 25 view .LVU45
 165 0094 4FEAEE71 		asr	r1, lr, #31
 166              		.loc 2 559 32 view .LVU46
 167 0098 1391     		str	r1, [sp, #76]
 168 009a 0CFB01FA 		mul	r10, ip, r1
ARM GAS  /var/folders/n6/c271nzx11xl4r4_m7sqjlt0m0000gn/T//ccsecID7.s 			page 18


 169 009e 0EFB02AA 		mla	r10, lr, r2, r10
 170 00a2 ACFB0E24 		umull	r2, r4, ip, lr
 171 00a6 5444     		add	r4, r4, r10
 558:Drivers/CMSIS/DSP/Include/arm_math.h ****             (((q63_t)(x >> 32) * y)));
 172              		.loc 2 558 59 view .LVU47
 173 00a8 AA18     		adds	r2, r5, r2
 174 00aa 44EBE574 		adc	r4, r4, r5, asr #31
 175              	.LVL18:
 558:Drivers/CMSIS/DSP/Include/arm_math.h ****             (((q63_t)(x >> 32) * y)));
 176              		.loc 2 558 59 view .LVU48
 177              	.LBE23:
 178              	.LBE22:
 179              		.loc 1 243 11 discriminator 1 view .LVU49
 180 00ae B218     		adds	r2, r6, r2
 181 00b0 47EB0404 		adc	r4, r7, r4
 182              	.LVL19:
 244:Drivers/CMSIS/DSP/Source/FilteringFunctions/arm_biquad_cascade_df1_32x64_q31.c **** 
 245:Drivers/CMSIS/DSP/Source/FilteringFunctions/arm_biquad_cascade_df1_32x64_q31.c ****       /* acc +=  a2 * y[n-2] */
 246:Drivers/CMSIS/DSP/Source/FilteringFunctions/arm_biquad_cascade_df1_32x64_q31.c ****       acc += mult32x64(Yn2, a2);
 183              		.loc 1 246 7 is_stmt 1 view .LVU50
 184              	.LBB24:
 185              	.LBI24:
 554:Drivers/CMSIS/DSP/Include/arm_math.h ****       q63_t x,
 186              		.loc 2 554 38 view .LVU51
 187              	.LBB25:
 558:Drivers/CMSIS/DSP/Include/arm_math.h ****             (((q63_t)(x >> 32) * y)));
 188              		.loc 2 558 5 view .LVU52
 558:Drivers/CMSIS/DSP/Include/arm_math.h ****             (((q63_t)(x >> 32) * y)));
 189              		.loc 2 558 47 is_stmt 0 view .LVU53
 190 00b4 0199     		ldr	r1, [sp, #4]
 191 00b6 CD17     		asrs	r5, r1, #31
 192 00b8 A9FB0176 		umull	r7, r6, r9, r1
 193 00bc 09FB0566 		mla	r6, r9, r5, r6
 194              		.loc 2 559 25 view .LVU54
 195 00c0 4FEAEB77 		asr	r7, fp, #31
 196              		.loc 2 559 32 view .LVU55
 197 00c4 01FB07F7 		mul	r7, r1, r7
 198 00c8 0795     		str	r5, [sp, #28]
 199 00ca 0BFB0577 		mla	r7, fp, r5, r7
 200 00ce A1FB0B59 		umull	r5, r9, r1, fp
 201              	.LVL20:
 202              		.loc 2 559 32 view .LVU56
 203 00d2 B944     		add	r9, r9, r7
 558:Drivers/CMSIS/DSP/Include/arm_math.h ****             (((q63_t)(x >> 32) * y)));
 204              		.loc 2 558 59 view .LVU57
 205 00d4 7519     		adds	r5, r6, r5
 206 00d6 49EBE679 		adc	r9, r9, r6, asr #31
 207              	.LVL21:
 558:Drivers/CMSIS/DSP/Include/arm_math.h ****             (((q63_t)(x >> 32) * y)));
 208              		.loc 2 558 59 view .LVU58
 209              	.LBE25:
 210              	.LBE24:
 211              		.loc 1 246 11 discriminator 1 view .LVU59
 212 00da 5519     		adds	r5, r2, r5
 213 00dc 44EB0902 		adc	r2, r4, r9
 214              	.LVL22:
 247:Drivers/CMSIS/DSP/Source/FilteringFunctions/arm_biquad_cascade_df1_32x64_q31.c **** 
ARM GAS  /var/folders/n6/c271nzx11xl4r4_m7sqjlt0m0000gn/T//ccsecID7.s 			page 19


 248:Drivers/CMSIS/DSP/Source/FilteringFunctions/arm_biquad_cascade_df1_32x64_q31.c ****       /* The result is converted to 1.63 , Yn2 variable is reused */
 249:Drivers/CMSIS/DSP/Source/FilteringFunctions/arm_biquad_cascade_df1_32x64_q31.c ****       Yn2 = acc << shift;
 215              		.loc 1 249 7 is_stmt 1 view .LVU60
 216              		.loc 1 249 11 is_stmt 0 view .LVU61
 217 00e0 A8F12006 		sub	r6, r8, #32
 218 00e4 C8F12004 		rsb	r4, r8, #32
 219 00e8 02FA08FB 		lsl	fp, r2, r8
 220 00ec 05FA06F6 		lsl	r6, r5, r6
 221 00f0 4BEA060B 		orr	fp, fp, r6
 222 00f4 25FA04F4 		lsr	r4, r5, r4
 223 00f8 4BEA040B 		orr	fp, fp, r4
 224 00fc 05FA08F9 		lsl	r9, r5, r8
 225              	.LVL23:
 250:Drivers/CMSIS/DSP/Source/FilteringFunctions/arm_biquad_cascade_df1_32x64_q31.c **** 
 251:Drivers/CMSIS/DSP/Source/FilteringFunctions/arm_biquad_cascade_df1_32x64_q31.c ****       /* Calc lower part of acc */
 252:Drivers/CMSIS/DSP/Source/FilteringFunctions/arm_biquad_cascade_df1_32x64_q31.c ****       acc_l = acc & 0xffffffff;
 226              		.loc 1 252 7 is_stmt 1 view .LVU62
 253:Drivers/CMSIS/DSP/Source/FilteringFunctions/arm_biquad_cascade_df1_32x64_q31.c **** 
 254:Drivers/CMSIS/DSP/Source/FilteringFunctions/arm_biquad_cascade_df1_32x64_q31.c ****       /* Calc upper part of acc */
 255:Drivers/CMSIS/DSP/Source/FilteringFunctions/arm_biquad_cascade_df1_32x64_q31.c ****       acc_h = (acc >> 32) & 0xffffffff;
 227              		.loc 1 255 7 view .LVU63
 256:Drivers/CMSIS/DSP/Source/FilteringFunctions/arm_biquad_cascade_df1_32x64_q31.c **** 
 257:Drivers/CMSIS/DSP/Source/FilteringFunctions/arm_biquad_cascade_df1_32x64_q31.c ****       /* Apply shift for lower part of acc and upper part of acc */
 258:Drivers/CMSIS/DSP/Source/FilteringFunctions/arm_biquad_cascade_df1_32x64_q31.c ****       acc_h = (uint32_t) acc_l >> lShift | acc_h << uShift;
 228              		.loc 1 258 7 view .LVU64
 229              		.loc 1 258 32 is_stmt 0 view .LVU65
 230 0100 089E     		ldr	r6, [sp, #32]
 231 0102 F540     		lsrs	r5, r5, r6
 232              	.LVL24:
 233              		.loc 1 258 50 view .LVU66
 234 0104 02FA08F2 		lsl	r2, r2, r8
 235              	.LVL25:
 236              		.loc 1 258 13 view .LVU67
 237 0108 1543     		orrs	r5, r5, r2
 238              	.LVL26:
 259:Drivers/CMSIS/DSP/Source/FilteringFunctions/arm_biquad_cascade_df1_32x64_q31.c **** 
 260:Drivers/CMSIS/DSP/Source/FilteringFunctions/arm_biquad_cascade_df1_32x64_q31.c ****       /* Store the output in the destination buffer in 1.31 format. */
 261:Drivers/CMSIS/DSP/Source/FilteringFunctions/arm_biquad_cascade_df1_32x64_q31.c ****       *pOut = acc_h;
 239              		.loc 1 261 7 is_stmt 1 view .LVU68
 240              		.loc 1 261 13 is_stmt 0 view .LVU69
 241 010a 059E     		ldr	r6, [sp, #20]
 242 010c 3560     		str	r5, [r6]
 243              	.LVL27:
 262:Drivers/CMSIS/DSP/Source/FilteringFunctions/arm_biquad_cascade_df1_32x64_q31.c **** 
 263:Drivers/CMSIS/DSP/Source/FilteringFunctions/arm_biquad_cascade_df1_32x64_q31.c ****       /* Read the second input into Xn2, to reuse the value */
 264:Drivers/CMSIS/DSP/Source/FilteringFunctions/arm_biquad_cascade_df1_32x64_q31.c ****       Xn2 = *pIn++;
 244              		.loc 1 264 7 is_stmt 1 view .LVU70
 245              		.loc 1 264 11 is_stmt 0 view .LVU71
 246 010e 069E     		ldr	r6, [sp, #24]
 247 0110 7268     		ldr	r2, [r6, #4]
 248 0112 1146     		mov	r1, r2
 249              	.LVL28:
 265:Drivers/CMSIS/DSP/Source/FilteringFunctions/arm_biquad_cascade_df1_32x64_q31.c **** 
 266:Drivers/CMSIS/DSP/Source/FilteringFunctions/arm_biquad_cascade_df1_32x64_q31.c ****       /* acc =  b0 * x[n] + b1 * x[n-1] + b2 * x[n-2] + a1 * y[n-1] + a2 * y[n-2] */
 267:Drivers/CMSIS/DSP/Source/FilteringFunctions/arm_biquad_cascade_df1_32x64_q31.c **** 
 268:Drivers/CMSIS/DSP/Source/FilteringFunctions/arm_biquad_cascade_df1_32x64_q31.c ****       /* acc +=  b1 * x[n-1] */
 269:Drivers/CMSIS/DSP/Source/FilteringFunctions/arm_biquad_cascade_df1_32x64_q31.c ****       acc = (q63_t) Xn *b1;
ARM GAS  /var/folders/n6/c271nzx11xl4r4_m7sqjlt0m0000gn/T//ccsecID7.s 			page 20


 250              		.loc 1 269 7 is_stmt 1 view .LVU72
 251              		.loc 1 269 11 is_stmt 0 view .LVU73
 252 0114 0B9F     		ldr	r7, [sp, #44]
 253 0116 099C     		ldr	r4, [sp, #36]
 254 0118 04FB07F6 		mul	r6, r4, r7
 255 011c 0F9A     		ldr	r2, [sp, #60]
 256 011e 029D     		ldr	r5, [sp, #8]
 257              	.LVL29:
 258              		.loc 1 269 11 view .LVU74
 259 0120 05FB0266 		mla	r6, r5, r2, r6
 260 0124 A4FB05A4 		umull	r10, r4, r4, r5
 261 0128 2644     		add	r6, r6, r4
 262              	.LVL30:
 270:Drivers/CMSIS/DSP/Source/FilteringFunctions/arm_biquad_cascade_df1_32x64_q31.c **** 
 271:Drivers/CMSIS/DSP/Source/FilteringFunctions/arm_biquad_cascade_df1_32x64_q31.c ****       /* acc =  b0 * x[n] */
 272:Drivers/CMSIS/DSP/Source/FilteringFunctions/arm_biquad_cascade_df1_32x64_q31.c ****       acc += (q63_t) Xn2 *b0;
 263              		.loc 1 272 7 is_stmt 1 view .LVU75
 264              		.loc 1 272 14 is_stmt 0 view .LVU76
 265 012a CD17     		asrs	r5, r1, #31
 266              		.loc 1 272 26 view .LVU77
 267 012c 1095     		str	r5, [sp, #64]
 268 012e 049C     		ldr	r4, [sp, #16]
 269 0130 04FB05F7 		mul	r7, r4, r5
 270 0134 0A9D     		ldr	r5, [sp, #40]
 271 0136 01FB0577 		mla	r7, r1, r5, r7
 272 013a 1191     		str	r1, [sp, #68]
 273 013c A4FB0145 		umull	r4, r5, r4, r1
 274 0140 3D44     		add	r5, r5, r7
 275              		.loc 1 272 11 view .LVU78
 276 0142 14EB0A04 		adds	r4, r4, r10
 277 0146 46EB0505 		adc	r5, r6, r5
 278              	.LVL31:
 273:Drivers/CMSIS/DSP/Source/FilteringFunctions/arm_biquad_cascade_df1_32x64_q31.c **** 
 274:Drivers/CMSIS/DSP/Source/FilteringFunctions/arm_biquad_cascade_df1_32x64_q31.c ****       /* acc +=  b[2] * x[n-2] */
 275:Drivers/CMSIS/DSP/Source/FilteringFunctions/arm_biquad_cascade_df1_32x64_q31.c ****       acc += (q63_t) Xn1 *b2;
 279              		.loc 1 275 7 is_stmt 1 view .LVU79
 280              		.loc 1 275 26 is_stmt 0 view .LVU80
 281 014a 0C9A     		ldr	r2, [sp, #48]
 282 014c 00FB02F6 		mul	r6, r0, r2
 283 0150 0D99     		ldr	r1, [sp, #52]
 284              	.LVL32:
 285              		.loc 1 275 26 view .LVU81
 286 0152 039F     		ldr	r7, [sp, #12]
 287 0154 07FB0166 		mla	r6, r7, r1, r6
 288 0158 A0FB0707 		umull	r0, r7, r0, r7
 289              	.LVL33:
 290              		.loc 1 275 26 view .LVU82
 291 015c 3744     		add	r7, r7, r6
 292              		.loc 1 275 11 view .LVU83
 293 015e 0019     		adds	r0, r0, r4
 294 0160 47EB0507 		adc	r7, r7, r5
 295              	.LVL34:
 276:Drivers/CMSIS/DSP/Source/FilteringFunctions/arm_biquad_cascade_df1_32x64_q31.c **** 
 277:Drivers/CMSIS/DSP/Source/FilteringFunctions/arm_biquad_cascade_df1_32x64_q31.c ****       /* acc +=  a1 * y[n-1] */
 278:Drivers/CMSIS/DSP/Source/FilteringFunctions/arm_biquad_cascade_df1_32x64_q31.c ****       acc += mult32x64(Yn2, a1);
 296              		.loc 1 278 7 is_stmt 1 view .LVU84
 297              	.LBB26:
ARM GAS  /var/folders/n6/c271nzx11xl4r4_m7sqjlt0m0000gn/T//ccsecID7.s 			page 21


 298              	.LBI26:
 554:Drivers/CMSIS/DSP/Include/arm_math.h ****       q63_t x,
 299              		.loc 2 554 38 view .LVU85
 300              	.LBB27:
 558:Drivers/CMSIS/DSP/Include/arm_math.h ****             (((q63_t)(x >> 32) * y)));
 301              		.loc 2 558 5 view .LVU86
 558:Drivers/CMSIS/DSP/Include/arm_math.h ****             (((q63_t)(x >> 32) * y)));
 302              		.loc 2 558 47 is_stmt 0 view .LVU87
 303 0164 A9FB0C46 		umull	r4, r6, r9, ip
 304 0168 09FB0366 		mla	r6, r9, r3, r6
 305              		.loc 2 559 25 view .LVU88
 306 016c 4FEAEB7A 		asr	r10, fp, #31
 307 0170 5146     		mov	r1, r10
 308              		.loc 2 559 32 view .LVU89
 309 0172 0BFB03FA 		mul	r10, fp, r3
 310 0176 1291     		str	r1, [sp, #72]
 311 0178 0CFB01AA 		mla	r10, ip, r1, r10
 312 017c ABFB0C45 		umull	r4, r5, fp, ip
 313 0180 5544     		add	r5, r5, r10
 558:Drivers/CMSIS/DSP/Include/arm_math.h ****             (((q63_t)(x >> 32) * y)));
 314              		.loc 2 558 59 view .LVU90
 315 0182 3419     		adds	r4, r6, r4
 316 0184 45EBE675 		adc	r5, r5, r6, asr #31
 317              	.LVL35:
 558:Drivers/CMSIS/DSP/Include/arm_math.h ****             (((q63_t)(x >> 32) * y)));
 318              		.loc 2 558 59 view .LVU91
 319              	.LBE27:
 320              	.LBE26:
 321              		.loc 1 278 11 discriminator 1 view .LVU92
 322 0188 0419     		adds	r4, r0, r4
 323 018a 47EB0505 		adc	r5, r7, r5
 324              	.LVL36:
 279:Drivers/CMSIS/DSP/Source/FilteringFunctions/arm_biquad_cascade_df1_32x64_q31.c **** 
 280:Drivers/CMSIS/DSP/Source/FilteringFunctions/arm_biquad_cascade_df1_32x64_q31.c ****       /* acc +=  a2 * y[n-2] */
 281:Drivers/CMSIS/DSP/Source/FilteringFunctions/arm_biquad_cascade_df1_32x64_q31.c ****       acc += mult32x64(Yn1, a2);
 325              		.loc 1 281 7 is_stmt 1 view .LVU93
 326              	.LBB28:
 327              	.LBI28:
 554:Drivers/CMSIS/DSP/Include/arm_math.h ****       q63_t x,
 328              		.loc 2 554 38 view .LVU94
 329              	.LBB29:
 558:Drivers/CMSIS/DSP/Include/arm_math.h ****             (((q63_t)(x >> 32) * y)));
 330              		.loc 2 558 5 view .LVU95
 558:Drivers/CMSIS/DSP/Include/arm_math.h ****             (((q63_t)(x >> 32) * y)));
 331              		.loc 2 558 47 is_stmt 0 view .LVU96
 332 018e 009F     		ldr	r7, [sp]
 333 0190 3846     		mov	r0, r7
 334 0192 0199     		ldr	r1, [sp, #4]
 335 0194 A1FB0006 		umull	r0, r6, r1, r0
 336 0198 0798     		ldr	r0, [sp, #28]
 337 019a 07FB0066 		mla	r6, r7, r0, r6
 338              		.loc 2 559 32 view .LVU97
 339 019e 1399     		ldr	r1, [sp, #76]
 340 01a0 019F     		ldr	r7, [sp, #4]
 341 01a2 07FB01F7 		mul	r7, r7, r1
 342 01a6 0EFB0077 		mla	r7, lr, r0, r7
 343 01aa 0199     		ldr	r1, [sp, #4]
ARM GAS  /var/folders/n6/c271nzx11xl4r4_m7sqjlt0m0000gn/T//ccsecID7.s 			page 22


 344 01ac A1FB0EE0 		umull	lr, r0, r1, lr
 345              	.LVL37:
 346              		.loc 2 559 32 view .LVU98
 347 01b0 3844     		add	r0, r0, r7
 558:Drivers/CMSIS/DSP/Include/arm_math.h ****             (((q63_t)(x >> 32) * y)));
 348              		.loc 2 558 59 view .LVU99
 349 01b2 16EB0E0E 		adds	lr, r6, lr
 350 01b6 40EBE670 		adc	r0, r0, r6, asr #31
 351              	.LVL38:
 558:Drivers/CMSIS/DSP/Include/arm_math.h ****             (((q63_t)(x >> 32) * y)));
 352              		.loc 2 558 59 view .LVU100
 353              	.LBE29:
 354              	.LBE28:
 355              		.loc 1 281 11 discriminator 1 view .LVU101
 356 01ba 14EB0E0E 		adds	lr, r4, lr
 357 01be 45EB0000 		adc	r0, r5, r0
 358              	.LVL39:
 282:Drivers/CMSIS/DSP/Source/FilteringFunctions/arm_biquad_cascade_df1_32x64_q31.c **** 
 283:Drivers/CMSIS/DSP/Source/FilteringFunctions/arm_biquad_cascade_df1_32x64_q31.c ****       /* The result is converted to 1.63, Yn1 variable is reused */
 284:Drivers/CMSIS/DSP/Source/FilteringFunctions/arm_biquad_cascade_df1_32x64_q31.c ****       Yn1 = acc << shift;
 359              		.loc 1 284 7 is_stmt 1 view .LVU102
 360              		.loc 1 284 11 is_stmt 0 view .LVU103
 361 01c2 A8F12005 		sub	r5, r8, #32
 362 01c6 C8F12004 		rsb	r4, r8, #32
 363 01ca 00FA08F1 		lsl	r1, r0, r8
 364 01ce 0091     		str	r1, [sp]
 365              		.loc 1 284 11 view .LVU104
 366 01d0 0EFA05F5 		lsl	r5, lr, r5
 367 01d4 2943     		orrs	r1, r1, r5
 368 01d6 0091     		str	r1, [sp]
 369 01d8 2EFA04F4 		lsr	r4, lr, r4
 370 01dc 2143     		orrs	r1, r1, r4
 371 01de 0091     		str	r1, [sp]
 372 01e0 0EFA08FA 		lsl	r10, lr, r8
 373 01e4 CDF834A0 		str	r10, [sp, #52]
 374              	.LVL40:
 285:Drivers/CMSIS/DSP/Source/FilteringFunctions/arm_biquad_cascade_df1_32x64_q31.c **** 
 286:Drivers/CMSIS/DSP/Source/FilteringFunctions/arm_biquad_cascade_df1_32x64_q31.c ****       /* Calc lower part of acc */
 287:Drivers/CMSIS/DSP/Source/FilteringFunctions/arm_biquad_cascade_df1_32x64_q31.c ****       acc_l = acc & 0xffffffff;
 375              		.loc 1 287 7 is_stmt 1 view .LVU105
 288:Drivers/CMSIS/DSP/Source/FilteringFunctions/arm_biquad_cascade_df1_32x64_q31.c **** 
 289:Drivers/CMSIS/DSP/Source/FilteringFunctions/arm_biquad_cascade_df1_32x64_q31.c ****       /* Calc upper part of acc */
 290:Drivers/CMSIS/DSP/Source/FilteringFunctions/arm_biquad_cascade_df1_32x64_q31.c ****       acc_h = (acc >> 32) & 0xffffffff;
 376              		.loc 1 290 7 view .LVU106
 291:Drivers/CMSIS/DSP/Source/FilteringFunctions/arm_biquad_cascade_df1_32x64_q31.c **** 
 292:Drivers/CMSIS/DSP/Source/FilteringFunctions/arm_biquad_cascade_df1_32x64_q31.c ****       /* Apply shift for lower part of acc and upper part of acc */
 293:Drivers/CMSIS/DSP/Source/FilteringFunctions/arm_biquad_cascade_df1_32x64_q31.c ****       acc_h = (uint32_t) acc_l >> lShift | acc_h << uShift;
 377              		.loc 1 293 7 view .LVU107
 378              		.loc 1 293 32 is_stmt 0 view .LVU108
 379 01e8 089E     		ldr	r6, [sp, #32]
 380 01ea 2EFA06FE 		lsr	lr, lr, r6
 381              	.LVL41:
 382              		.loc 1 293 50 view .LVU109
 383 01ee 00FA08F0 		lsl	r0, r0, r8
 384              	.LVL42:
 385              		.loc 1 293 13 view .LVU110
 386 01f2 4EEA0000 		orr	r0, lr, r0
ARM GAS  /var/folders/n6/c271nzx11xl4r4_m7sqjlt0m0000gn/T//ccsecID7.s 			page 23


 387              	.LVL43:
 294:Drivers/CMSIS/DSP/Source/FilteringFunctions/arm_biquad_cascade_df1_32x64_q31.c **** 
 295:Drivers/CMSIS/DSP/Source/FilteringFunctions/arm_biquad_cascade_df1_32x64_q31.c ****       /* Read the third input into Xn1, to reuse the value */
 296:Drivers/CMSIS/DSP/Source/FilteringFunctions/arm_biquad_cascade_df1_32x64_q31.c ****       Xn1 = *pIn++;
 388              		.loc 1 296 7 is_stmt 1 view .LVU111
 389              		.loc 1 296 11 is_stmt 0 view .LVU112
 390 01f6 069E     		ldr	r6, [sp, #24]
 391 01f8 B668     		ldr	r6, [r6, #8]
 392              	.LVL44:
 297:Drivers/CMSIS/DSP/Source/FilteringFunctions/arm_biquad_cascade_df1_32x64_q31.c **** 
 298:Drivers/CMSIS/DSP/Source/FilteringFunctions/arm_biquad_cascade_df1_32x64_q31.c ****       /* The result is converted to 1.31 */
 299:Drivers/CMSIS/DSP/Source/FilteringFunctions/arm_biquad_cascade_df1_32x64_q31.c ****       /* Store the output in the destination buffer. */
 300:Drivers/CMSIS/DSP/Source/FilteringFunctions/arm_biquad_cascade_df1_32x64_q31.c ****       *(pOut + 1U) = acc_h;
 393              		.loc 1 300 7 is_stmt 1 view .LVU113
 394              		.loc 1 300 20 is_stmt 0 view .LVU114
 395 01fa 059C     		ldr	r4, [sp, #20]
 396 01fc 6060     		str	r0, [r4, #4]
 397              	.LVL45:
 301:Drivers/CMSIS/DSP/Source/FilteringFunctions/arm_biquad_cascade_df1_32x64_q31.c **** 
 302:Drivers/CMSIS/DSP/Source/FilteringFunctions/arm_biquad_cascade_df1_32x64_q31.c ****       /* acc =  b0 * x[n] + b1 * x[n-1] + b2 * x[n-2] + a1 * y[n-1] + a2 * y[n-2] */
 303:Drivers/CMSIS/DSP/Source/FilteringFunctions/arm_biquad_cascade_df1_32x64_q31.c **** 
 304:Drivers/CMSIS/DSP/Source/FilteringFunctions/arm_biquad_cascade_df1_32x64_q31.c ****       /* acc =  b0 * x[n] */
 305:Drivers/CMSIS/DSP/Source/FilteringFunctions/arm_biquad_cascade_df1_32x64_q31.c ****       acc = (q63_t) Xn1 *b0;
 398              		.loc 1 305 7 is_stmt 1 view .LVU115
 399              		.loc 1 305 13 is_stmt 0 view .LVU116
 400 01fe 4FEAE67E 		asr	lr, r6, #31
 401              		.loc 1 305 11 view .LVU117
 402 0202 049C     		ldr	r4, [sp, #16]
 403 0204 04FB0EF5 		mul	r5, r4, lr
 404 0208 0A98     		ldr	r0, [sp, #40]
 405              	.LVL46:
 406              		.loc 1 305 11 view .LVU118
 407 020a 06FB0055 		mla	r5, r6, r0, r5
 408 020e A4FB06A0 		umull	r10, r0, r4, r6
 409              	.LVL47:
 410              		.loc 1 305 11 view .LVU119
 411 0212 5146     		mov	r1, r10
 412              	.LVL48:
 413              		.loc 1 305 11 view .LVU120
 414 0214 0544     		add	r5, r5, r0
 415              	.LVL49:
 306:Drivers/CMSIS/DSP/Source/FilteringFunctions/arm_biquad_cascade_df1_32x64_q31.c **** 
 307:Drivers/CMSIS/DSP/Source/FilteringFunctions/arm_biquad_cascade_df1_32x64_q31.c ****       /* acc +=  b1 * x[n-1] */
 308:Drivers/CMSIS/DSP/Source/FilteringFunctions/arm_biquad_cascade_df1_32x64_q31.c ****       acc += (q63_t) Xn2 *b1;
 416              		.loc 1 308 7 is_stmt 1 view .LVU121
 417              		.loc 1 308 26 is_stmt 0 view .LVU122
 418 0216 109C     		ldr	r4, [sp, #64]
 419 0218 0298     		ldr	r0, [sp, #8]
 420 021a 00FB04FA 		mul	r10, r0, r4
 421 021e 0B9C     		ldr	r4, [sp, #44]
 422 0220 119F     		ldr	r7, [sp, #68]
 423 0222 07FB04AA 		mla	r10, r7, r4, r10
 424 0226 A0FB0704 		umull	r0, r4, r0, r7
 425 022a 5444     		add	r4, r4, r10
 426              		.loc 1 308 11 view .LVU123
 427 022c 4018     		adds	r0, r0, r1
 428 022e 45EB0404 		adc	r4, r5, r4
ARM GAS  /var/folders/n6/c271nzx11xl4r4_m7sqjlt0m0000gn/T//ccsecID7.s 			page 24


 429              	.LVL50:
 309:Drivers/CMSIS/DSP/Source/FilteringFunctions/arm_biquad_cascade_df1_32x64_q31.c **** 
 310:Drivers/CMSIS/DSP/Source/FilteringFunctions/arm_biquad_cascade_df1_32x64_q31.c ****       /* acc +=  b[2] * x[n-2] */
 311:Drivers/CMSIS/DSP/Source/FilteringFunctions/arm_biquad_cascade_df1_32x64_q31.c ****       acc += (q63_t) Xn *b2;
 430              		.loc 1 311 7 is_stmt 1 view .LVU124
 431              		.loc 1 311 25 is_stmt 0 view .LVU125
 432 0232 0999     		ldr	r1, [sp, #36]
 433 0234 01FB02FA 		mul	r10, r1, r2
 434 0238 0F9A     		ldr	r2, [sp, #60]
 435 023a 039D     		ldr	r5, [sp, #12]
 436 023c 05FB02AA 		mla	r10, r5, r2, r10
 437 0240 A1FB0551 		umull	r5, r1, r1, r5
 438 0244 5144     		add	r1, r1, r10
 439              		.loc 1 311 11 view .LVU126
 440 0246 2D18     		adds	r5, r5, r0
 441 0248 41EB0401 		adc	r1, r1, r4
 442              	.LVL51:
 312:Drivers/CMSIS/DSP/Source/FilteringFunctions/arm_biquad_cascade_df1_32x64_q31.c **** 
 313:Drivers/CMSIS/DSP/Source/FilteringFunctions/arm_biquad_cascade_df1_32x64_q31.c ****       /* acc +=  a1 * y[n-1] */
 314:Drivers/CMSIS/DSP/Source/FilteringFunctions/arm_biquad_cascade_df1_32x64_q31.c ****       acc += mult32x64(Yn1, a1);
 443              		.loc 1 314 7 is_stmt 1 view .LVU127
 444              	.LBB30:
 445              	.LBI30:
 554:Drivers/CMSIS/DSP/Include/arm_math.h ****       q63_t x,
 446              		.loc 2 554 38 view .LVU128
 447              	.LBB31:
 558:Drivers/CMSIS/DSP/Include/arm_math.h ****             (((q63_t)(x >> 32) * y)));
 448              		.loc 2 558 5 view .LVU129
 558:Drivers/CMSIS/DSP/Include/arm_math.h ****             (((q63_t)(x >> 32) * y)));
 449              		.loc 2 558 47 is_stmt 0 view .LVU130
 450 024c 0D9A     		ldr	r2, [sp, #52]
 451 024e A2FB0C0A 		umull	r0, r10, r2, ip
 452 0252 02FB03AA 		mla	r10, r2, r3, r10
 453              		.loc 2 559 25 view .LVU131
 454 0256 009A     		ldr	r2, [sp]
 455 0258 D217     		asrs	r2, r2, #31
 456              		.loc 2 559 32 view .LVU132
 457 025a 0098     		ldr	r0, [sp]
 458 025c 00FB03F0 		mul	r0, r0, r3
 459 0260 0992     		str	r2, [sp, #36]
 460              	.LVL52:
 461              		.loc 2 559 32 view .LVU133
 462 0262 0CFB0200 		mla	r0, ip, r2, r0
 463 0266 0246     		mov	r2, r0
 464 0268 0098     		ldr	r0, [sp]
 465 026a A0FB0C04 		umull	r0, r4, r0, ip
 466 026e 1444     		add	r4, r4, r2
 558:Drivers/CMSIS/DSP/Include/arm_math.h ****             (((q63_t)(x >> 32) * y)));
 467              		.loc 2 558 59 view .LVU134
 468 0270 1AEB0000 		adds	r0, r10, r0
 469 0274 44EBEA74 		adc	r4, r4, r10, asr #31
 470              	.LVL53:
 558:Drivers/CMSIS/DSP/Include/arm_math.h ****             (((q63_t)(x >> 32) * y)));
 471              		.loc 2 558 59 view .LVU135
 472              	.LBE31:
 473              	.LBE30:
 474              		.loc 1 314 11 discriminator 1 view .LVU136
ARM GAS  /var/folders/n6/c271nzx11xl4r4_m7sqjlt0m0000gn/T//ccsecID7.s 			page 25


 475 0278 2818     		adds	r0, r5, r0
 476 027a 41EB0404 		adc	r4, r1, r4
 477              	.LVL54:
 315:Drivers/CMSIS/DSP/Source/FilteringFunctions/arm_biquad_cascade_df1_32x64_q31.c **** 
 316:Drivers/CMSIS/DSP/Source/FilteringFunctions/arm_biquad_cascade_df1_32x64_q31.c ****       /* acc +=  a2 * y[n-2] */
 317:Drivers/CMSIS/DSP/Source/FilteringFunctions/arm_biquad_cascade_df1_32x64_q31.c ****       acc += mult32x64(Yn2, a2);
 478              		.loc 1 317 7 is_stmt 1 view .LVU137
 479              	.LBB32:
 480              	.LBI32:
 554:Drivers/CMSIS/DSP/Include/arm_math.h ****       q63_t x,
 481              		.loc 2 554 38 view .LVU138
 482              	.LBB33:
 558:Drivers/CMSIS/DSP/Include/arm_math.h ****             (((q63_t)(x >> 32) * y)));
 483              		.loc 2 558 5 view .LVU139
 558:Drivers/CMSIS/DSP/Include/arm_math.h ****             (((q63_t)(x >> 32) * y)));
 484              		.loc 2 558 47 is_stmt 0 view .LVU140
 485 027e 019A     		ldr	r2, [sp, #4]
 486 0280 A9FB0251 		umull	r5, r1, r9, r2
 487 0284 079D     		ldr	r5, [sp, #28]
 488 0286 09FB0519 		mla	r9, r9, r5, r1
 489              	.LVL55:
 490              		.loc 2 559 32 view .LVU141
 491 028a 0BFB05FA 		mul	r10, fp, r5
 492 028e 1299     		ldr	r1, [sp, #72]
 493 0290 02FB01AA 		mla	r10, r2, r1, r10
 494 0294 ABFB0215 		umull	r1, r5, fp, r2
 495 0298 5544     		add	r5, r5, r10
 558:Drivers/CMSIS/DSP/Include/arm_math.h ****             (((q63_t)(x >> 32) * y)));
 496              		.loc 2 558 59 view .LVU142
 497 029a 19EB0101 		adds	r1, r9, r1
 498 029e 45EBE975 		adc	r5, r5, r9, asr #31
 499              	.LVL56:
 558:Drivers/CMSIS/DSP/Include/arm_math.h ****             (((q63_t)(x >> 32) * y)));
 500              		.loc 2 558 59 view .LVU143
 501              	.LBE33:
 502              	.LBE32:
 503              		.loc 1 317 11 discriminator 1 view .LVU144
 504 02a2 4118     		adds	r1, r0, r1
 505 02a4 44EB0505 		adc	r5, r4, r5
 506              	.LVL57:
 318:Drivers/CMSIS/DSP/Source/FilteringFunctions/arm_biquad_cascade_df1_32x64_q31.c **** 
 319:Drivers/CMSIS/DSP/Source/FilteringFunctions/arm_biquad_cascade_df1_32x64_q31.c ****       /* The result is converted to 1.63, Yn2 variable is reused  */
 320:Drivers/CMSIS/DSP/Source/FilteringFunctions/arm_biquad_cascade_df1_32x64_q31.c ****       Yn2 = acc << shift;
 507              		.loc 1 320 7 is_stmt 1 view .LVU145
 508              		.loc 1 320 11 is_stmt 0 view .LVU146
 509 02a8 A8F12004 		sub	r4, r8, #32
 510 02ac C8F12000 		rsb	r0, r8, #32
 511 02b0 05FA08FB 		lsl	fp, r5, r8
 512 02b4 01FA04F4 		lsl	r4, r1, r4
 513 02b8 4BEA040B 		orr	fp, fp, r4
 514 02bc 21FA00F0 		lsr	r0, r1, r0
 515 02c0 4BEA000B 		orr	fp, fp, r0
 516 02c4 01FA08F9 		lsl	r9, r1, r8
 517              	.LVL58:
 321:Drivers/CMSIS/DSP/Source/FilteringFunctions/arm_biquad_cascade_df1_32x64_q31.c **** 
 322:Drivers/CMSIS/DSP/Source/FilteringFunctions/arm_biquad_cascade_df1_32x64_q31.c ****       /* Calc lower part of acc */
 323:Drivers/CMSIS/DSP/Source/FilteringFunctions/arm_biquad_cascade_df1_32x64_q31.c ****       acc_l = acc & 0xffffffff;
ARM GAS  /var/folders/n6/c271nzx11xl4r4_m7sqjlt0m0000gn/T//ccsecID7.s 			page 26


 518              		.loc 1 323 7 is_stmt 1 view .LVU147
 324:Drivers/CMSIS/DSP/Source/FilteringFunctions/arm_biquad_cascade_df1_32x64_q31.c **** 
 325:Drivers/CMSIS/DSP/Source/FilteringFunctions/arm_biquad_cascade_df1_32x64_q31.c ****       /* Calc upper part of acc */
 326:Drivers/CMSIS/DSP/Source/FilteringFunctions/arm_biquad_cascade_df1_32x64_q31.c ****       acc_h = (acc >> 32) & 0xffffffff;
 519              		.loc 1 326 7 view .LVU148
 327:Drivers/CMSIS/DSP/Source/FilteringFunctions/arm_biquad_cascade_df1_32x64_q31.c **** 
 328:Drivers/CMSIS/DSP/Source/FilteringFunctions/arm_biquad_cascade_df1_32x64_q31.c ****       /* Apply shift for lower part of acc and upper part of acc */
 329:Drivers/CMSIS/DSP/Source/FilteringFunctions/arm_biquad_cascade_df1_32x64_q31.c ****       acc_h = (uint32_t) acc_l >> lShift | acc_h << uShift;
 520              		.loc 1 329 7 view .LVU149
 521              		.loc 1 329 32 is_stmt 0 view .LVU150
 522 02c8 0898     		ldr	r0, [sp, #32]
 523 02ca C140     		lsrs	r1, r1, r0
 524              	.LVL59:
 525              		.loc 1 329 50 view .LVU151
 526 02cc 05FA08F5 		lsl	r5, r5, r8
 527              	.LVL60:
 528              		.loc 1 329 13 view .LVU152
 529 02d0 2943     		orrs	r1, r1, r5
 530              	.LVL61:
 330:Drivers/CMSIS/DSP/Source/FilteringFunctions/arm_biquad_cascade_df1_32x64_q31.c **** 
 331:Drivers/CMSIS/DSP/Source/FilteringFunctions/arm_biquad_cascade_df1_32x64_q31.c ****       /* Store the output in the destination buffer in 1.31 format. */
 332:Drivers/CMSIS/DSP/Source/FilteringFunctions/arm_biquad_cascade_df1_32x64_q31.c ****       *(pOut + 2U) = acc_h;
 531              		.loc 1 332 7 is_stmt 1 view .LVU153
 532              		.loc 1 332 20 is_stmt 0 view .LVU154
 533 02d2 0598     		ldr	r0, [sp, #20]
 534 02d4 8160     		str	r1, [r0, #8]
 333:Drivers/CMSIS/DSP/Source/FilteringFunctions/arm_biquad_cascade_df1_32x64_q31.c **** 
 334:Drivers/CMSIS/DSP/Source/FilteringFunctions/arm_biquad_cascade_df1_32x64_q31.c ****       /* Read the fourth input into Xn, to reuse the value */
 335:Drivers/CMSIS/DSP/Source/FilteringFunctions/arm_biquad_cascade_df1_32x64_q31.c ****       Xn = *pIn++;
 535              		.loc 1 335 7 is_stmt 1 view .LVU155
 536              	.LVL62:
 537              		.loc 1 335 10 is_stmt 0 view .LVU156
 538 02d6 0699     		ldr	r1, [sp, #24]
 539              	.LVL63:
 540              		.loc 1 335 10 view .LVU157
 541 02d8 C868     		ldr	r0, [r1, #12]
 542              	.LVL64:
 336:Drivers/CMSIS/DSP/Source/FilteringFunctions/arm_biquad_cascade_df1_32x64_q31.c **** 
 337:Drivers/CMSIS/DSP/Source/FilteringFunctions/arm_biquad_cascade_df1_32x64_q31.c ****       /* acc =  b0 * x[n] + b1 * x[n-1] + b2 * x[n-2] + a1 * y[n-1] + a2 * y[n-2] */
 338:Drivers/CMSIS/DSP/Source/FilteringFunctions/arm_biquad_cascade_df1_32x64_q31.c ****       /* acc =  b0 * x[n] */
 339:Drivers/CMSIS/DSP/Source/FilteringFunctions/arm_biquad_cascade_df1_32x64_q31.c ****       acc = (q63_t) Xn *b0;
 543              		.loc 1 339 7 is_stmt 1 view .LVU158
 544              		.loc 1 339 13 is_stmt 0 view .LVU159
 545 02da C117     		asrs	r1, r0, #31
 546              		.loc 1 339 11 view .LVU160
 547 02dc 049C     		ldr	r4, [sp, #16]
 548 02de 04FB01F1 		mul	r1, r4, r1
 549 02e2 0A9D     		ldr	r5, [sp, #40]
 550 02e4 00FB0511 		mla	r1, r0, r5, r1
 551 02e8 A4FB0054 		umull	r5, r4, r4, r0
 552 02ec 2144     		add	r1, r1, r4
 553              	.LVL65:
 340:Drivers/CMSIS/DSP/Source/FilteringFunctions/arm_biquad_cascade_df1_32x64_q31.c **** 
 341:Drivers/CMSIS/DSP/Source/FilteringFunctions/arm_biquad_cascade_df1_32x64_q31.c ****       /* acc +=  b1 * x[n-1] */
 342:Drivers/CMSIS/DSP/Source/FilteringFunctions/arm_biquad_cascade_df1_32x64_q31.c ****       acc += (q63_t) Xn1 *b1;
 554              		.loc 1 342 7 is_stmt 1 view .LVU161
 555              		.loc 1 342 26 is_stmt 0 view .LVU162
ARM GAS  /var/folders/n6/c271nzx11xl4r4_m7sqjlt0m0000gn/T//ccsecID7.s 			page 27


 556 02ee 029C     		ldr	r4, [sp, #8]
 557 02f0 04FB0EFE 		mul	lr, r4, lr
 558 02f4 0B9A     		ldr	r2, [sp, #44]
 559 02f6 06FB02EE 		mla	lr, r6, r2, lr
 560 02fa A4FB064A 		umull	r4, r10, r4, r6
 561 02fe F244     		add	r10, r10, lr
 562              		.loc 1 342 11 view .LVU163
 563 0300 6419     		adds	r4, r4, r5
 564 0302 41EB0A0A 		adc	r10, r1, r10
 565              	.LVL66:
 343:Drivers/CMSIS/DSP/Source/FilteringFunctions/arm_biquad_cascade_df1_32x64_q31.c **** 
 344:Drivers/CMSIS/DSP/Source/FilteringFunctions/arm_biquad_cascade_df1_32x64_q31.c ****       /* acc +=  b[2] * x[n-2] */
 345:Drivers/CMSIS/DSP/Source/FilteringFunctions/arm_biquad_cascade_df1_32x64_q31.c ****       acc += (q63_t) Xn2 *b2;
 566              		.loc 1 345 7 is_stmt 1 view .LVU164
 567              		.loc 1 345 26 is_stmt 0 view .LVU165
 568 0306 109D     		ldr	r5, [sp, #64]
 569 0308 0399     		ldr	r1, [sp, #12]
 570 030a 01FB05F5 		mul	r5, r1, r5
 571 030e 0C9A     		ldr	r2, [sp, #48]
 572 0310 07FB0255 		mla	r5, r7, r2, r5
 573 0314 A1FB0712 		umull	r1, r2, r1, r7
 574 0318 2A44     		add	r2, r2, r5
 575              		.loc 1 345 11 view .LVU166
 576 031a 0919     		adds	r1, r1, r4
 577 031c 42EB0A02 		adc	r2, r2, r10
 578              	.LVL67:
 346:Drivers/CMSIS/DSP/Source/FilteringFunctions/arm_biquad_cascade_df1_32x64_q31.c **** 
 347:Drivers/CMSIS/DSP/Source/FilteringFunctions/arm_biquad_cascade_df1_32x64_q31.c ****       /* acc +=  a1 * y[n-1] */
 348:Drivers/CMSIS/DSP/Source/FilteringFunctions/arm_biquad_cascade_df1_32x64_q31.c ****       acc += mult32x64(Yn2, a1);
 579              		.loc 1 348 7 is_stmt 1 view .LVU167
 580              	.LBB34:
 581              	.LBI34:
 554:Drivers/CMSIS/DSP/Include/arm_math.h ****       q63_t x,
 582              		.loc 2 554 38 view .LVU168
 583              	.LBB35:
 558:Drivers/CMSIS/DSP/Include/arm_math.h ****             (((q63_t)(x >> 32) * y)));
 584              		.loc 2 558 5 view .LVU169
 558:Drivers/CMSIS/DSP/Include/arm_math.h ****             (((q63_t)(x >> 32) * y)));
 585              		.loc 2 558 47 is_stmt 0 view .LVU170
 586 0320 A9FB0C4E 		umull	r4, lr, r9, ip
 587 0324 09FB03EE 		mla	lr, r9, r3, lr
 588              		.loc 2 559 25 view .LVU171
 589 0328 4FEAEB75 		asr	r5, fp, #31
 590              		.loc 2 559 32 view .LVU172
 591 032c 0BFB03F4 		mul	r4, fp, r3
 592 0330 0CFB0544 		mla	r4, ip, r5, r4
 593 0334 ABFB0C5A 		umull	r5, r10, fp, ip
 594 0338 A244     		add	r10, r10, r4
 558:Drivers/CMSIS/DSP/Include/arm_math.h ****             (((q63_t)(x >> 32) * y)));
 595              		.loc 2 558 59 view .LVU173
 596 033a 1EEB0505 		adds	r5, lr, r5
 597 033e 4AEBEE7A 		adc	r10, r10, lr, asr #31
 598              	.LVL68:
 558:Drivers/CMSIS/DSP/Include/arm_math.h ****             (((q63_t)(x >> 32) * y)));
 599              		.loc 2 558 59 view .LVU174
 600              	.LBE35:
 601              	.LBE34:
ARM GAS  /var/folders/n6/c271nzx11xl4r4_m7sqjlt0m0000gn/T//ccsecID7.s 			page 28


 602              		.loc 1 348 11 discriminator 1 view .LVU175
 603 0342 4D19     		adds	r5, r1, r5
 604 0344 42EB0A02 		adc	r2, r2, r10
 605              	.LVL69:
 349:Drivers/CMSIS/DSP/Source/FilteringFunctions/arm_biquad_cascade_df1_32x64_q31.c **** 
 350:Drivers/CMSIS/DSP/Source/FilteringFunctions/arm_biquad_cascade_df1_32x64_q31.c ****       /* acc +=  a2 * y[n-2] */
 351:Drivers/CMSIS/DSP/Source/FilteringFunctions/arm_biquad_cascade_df1_32x64_q31.c ****       acc += mult32x64(Yn1, a2);
 606              		.loc 1 351 7 is_stmt 1 view .LVU176
 607              	.LBB36:
 608              	.LBI36:
 554:Drivers/CMSIS/DSP/Include/arm_math.h ****       q63_t x,
 609              		.loc 2 554 38 view .LVU177
 610              	.LBB37:
 558:Drivers/CMSIS/DSP/Include/arm_math.h ****             (((q63_t)(x >> 32) * y)));
 611              		.loc 2 558 5 view .LVU178
 558:Drivers/CMSIS/DSP/Include/arm_math.h ****             (((q63_t)(x >> 32) * y)));
 612              		.loc 2 558 47 is_stmt 0 view .LVU179
 613 0348 0D9F     		ldr	r7, [sp, #52]
 614 034a 3C46     		mov	r4, r7
 615 034c 019B     		ldr	r3, [sp, #4]
 616 034e A4FB0341 		umull	r4, r1, r4, r3
 617 0352 079B     		ldr	r3, [sp, #28]
 618 0354 07FB0311 		mla	r1, r7, r3, r1
 619              		.loc 2 559 32 view .LVU180
 620 0358 009C     		ldr	r4, [sp]
 621 035a 04FB03F4 		mul	r4, r4, r3
 622 035e 099B     		ldr	r3, [sp, #36]
 623 0360 019F     		ldr	r7, [sp, #4]
 624 0362 07FB034A 		mla	r10, r7, r3, r4
 625 0366 009C     		ldr	r4, [sp]
 626 0368 A4FB074E 		umull	r4, lr, r4, r7
 627 036c D644     		add	lr, lr, r10
 558:Drivers/CMSIS/DSP/Include/arm_math.h ****             (((q63_t)(x >> 32) * y)));
 628              		.loc 2 558 59 view .LVU181
 629 036e 6418     		adds	r4, r4, r1
 630 0370 4EEBE17E 		adc	lr, lr, r1, asr #31
 631              	.LVL70:
 558:Drivers/CMSIS/DSP/Include/arm_math.h ****             (((q63_t)(x >> 32) * y)));
 632              		.loc 2 558 59 view .LVU182
 633              	.LBE37:
 634              	.LBE36:
 635              		.loc 1 351 11 discriminator 1 view .LVU183
 636 0374 6419     		adds	r4, r4, r5
 637 0376 4EEB0202 		adc	r2, lr, r2
 638              	.LVL71:
 352:Drivers/CMSIS/DSP/Source/FilteringFunctions/arm_biquad_cascade_df1_32x64_q31.c **** 
 353:Drivers/CMSIS/DSP/Source/FilteringFunctions/arm_biquad_cascade_df1_32x64_q31.c ****       /* The result is converted to 1.63, Yn1 variable is reused  */
 354:Drivers/CMSIS/DSP/Source/FilteringFunctions/arm_biquad_cascade_df1_32x64_q31.c ****       Yn1 = acc << shift;
 639              		.loc 1 354 7 is_stmt 1 view .LVU184
 640              		.loc 1 354 11 is_stmt 0 view .LVU185
 641 037a A8F12005 		sub	r5, r8, #32
 642 037e C8F12001 		rsb	r1, r8, #32
 643 0382 02FA08FE 		lsl	lr, r2, r8
 644 0386 04FA05F5 		lsl	r5, r4, r5
 645 038a 4EEA050E 		orr	lr, lr, r5
 646 038e 24FA01F1 		lsr	r1, r4, r1
 647 0392 4EEA010E 		orr	lr, lr, r1
ARM GAS  /var/folders/n6/c271nzx11xl4r4_m7sqjlt0m0000gn/T//ccsecID7.s 			page 29


 648 0396 04FA08F7 		lsl	r7, r4, r8
 649 039a 0097     		str	r7, [sp]
 650              	.LVL72:
 355:Drivers/CMSIS/DSP/Source/FilteringFunctions/arm_biquad_cascade_df1_32x64_q31.c **** 
 356:Drivers/CMSIS/DSP/Source/FilteringFunctions/arm_biquad_cascade_df1_32x64_q31.c ****       /* Calc lower part of acc */
 357:Drivers/CMSIS/DSP/Source/FilteringFunctions/arm_biquad_cascade_df1_32x64_q31.c ****       acc_l = acc & 0xffffffff;
 651              		.loc 1 357 7 is_stmt 1 view .LVU186
 358:Drivers/CMSIS/DSP/Source/FilteringFunctions/arm_biquad_cascade_df1_32x64_q31.c **** 
 359:Drivers/CMSIS/DSP/Source/FilteringFunctions/arm_biquad_cascade_df1_32x64_q31.c ****       /* Calc upper part of acc */
 360:Drivers/CMSIS/DSP/Source/FilteringFunctions/arm_biquad_cascade_df1_32x64_q31.c ****       acc_h = (acc >> 32) & 0xffffffff;
 652              		.loc 1 360 7 view .LVU187
 361:Drivers/CMSIS/DSP/Source/FilteringFunctions/arm_biquad_cascade_df1_32x64_q31.c **** 
 362:Drivers/CMSIS/DSP/Source/FilteringFunctions/arm_biquad_cascade_df1_32x64_q31.c ****       /* Apply shift for lower part of acc and upper part of acc */
 363:Drivers/CMSIS/DSP/Source/FilteringFunctions/arm_biquad_cascade_df1_32x64_q31.c ****       acc_h = (uint32_t) acc_l >> lShift | acc_h << uShift;
 653              		.loc 1 363 7 view .LVU188
 654              		.loc 1 363 32 is_stmt 0 view .LVU189
 655 039c 089D     		ldr	r5, [sp, #32]
 656 039e EC40     		lsrs	r4, r4, r5
 657              	.LVL73:
 658              		.loc 1 363 50 view .LVU190
 659 03a0 02FA08F2 		lsl	r2, r2, r8
 660              	.LVL74:
 661              		.loc 1 363 13 view .LVU191
 662 03a4 1443     		orrs	r4, r4, r2
 663              	.LVL75:
 364:Drivers/CMSIS/DSP/Source/FilteringFunctions/arm_biquad_cascade_df1_32x64_q31.c **** 
 365:Drivers/CMSIS/DSP/Source/FilteringFunctions/arm_biquad_cascade_df1_32x64_q31.c ****       /* Store the output in the destination buffer in 1.31 format. */
 366:Drivers/CMSIS/DSP/Source/FilteringFunctions/arm_biquad_cascade_df1_32x64_q31.c ****       *(pOut + 3U) = acc_h;
 664              		.loc 1 366 7 is_stmt 1 view .LVU192
 665              		.loc 1 366 20 is_stmt 0 view .LVU193
 666 03a6 059B     		ldr	r3, [sp, #20]
 667 03a8 DC60     		str	r4, [r3, #12]
 367:Drivers/CMSIS/DSP/Source/FilteringFunctions/arm_biquad_cascade_df1_32x64_q31.c **** 
 368:Drivers/CMSIS/DSP/Source/FilteringFunctions/arm_biquad_cascade_df1_32x64_q31.c ****       /* Every time after the output is computed state should be updated. */
 369:Drivers/CMSIS/DSP/Source/FilteringFunctions/arm_biquad_cascade_df1_32x64_q31.c ****       /* The states should be updated as:  */
 370:Drivers/CMSIS/DSP/Source/FilteringFunctions/arm_biquad_cascade_df1_32x64_q31.c ****       /* Xn2 = Xn1    */
 371:Drivers/CMSIS/DSP/Source/FilteringFunctions/arm_biquad_cascade_df1_32x64_q31.c ****       /* Xn1 = Xn     */
 372:Drivers/CMSIS/DSP/Source/FilteringFunctions/arm_biquad_cascade_df1_32x64_q31.c ****       /* Yn2 = Yn1    */
 373:Drivers/CMSIS/DSP/Source/FilteringFunctions/arm_biquad_cascade_df1_32x64_q31.c ****       /* Yn1 = acc    */
 374:Drivers/CMSIS/DSP/Source/FilteringFunctions/arm_biquad_cascade_df1_32x64_q31.c ****       Xn2 = Xn1;
 668              		.loc 1 374 7 is_stmt 1 view .LVU194
 669              	.LVL76:
 375:Drivers/CMSIS/DSP/Source/FilteringFunctions/arm_biquad_cascade_df1_32x64_q31.c ****       Xn1 = Xn;
 670              		.loc 1 375 7 view .LVU195
 376:Drivers/CMSIS/DSP/Source/FilteringFunctions/arm_biquad_cascade_df1_32x64_q31.c **** 
 377:Drivers/CMSIS/DSP/Source/FilteringFunctions/arm_biquad_cascade_df1_32x64_q31.c ****       /* update output pointer */
 378:Drivers/CMSIS/DSP/Source/FilteringFunctions/arm_biquad_cascade_df1_32x64_q31.c ****       pOut += 4U;
 671              		.loc 1 378 7 view .LVU196
 672              		.loc 1 378 12 is_stmt 0 view .LVU197
 673 03aa 1033     		adds	r3, r3, #16
 674 03ac 0593     		str	r3, [sp, #20]
 675              	.LVL77:
 379:Drivers/CMSIS/DSP/Source/FilteringFunctions/arm_biquad_cascade_df1_32x64_q31.c **** 
 380:Drivers/CMSIS/DSP/Source/FilteringFunctions/arm_biquad_cascade_df1_32x64_q31.c ****       /* decrement the loop counter */
 381:Drivers/CMSIS/DSP/Source/FilteringFunctions/arm_biquad_cascade_df1_32x64_q31.c ****       sample--;
 676              		.loc 1 381 7 is_stmt 1 view .LVU198
 677              		.loc 1 381 13 is_stmt 0 view .LVU199
ARM GAS  /var/folders/n6/c271nzx11xl4r4_m7sqjlt0m0000gn/T//ccsecID7.s 			page 30


 678 03ae 0E9B     		ldr	r3, [sp, #56]
 679              	.LVL78:
 680              		.loc 1 381 13 view .LVU200
 681 03b0 013B     		subs	r3, r3, #1
 682 03b2 0E93     		str	r3, [sp, #56]
 683              	.LVL79:
 335:Drivers/CMSIS/DSP/Source/FilteringFunctions/arm_biquad_cascade_df1_32x64_q31.c **** 
 684              		.loc 1 335 16 view .LVU201
 685 03b4 0699     		ldr	r1, [sp, #24]
 686 03b6 01F11003 		add	r3, r1, #16
 687              	.LVL80:
 335:Drivers/CMSIS/DSP/Source/FilteringFunctions/arm_biquad_cascade_df1_32x64_q31.c **** 
 688              		.loc 1 335 16 view .LVU202
 689 03ba 0693     		str	r3, [sp, #24]
 690              	.LVL81:
 691              	.L2:
 226:Drivers/CMSIS/DSP/Source/FilteringFunctions/arm_biquad_cascade_df1_32x64_q31.c ****     {
 692              		.loc 1 226 19 is_stmt 1 view .LVU203
 693 03bc 0E9B     		ldr	r3, [sp, #56]
 694 03be 002B     		cmp	r3, #0
 695 03c0 7FF433AE 		bne	.L3
 382:Drivers/CMSIS/DSP/Source/FilteringFunctions/arm_biquad_cascade_df1_32x64_q31.c ****     }
 383:Drivers/CMSIS/DSP/Source/FilteringFunctions/arm_biquad_cascade_df1_32x64_q31.c **** 
 384:Drivers/CMSIS/DSP/Source/FilteringFunctions/arm_biquad_cascade_df1_32x64_q31.c ****     /* If the blockSize is not a multiple of 4, compute any remaining output samples here.
 385:Drivers/CMSIS/DSP/Source/FilteringFunctions/arm_biquad_cascade_df1_32x64_q31.c ****      ** No loop unrolling is used. */
 386:Drivers/CMSIS/DSP/Source/FilteringFunctions/arm_biquad_cascade_df1_32x64_q31.c ****     sample = (blockSize & 0x3U);
 696              		.loc 1 386 12 is_stmt 0 view .LVU204
 697 03c4 179A     		ldr	r2, [sp, #92]
 698 03c6 189F     		ldr	r7, [sp, #96]
 699 03c8 DA46     		mov	r10, fp
 700 03ca 8346     		mov	fp, r0
 701              	.LVL82:
 702              		.loc 1 386 5 is_stmt 1 view .LVU205
 703              		.loc 1 386 12 is_stmt 0 view .LVU206
 704 03cc 149B     		ldr	r3, [sp, #80]
 705 03ce 03F00303 		and	r3, r3, #3
 706 03d2 0193     		str	r3, [sp, #4]
 707              	.LVL83:
 387:Drivers/CMSIS/DSP/Source/FilteringFunctions/arm_biquad_cascade_df1_32x64_q31.c **** 
 388:Drivers/CMSIS/DSP/Source/FilteringFunctions/arm_biquad_cascade_df1_32x64_q31.c ****     while (sample > 0U)
 708              		.loc 1 388 5 is_stmt 1 view .LVU207
 709 03d4 0792     		str	r2, [sp, #28]
 710 03d6 0997     		str	r7, [sp, #36]
 711 03d8 1698     		ldr	r0, [sp, #88]
 712              	.LVL84:
 713              		.loc 1 388 5 is_stmt 0 view .LVU208
 714 03da 069B     		ldr	r3, [sp, #24]
 715              	.LVL85:
 716              		.loc 1 388 5 view .LVU209
 717 03dc CDF81890 		str	r9, [sp, #24]
 718              	.LVL86:
 719              		.loc 1 388 5 view .LVU210
 720 03e0 DDF81090 		ldr	r9, [sp, #16]
 721              	.LVL87:
 722              		.loc 1 388 11 view .LVU211
 723 03e4 76E0     		b	.L4
 724              	.LVL88:
ARM GAS  /var/folders/n6/c271nzx11xl4r4_m7sqjlt0m0000gn/T//ccsecID7.s 			page 31


 725              	.L5:
 389:Drivers/CMSIS/DSP/Source/FilteringFunctions/arm_biquad_cascade_df1_32x64_q31.c ****     {
 390:Drivers/CMSIS/DSP/Source/FilteringFunctions/arm_biquad_cascade_df1_32x64_q31.c ****       /* Read the input */
 391:Drivers/CMSIS/DSP/Source/FilteringFunctions/arm_biquad_cascade_df1_32x64_q31.c ****       Xn = *pIn++;
 726              		.loc 1 391 7 is_stmt 1 view .LVU212
 727              		.loc 1 391 10 is_stmt 0 view .LVU213
 728 03e6 53F8044B 		ldr	r4, [r3], #4
 729              	.LVL89:
 730              		.loc 1 391 10 view .LVU214
 731 03ea 0493     		str	r3, [sp, #16]
 732              	.LVL90:
 392:Drivers/CMSIS/DSP/Source/FilteringFunctions/arm_biquad_cascade_df1_32x64_q31.c **** 
 393:Drivers/CMSIS/DSP/Source/FilteringFunctions/arm_biquad_cascade_df1_32x64_q31.c ****       /* acc =  b0 * x[n] + b1 * x[n-1] + b2 * x[n-2] + a1 * y[n-1] + a2 * y[n-2] */
 394:Drivers/CMSIS/DSP/Source/FilteringFunctions/arm_biquad_cascade_df1_32x64_q31.c **** 
 395:Drivers/CMSIS/DSP/Source/FilteringFunctions/arm_biquad_cascade_df1_32x64_q31.c ****       /* acc =  b0 * x[n] */
 396:Drivers/CMSIS/DSP/Source/FilteringFunctions/arm_biquad_cascade_df1_32x64_q31.c ****       acc = (q63_t) Xn *b0;
 733              		.loc 1 396 7 is_stmt 1 view .LVU215
 734              		.loc 1 396 13 is_stmt 0 view .LVU216
 735 03ec E217     		asrs	r2, r4, #31
 736              	.LVL91:
 737              		.loc 1 396 24 view .LVU217
 738 03ee 4FEAE973 		asr	r3, r9, #31
 739              	.LVL92:
 740              		.loc 1 396 11 view .LVU218
 741 03f2 04FB03F3 		mul	r3, r4, r3
 742 03f6 09FB0233 		mla	r3, r9, r2, r3
 743 03fa A4FB0972 		umull	r7, r2, r4, r9
 744 03fe 1344     		add	r3, r3, r2
 745              	.LVL93:
 397:Drivers/CMSIS/DSP/Source/FilteringFunctions/arm_biquad_cascade_df1_32x64_q31.c ****       /* acc +=  b1 * x[n-1] */
 398:Drivers/CMSIS/DSP/Source/FilteringFunctions/arm_biquad_cascade_df1_32x64_q31.c ****       acc += (q63_t) Xn1 *b1;
 746              		.loc 1 398 7 is_stmt 1 view .LVU219
 747              		.loc 1 398 14 is_stmt 0 view .LVU220
 748 0400 4FEAEB75 		asr	r5, fp, #31
 749              		.loc 1 398 26 view .LVU221
 750 0404 0299     		ldr	r1, [sp, #8]
 751 0406 CA17     		asrs	r2, r1, #31
 752 0408 01FB05F5 		mul	r5, r1, r5
 753 040c 0BFB0255 		mla	r5, fp, r2, r5
 754 0410 A1FB0B21 		umull	r2, r1, r1, fp
 755 0414 2944     		add	r1, r1, r5
 756              		.loc 1 398 11 view .LVU222
 757 0416 D219     		adds	r2, r2, r7
 758 0418 43EB0101 		adc	r1, r3, r1
 759              	.LVL94:
 399:Drivers/CMSIS/DSP/Source/FilteringFunctions/arm_biquad_cascade_df1_32x64_q31.c ****       /* acc +=  b[2] * x[n-2] */
 400:Drivers/CMSIS/DSP/Source/FilteringFunctions/arm_biquad_cascade_df1_32x64_q31.c ****       acc += (q63_t) Xn2 *b2;
 760              		.loc 1 400 7 is_stmt 1 view .LVU223
 761              		.loc 1 400 14 is_stmt 0 view .LVU224
 762 041c F317     		asrs	r3, r6, #31
 763              		.loc 1 400 26 view .LVU225
 764 041e 039F     		ldr	r7, [sp, #12]
 765 0420 FD17     		asrs	r5, r7, #31
 766 0422 07FB03F3 		mul	r3, r7, r3
 767 0426 06FB0533 		mla	r3, r6, r5, r3
 768 042a A7FB0665 		umull	r6, r5, r7, r6
 769              	.LVL95:
ARM GAS  /var/folders/n6/c271nzx11xl4r4_m7sqjlt0m0000gn/T//ccsecID7.s 			page 32


 770              		.loc 1 400 26 view .LVU226
 771 042e 1D44     		add	r5, r5, r3
 772              		.loc 1 400 11 view .LVU227
 773 0430 B618     		adds	r6, r6, r2
 774 0432 45EB0105 		adc	r5, r5, r1
 775              	.LVL96:
 401:Drivers/CMSIS/DSP/Source/FilteringFunctions/arm_biquad_cascade_df1_32x64_q31.c ****       /* acc +=  a1 * y[n-1] */
 402:Drivers/CMSIS/DSP/Source/FilteringFunctions/arm_biquad_cascade_df1_32x64_q31.c ****       acc += mult32x64(Yn1, a1);
 776              		.loc 1 402 7 is_stmt 1 view .LVU228
 777              	.LBB38:
 778              	.LBI38:
 554:Drivers/CMSIS/DSP/Include/arm_math.h ****       q63_t x,
 779              		.loc 2 554 38 view .LVU229
 780              	.LBB39:
 558:Drivers/CMSIS/DSP/Include/arm_math.h ****             (((q63_t)(x >> 32) * y)));
 781              		.loc 2 558 5 view .LVU230
 558:Drivers/CMSIS/DSP/Include/arm_math.h ****             (((q63_t)(x >> 32) * y)));
 782              		.loc 2 558 47 is_stmt 0 view .LVU231
 783 0436 4FEAEC73 		asr	r3, ip, #31
 784 043a 009F     		ldr	r7, [sp]
 785 043c A7FB0C21 		umull	r2, r1, r7, ip
 786 0440 07FB0311 		mla	r1, r7, r3, r1
 787              		.loc 2 559 25 view .LVU232
 788 0444 4FEAEE77 		asr	r7, lr, #31
 789              		.loc 2 559 32 view .LVU233
 790 0448 0CFB07F7 		mul	r7, ip, r7
 791 044c 0EFB0377 		mla	r7, lr, r3, r7
 792 0450 ACFB0E32 		umull	r3, r2, ip, lr
 793 0454 3A44     		add	r2, r2, r7
 558:Drivers/CMSIS/DSP/Include/arm_math.h ****             (((q63_t)(x >> 32) * y)));
 794              		.loc 2 558 59 view .LVU234
 795 0456 CB18     		adds	r3, r1, r3
 796 0458 42EBE172 		adc	r2, r2, r1, asr #31
 797              	.LVL97:
 558:Drivers/CMSIS/DSP/Include/arm_math.h ****             (((q63_t)(x >> 32) * y)));
 798              		.loc 2 558 59 view .LVU235
 799              	.LBE39:
 800              	.LBE38:
 801              		.loc 1 402 11 discriminator 1 view .LVU236
 802 045c F318     		adds	r3, r6, r3
 803 045e 45EB0202 		adc	r2, r5, r2
 804              	.LVL98:
 403:Drivers/CMSIS/DSP/Source/FilteringFunctions/arm_biquad_cascade_df1_32x64_q31.c ****       /* acc +=  a2 * y[n-2] */
 404:Drivers/CMSIS/DSP/Source/FilteringFunctions/arm_biquad_cascade_df1_32x64_q31.c ****       acc += mult32x64(Yn2, a2);
 805              		.loc 1 404 7 is_stmt 1 view .LVU237
 806              	.LBB40:
 807              	.LBI40:
 554:Drivers/CMSIS/DSP/Include/arm_math.h ****       q63_t x,
 808              		.loc 2 554 38 view .LVU238
 809              	.LBB41:
 558:Drivers/CMSIS/DSP/Include/arm_math.h ****             (((q63_t)(x >> 32) * y)));
 810              		.loc 2 558 5 view .LVU239
 558:Drivers/CMSIS/DSP/Include/arm_math.h ****             (((q63_t)(x >> 32) * y)));
 811              		.loc 2 558 47 is_stmt 0 view .LVU240
 812 0462 C517     		asrs	r5, r0, #31
 813 0464 069F     		ldr	r7, [sp, #24]
 814 0466 A7FB0061 		umull	r6, r1, r7, r0
ARM GAS  /var/folders/n6/c271nzx11xl4r4_m7sqjlt0m0000gn/T//ccsecID7.s 			page 33


 815 046a 07FB0511 		mla	r1, r7, r5, r1
 816              		.loc 2 559 25 view .LVU241
 817 046e 4FEAEA76 		asr	r6, r10, #31
 818              		.loc 2 559 32 view .LVU242
 819 0472 00FB06F6 		mul	r6, r0, r6
 820 0476 0AFB0565 		mla	r5, r10, r5, r6
 821 047a A0FB0A6A 		umull	r6, r10, r0, r10
 822              	.LVL99:
 823              		.loc 2 559 32 view .LVU243
 824 047e AA44     		add	r10, r10, r5
 558:Drivers/CMSIS/DSP/Include/arm_math.h ****             (((q63_t)(x >> 32) * y)));
 825              		.loc 2 558 59 view .LVU244
 826 0480 8E19     		adds	r6, r1, r6
 827 0482 4AEBE17A 		adc	r10, r10, r1, asr #31
 828              	.LVL100:
 558:Drivers/CMSIS/DSP/Include/arm_math.h ****             (((q63_t)(x >> 32) * y)));
 829              		.loc 2 558 59 view .LVU245
 830              	.LBE41:
 831              	.LBE40:
 832              		.loc 1 404 11 discriminator 1 view .LVU246
 833 0486 9B19     		adds	r3, r3, r6
 834              	.LVL101:
 835              		.loc 1 404 11 discriminator 1 view .LVU247
 836 0488 42EB0A0A 		adc	r10, r2, r10
 837              	.LVL102:
 405:Drivers/CMSIS/DSP/Source/FilteringFunctions/arm_biquad_cascade_df1_32x64_q31.c **** 
 406:Drivers/CMSIS/DSP/Source/FilteringFunctions/arm_biquad_cascade_df1_32x64_q31.c ****       /* Every time after the output is computed state should be updated. */
 407:Drivers/CMSIS/DSP/Source/FilteringFunctions/arm_biquad_cascade_df1_32x64_q31.c ****       /* The states should be updated as:  */
 408:Drivers/CMSIS/DSP/Source/FilteringFunctions/arm_biquad_cascade_df1_32x64_q31.c ****       /* Xn2 = Xn1    */
 409:Drivers/CMSIS/DSP/Source/FilteringFunctions/arm_biquad_cascade_df1_32x64_q31.c ****       /* Xn1 = Xn     */
 410:Drivers/CMSIS/DSP/Source/FilteringFunctions/arm_biquad_cascade_df1_32x64_q31.c ****       /* Yn2 = Yn1    */
 411:Drivers/CMSIS/DSP/Source/FilteringFunctions/arm_biquad_cascade_df1_32x64_q31.c ****       /* Yn1 = acc    */
 412:Drivers/CMSIS/DSP/Source/FilteringFunctions/arm_biquad_cascade_df1_32x64_q31.c ****       Xn2 = Xn1;
 838              		.loc 1 412 7 is_stmt 1 view .LVU248
 413:Drivers/CMSIS/DSP/Source/FilteringFunctions/arm_biquad_cascade_df1_32x64_q31.c ****       Xn1 = Xn;
 839              		.loc 1 413 7 view .LVU249
 414:Drivers/CMSIS/DSP/Source/FilteringFunctions/arm_biquad_cascade_df1_32x64_q31.c ****       Yn2 = Yn1;
 840              		.loc 1 414 7 view .LVU250
 415:Drivers/CMSIS/DSP/Source/FilteringFunctions/arm_biquad_cascade_df1_32x64_q31.c ****       /* The result is converted to 1.63, Yn1 variable is reused  */
 416:Drivers/CMSIS/DSP/Source/FilteringFunctions/arm_biquad_cascade_df1_32x64_q31.c ****       Yn1 = acc << shift;
 841              		.loc 1 416 7 view .LVU251
 842              		.loc 1 416 11 is_stmt 0 view .LVU252
 843 048c A8F12002 		sub	r2, r8, #32
 844 0490 C8F12001 		rsb	r1, r8, #32
 845 0494 0AFA08F5 		lsl	r5, r10, r8
 846 0498 03FA02F2 		lsl	r2, r3, r2
 847 049c 1543     		orrs	r5, r5, r2
 848 049e 23FA01F1 		lsr	r1, r3, r1
 849              	.LVL103:
 417:Drivers/CMSIS/DSP/Source/FilteringFunctions/arm_biquad_cascade_df1_32x64_q31.c **** 
 418:Drivers/CMSIS/DSP/Source/FilteringFunctions/arm_biquad_cascade_df1_32x64_q31.c ****       /* Calc lower part of acc */
 419:Drivers/CMSIS/DSP/Source/FilteringFunctions/arm_biquad_cascade_df1_32x64_q31.c ****       acc_l = acc & 0xffffffff;
 850              		.loc 1 419 7 is_stmt 1 view .LVU253
 420:Drivers/CMSIS/DSP/Source/FilteringFunctions/arm_biquad_cascade_df1_32x64_q31.c **** 
 421:Drivers/CMSIS/DSP/Source/FilteringFunctions/arm_biquad_cascade_df1_32x64_q31.c ****       /* Calc upper part of acc */
 422:Drivers/CMSIS/DSP/Source/FilteringFunctions/arm_biquad_cascade_df1_32x64_q31.c ****       acc_h = (acc >> 32) & 0xffffffff;
 851              		.loc 1 422 7 view .LVU254
ARM GAS  /var/folders/n6/c271nzx11xl4r4_m7sqjlt0m0000gn/T//ccsecID7.s 			page 34


 423:Drivers/CMSIS/DSP/Source/FilteringFunctions/arm_biquad_cascade_df1_32x64_q31.c **** 
 424:Drivers/CMSIS/DSP/Source/FilteringFunctions/arm_biquad_cascade_df1_32x64_q31.c ****       /* Apply shift for lower part of acc and upper part of acc */
 425:Drivers/CMSIS/DSP/Source/FilteringFunctions/arm_biquad_cascade_df1_32x64_q31.c ****       acc_h = (uint32_t) acc_l >> lShift | acc_h << uShift;
 852              		.loc 1 425 7 view .LVU255
 853              		.loc 1 425 32 is_stmt 0 view .LVU256
 854 04a2 089A     		ldr	r2, [sp, #32]
 855 04a4 23FA02F2 		lsr	r2, r3, r2
 856              		.loc 1 425 50 view .LVU257
 857 04a8 0AFA08FA 		lsl	r10, r10, r8
 858              	.LVL104:
 859              		.loc 1 425 13 view .LVU258
 860 04ac 42EA0A06 		orr	r6, r2, r10
 861              	.LVL105:
 426:Drivers/CMSIS/DSP/Source/FilteringFunctions/arm_biquad_cascade_df1_32x64_q31.c **** 
 427:Drivers/CMSIS/DSP/Source/FilteringFunctions/arm_biquad_cascade_df1_32x64_q31.c ****       /* Store the output in the destination buffer in 1.31 format. */
 428:Drivers/CMSIS/DSP/Source/FilteringFunctions/arm_biquad_cascade_df1_32x64_q31.c ****       *pOut++ = acc_h;
 862              		.loc 1 428 7 is_stmt 1 view .LVU259
 863              		.loc 1 428 12 is_stmt 0 view .LVU260
 864 04b0 059A     		ldr	r2, [sp, #20]
 865              	.LVL106:
 866              		.loc 1 428 15 view .LVU261
 867 04b2 42F8046B 		str	r6, [r2], #4
 868              	.LVL107:
 429:Drivers/CMSIS/DSP/Source/FilteringFunctions/arm_biquad_cascade_df1_32x64_q31.c ****       /* Yn1 = acc << shift; */
 430:Drivers/CMSIS/DSP/Source/FilteringFunctions/arm_biquad_cascade_df1_32x64_q31.c **** 
 431:Drivers/CMSIS/DSP/Source/FilteringFunctions/arm_biquad_cascade_df1_32x64_q31.c ****       /* Store the output in the destination buffer in 1.31 format. */
 432:Drivers/CMSIS/DSP/Source/FilteringFunctions/arm_biquad_cascade_df1_32x64_q31.c **** /*      *pOut++ = (q31_t) (acc >> (32 - shift));  */
 433:Drivers/CMSIS/DSP/Source/FilteringFunctions/arm_biquad_cascade_df1_32x64_q31.c **** 
 434:Drivers/CMSIS/DSP/Source/FilteringFunctions/arm_biquad_cascade_df1_32x64_q31.c ****       /* decrement the loop counter */
 435:Drivers/CMSIS/DSP/Source/FilteringFunctions/arm_biquad_cascade_df1_32x64_q31.c ****       sample--;
 869              		.loc 1 435 7 is_stmt 1 view .LVU262
 870              		.loc 1 435 13 is_stmt 0 view .LVU263
 871 04b6 019E     		ldr	r6, [sp, #4]
 872              	.LVL108:
 873              		.loc 1 435 13 view .LVU264
 874 04b8 013E     		subs	r6, r6, #1
 875 04ba 0196     		str	r6, [sp, #4]
 876              	.LVL109:
 414:Drivers/CMSIS/DSP/Source/FilteringFunctions/arm_biquad_cascade_df1_32x64_q31.c ****       /* The result is converted to 1.63, Yn1 variable is reused  */
 877              		.loc 1 414 11 view .LVU265
 878 04bc 009F     		ldr	r7, [sp]
 879 04be 0697     		str	r7, [sp, #24]
 880 04c0 F246     		mov	r10, lr
 416:Drivers/CMSIS/DSP/Source/FilteringFunctions/arm_biquad_cascade_df1_32x64_q31.c **** 
 881              		.loc 1 416 11 view .LVU266
 882 04c2 03FA08F6 		lsl	r6, r3, r8
 883              	.LVL110:
 416:Drivers/CMSIS/DSP/Source/FilteringFunctions/arm_biquad_cascade_df1_32x64_q31.c **** 
 884              		.loc 1 416 11 view .LVU267
 885 04c6 0096     		str	r6, [sp]
 886              	.LVL111:
 416:Drivers/CMSIS/DSP/Source/FilteringFunctions/arm_biquad_cascade_df1_32x64_q31.c **** 
 887              		.loc 1 416 11 view .LVU268
 888 04c8 45EA010E 		orr	lr, r5, r1
 889              	.LVL112:
 412:Drivers/CMSIS/DSP/Source/FilteringFunctions/arm_biquad_cascade_df1_32x64_q31.c ****       Xn1 = Xn;
 890              		.loc 1 412 11 view .LVU269
ARM GAS  /var/folders/n6/c271nzx11xl4r4_m7sqjlt0m0000gn/T//ccsecID7.s 			page 35


 891 04cc 5E46     		mov	r6, fp
 892              	.LVL113:
 413:Drivers/CMSIS/DSP/Source/FilteringFunctions/arm_biquad_cascade_df1_32x64_q31.c ****       Yn2 = Yn1;
 893              		.loc 1 413 11 view .LVU270
 894 04ce A346     		mov	fp, r4
 895              	.LVL114:
 428:Drivers/CMSIS/DSP/Source/FilteringFunctions/arm_biquad_cascade_df1_32x64_q31.c ****       /* Yn1 = acc << shift; */
 896              		.loc 1 428 12 view .LVU271
 897 04d0 0592     		str	r2, [sp, #20]
 898              	.LVL115:
 391:Drivers/CMSIS/DSP/Source/FilteringFunctions/arm_biquad_cascade_df1_32x64_q31.c **** 
 899              		.loc 1 391 16 view .LVU272
 900 04d2 049B     		ldr	r3, [sp, #16]
 901              	.LVL116:
 902              	.L4:
 388:Drivers/CMSIS/DSP/Source/FilteringFunctions/arm_biquad_cascade_df1_32x64_q31.c ****     {
 903              		.loc 1 388 19 is_stmt 1 view .LVU273
 904 04d4 019A     		ldr	r2, [sp, #4]
 905 04d6 002A     		cmp	r2, #0
 906 04d8 85D1     		bne	.L5
 436:Drivers/CMSIS/DSP/Source/FilteringFunctions/arm_biquad_cascade_df1_32x64_q31.c ****     }
 437:Drivers/CMSIS/DSP/Source/FilteringFunctions/arm_biquad_cascade_df1_32x64_q31.c **** 
 438:Drivers/CMSIS/DSP/Source/FilteringFunctions/arm_biquad_cascade_df1_32x64_q31.c ****     /*  The first stage output is given as input to the second stage. */
 439:Drivers/CMSIS/DSP/Source/FilteringFunctions/arm_biquad_cascade_df1_32x64_q31.c ****     pIn = pDst;
 440:Drivers/CMSIS/DSP/Source/FilteringFunctions/arm_biquad_cascade_df1_32x64_q31.c **** 
 441:Drivers/CMSIS/DSP/Source/FilteringFunctions/arm_biquad_cascade_df1_32x64_q31.c ****     /* Reset to destination buffer working pointer */
 442:Drivers/CMSIS/DSP/Source/FilteringFunctions/arm_biquad_cascade_df1_32x64_q31.c ****     pOut = pDst;
 443:Drivers/CMSIS/DSP/Source/FilteringFunctions/arm_biquad_cascade_df1_32x64_q31.c **** 
 444:Drivers/CMSIS/DSP/Source/FilteringFunctions/arm_biquad_cascade_df1_32x64_q31.c ****     /*  Store the updated state variables back into the pState array */
 445:Drivers/CMSIS/DSP/Source/FilteringFunctions/arm_biquad_cascade_df1_32x64_q31.c ****     /*  Store the updated state variables back into the pState array */
 446:Drivers/CMSIS/DSP/Source/FilteringFunctions/arm_biquad_cascade_df1_32x64_q31.c ****     *pState++ = (q63_t) Xn1;
 907              		.loc 1 446 17 is_stmt 0 view .LVU274
 908 04da 079A     		ldr	r2, [sp, #28]
 909 04dc 099F     		ldr	r7, [sp, #36]
 910 04de DDF81890 		ldr	r9, [sp, #24]
 439:Drivers/CMSIS/DSP/Source/FilteringFunctions/arm_biquad_cascade_df1_32x64_q31.c **** 
 911              		.loc 1 439 5 is_stmt 1 view .LVU275
 912              	.LVL117:
 442:Drivers/CMSIS/DSP/Source/FilteringFunctions/arm_biquad_cascade_df1_32x64_q31.c **** 
 913              		.loc 1 442 5 view .LVU276
 914              		.loc 1 446 5 view .LVU277
 915              		.loc 1 446 17 is_stmt 0 view .LVU278
 916 04e2 4FEAEB73 		asr	r3, fp, #31
 917              		.loc 1 446 15 view .LVU279
 918 04e6 C2F800B0 		str	fp, [r2]
 919 04ea 5360     		str	r3, [r2, #4]
 447:Drivers/CMSIS/DSP/Source/FilteringFunctions/arm_biquad_cascade_df1_32x64_q31.c ****     *pState++ = (q63_t) Xn2;
 920              		.loc 1 447 5 is_stmt 1 view .LVU280
 921              	.LVL118:
 922              		.loc 1 447 17 is_stmt 0 view .LVU281
 923 04ec F317     		asrs	r3, r6, #31
 924              		.loc 1 447 15 view .LVU282
 925 04ee 9660     		str	r6, [r2, #8]
 926 04f0 D360     		str	r3, [r2, #12]
 448:Drivers/CMSIS/DSP/Source/FilteringFunctions/arm_biquad_cascade_df1_32x64_q31.c ****     *pState++ = Yn1;
 927              		.loc 1 448 5 is_stmt 1 view .LVU283
 928              	.LVL119:
ARM GAS  /var/folders/n6/c271nzx11xl4r4_m7sqjlt0m0000gn/T//ccsecID7.s 			page 36


 929              		.loc 1 448 15 is_stmt 0 view .LVU284
 930 04f2 009B     		ldr	r3, [sp]
 931 04f4 1361     		str	r3, [r2, #16]
 932 04f6 C2F814E0 		str	lr, [r2, #20]
 449:Drivers/CMSIS/DSP/Source/FilteringFunctions/arm_biquad_cascade_df1_32x64_q31.c ****     *pState++ = Yn2;
 933              		.loc 1 449 5 is_stmt 1 view .LVU285
 934              		.loc 1 449 12 is_stmt 0 view .LVU286
 935 04fa 02F12003 		add	r3, r2, #32
 936              	.LVL120:
 937              		.loc 1 449 15 view .LVU287
 938 04fe C2F81890 		str	r9, [r2, #24]
 939 0502 C2F81CA0 		str	r10, [r2, #28]
 450:Drivers/CMSIS/DSP/Source/FilteringFunctions/arm_biquad_cascade_df1_32x64_q31.c **** 
 451:Drivers/CMSIS/DSP/Source/FilteringFunctions/arm_biquad_cascade_df1_32x64_q31.c ****   } while (--stage);
 940              		.loc 1 451 12 is_stmt 1 view .LVU288
 941              	.LVL121:
 942              		.loc 1 451 12 is_stmt 0 view .LVU289
 943 0506 159A     		ldr	r2, [sp, #84]
 944 0508 013A     		subs	r2, r2, #1
 945              	.LVL122:
 946              		.loc 1 451 12 view .LVU290
 947 050a 1592     		str	r2, [sp, #84]
 948 050c 23D0     		beq	.L9
 449:Drivers/CMSIS/DSP/Source/FilteringFunctions/arm_biquad_cascade_df1_32x64_q31.c ****     *pState++ = Yn2;
 949              		.loc 1 449 12 view .LVU291
 950 050e 1A46     		mov	r2, r3
 951              	.LVL123:
 439:Drivers/CMSIS/DSP/Source/FilteringFunctions/arm_biquad_cascade_df1_32x64_q31.c **** 
 952              		.loc 1 439 9 view .LVU292
 953 0510 199B     		ldr	r3, [sp, #100]
 954              	.LVL124:
 439:Drivers/CMSIS/DSP/Source/FilteringFunctions/arm_biquad_cascade_df1_32x64_q31.c **** 
 955              		.loc 1 439 9 view .LVU293
 956 0512 0693     		str	r3, [sp, #24]
 957              	.LVL125:
 958              	.L6:
 201:Drivers/CMSIS/DSP/Source/FilteringFunctions/arm_biquad_cascade_df1_32x64_q31.c ****   {
 959              		.loc 1 201 3 is_stmt 1 view .LVU294
 204:Drivers/CMSIS/DSP/Source/FilteringFunctions/arm_biquad_cascade_df1_32x64_q31.c ****     b1 = *pCoeffs++;
 960              		.loc 1 204 5 view .LVU295
 204:Drivers/CMSIS/DSP/Source/FilteringFunctions/arm_biquad_cascade_df1_32x64_q31.c ****     b1 = *pCoeffs++;
 961              		.loc 1 204 8 is_stmt 0 view .LVU296
 962 0514 3B68     		ldr	r3, [r7]
 963 0516 0493     		str	r3, [sp, #16]
 964              	.LVL126:
 205:Drivers/CMSIS/DSP/Source/FilteringFunctions/arm_biquad_cascade_df1_32x64_q31.c ****     b2 = *pCoeffs++;
 965              		.loc 1 205 5 is_stmt 1 view .LVU297
 205:Drivers/CMSIS/DSP/Source/FilteringFunctions/arm_biquad_cascade_df1_32x64_q31.c ****     b2 = *pCoeffs++;
 966              		.loc 1 205 8 is_stmt 0 view .LVU298
 967 0518 7B68     		ldr	r3, [r7, #4]
 968              	.LVL127:
 205:Drivers/CMSIS/DSP/Source/FilteringFunctions/arm_biquad_cascade_df1_32x64_q31.c ****     b2 = *pCoeffs++;
 969              		.loc 1 205 8 view .LVU299
 970 051a 0293     		str	r3, [sp, #8]
 971              	.LVL128:
 206:Drivers/CMSIS/DSP/Source/FilteringFunctions/arm_biquad_cascade_df1_32x64_q31.c ****     a1 = *pCoeffs++;
 972              		.loc 1 206 5 is_stmt 1 view .LVU300
ARM GAS  /var/folders/n6/c271nzx11xl4r4_m7sqjlt0m0000gn/T//ccsecID7.s 			page 37


 206:Drivers/CMSIS/DSP/Source/FilteringFunctions/arm_biquad_cascade_df1_32x64_q31.c ****     a1 = *pCoeffs++;
 973              		.loc 1 206 8 is_stmt 0 view .LVU301
 974 051c BB68     		ldr	r3, [r7, #8]
 975              	.LVL129:
 206:Drivers/CMSIS/DSP/Source/FilteringFunctions/arm_biquad_cascade_df1_32x64_q31.c ****     a1 = *pCoeffs++;
 976              		.loc 1 206 8 view .LVU302
 977 051e 0393     		str	r3, [sp, #12]
 978              	.LVL130:
 207:Drivers/CMSIS/DSP/Source/FilteringFunctions/arm_biquad_cascade_df1_32x64_q31.c ****     a2 = *pCoeffs++;
 979              		.loc 1 207 5 is_stmt 1 view .LVU303
 207:Drivers/CMSIS/DSP/Source/FilteringFunctions/arm_biquad_cascade_df1_32x64_q31.c ****     a2 = *pCoeffs++;
 980              		.loc 1 207 8 is_stmt 0 view .LVU304
 981 0520 D7F80CC0 		ldr	ip, [r7, #12]
 982              	.LVL131:
 208:Drivers/CMSIS/DSP/Source/FilteringFunctions/arm_biquad_cascade_df1_32x64_q31.c **** 
 983              		.loc 1 208 5 is_stmt 1 view .LVU305
 208:Drivers/CMSIS/DSP/Source/FilteringFunctions/arm_biquad_cascade_df1_32x64_q31.c **** 
 984              		.loc 1 208 8 is_stmt 0 view .LVU306
 985 0524 3B69     		ldr	r3, [r7, #16]
 986              	.LVL132:
 208:Drivers/CMSIS/DSP/Source/FilteringFunctions/arm_biquad_cascade_df1_32x64_q31.c **** 
 987              		.loc 1 208 8 view .LVU307
 988 0526 1693     		str	r3, [sp, #88]
 989 0528 1437     		adds	r7, r7, #20
 990              	.LVL133:
 211:Drivers/CMSIS/DSP/Source/FilteringFunctions/arm_biquad_cascade_df1_32x64_q31.c ****     Xn2 = (q31_t) (pState[1]);
 991              		.loc 1 211 5 is_stmt 1 view .LVU308
 211:Drivers/CMSIS/DSP/Source/FilteringFunctions/arm_biquad_cascade_df1_32x64_q31.c ****     Xn2 = (q31_t) (pState[1]);
 992              		.loc 1 211 26 is_stmt 0 view .LVU309
 993 052a D2F800B0 		ldr	fp, [r2]
 994              	.LVL134:
 212:Drivers/CMSIS/DSP/Source/FilteringFunctions/arm_biquad_cascade_df1_32x64_q31.c ****     Yn1 = pState[2];
 995              		.loc 1 212 5 is_stmt 1 view .LVU310
 212:Drivers/CMSIS/DSP/Source/FilteringFunctions/arm_biquad_cascade_df1_32x64_q31.c ****     Yn1 = pState[2];
 996              		.loc 1 212 26 is_stmt 0 view .LVU311
 997 052e 9668     		ldr	r6, [r2, #8]
 998              	.LVL135:
 213:Drivers/CMSIS/DSP/Source/FilteringFunctions/arm_biquad_cascade_df1_32x64_q31.c ****     Yn2 = pState[3];
 999              		.loc 1 213 5 is_stmt 1 view .LVU312
 213:Drivers/CMSIS/DSP/Source/FilteringFunctions/arm_biquad_cascade_df1_32x64_q31.c ****     Yn2 = pState[3];
 1000              		.loc 1 213 9 is_stmt 0 view .LVU313
 1001 0530 1169     		ldr	r1, [r2, #16]
 1002 0532 0091     		str	r1, [sp]
 1003 0534 D2F814E0 		ldr	lr, [r2, #20]
 1004              	.LVL136:
 214:Drivers/CMSIS/DSP/Source/FilteringFunctions/arm_biquad_cascade_df1_32x64_q31.c **** 
 1005              		.loc 1 214 5 is_stmt 1 view .LVU314
 214:Drivers/CMSIS/DSP/Source/FilteringFunctions/arm_biquad_cascade_df1_32x64_q31.c **** 
 1006              		.loc 1 214 9 is_stmt 0 view .LVU315
 1007 0538 D2F81890 		ldr	r9, [r2, #24]
 1008 053c D2F81CA0 		ldr	r10, [r2, #28]
 1009              	.LVL137:
 222:Drivers/CMSIS/DSP/Source/FilteringFunctions/arm_biquad_cascade_df1_32x64_q31.c **** 
 1010              		.loc 1 222 5 is_stmt 1 view .LVU316
 222:Drivers/CMSIS/DSP/Source/FilteringFunctions/arm_biquad_cascade_df1_32x64_q31.c **** 
 1011              		.loc 1 222 12 is_stmt 0 view .LVU317
 1012 0540 1499     		ldr	r1, [sp, #80]
ARM GAS  /var/folders/n6/c271nzx11xl4r4_m7sqjlt0m0000gn/T//ccsecID7.s 			page 38


 1013              	.LVL138:
 222:Drivers/CMSIS/DSP/Source/FilteringFunctions/arm_biquad_cascade_df1_32x64_q31.c **** 
 1014              		.loc 1 222 12 view .LVU318
 1015 0542 8908     		lsrs	r1, r1, #2
 1016 0544 0E91     		str	r1, [sp, #56]
 1017              	.LVL139:
 226:Drivers/CMSIS/DSP/Source/FilteringFunctions/arm_biquad_cascade_df1_32x64_q31.c ****     {
 1018              		.loc 1 226 5 is_stmt 1 view .LVU319
 226:Drivers/CMSIS/DSP/Source/FilteringFunctions/arm_biquad_cascade_df1_32x64_q31.c ****     {
 1019              		.loc 1 226 11 is_stmt 0 view .LVU320
 1020 0546 1999     		ldr	r1, [sp, #100]
 1021              	.LVL140:
 226:Drivers/CMSIS/DSP/Source/FilteringFunctions/arm_biquad_cascade_df1_32x64_q31.c ****     {
 1022              		.loc 1 226 11 view .LVU321
 1023 0548 0591     		str	r1, [sp, #20]
 1024 054a 1792     		str	r2, [sp, #92]
 1025 054c 1897     		str	r7, [sp, #96]
 1026 054e 5846     		mov	r0, fp
 1027 0550 0193     		str	r3, [sp, #4]
 1028 0552 D346     		mov	fp, r10
 1029              	.LVL141:
 226:Drivers/CMSIS/DSP/Source/FilteringFunctions/arm_biquad_cascade_df1_32x64_q31.c ****     {
 1030              		.loc 1 226 11 view .LVU322
 1031 0554 32E7     		b	.L2
 1032              	.LVL142:
 1033              	.L9:
 452:Drivers/CMSIS/DSP/Source/FilteringFunctions/arm_biquad_cascade_df1_32x64_q31.c **** 
 453:Drivers/CMSIS/DSP/Source/FilteringFunctions/arm_biquad_cascade_df1_32x64_q31.c **** #else
 454:Drivers/CMSIS/DSP/Source/FilteringFunctions/arm_biquad_cascade_df1_32x64_q31.c **** 
 455:Drivers/CMSIS/DSP/Source/FilteringFunctions/arm_biquad_cascade_df1_32x64_q31.c ****   /* Run the below code for Cortex-M0 */
 456:Drivers/CMSIS/DSP/Source/FilteringFunctions/arm_biquad_cascade_df1_32x64_q31.c **** 
 457:Drivers/CMSIS/DSP/Source/FilteringFunctions/arm_biquad_cascade_df1_32x64_q31.c ****   do
 458:Drivers/CMSIS/DSP/Source/FilteringFunctions/arm_biquad_cascade_df1_32x64_q31.c ****   {
 459:Drivers/CMSIS/DSP/Source/FilteringFunctions/arm_biquad_cascade_df1_32x64_q31.c ****     /* Reading the coefficients */
 460:Drivers/CMSIS/DSP/Source/FilteringFunctions/arm_biquad_cascade_df1_32x64_q31.c ****     b0 = *pCoeffs++;
 461:Drivers/CMSIS/DSP/Source/FilteringFunctions/arm_biquad_cascade_df1_32x64_q31.c ****     b1 = *pCoeffs++;
 462:Drivers/CMSIS/DSP/Source/FilteringFunctions/arm_biquad_cascade_df1_32x64_q31.c ****     b2 = *pCoeffs++;
 463:Drivers/CMSIS/DSP/Source/FilteringFunctions/arm_biquad_cascade_df1_32x64_q31.c ****     a1 = *pCoeffs++;
 464:Drivers/CMSIS/DSP/Source/FilteringFunctions/arm_biquad_cascade_df1_32x64_q31.c ****     a2 = *pCoeffs++;
 465:Drivers/CMSIS/DSP/Source/FilteringFunctions/arm_biquad_cascade_df1_32x64_q31.c **** 
 466:Drivers/CMSIS/DSP/Source/FilteringFunctions/arm_biquad_cascade_df1_32x64_q31.c ****     /* Reading the state values */
 467:Drivers/CMSIS/DSP/Source/FilteringFunctions/arm_biquad_cascade_df1_32x64_q31.c ****     Xn1 = pState[0];
 468:Drivers/CMSIS/DSP/Source/FilteringFunctions/arm_biquad_cascade_df1_32x64_q31.c ****     Xn2 = pState[1];
 469:Drivers/CMSIS/DSP/Source/FilteringFunctions/arm_biquad_cascade_df1_32x64_q31.c ****     Yn1 = pState[2];
 470:Drivers/CMSIS/DSP/Source/FilteringFunctions/arm_biquad_cascade_df1_32x64_q31.c ****     Yn2 = pState[3];
 471:Drivers/CMSIS/DSP/Source/FilteringFunctions/arm_biquad_cascade_df1_32x64_q31.c **** 
 472:Drivers/CMSIS/DSP/Source/FilteringFunctions/arm_biquad_cascade_df1_32x64_q31.c ****     /* The variable acc hold output value that is being computed and
 473:Drivers/CMSIS/DSP/Source/FilteringFunctions/arm_biquad_cascade_df1_32x64_q31.c ****      * stored in the destination buffer
 474:Drivers/CMSIS/DSP/Source/FilteringFunctions/arm_biquad_cascade_df1_32x64_q31.c ****      * acc =  b0 * x[n] + b1 * x[n-1] + b2 * x[n-2] + a1 * y[n-1] + a2 * y[n-2]
 475:Drivers/CMSIS/DSP/Source/FilteringFunctions/arm_biquad_cascade_df1_32x64_q31.c ****      */
 476:Drivers/CMSIS/DSP/Source/FilteringFunctions/arm_biquad_cascade_df1_32x64_q31.c **** 
 477:Drivers/CMSIS/DSP/Source/FilteringFunctions/arm_biquad_cascade_df1_32x64_q31.c ****     sample = blockSize;
 478:Drivers/CMSIS/DSP/Source/FilteringFunctions/arm_biquad_cascade_df1_32x64_q31.c **** 
 479:Drivers/CMSIS/DSP/Source/FilteringFunctions/arm_biquad_cascade_df1_32x64_q31.c ****     while (sample > 0U)
 480:Drivers/CMSIS/DSP/Source/FilteringFunctions/arm_biquad_cascade_df1_32x64_q31.c ****     {
 481:Drivers/CMSIS/DSP/Source/FilteringFunctions/arm_biquad_cascade_df1_32x64_q31.c ****       /* Read the input */
 482:Drivers/CMSIS/DSP/Source/FilteringFunctions/arm_biquad_cascade_df1_32x64_q31.c ****       Xn = *pIn++;
ARM GAS  /var/folders/n6/c271nzx11xl4r4_m7sqjlt0m0000gn/T//ccsecID7.s 			page 39


 483:Drivers/CMSIS/DSP/Source/FilteringFunctions/arm_biquad_cascade_df1_32x64_q31.c **** 
 484:Drivers/CMSIS/DSP/Source/FilteringFunctions/arm_biquad_cascade_df1_32x64_q31.c ****       /* acc =  b0 * x[n] + b1 * x[n-1] + b2 * x[n-2] + a1 * y[n-1] + a2 * y[n-2] */
 485:Drivers/CMSIS/DSP/Source/FilteringFunctions/arm_biquad_cascade_df1_32x64_q31.c ****       /* acc =  b0 * x[n] */
 486:Drivers/CMSIS/DSP/Source/FilteringFunctions/arm_biquad_cascade_df1_32x64_q31.c ****       acc = (q63_t) Xn *b0;
 487:Drivers/CMSIS/DSP/Source/FilteringFunctions/arm_biquad_cascade_df1_32x64_q31.c ****       /* acc +=  b1 * x[n-1] */
 488:Drivers/CMSIS/DSP/Source/FilteringFunctions/arm_biquad_cascade_df1_32x64_q31.c ****       acc += (q63_t) Xn1 *b1;
 489:Drivers/CMSIS/DSP/Source/FilteringFunctions/arm_biquad_cascade_df1_32x64_q31.c ****       /* acc +=  b[2] * x[n-2] */
 490:Drivers/CMSIS/DSP/Source/FilteringFunctions/arm_biquad_cascade_df1_32x64_q31.c ****       acc += (q63_t) Xn2 *b2;
 491:Drivers/CMSIS/DSP/Source/FilteringFunctions/arm_biquad_cascade_df1_32x64_q31.c ****       /* acc +=  a1 * y[n-1] */
 492:Drivers/CMSIS/DSP/Source/FilteringFunctions/arm_biquad_cascade_df1_32x64_q31.c ****       acc += mult32x64(Yn1, a1);
 493:Drivers/CMSIS/DSP/Source/FilteringFunctions/arm_biquad_cascade_df1_32x64_q31.c ****       /* acc +=  a2 * y[n-2] */
 494:Drivers/CMSIS/DSP/Source/FilteringFunctions/arm_biquad_cascade_df1_32x64_q31.c ****       acc += mult32x64(Yn2, a2);
 495:Drivers/CMSIS/DSP/Source/FilteringFunctions/arm_biquad_cascade_df1_32x64_q31.c **** 
 496:Drivers/CMSIS/DSP/Source/FilteringFunctions/arm_biquad_cascade_df1_32x64_q31.c ****       /* Every time after the output is computed state should be updated. */
 497:Drivers/CMSIS/DSP/Source/FilteringFunctions/arm_biquad_cascade_df1_32x64_q31.c ****       /* The states should be updated as:  */
 498:Drivers/CMSIS/DSP/Source/FilteringFunctions/arm_biquad_cascade_df1_32x64_q31.c ****       /* Xn2 = Xn1    */
 499:Drivers/CMSIS/DSP/Source/FilteringFunctions/arm_biquad_cascade_df1_32x64_q31.c ****       /* Xn1 = Xn     */
 500:Drivers/CMSIS/DSP/Source/FilteringFunctions/arm_biquad_cascade_df1_32x64_q31.c ****       /* Yn2 = Yn1    */
 501:Drivers/CMSIS/DSP/Source/FilteringFunctions/arm_biquad_cascade_df1_32x64_q31.c ****       /* Yn1 = acc    */
 502:Drivers/CMSIS/DSP/Source/FilteringFunctions/arm_biquad_cascade_df1_32x64_q31.c ****       Xn2 = Xn1;
 503:Drivers/CMSIS/DSP/Source/FilteringFunctions/arm_biquad_cascade_df1_32x64_q31.c ****       Xn1 = Xn;
 504:Drivers/CMSIS/DSP/Source/FilteringFunctions/arm_biquad_cascade_df1_32x64_q31.c ****       Yn2 = Yn1;
 505:Drivers/CMSIS/DSP/Source/FilteringFunctions/arm_biquad_cascade_df1_32x64_q31.c **** 
 506:Drivers/CMSIS/DSP/Source/FilteringFunctions/arm_biquad_cascade_df1_32x64_q31.c ****       /* The result is converted to 1.63, Yn1 variable is reused  */
 507:Drivers/CMSIS/DSP/Source/FilteringFunctions/arm_biquad_cascade_df1_32x64_q31.c ****       Yn1 = acc << shift;
 508:Drivers/CMSIS/DSP/Source/FilteringFunctions/arm_biquad_cascade_df1_32x64_q31.c **** 
 509:Drivers/CMSIS/DSP/Source/FilteringFunctions/arm_biquad_cascade_df1_32x64_q31.c ****       /* Calc lower part of acc */
 510:Drivers/CMSIS/DSP/Source/FilteringFunctions/arm_biquad_cascade_df1_32x64_q31.c ****       acc_l = acc & 0xffffffff;
 511:Drivers/CMSIS/DSP/Source/FilteringFunctions/arm_biquad_cascade_df1_32x64_q31.c **** 
 512:Drivers/CMSIS/DSP/Source/FilteringFunctions/arm_biquad_cascade_df1_32x64_q31.c ****       /* Calc upper part of acc */
 513:Drivers/CMSIS/DSP/Source/FilteringFunctions/arm_biquad_cascade_df1_32x64_q31.c ****       acc_h = (acc >> 32) & 0xffffffff;
 514:Drivers/CMSIS/DSP/Source/FilteringFunctions/arm_biquad_cascade_df1_32x64_q31.c **** 
 515:Drivers/CMSIS/DSP/Source/FilteringFunctions/arm_biquad_cascade_df1_32x64_q31.c ****       /* Apply shift for lower part of acc and upper part of acc */
 516:Drivers/CMSIS/DSP/Source/FilteringFunctions/arm_biquad_cascade_df1_32x64_q31.c ****       acc_h = (uint32_t) acc_l >> lShift | acc_h << uShift;
 517:Drivers/CMSIS/DSP/Source/FilteringFunctions/arm_biquad_cascade_df1_32x64_q31.c **** 
 518:Drivers/CMSIS/DSP/Source/FilteringFunctions/arm_biquad_cascade_df1_32x64_q31.c ****       /* Store the output in the destination buffer in 1.31 format. */
 519:Drivers/CMSIS/DSP/Source/FilteringFunctions/arm_biquad_cascade_df1_32x64_q31.c ****       *pOut++ = acc_h;
 520:Drivers/CMSIS/DSP/Source/FilteringFunctions/arm_biquad_cascade_df1_32x64_q31.c **** 
 521:Drivers/CMSIS/DSP/Source/FilteringFunctions/arm_biquad_cascade_df1_32x64_q31.c ****       /* Yn1 = acc << shift; */
 522:Drivers/CMSIS/DSP/Source/FilteringFunctions/arm_biquad_cascade_df1_32x64_q31.c **** 
 523:Drivers/CMSIS/DSP/Source/FilteringFunctions/arm_biquad_cascade_df1_32x64_q31.c ****       /* Store the output in the destination buffer in 1.31 format. */
 524:Drivers/CMSIS/DSP/Source/FilteringFunctions/arm_biquad_cascade_df1_32x64_q31.c ****       /* *pOut++ = (q31_t) (acc >> (32 - shift)); */
 525:Drivers/CMSIS/DSP/Source/FilteringFunctions/arm_biquad_cascade_df1_32x64_q31.c **** 
 526:Drivers/CMSIS/DSP/Source/FilteringFunctions/arm_biquad_cascade_df1_32x64_q31.c ****       /* decrement the loop counter */
 527:Drivers/CMSIS/DSP/Source/FilteringFunctions/arm_biquad_cascade_df1_32x64_q31.c ****       sample--;
 528:Drivers/CMSIS/DSP/Source/FilteringFunctions/arm_biquad_cascade_df1_32x64_q31.c ****     }
 529:Drivers/CMSIS/DSP/Source/FilteringFunctions/arm_biquad_cascade_df1_32x64_q31.c **** 
 530:Drivers/CMSIS/DSP/Source/FilteringFunctions/arm_biquad_cascade_df1_32x64_q31.c ****     /*  The first stage output is given as input to the second stage. */
 531:Drivers/CMSIS/DSP/Source/FilteringFunctions/arm_biquad_cascade_df1_32x64_q31.c ****     pIn = pDst;
 532:Drivers/CMSIS/DSP/Source/FilteringFunctions/arm_biquad_cascade_df1_32x64_q31.c **** 
 533:Drivers/CMSIS/DSP/Source/FilteringFunctions/arm_biquad_cascade_df1_32x64_q31.c ****     /* Reset to destination buffer working pointer */
 534:Drivers/CMSIS/DSP/Source/FilteringFunctions/arm_biquad_cascade_df1_32x64_q31.c ****     pOut = pDst;
 535:Drivers/CMSIS/DSP/Source/FilteringFunctions/arm_biquad_cascade_df1_32x64_q31.c **** 
 536:Drivers/CMSIS/DSP/Source/FilteringFunctions/arm_biquad_cascade_df1_32x64_q31.c ****     /*  Store the updated state variables back into the pState array */
 537:Drivers/CMSIS/DSP/Source/FilteringFunctions/arm_biquad_cascade_df1_32x64_q31.c ****     *pState++ = (q63_t) Xn1;
 538:Drivers/CMSIS/DSP/Source/FilteringFunctions/arm_biquad_cascade_df1_32x64_q31.c ****     *pState++ = (q63_t) Xn2;
 539:Drivers/CMSIS/DSP/Source/FilteringFunctions/arm_biquad_cascade_df1_32x64_q31.c ****     *pState++ = Yn1;
ARM GAS  /var/folders/n6/c271nzx11xl4r4_m7sqjlt0m0000gn/T//ccsecID7.s 			page 40


 540:Drivers/CMSIS/DSP/Source/FilteringFunctions/arm_biquad_cascade_df1_32x64_q31.c ****     *pState++ = Yn2;
 541:Drivers/CMSIS/DSP/Source/FilteringFunctions/arm_biquad_cascade_df1_32x64_q31.c **** 
 542:Drivers/CMSIS/DSP/Source/FilteringFunctions/arm_biquad_cascade_df1_32x64_q31.c ****   } while (--stage);
 543:Drivers/CMSIS/DSP/Source/FilteringFunctions/arm_biquad_cascade_df1_32x64_q31.c **** 
 544:Drivers/CMSIS/DSP/Source/FilteringFunctions/arm_biquad_cascade_df1_32x64_q31.c **** #endif /*    #if defined (ARM_MATH_DSP)     */
 545:Drivers/CMSIS/DSP/Source/FilteringFunctions/arm_biquad_cascade_df1_32x64_q31.c **** }
 1034              		.loc 1 545 1 view .LVU323
 1035 0556 1BB0     		add	sp, sp, #108
 1036              		.cfi_def_cfa_offset 36
 1037              		@ sp needed
 1038 0558 BDE8F08F 		pop	{r4, r5, r6, r7, r8, r9, r10, fp, pc}
 1039              		.loc 1 545 1 view .LVU324
 1040              		.cfi_endproc
 1041              	.LFE135:
 1043              		.text
 1044              	.Letext0:
 1045              		.file 3 "/Users/killian/Library/Application Support/Code/User/globalStorage/bmd.stm32-for-vscode/@
 1046              		.file 4 "/Users/killian/Library/Application Support/Code/User/globalStorage/bmd.stm32-for-vscode/@
ARM GAS  /var/folders/n6/c271nzx11xl4r4_m7sqjlt0m0000gn/T//ccsecID7.s 			page 41

