ARM GAS  /var/folders/n6/c271nzx11xl4r4_m7sqjlt0m0000gn/T//ccMg2fLa.s 			page 1


   1              		.cpu cortex-m7
   2              		.arch armv7e-m
   3              		.fpu fpv5-d16
   4              		.eabi_attribute 28, 1
   5              		.eabi_attribute 20, 1
   6              		.eabi_attribute 21, 1
   7              		.eabi_attribute 23, 3
   8              		.eabi_attribute 24, 1
   9              		.eabi_attribute 25, 1
  10              		.eabi_attribute 26, 1
  11              		.eabi_attribute 30, 1
  12              		.eabi_attribute 34, 1
  13              		.eabi_attribute 18, 4
  14              		.file	"arm_mat_trans_q15.c"
  15              		.text
  16              	.Ltext0:
  17              		.cfi_sections	.debug_frame
  18              		.file 1 "Drivers/CMSIS/DSP/Source/MatrixFunctions/arm_mat_trans_q15.c"
  19              		.section	.text.arm_mat_trans_q15,"ax",%progbits
  20              		.align	1
  21              		.global	arm_mat_trans_q15
  22              		.syntax unified
  23              		.thumb
  24              		.thumb_func
  26              	arm_mat_trans_q15:
  27              	.LVL0:
  28              	.LFB135:
   1:Drivers/CMSIS/DSP/Source/MatrixFunctions/arm_mat_trans_q15.c **** /* ----------------------------------------------------------------------
   2:Drivers/CMSIS/DSP/Source/MatrixFunctions/arm_mat_trans_q15.c ****  * Project:      CMSIS DSP Library
   3:Drivers/CMSIS/DSP/Source/MatrixFunctions/arm_mat_trans_q15.c ****  * Title:        arm_mat_trans_q15.c
   4:Drivers/CMSIS/DSP/Source/MatrixFunctions/arm_mat_trans_q15.c ****  * Description:  Q15 matrix transpose
   5:Drivers/CMSIS/DSP/Source/MatrixFunctions/arm_mat_trans_q15.c ****  *
   6:Drivers/CMSIS/DSP/Source/MatrixFunctions/arm_mat_trans_q15.c ****  * $Date:        27. January 2017
   7:Drivers/CMSIS/DSP/Source/MatrixFunctions/arm_mat_trans_q15.c ****  * $Revision:    V.1.5.1
   8:Drivers/CMSIS/DSP/Source/MatrixFunctions/arm_mat_trans_q15.c ****  *
   9:Drivers/CMSIS/DSP/Source/MatrixFunctions/arm_mat_trans_q15.c ****  * Target Processor: Cortex-M cores
  10:Drivers/CMSIS/DSP/Source/MatrixFunctions/arm_mat_trans_q15.c ****  * -------------------------------------------------------------------- */
  11:Drivers/CMSIS/DSP/Source/MatrixFunctions/arm_mat_trans_q15.c **** /*
  12:Drivers/CMSIS/DSP/Source/MatrixFunctions/arm_mat_trans_q15.c ****  * Copyright (C) 2010-2017 ARM Limited or its affiliates. All rights reserved.
  13:Drivers/CMSIS/DSP/Source/MatrixFunctions/arm_mat_trans_q15.c ****  *
  14:Drivers/CMSIS/DSP/Source/MatrixFunctions/arm_mat_trans_q15.c ****  * SPDX-License-Identifier: Apache-2.0
  15:Drivers/CMSIS/DSP/Source/MatrixFunctions/arm_mat_trans_q15.c ****  *
  16:Drivers/CMSIS/DSP/Source/MatrixFunctions/arm_mat_trans_q15.c ****  * Licensed under the Apache License, Version 2.0 (the License); you may
  17:Drivers/CMSIS/DSP/Source/MatrixFunctions/arm_mat_trans_q15.c ****  * not use this file except in compliance with the License.
  18:Drivers/CMSIS/DSP/Source/MatrixFunctions/arm_mat_trans_q15.c ****  * You may obtain a copy of the License at
  19:Drivers/CMSIS/DSP/Source/MatrixFunctions/arm_mat_trans_q15.c ****  *
  20:Drivers/CMSIS/DSP/Source/MatrixFunctions/arm_mat_trans_q15.c ****  * www.apache.org/licenses/LICENSE-2.0
  21:Drivers/CMSIS/DSP/Source/MatrixFunctions/arm_mat_trans_q15.c ****  *
  22:Drivers/CMSIS/DSP/Source/MatrixFunctions/arm_mat_trans_q15.c ****  * Unless required by applicable law or agreed to in writing, software
  23:Drivers/CMSIS/DSP/Source/MatrixFunctions/arm_mat_trans_q15.c ****  * distributed under the License is distributed on an AS IS BASIS, WITHOUT
  24:Drivers/CMSIS/DSP/Source/MatrixFunctions/arm_mat_trans_q15.c ****  * WARRANTIES OR CONDITIONS OF ANY KIND, either express or implied.
  25:Drivers/CMSIS/DSP/Source/MatrixFunctions/arm_mat_trans_q15.c ****  * See the License for the specific language governing permissions and
  26:Drivers/CMSIS/DSP/Source/MatrixFunctions/arm_mat_trans_q15.c ****  * limitations under the License.
  27:Drivers/CMSIS/DSP/Source/MatrixFunctions/arm_mat_trans_q15.c ****  */
  28:Drivers/CMSIS/DSP/Source/MatrixFunctions/arm_mat_trans_q15.c **** 
  29:Drivers/CMSIS/DSP/Source/MatrixFunctions/arm_mat_trans_q15.c **** #include "arm_math.h"
  30:Drivers/CMSIS/DSP/Source/MatrixFunctions/arm_mat_trans_q15.c **** 
ARM GAS  /var/folders/n6/c271nzx11xl4r4_m7sqjlt0m0000gn/T//ccMg2fLa.s 			page 2


  31:Drivers/CMSIS/DSP/Source/MatrixFunctions/arm_mat_trans_q15.c **** /**
  32:Drivers/CMSIS/DSP/Source/MatrixFunctions/arm_mat_trans_q15.c ****  * @ingroup groupMatrix
  33:Drivers/CMSIS/DSP/Source/MatrixFunctions/arm_mat_trans_q15.c ****  */
  34:Drivers/CMSIS/DSP/Source/MatrixFunctions/arm_mat_trans_q15.c **** 
  35:Drivers/CMSIS/DSP/Source/MatrixFunctions/arm_mat_trans_q15.c **** /**
  36:Drivers/CMSIS/DSP/Source/MatrixFunctions/arm_mat_trans_q15.c ****  * @addtogroup MatrixTrans
  37:Drivers/CMSIS/DSP/Source/MatrixFunctions/arm_mat_trans_q15.c ****  * @{
  38:Drivers/CMSIS/DSP/Source/MatrixFunctions/arm_mat_trans_q15.c ****  */
  39:Drivers/CMSIS/DSP/Source/MatrixFunctions/arm_mat_trans_q15.c **** 
  40:Drivers/CMSIS/DSP/Source/MatrixFunctions/arm_mat_trans_q15.c **** /*
  41:Drivers/CMSIS/DSP/Source/MatrixFunctions/arm_mat_trans_q15.c ****  * @brief Q15 matrix transpose.
  42:Drivers/CMSIS/DSP/Source/MatrixFunctions/arm_mat_trans_q15.c ****  * @param[in]  *pSrc points to the input matrix
  43:Drivers/CMSIS/DSP/Source/MatrixFunctions/arm_mat_trans_q15.c ****  * @param[out] *pDst points to the output matrix
  44:Drivers/CMSIS/DSP/Source/MatrixFunctions/arm_mat_trans_q15.c ****  * @return 	The function returns either  <code>ARM_MATH_SIZE_MISMATCH</code>
  45:Drivers/CMSIS/DSP/Source/MatrixFunctions/arm_mat_trans_q15.c ****  * or <code>ARM_MATH_SUCCESS</code> based on the outcome of size checking.
  46:Drivers/CMSIS/DSP/Source/MatrixFunctions/arm_mat_trans_q15.c ****  */
  47:Drivers/CMSIS/DSP/Source/MatrixFunctions/arm_mat_trans_q15.c **** 
  48:Drivers/CMSIS/DSP/Source/MatrixFunctions/arm_mat_trans_q15.c **** arm_status arm_mat_trans_q15(
  49:Drivers/CMSIS/DSP/Source/MatrixFunctions/arm_mat_trans_q15.c ****   const arm_matrix_instance_q15 * pSrc,
  50:Drivers/CMSIS/DSP/Source/MatrixFunctions/arm_mat_trans_q15.c ****   arm_matrix_instance_q15 * pDst)
  51:Drivers/CMSIS/DSP/Source/MatrixFunctions/arm_mat_trans_q15.c **** {
  29              		.loc 1 51 1 view -0
  30              		.cfi_startproc
  31              		@ args = 0, pretend = 0, frame = 0
  32              		@ frame_needed = 0, uses_anonymous_args = 0
  33              		.loc 1 51 1 is_stmt 0 view .LVU1
  34 0000 F0B5     		push	{r4, r5, r6, r7, lr}
  35              		.cfi_def_cfa_offset 20
  36              		.cfi_offset 4, -20
  37              		.cfi_offset 5, -16
  38              		.cfi_offset 6, -12
  39              		.cfi_offset 7, -8
  40              		.cfi_offset 14, -4
  41 0002 0D46     		mov	r5, r1
  52:Drivers/CMSIS/DSP/Source/MatrixFunctions/arm_mat_trans_q15.c ****   q15_t *pSrcA = pSrc->pData;                    /* input data matrix pointer */
  42              		.loc 1 52 3 is_stmt 1 view .LVU2
  43              		.loc 1 52 22 is_stmt 0 view .LVU3
  44 0004 4368     		ldr	r3, [r0, #4]
  45              	.LVL1:
  53:Drivers/CMSIS/DSP/Source/MatrixFunctions/arm_mat_trans_q15.c ****   q15_t *pOut = pDst->pData;                     /* output data matrix pointer */
  46              		.loc 1 53 3 is_stmt 1 view .LVU4
  54:Drivers/CMSIS/DSP/Source/MatrixFunctions/arm_mat_trans_q15.c ****   uint16_t nRows = pSrc->numRows;                /* number of nRows */
  47              		.loc 1 54 3 view .LVU5
  48              		.loc 1 54 12 is_stmt 0 view .LVU6
  49 0006 B0F800C0 		ldrh	ip, [r0]
  50              	.LVL2:
  55:Drivers/CMSIS/DSP/Source/MatrixFunctions/arm_mat_trans_q15.c ****   uint16_t nColumns = pSrc->numCols;             /* number of nColumns */
  51              		.loc 1 55 3 is_stmt 1 view .LVU7
  52              		.loc 1 55 12 is_stmt 0 view .LVU8
  53 000a 4488     		ldrh	r4, [r0, #2]
  54              	.LVL3:
  56:Drivers/CMSIS/DSP/Source/MatrixFunctions/arm_mat_trans_q15.c ****   uint16_t col, row = nRows, i = 0U;             /* row and column loop counters */
  55              		.loc 1 56 3 is_stmt 1 view .LVU9
  56              		.loc 1 56 17 is_stmt 0 view .LVU10
  57 000c 6146     		mov	r1, ip
  58              	.LVL4:
  59              		.loc 1 56 30 view .LVU11
ARM GAS  /var/folders/n6/c271nzx11xl4r4_m7sqjlt0m0000gn/T//ccMg2fLa.s 			page 3


  60 000e 4FF0000E 		mov	lr, #0
  61 0012 28E0     		b	.L6
  62              	.LVL5:
  63              	.L3:
  57:Drivers/CMSIS/DSP/Source/MatrixFunctions/arm_mat_trans_q15.c ****   arm_status status;                             /* status of matrix transpose */
  58:Drivers/CMSIS/DSP/Source/MatrixFunctions/arm_mat_trans_q15.c **** 
  59:Drivers/CMSIS/DSP/Source/MatrixFunctions/arm_mat_trans_q15.c **** #if defined (ARM_MATH_DSP)
  60:Drivers/CMSIS/DSP/Source/MatrixFunctions/arm_mat_trans_q15.c **** 
  61:Drivers/CMSIS/DSP/Source/MatrixFunctions/arm_mat_trans_q15.c ****   /* Run the below code for Cortex-M4 and Cortex-M3 */
  62:Drivers/CMSIS/DSP/Source/MatrixFunctions/arm_mat_trans_q15.c **** #ifndef UNALIGNED_SUPPORT_DISABLE
  63:Drivers/CMSIS/DSP/Source/MatrixFunctions/arm_mat_trans_q15.c **** 
  64:Drivers/CMSIS/DSP/Source/MatrixFunctions/arm_mat_trans_q15.c ****   q31_t in;                                      /* variable to hold temporary output  */
  65:Drivers/CMSIS/DSP/Source/MatrixFunctions/arm_mat_trans_q15.c **** 
  66:Drivers/CMSIS/DSP/Source/MatrixFunctions/arm_mat_trans_q15.c **** #else
  67:Drivers/CMSIS/DSP/Source/MatrixFunctions/arm_mat_trans_q15.c **** 
  68:Drivers/CMSIS/DSP/Source/MatrixFunctions/arm_mat_trans_q15.c ****   q15_t in;
  69:Drivers/CMSIS/DSP/Source/MatrixFunctions/arm_mat_trans_q15.c **** 
  70:Drivers/CMSIS/DSP/Source/MatrixFunctions/arm_mat_trans_q15.c **** #endif	/*	#ifndef UNALIGNED_SUPPORT_DISABLE	*/
  71:Drivers/CMSIS/DSP/Source/MatrixFunctions/arm_mat_trans_q15.c **** 
  72:Drivers/CMSIS/DSP/Source/MatrixFunctions/arm_mat_trans_q15.c **** #ifdef ARM_MATH_MATRIX_CHECK
  73:Drivers/CMSIS/DSP/Source/MatrixFunctions/arm_mat_trans_q15.c **** 
  74:Drivers/CMSIS/DSP/Source/MatrixFunctions/arm_mat_trans_q15.c **** 
  75:Drivers/CMSIS/DSP/Source/MatrixFunctions/arm_mat_trans_q15.c ****   /* Check for matrix mismatch condition */
  76:Drivers/CMSIS/DSP/Source/MatrixFunctions/arm_mat_trans_q15.c ****   if ((pSrc->numRows != pDst->numCols) || (pSrc->numCols != pDst->numRows))
  77:Drivers/CMSIS/DSP/Source/MatrixFunctions/arm_mat_trans_q15.c ****   {
  78:Drivers/CMSIS/DSP/Source/MatrixFunctions/arm_mat_trans_q15.c ****     /* Set status as ARM_MATH_SIZE_MISMATCH */
  79:Drivers/CMSIS/DSP/Source/MatrixFunctions/arm_mat_trans_q15.c ****     status = ARM_MATH_SIZE_MISMATCH;
  80:Drivers/CMSIS/DSP/Source/MatrixFunctions/arm_mat_trans_q15.c ****   }
  81:Drivers/CMSIS/DSP/Source/MatrixFunctions/arm_mat_trans_q15.c ****   else
  82:Drivers/CMSIS/DSP/Source/MatrixFunctions/arm_mat_trans_q15.c **** #endif /*      #ifdef ARM_MATH_MATRIX_CHECK    */
  83:Drivers/CMSIS/DSP/Source/MatrixFunctions/arm_mat_trans_q15.c **** 
  84:Drivers/CMSIS/DSP/Source/MatrixFunctions/arm_mat_trans_q15.c ****   {
  85:Drivers/CMSIS/DSP/Source/MatrixFunctions/arm_mat_trans_q15.c ****     /* Matrix transpose by exchanging the rows with columns */
  86:Drivers/CMSIS/DSP/Source/MatrixFunctions/arm_mat_trans_q15.c ****     /* row loop     */
  87:Drivers/CMSIS/DSP/Source/MatrixFunctions/arm_mat_trans_q15.c ****     do
  88:Drivers/CMSIS/DSP/Source/MatrixFunctions/arm_mat_trans_q15.c ****     {
  89:Drivers/CMSIS/DSP/Source/MatrixFunctions/arm_mat_trans_q15.c **** 
  90:Drivers/CMSIS/DSP/Source/MatrixFunctions/arm_mat_trans_q15.c ****       /* Apply loop unrolling and exchange the columns with row elements */
  91:Drivers/CMSIS/DSP/Source/MatrixFunctions/arm_mat_trans_q15.c ****       col = nColumns >> 2U;
  92:Drivers/CMSIS/DSP/Source/MatrixFunctions/arm_mat_trans_q15.c **** 
  93:Drivers/CMSIS/DSP/Source/MatrixFunctions/arm_mat_trans_q15.c ****       /* The pointer pOut is set to starting address of the column being processed */
  94:Drivers/CMSIS/DSP/Source/MatrixFunctions/arm_mat_trans_q15.c ****       pOut = pDst->pData + i;
  95:Drivers/CMSIS/DSP/Source/MatrixFunctions/arm_mat_trans_q15.c **** 
  96:Drivers/CMSIS/DSP/Source/MatrixFunctions/arm_mat_trans_q15.c ****       /* First part of the processing with loop unrolling.  Compute 4 outputs at a time.
  97:Drivers/CMSIS/DSP/Source/MatrixFunctions/arm_mat_trans_q15.c ****        ** a second loop below computes the remaining 1 to 3 samples. */
  98:Drivers/CMSIS/DSP/Source/MatrixFunctions/arm_mat_trans_q15.c ****       while (col > 0U)
  99:Drivers/CMSIS/DSP/Source/MatrixFunctions/arm_mat_trans_q15.c ****       {
 100:Drivers/CMSIS/DSP/Source/MatrixFunctions/arm_mat_trans_q15.c **** #ifndef UNALIGNED_SUPPORT_DISABLE
 101:Drivers/CMSIS/DSP/Source/MatrixFunctions/arm_mat_trans_q15.c **** 
 102:Drivers/CMSIS/DSP/Source/MatrixFunctions/arm_mat_trans_q15.c ****         /* Read two elements from the row */
 103:Drivers/CMSIS/DSP/Source/MatrixFunctions/arm_mat_trans_q15.c ****         in = *__SIMD32(pSrcA)++;
  64              		.loc 1 103 9 is_stmt 1 view .LVU12
  65              		.loc 1 103 12 is_stmt 0 view .LVU13
  66 0014 1F46     		mov	r7, r3
  67 0016 57F8080B 		ldr	r0, [r7], #8
  68              	.LVL6:
 104:Drivers/CMSIS/DSP/Source/MatrixFunctions/arm_mat_trans_q15.c **** 
ARM GAS  /var/folders/n6/c271nzx11xl4r4_m7sqjlt0m0000gn/T//ccMg2fLa.s 			page 4


 105:Drivers/CMSIS/DSP/Source/MatrixFunctions/arm_mat_trans_q15.c ****         /* Unpack and store one element in the destination */
 106:Drivers/CMSIS/DSP/Source/MatrixFunctions/arm_mat_trans_q15.c **** #ifndef ARM_MATH_BIG_ENDIAN
 107:Drivers/CMSIS/DSP/Source/MatrixFunctions/arm_mat_trans_q15.c **** 
 108:Drivers/CMSIS/DSP/Source/MatrixFunctions/arm_mat_trans_q15.c ****         *pOut = (q15_t) in;
  69              		.loc 1 108 9 is_stmt 1 view .LVU14
  70              		.loc 1 108 15 is_stmt 0 view .LVU15
  71 001a 3080     		strh	r0, [r6]	@ movhi
 109:Drivers/CMSIS/DSP/Source/MatrixFunctions/arm_mat_trans_q15.c **** 
 110:Drivers/CMSIS/DSP/Source/MatrixFunctions/arm_mat_trans_q15.c **** #else
 111:Drivers/CMSIS/DSP/Source/MatrixFunctions/arm_mat_trans_q15.c **** 
 112:Drivers/CMSIS/DSP/Source/MatrixFunctions/arm_mat_trans_q15.c ****         *pOut = (q15_t) ((in & (q31_t) 0xffff0000) >> 16);
 113:Drivers/CMSIS/DSP/Source/MatrixFunctions/arm_mat_trans_q15.c **** 
 114:Drivers/CMSIS/DSP/Source/MatrixFunctions/arm_mat_trans_q15.c **** #endif /*    #ifndef ARM_MATH_BIG_ENDIAN    */
 115:Drivers/CMSIS/DSP/Source/MatrixFunctions/arm_mat_trans_q15.c **** 
 116:Drivers/CMSIS/DSP/Source/MatrixFunctions/arm_mat_trans_q15.c ****         /* Update the pointer pOut to point to the next row of the transposed matrix */
 117:Drivers/CMSIS/DSP/Source/MatrixFunctions/arm_mat_trans_q15.c ****         pOut += nRows;
  72              		.loc 1 117 9 is_stmt 1 view .LVU16
  73              	.LVL7:
 118:Drivers/CMSIS/DSP/Source/MatrixFunctions/arm_mat_trans_q15.c **** 
 119:Drivers/CMSIS/DSP/Source/MatrixFunctions/arm_mat_trans_q15.c ****         /* Unpack and store the second element in the destination */
 120:Drivers/CMSIS/DSP/Source/MatrixFunctions/arm_mat_trans_q15.c **** 
 121:Drivers/CMSIS/DSP/Source/MatrixFunctions/arm_mat_trans_q15.c **** #ifndef ARM_MATH_BIG_ENDIAN
 122:Drivers/CMSIS/DSP/Source/MatrixFunctions/arm_mat_trans_q15.c **** 
 123:Drivers/CMSIS/DSP/Source/MatrixFunctions/arm_mat_trans_q15.c ****         *pOut = (q15_t) ((in & (q31_t) 0xffff0000) >> 16);
  74              		.loc 1 123 9 view .LVU17
  75              		.loc 1 123 17 is_stmt 0 view .LVU18
  76 001c 0014     		asrs	r0, r0, #16
  77              	.LVL8:
  78              		.loc 1 123 15 view .LVU19
  79 001e 26F81C00 		strh	r0, [r6, ip, lsl #1]	@ movhi
 124:Drivers/CMSIS/DSP/Source/MatrixFunctions/arm_mat_trans_q15.c **** 
 125:Drivers/CMSIS/DSP/Source/MatrixFunctions/arm_mat_trans_q15.c **** #else
 126:Drivers/CMSIS/DSP/Source/MatrixFunctions/arm_mat_trans_q15.c **** 
 127:Drivers/CMSIS/DSP/Source/MatrixFunctions/arm_mat_trans_q15.c ****         *pOut = (q15_t) in;
 128:Drivers/CMSIS/DSP/Source/MatrixFunctions/arm_mat_trans_q15.c **** 
 129:Drivers/CMSIS/DSP/Source/MatrixFunctions/arm_mat_trans_q15.c **** #endif /*    #ifndef ARM_MATH_BIG_ENDIAN    */
 130:Drivers/CMSIS/DSP/Source/MatrixFunctions/arm_mat_trans_q15.c **** 
 131:Drivers/CMSIS/DSP/Source/MatrixFunctions/arm_mat_trans_q15.c ****         /* Update the pointer pOut to point to the next row of the transposed matrix */
 132:Drivers/CMSIS/DSP/Source/MatrixFunctions/arm_mat_trans_q15.c ****         pOut += nRows;
  80              		.loc 1 132 9 is_stmt 1 view .LVU20
  81              		.loc 1 132 14 is_stmt 0 view .LVU21
  82 0022 06EB8C00 		add	r0, r6, ip, lsl #2
  83              	.LVL9:
 133:Drivers/CMSIS/DSP/Source/MatrixFunctions/arm_mat_trans_q15.c **** 
 134:Drivers/CMSIS/DSP/Source/MatrixFunctions/arm_mat_trans_q15.c ****         /* Read two elements from the row */
 135:Drivers/CMSIS/DSP/Source/MatrixFunctions/arm_mat_trans_q15.c **** #ifndef ARM_MATH_BIG_ENDIAN
 136:Drivers/CMSIS/DSP/Source/MatrixFunctions/arm_mat_trans_q15.c **** 
 137:Drivers/CMSIS/DSP/Source/MatrixFunctions/arm_mat_trans_q15.c ****         in = *__SIMD32(pSrcA)++;
  84              		.loc 1 137 9 is_stmt 1 view .LVU22
  85              		.loc 1 137 12 is_stmt 0 view .LVU23
  86 0026 5B68     		ldr	r3, [r3, #4]
  87              	.LVL10:
 138:Drivers/CMSIS/DSP/Source/MatrixFunctions/arm_mat_trans_q15.c **** 
 139:Drivers/CMSIS/DSP/Source/MatrixFunctions/arm_mat_trans_q15.c **** #else
 140:Drivers/CMSIS/DSP/Source/MatrixFunctions/arm_mat_trans_q15.c **** 
 141:Drivers/CMSIS/DSP/Source/MatrixFunctions/arm_mat_trans_q15.c ****         in = *__SIMD32(pSrcA)++;
 142:Drivers/CMSIS/DSP/Source/MatrixFunctions/arm_mat_trans_q15.c **** 
ARM GAS  /var/folders/n6/c271nzx11xl4r4_m7sqjlt0m0000gn/T//ccMg2fLa.s 			page 5


 143:Drivers/CMSIS/DSP/Source/MatrixFunctions/arm_mat_trans_q15.c **** #endif /*    #ifndef ARM_MATH_BIG_ENDIAN    */
 144:Drivers/CMSIS/DSP/Source/MatrixFunctions/arm_mat_trans_q15.c **** 
 145:Drivers/CMSIS/DSP/Source/MatrixFunctions/arm_mat_trans_q15.c ****         /* Unpack and store one element in the destination */
 146:Drivers/CMSIS/DSP/Source/MatrixFunctions/arm_mat_trans_q15.c **** #ifndef ARM_MATH_BIG_ENDIAN
 147:Drivers/CMSIS/DSP/Source/MatrixFunctions/arm_mat_trans_q15.c **** 
 148:Drivers/CMSIS/DSP/Source/MatrixFunctions/arm_mat_trans_q15.c ****         *pOut = (q15_t) in;
  88              		.loc 1 148 9 is_stmt 1 view .LVU24
  89              		.loc 1 148 15 is_stmt 0 view .LVU25
  90 0028 26F82C30 		strh	r3, [r6, ip, lsl #2]	@ movhi
 149:Drivers/CMSIS/DSP/Source/MatrixFunctions/arm_mat_trans_q15.c **** 
 150:Drivers/CMSIS/DSP/Source/MatrixFunctions/arm_mat_trans_q15.c **** #else
 151:Drivers/CMSIS/DSP/Source/MatrixFunctions/arm_mat_trans_q15.c **** 
 152:Drivers/CMSIS/DSP/Source/MatrixFunctions/arm_mat_trans_q15.c ****         *pOut = (q15_t) ((in & (q31_t) 0xffff0000) >> 16);
 153:Drivers/CMSIS/DSP/Source/MatrixFunctions/arm_mat_trans_q15.c **** 
 154:Drivers/CMSIS/DSP/Source/MatrixFunctions/arm_mat_trans_q15.c **** #endif /*    #ifndef ARM_MATH_BIG_ENDIAN    */
 155:Drivers/CMSIS/DSP/Source/MatrixFunctions/arm_mat_trans_q15.c **** 
 156:Drivers/CMSIS/DSP/Source/MatrixFunctions/arm_mat_trans_q15.c ****         /* Update the pointer pOut to point to the next row of the transposed matrix */
 157:Drivers/CMSIS/DSP/Source/MatrixFunctions/arm_mat_trans_q15.c ****         pOut += nRows;
  91              		.loc 1 157 9 is_stmt 1 view .LVU26
  92              	.LVL11:
 158:Drivers/CMSIS/DSP/Source/MatrixFunctions/arm_mat_trans_q15.c **** 
 159:Drivers/CMSIS/DSP/Source/MatrixFunctions/arm_mat_trans_q15.c ****         /* Unpack and store the second element in the destination */
 160:Drivers/CMSIS/DSP/Source/MatrixFunctions/arm_mat_trans_q15.c **** #ifndef ARM_MATH_BIG_ENDIAN
 161:Drivers/CMSIS/DSP/Source/MatrixFunctions/arm_mat_trans_q15.c **** 
 162:Drivers/CMSIS/DSP/Source/MatrixFunctions/arm_mat_trans_q15.c ****         *pOut = (q15_t) ((in & (q31_t) 0xffff0000) >> 16);
  93              		.loc 1 162 9 view .LVU27
  94              		.loc 1 162 17 is_stmt 0 view .LVU28
  95 002c 1B14     		asrs	r3, r3, #16
  96              	.LVL12:
  97              		.loc 1 162 15 view .LVU29
  98 002e 20F81C30 		strh	r3, [r0, ip, lsl #1]	@ movhi
 163:Drivers/CMSIS/DSP/Source/MatrixFunctions/arm_mat_trans_q15.c **** 
 164:Drivers/CMSIS/DSP/Source/MatrixFunctions/arm_mat_trans_q15.c **** #else
 165:Drivers/CMSIS/DSP/Source/MatrixFunctions/arm_mat_trans_q15.c **** 
 166:Drivers/CMSIS/DSP/Source/MatrixFunctions/arm_mat_trans_q15.c ****         *pOut = (q15_t) in;
 167:Drivers/CMSIS/DSP/Source/MatrixFunctions/arm_mat_trans_q15.c **** 
 168:Drivers/CMSIS/DSP/Source/MatrixFunctions/arm_mat_trans_q15.c **** #endif /*    #ifndef ARM_MATH_BIG_ENDIAN    */
 169:Drivers/CMSIS/DSP/Source/MatrixFunctions/arm_mat_trans_q15.c **** 
 170:Drivers/CMSIS/DSP/Source/MatrixFunctions/arm_mat_trans_q15.c **** #else
 171:Drivers/CMSIS/DSP/Source/MatrixFunctions/arm_mat_trans_q15.c ****         /* Read one element from the row */
 172:Drivers/CMSIS/DSP/Source/MatrixFunctions/arm_mat_trans_q15.c ****         in = *pSrcA++;
 173:Drivers/CMSIS/DSP/Source/MatrixFunctions/arm_mat_trans_q15.c **** 
 174:Drivers/CMSIS/DSP/Source/MatrixFunctions/arm_mat_trans_q15.c ****         /* Store one element in the destination */
 175:Drivers/CMSIS/DSP/Source/MatrixFunctions/arm_mat_trans_q15.c ****         *pOut = in;
 176:Drivers/CMSIS/DSP/Source/MatrixFunctions/arm_mat_trans_q15.c **** 
 177:Drivers/CMSIS/DSP/Source/MatrixFunctions/arm_mat_trans_q15.c ****         /* Update the pointer px to point to the next row of the transposed matrix */
 178:Drivers/CMSIS/DSP/Source/MatrixFunctions/arm_mat_trans_q15.c ****         pOut += nRows;
 179:Drivers/CMSIS/DSP/Source/MatrixFunctions/arm_mat_trans_q15.c **** 
 180:Drivers/CMSIS/DSP/Source/MatrixFunctions/arm_mat_trans_q15.c ****         /* Read one element from the row */
 181:Drivers/CMSIS/DSP/Source/MatrixFunctions/arm_mat_trans_q15.c ****         in = *pSrcA++;
 182:Drivers/CMSIS/DSP/Source/MatrixFunctions/arm_mat_trans_q15.c **** 
 183:Drivers/CMSIS/DSP/Source/MatrixFunctions/arm_mat_trans_q15.c ****         /* Store one element in the destination */
 184:Drivers/CMSIS/DSP/Source/MatrixFunctions/arm_mat_trans_q15.c ****         *pOut = in;
 185:Drivers/CMSIS/DSP/Source/MatrixFunctions/arm_mat_trans_q15.c **** 
 186:Drivers/CMSIS/DSP/Source/MatrixFunctions/arm_mat_trans_q15.c ****         /* Update the pointer px to point to the next row of the transposed matrix */
 187:Drivers/CMSIS/DSP/Source/MatrixFunctions/arm_mat_trans_q15.c ****         pOut += nRows;
 188:Drivers/CMSIS/DSP/Source/MatrixFunctions/arm_mat_trans_q15.c **** 
ARM GAS  /var/folders/n6/c271nzx11xl4r4_m7sqjlt0m0000gn/T//ccMg2fLa.s 			page 6


 189:Drivers/CMSIS/DSP/Source/MatrixFunctions/arm_mat_trans_q15.c ****         /* Read one element from the row */
 190:Drivers/CMSIS/DSP/Source/MatrixFunctions/arm_mat_trans_q15.c ****         in = *pSrcA++;
 191:Drivers/CMSIS/DSP/Source/MatrixFunctions/arm_mat_trans_q15.c **** 
 192:Drivers/CMSIS/DSP/Source/MatrixFunctions/arm_mat_trans_q15.c ****         /* Store one element in the destination */
 193:Drivers/CMSIS/DSP/Source/MatrixFunctions/arm_mat_trans_q15.c ****         *pOut = in;
 194:Drivers/CMSIS/DSP/Source/MatrixFunctions/arm_mat_trans_q15.c **** 
 195:Drivers/CMSIS/DSP/Source/MatrixFunctions/arm_mat_trans_q15.c ****         /* Update the pointer px to point to the next row of the transposed matrix */
 196:Drivers/CMSIS/DSP/Source/MatrixFunctions/arm_mat_trans_q15.c ****         pOut += nRows;
 197:Drivers/CMSIS/DSP/Source/MatrixFunctions/arm_mat_trans_q15.c **** 
 198:Drivers/CMSIS/DSP/Source/MatrixFunctions/arm_mat_trans_q15.c ****         /* Read one element from the row */
 199:Drivers/CMSIS/DSP/Source/MatrixFunctions/arm_mat_trans_q15.c ****         in = *pSrcA++;
 200:Drivers/CMSIS/DSP/Source/MatrixFunctions/arm_mat_trans_q15.c **** 
 201:Drivers/CMSIS/DSP/Source/MatrixFunctions/arm_mat_trans_q15.c ****         /* Store one element in the destination */
 202:Drivers/CMSIS/DSP/Source/MatrixFunctions/arm_mat_trans_q15.c ****         *pOut = in;
 203:Drivers/CMSIS/DSP/Source/MatrixFunctions/arm_mat_trans_q15.c **** 
 204:Drivers/CMSIS/DSP/Source/MatrixFunctions/arm_mat_trans_q15.c **** #endif	/*	#ifndef UNALIGNED_SUPPORT_DISABLE	*/
 205:Drivers/CMSIS/DSP/Source/MatrixFunctions/arm_mat_trans_q15.c **** 
 206:Drivers/CMSIS/DSP/Source/MatrixFunctions/arm_mat_trans_q15.c ****         /* Update the pointer pOut to point to the next row of the transposed matrix */
 207:Drivers/CMSIS/DSP/Source/MatrixFunctions/arm_mat_trans_q15.c ****         pOut += nRows;
  99              		.loc 1 207 9 is_stmt 1 view .LVU30
 100              		.loc 1 207 14 is_stmt 0 view .LVU31
 101 0032 00EB8C06 		add	r6, r0, ip, lsl #2
 102              	.LVL13:
 208:Drivers/CMSIS/DSP/Source/MatrixFunctions/arm_mat_trans_q15.c **** 
 209:Drivers/CMSIS/DSP/Source/MatrixFunctions/arm_mat_trans_q15.c ****         /* Decrement the column loop counter */
 210:Drivers/CMSIS/DSP/Source/MatrixFunctions/arm_mat_trans_q15.c ****         col--;
 103              		.loc 1 210 9 is_stmt 1 view .LVU32
 104              		.loc 1 210 12 is_stmt 0 view .LVU33
 105 0036 013A     		subs	r2, r2, #1
 106              	.LVL14:
 107              		.loc 1 210 12 view .LVU34
 108 0038 92B2     		uxth	r2, r2
 109              	.LVL15:
 137:Drivers/CMSIS/DSP/Source/MatrixFunctions/arm_mat_trans_q15.c **** 
 110              		.loc 1 137 30 view .LVU35
 111 003a 3B46     		mov	r3, r7
 112              	.LVL16:
 113              	.L2:
  98:Drivers/CMSIS/DSP/Source/MatrixFunctions/arm_mat_trans_q15.c ****       {
 114              		.loc 1 98 18 is_stmt 1 view .LVU36
 115 003c 002A     		cmp	r2, #0
 116 003e E9D1     		bne	.L3
 211:Drivers/CMSIS/DSP/Source/MatrixFunctions/arm_mat_trans_q15.c ****       }
 212:Drivers/CMSIS/DSP/Source/MatrixFunctions/arm_mat_trans_q15.c **** 
 213:Drivers/CMSIS/DSP/Source/MatrixFunctions/arm_mat_trans_q15.c ****       /* Perform matrix transpose for last 3 samples here. */
 214:Drivers/CMSIS/DSP/Source/MatrixFunctions/arm_mat_trans_q15.c ****       col = nColumns % 0x4U;
 117              		.loc 1 214 7 view .LVU37
 118              		.loc 1 214 11 is_stmt 0 view .LVU38
 119 0040 04F00302 		and	r2, r4, #3
 120              	.LVL17:
 215:Drivers/CMSIS/DSP/Source/MatrixFunctions/arm_mat_trans_q15.c **** 
 216:Drivers/CMSIS/DSP/Source/MatrixFunctions/arm_mat_trans_q15.c **** #else
 217:Drivers/CMSIS/DSP/Source/MatrixFunctions/arm_mat_trans_q15.c **** 
 218:Drivers/CMSIS/DSP/Source/MatrixFunctions/arm_mat_trans_q15.c ****   /* Run the below code for Cortex-M0 */
 219:Drivers/CMSIS/DSP/Source/MatrixFunctions/arm_mat_trans_q15.c **** 
 220:Drivers/CMSIS/DSP/Source/MatrixFunctions/arm_mat_trans_q15.c **** #ifdef ARM_MATH_MATRIX_CHECK
 221:Drivers/CMSIS/DSP/Source/MatrixFunctions/arm_mat_trans_q15.c **** 
ARM GAS  /var/folders/n6/c271nzx11xl4r4_m7sqjlt0m0000gn/T//ccMg2fLa.s 			page 7


 222:Drivers/CMSIS/DSP/Source/MatrixFunctions/arm_mat_trans_q15.c ****   /* Check for matrix mismatch condition */
 223:Drivers/CMSIS/DSP/Source/MatrixFunctions/arm_mat_trans_q15.c ****   if ((pSrc->numRows != pDst->numCols) || (pSrc->numCols != pDst->numRows))
 224:Drivers/CMSIS/DSP/Source/MatrixFunctions/arm_mat_trans_q15.c ****   {
 225:Drivers/CMSIS/DSP/Source/MatrixFunctions/arm_mat_trans_q15.c ****     /* Set status as ARM_MATH_SIZE_MISMATCH */
 226:Drivers/CMSIS/DSP/Source/MatrixFunctions/arm_mat_trans_q15.c ****     status = ARM_MATH_SIZE_MISMATCH;
 227:Drivers/CMSIS/DSP/Source/MatrixFunctions/arm_mat_trans_q15.c ****   }
 228:Drivers/CMSIS/DSP/Source/MatrixFunctions/arm_mat_trans_q15.c ****   else
 229:Drivers/CMSIS/DSP/Source/MatrixFunctions/arm_mat_trans_q15.c **** #endif /*    #ifdef ARM_MATH_MATRIX_CHECK    */
 230:Drivers/CMSIS/DSP/Source/MatrixFunctions/arm_mat_trans_q15.c **** 
 231:Drivers/CMSIS/DSP/Source/MatrixFunctions/arm_mat_trans_q15.c ****   {
 232:Drivers/CMSIS/DSP/Source/MatrixFunctions/arm_mat_trans_q15.c ****     /* Matrix transpose by exchanging the rows with columns */
 233:Drivers/CMSIS/DSP/Source/MatrixFunctions/arm_mat_trans_q15.c ****     /* row loop     */
 234:Drivers/CMSIS/DSP/Source/MatrixFunctions/arm_mat_trans_q15.c ****     do
 235:Drivers/CMSIS/DSP/Source/MatrixFunctions/arm_mat_trans_q15.c ****     {
 236:Drivers/CMSIS/DSP/Source/MatrixFunctions/arm_mat_trans_q15.c ****       /* The pointer pOut is set to starting address of the column being processed */
 237:Drivers/CMSIS/DSP/Source/MatrixFunctions/arm_mat_trans_q15.c ****       pOut = pDst->pData + i;
 238:Drivers/CMSIS/DSP/Source/MatrixFunctions/arm_mat_trans_q15.c **** 
 239:Drivers/CMSIS/DSP/Source/MatrixFunctions/arm_mat_trans_q15.c ****       /* Initialize column loop counter */
 240:Drivers/CMSIS/DSP/Source/MatrixFunctions/arm_mat_trans_q15.c ****       col = nColumns;
 241:Drivers/CMSIS/DSP/Source/MatrixFunctions/arm_mat_trans_q15.c **** 
 242:Drivers/CMSIS/DSP/Source/MatrixFunctions/arm_mat_trans_q15.c **** #endif /* #if defined (ARM_MATH_DSP) */
 243:Drivers/CMSIS/DSP/Source/MatrixFunctions/arm_mat_trans_q15.c **** 
 244:Drivers/CMSIS/DSP/Source/MatrixFunctions/arm_mat_trans_q15.c ****       while (col > 0U)
 121              		.loc 1 244 7 is_stmt 1 view .LVU39
 122              		.loc 1 244 13 is_stmt 0 view .LVU40
 123 0044 06E0     		b	.L4
 124              	.L5:
 245:Drivers/CMSIS/DSP/Source/MatrixFunctions/arm_mat_trans_q15.c ****       {
 246:Drivers/CMSIS/DSP/Source/MatrixFunctions/arm_mat_trans_q15.c ****         /* Read and store the input element in the destination */
 247:Drivers/CMSIS/DSP/Source/MatrixFunctions/arm_mat_trans_q15.c ****         *pOut = *pSrcA++;
 125              		.loc 1 247 9 is_stmt 1 view .LVU41
 126              	.LVL18:
 127              		.loc 1 247 17 is_stmt 0 view .LVU42
 128 0046 33F9020B 		ldrsh	r0, [r3], #2
 129              	.LVL19:
 130              		.loc 1 247 15 view .LVU43
 131 004a 3080     		strh	r0, [r6]	@ movhi
 248:Drivers/CMSIS/DSP/Source/MatrixFunctions/arm_mat_trans_q15.c **** 
 249:Drivers/CMSIS/DSP/Source/MatrixFunctions/arm_mat_trans_q15.c ****         /* Update the pointer pOut to point to the next row of the transposed matrix */
 250:Drivers/CMSIS/DSP/Source/MatrixFunctions/arm_mat_trans_q15.c ****         pOut += nRows;
 132              		.loc 1 250 9 is_stmt 1 view .LVU44
 133              		.loc 1 250 14 is_stmt 0 view .LVU45
 134 004c 06EB4C06 		add	r6, r6, ip, lsl #1
 135              	.LVL20:
 251:Drivers/CMSIS/DSP/Source/MatrixFunctions/arm_mat_trans_q15.c **** 
 252:Drivers/CMSIS/DSP/Source/MatrixFunctions/arm_mat_trans_q15.c ****         /* Decrement the column loop counter */
 253:Drivers/CMSIS/DSP/Source/MatrixFunctions/arm_mat_trans_q15.c ****         col--;
 136              		.loc 1 253 9 is_stmt 1 view .LVU46
 137              		.loc 1 253 12 is_stmt 0 view .LVU47
 138 0050 013A     		subs	r2, r2, #1
 139              	.LVL21:
 140              		.loc 1 253 12 view .LVU48
 141 0052 92B2     		uxth	r2, r2
 142              	.LVL22:
 143              	.L4:
 244:Drivers/CMSIS/DSP/Source/MatrixFunctions/arm_mat_trans_q15.c ****       {
 144              		.loc 1 244 18 is_stmt 1 view .LVU49
ARM GAS  /var/folders/n6/c271nzx11xl4r4_m7sqjlt0m0000gn/T//ccMg2fLa.s 			page 8


 145 0054 002A     		cmp	r2, #0
 146 0056 F6D1     		bne	.L5
 254:Drivers/CMSIS/DSP/Source/MatrixFunctions/arm_mat_trans_q15.c ****       }
 255:Drivers/CMSIS/DSP/Source/MatrixFunctions/arm_mat_trans_q15.c **** 
 256:Drivers/CMSIS/DSP/Source/MatrixFunctions/arm_mat_trans_q15.c ****       i++;
 147              		.loc 1 256 7 view .LVU50
 148              		.loc 1 256 8 is_stmt 0 view .LVU51
 149 0058 0EF1010E 		add	lr, lr, #1
 150              	.LVL23:
 151              		.loc 1 256 8 view .LVU52
 152 005c 1FFA8EFE 		uxth	lr, lr
 153              	.LVL24:
 257:Drivers/CMSIS/DSP/Source/MatrixFunctions/arm_mat_trans_q15.c **** 
 258:Drivers/CMSIS/DSP/Source/MatrixFunctions/arm_mat_trans_q15.c ****       /* Decrement the row loop counter */
 259:Drivers/CMSIS/DSP/Source/MatrixFunctions/arm_mat_trans_q15.c ****       row--;
 154              		.loc 1 259 7 is_stmt 1 view .LVU53
 155              		.loc 1 259 10 is_stmt 0 view .LVU54
 156 0060 0139     		subs	r1, r1, #1
 157              	.LVL25:
 158              		.loc 1 259 10 view .LVU55
 159 0062 89B2     		uxth	r1, r1
 160              	.LVL26:
 260:Drivers/CMSIS/DSP/Source/MatrixFunctions/arm_mat_trans_q15.c **** 
 261:Drivers/CMSIS/DSP/Source/MatrixFunctions/arm_mat_trans_q15.c ****     } while (row > 0U);
 161              		.loc 1 261 18 is_stmt 1 view .LVU56
 162 0064 21B1     		cbz	r1, .L8
 163              	.LVL27:
 164              	.L6:
  57:Drivers/CMSIS/DSP/Source/MatrixFunctions/arm_mat_trans_q15.c **** 
 165              		.loc 1 57 3 view .LVU57
  64:Drivers/CMSIS/DSP/Source/MatrixFunctions/arm_mat_trans_q15.c **** 
 166              		.loc 1 64 3 view .LVU58
  87:Drivers/CMSIS/DSP/Source/MatrixFunctions/arm_mat_trans_q15.c ****     {
 167              		.loc 1 87 5 view .LVU59
  91:Drivers/CMSIS/DSP/Source/MatrixFunctions/arm_mat_trans_q15.c **** 
 168              		.loc 1 91 7 view .LVU60
  91:Drivers/CMSIS/DSP/Source/MatrixFunctions/arm_mat_trans_q15.c **** 
 169              		.loc 1 91 11 is_stmt 0 view .LVU61
 170 0066 A208     		lsrs	r2, r4, #2
 171              	.LVL28:
  94:Drivers/CMSIS/DSP/Source/MatrixFunctions/arm_mat_trans_q15.c **** 
 172              		.loc 1 94 7 is_stmt 1 view .LVU62
  94:Drivers/CMSIS/DSP/Source/MatrixFunctions/arm_mat_trans_q15.c **** 
 173              		.loc 1 94 18 is_stmt 0 view .LVU63
 174 0068 6E68     		ldr	r6, [r5, #4]
  94:Drivers/CMSIS/DSP/Source/MatrixFunctions/arm_mat_trans_q15.c **** 
 175              		.loc 1 94 12 view .LVU64
 176 006a 06EB4E06 		add	r6, r6, lr, lsl #1
 177              	.LVL29:
  98:Drivers/CMSIS/DSP/Source/MatrixFunctions/arm_mat_trans_q15.c ****       {
 178              		.loc 1 98 7 is_stmt 1 view .LVU65
  98:Drivers/CMSIS/DSP/Source/MatrixFunctions/arm_mat_trans_q15.c ****       {
 179              		.loc 1 98 13 is_stmt 0 view .LVU66
 180 006e E5E7     		b	.L2
 181              	.L8:
 262:Drivers/CMSIS/DSP/Source/MatrixFunctions/arm_mat_trans_q15.c **** 
 263:Drivers/CMSIS/DSP/Source/MatrixFunctions/arm_mat_trans_q15.c ****     /* set status as ARM_MATH_SUCCESS */
ARM GAS  /var/folders/n6/c271nzx11xl4r4_m7sqjlt0m0000gn/T//ccMg2fLa.s 			page 9


 264:Drivers/CMSIS/DSP/Source/MatrixFunctions/arm_mat_trans_q15.c ****     status = ARM_MATH_SUCCESS;
 182              		.loc 1 264 5 is_stmt 1 view .LVU67
 183              	.LVL30:
 265:Drivers/CMSIS/DSP/Source/MatrixFunctions/arm_mat_trans_q15.c ****   }
 266:Drivers/CMSIS/DSP/Source/MatrixFunctions/arm_mat_trans_q15.c ****   /* Return to application */
 267:Drivers/CMSIS/DSP/Source/MatrixFunctions/arm_mat_trans_q15.c ****   return (status);
 184              		.loc 1 267 3 view .LVU68
 268:Drivers/CMSIS/DSP/Source/MatrixFunctions/arm_mat_trans_q15.c **** }
 185              		.loc 1 268 1 is_stmt 0 view .LVU69
 186 0070 0020     		movs	r0, #0
 187 0072 F0BD     		pop	{r4, r5, r6, r7, pc}
 188              		.loc 1 268 1 view .LVU70
 189              		.cfi_endproc
 190              	.LFE135:
 192              		.text
 193              	.Letext0:
 194              		.file 2 "/Users/killian/Library/Application Support/Code/User/globalStorage/bmd.stm32-for-vscode/@
 195              		.file 3 "/Users/killian/Library/Application Support/Code/User/globalStorage/bmd.stm32-for-vscode/@
 196              		.file 4 "Drivers/CMSIS/DSP/Include/arm_math.h"
ARM GAS  /var/folders/n6/c271nzx11xl4r4_m7sqjlt0m0000gn/T//ccMg2fLa.s 			page 10

