ARM GAS  /var/folders/n6/c271nzx11xl4r4_m7sqjlt0m0000gn/T//ccVW6oJ9.s 			page 1


   1              		.cpu cortex-m7
   2              		.arch armv7e-m
   3              		.fpu fpv5-d16
   4              		.eabi_attribute 28, 1
   5              		.eabi_attribute 20, 1
   6              		.eabi_attribute 21, 1
   7              		.eabi_attribute 23, 3
   8              		.eabi_attribute 24, 1
   9              		.eabi_attribute 25, 1
  10              		.eabi_attribute 26, 1
  11              		.eabi_attribute 30, 1
  12              		.eabi_attribute 34, 1
  13              		.eabi_attribute 18, 4
  14              		.file	"arm_std_q31.c"
  15              		.text
  16              	.Ltext0:
  17              		.cfi_sections	.debug_frame
  18              		.file 1 "Drivers/CMSIS/DSP/Source/StatisticsFunctions/arm_std_q31.c"
  19              		.global	__aeabi_ldivmod
  20              		.section	.text.arm_std_q31,"ax",%progbits
  21              		.align	1
  22              		.global	arm_std_q31
  23              		.syntax unified
  24              		.thumb
  25              		.thumb_func
  27              	arm_std_q31:
  28              	.LVL0:
  29              	.LFB135:
   1:Drivers/CMSIS/DSP/Source/StatisticsFunctions/arm_std_q31.c **** /* ----------------------------------------------------------------------
   2:Drivers/CMSIS/DSP/Source/StatisticsFunctions/arm_std_q31.c ****  * Project:      CMSIS DSP Library
   3:Drivers/CMSIS/DSP/Source/StatisticsFunctions/arm_std_q31.c ****  * Title:        arm_std_q31.c
   4:Drivers/CMSIS/DSP/Source/StatisticsFunctions/arm_std_q31.c ****  * Description:  Standard deviation of an array of Q31 type.
   5:Drivers/CMSIS/DSP/Source/StatisticsFunctions/arm_std_q31.c ****  *
   6:Drivers/CMSIS/DSP/Source/StatisticsFunctions/arm_std_q31.c ****  * $Date:        27. January 2017
   7:Drivers/CMSIS/DSP/Source/StatisticsFunctions/arm_std_q31.c ****  * $Revision:    V.1.5.1
   8:Drivers/CMSIS/DSP/Source/StatisticsFunctions/arm_std_q31.c ****  *
   9:Drivers/CMSIS/DSP/Source/StatisticsFunctions/arm_std_q31.c ****  * Target Processor: Cortex-M cores
  10:Drivers/CMSIS/DSP/Source/StatisticsFunctions/arm_std_q31.c ****  * -------------------------------------------------------------------- */
  11:Drivers/CMSIS/DSP/Source/StatisticsFunctions/arm_std_q31.c **** /*
  12:Drivers/CMSIS/DSP/Source/StatisticsFunctions/arm_std_q31.c ****  * Copyright (C) 2010-2017 ARM Limited or its affiliates. All rights reserved.
  13:Drivers/CMSIS/DSP/Source/StatisticsFunctions/arm_std_q31.c ****  *
  14:Drivers/CMSIS/DSP/Source/StatisticsFunctions/arm_std_q31.c ****  * SPDX-License-Identifier: Apache-2.0
  15:Drivers/CMSIS/DSP/Source/StatisticsFunctions/arm_std_q31.c ****  *
  16:Drivers/CMSIS/DSP/Source/StatisticsFunctions/arm_std_q31.c ****  * Licensed under the Apache License, Version 2.0 (the License); you may
  17:Drivers/CMSIS/DSP/Source/StatisticsFunctions/arm_std_q31.c ****  * not use this file except in compliance with the License.
  18:Drivers/CMSIS/DSP/Source/StatisticsFunctions/arm_std_q31.c ****  * You may obtain a copy of the License at
  19:Drivers/CMSIS/DSP/Source/StatisticsFunctions/arm_std_q31.c ****  *
  20:Drivers/CMSIS/DSP/Source/StatisticsFunctions/arm_std_q31.c ****  * www.apache.org/licenses/LICENSE-2.0
  21:Drivers/CMSIS/DSP/Source/StatisticsFunctions/arm_std_q31.c ****  *
  22:Drivers/CMSIS/DSP/Source/StatisticsFunctions/arm_std_q31.c ****  * Unless required by applicable law or agreed to in writing, software
  23:Drivers/CMSIS/DSP/Source/StatisticsFunctions/arm_std_q31.c ****  * distributed under the License is distributed on an AS IS BASIS, WITHOUT
  24:Drivers/CMSIS/DSP/Source/StatisticsFunctions/arm_std_q31.c ****  * WARRANTIES OR CONDITIONS OF ANY KIND, either express or implied.
  25:Drivers/CMSIS/DSP/Source/StatisticsFunctions/arm_std_q31.c ****  * See the License for the specific language governing permissions and
  26:Drivers/CMSIS/DSP/Source/StatisticsFunctions/arm_std_q31.c ****  * limitations under the License.
  27:Drivers/CMSIS/DSP/Source/StatisticsFunctions/arm_std_q31.c ****  */
  28:Drivers/CMSIS/DSP/Source/StatisticsFunctions/arm_std_q31.c **** 
  29:Drivers/CMSIS/DSP/Source/StatisticsFunctions/arm_std_q31.c **** #include "arm_math.h"
ARM GAS  /var/folders/n6/c271nzx11xl4r4_m7sqjlt0m0000gn/T//ccVW6oJ9.s 			page 2


  30:Drivers/CMSIS/DSP/Source/StatisticsFunctions/arm_std_q31.c **** 
  31:Drivers/CMSIS/DSP/Source/StatisticsFunctions/arm_std_q31.c **** /**
  32:Drivers/CMSIS/DSP/Source/StatisticsFunctions/arm_std_q31.c ****  * @ingroup groupStats
  33:Drivers/CMSIS/DSP/Source/StatisticsFunctions/arm_std_q31.c ****  */
  34:Drivers/CMSIS/DSP/Source/StatisticsFunctions/arm_std_q31.c **** 
  35:Drivers/CMSIS/DSP/Source/StatisticsFunctions/arm_std_q31.c **** /**
  36:Drivers/CMSIS/DSP/Source/StatisticsFunctions/arm_std_q31.c ****  * @addtogroup STD
  37:Drivers/CMSIS/DSP/Source/StatisticsFunctions/arm_std_q31.c ****  * @{
  38:Drivers/CMSIS/DSP/Source/StatisticsFunctions/arm_std_q31.c ****  */
  39:Drivers/CMSIS/DSP/Source/StatisticsFunctions/arm_std_q31.c **** 
  40:Drivers/CMSIS/DSP/Source/StatisticsFunctions/arm_std_q31.c **** /**
  41:Drivers/CMSIS/DSP/Source/StatisticsFunctions/arm_std_q31.c ****  * @brief Standard deviation of the elements of a Q31 vector.
  42:Drivers/CMSIS/DSP/Source/StatisticsFunctions/arm_std_q31.c ****  * @param[in]       *pSrc points to the input vector
  43:Drivers/CMSIS/DSP/Source/StatisticsFunctions/arm_std_q31.c ****  * @param[in]       blockSize length of the input vector
  44:Drivers/CMSIS/DSP/Source/StatisticsFunctions/arm_std_q31.c ****  * @param[out]      *pResult standard deviation value returned here
  45:Drivers/CMSIS/DSP/Source/StatisticsFunctions/arm_std_q31.c ****  * @return none.
  46:Drivers/CMSIS/DSP/Source/StatisticsFunctions/arm_std_q31.c ****  * @details
  47:Drivers/CMSIS/DSP/Source/StatisticsFunctions/arm_std_q31.c ****  * <b>Scaling and Overflow Behavior:</b>
  48:Drivers/CMSIS/DSP/Source/StatisticsFunctions/arm_std_q31.c ****  *
  49:Drivers/CMSIS/DSP/Source/StatisticsFunctions/arm_std_q31.c ****  *\par
  50:Drivers/CMSIS/DSP/Source/StatisticsFunctions/arm_std_q31.c ****  * The function is implemented using an internal 64-bit accumulator.
  51:Drivers/CMSIS/DSP/Source/StatisticsFunctions/arm_std_q31.c ****  * The input is represented in 1.31 format, which is then downshifted by 8 bits
  52:Drivers/CMSIS/DSP/Source/StatisticsFunctions/arm_std_q31.c ****  * which yields 1.23, and intermediate multiplication yields a 2.46 format.
  53:Drivers/CMSIS/DSP/Source/StatisticsFunctions/arm_std_q31.c ****  * The accumulator maintains full precision of the intermediate multiplication results,
  54:Drivers/CMSIS/DSP/Source/StatisticsFunctions/arm_std_q31.c ****  * but provides only a 16 guard bits.
  55:Drivers/CMSIS/DSP/Source/StatisticsFunctions/arm_std_q31.c ****  * There is no saturation on intermediate additions.
  56:Drivers/CMSIS/DSP/Source/StatisticsFunctions/arm_std_q31.c ****  * If the accumulator overflows it wraps around and distorts the result.
  57:Drivers/CMSIS/DSP/Source/StatisticsFunctions/arm_std_q31.c ****  * In order to avoid overflows completely the input signal must be scaled down by
  58:Drivers/CMSIS/DSP/Source/StatisticsFunctions/arm_std_q31.c ****  * log2(blockSize)-8 bits, as a total of blockSize additions are performed internally.
  59:Drivers/CMSIS/DSP/Source/StatisticsFunctions/arm_std_q31.c ****  * After division, internal variables should be Q18.46
  60:Drivers/CMSIS/DSP/Source/StatisticsFunctions/arm_std_q31.c ****  * Finally, the 18.46 accumulator is right shifted by 15 bits to yield a 1.31 format value.
  61:Drivers/CMSIS/DSP/Source/StatisticsFunctions/arm_std_q31.c ****  *
  62:Drivers/CMSIS/DSP/Source/StatisticsFunctions/arm_std_q31.c ****  */
  63:Drivers/CMSIS/DSP/Source/StatisticsFunctions/arm_std_q31.c **** 
  64:Drivers/CMSIS/DSP/Source/StatisticsFunctions/arm_std_q31.c **** void arm_std_q31(
  65:Drivers/CMSIS/DSP/Source/StatisticsFunctions/arm_std_q31.c ****   q31_t * pSrc,
  66:Drivers/CMSIS/DSP/Source/StatisticsFunctions/arm_std_q31.c ****   uint32_t blockSize,
  67:Drivers/CMSIS/DSP/Source/StatisticsFunctions/arm_std_q31.c ****   q31_t * pResult)
  68:Drivers/CMSIS/DSP/Source/StatisticsFunctions/arm_std_q31.c **** {
  30              		.loc 1 68 1 view -0
  31              		.cfi_startproc
  32              		@ args = 0, pretend = 0, frame = 8
  33              		@ frame_needed = 0, uses_anonymous_args = 0
  34              		.loc 1 68 1 is_stmt 0 view .LVU1
  35 0000 2DE9F04F 		push	{r4, r5, r6, r7, r8, r9, r10, fp, lr}
  36              		.cfi_def_cfa_offset 36
  37              		.cfi_offset 4, -36
  38              		.cfi_offset 5, -32
  39              		.cfi_offset 6, -28
  40              		.cfi_offset 7, -24
  41              		.cfi_offset 8, -20
  42              		.cfi_offset 9, -16
  43              		.cfi_offset 10, -12
  44              		.cfi_offset 11, -8
  45              		.cfi_offset 14, -4
  46 0004 83B0     		sub	sp, sp, #12
  47              		.cfi_def_cfa_offset 48
ARM GAS  /var/folders/n6/c271nzx11xl4r4_m7sqjlt0m0000gn/T//ccVW6oJ9.s 			page 3


  48 0006 0192     		str	r2, [sp, #4]
  69:Drivers/CMSIS/DSP/Source/StatisticsFunctions/arm_std_q31.c ****   q63_t sum = 0;                                 /* Accumulator */
  49              		.loc 1 69 3 is_stmt 1 view .LVU2
  50              	.LVL1:
  70:Drivers/CMSIS/DSP/Source/StatisticsFunctions/arm_std_q31.c ****   q63_t meanOfSquares, squareOfMean;             /* square of mean and mean of square */
  51              		.loc 1 70 3 view .LVU3
  71:Drivers/CMSIS/DSP/Source/StatisticsFunctions/arm_std_q31.c ****   q31_t in;                                      /* input value */
  52              		.loc 1 71 3 view .LVU4
  72:Drivers/CMSIS/DSP/Source/StatisticsFunctions/arm_std_q31.c ****   uint32_t blkCnt;                               /* loop counter */
  53              		.loc 1 72 3 view .LVU5
  73:Drivers/CMSIS/DSP/Source/StatisticsFunctions/arm_std_q31.c ****   q63_t sumOfSquares = 0;                        /* Accumulator */
  54              		.loc 1 73 3 view .LVU6
  74:Drivers/CMSIS/DSP/Source/StatisticsFunctions/arm_std_q31.c **** 
  75:Drivers/CMSIS/DSP/Source/StatisticsFunctions/arm_std_q31.c ****   if (blockSize == 1U)
  55              		.loc 1 75 3 view .LVU7
  56              		.loc 1 75 6 is_stmt 0 view .LVU8
  57 0008 0129     		cmp	r1, #1
  58 000a 08D0     		beq	.L9
  59 000c 8646     		mov	lr, r0
  60 000e 0E46     		mov	r6, r1
  76:Drivers/CMSIS/DSP/Source/StatisticsFunctions/arm_std_q31.c ****   {
  77:Drivers/CMSIS/DSP/Source/StatisticsFunctions/arm_std_q31.c ****     *pResult = 0;
  78:Drivers/CMSIS/DSP/Source/StatisticsFunctions/arm_std_q31.c ****     return;
  79:Drivers/CMSIS/DSP/Source/StatisticsFunctions/arm_std_q31.c ****   }
  80:Drivers/CMSIS/DSP/Source/StatisticsFunctions/arm_std_q31.c **** 
  81:Drivers/CMSIS/DSP/Source/StatisticsFunctions/arm_std_q31.c **** #if defined (ARM_MATH_DSP)
  82:Drivers/CMSIS/DSP/Source/StatisticsFunctions/arm_std_q31.c ****   /* Run the below code for Cortex-M4 and Cortex-M3 */
  83:Drivers/CMSIS/DSP/Source/StatisticsFunctions/arm_std_q31.c **** 
  84:Drivers/CMSIS/DSP/Source/StatisticsFunctions/arm_std_q31.c ****   /*loop Unrolling */
  85:Drivers/CMSIS/DSP/Source/StatisticsFunctions/arm_std_q31.c ****   blkCnt = blockSize >> 2U;
  61              		.loc 1 85 3 is_stmt 1 view .LVU9
  62              		.loc 1 85 10 is_stmt 0 view .LVU10
  63 0010 8808     		lsrs	r0, r1, #2
  64              	.LVL2:
  86:Drivers/CMSIS/DSP/Source/StatisticsFunctions/arm_std_q31.c **** 
  87:Drivers/CMSIS/DSP/Source/StatisticsFunctions/arm_std_q31.c ****   /* First part of the processing with loop unrolling.  Compute 4 outputs at a time.
  88:Drivers/CMSIS/DSP/Source/StatisticsFunctions/arm_std_q31.c ****    ** a second loop below computes the remaining 1 to 3 samples. */
  89:Drivers/CMSIS/DSP/Source/StatisticsFunctions/arm_std_q31.c ****   while (blkCnt > 0U)
  65              		.loc 1 89 3 is_stmt 1 view .LVU11
  73:Drivers/CMSIS/DSP/Source/StatisticsFunctions/arm_std_q31.c **** 
  66              		.loc 1 73 9 is_stmt 0 view .LVU12
  67 0012 4FF0000C 		mov	ip, #0
  68 0016 6146     		mov	r1, ip
  69              	.LVL3:
  69:Drivers/CMSIS/DSP/Source/StatisticsFunctions/arm_std_q31.c ****   q63_t meanOfSquares, squareOfMean;             /* square of mean and mean of square */
  70              		.loc 1 69 9 view .LVU13
  71 0018 6446     		mov	r4, ip
  72 001a 6546     		mov	r5, ip
  73              		.loc 1 89 9 view .LVU14
  74 001c 4AE0     		b	.L4
  75              	.LVL4:
  76              	.L9:
  77:Drivers/CMSIS/DSP/Source/StatisticsFunctions/arm_std_q31.c ****     return;
  77              		.loc 1 77 5 is_stmt 1 view .LVU15
  77:Drivers/CMSIS/DSP/Source/StatisticsFunctions/arm_std_q31.c ****     return;
  78              		.loc 1 77 14 is_stmt 0 view .LVU16
  79 001e 0023     		movs	r3, #0
ARM GAS  /var/folders/n6/c271nzx11xl4r4_m7sqjlt0m0000gn/T//ccVW6oJ9.s 			page 4


  80 0020 1360     		str	r3, [r2]
  78:Drivers/CMSIS/DSP/Source/StatisticsFunctions/arm_std_q31.c ****   }
  81              		.loc 1 78 5 is_stmt 1 view .LVU17
  82 0022 83E0     		b	.L1
  83              	.LVL5:
  84              	.L5:
  90:Drivers/CMSIS/DSP/Source/StatisticsFunctions/arm_std_q31.c ****   {
  91:Drivers/CMSIS/DSP/Source/StatisticsFunctions/arm_std_q31.c ****     /* C = (A[0] * A[0] + A[1] * A[1] + ... + A[blockSize-1] * A[blockSize-1])  */
  92:Drivers/CMSIS/DSP/Source/StatisticsFunctions/arm_std_q31.c ****     /* Compute Sum of squares of the input samples
  93:Drivers/CMSIS/DSP/Source/StatisticsFunctions/arm_std_q31.c ****      * and then store the result in a temporary variable, sum. */
  94:Drivers/CMSIS/DSP/Source/StatisticsFunctions/arm_std_q31.c ****     in = *pSrc++ >> 8U;
  85              		.loc 1 94 5 view .LVU18
  86              		.loc 1 94 10 is_stmt 0 view .LVU19
  87 0024 DEF80070 		ldr	r7, [lr]
  88              		.loc 1 94 8 view .LVU20
  89 0028 3B12     		asrs	r3, r7, #8
  90              	.LVL6:
  95:Drivers/CMSIS/DSP/Source/StatisticsFunctions/arm_std_q31.c ****     sum += in;
  91              		.loc 1 95 5 is_stmt 1 view .LVU21
  92              		.loc 1 95 9 is_stmt 0 view .LVU22
  93 002a FA17     		asrs	r2, r7, #31
  94 002c 1C19     		adds	r4, r3, r4
  95              	.LVL7:
  96              		.loc 1 95 9 view .LVU23
  97 002e 45EBE775 		adc	r5, r5, r7, asr #31
  98              	.LVL8:
  96:Drivers/CMSIS/DSP/Source/StatisticsFunctions/arm_std_q31.c ****     sumOfSquares += ((q63_t) (in) * (in));
  99              		.loc 1 96 5 is_stmt 1 view .LVU24
 100              		.loc 1 96 35 is_stmt 0 view .LVU25
 101 0032 03FB02F2 		mul	r2, r3, r2
 102 0036 A3FB0338 		umull	r3, r8, r3, r3
 103              	.LVL9:
 104              		.loc 1 96 35 view .LVU26
 105 003a 08EB4208 		add	r8, r8, r2, lsl #1
 106              		.loc 1 96 18 view .LVU27
 107 003e 13EB0C02 		adds	r2, r3, ip
 108 0042 48EB0101 		adc	r1, r8, r1
 109              	.LVL10:
  97:Drivers/CMSIS/DSP/Source/StatisticsFunctions/arm_std_q31.c ****     in = *pSrc++ >> 8U;
 110              		.loc 1 97 5 is_stmt 1 view .LVU28
 111              		.loc 1 97 10 is_stmt 0 view .LVU29
 112 0046 DEF80470 		ldr	r7, [lr, #4]
 113              	.LVL11:
 114              		.loc 1 97 8 view .LVU30
 115 004a 3B12     		asrs	r3, r7, #8
 116              	.LVL12:
  98:Drivers/CMSIS/DSP/Source/StatisticsFunctions/arm_std_q31.c ****     sum += in;
 117              		.loc 1 98 5 is_stmt 1 view .LVU31
 118              		.loc 1 98 9 is_stmt 0 view .LVU32
 119 004c 4FEAE778 		asr	r8, r7, #31
 120 0050 1C19     		adds	r4, r3, r4
 121              	.LVL13:
 122              		.loc 1 98 9 view .LVU33
 123 0052 45EBE775 		adc	r5, r5, r7, asr #31
 124              	.LVL14:
  99:Drivers/CMSIS/DSP/Source/StatisticsFunctions/arm_std_q31.c ****     sumOfSquares += ((q63_t) (in) * (in));
 125              		.loc 1 99 5 is_stmt 1 view .LVU34
ARM GAS  /var/folders/n6/c271nzx11xl4r4_m7sqjlt0m0000gn/T//ccVW6oJ9.s 			page 5


 126              		.loc 1 99 35 is_stmt 0 view .LVU35
 127 0056 03FB08F8 		mul	r8, r3, r8
 128 005a A3FB033C 		umull	r3, ip, r3, r3
 129              	.LVL15:
 130              		.loc 1 99 35 view .LVU36
 131 005e 0CEB480C 		add	ip, ip, r8, lsl #1
 132              		.loc 1 99 18 view .LVU37
 133 0062 9A18     		adds	r2, r3, r2
 134              	.LVL16:
 135              		.loc 1 99 18 view .LVU38
 136 0064 4CEB0101 		adc	r1, ip, r1
 137              	.LVL17:
 100:Drivers/CMSIS/DSP/Source/StatisticsFunctions/arm_std_q31.c ****     in = *pSrc++ >> 8U;
 138              		.loc 1 100 5 is_stmt 1 view .LVU39
 139              		.loc 1 100 10 is_stmt 0 view .LVU40
 140 0068 DEF80870 		ldr	r7, [lr, #8]
 141              	.LVL18:
 142              		.loc 1 100 8 view .LVU41
 143 006c 3B12     		asrs	r3, r7, #8
 144              	.LVL19:
 101:Drivers/CMSIS/DSP/Source/StatisticsFunctions/arm_std_q31.c ****     sum += in;
 145              		.loc 1 101 5 is_stmt 1 view .LVU42
 146              		.loc 1 101 9 is_stmt 0 view .LVU43
 147 006e 4FEAE778 		asr	r8, r7, #31
 148 0072 1C19     		adds	r4, r3, r4
 149              	.LVL20:
 150              		.loc 1 101 9 view .LVU44
 151 0074 45EBE77C 		adc	ip, r5, r7, asr #31
 152              	.LVL21:
 102:Drivers/CMSIS/DSP/Source/StatisticsFunctions/arm_std_q31.c ****     sumOfSquares += ((q63_t) (in) * (in));
 153              		.loc 1 102 5 is_stmt 1 view .LVU45
 154              		.loc 1 102 35 is_stmt 0 view .LVU46
 155 0078 03FB08F5 		mul	r5, r3, r8
 156 007c A3FB0338 		umull	r3, r8, r3, r3
 157              	.LVL22:
 158              		.loc 1 102 35 view .LVU47
 159 0080 08EB4508 		add	r8, r8, r5, lsl #1
 160              		.loc 1 102 18 view .LVU48
 161 0084 9A18     		adds	r2, r3, r2
 162              	.LVL23:
 163              		.loc 1 102 18 view .LVU49
 164 0086 48EB0108 		adc	r8, r8, r1
 165              	.LVL24:
 103:Drivers/CMSIS/DSP/Source/StatisticsFunctions/arm_std_q31.c ****     in = *pSrc++ >> 8U;
 166              		.loc 1 103 5 is_stmt 1 view .LVU50
 167              		.loc 1 103 10 is_stmt 0 view .LVU51
 168 008a DEF80C50 		ldr	r5, [lr, #12]
 169              		.loc 1 103 8 view .LVU52
 170 008e 2B12     		asrs	r3, r5, #8
 171              	.LVL25:
 104:Drivers/CMSIS/DSP/Source/StatisticsFunctions/arm_std_q31.c ****     sum += in;
 172              		.loc 1 104 5 is_stmt 1 view .LVU53
 173              		.loc 1 104 9 is_stmt 0 view .LVU54
 174 0090 4FEAE579 		asr	r9, r5, #31
 175 0094 1C19     		adds	r4, r3, r4
 176              	.LVL26:
 177              		.loc 1 104 9 view .LVU55
ARM GAS  /var/folders/n6/c271nzx11xl4r4_m7sqjlt0m0000gn/T//ccVW6oJ9.s 			page 6


 178 0096 4CEBE575 		adc	r5, ip, r5, asr #31
 179              	.LVL27:
 105:Drivers/CMSIS/DSP/Source/StatisticsFunctions/arm_std_q31.c ****     sumOfSquares += ((q63_t) (in) * (in));
 180              		.loc 1 105 5 is_stmt 1 view .LVU56
 181              		.loc 1 105 35 is_stmt 0 view .LVU57
 182 009a 03FB09FC 		mul	ip, r3, r9
 183 009e A3FB0331 		umull	r3, r1, r3, r3
 184              	.LVL28:
 185              		.loc 1 105 35 view .LVU58
 186 00a2 01EB4C01 		add	r1, r1, ip, lsl #1
 187              		.loc 1 105 18 view .LVU59
 188 00a6 13EB020C 		adds	ip, r3, r2
 189 00aa 41EB0801 		adc	r1, r1, r8
 190              	.LVL29:
 106:Drivers/CMSIS/DSP/Source/StatisticsFunctions/arm_std_q31.c **** 
 107:Drivers/CMSIS/DSP/Source/StatisticsFunctions/arm_std_q31.c ****     /* Decrement the loop counter */
 108:Drivers/CMSIS/DSP/Source/StatisticsFunctions/arm_std_q31.c ****     blkCnt--;
 191              		.loc 1 108 5 is_stmt 1 view .LVU60
 192              		.loc 1 108 11 is_stmt 0 view .LVU61
 193 00ae 0138     		subs	r0, r0, #1
 194              	.LVL30:
 103:Drivers/CMSIS/DSP/Source/StatisticsFunctions/arm_std_q31.c ****     sum += in;
 195              		.loc 1 103 15 view .LVU62
 196 00b0 0EF1100E 		add	lr, lr, #16
 197              	.LVL31:
 198              	.L4:
  89:Drivers/CMSIS/DSP/Source/StatisticsFunctions/arm_std_q31.c ****   {
 199              		.loc 1 89 17 is_stmt 1 view .LVU63
 200 00b4 0028     		cmp	r0, #0
 201 00b6 B5D1     		bne	.L5
 109:Drivers/CMSIS/DSP/Source/StatisticsFunctions/arm_std_q31.c ****   }
 110:Drivers/CMSIS/DSP/Source/StatisticsFunctions/arm_std_q31.c **** 
 111:Drivers/CMSIS/DSP/Source/StatisticsFunctions/arm_std_q31.c ****   /* If the blockSize is not a multiple of 4, compute any remaining output samples here.
 112:Drivers/CMSIS/DSP/Source/StatisticsFunctions/arm_std_q31.c ****    ** No loop unrolling is used. */
 113:Drivers/CMSIS/DSP/Source/StatisticsFunctions/arm_std_q31.c ****   blkCnt = blockSize % 0x4U;
 202              		.loc 1 113 3 view .LVU64
 203              		.loc 1 113 10 is_stmt 0 view .LVU65
 204 00b8 06F00300 		and	r0, r6, #3
 205              	.LVL32:
 114:Drivers/CMSIS/DSP/Source/StatisticsFunctions/arm_std_q31.c **** 
 115:Drivers/CMSIS/DSP/Source/StatisticsFunctions/arm_std_q31.c ****   while (blkCnt > 0U)
 206              		.loc 1 115 3 is_stmt 1 view .LVU66
 207              		.loc 1 115 9 is_stmt 0 view .LVU67
 208 00bc 13E0     		b	.L6
 209              	.L7:
 116:Drivers/CMSIS/DSP/Source/StatisticsFunctions/arm_std_q31.c ****   {
 117:Drivers/CMSIS/DSP/Source/StatisticsFunctions/arm_std_q31.c ****     /* C = (A[0] * A[0] + A[1] * A[1] + ... + A[blockSize-1] * A[blockSize-1]) */
 118:Drivers/CMSIS/DSP/Source/StatisticsFunctions/arm_std_q31.c ****     /* Compute Sum of squares of the input samples
 119:Drivers/CMSIS/DSP/Source/StatisticsFunctions/arm_std_q31.c ****      * and then store the result in a temporary variable, sum. */
 120:Drivers/CMSIS/DSP/Source/StatisticsFunctions/arm_std_q31.c ****     in = *pSrc++ >> 8U;
 210              		.loc 1 120 5 is_stmt 1 view .LVU68
 211              	.LVL33:
 212              		.loc 1 120 10 is_stmt 0 view .LVU69
 213 00be 5EF8042B 		ldr	r2, [lr], #4
 214              	.LVL34:
 215              		.loc 1 120 8 view .LVU70
 216 00c2 1312     		asrs	r3, r2, #8
ARM GAS  /var/folders/n6/c271nzx11xl4r4_m7sqjlt0m0000gn/T//ccVW6oJ9.s 			page 7


 217              	.LVL35:
 121:Drivers/CMSIS/DSP/Source/StatisticsFunctions/arm_std_q31.c ****     sum += in;
 218              		.loc 1 121 5 is_stmt 1 view .LVU71
 219              		.loc 1 121 9 is_stmt 0 view .LVU72
 220 00c4 4FEAE278 		asr	r8, r2, #31
 221 00c8 1C19     		adds	r4, r3, r4
 222              	.LVL36:
 223              		.loc 1 121 9 view .LVU73
 224 00ca 45EBE275 		adc	r5, r5, r2, asr #31
 225              	.LVL37:
 122:Drivers/CMSIS/DSP/Source/StatisticsFunctions/arm_std_q31.c ****     sumOfSquares += ((q63_t) (in) * (in));
 226              		.loc 1 122 5 is_stmt 1 view .LVU74
 227              		.loc 1 122 35 is_stmt 0 view .LVU75
 228 00ce 03FB08F8 		mul	r8, r3, r8
 229 00d2 A3FB0332 		umull	r3, r2, r3, r3
 230              	.LVL38:
 231              		.loc 1 122 35 view .LVU76
 232 00d6 02EB4802 		add	r2, r2, r8, lsl #1
 233              		.loc 1 122 18 view .LVU77
 234 00da 13EB0C03 		adds	r3, r3, ip
 235 00de 9C46     		mov	ip, r3
 236              	.LVL39:
 237              		.loc 1 122 18 view .LVU78
 238 00e0 42EB0101 		adc	r1, r2, r1
 239              	.LVL40:
 123:Drivers/CMSIS/DSP/Source/StatisticsFunctions/arm_std_q31.c **** 
 124:Drivers/CMSIS/DSP/Source/StatisticsFunctions/arm_std_q31.c ****     /* Decrement the loop counter */
 125:Drivers/CMSIS/DSP/Source/StatisticsFunctions/arm_std_q31.c ****     blkCnt--;
 240              		.loc 1 125 5 is_stmt 1 view .LVU79
 241              		.loc 1 125 11 is_stmt 0 view .LVU80
 242 00e4 0138     		subs	r0, r0, #1
 243              	.LVL41:
 244              	.L6:
 115:Drivers/CMSIS/DSP/Source/StatisticsFunctions/arm_std_q31.c ****   {
 245              		.loc 1 115 17 is_stmt 1 view .LVU81
 246 00e6 0028     		cmp	r0, #0
 247 00e8 E9D1     		bne	.L7
 126:Drivers/CMSIS/DSP/Source/StatisticsFunctions/arm_std_q31.c ****   }
 127:Drivers/CMSIS/DSP/Source/StatisticsFunctions/arm_std_q31.c **** 
 128:Drivers/CMSIS/DSP/Source/StatisticsFunctions/arm_std_q31.c ****   /* Compute Mean of squares of the input samples
 129:Drivers/CMSIS/DSP/Source/StatisticsFunctions/arm_std_q31.c ****    * and then store the result in a temporary variable, meanOfSquares. */
 130:Drivers/CMSIS/DSP/Source/StatisticsFunctions/arm_std_q31.c ****   meanOfSquares = sumOfSquares / (q63_t)(blockSize - 1U);
 248              		.loc 1 130 3 view .LVU82
 249              		.loc 1 130 52 is_stmt 0 view .LVU83
 250 00ea 06F1FF39 		add	r9, r6, #-1
 251              		.loc 1 130 34 view .LVU84
 252 00ee 4FF00008 		mov	r8, #0
 253              		.loc 1 130 17 view .LVU85
 254 00f2 4A46     		mov	r2, r9
 255 00f4 4346     		mov	r3, r8
 256 00f6 6046     		mov	r0, ip
 257              	.LVL42:
 258              		.loc 1 130 17 view .LVU86
 259 00f8 FFF7FEFF 		bl	__aeabi_ldivmod
 260              	.LVL43:
 261              		.loc 1 130 17 view .LVU87
 262 00fc 8246     		mov	r10, r0
ARM GAS  /var/folders/n6/c271nzx11xl4r4_m7sqjlt0m0000gn/T//ccVW6oJ9.s 			page 8


 263 00fe 8B46     		mov	fp, r1
 264              	.LVL44:
 131:Drivers/CMSIS/DSP/Source/StatisticsFunctions/arm_std_q31.c **** 
 132:Drivers/CMSIS/DSP/Source/StatisticsFunctions/arm_std_q31.c **** #else
 133:Drivers/CMSIS/DSP/Source/StatisticsFunctions/arm_std_q31.c ****   /* Run the below code for Cortex-M0 */
 134:Drivers/CMSIS/DSP/Source/StatisticsFunctions/arm_std_q31.c **** 
 135:Drivers/CMSIS/DSP/Source/StatisticsFunctions/arm_std_q31.c ****   /* Loop over blockSize number of values */
 136:Drivers/CMSIS/DSP/Source/StatisticsFunctions/arm_std_q31.c ****   blkCnt = blockSize;
 137:Drivers/CMSIS/DSP/Source/StatisticsFunctions/arm_std_q31.c **** 
 138:Drivers/CMSIS/DSP/Source/StatisticsFunctions/arm_std_q31.c ****   while (blkCnt > 0U)
 139:Drivers/CMSIS/DSP/Source/StatisticsFunctions/arm_std_q31.c ****   {
 140:Drivers/CMSIS/DSP/Source/StatisticsFunctions/arm_std_q31.c ****     /* C = (A[0] * A[0] + A[1] * A[1] + ... + A[blockSize-1] * A[blockSize-1]) */
 141:Drivers/CMSIS/DSP/Source/StatisticsFunctions/arm_std_q31.c ****     /* Compute Sum of squares of the input samples
 142:Drivers/CMSIS/DSP/Source/StatisticsFunctions/arm_std_q31.c ****      * and then store the result in a temporary variable, sumOfSquares. */
 143:Drivers/CMSIS/DSP/Source/StatisticsFunctions/arm_std_q31.c ****     in = *pSrc++ >> 8U;
 144:Drivers/CMSIS/DSP/Source/StatisticsFunctions/arm_std_q31.c ****     sumOfSquares += ((q63_t) (in) * (in));
 145:Drivers/CMSIS/DSP/Source/StatisticsFunctions/arm_std_q31.c **** 
 146:Drivers/CMSIS/DSP/Source/StatisticsFunctions/arm_std_q31.c ****     /* C = (A[0] + A[1] + A[2] + ... + A[blockSize-1]) */
 147:Drivers/CMSIS/DSP/Source/StatisticsFunctions/arm_std_q31.c ****     /* Compute sum of all input values and then store the result in a temporary variable, sum. */
 148:Drivers/CMSIS/DSP/Source/StatisticsFunctions/arm_std_q31.c ****     sum += in;
 149:Drivers/CMSIS/DSP/Source/StatisticsFunctions/arm_std_q31.c **** 
 150:Drivers/CMSIS/DSP/Source/StatisticsFunctions/arm_std_q31.c ****     /* Decrement the loop counter */
 151:Drivers/CMSIS/DSP/Source/StatisticsFunctions/arm_std_q31.c ****     blkCnt--;
 152:Drivers/CMSIS/DSP/Source/StatisticsFunctions/arm_std_q31.c ****   }
 153:Drivers/CMSIS/DSP/Source/StatisticsFunctions/arm_std_q31.c **** 
 154:Drivers/CMSIS/DSP/Source/StatisticsFunctions/arm_std_q31.c ****   /* Compute Mean of squares of the input samples
 155:Drivers/CMSIS/DSP/Source/StatisticsFunctions/arm_std_q31.c ****    * and then store the result in a temporary variable, meanOfSquares. */
 156:Drivers/CMSIS/DSP/Source/StatisticsFunctions/arm_std_q31.c ****   meanOfSquares = sumOfSquares / (q63_t)(blockSize - 1U);
 157:Drivers/CMSIS/DSP/Source/StatisticsFunctions/arm_std_q31.c **** 
 158:Drivers/CMSIS/DSP/Source/StatisticsFunctions/arm_std_q31.c **** #endif /* #if defined (ARM_MATH_DSP) */
 159:Drivers/CMSIS/DSP/Source/StatisticsFunctions/arm_std_q31.c **** 
 160:Drivers/CMSIS/DSP/Source/StatisticsFunctions/arm_std_q31.c ****   /* Compute square of mean */
 161:Drivers/CMSIS/DSP/Source/StatisticsFunctions/arm_std_q31.c ****   squareOfMean = sum * sum / (q63_t)(blockSize * (blockSize - 1U));
 265              		.loc 1 161 3 is_stmt 1 view .LVU88
 266              		.loc 1 161 22 is_stmt 0 view .LVU89
 267 0100 04FB05F5 		mul	r5, r4, r5
 268              	.LVL45:
 269              		.loc 1 161 22 view .LVU90
 270 0104 A4FB0404 		umull	r0, r4, r4, r4
 271              	.LVL46:
 272              		.loc 1 161 16 view .LVU91
 273 0108 06FB09F2 		mul	r2, r6, r9
 274 010c 4346     		mov	r3, r8
 275 010e 04EB4501 		add	r1, r4, r5, lsl #1
 276              	.LVL47:
 277              		.loc 1 161 16 view .LVU92
 278 0112 FFF7FEFF 		bl	__aeabi_ldivmod
 279              	.LVL48:
 162:Drivers/CMSIS/DSP/Source/StatisticsFunctions/arm_std_q31.c **** 
 163:Drivers/CMSIS/DSP/Source/StatisticsFunctions/arm_std_q31.c ****   /* Compute standard deviation and then store the result to the destination */
 164:Drivers/CMSIS/DSP/Source/StatisticsFunctions/arm_std_q31.c ****   arm_sqrt_q31((meanOfSquares - squareOfMean) >> 15U, pResult);
 280              		.loc 1 164 3 is_stmt 1 view .LVU93
 281              		.loc 1 164 31 is_stmt 0 view .LVU94
 282 0116 BAEB000A 		subs	r10, r10, r0
 283              	.LVL49:
 284              		.loc 1 164 31 view .LVU95
 285 011a 6BEB0100 		sbc	r0, fp, r1
ARM GAS  /var/folders/n6/c271nzx11xl4r4_m7sqjlt0m0000gn/T//ccVW6oJ9.s 			page 9


 286              	.LVL50:
 287              		.loc 1 164 47 view .LVU96
 288 011e 4FEADA3A 		lsr	r10, r10, #15
 289              		.loc 1 164 3 view .LVU97
 290 0122 0199     		ldr	r1, [sp, #4]
 291 0124 4AEA4040 		orr	r0, r10, r0, lsl #17
 292 0128 FFF7FEFF 		bl	arm_sqrt_q31
 293              	.LVL51:
 294              	.L1:
 165:Drivers/CMSIS/DSP/Source/StatisticsFunctions/arm_std_q31.c **** }
 295              		.loc 1 165 1 view .LVU98
 296 012c 03B0     		add	sp, sp, #12
 297              		.cfi_def_cfa_offset 36
 298              		@ sp needed
 299 012e BDE8F08F 		pop	{r4, r5, r6, r7, r8, r9, r10, fp, pc}
 300              		.loc 1 165 1 view .LVU99
 301              		.cfi_endproc
 302              	.LFE135:
 304              		.text
 305              	.Letext0:
 306              		.file 2 "/Users/killian/Library/Application Support/Code/User/globalStorage/bmd.stm32-for-vscode/@
 307              		.file 3 "/Users/killian/Library/Application Support/Code/User/globalStorage/bmd.stm32-for-vscode/@
 308              		.file 4 "Drivers/CMSIS/DSP/Include/arm_math.h"
ARM GAS  /var/folders/n6/c271nzx11xl4r4_m7sqjlt0m0000gn/T//ccVW6oJ9.s 			page 10


DEFINED SYMBOLS
                            *ABS*:00000000 arm_std_q31.c
/var/folders/n6/c271nzx11xl4r4_m7sqjlt0m0000gn/T//ccVW6oJ9.s:21     .text.arm_std_q31:00000000 $t
/var/folders/n6/c271nzx11xl4r4_m7sqjlt0m0000gn/T//ccVW6oJ9.s:27     .text.arm_std_q31:00000000 arm_std_q31

UNDEFINED SYMBOLS
__aeabi_ldivmod
arm_sqrt_q31
