ARM GAS  /var/folders/n6/c271nzx11xl4r4_m7sqjlt0m0000gn/T//ccFuWhdE.s 			page 1


   1              		.cpu cortex-m7
   2              		.arch armv7e-m
   3              		.fpu fpv5-d16
   4              		.eabi_attribute 28, 1
   5              		.eabi_attribute 20, 1
   6              		.eabi_attribute 21, 1
   7              		.eabi_attribute 23, 3
   8              		.eabi_attribute 24, 1
   9              		.eabi_attribute 25, 1
  10              		.eabi_attribute 26, 1
  11              		.eabi_attribute 30, 1
  12              		.eabi_attribute 34, 1
  13              		.eabi_attribute 18, 4
  14              		.file	"arm_cmplx_mult_cmplx_q15.c"
  15              		.text
  16              	.Ltext0:
  17              		.cfi_sections	.debug_frame
  18              		.file 1 "Drivers/CMSIS/DSP/Source/ComplexMathFunctions/arm_cmplx_mult_cmplx_q15.c"
  19              		.section	.text.arm_cmplx_mult_cmplx_q15,"ax",%progbits
  20              		.align	1
  21              		.global	arm_cmplx_mult_cmplx_q15
  22              		.syntax unified
  23              		.thumb
  24              		.thumb_func
  26              	arm_cmplx_mult_cmplx_q15:
  27              	.LVL0:
  28              	.LFB135:
   1:Drivers/CMSIS/DSP/Source/ComplexMathFunctions/arm_cmplx_mult_cmplx_q15.c **** /* ----------------------------------------------------------------------
   2:Drivers/CMSIS/DSP/Source/ComplexMathFunctions/arm_cmplx_mult_cmplx_q15.c ****  * Project:      CMSIS DSP Library
   3:Drivers/CMSIS/DSP/Source/ComplexMathFunctions/arm_cmplx_mult_cmplx_q15.c ****  * Title:        arm_cmplx_mult_cmplx_q15.c
   4:Drivers/CMSIS/DSP/Source/ComplexMathFunctions/arm_cmplx_mult_cmplx_q15.c ****  * Description:  Q15 complex-by-complex multiplication
   5:Drivers/CMSIS/DSP/Source/ComplexMathFunctions/arm_cmplx_mult_cmplx_q15.c ****  *
   6:Drivers/CMSIS/DSP/Source/ComplexMathFunctions/arm_cmplx_mult_cmplx_q15.c ****  * $Date:        27. January 2017
   7:Drivers/CMSIS/DSP/Source/ComplexMathFunctions/arm_cmplx_mult_cmplx_q15.c ****  * $Revision:    V.1.5.1
   8:Drivers/CMSIS/DSP/Source/ComplexMathFunctions/arm_cmplx_mult_cmplx_q15.c ****  *
   9:Drivers/CMSIS/DSP/Source/ComplexMathFunctions/arm_cmplx_mult_cmplx_q15.c ****  * Target Processor: Cortex-M cores
  10:Drivers/CMSIS/DSP/Source/ComplexMathFunctions/arm_cmplx_mult_cmplx_q15.c ****  * -------------------------------------------------------------------- */
  11:Drivers/CMSIS/DSP/Source/ComplexMathFunctions/arm_cmplx_mult_cmplx_q15.c **** /*
  12:Drivers/CMSIS/DSP/Source/ComplexMathFunctions/arm_cmplx_mult_cmplx_q15.c ****  * Copyright (C) 2010-2017 ARM Limited or its affiliates. All rights reserved.
  13:Drivers/CMSIS/DSP/Source/ComplexMathFunctions/arm_cmplx_mult_cmplx_q15.c ****  *
  14:Drivers/CMSIS/DSP/Source/ComplexMathFunctions/arm_cmplx_mult_cmplx_q15.c ****  * SPDX-License-Identifier: Apache-2.0
  15:Drivers/CMSIS/DSP/Source/ComplexMathFunctions/arm_cmplx_mult_cmplx_q15.c ****  *
  16:Drivers/CMSIS/DSP/Source/ComplexMathFunctions/arm_cmplx_mult_cmplx_q15.c ****  * Licensed under the Apache License, Version 2.0 (the License); you may
  17:Drivers/CMSIS/DSP/Source/ComplexMathFunctions/arm_cmplx_mult_cmplx_q15.c ****  * not use this file except in compliance with the License.
  18:Drivers/CMSIS/DSP/Source/ComplexMathFunctions/arm_cmplx_mult_cmplx_q15.c ****  * You may obtain a copy of the License at
  19:Drivers/CMSIS/DSP/Source/ComplexMathFunctions/arm_cmplx_mult_cmplx_q15.c ****  *
  20:Drivers/CMSIS/DSP/Source/ComplexMathFunctions/arm_cmplx_mult_cmplx_q15.c ****  * www.apache.org/licenses/LICENSE-2.0
  21:Drivers/CMSIS/DSP/Source/ComplexMathFunctions/arm_cmplx_mult_cmplx_q15.c ****  *
  22:Drivers/CMSIS/DSP/Source/ComplexMathFunctions/arm_cmplx_mult_cmplx_q15.c ****  * Unless required by applicable law or agreed to in writing, software
  23:Drivers/CMSIS/DSP/Source/ComplexMathFunctions/arm_cmplx_mult_cmplx_q15.c ****  * distributed under the License is distributed on an AS IS BASIS, WITHOUT
  24:Drivers/CMSIS/DSP/Source/ComplexMathFunctions/arm_cmplx_mult_cmplx_q15.c ****  * WARRANTIES OR CONDITIONS OF ANY KIND, either express or implied.
  25:Drivers/CMSIS/DSP/Source/ComplexMathFunctions/arm_cmplx_mult_cmplx_q15.c ****  * See the License for the specific language governing permissions and
  26:Drivers/CMSIS/DSP/Source/ComplexMathFunctions/arm_cmplx_mult_cmplx_q15.c ****  * limitations under the License.
  27:Drivers/CMSIS/DSP/Source/ComplexMathFunctions/arm_cmplx_mult_cmplx_q15.c ****  */
  28:Drivers/CMSIS/DSP/Source/ComplexMathFunctions/arm_cmplx_mult_cmplx_q15.c **** 
  29:Drivers/CMSIS/DSP/Source/ComplexMathFunctions/arm_cmplx_mult_cmplx_q15.c **** #include "arm_math.h"
  30:Drivers/CMSIS/DSP/Source/ComplexMathFunctions/arm_cmplx_mult_cmplx_q15.c **** 
ARM GAS  /var/folders/n6/c271nzx11xl4r4_m7sqjlt0m0000gn/T//ccFuWhdE.s 			page 2


  31:Drivers/CMSIS/DSP/Source/ComplexMathFunctions/arm_cmplx_mult_cmplx_q15.c **** /**
  32:Drivers/CMSIS/DSP/Source/ComplexMathFunctions/arm_cmplx_mult_cmplx_q15.c ****  * @ingroup groupCmplxMath
  33:Drivers/CMSIS/DSP/Source/ComplexMathFunctions/arm_cmplx_mult_cmplx_q15.c ****  */
  34:Drivers/CMSIS/DSP/Source/ComplexMathFunctions/arm_cmplx_mult_cmplx_q15.c **** 
  35:Drivers/CMSIS/DSP/Source/ComplexMathFunctions/arm_cmplx_mult_cmplx_q15.c **** /**
  36:Drivers/CMSIS/DSP/Source/ComplexMathFunctions/arm_cmplx_mult_cmplx_q15.c ****  * @addtogroup CmplxByCmplxMult
  37:Drivers/CMSIS/DSP/Source/ComplexMathFunctions/arm_cmplx_mult_cmplx_q15.c ****  * @{
  38:Drivers/CMSIS/DSP/Source/ComplexMathFunctions/arm_cmplx_mult_cmplx_q15.c ****  */
  39:Drivers/CMSIS/DSP/Source/ComplexMathFunctions/arm_cmplx_mult_cmplx_q15.c **** 
  40:Drivers/CMSIS/DSP/Source/ComplexMathFunctions/arm_cmplx_mult_cmplx_q15.c **** /**
  41:Drivers/CMSIS/DSP/Source/ComplexMathFunctions/arm_cmplx_mult_cmplx_q15.c ****  * @brief  Q15 complex-by-complex multiplication
  42:Drivers/CMSIS/DSP/Source/ComplexMathFunctions/arm_cmplx_mult_cmplx_q15.c ****  * @param[in]  *pSrcA points to the first input vector
  43:Drivers/CMSIS/DSP/Source/ComplexMathFunctions/arm_cmplx_mult_cmplx_q15.c ****  * @param[in]  *pSrcB points to the second input vector
  44:Drivers/CMSIS/DSP/Source/ComplexMathFunctions/arm_cmplx_mult_cmplx_q15.c ****  * @param[out]  *pDst  points to the output vector
  45:Drivers/CMSIS/DSP/Source/ComplexMathFunctions/arm_cmplx_mult_cmplx_q15.c ****  * @param[in]  numSamples number of complex samples in each vector
  46:Drivers/CMSIS/DSP/Source/ComplexMathFunctions/arm_cmplx_mult_cmplx_q15.c ****  * @return none.
  47:Drivers/CMSIS/DSP/Source/ComplexMathFunctions/arm_cmplx_mult_cmplx_q15.c ****  *
  48:Drivers/CMSIS/DSP/Source/ComplexMathFunctions/arm_cmplx_mult_cmplx_q15.c ****  * <b>Scaling and Overflow Behavior:</b>
  49:Drivers/CMSIS/DSP/Source/ComplexMathFunctions/arm_cmplx_mult_cmplx_q15.c ****  * \par
  50:Drivers/CMSIS/DSP/Source/ComplexMathFunctions/arm_cmplx_mult_cmplx_q15.c ****  * The function implements 1.15 by 1.15 multiplications and finally output is converted into 3.13 f
  51:Drivers/CMSIS/DSP/Source/ComplexMathFunctions/arm_cmplx_mult_cmplx_q15.c ****  */
  52:Drivers/CMSIS/DSP/Source/ComplexMathFunctions/arm_cmplx_mult_cmplx_q15.c **** 
  53:Drivers/CMSIS/DSP/Source/ComplexMathFunctions/arm_cmplx_mult_cmplx_q15.c **** void arm_cmplx_mult_cmplx_q15(
  54:Drivers/CMSIS/DSP/Source/ComplexMathFunctions/arm_cmplx_mult_cmplx_q15.c ****   q15_t * pSrcA,
  55:Drivers/CMSIS/DSP/Source/ComplexMathFunctions/arm_cmplx_mult_cmplx_q15.c ****   q15_t * pSrcB,
  56:Drivers/CMSIS/DSP/Source/ComplexMathFunctions/arm_cmplx_mult_cmplx_q15.c ****   q15_t * pDst,
  57:Drivers/CMSIS/DSP/Source/ComplexMathFunctions/arm_cmplx_mult_cmplx_q15.c ****   uint32_t numSamples)
  58:Drivers/CMSIS/DSP/Source/ComplexMathFunctions/arm_cmplx_mult_cmplx_q15.c **** {
  29              		.loc 1 58 1 view -0
  30              		.cfi_startproc
  31              		@ args = 0, pretend = 0, frame = 0
  32              		@ frame_needed = 0, uses_anonymous_args = 0
  33              		.loc 1 58 1 is_stmt 0 view .LVU1
  34 0000 2DE9F041 		push	{r4, r5, r6, r7, r8, lr}
  35              		.cfi_def_cfa_offset 24
  36              		.cfi_offset 4, -24
  37              		.cfi_offset 5, -20
  38              		.cfi_offset 6, -16
  39              		.cfi_offset 7, -12
  40              		.cfi_offset 8, -8
  41              		.cfi_offset 14, -4
  59:Drivers/CMSIS/DSP/Source/ComplexMathFunctions/arm_cmplx_mult_cmplx_q15.c ****   q15_t a, b, c, d;                              /* Temporary variables to store real and imaginary
  42              		.loc 1 59 3 is_stmt 1 view .LVU2
  60:Drivers/CMSIS/DSP/Source/ComplexMathFunctions/arm_cmplx_mult_cmplx_q15.c **** 
  61:Drivers/CMSIS/DSP/Source/ComplexMathFunctions/arm_cmplx_mult_cmplx_q15.c **** #if defined (ARM_MATH_DSP)
  62:Drivers/CMSIS/DSP/Source/ComplexMathFunctions/arm_cmplx_mult_cmplx_q15.c **** 
  63:Drivers/CMSIS/DSP/Source/ComplexMathFunctions/arm_cmplx_mult_cmplx_q15.c ****   /* Run the below code for Cortex-M4 and Cortex-M3 */
  64:Drivers/CMSIS/DSP/Source/ComplexMathFunctions/arm_cmplx_mult_cmplx_q15.c ****   uint32_t blkCnt;                               /* loop counters */
  43              		.loc 1 64 3 view .LVU3
  65:Drivers/CMSIS/DSP/Source/ComplexMathFunctions/arm_cmplx_mult_cmplx_q15.c **** 
  66:Drivers/CMSIS/DSP/Source/ComplexMathFunctions/arm_cmplx_mult_cmplx_q15.c ****   /* loop Unrolling */
  67:Drivers/CMSIS/DSP/Source/ComplexMathFunctions/arm_cmplx_mult_cmplx_q15.c ****   blkCnt = numSamples >> 2U;
  44              		.loc 1 67 3 view .LVU4
  45              		.loc 1 67 10 is_stmt 0 view .LVU5
  46 0004 9C08     		lsrs	r4, r3, #2
  47              	.LVL1:
  68:Drivers/CMSIS/DSP/Source/ComplexMathFunctions/arm_cmplx_mult_cmplx_q15.c **** 
ARM GAS  /var/folders/n6/c271nzx11xl4r4_m7sqjlt0m0000gn/T//ccFuWhdE.s 			page 3


  69:Drivers/CMSIS/DSP/Source/ComplexMathFunctions/arm_cmplx_mult_cmplx_q15.c ****   /* First part of the processing with loop unrolling.  Compute 4 outputs at a time.
  70:Drivers/CMSIS/DSP/Source/ComplexMathFunctions/arm_cmplx_mult_cmplx_q15.c ****    ** a second loop below computes the remaining 1 to 3 samples. */
  71:Drivers/CMSIS/DSP/Source/ComplexMathFunctions/arm_cmplx_mult_cmplx_q15.c ****   while (blkCnt > 0U)
  48              		.loc 1 71 3 is_stmt 1 view .LVU6
  49              		.loc 1 71 9 is_stmt 0 view .LVU7
  50 0006 7FE0     		b	.L2
  51              	.L3:
  72:Drivers/CMSIS/DSP/Source/ComplexMathFunctions/arm_cmplx_mult_cmplx_q15.c ****   {
  73:Drivers/CMSIS/DSP/Source/ComplexMathFunctions/arm_cmplx_mult_cmplx_q15.c ****     /* C[2 * i] = A[2 * i] * B[2 * i] - A[2 * i + 1] * B[2 * i + 1].  */
  74:Drivers/CMSIS/DSP/Source/ComplexMathFunctions/arm_cmplx_mult_cmplx_q15.c ****     /* C[2 * i + 1] = A[2 * i] * B[2 * i + 1] + A[2 * i + 1] * B[2 * i].  */
  75:Drivers/CMSIS/DSP/Source/ComplexMathFunctions/arm_cmplx_mult_cmplx_q15.c ****     a = *pSrcA++;
  52              		.loc 1 75 5 is_stmt 1 view .LVU8
  53              	.LVL2:
  54              		.loc 1 75 7 is_stmt 0 view .LVU9
  55 0008 B0F900C0 		ldrsh	ip, [r0]
  56              	.LVL3:
  76:Drivers/CMSIS/DSP/Source/ComplexMathFunctions/arm_cmplx_mult_cmplx_q15.c ****     b = *pSrcA++;
  57              		.loc 1 76 5 is_stmt 1 view .LVU10
  58              		.loc 1 76 7 is_stmt 0 view .LVU11
  59 000c B0F90260 		ldrsh	r6, [r0, #2]
  60              	.LVL4:
  77:Drivers/CMSIS/DSP/Source/ComplexMathFunctions/arm_cmplx_mult_cmplx_q15.c ****     c = *pSrcB++;
  61              		.loc 1 77 5 is_stmt 1 view .LVU12
  62              		.loc 1 77 7 is_stmt 0 view .LVU13
  63 0010 B1F90050 		ldrsh	r5, [r1]
  64              	.LVL5:
  78:Drivers/CMSIS/DSP/Source/ComplexMathFunctions/arm_cmplx_mult_cmplx_q15.c ****     d = *pSrcB++;
  65              		.loc 1 78 5 is_stmt 1 view .LVU14
  66              		.loc 1 78 7 is_stmt 0 view .LVU15
  67 0014 B1F90270 		ldrsh	r7, [r1, #2]
  68              	.LVL6:
  79:Drivers/CMSIS/DSP/Source/ComplexMathFunctions/arm_cmplx_mult_cmplx_q15.c **** 
  80:Drivers/CMSIS/DSP/Source/ComplexMathFunctions/arm_cmplx_mult_cmplx_q15.c ****     /* store the result in 3.13 format in the destination buffer. */
  81:Drivers/CMSIS/DSP/Source/ComplexMathFunctions/arm_cmplx_mult_cmplx_q15.c ****     *pDst++ =
  69              		.loc 1 81 5 is_stmt 1 view .LVU16
  82:Drivers/CMSIS/DSP/Source/ComplexMathFunctions/arm_cmplx_mult_cmplx_q15.c ****       (q15_t) (q31_t) (((q31_t) a * c) >> 17) - (((q31_t) b * d) >> 17);
  70              		.loc 1 82 35 is_stmt 0 view .LVU17
  71 0018 05FB0CFE 		mul	lr, r5, ip
  72              		.loc 1 82 15 view .LVU18
  73 001c 4FEA6E4E 		asr	lr, lr, #17
  74              		.loc 1 82 7 view .LVU19
  75 0020 1FFA8EFE 		uxth	lr, lr
  76              		.loc 1 82 61 view .LVU20
  77 0024 07FB06F8 		mul	r8, r7, r6
  78              	.LVL7:
  79              		.loc 1 82 47 view .LVU21
  80 0028 AEEB684E 		sub	lr, lr, r8, asr #17
  81:Drivers/CMSIS/DSP/Source/ComplexMathFunctions/arm_cmplx_mult_cmplx_q15.c ****       (q15_t) (q31_t) (((q31_t) a * c) >> 17) - (((q31_t) b * d) >> 17);
  81              		.loc 1 81 13 view .LVU22
  82 002c A2F800E0 		strh	lr, [r2]	@ movhi
  83:Drivers/CMSIS/DSP/Source/ComplexMathFunctions/arm_cmplx_mult_cmplx_q15.c ****     /* store the result in 3.13 format in the destination buffer. */
  84:Drivers/CMSIS/DSP/Source/ComplexMathFunctions/arm_cmplx_mult_cmplx_q15.c ****     *pDst++ =
  83              		.loc 1 84 5 is_stmt 1 view .LVU23
  85:Drivers/CMSIS/DSP/Source/ComplexMathFunctions/arm_cmplx_mult_cmplx_q15.c ****       (q15_t) (q31_t) (((q31_t) a * d) >> 17) + (((q31_t) b * c) >> 17);
  84              		.loc 1 85 35 is_stmt 0 view .LVU24
  85 0030 07FB0CFC 		mul	ip, r7, ip
  86              	.LVL8:
ARM GAS  /var/folders/n6/c271nzx11xl4r4_m7sqjlt0m0000gn/T//ccFuWhdE.s 			page 4


  87              		.loc 1 85 15 view .LVU25
  88 0034 4FEA6C4C 		asr	ip, ip, #17
  89              		.loc 1 85 61 view .LVU26
  90 0038 06FB05F5 		mul	r5, r6, r5
  91              	.LVL9:
  92              		.loc 1 85 66 view .LVU27
  93 003c 6D14     		asrs	r5, r5, #17
  94              	.LVL10:
  95              		.loc 1 85 47 view .LVU28
  96 003e 15FA8CFC 		uxtah	ip, r5, ip
  84:Drivers/CMSIS/DSP/Source/ComplexMathFunctions/arm_cmplx_mult_cmplx_q15.c ****       (q15_t) (q31_t) (((q31_t) a * d) >> 17) + (((q31_t) b * c) >> 17);
  97              		.loc 1 84 13 view .LVU29
  98 0042 A2F802C0 		strh	ip, [r2, #2]	@ movhi
  86:Drivers/CMSIS/DSP/Source/ComplexMathFunctions/arm_cmplx_mult_cmplx_q15.c **** 
  87:Drivers/CMSIS/DSP/Source/ComplexMathFunctions/arm_cmplx_mult_cmplx_q15.c ****     a = *pSrcA++;
  99              		.loc 1 87 5 is_stmt 1 view .LVU30
 100              	.LVL11:
 101              		.loc 1 87 7 is_stmt 0 view .LVU31
 102 0046 B0F904C0 		ldrsh	ip, [r0, #4]
 103              	.LVL12:
  88:Drivers/CMSIS/DSP/Source/ComplexMathFunctions/arm_cmplx_mult_cmplx_q15.c ****     b = *pSrcA++;
 104              		.loc 1 88 5 is_stmt 1 view .LVU32
 105              		.loc 1 88 7 is_stmt 0 view .LVU33
 106 004a B0F90660 		ldrsh	r6, [r0, #6]
 107              	.LVL13:
  89:Drivers/CMSIS/DSP/Source/ComplexMathFunctions/arm_cmplx_mult_cmplx_q15.c ****     c = *pSrcB++;
 108              		.loc 1 89 5 is_stmt 1 view .LVU34
 109              		.loc 1 89 7 is_stmt 0 view .LVU35
 110 004e B1F90450 		ldrsh	r5, [r1, #4]
 111              	.LVL14:
  90:Drivers/CMSIS/DSP/Source/ComplexMathFunctions/arm_cmplx_mult_cmplx_q15.c ****     d = *pSrcB++;
 112              		.loc 1 90 5 is_stmt 1 view .LVU36
 113              		.loc 1 90 7 is_stmt 0 view .LVU37
 114 0052 B1F90670 		ldrsh	r7, [r1, #6]
 115              	.LVL15:
  91:Drivers/CMSIS/DSP/Source/ComplexMathFunctions/arm_cmplx_mult_cmplx_q15.c **** 
  92:Drivers/CMSIS/DSP/Source/ComplexMathFunctions/arm_cmplx_mult_cmplx_q15.c ****     /* store the result in 3.13 format in the destination buffer. */
  93:Drivers/CMSIS/DSP/Source/ComplexMathFunctions/arm_cmplx_mult_cmplx_q15.c ****     *pDst++ =
 116              		.loc 1 93 5 is_stmt 1 view .LVU38
  94:Drivers/CMSIS/DSP/Source/ComplexMathFunctions/arm_cmplx_mult_cmplx_q15.c ****       (q15_t) (q31_t) (((q31_t) a * c) >> 17) - (((q31_t) b * d) >> 17);
 117              		.loc 1 94 35 is_stmt 0 view .LVU39
 118 0056 05FB0CFE 		mul	lr, r5, ip
 119              		.loc 1 94 15 view .LVU40
 120 005a 4FEA6E4E 		asr	lr, lr, #17
 121              		.loc 1 94 7 view .LVU41
 122 005e 1FFA8EFE 		uxth	lr, lr
 123              		.loc 1 94 61 view .LVU42
 124 0062 07FB06F8 		mul	r8, r7, r6
 125              	.LVL16:
 126              		.loc 1 94 47 view .LVU43
 127 0066 AEEB684E 		sub	lr, lr, r8, asr #17
  93:Drivers/CMSIS/DSP/Source/ComplexMathFunctions/arm_cmplx_mult_cmplx_q15.c ****       (q15_t) (q31_t) (((q31_t) a * c) >> 17) - (((q31_t) b * d) >> 17);
 128              		.loc 1 93 13 view .LVU44
 129 006a A2F804E0 		strh	lr, [r2, #4]	@ movhi
  95:Drivers/CMSIS/DSP/Source/ComplexMathFunctions/arm_cmplx_mult_cmplx_q15.c ****     /* store the result in 3.13 format in the destination buffer. */
  96:Drivers/CMSIS/DSP/Source/ComplexMathFunctions/arm_cmplx_mult_cmplx_q15.c ****     *pDst++ =
 130              		.loc 1 96 5 is_stmt 1 view .LVU45
ARM GAS  /var/folders/n6/c271nzx11xl4r4_m7sqjlt0m0000gn/T//ccFuWhdE.s 			page 5


  97:Drivers/CMSIS/DSP/Source/ComplexMathFunctions/arm_cmplx_mult_cmplx_q15.c ****       (q15_t) (q31_t) (((q31_t) a * d) >> 17) + (((q31_t) b * c) >> 17);
 131              		.loc 1 97 35 is_stmt 0 view .LVU46
 132 006e 07FB0CFC 		mul	ip, r7, ip
 133              	.LVL17:
 134              		.loc 1 97 15 view .LVU47
 135 0072 4FEA6C4C 		asr	ip, ip, #17
 136              		.loc 1 97 61 view .LVU48
 137 0076 06FB05F5 		mul	r5, r6, r5
 138              	.LVL18:
 139              		.loc 1 97 66 view .LVU49
 140 007a 6D14     		asrs	r5, r5, #17
 141              	.LVL19:
 142              		.loc 1 97 47 view .LVU50
 143 007c 15FA8CFC 		uxtah	ip, r5, ip
  96:Drivers/CMSIS/DSP/Source/ComplexMathFunctions/arm_cmplx_mult_cmplx_q15.c ****       (q15_t) (q31_t) (((q31_t) a * d) >> 17) + (((q31_t) b * c) >> 17);
 144              		.loc 1 96 13 view .LVU51
 145 0080 A2F806C0 		strh	ip, [r2, #6]	@ movhi
  98:Drivers/CMSIS/DSP/Source/ComplexMathFunctions/arm_cmplx_mult_cmplx_q15.c **** 
  99:Drivers/CMSIS/DSP/Source/ComplexMathFunctions/arm_cmplx_mult_cmplx_q15.c ****     a = *pSrcA++;
 146              		.loc 1 99 5 is_stmt 1 view .LVU52
 147              	.LVL20:
 148              		.loc 1 99 7 is_stmt 0 view .LVU53
 149 0084 B0F908C0 		ldrsh	ip, [r0, #8]
 150              	.LVL21:
 100:Drivers/CMSIS/DSP/Source/ComplexMathFunctions/arm_cmplx_mult_cmplx_q15.c ****     b = *pSrcA++;
 151              		.loc 1 100 5 is_stmt 1 view .LVU54
 152              		.loc 1 100 7 is_stmt 0 view .LVU55
 153 0088 B0F90A60 		ldrsh	r6, [r0, #10]
 154              	.LVL22:
 101:Drivers/CMSIS/DSP/Source/ComplexMathFunctions/arm_cmplx_mult_cmplx_q15.c ****     c = *pSrcB++;
 155              		.loc 1 101 5 is_stmt 1 view .LVU56
 156              		.loc 1 101 7 is_stmt 0 view .LVU57
 157 008c B1F90850 		ldrsh	r5, [r1, #8]
 158              	.LVL23:
 102:Drivers/CMSIS/DSP/Source/ComplexMathFunctions/arm_cmplx_mult_cmplx_q15.c ****     d = *pSrcB++;
 159              		.loc 1 102 5 is_stmt 1 view .LVU58
 160              		.loc 1 102 7 is_stmt 0 view .LVU59
 161 0090 B1F90A70 		ldrsh	r7, [r1, #10]
 162              	.LVL24:
 103:Drivers/CMSIS/DSP/Source/ComplexMathFunctions/arm_cmplx_mult_cmplx_q15.c **** 
 104:Drivers/CMSIS/DSP/Source/ComplexMathFunctions/arm_cmplx_mult_cmplx_q15.c ****     /* store the result in 3.13 format in the destination buffer. */
 105:Drivers/CMSIS/DSP/Source/ComplexMathFunctions/arm_cmplx_mult_cmplx_q15.c ****     *pDst++ =
 163              		.loc 1 105 5 is_stmt 1 view .LVU60
 106:Drivers/CMSIS/DSP/Source/ComplexMathFunctions/arm_cmplx_mult_cmplx_q15.c ****       (q15_t) (q31_t) (((q31_t) a * c) >> 17) - (((q31_t) b * d) >> 17);
 164              		.loc 1 106 35 is_stmt 0 view .LVU61
 165 0094 05FB0CFE 		mul	lr, r5, ip
 166              		.loc 1 106 15 view .LVU62
 167 0098 4FEA6E4E 		asr	lr, lr, #17
 168              		.loc 1 106 7 view .LVU63
 169 009c 1FFA8EFE 		uxth	lr, lr
 170              		.loc 1 106 61 view .LVU64
 171 00a0 07FB06F8 		mul	r8, r7, r6
 172              	.LVL25:
 173              		.loc 1 106 47 view .LVU65
 174 00a4 AEEB684E 		sub	lr, lr, r8, asr #17
 105:Drivers/CMSIS/DSP/Source/ComplexMathFunctions/arm_cmplx_mult_cmplx_q15.c ****       (q15_t) (q31_t) (((q31_t) a * c) >> 17) - (((q31_t) b * d) >> 17);
 175              		.loc 1 105 13 view .LVU66
ARM GAS  /var/folders/n6/c271nzx11xl4r4_m7sqjlt0m0000gn/T//ccFuWhdE.s 			page 6


 176 00a8 A2F808E0 		strh	lr, [r2, #8]	@ movhi
 107:Drivers/CMSIS/DSP/Source/ComplexMathFunctions/arm_cmplx_mult_cmplx_q15.c ****     /* store the result in 3.13 format in the destination buffer. */
 108:Drivers/CMSIS/DSP/Source/ComplexMathFunctions/arm_cmplx_mult_cmplx_q15.c ****     *pDst++ =
 177              		.loc 1 108 5 is_stmt 1 view .LVU67
 109:Drivers/CMSIS/DSP/Source/ComplexMathFunctions/arm_cmplx_mult_cmplx_q15.c ****       (q15_t) (q31_t) (((q31_t) a * d) >> 17) + (((q31_t) b * c) >> 17);
 178              		.loc 1 109 35 is_stmt 0 view .LVU68
 179 00ac 07FB0CFC 		mul	ip, r7, ip
 180              	.LVL26:
 181              		.loc 1 109 15 view .LVU69
 182 00b0 4FEA6C4C 		asr	ip, ip, #17
 183              		.loc 1 109 61 view .LVU70
 184 00b4 06FB05F5 		mul	r5, r6, r5
 185              	.LVL27:
 186              		.loc 1 109 66 view .LVU71
 187 00b8 6D14     		asrs	r5, r5, #17
 188              	.LVL28:
 189              		.loc 1 109 47 view .LVU72
 190 00ba 15FA8CFC 		uxtah	ip, r5, ip
 108:Drivers/CMSIS/DSP/Source/ComplexMathFunctions/arm_cmplx_mult_cmplx_q15.c ****       (q15_t) (q31_t) (((q31_t) a * d) >> 17) + (((q31_t) b * c) >> 17);
 191              		.loc 1 108 13 view .LVU73
 192 00be A2F80AC0 		strh	ip, [r2, #10]	@ movhi
 110:Drivers/CMSIS/DSP/Source/ComplexMathFunctions/arm_cmplx_mult_cmplx_q15.c **** 
 111:Drivers/CMSIS/DSP/Source/ComplexMathFunctions/arm_cmplx_mult_cmplx_q15.c ****     a = *pSrcA++;
 193              		.loc 1 111 5 is_stmt 1 view .LVU74
 194              	.LVL29:
 195              		.loc 1 111 7 is_stmt 0 view .LVU75
 196 00c2 B0F90CC0 		ldrsh	ip, [r0, #12]
 197              	.LVL30:
 112:Drivers/CMSIS/DSP/Source/ComplexMathFunctions/arm_cmplx_mult_cmplx_q15.c ****     b = *pSrcA++;
 198              		.loc 1 112 5 is_stmt 1 view .LVU76
 199              		.loc 1 112 7 is_stmt 0 view .LVU77
 200 00c6 B0F90E60 		ldrsh	r6, [r0, #14]
 201              	.LVL31:
 113:Drivers/CMSIS/DSP/Source/ComplexMathFunctions/arm_cmplx_mult_cmplx_q15.c ****     c = *pSrcB++;
 202              		.loc 1 113 5 is_stmt 1 view .LVU78
 203              		.loc 1 113 7 is_stmt 0 view .LVU79
 204 00ca B1F90C50 		ldrsh	r5, [r1, #12]
 205              	.LVL32:
 114:Drivers/CMSIS/DSP/Source/ComplexMathFunctions/arm_cmplx_mult_cmplx_q15.c ****     d = *pSrcB++;
 206              		.loc 1 114 5 is_stmt 1 view .LVU80
 207              		.loc 1 114 7 is_stmt 0 view .LVU81
 208 00ce B1F90E70 		ldrsh	r7, [r1, #14]
 209              	.LVL33:
 115:Drivers/CMSIS/DSP/Source/ComplexMathFunctions/arm_cmplx_mult_cmplx_q15.c **** 
 116:Drivers/CMSIS/DSP/Source/ComplexMathFunctions/arm_cmplx_mult_cmplx_q15.c ****     /* store the result in 3.13 format in the destination buffer. */
 117:Drivers/CMSIS/DSP/Source/ComplexMathFunctions/arm_cmplx_mult_cmplx_q15.c ****     *pDst++ =
 210              		.loc 1 117 5 is_stmt 1 view .LVU82
 118:Drivers/CMSIS/DSP/Source/ComplexMathFunctions/arm_cmplx_mult_cmplx_q15.c ****       (q15_t) (q31_t) (((q31_t) a * c) >> 17) - (((q31_t) b * d) >> 17);
 211              		.loc 1 118 35 is_stmt 0 view .LVU83
 212 00d2 05FB0CFE 		mul	lr, r5, ip
 213              		.loc 1 118 15 view .LVU84
 214 00d6 4FEA6E4E 		asr	lr, lr, #17
 215              		.loc 1 118 7 view .LVU85
 216 00da 1FFA8EFE 		uxth	lr, lr
 217              		.loc 1 118 61 view .LVU86
 218 00de 07FB06F8 		mul	r8, r7, r6
 219              	.LVL34:
ARM GAS  /var/folders/n6/c271nzx11xl4r4_m7sqjlt0m0000gn/T//ccFuWhdE.s 			page 7


 220              		.loc 1 118 47 view .LVU87
 221 00e2 AEEB684E 		sub	lr, lr, r8, asr #17
 117:Drivers/CMSIS/DSP/Source/ComplexMathFunctions/arm_cmplx_mult_cmplx_q15.c ****       (q15_t) (q31_t) (((q31_t) a * c) >> 17) - (((q31_t) b * d) >> 17);
 222              		.loc 1 117 13 view .LVU88
 223 00e6 A2F80CE0 		strh	lr, [r2, #12]	@ movhi
 119:Drivers/CMSIS/DSP/Source/ComplexMathFunctions/arm_cmplx_mult_cmplx_q15.c ****     /* store the result in 3.13 format in the destination buffer. */
 120:Drivers/CMSIS/DSP/Source/ComplexMathFunctions/arm_cmplx_mult_cmplx_q15.c ****     *pDst++ =
 224              		.loc 1 120 5 is_stmt 1 view .LVU89
 121:Drivers/CMSIS/DSP/Source/ComplexMathFunctions/arm_cmplx_mult_cmplx_q15.c ****       (q15_t) (q31_t) (((q31_t) a * d) >> 17) + (((q31_t) b * c) >> 17);
 225              		.loc 1 121 35 is_stmt 0 view .LVU90
 226 00ea 07FB0CFC 		mul	ip, r7, ip
 227              	.LVL35:
 228              		.loc 1 121 15 view .LVU91
 229 00ee 4FEA6C4C 		asr	ip, ip, #17
 230              		.loc 1 121 61 view .LVU92
 231 00f2 06FB05F5 		mul	r5, r6, r5
 232              	.LVL36:
 233              		.loc 1 121 66 view .LVU93
 234 00f6 6D14     		asrs	r5, r5, #17
 235              	.LVL37:
 236              		.loc 1 121 47 view .LVU94
 237 00f8 15FA8CFC 		uxtah	ip, r5, ip
 120:Drivers/CMSIS/DSP/Source/ComplexMathFunctions/arm_cmplx_mult_cmplx_q15.c ****       (q15_t) (q31_t) (((q31_t) a * d) >> 17) + (((q31_t) b * c) >> 17);
 238              		.loc 1 120 13 view .LVU95
 239 00fc A2F80EC0 		strh	ip, [r2, #14]	@ movhi
 122:Drivers/CMSIS/DSP/Source/ComplexMathFunctions/arm_cmplx_mult_cmplx_q15.c **** 
 123:Drivers/CMSIS/DSP/Source/ComplexMathFunctions/arm_cmplx_mult_cmplx_q15.c ****     /* Decrement the blockSize loop counter */
 124:Drivers/CMSIS/DSP/Source/ComplexMathFunctions/arm_cmplx_mult_cmplx_q15.c ****     blkCnt--;
 240              		.loc 1 124 5 is_stmt 1 view .LVU96
 241              		.loc 1 124 11 is_stmt 0 view .LVU97
 242 0100 013C     		subs	r4, r4, #1
 243              	.LVL38:
 120:Drivers/CMSIS/DSP/Source/ComplexMathFunctions/arm_cmplx_mult_cmplx_q15.c ****       (q15_t) (q31_t) (((q31_t) a * d) >> 17) + (((q31_t) b * c) >> 17);
 244              		.loc 1 120 10 view .LVU98
 245 0102 1032     		adds	r2, r2, #16
 246              	.LVL39:
 114:Drivers/CMSIS/DSP/Source/ComplexMathFunctions/arm_cmplx_mult_cmplx_q15.c **** 
 247              		.loc 1 114 15 view .LVU99
 248 0104 1031     		adds	r1, r1, #16
 249              	.LVL40:
 112:Drivers/CMSIS/DSP/Source/ComplexMathFunctions/arm_cmplx_mult_cmplx_q15.c ****     c = *pSrcB++;
 250              		.loc 1 112 15 view .LVU100
 251 0106 1030     		adds	r0, r0, #16
 252              	.LVL41:
 253              	.L2:
  71:Drivers/CMSIS/DSP/Source/ComplexMathFunctions/arm_cmplx_mult_cmplx_q15.c ****   {
 254              		.loc 1 71 17 is_stmt 1 view .LVU101
 255 0108 002C     		cmp	r4, #0
 256 010a 7FF47DAF 		bne	.L3
 125:Drivers/CMSIS/DSP/Source/ComplexMathFunctions/arm_cmplx_mult_cmplx_q15.c ****   }
 126:Drivers/CMSIS/DSP/Source/ComplexMathFunctions/arm_cmplx_mult_cmplx_q15.c **** 
 127:Drivers/CMSIS/DSP/Source/ComplexMathFunctions/arm_cmplx_mult_cmplx_q15.c ****   /* If the blockSize is not a multiple of 4, compute any remaining output samples here.
 128:Drivers/CMSIS/DSP/Source/ComplexMathFunctions/arm_cmplx_mult_cmplx_q15.c ****    ** No loop unrolling is used. */
 129:Drivers/CMSIS/DSP/Source/ComplexMathFunctions/arm_cmplx_mult_cmplx_q15.c ****   blkCnt = numSamples % 0x4U;
 257              		.loc 1 129 3 view .LVU102
 258              		.loc 1 129 10 is_stmt 0 view .LVU103
 259 010e 03F00303 		and	r3, r3, #3
ARM GAS  /var/folders/n6/c271nzx11xl4r4_m7sqjlt0m0000gn/T//ccFuWhdE.s 			page 8


 260              	.LVL42:
 130:Drivers/CMSIS/DSP/Source/ComplexMathFunctions/arm_cmplx_mult_cmplx_q15.c **** 
 131:Drivers/CMSIS/DSP/Source/ComplexMathFunctions/arm_cmplx_mult_cmplx_q15.c ****   while (blkCnt > 0U)
 261              		.loc 1 131 3 is_stmt 1 view .LVU104
 262              		.loc 1 131 9 is_stmt 0 view .LVU105
 263 0112 23E0     		b	.L4
 264              	.L5:
 132:Drivers/CMSIS/DSP/Source/ComplexMathFunctions/arm_cmplx_mult_cmplx_q15.c ****   {
 133:Drivers/CMSIS/DSP/Source/ComplexMathFunctions/arm_cmplx_mult_cmplx_q15.c ****     /* C[2 * i] = A[2 * i] * B[2 * i] - A[2 * i + 1] * B[2 * i + 1].  */
 134:Drivers/CMSIS/DSP/Source/ComplexMathFunctions/arm_cmplx_mult_cmplx_q15.c ****     /* C[2 * i + 1] = A[2 * i] * B[2 * i + 1] + A[2 * i + 1] * B[2 * i].  */
 135:Drivers/CMSIS/DSP/Source/ComplexMathFunctions/arm_cmplx_mult_cmplx_q15.c ****     a = *pSrcA++;
 265              		.loc 1 135 5 is_stmt 1 view .LVU106
 266              	.LVL43:
 267              		.loc 1 135 7 is_stmt 0 view .LVU107
 268 0114 0446     		mov	r4, r0
 269 0116 34F904CB 		ldrsh	ip, [r4], #4
 270              	.LVL44:
 136:Drivers/CMSIS/DSP/Source/ComplexMathFunctions/arm_cmplx_mult_cmplx_q15.c ****     b = *pSrcA++;
 271              		.loc 1 136 5 is_stmt 1 view .LVU108
 272              		.loc 1 136 7 is_stmt 0 view .LVU109
 273 011a B0F90250 		ldrsh	r5, [r0, #2]
 274              	.LVL45:
 137:Drivers/CMSIS/DSP/Source/ComplexMathFunctions/arm_cmplx_mult_cmplx_q15.c ****     c = *pSrcB++;
 275              		.loc 1 137 5 is_stmt 1 view .LVU110
 276              		.loc 1 137 7 is_stmt 0 view .LVU111
 277 011e 8E46     		mov	lr, r1
 278 0120 3EF9040B 		ldrsh	r0, [lr], #4
 279              	.LVL46:
 138:Drivers/CMSIS/DSP/Source/ComplexMathFunctions/arm_cmplx_mult_cmplx_q15.c ****     d = *pSrcB++;
 280              		.loc 1 138 5 is_stmt 1 view .LVU112
 281              		.loc 1 138 7 is_stmt 0 view .LVU113
 282 0124 B1F90270 		ldrsh	r7, [r1, #2]
 283              	.LVL47:
 139:Drivers/CMSIS/DSP/Source/ComplexMathFunctions/arm_cmplx_mult_cmplx_q15.c **** 
 140:Drivers/CMSIS/DSP/Source/ComplexMathFunctions/arm_cmplx_mult_cmplx_q15.c ****     /* store the result in 3.13 format in the destination buffer. */
 141:Drivers/CMSIS/DSP/Source/ComplexMathFunctions/arm_cmplx_mult_cmplx_q15.c ****     *pDst++ =
 284              		.loc 1 141 5 is_stmt 1 view .LVU114
 142:Drivers/CMSIS/DSP/Source/ComplexMathFunctions/arm_cmplx_mult_cmplx_q15.c ****       (q15_t) (q31_t) (((q31_t) a * c) >> 17) - (((q31_t) b * d) >> 17);
 285              		.loc 1 142 35 is_stmt 0 view .LVU115
 286 0128 00FB0CF1 		mul	r1, r0, ip
 287              		.loc 1 142 15 view .LVU116
 288 012c 4914     		asrs	r1, r1, #17
 289              		.loc 1 142 7 view .LVU117
 290 012e 89B2     		uxth	r1, r1
 291              		.loc 1 142 61 view .LVU118
 292 0130 07FB05F6 		mul	r6, r7, r5
 293              	.LVL48:
 294              		.loc 1 142 47 view .LVU119
 295 0134 A1EB6641 		sub	r1, r1, r6, asr #17
 141:Drivers/CMSIS/DSP/Source/ComplexMathFunctions/arm_cmplx_mult_cmplx_q15.c ****       (q15_t) (q31_t) (((q31_t) a * c) >> 17) - (((q31_t) b * d) >> 17);
 296              		.loc 1 141 13 view .LVU120
 297 0138 1646     		mov	r6, r2
 298 013a 26F8041B 		strh	r1, [r6], #4	@ movhi
 143:Drivers/CMSIS/DSP/Source/ComplexMathFunctions/arm_cmplx_mult_cmplx_q15.c ****     /* store the result in 3.13 format in the destination buffer. */
 144:Drivers/CMSIS/DSP/Source/ComplexMathFunctions/arm_cmplx_mult_cmplx_q15.c ****     *pDst++ =
 299              		.loc 1 144 5 is_stmt 1 view .LVU121
 145:Drivers/CMSIS/DSP/Source/ComplexMathFunctions/arm_cmplx_mult_cmplx_q15.c ****       (q15_t) (q31_t) (((q31_t) a * d) >> 17) + (((q31_t) b * c) >> 17);
ARM GAS  /var/folders/n6/c271nzx11xl4r4_m7sqjlt0m0000gn/T//ccFuWhdE.s 			page 9


 300              		.loc 1 145 35 is_stmt 0 view .LVU122
 301 013e 07FB0CFC 		mul	ip, r7, ip
 302              	.LVL49:
 303              		.loc 1 145 15 view .LVU123
 304 0142 4FEA6C4C 		asr	ip, ip, #17
 305              		.loc 1 145 61 view .LVU124
 306 0146 05FB00F0 		mul	r0, r5, r0
 307              	.LVL50:
 308              		.loc 1 145 66 view .LVU125
 309 014a 4014     		asrs	r0, r0, #17
 310              	.LVL51:
 311              		.loc 1 145 47 view .LVU126
 312 014c 10FA8CFC 		uxtah	ip, r0, ip
 144:Drivers/CMSIS/DSP/Source/ComplexMathFunctions/arm_cmplx_mult_cmplx_q15.c ****       (q15_t) (q31_t) (((q31_t) a * d) >> 17) + (((q31_t) b * c) >> 17);
 313              		.loc 1 144 13 view .LVU127
 314 0150 A2F802C0 		strh	ip, [r2, #2]	@ movhi
 146:Drivers/CMSIS/DSP/Source/ComplexMathFunctions/arm_cmplx_mult_cmplx_q15.c **** 
 147:Drivers/CMSIS/DSP/Source/ComplexMathFunctions/arm_cmplx_mult_cmplx_q15.c ****     /* Decrement the blockSize loop counter */
 148:Drivers/CMSIS/DSP/Source/ComplexMathFunctions/arm_cmplx_mult_cmplx_q15.c ****     blkCnt--;
 315              		.loc 1 148 5 is_stmt 1 view .LVU128
 316              		.loc 1 148 11 is_stmt 0 view .LVU129
 317 0154 013B     		subs	r3, r3, #1
 318              	.LVL52:
 144:Drivers/CMSIS/DSP/Source/ComplexMathFunctions/arm_cmplx_mult_cmplx_q15.c ****       (q15_t) (q31_t) (((q31_t) a * d) >> 17) + (((q31_t) b * c) >> 17);
 319              		.loc 1 144 10 view .LVU130
 320 0156 3246     		mov	r2, r6
 138:Drivers/CMSIS/DSP/Source/ComplexMathFunctions/arm_cmplx_mult_cmplx_q15.c **** 
 321              		.loc 1 138 15 view .LVU131
 322 0158 7146     		mov	r1, lr
 136:Drivers/CMSIS/DSP/Source/ComplexMathFunctions/arm_cmplx_mult_cmplx_q15.c ****     c = *pSrcB++;
 323              		.loc 1 136 15 view .LVU132
 324 015a 2046     		mov	r0, r4
 325              	.LVL53:
 326              	.L4:
 131:Drivers/CMSIS/DSP/Source/ComplexMathFunctions/arm_cmplx_mult_cmplx_q15.c ****   {
 327              		.loc 1 131 17 is_stmt 1 view .LVU133
 328 015c 002B     		cmp	r3, #0
 329 015e D9D1     		bne	.L5
 149:Drivers/CMSIS/DSP/Source/ComplexMathFunctions/arm_cmplx_mult_cmplx_q15.c ****   }
 150:Drivers/CMSIS/DSP/Source/ComplexMathFunctions/arm_cmplx_mult_cmplx_q15.c **** 
 151:Drivers/CMSIS/DSP/Source/ComplexMathFunctions/arm_cmplx_mult_cmplx_q15.c **** #else
 152:Drivers/CMSIS/DSP/Source/ComplexMathFunctions/arm_cmplx_mult_cmplx_q15.c **** 
 153:Drivers/CMSIS/DSP/Source/ComplexMathFunctions/arm_cmplx_mult_cmplx_q15.c ****   /* Run the below code for Cortex-M0 */
 154:Drivers/CMSIS/DSP/Source/ComplexMathFunctions/arm_cmplx_mult_cmplx_q15.c **** 
 155:Drivers/CMSIS/DSP/Source/ComplexMathFunctions/arm_cmplx_mult_cmplx_q15.c ****   while (numSamples > 0U)
 156:Drivers/CMSIS/DSP/Source/ComplexMathFunctions/arm_cmplx_mult_cmplx_q15.c ****   {
 157:Drivers/CMSIS/DSP/Source/ComplexMathFunctions/arm_cmplx_mult_cmplx_q15.c ****     /* C[2 * i] = A[2 * i] * B[2 * i] - A[2 * i + 1] * B[2 * i + 1].  */
 158:Drivers/CMSIS/DSP/Source/ComplexMathFunctions/arm_cmplx_mult_cmplx_q15.c ****     /* C[2 * i + 1] = A[2 * i] * B[2 * i + 1] + A[2 * i + 1] * B[2 * i].  */
 159:Drivers/CMSIS/DSP/Source/ComplexMathFunctions/arm_cmplx_mult_cmplx_q15.c ****     a = *pSrcA++;
 160:Drivers/CMSIS/DSP/Source/ComplexMathFunctions/arm_cmplx_mult_cmplx_q15.c ****     b = *pSrcA++;
 161:Drivers/CMSIS/DSP/Source/ComplexMathFunctions/arm_cmplx_mult_cmplx_q15.c ****     c = *pSrcB++;
 162:Drivers/CMSIS/DSP/Source/ComplexMathFunctions/arm_cmplx_mult_cmplx_q15.c ****     d = *pSrcB++;
 163:Drivers/CMSIS/DSP/Source/ComplexMathFunctions/arm_cmplx_mult_cmplx_q15.c **** 
 164:Drivers/CMSIS/DSP/Source/ComplexMathFunctions/arm_cmplx_mult_cmplx_q15.c ****     /* store the result in 3.13 format in the destination buffer. */
 165:Drivers/CMSIS/DSP/Source/ComplexMathFunctions/arm_cmplx_mult_cmplx_q15.c ****     *pDst++ =
 166:Drivers/CMSIS/DSP/Source/ComplexMathFunctions/arm_cmplx_mult_cmplx_q15.c ****       (q15_t) (q31_t) (((q31_t) a * c) >> 17) - (((q31_t) b * d) >> 17);
 167:Drivers/CMSIS/DSP/Source/ComplexMathFunctions/arm_cmplx_mult_cmplx_q15.c ****     /* store the result in 3.13 format in the destination buffer. */
ARM GAS  /var/folders/n6/c271nzx11xl4r4_m7sqjlt0m0000gn/T//ccFuWhdE.s 			page 10


 168:Drivers/CMSIS/DSP/Source/ComplexMathFunctions/arm_cmplx_mult_cmplx_q15.c ****     *pDst++ =
 169:Drivers/CMSIS/DSP/Source/ComplexMathFunctions/arm_cmplx_mult_cmplx_q15.c ****       (q15_t) (q31_t) (((q31_t) a * d) >> 17) + (((q31_t) b * c) >> 17);
 170:Drivers/CMSIS/DSP/Source/ComplexMathFunctions/arm_cmplx_mult_cmplx_q15.c **** 
 171:Drivers/CMSIS/DSP/Source/ComplexMathFunctions/arm_cmplx_mult_cmplx_q15.c ****     /* Decrement the blockSize loop counter */
 172:Drivers/CMSIS/DSP/Source/ComplexMathFunctions/arm_cmplx_mult_cmplx_q15.c ****     numSamples--;
 173:Drivers/CMSIS/DSP/Source/ComplexMathFunctions/arm_cmplx_mult_cmplx_q15.c ****   }
 174:Drivers/CMSIS/DSP/Source/ComplexMathFunctions/arm_cmplx_mult_cmplx_q15.c **** 
 175:Drivers/CMSIS/DSP/Source/ComplexMathFunctions/arm_cmplx_mult_cmplx_q15.c **** #endif /* #if defined (ARM_MATH_DSP) */
 176:Drivers/CMSIS/DSP/Source/ComplexMathFunctions/arm_cmplx_mult_cmplx_q15.c **** 
 177:Drivers/CMSIS/DSP/Source/ComplexMathFunctions/arm_cmplx_mult_cmplx_q15.c **** }
 330              		.loc 1 177 1 is_stmt 0 view .LVU134
 331 0160 BDE8F081 		pop	{r4, r5, r6, r7, r8, pc}
 332              		.cfi_endproc
 333              	.LFE135:
 335              		.text
 336              	.Letext0:
 337              		.file 2 "/Users/killian/Library/Application Support/Code/User/globalStorage/bmd.stm32-for-vscode/@
 338              		.file 3 "/Users/killian/Library/Application Support/Code/User/globalStorage/bmd.stm32-for-vscode/@
 339              		.file 4 "Drivers/CMSIS/DSP/Include/arm_math.h"
ARM GAS  /var/folders/n6/c271nzx11xl4r4_m7sqjlt0m0000gn/T//ccFuWhdE.s 			page 11

