ARM GAS  /var/folders/n6/c271nzx11xl4r4_m7sqjlt0m0000gn/T//cccfc6gu.s 			page 1


   1              		.cpu cortex-m7
   2              		.arch armv7e-m
   3              		.fpu fpv5-d16
   4              		.eabi_attribute 28, 1
   5              		.eabi_attribute 20, 1
   6              		.eabi_attribute 21, 1
   7              		.eabi_attribute 23, 3
   8              		.eabi_attribute 24, 1
   9              		.eabi_attribute 25, 1
  10              		.eabi_attribute 26, 1
  11              		.eabi_attribute 30, 1
  12              		.eabi_attribute 34, 1
  13              		.eabi_attribute 18, 4
  14              		.file	"arm_sqrt_q31.c"
  15              		.text
  16              	.Ltext0:
  17              		.cfi_sections	.debug_frame
  18              		.file 1 "Drivers/CMSIS/DSP/Source/FastMathFunctions/arm_sqrt_q31.c"
  19              		.section	.text.arm_sqrt_q31,"ax",%progbits
  20              		.align	1
  21              		.global	arm_sqrt_q31
  22              		.syntax unified
  23              		.thumb
  24              		.thumb_func
  26              	arm_sqrt_q31:
  27              	.LVL0:
  28              	.LFB135:
   1:Drivers/CMSIS/DSP/Source/FastMathFunctions/arm_sqrt_q31.c **** /* ----------------------------------------------------------------------
   2:Drivers/CMSIS/DSP/Source/FastMathFunctions/arm_sqrt_q31.c ****  * Project:      CMSIS DSP Library
   3:Drivers/CMSIS/DSP/Source/FastMathFunctions/arm_sqrt_q31.c ****  * Title:        arm_sqrt_q31.c
   4:Drivers/CMSIS/DSP/Source/FastMathFunctions/arm_sqrt_q31.c ****  * Description:  Q31 square root function
   5:Drivers/CMSIS/DSP/Source/FastMathFunctions/arm_sqrt_q31.c ****  *
   6:Drivers/CMSIS/DSP/Source/FastMathFunctions/arm_sqrt_q31.c ****  * $Date:        27. January 2017
   7:Drivers/CMSIS/DSP/Source/FastMathFunctions/arm_sqrt_q31.c ****  * $Revision:    V.1.5.1
   8:Drivers/CMSIS/DSP/Source/FastMathFunctions/arm_sqrt_q31.c ****  *
   9:Drivers/CMSIS/DSP/Source/FastMathFunctions/arm_sqrt_q31.c ****  * Target Processor: Cortex-M cores
  10:Drivers/CMSIS/DSP/Source/FastMathFunctions/arm_sqrt_q31.c ****  * -------------------------------------------------------------------- */
  11:Drivers/CMSIS/DSP/Source/FastMathFunctions/arm_sqrt_q31.c **** /*
  12:Drivers/CMSIS/DSP/Source/FastMathFunctions/arm_sqrt_q31.c ****  * Copyright (C) 2010-2017 ARM Limited or its affiliates. All rights reserved.
  13:Drivers/CMSIS/DSP/Source/FastMathFunctions/arm_sqrt_q31.c ****  *
  14:Drivers/CMSIS/DSP/Source/FastMathFunctions/arm_sqrt_q31.c ****  * SPDX-License-Identifier: Apache-2.0
  15:Drivers/CMSIS/DSP/Source/FastMathFunctions/arm_sqrt_q31.c ****  *
  16:Drivers/CMSIS/DSP/Source/FastMathFunctions/arm_sqrt_q31.c ****  * Licensed under the Apache License, Version 2.0 (the License); you may
  17:Drivers/CMSIS/DSP/Source/FastMathFunctions/arm_sqrt_q31.c ****  * not use this file except in compliance with the License.
  18:Drivers/CMSIS/DSP/Source/FastMathFunctions/arm_sqrt_q31.c ****  * You may obtain a copy of the License at
  19:Drivers/CMSIS/DSP/Source/FastMathFunctions/arm_sqrt_q31.c ****  *
  20:Drivers/CMSIS/DSP/Source/FastMathFunctions/arm_sqrt_q31.c ****  * www.apache.org/licenses/LICENSE-2.0
  21:Drivers/CMSIS/DSP/Source/FastMathFunctions/arm_sqrt_q31.c ****  *
  22:Drivers/CMSIS/DSP/Source/FastMathFunctions/arm_sqrt_q31.c ****  * Unless required by applicable law or agreed to in writing, software
  23:Drivers/CMSIS/DSP/Source/FastMathFunctions/arm_sqrt_q31.c ****  * distributed under the License is distributed on an AS IS BASIS, WITHOUT
  24:Drivers/CMSIS/DSP/Source/FastMathFunctions/arm_sqrt_q31.c ****  * WARRANTIES OR CONDITIONS OF ANY KIND, either express or implied.
  25:Drivers/CMSIS/DSP/Source/FastMathFunctions/arm_sqrt_q31.c ****  * See the License for the specific language governing permissions and
  26:Drivers/CMSIS/DSP/Source/FastMathFunctions/arm_sqrt_q31.c ****  * limitations under the License.
  27:Drivers/CMSIS/DSP/Source/FastMathFunctions/arm_sqrt_q31.c ****  */
  28:Drivers/CMSIS/DSP/Source/FastMathFunctions/arm_sqrt_q31.c **** 
  29:Drivers/CMSIS/DSP/Source/FastMathFunctions/arm_sqrt_q31.c **** #include "arm_math.h"
  30:Drivers/CMSIS/DSP/Source/FastMathFunctions/arm_sqrt_q31.c **** #include "arm_common_tables.h"
ARM GAS  /var/folders/n6/c271nzx11xl4r4_m7sqjlt0m0000gn/T//cccfc6gu.s 			page 2


  31:Drivers/CMSIS/DSP/Source/FastMathFunctions/arm_sqrt_q31.c **** 
  32:Drivers/CMSIS/DSP/Source/FastMathFunctions/arm_sqrt_q31.c **** /**
  33:Drivers/CMSIS/DSP/Source/FastMathFunctions/arm_sqrt_q31.c ****  * @ingroup groupFastMath
  34:Drivers/CMSIS/DSP/Source/FastMathFunctions/arm_sqrt_q31.c ****  */
  35:Drivers/CMSIS/DSP/Source/FastMathFunctions/arm_sqrt_q31.c **** 
  36:Drivers/CMSIS/DSP/Source/FastMathFunctions/arm_sqrt_q31.c **** /**
  37:Drivers/CMSIS/DSP/Source/FastMathFunctions/arm_sqrt_q31.c ****  * @addtogroup SQRT
  38:Drivers/CMSIS/DSP/Source/FastMathFunctions/arm_sqrt_q31.c ****  * @{
  39:Drivers/CMSIS/DSP/Source/FastMathFunctions/arm_sqrt_q31.c ****  */
  40:Drivers/CMSIS/DSP/Source/FastMathFunctions/arm_sqrt_q31.c **** 
  41:Drivers/CMSIS/DSP/Source/FastMathFunctions/arm_sqrt_q31.c **** /**
  42:Drivers/CMSIS/DSP/Source/FastMathFunctions/arm_sqrt_q31.c ****  * @brief Q31 square root function.
  43:Drivers/CMSIS/DSP/Source/FastMathFunctions/arm_sqrt_q31.c ****  * @param[in]   in    input value.  The range of the input value is [0 +1) or 0x00000000 to 0x7FFFF
  44:Drivers/CMSIS/DSP/Source/FastMathFunctions/arm_sqrt_q31.c ****  * @param[out]  *pOut square root of input value.
  45:Drivers/CMSIS/DSP/Source/FastMathFunctions/arm_sqrt_q31.c ****  * @return The function returns ARM_MATH_SUCCESS if the input value is positive
  46:Drivers/CMSIS/DSP/Source/FastMathFunctions/arm_sqrt_q31.c ****  * and ARM_MATH_ARGUMENT_ERROR if the input is negative.  For
  47:Drivers/CMSIS/DSP/Source/FastMathFunctions/arm_sqrt_q31.c ****  * negative inputs, the function returns *pOut = 0.
  48:Drivers/CMSIS/DSP/Source/FastMathFunctions/arm_sqrt_q31.c ****  */
  49:Drivers/CMSIS/DSP/Source/FastMathFunctions/arm_sqrt_q31.c **** 
  50:Drivers/CMSIS/DSP/Source/FastMathFunctions/arm_sqrt_q31.c **** arm_status arm_sqrt_q31(
  51:Drivers/CMSIS/DSP/Source/FastMathFunctions/arm_sqrt_q31.c ****   q31_t in,
  52:Drivers/CMSIS/DSP/Source/FastMathFunctions/arm_sqrt_q31.c ****   q31_t * pOut)
  53:Drivers/CMSIS/DSP/Source/FastMathFunctions/arm_sqrt_q31.c **** {
  29              		.loc 1 53 1 view -0
  30              		.cfi_startproc
  31              		@ args = 0, pretend = 0, frame = 0
  32              		@ frame_needed = 0, uses_anonymous_args = 0
  54:Drivers/CMSIS/DSP/Source/FastMathFunctions/arm_sqrt_q31.c ****   q31_t number, temp1, bits_val1, var1, signBits1, half;
  33              		.loc 1 54 3 view .LVU1
  55:Drivers/CMSIS/DSP/Source/FastMathFunctions/arm_sqrt_q31.c ****   float32_t temp_float1;
  34              		.loc 1 55 3 view .LVU2
  56:Drivers/CMSIS/DSP/Source/FastMathFunctions/arm_sqrt_q31.c ****   union
  35              		.loc 1 56 3 view .LVU3
  57:Drivers/CMSIS/DSP/Source/FastMathFunctions/arm_sqrt_q31.c ****   {
  58:Drivers/CMSIS/DSP/Source/FastMathFunctions/arm_sqrt_q31.c ****       q31_t fracval;
  59:Drivers/CMSIS/DSP/Source/FastMathFunctions/arm_sqrt_q31.c ****       float32_t floatval;
  60:Drivers/CMSIS/DSP/Source/FastMathFunctions/arm_sqrt_q31.c ****   } tempconv;
  61:Drivers/CMSIS/DSP/Source/FastMathFunctions/arm_sqrt_q31.c **** 
  62:Drivers/CMSIS/DSP/Source/FastMathFunctions/arm_sqrt_q31.c ****   number = in;
  36              		.loc 1 62 3 view .LVU4
  63:Drivers/CMSIS/DSP/Source/FastMathFunctions/arm_sqrt_q31.c **** 
  64:Drivers/CMSIS/DSP/Source/FastMathFunctions/arm_sqrt_q31.c ****   /* If the input is a positive number then compute the signBits. */
  65:Drivers/CMSIS/DSP/Source/FastMathFunctions/arm_sqrt_q31.c ****   if (number > 0)
  37              		.loc 1 65 3 view .LVU5
  38              		.loc 1 65 6 is_stmt 0 view .LVU6
  39 0000 0028     		cmp	r0, #0
  40              		.loc 1 65 6 view .LVU7
  41 0002 40F3B980 		ble	.L2
  53:Drivers/CMSIS/DSP/Source/FastMathFunctions/arm_sqrt_q31.c ****   q31_t number, temp1, bits_val1, var1, signBits1, half;
  42              		.loc 1 53 1 view .LVU8
  43 0006 2DE9F043 		push	{r4, r5, r6, r7, r8, r9, lr}
  44              		.cfi_def_cfa_offset 28
  45              		.cfi_offset 4, -28
  46              		.cfi_offset 5, -24
  47              		.cfi_offset 6, -20
  48              		.cfi_offset 7, -16
  49              		.cfi_offset 8, -12
ARM GAS  /var/folders/n6/c271nzx11xl4r4_m7sqjlt0m0000gn/T//cccfc6gu.s 			page 3


  50              		.cfi_offset 9, -8
  51              		.cfi_offset 14, -4
  66:Drivers/CMSIS/DSP/Source/FastMathFunctions/arm_sqrt_q31.c ****   {
  67:Drivers/CMSIS/DSP/Source/FastMathFunctions/arm_sqrt_q31.c ****     signBits1 = __CLZ(number) - 1;
  52              		.loc 1 67 5 is_stmt 1 view .LVU9
  53 000a B0FA80FE 		clz	lr, r0
  54              		.loc 1 67 15 is_stmt 0 discriminator 1 view .LVU10
  55 000e 0EF1FF34 		add	r4, lr, #-1
  56              	.LVL1:
  68:Drivers/CMSIS/DSP/Source/FastMathFunctions/arm_sqrt_q31.c **** 
  69:Drivers/CMSIS/DSP/Source/FastMathFunctions/arm_sqrt_q31.c ****     /* Shift by the number of signBits1 */
  70:Drivers/CMSIS/DSP/Source/FastMathFunctions/arm_sqrt_q31.c ****     if ((signBits1 % 2) == 0)
  57              		.loc 1 70 5 is_stmt 1 view .LVU11
  58              		.loc 1 70 8 is_stmt 0 view .LVU12
  59 0012 14F00105 		ands	r5, r4, #1
  60 0016 40F09E80 		bne	.L3
  71:Drivers/CMSIS/DSP/Source/FastMathFunctions/arm_sqrt_q31.c ****     {
  72:Drivers/CMSIS/DSP/Source/FastMathFunctions/arm_sqrt_q31.c ****       number = number << signBits1;
  61              		.loc 1 72 7 is_stmt 1 view .LVU13
  62              		.loc 1 72 14 is_stmt 0 view .LVU14
  63 001a A040     		lsls	r0, r0, r4
  64              	.LVL2:
  65              	.L4:
  73:Drivers/CMSIS/DSP/Source/FastMathFunctions/arm_sqrt_q31.c ****     }
  74:Drivers/CMSIS/DSP/Source/FastMathFunctions/arm_sqrt_q31.c ****     else
  75:Drivers/CMSIS/DSP/Source/FastMathFunctions/arm_sqrt_q31.c ****     {
  76:Drivers/CMSIS/DSP/Source/FastMathFunctions/arm_sqrt_q31.c ****       number = number << (signBits1 - 1);
  77:Drivers/CMSIS/DSP/Source/FastMathFunctions/arm_sqrt_q31.c ****     }
  78:Drivers/CMSIS/DSP/Source/FastMathFunctions/arm_sqrt_q31.c **** 
  79:Drivers/CMSIS/DSP/Source/FastMathFunctions/arm_sqrt_q31.c ****     /* Calculate half value of the number */
  80:Drivers/CMSIS/DSP/Source/FastMathFunctions/arm_sqrt_q31.c ****     half = number >> 1;
  66              		.loc 1 80 5 is_stmt 1 view .LVU15
  67              		.loc 1 80 10 is_stmt 0 view .LVU16
  68 001c 4310     		asrs	r3, r0, #1
  69              	.LVL3:
  81:Drivers/CMSIS/DSP/Source/FastMathFunctions/arm_sqrt_q31.c ****     /* Store the number for later use */
  82:Drivers/CMSIS/DSP/Source/FastMathFunctions/arm_sqrt_q31.c ****     temp1 = number;
  70              		.loc 1 82 5 is_stmt 1 view .LVU17
  83:Drivers/CMSIS/DSP/Source/FastMathFunctions/arm_sqrt_q31.c **** 
  84:Drivers/CMSIS/DSP/Source/FastMathFunctions/arm_sqrt_q31.c ****     /*Convert to float */
  85:Drivers/CMSIS/DSP/Source/FastMathFunctions/arm_sqrt_q31.c ****     temp_float1 = number * 4.6566128731e-010f;
  71              		.loc 1 85 5 view .LVU18
  72              		.loc 1 85 26 is_stmt 0 view .LVU19
  73 001e 07EE900A 		vmov	s15, r0	@ int
  74 0022 F8EEE77A 		vcvt.f32.s32	s15, s15
  75              		.loc 1 85 17 view .LVU20
  76 0026 9FED577A 		vldr.32	s14, .L16
  77 002a 67EE877A 		vmul.f32	s15, s15, s14
  78              	.LVL4:
  86:Drivers/CMSIS/DSP/Source/FastMathFunctions/arm_sqrt_q31.c ****     /*Store as integer */
  87:Drivers/CMSIS/DSP/Source/FastMathFunctions/arm_sqrt_q31.c ****     tempconv.floatval = temp_float1;
  79              		.loc 1 87 5 is_stmt 1 view .LVU21
  88:Drivers/CMSIS/DSP/Source/FastMathFunctions/arm_sqrt_q31.c ****     bits_val1 = tempconv.fracval;
  80              		.loc 1 88 5 view .LVU22
  89:Drivers/CMSIS/DSP/Source/FastMathFunctions/arm_sqrt_q31.c ****     /* Subtract the shifted value from the magic number to give intial guess */
  90:Drivers/CMSIS/DSP/Source/FastMathFunctions/arm_sqrt_q31.c ****     bits_val1 = 0x5f3759df - (bits_val1 >> 1);  /* gives initial guess */
  81              		.loc 1 90 5 view .LVU23
ARM GAS  /var/folders/n6/c271nzx11xl4r4_m7sqjlt0m0000gn/T//cccfc6gu.s 			page 4


  82              		.loc 1 90 15 is_stmt 0 view .LVU24
  83 002e 564E     		ldr	r6, .L16+4
  84 0030 17EE902A 		vmov	r2, s15	@ int
  85 0034 A6EB6206 		sub	r6, r6, r2, asr #1
  86              	.LVL5:
  91:Drivers/CMSIS/DSP/Source/FastMathFunctions/arm_sqrt_q31.c ****     /* Store as float */
  92:Drivers/CMSIS/DSP/Source/FastMathFunctions/arm_sqrt_q31.c ****     tempconv.fracval = bits_val1;
  87              		.loc 1 92 5 is_stmt 1 view .LVU25
  93:Drivers/CMSIS/DSP/Source/FastMathFunctions/arm_sqrt_q31.c ****     temp_float1 = tempconv.floatval;
  88              		.loc 1 93 5 view .LVU26
  94:Drivers/CMSIS/DSP/Source/FastMathFunctions/arm_sqrt_q31.c ****     /* Convert to integer format */
  95:Drivers/CMSIS/DSP/Source/FastMathFunctions/arm_sqrt_q31.c ****     var1 = (q31_t) (temp_float1 * 1073741824);
  89              		.loc 1 95 5 view .LVU27
  90              		.loc 1 95 10 is_stmt 0 view .LVU28
  91 0038 07EE906A 		vmov	s15, r6
  92 003c FEEEC17A 		vcvt.s32.f32	s15, s15, #30
  93 0040 17EE906A 		vmov	r6, s15	@ int
  94              	.LVL6:
  96:Drivers/CMSIS/DSP/Source/FastMathFunctions/arm_sqrt_q31.c **** 
  97:Drivers/CMSIS/DSP/Source/FastMathFunctions/arm_sqrt_q31.c ****     /* 1st iteration */
  98:Drivers/CMSIS/DSP/Source/FastMathFunctions/arm_sqrt_q31.c ****     var1 = ((q31_t) ((q63_t) var1 * (0x30000000 -
  95              		.loc 1 98 5 is_stmt 1 view .LVU29
  96              		.loc 1 98 22 is_stmt 0 view .LVU30
  97 0044 4FEAE678 		asr	r8, r6, #31
  99:Drivers/CMSIS/DSP/Source/FastMathFunctions/arm_sqrt_q31.c ****                                      ((q31_t)
 100:Drivers/CMSIS/DSP/Source/FastMathFunctions/arm_sqrt_q31.c ****                                       ((((q31_t)
 101:Drivers/CMSIS/DSP/Source/FastMathFunctions/arm_sqrt_q31.c ****                                          (((q63_t) var1 * var1) >> 31)) *
  98              		.loc 1 101 57 view .LVU31
  99 0048 06FB08FC 		mul	ip, r6, r8
 100 004c A6FB0627 		umull	r2, r7, r6, r6
 101              	.LVL7:
 102              		.loc 1 101 57 view .LVU32
 103 0050 07EB4C07 		add	r7, r7, ip, lsl #1
 104              		.loc 1 101 65 view .LVU33
 105 0054 D20F     		lsrs	r2, r2, #31
 106 0056 42EA4702 		orr	r2, r2, r7, lsl #1
 100:Drivers/CMSIS/DSP/Source/FastMathFunctions/arm_sqrt_q31.c ****                                          (((q63_t) var1 * var1) >> 31)) *
 107              		.loc 1 100 42 view .LVU34
 108 005a 4FEAE279 		asr	r9, r2, #31
 102:Drivers/CMSIS/DSP/Source/FastMathFunctions/arm_sqrt_q31.c ****                                         (q63_t) half) >> 31))) >> 31)) << 2;
 109              		.loc 1 102 41 view .LVU35
 110 005e 4FEAE07C 		asr	ip, r0, #31
 101:Drivers/CMSIS/DSP/Source/FastMathFunctions/arm_sqrt_q31.c ****                                         (q63_t) half) >> 31))) >> 31)) << 2;
 111              		.loc 1 101 73 view .LVU36
 112 0062 02FB0CF7 		mul	r7, r2, ip
 113 0066 03FB0977 		mla	r7, r3, r9, r7
 114 006a A2FB0329 		umull	r2, r9, r2, r3
 115 006e 4F44     		add	r7, r7, r9
 116              		.loc 1 102 55 view .LVU37
 117 0070 D20F     		lsrs	r2, r2, #31
 118 0072 42EA4702 		orr	r2, r2, r7, lsl #1
  98:Drivers/CMSIS/DSP/Source/FastMathFunctions/arm_sqrt_q31.c ****                                      ((q31_t)
 119              		.loc 1 98 49 view .LVU38
 120 0076 C2F14052 		rsb	r2, r2, #805306368
 121 007a D717     		asrs	r7, r2, #31
  98:Drivers/CMSIS/DSP/Source/FastMathFunctions/arm_sqrt_q31.c ****                                      ((q31_t)
 122              		.loc 1 98 35 view .LVU39
ARM GAS  /var/folders/n6/c271nzx11xl4r4_m7sqjlt0m0000gn/T//cccfc6gu.s 			page 5


 123 007c 06FB07F7 		mul	r7, r6, r7
 124 0080 02FB0877 		mla	r7, r2, r8, r7
 125 0084 A6FB0262 		umull	r6, r2, r6, r2
 126              	.LVL8:
  98:Drivers/CMSIS/DSP/Source/FastMathFunctions/arm_sqrt_q31.c ****                                      ((q31_t)
 127              		.loc 1 98 35 view .LVU40
 128 0088 3A44     		add	r2, r2, r7
 129              		.loc 1 102 64 view .LVU41
 130 008a F60F     		lsrs	r6, r6, #31
 131 008c 46EA4206 		orr	r6, r6, r2, lsl #1
  98:Drivers/CMSIS/DSP/Source/FastMathFunctions/arm_sqrt_q31.c ****                                      ((q31_t)
 132              		.loc 1 98 10 view .LVU42
 133 0090 B700     		lsls	r7, r6, #2
 134              	.LVL9:
 103:Drivers/CMSIS/DSP/Source/FastMathFunctions/arm_sqrt_q31.c ****     /* 2nd iteration */
 104:Drivers/CMSIS/DSP/Source/FastMathFunctions/arm_sqrt_q31.c ****     var1 = ((q31_t) ((q63_t) var1 * (0x30000000 -
 135              		.loc 1 104 5 is_stmt 1 view .LVU43
 136              		.loc 1 104 22 is_stmt 0 view .LVU44
 137 0092 46F34076 		sbfx	r6, r6, #29, #1
 105:Drivers/CMSIS/DSP/Source/FastMathFunctions/arm_sqrt_q31.c ****                                      ((q31_t)
 106:Drivers/CMSIS/DSP/Source/FastMathFunctions/arm_sqrt_q31.c ****                                       ((((q31_t)
 107:Drivers/CMSIS/DSP/Source/FastMathFunctions/arm_sqrt_q31.c ****                                          (((q63_t) var1 * var1) >> 31)) *
 138              		.loc 1 107 57 view .LVU45
 139 0096 07FB06F9 		mul	r9, r7, r6
 140 009a A7FB0728 		umull	r2, r8, r7, r7
 141 009e 08EB4908 		add	r8, r8, r9, lsl #1
 142              		.loc 1 107 65 view .LVU46
 143 00a2 D20F     		lsrs	r2, r2, #31
 144 00a4 42EA4802 		orr	r2, r2, r8, lsl #1
 106:Drivers/CMSIS/DSP/Source/FastMathFunctions/arm_sqrt_q31.c ****                                          (((q63_t) var1 * var1) >> 31)) *
 145              		.loc 1 106 42 view .LVU47
 146 00a8 4FEAE278 		asr	r8, r2, #31
 147              		.loc 1 107 73 view .LVU48
 148 00ac 03FB08F8 		mul	r8, r3, r8
 149 00b0 02FB0C88 		mla	r8, r2, ip, r8
 150 00b4 A3FB0229 		umull	r2, r9, r3, r2
 151 00b8 C844     		add	r8, r8, r9
 108:Drivers/CMSIS/DSP/Source/FastMathFunctions/arm_sqrt_q31.c ****                                         (q63_t) half) >> 31))) >> 31)) << 2;
 152              		.loc 1 108 55 view .LVU49
 153 00ba D20F     		lsrs	r2, r2, #31
 154 00bc 42EA4802 		orr	r2, r2, r8, lsl #1
 104:Drivers/CMSIS/DSP/Source/FastMathFunctions/arm_sqrt_q31.c ****                                      ((q31_t)
 155              		.loc 1 104 49 view .LVU50
 156 00c0 C2F14052 		rsb	r2, r2, #805306368
 157 00c4 4FEAE278 		asr	r8, r2, #31
 104:Drivers/CMSIS/DSP/Source/FastMathFunctions/arm_sqrt_q31.c ****                                      ((q31_t)
 158              		.loc 1 104 35 view .LVU51
 159 00c8 07FB08F8 		mul	r8, r7, r8
 160 00cc 02FB0686 		mla	r6, r2, r6, r8
 161 00d0 A7FB0272 		umull	r7, r2, r7, r2
 162              	.LVL10:
 104:Drivers/CMSIS/DSP/Source/FastMathFunctions/arm_sqrt_q31.c ****                                      ((q31_t)
 163              		.loc 1 104 35 view .LVU52
 164 00d4 3244     		add	r2, r2, r6
 165              		.loc 1 108 64 view .LVU53
 166 00d6 FF0F     		lsrs	r7, r7, #31
 167 00d8 47EA4207 		orr	r7, r7, r2, lsl #1
ARM GAS  /var/folders/n6/c271nzx11xl4r4_m7sqjlt0m0000gn/T//cccfc6gu.s 			page 6


 104:Drivers/CMSIS/DSP/Source/FastMathFunctions/arm_sqrt_q31.c ****                                      ((q31_t)
 168              		.loc 1 104 10 view .LVU54
 169 00dc BA00     		lsls	r2, r7, #2
 170              	.LVL11:
 109:Drivers/CMSIS/DSP/Source/FastMathFunctions/arm_sqrt_q31.c ****     /* 3rd iteration */
 110:Drivers/CMSIS/DSP/Source/FastMathFunctions/arm_sqrt_q31.c ****     var1 = ((q31_t) ((q63_t) var1 * (0x30000000 -
 171              		.loc 1 110 5 is_stmt 1 view .LVU55
 172              		.loc 1 110 22 is_stmt 0 view .LVU56
 173 00de 47F34077 		sbfx	r7, r7, #29, #1
 111:Drivers/CMSIS/DSP/Source/FastMathFunctions/arm_sqrt_q31.c ****                                      ((q31_t)
 112:Drivers/CMSIS/DSP/Source/FastMathFunctions/arm_sqrt_q31.c ****                                       ((((q31_t)
 113:Drivers/CMSIS/DSP/Source/FastMathFunctions/arm_sqrt_q31.c ****                                          (((q63_t) var1 * var1) >> 31)) *
 174              		.loc 1 113 57 view .LVU57
 175 00e2 02FB07F9 		mul	r9, r2, r7
 176 00e6 A2FB0268 		umull	r6, r8, r2, r2
 177 00ea 08EB4908 		add	r8, r8, r9, lsl #1
 178              		.loc 1 113 65 view .LVU58
 179 00ee F60F     		lsrs	r6, r6, #31
 180 00f0 46EA4806 		orr	r6, r6, r8, lsl #1
 112:Drivers/CMSIS/DSP/Source/FastMathFunctions/arm_sqrt_q31.c ****                                          (((q63_t) var1 * var1) >> 31)) *
 181              		.loc 1 112 42 view .LVU59
 182 00f4 4FEAE678 		asr	r8, r6, #31
 183              		.loc 1 113 73 view .LVU60
 184 00f8 03FB08F8 		mul	r8, r3, r8
 185 00fc 06FB0C88 		mla	r8, r6, ip, r8
 186 0100 A3FB0636 		umull	r3, r6, r3, r6
 187              	.LVL12:
 188              		.loc 1 113 73 view .LVU61
 189 0104 4644     		add	r6, r6, r8
 114:Drivers/CMSIS/DSP/Source/FastMathFunctions/arm_sqrt_q31.c ****                                         (q63_t) half) >> 31))) >> 31)) << 2;
 190              		.loc 1 114 55 view .LVU62
 191 0106 DB0F     		lsrs	r3, r3, #31
 192 0108 43EA4603 		orr	r3, r3, r6, lsl #1
 110:Drivers/CMSIS/DSP/Source/FastMathFunctions/arm_sqrt_q31.c ****                                      ((q31_t)
 193              		.loc 1 110 49 view .LVU63
 194 010c C3F14053 		rsb	r3, r3, #805306368
 195 0110 DE17     		asrs	r6, r3, #31
 110:Drivers/CMSIS/DSP/Source/FastMathFunctions/arm_sqrt_q31.c ****                                      ((q31_t)
 196              		.loc 1 110 35 view .LVU64
 197 0112 02FB06F6 		mul	r6, r2, r6
 198 0116 03FB0766 		mla	r6, r3, r7, r6
 199 011a A2FB0323 		umull	r2, r3, r2, r3
 200              	.LVL13:
 110:Drivers/CMSIS/DSP/Source/FastMathFunctions/arm_sqrt_q31.c ****                                      ((q31_t)
 201              		.loc 1 110 35 view .LVU65
 202 011e 1E44     		add	r6, r6, r3
 203              		.loc 1 114 64 view .LVU66
 204 0120 D30F     		lsrs	r3, r2, #31
 205 0122 43EA4603 		orr	r3, r3, r6, lsl #1
 110:Drivers/CMSIS/DSP/Source/FastMathFunctions/arm_sqrt_q31.c ****                                      ((q31_t)
 206              		.loc 1 110 10 view .LVU67
 207 0126 9A00     		lsls	r2, r3, #2
 208              	.LVL14:
 115:Drivers/CMSIS/DSP/Source/FastMathFunctions/arm_sqrt_q31.c **** 
 116:Drivers/CMSIS/DSP/Source/FastMathFunctions/arm_sqrt_q31.c ****     /* Multiply the inverse square root with the original value */
 117:Drivers/CMSIS/DSP/Source/FastMathFunctions/arm_sqrt_q31.c ****     var1 = ((q31_t) (((q63_t) temp1 * var1) >> 31)) << 1;
 209              		.loc 1 117 5 is_stmt 1 view .LVU68
ARM GAS  /var/folders/n6/c271nzx11xl4r4_m7sqjlt0m0000gn/T//cccfc6gu.s 			page 7


 210              		.loc 1 117 37 is_stmt 0 view .LVU69
 211 0128 43F34073 		sbfx	r3, r3, #29, #1
 212 012c 02FB0CFC 		mul	ip, r2, ip
 213 0130 00FB03CC 		mla	ip, r0, r3, ip
 214 0134 A2FB0030 		umull	r3, r0, r2, r0
 215              	.LVL15:
 216              		.loc 1 117 37 view .LVU70
 217 0138 8444     		add	ip, ip, r0
 218              		.loc 1 117 45 view .LVU71
 219 013a DB0F     		lsrs	r3, r3, #31
 220 013c 43EA4C03 		orr	r3, r3, ip, lsl #1
 221              		.loc 1 117 10 view .LVU72
 222 0140 5B00     		lsls	r3, r3, #1
 223              	.LVL16:
 118:Drivers/CMSIS/DSP/Source/FastMathFunctions/arm_sqrt_q31.c **** 
 119:Drivers/CMSIS/DSP/Source/FastMathFunctions/arm_sqrt_q31.c ****     /* Shift the output down accordingly */
 120:Drivers/CMSIS/DSP/Source/FastMathFunctions/arm_sqrt_q31.c ****     if ((signBits1 % 2) == 0)
 224              		.loc 1 120 5 is_stmt 1 view .LVU73
 225              		.loc 1 120 8 is_stmt 0 view .LVU74
 226 0142 75B9     		cbnz	r5, .L5
 121:Drivers/CMSIS/DSP/Source/FastMathFunctions/arm_sqrt_q31.c ****     {
 122:Drivers/CMSIS/DSP/Source/FastMathFunctions/arm_sqrt_q31.c ****       var1 = var1 >> (signBits1 / 2);
 227              		.loc 1 122 7 is_stmt 1 view .LVU75
 228              		.loc 1 122 33 is_stmt 0 view .LVU76
 229 0144 2246     		mov	r2, r4
 230 0146 002C     		cmp	r4, #0
 231 0148 09DB     		blt	.L14
 232              	.L6:
 233 014a 5210     		asrs	r2, r2, #1
 234              		.loc 1 122 12 view .LVU77
 235 014c 1341     		asrs	r3, r3, r2
 236              	.LVL17:
 237              	.L7:
 123:Drivers/CMSIS/DSP/Source/FastMathFunctions/arm_sqrt_q31.c ****     }
 124:Drivers/CMSIS/DSP/Source/FastMathFunctions/arm_sqrt_q31.c ****     else
 125:Drivers/CMSIS/DSP/Source/FastMathFunctions/arm_sqrt_q31.c ****     {
 126:Drivers/CMSIS/DSP/Source/FastMathFunctions/arm_sqrt_q31.c ****       var1 = var1 >> ((signBits1 - 1) / 2);
 127:Drivers/CMSIS/DSP/Source/FastMathFunctions/arm_sqrt_q31.c ****     }
 128:Drivers/CMSIS/DSP/Source/FastMathFunctions/arm_sqrt_q31.c ****     *pOut = var1;
 238              		.loc 1 128 5 is_stmt 1 view .LVU78
 239              		.loc 1 128 11 is_stmt 0 view .LVU79
 240 014e 0B60     		str	r3, [r1]
 129:Drivers/CMSIS/DSP/Source/FastMathFunctions/arm_sqrt_q31.c **** 
 130:Drivers/CMSIS/DSP/Source/FastMathFunctions/arm_sqrt_q31.c ****     return (ARM_MATH_SUCCESS);
 241              		.loc 1 130 5 is_stmt 1 view .LVU80
 242              		.loc 1 130 12 is_stmt 0 view .LVU81
 243 0150 0020     		movs	r0, #0
 131:Drivers/CMSIS/DSP/Source/FastMathFunctions/arm_sqrt_q31.c ****   }
 132:Drivers/CMSIS/DSP/Source/FastMathFunctions/arm_sqrt_q31.c ****   /* If the number is a negative number then store zero as its square root value */
 133:Drivers/CMSIS/DSP/Source/FastMathFunctions/arm_sqrt_q31.c ****   else
 134:Drivers/CMSIS/DSP/Source/FastMathFunctions/arm_sqrt_q31.c ****   {
 135:Drivers/CMSIS/DSP/Source/FastMathFunctions/arm_sqrt_q31.c ****     *pOut = 0;
 136:Drivers/CMSIS/DSP/Source/FastMathFunctions/arm_sqrt_q31.c ****     return (ARM_MATH_ARGUMENT_ERROR);
 137:Drivers/CMSIS/DSP/Source/FastMathFunctions/arm_sqrt_q31.c ****   }
 138:Drivers/CMSIS/DSP/Source/FastMathFunctions/arm_sqrt_q31.c **** }
 244              		.loc 1 138 1 view .LVU82
 245 0152 BDE8F083 		pop	{r4, r5, r6, r7, r8, r9, pc}
ARM GAS  /var/folders/n6/c271nzx11xl4r4_m7sqjlt0m0000gn/T//cccfc6gu.s 			page 8


 246              	.LVL18:
 247              	.L3:
  76:Drivers/CMSIS/DSP/Source/FastMathFunctions/arm_sqrt_q31.c ****     }
 248              		.loc 1 76 7 is_stmt 1 view .LVU83
  76:Drivers/CMSIS/DSP/Source/FastMathFunctions/arm_sqrt_q31.c ****     }
 249              		.loc 1 76 37 is_stmt 0 view .LVU84
 250 0156 AEF10203 		sub	r3, lr, #2
  76:Drivers/CMSIS/DSP/Source/FastMathFunctions/arm_sqrt_q31.c ****     }
 251              		.loc 1 76 14 view .LVU85
 252 015a 9840     		lsls	r0, r0, r3
 253              	.LVL19:
  76:Drivers/CMSIS/DSP/Source/FastMathFunctions/arm_sqrt_q31.c ****     }
 254              		.loc 1 76 14 view .LVU86
 255 015c 5EE7     		b	.L4
 256              	.LVL20:
 257              	.L14:
 122:Drivers/CMSIS/DSP/Source/FastMathFunctions/arm_sqrt_q31.c ****     }
 258              		.loc 1 122 33 view .LVU87
 259 015e 621C     		adds	r2, r4, #1
 260              	.LVL21:
 122:Drivers/CMSIS/DSP/Source/FastMathFunctions/arm_sqrt_q31.c ****     }
 261              		.loc 1 122 33 view .LVU88
 262 0160 F3E7     		b	.L6
 263              	.L5:
 126:Drivers/CMSIS/DSP/Source/FastMathFunctions/arm_sqrt_q31.c ****     }
 264              		.loc 1 126 7 is_stmt 1 view .LVU89
 126:Drivers/CMSIS/DSP/Source/FastMathFunctions/arm_sqrt_q31.c ****     }
 265              		.loc 1 126 39 is_stmt 0 view .LVU90
 266 0162 BEF1020E 		subs	lr, lr, #2
 267 0166 04D4     		bmi	.L15
 268              	.L8:
 269 0168 4FEA6E0E 		asr	lr, lr, #1
 126:Drivers/CMSIS/DSP/Source/FastMathFunctions/arm_sqrt_q31.c ****     }
 270              		.loc 1 126 12 view .LVU91
 271 016c 43FA0EF3 		asr	r3, r3, lr
 272              	.LVL22:
 126:Drivers/CMSIS/DSP/Source/FastMathFunctions/arm_sqrt_q31.c ****     }
 273              		.loc 1 126 12 view .LVU92
 274 0170 EDE7     		b	.L7
 275              	.L15:
 126:Drivers/CMSIS/DSP/Source/FastMathFunctions/arm_sqrt_q31.c ****     }
 276              		.loc 1 126 39 view .LVU93
 277 0172 0EF1010E 		add	lr, lr, #1
 278 0176 F7E7     		b	.L8
 279              	.LVL23:
 280              	.L2:
 281              		.cfi_def_cfa_offset 0
 282              		.cfi_restore 4
 283              		.cfi_restore 5
 284              		.cfi_restore 6
 285              		.cfi_restore 7
 286              		.cfi_restore 8
 287              		.cfi_restore 9
 288              		.cfi_restore 14
 135:Drivers/CMSIS/DSP/Source/FastMathFunctions/arm_sqrt_q31.c ****     return (ARM_MATH_ARGUMENT_ERROR);
 289              		.loc 1 135 5 is_stmt 1 view .LVU94
 135:Drivers/CMSIS/DSP/Source/FastMathFunctions/arm_sqrt_q31.c ****     return (ARM_MATH_ARGUMENT_ERROR);
ARM GAS  /var/folders/n6/c271nzx11xl4r4_m7sqjlt0m0000gn/T//cccfc6gu.s 			page 9


 290              		.loc 1 135 11 is_stmt 0 view .LVU95
 291 0178 0023     		movs	r3, #0
 292 017a 0B60     		str	r3, [r1]
 136:Drivers/CMSIS/DSP/Source/FastMathFunctions/arm_sqrt_q31.c ****   }
 293              		.loc 1 136 5 is_stmt 1 view .LVU96
 136:Drivers/CMSIS/DSP/Source/FastMathFunctions/arm_sqrt_q31.c ****   }
 294              		.loc 1 136 12 is_stmt 0 view .LVU97
 295 017c 4FF0FF30 		mov	r0, #-1
 296              	.LVL24:
 297              		.loc 1 138 1 view .LVU98
 298 0180 7047     		bx	lr
 299              	.L17:
 300 0182 00BF     		.align	2
 301              	.L16:
 302 0184 00000030 		.word	805306368
 303 0188 DF59375F 		.word	1597463007
 304              		.cfi_endproc
 305              	.LFE135:
 307              		.text
 308              	.Letext0:
 309              		.file 2 "/Users/killian/Library/Application Support/Code/User/globalStorage/bmd.stm32-for-vscode/@
 310              		.file 3 "/Users/killian/Library/Application Support/Code/User/globalStorage/bmd.stm32-for-vscode/@
 311              		.file 4 "Drivers/CMSIS/DSP/Include/arm_math.h"
ARM GAS  /var/folders/n6/c271nzx11xl4r4_m7sqjlt0m0000gn/T//cccfc6gu.s 			page 10


DEFINED SYMBOLS
                            *ABS*:00000000 arm_sqrt_q31.c
/var/folders/n6/c271nzx11xl4r4_m7sqjlt0m0000gn/T//cccfc6gu.s:20     .text.arm_sqrt_q31:00000000 $t
/var/folders/n6/c271nzx11xl4r4_m7sqjlt0m0000gn/T//cccfc6gu.s:26     .text.arm_sqrt_q31:00000000 arm_sqrt_q31
/var/folders/n6/c271nzx11xl4r4_m7sqjlt0m0000gn/T//cccfc6gu.s:302    .text.arm_sqrt_q31:00000184 $d

NO UNDEFINED SYMBOLS
