ARM GAS  /var/folders/n6/c271nzx11xl4r4_m7sqjlt0m0000gn/T//ccsGI7Uu.s 			page 1


   1              		.cpu cortex-m7
   2              		.arch armv7e-m
   3              		.fpu fpv5-d16
   4              		.eabi_attribute 28, 1
   5              		.eabi_attribute 20, 1
   6              		.eabi_attribute 21, 1
   7              		.eabi_attribute 23, 3
   8              		.eabi_attribute 24, 1
   9              		.eabi_attribute 25, 1
  10              		.eabi_attribute 26, 1
  11              		.eabi_attribute 30, 1
  12              		.eabi_attribute 34, 1
  13              		.eabi_attribute 18, 4
  14              		.file	"arm_cmplx_mult_real_f32.c"
  15              		.text
  16              	.Ltext0:
  17              		.cfi_sections	.debug_frame
  18              		.file 1 "Drivers/CMSIS/DSP/Source/ComplexMathFunctions/arm_cmplx_mult_real_f32.c"
  19              		.section	.text.arm_cmplx_mult_real_f32,"ax",%progbits
  20              		.align	1
  21              		.global	arm_cmplx_mult_real_f32
  22              		.syntax unified
  23              		.thumb
  24              		.thumb_func
  26              	arm_cmplx_mult_real_f32:
  27              	.LVL0:
  28              	.LFB135:
   1:Drivers/CMSIS/DSP/Source/ComplexMathFunctions/arm_cmplx_mult_real_f32.c **** /* ----------------------------------------------------------------------
   2:Drivers/CMSIS/DSP/Source/ComplexMathFunctions/arm_cmplx_mult_real_f32.c ****  * Project:      CMSIS DSP Library
   3:Drivers/CMSIS/DSP/Source/ComplexMathFunctions/arm_cmplx_mult_real_f32.c ****  * Title:        arm_cmplx_mult_real_f32.c
   4:Drivers/CMSIS/DSP/Source/ComplexMathFunctions/arm_cmplx_mult_real_f32.c ****  * Description:  Floating-point complex by real multiplication
   5:Drivers/CMSIS/DSP/Source/ComplexMathFunctions/arm_cmplx_mult_real_f32.c ****  *
   6:Drivers/CMSIS/DSP/Source/ComplexMathFunctions/arm_cmplx_mult_real_f32.c ****  * $Date:        27. January 2017
   7:Drivers/CMSIS/DSP/Source/ComplexMathFunctions/arm_cmplx_mult_real_f32.c ****  * $Revision:    V.1.5.1
   8:Drivers/CMSIS/DSP/Source/ComplexMathFunctions/arm_cmplx_mult_real_f32.c ****  *
   9:Drivers/CMSIS/DSP/Source/ComplexMathFunctions/arm_cmplx_mult_real_f32.c ****  * Target Processor: Cortex-M cores
  10:Drivers/CMSIS/DSP/Source/ComplexMathFunctions/arm_cmplx_mult_real_f32.c ****  * -------------------------------------------------------------------- */
  11:Drivers/CMSIS/DSP/Source/ComplexMathFunctions/arm_cmplx_mult_real_f32.c **** /*
  12:Drivers/CMSIS/DSP/Source/ComplexMathFunctions/arm_cmplx_mult_real_f32.c ****  * Copyright (C) 2010-2017 ARM Limited or its affiliates. All rights reserved.
  13:Drivers/CMSIS/DSP/Source/ComplexMathFunctions/arm_cmplx_mult_real_f32.c ****  *
  14:Drivers/CMSIS/DSP/Source/ComplexMathFunctions/arm_cmplx_mult_real_f32.c ****  * SPDX-License-Identifier: Apache-2.0
  15:Drivers/CMSIS/DSP/Source/ComplexMathFunctions/arm_cmplx_mult_real_f32.c ****  *
  16:Drivers/CMSIS/DSP/Source/ComplexMathFunctions/arm_cmplx_mult_real_f32.c ****  * Licensed under the Apache License, Version 2.0 (the License); you may
  17:Drivers/CMSIS/DSP/Source/ComplexMathFunctions/arm_cmplx_mult_real_f32.c ****  * not use this file except in compliance with the License.
  18:Drivers/CMSIS/DSP/Source/ComplexMathFunctions/arm_cmplx_mult_real_f32.c ****  * You may obtain a copy of the License at
  19:Drivers/CMSIS/DSP/Source/ComplexMathFunctions/arm_cmplx_mult_real_f32.c ****  *
  20:Drivers/CMSIS/DSP/Source/ComplexMathFunctions/arm_cmplx_mult_real_f32.c ****  * www.apache.org/licenses/LICENSE-2.0
  21:Drivers/CMSIS/DSP/Source/ComplexMathFunctions/arm_cmplx_mult_real_f32.c ****  *
  22:Drivers/CMSIS/DSP/Source/ComplexMathFunctions/arm_cmplx_mult_real_f32.c ****  * Unless required by applicable law or agreed to in writing, software
  23:Drivers/CMSIS/DSP/Source/ComplexMathFunctions/arm_cmplx_mult_real_f32.c ****  * distributed under the License is distributed on an AS IS BASIS, WITHOUT
  24:Drivers/CMSIS/DSP/Source/ComplexMathFunctions/arm_cmplx_mult_real_f32.c ****  * WARRANTIES OR CONDITIONS OF ANY KIND, either express or implied.
  25:Drivers/CMSIS/DSP/Source/ComplexMathFunctions/arm_cmplx_mult_real_f32.c ****  * See the License for the specific language governing permissions and
  26:Drivers/CMSIS/DSP/Source/ComplexMathFunctions/arm_cmplx_mult_real_f32.c ****  * limitations under the License.
  27:Drivers/CMSIS/DSP/Source/ComplexMathFunctions/arm_cmplx_mult_real_f32.c ****  */
  28:Drivers/CMSIS/DSP/Source/ComplexMathFunctions/arm_cmplx_mult_real_f32.c **** 
  29:Drivers/CMSIS/DSP/Source/ComplexMathFunctions/arm_cmplx_mult_real_f32.c **** #include "arm_math.h"
  30:Drivers/CMSIS/DSP/Source/ComplexMathFunctions/arm_cmplx_mult_real_f32.c **** 
ARM GAS  /var/folders/n6/c271nzx11xl4r4_m7sqjlt0m0000gn/T//ccsGI7Uu.s 			page 2


  31:Drivers/CMSIS/DSP/Source/ComplexMathFunctions/arm_cmplx_mult_real_f32.c **** /**
  32:Drivers/CMSIS/DSP/Source/ComplexMathFunctions/arm_cmplx_mult_real_f32.c ****  * @ingroup groupCmplxMath
  33:Drivers/CMSIS/DSP/Source/ComplexMathFunctions/arm_cmplx_mult_real_f32.c ****  */
  34:Drivers/CMSIS/DSP/Source/ComplexMathFunctions/arm_cmplx_mult_real_f32.c **** 
  35:Drivers/CMSIS/DSP/Source/ComplexMathFunctions/arm_cmplx_mult_real_f32.c **** /**
  36:Drivers/CMSIS/DSP/Source/ComplexMathFunctions/arm_cmplx_mult_real_f32.c ****  * @defgroup CmplxByRealMult Complex-by-Real Multiplication
  37:Drivers/CMSIS/DSP/Source/ComplexMathFunctions/arm_cmplx_mult_real_f32.c ****  *
  38:Drivers/CMSIS/DSP/Source/ComplexMathFunctions/arm_cmplx_mult_real_f32.c ****  * Multiplies a complex vector by a real vector and generates a complex result.
  39:Drivers/CMSIS/DSP/Source/ComplexMathFunctions/arm_cmplx_mult_real_f32.c ****  * The data in the complex arrays is stored in an interleaved fashion
  40:Drivers/CMSIS/DSP/Source/ComplexMathFunctions/arm_cmplx_mult_real_f32.c ****  * (real, imag, real, imag, ...).
  41:Drivers/CMSIS/DSP/Source/ComplexMathFunctions/arm_cmplx_mult_real_f32.c ****  * The parameter <code>numSamples</code> represents the number of complex
  42:Drivers/CMSIS/DSP/Source/ComplexMathFunctions/arm_cmplx_mult_real_f32.c ****  * samples processed.  The complex arrays have a total of <code>2*numSamples</code>
  43:Drivers/CMSIS/DSP/Source/ComplexMathFunctions/arm_cmplx_mult_real_f32.c ****  * real values while the real array has a total of <code>numSamples</code>
  44:Drivers/CMSIS/DSP/Source/ComplexMathFunctions/arm_cmplx_mult_real_f32.c ****  * real values.
  45:Drivers/CMSIS/DSP/Source/ComplexMathFunctions/arm_cmplx_mult_real_f32.c ****  *
  46:Drivers/CMSIS/DSP/Source/ComplexMathFunctions/arm_cmplx_mult_real_f32.c ****  * The underlying algorithm is used:
  47:Drivers/CMSIS/DSP/Source/ComplexMathFunctions/arm_cmplx_mult_real_f32.c ****  *
  48:Drivers/CMSIS/DSP/Source/ComplexMathFunctions/arm_cmplx_mult_real_f32.c ****  * <pre>
  49:Drivers/CMSIS/DSP/Source/ComplexMathFunctions/arm_cmplx_mult_real_f32.c ****  * for(n=0; n<numSamples; n++) {
  50:Drivers/CMSIS/DSP/Source/ComplexMathFunctions/arm_cmplx_mult_real_f32.c ****  *     pCmplxDst[(2*n)+0] = pSrcCmplx[(2*n)+0] * pSrcReal[n];
  51:Drivers/CMSIS/DSP/Source/ComplexMathFunctions/arm_cmplx_mult_real_f32.c ****  *     pCmplxDst[(2*n)+1] = pSrcCmplx[(2*n)+1] * pSrcReal[n];
  52:Drivers/CMSIS/DSP/Source/ComplexMathFunctions/arm_cmplx_mult_real_f32.c ****  * }
  53:Drivers/CMSIS/DSP/Source/ComplexMathFunctions/arm_cmplx_mult_real_f32.c ****  * </pre>
  54:Drivers/CMSIS/DSP/Source/ComplexMathFunctions/arm_cmplx_mult_real_f32.c ****  *
  55:Drivers/CMSIS/DSP/Source/ComplexMathFunctions/arm_cmplx_mult_real_f32.c ****  * There are separate functions for floating-point, Q15, and Q31 data types.
  56:Drivers/CMSIS/DSP/Source/ComplexMathFunctions/arm_cmplx_mult_real_f32.c ****  */
  57:Drivers/CMSIS/DSP/Source/ComplexMathFunctions/arm_cmplx_mult_real_f32.c **** 
  58:Drivers/CMSIS/DSP/Source/ComplexMathFunctions/arm_cmplx_mult_real_f32.c **** /**
  59:Drivers/CMSIS/DSP/Source/ComplexMathFunctions/arm_cmplx_mult_real_f32.c ****  * @addtogroup CmplxByRealMult
  60:Drivers/CMSIS/DSP/Source/ComplexMathFunctions/arm_cmplx_mult_real_f32.c ****  * @{
  61:Drivers/CMSIS/DSP/Source/ComplexMathFunctions/arm_cmplx_mult_real_f32.c ****  */
  62:Drivers/CMSIS/DSP/Source/ComplexMathFunctions/arm_cmplx_mult_real_f32.c **** 
  63:Drivers/CMSIS/DSP/Source/ComplexMathFunctions/arm_cmplx_mult_real_f32.c **** 
  64:Drivers/CMSIS/DSP/Source/ComplexMathFunctions/arm_cmplx_mult_real_f32.c **** /**
  65:Drivers/CMSIS/DSP/Source/ComplexMathFunctions/arm_cmplx_mult_real_f32.c ****  * @brief  Floating-point complex-by-real multiplication
  66:Drivers/CMSIS/DSP/Source/ComplexMathFunctions/arm_cmplx_mult_real_f32.c ****  * @param[in]  *pSrcCmplx points to the complex input vector
  67:Drivers/CMSIS/DSP/Source/ComplexMathFunctions/arm_cmplx_mult_real_f32.c ****  * @param[in]  *pSrcReal points to the real input vector
  68:Drivers/CMSIS/DSP/Source/ComplexMathFunctions/arm_cmplx_mult_real_f32.c ****  * @param[out]  *pCmplxDst points to the complex output vector
  69:Drivers/CMSIS/DSP/Source/ComplexMathFunctions/arm_cmplx_mult_real_f32.c ****  * @param[in]  numSamples number of samples in each vector
  70:Drivers/CMSIS/DSP/Source/ComplexMathFunctions/arm_cmplx_mult_real_f32.c ****  * @return none.
  71:Drivers/CMSIS/DSP/Source/ComplexMathFunctions/arm_cmplx_mult_real_f32.c ****  */
  72:Drivers/CMSIS/DSP/Source/ComplexMathFunctions/arm_cmplx_mult_real_f32.c **** 
  73:Drivers/CMSIS/DSP/Source/ComplexMathFunctions/arm_cmplx_mult_real_f32.c **** void arm_cmplx_mult_real_f32(
  74:Drivers/CMSIS/DSP/Source/ComplexMathFunctions/arm_cmplx_mult_real_f32.c ****   float32_t * pSrcCmplx,
  75:Drivers/CMSIS/DSP/Source/ComplexMathFunctions/arm_cmplx_mult_real_f32.c ****   float32_t * pSrcReal,
  76:Drivers/CMSIS/DSP/Source/ComplexMathFunctions/arm_cmplx_mult_real_f32.c ****   float32_t * pCmplxDst,
  77:Drivers/CMSIS/DSP/Source/ComplexMathFunctions/arm_cmplx_mult_real_f32.c ****   uint32_t numSamples)
  78:Drivers/CMSIS/DSP/Source/ComplexMathFunctions/arm_cmplx_mult_real_f32.c **** {
  29              		.loc 1 78 1 view -0
  30              		.cfi_startproc
  31              		@ args = 0, pretend = 0, frame = 0
  32              		@ frame_needed = 0, uses_anonymous_args = 0
  33              		.loc 1 78 1 is_stmt 0 view .LVU1
  34 0000 10B5     		push	{r4, lr}
  35              		.cfi_def_cfa_offset 8
  36              		.cfi_offset 4, -8
  37              		.cfi_offset 14, -4
ARM GAS  /var/folders/n6/c271nzx11xl4r4_m7sqjlt0m0000gn/T//ccsGI7Uu.s 			page 3


  79:Drivers/CMSIS/DSP/Source/ComplexMathFunctions/arm_cmplx_mult_real_f32.c ****   float32_t in;                                  /* Temporary variable to store input value */
  38              		.loc 1 79 3 is_stmt 1 view .LVU2
  80:Drivers/CMSIS/DSP/Source/ComplexMathFunctions/arm_cmplx_mult_real_f32.c ****   uint32_t blkCnt;                               /* loop counters */
  39              		.loc 1 80 3 view .LVU3
  81:Drivers/CMSIS/DSP/Source/ComplexMathFunctions/arm_cmplx_mult_real_f32.c **** 
  82:Drivers/CMSIS/DSP/Source/ComplexMathFunctions/arm_cmplx_mult_real_f32.c **** #if defined (ARM_MATH_DSP)
  83:Drivers/CMSIS/DSP/Source/ComplexMathFunctions/arm_cmplx_mult_real_f32.c **** 
  84:Drivers/CMSIS/DSP/Source/ComplexMathFunctions/arm_cmplx_mult_real_f32.c ****   /* Run the below code for Cortex-M4 and Cortex-M3 */
  85:Drivers/CMSIS/DSP/Source/ComplexMathFunctions/arm_cmplx_mult_real_f32.c ****   float32_t inA1, inA2, inA3, inA4;              /* Temporary variables to hold input data */
  40              		.loc 1 85 3 view .LVU4
  86:Drivers/CMSIS/DSP/Source/ComplexMathFunctions/arm_cmplx_mult_real_f32.c ****   float32_t inA5, inA6, inA7, inA8;              /* Temporary variables to hold input data */
  41              		.loc 1 86 3 view .LVU5
  87:Drivers/CMSIS/DSP/Source/ComplexMathFunctions/arm_cmplx_mult_real_f32.c ****   float32_t inB1, inB2, inB3, inB4;              /* Temporary variables to hold input data */
  42              		.loc 1 87 3 view .LVU6
  88:Drivers/CMSIS/DSP/Source/ComplexMathFunctions/arm_cmplx_mult_real_f32.c ****   float32_t out1, out2, out3, out4;              /* Temporary variables to hold output data */
  43              		.loc 1 88 3 view .LVU7
  89:Drivers/CMSIS/DSP/Source/ComplexMathFunctions/arm_cmplx_mult_real_f32.c ****   float32_t out5, out6, out7, out8;              /* Temporary variables to hold output data */
  44              		.loc 1 89 3 view .LVU8
  90:Drivers/CMSIS/DSP/Source/ComplexMathFunctions/arm_cmplx_mult_real_f32.c **** 
  91:Drivers/CMSIS/DSP/Source/ComplexMathFunctions/arm_cmplx_mult_real_f32.c ****   /* loop Unrolling */
  92:Drivers/CMSIS/DSP/Source/ComplexMathFunctions/arm_cmplx_mult_real_f32.c ****   blkCnt = numSamples >> 2U;
  45              		.loc 1 92 3 view .LVU9
  46              		.loc 1 92 10 is_stmt 0 view .LVU10
  47 0002 9C08     		lsrs	r4, r3, #2
  48              	.LVL1:
  93:Drivers/CMSIS/DSP/Source/ComplexMathFunctions/arm_cmplx_mult_real_f32.c **** 
  94:Drivers/CMSIS/DSP/Source/ComplexMathFunctions/arm_cmplx_mult_real_f32.c ****   /* First part of the processing with loop unrolling.  Compute 4 outputs at a time.
  95:Drivers/CMSIS/DSP/Source/ComplexMathFunctions/arm_cmplx_mult_real_f32.c ****    ** a second loop below computes the remaining 1 to 3 samples. */
  96:Drivers/CMSIS/DSP/Source/ComplexMathFunctions/arm_cmplx_mult_real_f32.c ****   while (blkCnt > 0U)
  49              		.loc 1 96 3 is_stmt 1 view .LVU11
  50              		.loc 1 96 9 is_stmt 0 view .LVU12
  51 0004 3BE0     		b	.L2
  52              	.L3:
  97:Drivers/CMSIS/DSP/Source/ComplexMathFunctions/arm_cmplx_mult_real_f32.c ****   {
  98:Drivers/CMSIS/DSP/Source/ComplexMathFunctions/arm_cmplx_mult_real_f32.c ****     /* C[2 * i] = A[2 * i] * B[i].            */
  99:Drivers/CMSIS/DSP/Source/ComplexMathFunctions/arm_cmplx_mult_real_f32.c ****     /* C[2 * i + 1] = A[2 * i + 1] * B[i].        */
 100:Drivers/CMSIS/DSP/Source/ComplexMathFunctions/arm_cmplx_mult_real_f32.c ****     /* read input from complex input buffer */
 101:Drivers/CMSIS/DSP/Source/ComplexMathFunctions/arm_cmplx_mult_real_f32.c ****     inA1 = pSrcCmplx[0];
  53              		.loc 1 101 5 is_stmt 1 view .LVU13
  54              		.loc 1 101 10 is_stmt 0 view .LVU14
  55 0006 90ED004A 		vldr.32	s8, [r0]
  56              	.LVL2:
 102:Drivers/CMSIS/DSP/Source/ComplexMathFunctions/arm_cmplx_mult_real_f32.c ****     inA2 = pSrcCmplx[1];
  57              		.loc 1 102 5 is_stmt 1 view .LVU15
  58              		.loc 1 102 10 is_stmt 0 view .LVU16
  59 000a D0ED014A 		vldr.32	s9, [r0, #4]
  60              	.LVL3:
 103:Drivers/CMSIS/DSP/Source/ComplexMathFunctions/arm_cmplx_mult_real_f32.c ****     /* read input from real input buffer */
 104:Drivers/CMSIS/DSP/Source/ComplexMathFunctions/arm_cmplx_mult_real_f32.c ****     inB1 = pSrcReal[0];
  61              		.loc 1 104 5 is_stmt 1 view .LVU17
  62              		.loc 1 104 10 is_stmt 0 view .LVU18
  63 000e D1ED007A 		vldr.32	s15, [r1]
  64              	.LVL4:
 105:Drivers/CMSIS/DSP/Source/ComplexMathFunctions/arm_cmplx_mult_real_f32.c **** 
 106:Drivers/CMSIS/DSP/Source/ComplexMathFunctions/arm_cmplx_mult_real_f32.c ****     /* read input from complex input buffer */
 107:Drivers/CMSIS/DSP/Source/ComplexMathFunctions/arm_cmplx_mult_real_f32.c ****     inA3 = pSrcCmplx[2];
  65              		.loc 1 107 5 is_stmt 1 view .LVU19
ARM GAS  /var/folders/n6/c271nzx11xl4r4_m7sqjlt0m0000gn/T//ccsGI7Uu.s 			page 4


  66              		.loc 1 107 10 is_stmt 0 view .LVU20
  67 0012 90ED025A 		vldr.32	s10, [r0, #8]
  68              	.LVL5:
 108:Drivers/CMSIS/DSP/Source/ComplexMathFunctions/arm_cmplx_mult_real_f32.c **** 
 109:Drivers/CMSIS/DSP/Source/ComplexMathFunctions/arm_cmplx_mult_real_f32.c ****     /* multiply complex buffer real input with real buffer input */
 110:Drivers/CMSIS/DSP/Source/ComplexMathFunctions/arm_cmplx_mult_real_f32.c ****     out1 = inA1 * inB1;
  69              		.loc 1 110 5 is_stmt 1 view .LVU21
  70              		.loc 1 110 10 is_stmt 0 view .LVU22
  71 0016 24EE274A 		vmul.f32	s8, s8, s15
  72              	.LVL6:
 111:Drivers/CMSIS/DSP/Source/ComplexMathFunctions/arm_cmplx_mult_real_f32.c **** 
 112:Drivers/CMSIS/DSP/Source/ComplexMathFunctions/arm_cmplx_mult_real_f32.c ****     /* read input from complex input buffer */
 113:Drivers/CMSIS/DSP/Source/ComplexMathFunctions/arm_cmplx_mult_real_f32.c ****     inA4 = pSrcCmplx[3];
  73              		.loc 1 113 5 is_stmt 1 view .LVU23
  74              		.loc 1 113 10 is_stmt 0 view .LVU24
  75 001a D0ED035A 		vldr.32	s11, [r0, #12]
  76              	.LVL7:
 114:Drivers/CMSIS/DSP/Source/ComplexMathFunctions/arm_cmplx_mult_real_f32.c **** 
 115:Drivers/CMSIS/DSP/Source/ComplexMathFunctions/arm_cmplx_mult_real_f32.c ****     /* multiply complex buffer imaginary input with real buffer input */
 116:Drivers/CMSIS/DSP/Source/ComplexMathFunctions/arm_cmplx_mult_real_f32.c ****     out2 = inA2 * inB1;
  77              		.loc 1 116 5 is_stmt 1 view .LVU25
  78              		.loc 1 116 10 is_stmt 0 view .LVU26
  79 001e 64EEA74A 		vmul.f32	s9, s9, s15
  80              	.LVL8:
 117:Drivers/CMSIS/DSP/Source/ComplexMathFunctions/arm_cmplx_mult_real_f32.c **** 
 118:Drivers/CMSIS/DSP/Source/ComplexMathFunctions/arm_cmplx_mult_real_f32.c ****     /* read input from real input buffer */
 119:Drivers/CMSIS/DSP/Source/ComplexMathFunctions/arm_cmplx_mult_real_f32.c ****     inB2 = pSrcReal[1];
  81              		.loc 1 119 5 is_stmt 1 view .LVU27
  82              		.loc 1 119 10 is_stmt 0 view .LVU28
  83 0022 D1ED017A 		vldr.32	s15, [r1, #4]
  84              	.LVL9:
 120:Drivers/CMSIS/DSP/Source/ComplexMathFunctions/arm_cmplx_mult_real_f32.c ****     /* read input from complex input buffer */
 121:Drivers/CMSIS/DSP/Source/ComplexMathFunctions/arm_cmplx_mult_real_f32.c ****     inA5 = pSrcCmplx[4];
  85              		.loc 1 121 5 is_stmt 1 view .LVU29
  86              		.loc 1 121 10 is_stmt 0 view .LVU30
  87 0026 90ED046A 		vldr.32	s12, [r0, #16]
  88              	.LVL10:
 122:Drivers/CMSIS/DSP/Source/ComplexMathFunctions/arm_cmplx_mult_real_f32.c **** 
 123:Drivers/CMSIS/DSP/Source/ComplexMathFunctions/arm_cmplx_mult_real_f32.c ****     /* multiply complex buffer real input with real buffer input */
 124:Drivers/CMSIS/DSP/Source/ComplexMathFunctions/arm_cmplx_mult_real_f32.c ****     out3 = inA3 * inB2;
  89              		.loc 1 124 5 is_stmt 1 view .LVU31
  90              		.loc 1 124 10 is_stmt 0 view .LVU32
  91 002a 25EE275A 		vmul.f32	s10, s10, s15
  92              	.LVL11:
 125:Drivers/CMSIS/DSP/Source/ComplexMathFunctions/arm_cmplx_mult_real_f32.c **** 
 126:Drivers/CMSIS/DSP/Source/ComplexMathFunctions/arm_cmplx_mult_real_f32.c ****     /* read input from complex input buffer */
 127:Drivers/CMSIS/DSP/Source/ComplexMathFunctions/arm_cmplx_mult_real_f32.c ****     inA6 = pSrcCmplx[5];
  93              		.loc 1 127 5 is_stmt 1 view .LVU33
  94              		.loc 1 127 10 is_stmt 0 view .LVU34
  95 002e D0ED056A 		vldr.32	s13, [r0, #20]
  96              	.LVL12:
 128:Drivers/CMSIS/DSP/Source/ComplexMathFunctions/arm_cmplx_mult_real_f32.c ****     /* read input from real input buffer */
 129:Drivers/CMSIS/DSP/Source/ComplexMathFunctions/arm_cmplx_mult_real_f32.c ****     inB3 = pSrcReal[2];
  97              		.loc 1 129 5 is_stmt 1 view .LVU35
  98              		.loc 1 129 10 is_stmt 0 view .LVU36
  99 0032 D1ED023A 		vldr.32	s7, [r1, #8]
 100              	.LVL13:
ARM GAS  /var/folders/n6/c271nzx11xl4r4_m7sqjlt0m0000gn/T//ccsGI7Uu.s 			page 5


 130:Drivers/CMSIS/DSP/Source/ComplexMathFunctions/arm_cmplx_mult_real_f32.c **** 
 131:Drivers/CMSIS/DSP/Source/ComplexMathFunctions/arm_cmplx_mult_real_f32.c ****     /* multiply complex buffer imaginary input with real buffer input */
 132:Drivers/CMSIS/DSP/Source/ComplexMathFunctions/arm_cmplx_mult_real_f32.c ****     out4 = inA4 * inB2;
 101              		.loc 1 132 5 is_stmt 1 view .LVU37
 102              		.loc 1 132 10 is_stmt 0 view .LVU38
 103 0036 65EEA75A 		vmul.f32	s11, s11, s15
 104              	.LVL14:
 133:Drivers/CMSIS/DSP/Source/ComplexMathFunctions/arm_cmplx_mult_real_f32.c **** 
 134:Drivers/CMSIS/DSP/Source/ComplexMathFunctions/arm_cmplx_mult_real_f32.c ****     /* read input from complex input buffer */
 135:Drivers/CMSIS/DSP/Source/ComplexMathFunctions/arm_cmplx_mult_real_f32.c ****     inA7 = pSrcCmplx[6];
 105              		.loc 1 135 5 is_stmt 1 view .LVU39
 106              		.loc 1 135 10 is_stmt 0 view .LVU40
 107 003a 90ED067A 		vldr.32	s14, [r0, #24]
 108              	.LVL15:
 136:Drivers/CMSIS/DSP/Source/ComplexMathFunctions/arm_cmplx_mult_real_f32.c **** 
 137:Drivers/CMSIS/DSP/Source/ComplexMathFunctions/arm_cmplx_mult_real_f32.c ****     /* multiply complex buffer real input with real buffer input */
 138:Drivers/CMSIS/DSP/Source/ComplexMathFunctions/arm_cmplx_mult_real_f32.c ****     out5 = inA5 * inB3;
 109              		.loc 1 138 5 is_stmt 1 view .LVU41
 110              		.loc 1 138 10 is_stmt 0 view .LVU42
 111 003e 26EE236A 		vmul.f32	s12, s12, s7
 112              	.LVL16:
 139:Drivers/CMSIS/DSP/Source/ComplexMathFunctions/arm_cmplx_mult_real_f32.c **** 
 140:Drivers/CMSIS/DSP/Source/ComplexMathFunctions/arm_cmplx_mult_real_f32.c ****     /* read input from complex input buffer */
 141:Drivers/CMSIS/DSP/Source/ComplexMathFunctions/arm_cmplx_mult_real_f32.c ****     inA8 = pSrcCmplx[7];
 113              		.loc 1 141 5 is_stmt 1 view .LVU43
 114              		.loc 1 141 10 is_stmt 0 view .LVU44
 115 0042 D0ED077A 		vldr.32	s15, [r0, #28]
 116              	.LVL17:
 142:Drivers/CMSIS/DSP/Source/ComplexMathFunctions/arm_cmplx_mult_real_f32.c **** 
 143:Drivers/CMSIS/DSP/Source/ComplexMathFunctions/arm_cmplx_mult_real_f32.c ****     /* multiply complex buffer imaginary input with real buffer input */
 144:Drivers/CMSIS/DSP/Source/ComplexMathFunctions/arm_cmplx_mult_real_f32.c ****     out6 = inA6 * inB3;
 117              		.loc 1 144 5 is_stmt 1 view .LVU45
 118              		.loc 1 144 10 is_stmt 0 view .LVU46
 119 0046 66EEA36A 		vmul.f32	s13, s13, s7
 120              	.LVL18:
 145:Drivers/CMSIS/DSP/Source/ComplexMathFunctions/arm_cmplx_mult_real_f32.c **** 
 146:Drivers/CMSIS/DSP/Source/ComplexMathFunctions/arm_cmplx_mult_real_f32.c ****     /* read input from real input buffer */
 147:Drivers/CMSIS/DSP/Source/ComplexMathFunctions/arm_cmplx_mult_real_f32.c ****     inB4 = pSrcReal[3];
 121              		.loc 1 147 5 is_stmt 1 view .LVU47
 122              		.loc 1 147 10 is_stmt 0 view .LVU48
 123 004a D1ED033A 		vldr.32	s7, [r1, #12]
 124              	.LVL19:
 148:Drivers/CMSIS/DSP/Source/ComplexMathFunctions/arm_cmplx_mult_real_f32.c **** 
 149:Drivers/CMSIS/DSP/Source/ComplexMathFunctions/arm_cmplx_mult_real_f32.c ****     /* store result to destination bufer */
 150:Drivers/CMSIS/DSP/Source/ComplexMathFunctions/arm_cmplx_mult_real_f32.c ****     pCmplxDst[0] = out1;
 125              		.loc 1 150 5 is_stmt 1 view .LVU49
 126              		.loc 1 150 18 is_stmt 0 view .LVU50
 127 004e 82ED004A 		vstr.32	s8, [r2]
 128              	.LVL20:
 151:Drivers/CMSIS/DSP/Source/ComplexMathFunctions/arm_cmplx_mult_real_f32.c **** 
 152:Drivers/CMSIS/DSP/Source/ComplexMathFunctions/arm_cmplx_mult_real_f32.c ****     /* multiply complex buffer real input with real buffer input */
 153:Drivers/CMSIS/DSP/Source/ComplexMathFunctions/arm_cmplx_mult_real_f32.c ****     out7 = inA7 * inB4;
 129              		.loc 1 153 5 is_stmt 1 view .LVU51
 130              		.loc 1 153 10 is_stmt 0 view .LVU52
 131 0052 27EE237A 		vmul.f32	s14, s14, s7
 132              	.LVL21:
 154:Drivers/CMSIS/DSP/Source/ComplexMathFunctions/arm_cmplx_mult_real_f32.c **** 
ARM GAS  /var/folders/n6/c271nzx11xl4r4_m7sqjlt0m0000gn/T//ccsGI7Uu.s 			page 6


 155:Drivers/CMSIS/DSP/Source/ComplexMathFunctions/arm_cmplx_mult_real_f32.c ****     /* store result to destination bufer */
 156:Drivers/CMSIS/DSP/Source/ComplexMathFunctions/arm_cmplx_mult_real_f32.c ****     pCmplxDst[1] = out2;
 133              		.loc 1 156 5 is_stmt 1 view .LVU53
 134              		.loc 1 156 18 is_stmt 0 view .LVU54
 135 0056 C2ED014A 		vstr.32	s9, [r2, #4]
 157:Drivers/CMSIS/DSP/Source/ComplexMathFunctions/arm_cmplx_mult_real_f32.c **** 
 158:Drivers/CMSIS/DSP/Source/ComplexMathFunctions/arm_cmplx_mult_real_f32.c ****     /* multiply complex buffer imaginary input with real buffer input */
 159:Drivers/CMSIS/DSP/Source/ComplexMathFunctions/arm_cmplx_mult_real_f32.c ****     out8 = inA8 * inB4;
 136              		.loc 1 159 5 is_stmt 1 view .LVU55
 137              		.loc 1 159 10 is_stmt 0 view .LVU56
 138 005a 67EEA37A 		vmul.f32	s15, s15, s7
 139              	.LVL22:
 160:Drivers/CMSIS/DSP/Source/ComplexMathFunctions/arm_cmplx_mult_real_f32.c **** 
 161:Drivers/CMSIS/DSP/Source/ComplexMathFunctions/arm_cmplx_mult_real_f32.c ****     /* store result to destination bufer */
 162:Drivers/CMSIS/DSP/Source/ComplexMathFunctions/arm_cmplx_mult_real_f32.c ****     pCmplxDst[2] = out3;
 140              		.loc 1 162 5 is_stmt 1 view .LVU57
 141              		.loc 1 162 18 is_stmt 0 view .LVU58
 142 005e 82ED025A 		vstr.32	s10, [r2, #8]
 163:Drivers/CMSIS/DSP/Source/ComplexMathFunctions/arm_cmplx_mult_real_f32.c ****     pCmplxDst[3] = out4;
 143              		.loc 1 163 5 is_stmt 1 view .LVU59
 144              		.loc 1 163 18 is_stmt 0 view .LVU60
 145 0062 C2ED035A 		vstr.32	s11, [r2, #12]
 164:Drivers/CMSIS/DSP/Source/ComplexMathFunctions/arm_cmplx_mult_real_f32.c ****     pCmplxDst[4] = out5;
 146              		.loc 1 164 5 is_stmt 1 view .LVU61
 147              		.loc 1 164 18 is_stmt 0 view .LVU62
 148 0066 82ED046A 		vstr.32	s12, [r2, #16]
 165:Drivers/CMSIS/DSP/Source/ComplexMathFunctions/arm_cmplx_mult_real_f32.c **** 
 166:Drivers/CMSIS/DSP/Source/ComplexMathFunctions/arm_cmplx_mult_real_f32.c ****     /* incremnet complex input buffer by 8 to process next samples */
 167:Drivers/CMSIS/DSP/Source/ComplexMathFunctions/arm_cmplx_mult_real_f32.c ****     pSrcCmplx += 8U;
 149              		.loc 1 167 5 is_stmt 1 view .LVU63
 150              		.loc 1 167 15 is_stmt 0 view .LVU64
 151 006a 2030     		adds	r0, r0, #32
 152              	.LVL23:
 168:Drivers/CMSIS/DSP/Source/ComplexMathFunctions/arm_cmplx_mult_real_f32.c **** 
 169:Drivers/CMSIS/DSP/Source/ComplexMathFunctions/arm_cmplx_mult_real_f32.c ****     /* store result to destination bufer */
 170:Drivers/CMSIS/DSP/Source/ComplexMathFunctions/arm_cmplx_mult_real_f32.c ****     pCmplxDst[5] = out6;
 153              		.loc 1 170 5 is_stmt 1 view .LVU65
 154              		.loc 1 170 18 is_stmt 0 view .LVU66
 155 006c C2ED056A 		vstr.32	s13, [r2, #20]
 171:Drivers/CMSIS/DSP/Source/ComplexMathFunctions/arm_cmplx_mult_real_f32.c **** 
 172:Drivers/CMSIS/DSP/Source/ComplexMathFunctions/arm_cmplx_mult_real_f32.c ****     /* increment real input buffer by 4 to process next samples */
 173:Drivers/CMSIS/DSP/Source/ComplexMathFunctions/arm_cmplx_mult_real_f32.c ****     pSrcReal += 4U;
 156              		.loc 1 173 5 is_stmt 1 view .LVU67
 157              		.loc 1 173 14 is_stmt 0 view .LVU68
 158 0070 1031     		adds	r1, r1, #16
 159              	.LVL24:
 174:Drivers/CMSIS/DSP/Source/ComplexMathFunctions/arm_cmplx_mult_real_f32.c **** 
 175:Drivers/CMSIS/DSP/Source/ComplexMathFunctions/arm_cmplx_mult_real_f32.c ****     /* store result to destination bufer */
 176:Drivers/CMSIS/DSP/Source/ComplexMathFunctions/arm_cmplx_mult_real_f32.c ****     pCmplxDst[6] = out7;
 160              		.loc 1 176 5 is_stmt 1 view .LVU69
 161              		.loc 1 176 18 is_stmt 0 view .LVU70
 162 0072 82ED067A 		vstr.32	s14, [r2, #24]
 177:Drivers/CMSIS/DSP/Source/ComplexMathFunctions/arm_cmplx_mult_real_f32.c ****     pCmplxDst[7] = out8;
 163              		.loc 1 177 5 is_stmt 1 view .LVU71
 164              		.loc 1 177 18 is_stmt 0 view .LVU72
 165 0076 C2ED077A 		vstr.32	s15, [r2, #28]
 178:Drivers/CMSIS/DSP/Source/ComplexMathFunctions/arm_cmplx_mult_real_f32.c **** 
ARM GAS  /var/folders/n6/c271nzx11xl4r4_m7sqjlt0m0000gn/T//ccsGI7Uu.s 			page 7


 179:Drivers/CMSIS/DSP/Source/ComplexMathFunctions/arm_cmplx_mult_real_f32.c ****     /* increment destination buffer by 8 to process next sampels */
 180:Drivers/CMSIS/DSP/Source/ComplexMathFunctions/arm_cmplx_mult_real_f32.c ****     pCmplxDst += 8U;
 166              		.loc 1 180 5 is_stmt 1 view .LVU73
 167              		.loc 1 180 15 is_stmt 0 view .LVU74
 168 007a 2032     		adds	r2, r2, #32
 169              	.LVL25:
 181:Drivers/CMSIS/DSP/Source/ComplexMathFunctions/arm_cmplx_mult_real_f32.c **** 
 182:Drivers/CMSIS/DSP/Source/ComplexMathFunctions/arm_cmplx_mult_real_f32.c ****     /* Decrement the numSamples loop counter */
 183:Drivers/CMSIS/DSP/Source/ComplexMathFunctions/arm_cmplx_mult_real_f32.c ****     blkCnt--;
 170              		.loc 1 183 5 is_stmt 1 view .LVU75
 171              		.loc 1 183 11 is_stmt 0 view .LVU76
 172 007c 013C     		subs	r4, r4, #1
 173              	.LVL26:
 174              	.L2:
  96:Drivers/CMSIS/DSP/Source/ComplexMathFunctions/arm_cmplx_mult_real_f32.c ****   {
 175              		.loc 1 96 17 is_stmt 1 view .LVU77
 176 007e 002C     		cmp	r4, #0
 177 0080 C1D1     		bne	.L3
 184:Drivers/CMSIS/DSP/Source/ComplexMathFunctions/arm_cmplx_mult_real_f32.c ****   }
 185:Drivers/CMSIS/DSP/Source/ComplexMathFunctions/arm_cmplx_mult_real_f32.c **** 
 186:Drivers/CMSIS/DSP/Source/ComplexMathFunctions/arm_cmplx_mult_real_f32.c ****   /* If the numSamples is not a multiple of 4, compute any remaining output samples here.
 187:Drivers/CMSIS/DSP/Source/ComplexMathFunctions/arm_cmplx_mult_real_f32.c ****    ** No loop unrolling is used. */
 188:Drivers/CMSIS/DSP/Source/ComplexMathFunctions/arm_cmplx_mult_real_f32.c ****   blkCnt = numSamples % 0x4U;
 178              		.loc 1 188 3 view .LVU78
 179              		.loc 1 188 10 is_stmt 0 view .LVU79
 180 0082 03F00303 		and	r3, r3, #3
 181              	.LVL27:
 189:Drivers/CMSIS/DSP/Source/ComplexMathFunctions/arm_cmplx_mult_real_f32.c **** 
 190:Drivers/CMSIS/DSP/Source/ComplexMathFunctions/arm_cmplx_mult_real_f32.c **** #else
 191:Drivers/CMSIS/DSP/Source/ComplexMathFunctions/arm_cmplx_mult_real_f32.c **** 
 192:Drivers/CMSIS/DSP/Source/ComplexMathFunctions/arm_cmplx_mult_real_f32.c ****   /* Run the below code for Cortex-M0 */
 193:Drivers/CMSIS/DSP/Source/ComplexMathFunctions/arm_cmplx_mult_real_f32.c ****   blkCnt = numSamples;
 194:Drivers/CMSIS/DSP/Source/ComplexMathFunctions/arm_cmplx_mult_real_f32.c **** 
 195:Drivers/CMSIS/DSP/Source/ComplexMathFunctions/arm_cmplx_mult_real_f32.c **** #endif /* #if defined (ARM_MATH_DSP) */
 196:Drivers/CMSIS/DSP/Source/ComplexMathFunctions/arm_cmplx_mult_real_f32.c **** 
 197:Drivers/CMSIS/DSP/Source/ComplexMathFunctions/arm_cmplx_mult_real_f32.c ****   while (blkCnt > 0U)
 182              		.loc 1 197 3 is_stmt 1 view .LVU80
 183              		.loc 1 197 9 is_stmt 0 view .LVU81
 184 0086 14E0     		b	.L4
 185              	.L5:
 198:Drivers/CMSIS/DSP/Source/ComplexMathFunctions/arm_cmplx_mult_real_f32.c ****   {
 199:Drivers/CMSIS/DSP/Source/ComplexMathFunctions/arm_cmplx_mult_real_f32.c ****     /* C[2 * i] = A[2 * i] * B[i].            */
 200:Drivers/CMSIS/DSP/Source/ComplexMathFunctions/arm_cmplx_mult_real_f32.c ****     /* C[2 * i + 1] = A[2 * i + 1] * B[i].        */
 201:Drivers/CMSIS/DSP/Source/ComplexMathFunctions/arm_cmplx_mult_real_f32.c ****     in = *pSrcReal++;
 186              		.loc 1 201 5 is_stmt 1 view .LVU82
 187              	.LVL28:
 188              		.loc 1 201 8 is_stmt 0 view .LVU83
 189 0088 B1EC017A 		vldmia.32	r1!, {s14}
 190              	.LVL29:
 202:Drivers/CMSIS/DSP/Source/ComplexMathFunctions/arm_cmplx_mult_real_f32.c ****     /* store the result in the destination buffer. */
 203:Drivers/CMSIS/DSP/Source/ComplexMathFunctions/arm_cmplx_mult_real_f32.c ****     *pCmplxDst++ = (*pSrcCmplx++) * (in);
 191              		.loc 1 203 5 is_stmt 1 view .LVU84
 192              		.loc 1 203 21 is_stmt 0 view .LVU85
 193 008c 00F1080C 		add	ip, r0, #8
 194 0090 D0ED007A 		vldr.32	s15, [r0]
 195              	.LVL30:
 196              		.loc 1 203 35 view .LVU86
ARM GAS  /var/folders/n6/c271nzx11xl4r4_m7sqjlt0m0000gn/T//ccsGI7Uu.s 			page 8


 197 0094 67EE877A 		vmul.f32	s15, s15, s14
 198              		.loc 1 203 18 view .LVU87
 199 0098 02F1080E 		add	lr, r2, #8
 200 009c C2ED007A 		vstr.32	s15, [r2]
 204:Drivers/CMSIS/DSP/Source/ComplexMathFunctions/arm_cmplx_mult_real_f32.c ****     *pCmplxDst++ = (*pSrcCmplx++) * (in);
 201              		.loc 1 204 5 is_stmt 1 view .LVU88
 202              	.LVL31:
 203              		.loc 1 204 21 is_stmt 0 view .LVU89
 204 00a0 D0ED017A 		vldr.32	s15, [r0, #4]
 205              	.LVL32:
 206              		.loc 1 204 35 view .LVU90
 207 00a4 67EE877A 		vmul.f32	s15, s15, s14
 208              		.loc 1 204 18 view .LVU91
 209 00a8 C2ED017A 		vstr.32	s15, [r2, #4]
 205:Drivers/CMSIS/DSP/Source/ComplexMathFunctions/arm_cmplx_mult_real_f32.c **** 
 206:Drivers/CMSIS/DSP/Source/ComplexMathFunctions/arm_cmplx_mult_real_f32.c ****     /* Decrement the numSamples loop counter */
 207:Drivers/CMSIS/DSP/Source/ComplexMathFunctions/arm_cmplx_mult_real_f32.c ****     blkCnt--;
 210              		.loc 1 207 5 is_stmt 1 view .LVU92
 211              		.loc 1 207 11 is_stmt 0 view .LVU93
 212 00ac 013B     		subs	r3, r3, #1
 213              	.LVL33:
 204:Drivers/CMSIS/DSP/Source/ComplexMathFunctions/arm_cmplx_mult_real_f32.c ****     *pCmplxDst++ = (*pSrcCmplx++) * (in);
 214              		.loc 1 204 15 view .LVU94
 215 00ae 7246     		mov	r2, lr
 204:Drivers/CMSIS/DSP/Source/ComplexMathFunctions/arm_cmplx_mult_real_f32.c ****     *pCmplxDst++ = (*pSrcCmplx++) * (in);
 216              		.loc 1 204 31 view .LVU95
 217 00b0 6046     		mov	r0, ip
 218              	.LVL34:
 219              	.L4:
 197:Drivers/CMSIS/DSP/Source/ComplexMathFunctions/arm_cmplx_mult_real_f32.c ****   {
 220              		.loc 1 197 17 is_stmt 1 view .LVU96
 221 00b2 002B     		cmp	r3, #0
 222 00b4 E8D1     		bne	.L5
 208:Drivers/CMSIS/DSP/Source/ComplexMathFunctions/arm_cmplx_mult_real_f32.c ****   }
 209:Drivers/CMSIS/DSP/Source/ComplexMathFunctions/arm_cmplx_mult_real_f32.c **** }
 223              		.loc 1 209 1 is_stmt 0 view .LVU97
 224 00b6 10BD     		pop	{r4, pc}
 225              		.cfi_endproc
 226              	.LFE135:
 228              		.text
 229              	.Letext0:
 230              		.file 2 "/Users/killian/Library/Application Support/Code/User/globalStorage/bmd.stm32-for-vscode/@
 231              		.file 3 "/Users/killian/Library/Application Support/Code/User/globalStorage/bmd.stm32-for-vscode/@
 232              		.file 4 "Drivers/CMSIS/DSP/Include/arm_math.h"
ARM GAS  /var/folders/n6/c271nzx11xl4r4_m7sqjlt0m0000gn/T//ccsGI7Uu.s 			page 9


DEFINED SYMBOLS
                            *ABS*:00000000 arm_cmplx_mult_real_f32.c
/var/folders/n6/c271nzx11xl4r4_m7sqjlt0m0000gn/T//ccsGI7Uu.s:20     .text.arm_cmplx_mult_real_f32:00000000 $t
/var/folders/n6/c271nzx11xl4r4_m7sqjlt0m0000gn/T//ccsGI7Uu.s:26     .text.arm_cmplx_mult_real_f32:00000000 arm_cmplx_mult_real_f32

NO UNDEFINED SYMBOLS
