ARM GAS  /var/folders/n6/c271nzx11xl4r4_m7sqjlt0m0000gn/T//ccJ3qP4w.s 			page 1


   1              		.cpu cortex-m7
   2              		.arch armv7e-m
   3              		.fpu fpv5-d16
   4              		.eabi_attribute 28, 1
   5              		.eabi_attribute 20, 1
   6              		.eabi_attribute 21, 1
   7              		.eabi_attribute 23, 3
   8              		.eabi_attribute 24, 1
   9              		.eabi_attribute 25, 1
  10              		.eabi_attribute 26, 1
  11              		.eabi_attribute 30, 1
  12              		.eabi_attribute 34, 1
  13              		.eabi_attribute 18, 4
  14              		.file	"arm_add_q31.c"
  15              		.text
  16              	.Ltext0:
  17              		.cfi_sections	.debug_frame
  18              		.file 1 "Drivers/CMSIS/DSP/Source/BasicMathFunctions/arm_add_q31.c"
  19              		.section	.text.arm_add_q31,"ax",%progbits
  20              		.align	1
  21              		.global	arm_add_q31
  22              		.syntax unified
  23              		.thumb
  24              		.thumb_func
  26              	arm_add_q31:
  27              	.LVL0:
  28              	.LFB135:
   1:Drivers/CMSIS/DSP/Source/BasicMathFunctions/arm_add_q31.c **** /* ----------------------------------------------------------------------
   2:Drivers/CMSIS/DSP/Source/BasicMathFunctions/arm_add_q31.c ****  * Project:      CMSIS DSP Library
   3:Drivers/CMSIS/DSP/Source/BasicMathFunctions/arm_add_q31.c ****  * Title:        arm_add_q31.c
   4:Drivers/CMSIS/DSP/Source/BasicMathFunctions/arm_add_q31.c ****  * Description:  Q31 vector addition
   5:Drivers/CMSIS/DSP/Source/BasicMathFunctions/arm_add_q31.c ****  *
   6:Drivers/CMSIS/DSP/Source/BasicMathFunctions/arm_add_q31.c ****  * $Date:        27. January 2017
   7:Drivers/CMSIS/DSP/Source/BasicMathFunctions/arm_add_q31.c ****  * $Revision:    V.1.5.1
   8:Drivers/CMSIS/DSP/Source/BasicMathFunctions/arm_add_q31.c ****  *
   9:Drivers/CMSIS/DSP/Source/BasicMathFunctions/arm_add_q31.c ****  * Target Processor: Cortex-M cores
  10:Drivers/CMSIS/DSP/Source/BasicMathFunctions/arm_add_q31.c ****  * -------------------------------------------------------------------- */
  11:Drivers/CMSIS/DSP/Source/BasicMathFunctions/arm_add_q31.c **** /*
  12:Drivers/CMSIS/DSP/Source/BasicMathFunctions/arm_add_q31.c ****  * Copyright (C) 2010-2017 ARM Limited or its affiliates. All rights reserved.
  13:Drivers/CMSIS/DSP/Source/BasicMathFunctions/arm_add_q31.c ****  *
  14:Drivers/CMSIS/DSP/Source/BasicMathFunctions/arm_add_q31.c ****  * SPDX-License-Identifier: Apache-2.0
  15:Drivers/CMSIS/DSP/Source/BasicMathFunctions/arm_add_q31.c ****  *
  16:Drivers/CMSIS/DSP/Source/BasicMathFunctions/arm_add_q31.c ****  * Licensed under the Apache License, Version 2.0 (the License); you may
  17:Drivers/CMSIS/DSP/Source/BasicMathFunctions/arm_add_q31.c ****  * not use this file except in compliance with the License.
  18:Drivers/CMSIS/DSP/Source/BasicMathFunctions/arm_add_q31.c ****  * You may obtain a copy of the License at
  19:Drivers/CMSIS/DSP/Source/BasicMathFunctions/arm_add_q31.c ****  *
  20:Drivers/CMSIS/DSP/Source/BasicMathFunctions/arm_add_q31.c ****  * www.apache.org/licenses/LICENSE-2.0
  21:Drivers/CMSIS/DSP/Source/BasicMathFunctions/arm_add_q31.c ****  *
  22:Drivers/CMSIS/DSP/Source/BasicMathFunctions/arm_add_q31.c ****  * Unless required by applicable law or agreed to in writing, software
  23:Drivers/CMSIS/DSP/Source/BasicMathFunctions/arm_add_q31.c ****  * distributed under the License is distributed on an AS IS BASIS, WITHOUT
  24:Drivers/CMSIS/DSP/Source/BasicMathFunctions/arm_add_q31.c ****  * WARRANTIES OR CONDITIONS OF ANY KIND, either express or implied.
  25:Drivers/CMSIS/DSP/Source/BasicMathFunctions/arm_add_q31.c ****  * See the License for the specific language governing permissions and
  26:Drivers/CMSIS/DSP/Source/BasicMathFunctions/arm_add_q31.c ****  * limitations under the License.
  27:Drivers/CMSIS/DSP/Source/BasicMathFunctions/arm_add_q31.c ****  */
  28:Drivers/CMSIS/DSP/Source/BasicMathFunctions/arm_add_q31.c **** 
  29:Drivers/CMSIS/DSP/Source/BasicMathFunctions/arm_add_q31.c **** #include "arm_math.h"
  30:Drivers/CMSIS/DSP/Source/BasicMathFunctions/arm_add_q31.c **** 
ARM GAS  /var/folders/n6/c271nzx11xl4r4_m7sqjlt0m0000gn/T//ccJ3qP4w.s 			page 2


  31:Drivers/CMSIS/DSP/Source/BasicMathFunctions/arm_add_q31.c **** /**
  32:Drivers/CMSIS/DSP/Source/BasicMathFunctions/arm_add_q31.c ****  * @ingroup groupMath
  33:Drivers/CMSIS/DSP/Source/BasicMathFunctions/arm_add_q31.c ****  */
  34:Drivers/CMSIS/DSP/Source/BasicMathFunctions/arm_add_q31.c **** 
  35:Drivers/CMSIS/DSP/Source/BasicMathFunctions/arm_add_q31.c **** /**
  36:Drivers/CMSIS/DSP/Source/BasicMathFunctions/arm_add_q31.c ****  * @addtogroup BasicAdd
  37:Drivers/CMSIS/DSP/Source/BasicMathFunctions/arm_add_q31.c ****  * @{
  38:Drivers/CMSIS/DSP/Source/BasicMathFunctions/arm_add_q31.c ****  */
  39:Drivers/CMSIS/DSP/Source/BasicMathFunctions/arm_add_q31.c **** 
  40:Drivers/CMSIS/DSP/Source/BasicMathFunctions/arm_add_q31.c **** 
  41:Drivers/CMSIS/DSP/Source/BasicMathFunctions/arm_add_q31.c **** /**
  42:Drivers/CMSIS/DSP/Source/BasicMathFunctions/arm_add_q31.c ****  * @brief Q31 vector addition.
  43:Drivers/CMSIS/DSP/Source/BasicMathFunctions/arm_add_q31.c ****  * @param[in]       *pSrcA points to the first input vector
  44:Drivers/CMSIS/DSP/Source/BasicMathFunctions/arm_add_q31.c ****  * @param[in]       *pSrcB points to the second input vector
  45:Drivers/CMSIS/DSP/Source/BasicMathFunctions/arm_add_q31.c ****  * @param[out]      *pDst points to the output vector
  46:Drivers/CMSIS/DSP/Source/BasicMathFunctions/arm_add_q31.c ****  * @param[in]       blockSize number of samples in each vector
  47:Drivers/CMSIS/DSP/Source/BasicMathFunctions/arm_add_q31.c ****  * @return none.
  48:Drivers/CMSIS/DSP/Source/BasicMathFunctions/arm_add_q31.c ****  *
  49:Drivers/CMSIS/DSP/Source/BasicMathFunctions/arm_add_q31.c ****  * <b>Scaling and Overflow Behavior:</b>
  50:Drivers/CMSIS/DSP/Source/BasicMathFunctions/arm_add_q31.c ****  * \par
  51:Drivers/CMSIS/DSP/Source/BasicMathFunctions/arm_add_q31.c ****  * The function uses saturating arithmetic.
  52:Drivers/CMSIS/DSP/Source/BasicMathFunctions/arm_add_q31.c ****  * Results outside of the allowable Q31 range[0x80000000 0x7FFFFFFF] will be saturated.
  53:Drivers/CMSIS/DSP/Source/BasicMathFunctions/arm_add_q31.c ****  */
  54:Drivers/CMSIS/DSP/Source/BasicMathFunctions/arm_add_q31.c **** 
  55:Drivers/CMSIS/DSP/Source/BasicMathFunctions/arm_add_q31.c **** void arm_add_q31(
  56:Drivers/CMSIS/DSP/Source/BasicMathFunctions/arm_add_q31.c ****   q31_t * pSrcA,
  57:Drivers/CMSIS/DSP/Source/BasicMathFunctions/arm_add_q31.c ****   q31_t * pSrcB,
  58:Drivers/CMSIS/DSP/Source/BasicMathFunctions/arm_add_q31.c ****   q31_t * pDst,
  59:Drivers/CMSIS/DSP/Source/BasicMathFunctions/arm_add_q31.c ****   uint32_t blockSize)
  60:Drivers/CMSIS/DSP/Source/BasicMathFunctions/arm_add_q31.c **** {
  29              		.loc 1 60 1 view -0
  30              		.cfi_startproc
  31              		@ args = 0, pretend = 0, frame = 0
  32              		@ frame_needed = 0, uses_anonymous_args = 0
  33              		.loc 1 60 1 is_stmt 0 view .LVU1
  34 0000 2DE9F04F 		push	{r4, r5, r6, r7, r8, r9, r10, fp, lr}
  35              		.cfi_def_cfa_offset 36
  36              		.cfi_offset 4, -36
  37              		.cfi_offset 5, -32
  38              		.cfi_offset 6, -28
  39              		.cfi_offset 7, -24
  40              		.cfi_offset 8, -20
  41              		.cfi_offset 9, -16
  42              		.cfi_offset 10, -12
  43              		.cfi_offset 11, -8
  44              		.cfi_offset 14, -4
  61:Drivers/CMSIS/DSP/Source/BasicMathFunctions/arm_add_q31.c ****   uint32_t blkCnt;                               /* loop counter */
  45              		.loc 1 61 3 is_stmt 1 view .LVU2
  62:Drivers/CMSIS/DSP/Source/BasicMathFunctions/arm_add_q31.c **** 
  63:Drivers/CMSIS/DSP/Source/BasicMathFunctions/arm_add_q31.c **** #if defined (ARM_MATH_DSP)
  64:Drivers/CMSIS/DSP/Source/BasicMathFunctions/arm_add_q31.c **** 
  65:Drivers/CMSIS/DSP/Source/BasicMathFunctions/arm_add_q31.c **** /* Run the below code for Cortex-M4 and Cortex-M3 */
  66:Drivers/CMSIS/DSP/Source/BasicMathFunctions/arm_add_q31.c ****   q31_t inA1, inA2, inA3, inA4;
  46              		.loc 1 66 3 view .LVU3
  67:Drivers/CMSIS/DSP/Source/BasicMathFunctions/arm_add_q31.c ****   q31_t inB1, inB2, inB3, inB4;
  47              		.loc 1 67 3 view .LVU4
  68:Drivers/CMSIS/DSP/Source/BasicMathFunctions/arm_add_q31.c **** 
ARM GAS  /var/folders/n6/c271nzx11xl4r4_m7sqjlt0m0000gn/T//ccJ3qP4w.s 			page 3


  69:Drivers/CMSIS/DSP/Source/BasicMathFunctions/arm_add_q31.c ****   /*loop Unrolling */
  70:Drivers/CMSIS/DSP/Source/BasicMathFunctions/arm_add_q31.c ****   blkCnt = blockSize >> 2U;
  48              		.loc 1 70 3 view .LVU5
  49              		.loc 1 70 10 is_stmt 0 view .LVU6
  50 0004 9F08     		lsrs	r7, r3, #2
  51              	.LVL1:
  71:Drivers/CMSIS/DSP/Source/BasicMathFunctions/arm_add_q31.c **** 
  72:Drivers/CMSIS/DSP/Source/BasicMathFunctions/arm_add_q31.c ****   /* First part of the processing with loop unrolling.  Compute 4 outputs at a time.
  73:Drivers/CMSIS/DSP/Source/BasicMathFunctions/arm_add_q31.c ****    ** a second loop below computes the remaining 1 to 3 samples. */
  74:Drivers/CMSIS/DSP/Source/BasicMathFunctions/arm_add_q31.c ****   while (blkCnt > 0U)
  52              		.loc 1 74 3 is_stmt 1 view .LVU7
  53              		.loc 1 74 9 is_stmt 0 view .LVU8
  54 0006 21E0     		b	.L2
  55              	.L3:
  75:Drivers/CMSIS/DSP/Source/BasicMathFunctions/arm_add_q31.c ****   {
  76:Drivers/CMSIS/DSP/Source/BasicMathFunctions/arm_add_q31.c ****     /* C = A + B */
  77:Drivers/CMSIS/DSP/Source/BasicMathFunctions/arm_add_q31.c ****     /* Add and then store the results in the destination buffer. */
  78:Drivers/CMSIS/DSP/Source/BasicMathFunctions/arm_add_q31.c ****     inA1 = *pSrcA++;
  56              		.loc 1 78 5 is_stmt 1 view .LVU9
  57              	.LVL2:
  58              		.loc 1 78 10 is_stmt 0 view .LVU10
  59 0008 0668     		ldr	r6, [r0]
  60              	.LVL3:
  79:Drivers/CMSIS/DSP/Source/BasicMathFunctions/arm_add_q31.c ****     inA2 = *pSrcA++;
  61              		.loc 1 79 5 is_stmt 1 view .LVU11
  62              		.loc 1 79 10 is_stmt 0 view .LVU12
  63 000a 4568     		ldr	r5, [r0, #4]
  64              	.LVL4:
  80:Drivers/CMSIS/DSP/Source/BasicMathFunctions/arm_add_q31.c ****     inB1 = *pSrcB++;
  65              		.loc 1 80 5 is_stmt 1 view .LVU13
  66              		.loc 1 80 10 is_stmt 0 view .LVU14
  67 000c D1F800A0 		ldr	r10, [r1]
  68              	.LVL5:
  81:Drivers/CMSIS/DSP/Source/BasicMathFunctions/arm_add_q31.c ****     inB2 = *pSrcB++;
  69              		.loc 1 81 5 is_stmt 1 view .LVU15
  70              		.loc 1 81 10 is_stmt 0 view .LVU16
  71 0010 D1F80490 		ldr	r9, [r1, #4]
  72              	.LVL6:
  82:Drivers/CMSIS/DSP/Source/BasicMathFunctions/arm_add_q31.c **** 
  83:Drivers/CMSIS/DSP/Source/BasicMathFunctions/arm_add_q31.c ****     inA3 = *pSrcA++;
  73              		.loc 1 83 5 is_stmt 1 view .LVU17
  74              		.loc 1 83 10 is_stmt 0 view .LVU18
  75 0014 8468     		ldr	r4, [r0, #8]
  76              	.LVL7:
  84:Drivers/CMSIS/DSP/Source/BasicMathFunctions/arm_add_q31.c ****     inA4 = *pSrcA++;
  77              		.loc 1 84 5 is_stmt 1 view .LVU19
  78              		.loc 1 84 18 is_stmt 0 view .LVU20
  79 0016 00F1100C 		add	ip, r0, #16
  80              	.LVL8:
  81              		.loc 1 84 10 view .LVU21
  82 001a C068     		ldr	r0, [r0, #12]
  83              	.LVL9:
  85:Drivers/CMSIS/DSP/Source/BasicMathFunctions/arm_add_q31.c ****     inB3 = *pSrcB++;
  84              		.loc 1 85 5 is_stmt 1 view .LVU22
  85              		.loc 1 85 10 is_stmt 0 view .LVU23
  86 001c D1F808B0 		ldr	fp, [r1, #8]
  87              	.LVL10:
ARM GAS  /var/folders/n6/c271nzx11xl4r4_m7sqjlt0m0000gn/T//ccJ3qP4w.s 			page 4


  86:Drivers/CMSIS/DSP/Source/BasicMathFunctions/arm_add_q31.c ****     inB4 = *pSrcB++;
  88              		.loc 1 86 5 is_stmt 1 view .LVU24
  89              		.loc 1 86 18 is_stmt 0 view .LVU25
  90 0020 01F1100E 		add	lr, r1, #16
  91              	.LVL11:
  92              		.loc 1 86 10 view .LVU26
  93 0024 D1F80C80 		ldr	r8, [r1, #12]
  94              	.LVL12:
  87:Drivers/CMSIS/DSP/Source/BasicMathFunctions/arm_add_q31.c **** 
  88:Drivers/CMSIS/DSP/Source/BasicMathFunctions/arm_add_q31.c ****     *pDst++ = __QADD(inA1, inB1);
  95              		.loc 1 88 5 is_stmt 1 view .LVU27
  96              	.LBB12:
  97              	.LBI12:
  98              		.file 2 "Drivers/CMSIS/Include/cmsis_gcc.h"
   1:Drivers/CMSIS/Include/cmsis_gcc.h **** /**************************************************************************//**
   2:Drivers/CMSIS/Include/cmsis_gcc.h ****  * @file     cmsis_gcc.h
   3:Drivers/CMSIS/Include/cmsis_gcc.h ****  * @brief    CMSIS compiler GCC header file
   4:Drivers/CMSIS/Include/cmsis_gcc.h ****  * @version  V5.0.4
   5:Drivers/CMSIS/Include/cmsis_gcc.h ****  * @date     09. April 2018
   6:Drivers/CMSIS/Include/cmsis_gcc.h ****  ******************************************************************************/
   7:Drivers/CMSIS/Include/cmsis_gcc.h **** /*
   8:Drivers/CMSIS/Include/cmsis_gcc.h ****  * Copyright (c) 2009-2018 Arm Limited. All rights reserved.
   9:Drivers/CMSIS/Include/cmsis_gcc.h ****  *
  10:Drivers/CMSIS/Include/cmsis_gcc.h ****  * SPDX-License-Identifier: Apache-2.0
  11:Drivers/CMSIS/Include/cmsis_gcc.h ****  *
  12:Drivers/CMSIS/Include/cmsis_gcc.h ****  * Licensed under the Apache License, Version 2.0 (the License); you may
  13:Drivers/CMSIS/Include/cmsis_gcc.h ****  * not use this file except in compliance with the License.
  14:Drivers/CMSIS/Include/cmsis_gcc.h ****  * You may obtain a copy of the License at
  15:Drivers/CMSIS/Include/cmsis_gcc.h ****  *
  16:Drivers/CMSIS/Include/cmsis_gcc.h ****  * www.apache.org/licenses/LICENSE-2.0
  17:Drivers/CMSIS/Include/cmsis_gcc.h ****  *
  18:Drivers/CMSIS/Include/cmsis_gcc.h ****  * Unless required by applicable law or agreed to in writing, software
  19:Drivers/CMSIS/Include/cmsis_gcc.h ****  * distributed under the License is distributed on an AS IS BASIS, WITHOUT
  20:Drivers/CMSIS/Include/cmsis_gcc.h ****  * WARRANTIES OR CONDITIONS OF ANY KIND, either express or implied.
  21:Drivers/CMSIS/Include/cmsis_gcc.h ****  * See the License for the specific language governing permissions and
  22:Drivers/CMSIS/Include/cmsis_gcc.h ****  * limitations under the License.
  23:Drivers/CMSIS/Include/cmsis_gcc.h ****  */
  24:Drivers/CMSIS/Include/cmsis_gcc.h **** 
  25:Drivers/CMSIS/Include/cmsis_gcc.h **** #ifndef __CMSIS_GCC_H
  26:Drivers/CMSIS/Include/cmsis_gcc.h **** #define __CMSIS_GCC_H
  27:Drivers/CMSIS/Include/cmsis_gcc.h **** 
  28:Drivers/CMSIS/Include/cmsis_gcc.h **** /* ignore some GCC warnings */
  29:Drivers/CMSIS/Include/cmsis_gcc.h **** #pragma GCC diagnostic push
  30:Drivers/CMSIS/Include/cmsis_gcc.h **** #pragma GCC diagnostic ignored "-Wsign-conversion"
  31:Drivers/CMSIS/Include/cmsis_gcc.h **** #pragma GCC diagnostic ignored "-Wconversion"
  32:Drivers/CMSIS/Include/cmsis_gcc.h **** #pragma GCC diagnostic ignored "-Wunused-parameter"
  33:Drivers/CMSIS/Include/cmsis_gcc.h **** 
  34:Drivers/CMSIS/Include/cmsis_gcc.h **** /* Fallback for __has_builtin */
  35:Drivers/CMSIS/Include/cmsis_gcc.h **** #ifndef __has_builtin
  36:Drivers/CMSIS/Include/cmsis_gcc.h ****   #define __has_builtin(x) (0)
  37:Drivers/CMSIS/Include/cmsis_gcc.h **** #endif
  38:Drivers/CMSIS/Include/cmsis_gcc.h **** 
  39:Drivers/CMSIS/Include/cmsis_gcc.h **** /* CMSIS compiler specific defines */
  40:Drivers/CMSIS/Include/cmsis_gcc.h **** #ifndef   __ASM
  41:Drivers/CMSIS/Include/cmsis_gcc.h ****   #define __ASM                                  __asm
  42:Drivers/CMSIS/Include/cmsis_gcc.h **** #endif
  43:Drivers/CMSIS/Include/cmsis_gcc.h **** #ifndef   __INLINE
ARM GAS  /var/folders/n6/c271nzx11xl4r4_m7sqjlt0m0000gn/T//ccJ3qP4w.s 			page 5


  44:Drivers/CMSIS/Include/cmsis_gcc.h ****   #define __INLINE                               inline
  45:Drivers/CMSIS/Include/cmsis_gcc.h **** #endif
  46:Drivers/CMSIS/Include/cmsis_gcc.h **** #ifndef   __STATIC_INLINE
  47:Drivers/CMSIS/Include/cmsis_gcc.h ****   #define __STATIC_INLINE                        static inline
  48:Drivers/CMSIS/Include/cmsis_gcc.h **** #endif
  49:Drivers/CMSIS/Include/cmsis_gcc.h **** #ifndef   __STATIC_FORCEINLINE                 
  50:Drivers/CMSIS/Include/cmsis_gcc.h ****   #define __STATIC_FORCEINLINE                   __attribute__((always_inline)) static inline
  51:Drivers/CMSIS/Include/cmsis_gcc.h **** #endif                                           
  52:Drivers/CMSIS/Include/cmsis_gcc.h **** #ifndef   __NO_RETURN
  53:Drivers/CMSIS/Include/cmsis_gcc.h ****   #define __NO_RETURN                            __attribute__((__noreturn__))
  54:Drivers/CMSIS/Include/cmsis_gcc.h **** #endif
  55:Drivers/CMSIS/Include/cmsis_gcc.h **** #ifndef   __USED
  56:Drivers/CMSIS/Include/cmsis_gcc.h ****   #define __USED                                 __attribute__((used))
  57:Drivers/CMSIS/Include/cmsis_gcc.h **** #endif
  58:Drivers/CMSIS/Include/cmsis_gcc.h **** #ifndef   __WEAK
  59:Drivers/CMSIS/Include/cmsis_gcc.h ****   #define __WEAK                                 __attribute__((weak))
  60:Drivers/CMSIS/Include/cmsis_gcc.h **** #endif
  61:Drivers/CMSIS/Include/cmsis_gcc.h **** #ifndef   __PACKED
  62:Drivers/CMSIS/Include/cmsis_gcc.h ****   #define __PACKED                               __attribute__((packed, aligned(1)))
  63:Drivers/CMSIS/Include/cmsis_gcc.h **** #endif
  64:Drivers/CMSIS/Include/cmsis_gcc.h **** #ifndef   __PACKED_STRUCT
  65:Drivers/CMSIS/Include/cmsis_gcc.h ****   #define __PACKED_STRUCT                        struct __attribute__((packed, aligned(1)))
  66:Drivers/CMSIS/Include/cmsis_gcc.h **** #endif
  67:Drivers/CMSIS/Include/cmsis_gcc.h **** #ifndef   __PACKED_UNION
  68:Drivers/CMSIS/Include/cmsis_gcc.h ****   #define __PACKED_UNION                         union __attribute__((packed, aligned(1)))
  69:Drivers/CMSIS/Include/cmsis_gcc.h **** #endif
  70:Drivers/CMSIS/Include/cmsis_gcc.h **** #ifndef   __UNALIGNED_UINT32        /* deprecated */
  71:Drivers/CMSIS/Include/cmsis_gcc.h ****   #pragma GCC diagnostic push
  72:Drivers/CMSIS/Include/cmsis_gcc.h ****   #pragma GCC diagnostic ignored "-Wpacked"
  73:Drivers/CMSIS/Include/cmsis_gcc.h ****   #pragma GCC diagnostic ignored "-Wattributes"
  74:Drivers/CMSIS/Include/cmsis_gcc.h ****   struct __attribute__((packed)) T_UINT32 { uint32_t v; };
  75:Drivers/CMSIS/Include/cmsis_gcc.h ****   #pragma GCC diagnostic pop
  76:Drivers/CMSIS/Include/cmsis_gcc.h ****   #define __UNALIGNED_UINT32(x)                  (((struct T_UINT32 *)(x))->v)
  77:Drivers/CMSIS/Include/cmsis_gcc.h **** #endif
  78:Drivers/CMSIS/Include/cmsis_gcc.h **** #ifndef   __UNALIGNED_UINT16_WRITE
  79:Drivers/CMSIS/Include/cmsis_gcc.h ****   #pragma GCC diagnostic push
  80:Drivers/CMSIS/Include/cmsis_gcc.h ****   #pragma GCC diagnostic ignored "-Wpacked"
  81:Drivers/CMSIS/Include/cmsis_gcc.h ****   #pragma GCC diagnostic ignored "-Wattributes"
  82:Drivers/CMSIS/Include/cmsis_gcc.h ****   __PACKED_STRUCT T_UINT16_WRITE { uint16_t v; };
  83:Drivers/CMSIS/Include/cmsis_gcc.h ****   #pragma GCC diagnostic pop
  84:Drivers/CMSIS/Include/cmsis_gcc.h ****   #define __UNALIGNED_UINT16_WRITE(addr, val)    (void)((((struct T_UINT16_WRITE *)(void *)(addr))-
  85:Drivers/CMSIS/Include/cmsis_gcc.h **** #endif
  86:Drivers/CMSIS/Include/cmsis_gcc.h **** #ifndef   __UNALIGNED_UINT16_READ
  87:Drivers/CMSIS/Include/cmsis_gcc.h ****   #pragma GCC diagnostic push
  88:Drivers/CMSIS/Include/cmsis_gcc.h ****   #pragma GCC diagnostic ignored "-Wpacked"
  89:Drivers/CMSIS/Include/cmsis_gcc.h ****   #pragma GCC diagnostic ignored "-Wattributes"
  90:Drivers/CMSIS/Include/cmsis_gcc.h ****   __PACKED_STRUCT T_UINT16_READ { uint16_t v; };
  91:Drivers/CMSIS/Include/cmsis_gcc.h ****   #pragma GCC diagnostic pop
  92:Drivers/CMSIS/Include/cmsis_gcc.h ****   #define __UNALIGNED_UINT16_READ(addr)          (((const struct T_UINT16_READ *)(const void *)(add
  93:Drivers/CMSIS/Include/cmsis_gcc.h **** #endif
  94:Drivers/CMSIS/Include/cmsis_gcc.h **** #ifndef   __UNALIGNED_UINT32_WRITE
  95:Drivers/CMSIS/Include/cmsis_gcc.h ****   #pragma GCC diagnostic push
  96:Drivers/CMSIS/Include/cmsis_gcc.h ****   #pragma GCC diagnostic ignored "-Wpacked"
  97:Drivers/CMSIS/Include/cmsis_gcc.h ****   #pragma GCC diagnostic ignored "-Wattributes"
  98:Drivers/CMSIS/Include/cmsis_gcc.h ****   __PACKED_STRUCT T_UINT32_WRITE { uint32_t v; };
  99:Drivers/CMSIS/Include/cmsis_gcc.h ****   #pragma GCC diagnostic pop
 100:Drivers/CMSIS/Include/cmsis_gcc.h ****   #define __UNALIGNED_UINT32_WRITE(addr, val)    (void)((((struct T_UINT32_WRITE *)(void *)(addr))-
ARM GAS  /var/folders/n6/c271nzx11xl4r4_m7sqjlt0m0000gn/T//ccJ3qP4w.s 			page 6


 101:Drivers/CMSIS/Include/cmsis_gcc.h **** #endif
 102:Drivers/CMSIS/Include/cmsis_gcc.h **** #ifndef   __UNALIGNED_UINT32_READ
 103:Drivers/CMSIS/Include/cmsis_gcc.h ****   #pragma GCC diagnostic push
 104:Drivers/CMSIS/Include/cmsis_gcc.h ****   #pragma GCC diagnostic ignored "-Wpacked"
 105:Drivers/CMSIS/Include/cmsis_gcc.h ****   #pragma GCC diagnostic ignored "-Wattributes"
 106:Drivers/CMSIS/Include/cmsis_gcc.h ****   __PACKED_STRUCT T_UINT32_READ { uint32_t v; };
 107:Drivers/CMSIS/Include/cmsis_gcc.h ****   #pragma GCC diagnostic pop
 108:Drivers/CMSIS/Include/cmsis_gcc.h ****   #define __UNALIGNED_UINT32_READ(addr)          (((const struct T_UINT32_READ *)(const void *)(add
 109:Drivers/CMSIS/Include/cmsis_gcc.h **** #endif
 110:Drivers/CMSIS/Include/cmsis_gcc.h **** #ifndef   __ALIGNED
 111:Drivers/CMSIS/Include/cmsis_gcc.h ****   #define __ALIGNED(x)                           __attribute__((aligned(x)))
 112:Drivers/CMSIS/Include/cmsis_gcc.h **** #endif
 113:Drivers/CMSIS/Include/cmsis_gcc.h **** #ifndef   __RESTRICT
 114:Drivers/CMSIS/Include/cmsis_gcc.h ****   #define __RESTRICT                             __restrict
 115:Drivers/CMSIS/Include/cmsis_gcc.h **** #endif
 116:Drivers/CMSIS/Include/cmsis_gcc.h **** 
 117:Drivers/CMSIS/Include/cmsis_gcc.h **** 
 118:Drivers/CMSIS/Include/cmsis_gcc.h **** /* ###########################  Core Function Access  ########################### */
 119:Drivers/CMSIS/Include/cmsis_gcc.h **** /** \ingroup  CMSIS_Core_FunctionInterface
 120:Drivers/CMSIS/Include/cmsis_gcc.h ****     \defgroup CMSIS_Core_RegAccFunctions CMSIS Core Register Access Functions
 121:Drivers/CMSIS/Include/cmsis_gcc.h ****   @{
 122:Drivers/CMSIS/Include/cmsis_gcc.h ****  */
 123:Drivers/CMSIS/Include/cmsis_gcc.h **** 
 124:Drivers/CMSIS/Include/cmsis_gcc.h **** /**
 125:Drivers/CMSIS/Include/cmsis_gcc.h ****   \brief   Enable IRQ Interrupts
 126:Drivers/CMSIS/Include/cmsis_gcc.h ****   \details Enables IRQ interrupts by clearing the I-bit in the CPSR.
 127:Drivers/CMSIS/Include/cmsis_gcc.h ****            Can only be executed in Privileged modes.
 128:Drivers/CMSIS/Include/cmsis_gcc.h ****  */
 129:Drivers/CMSIS/Include/cmsis_gcc.h **** __STATIC_FORCEINLINE void __enable_irq(void)
 130:Drivers/CMSIS/Include/cmsis_gcc.h **** {
 131:Drivers/CMSIS/Include/cmsis_gcc.h ****   __ASM volatile ("cpsie i" : : : "memory");
 132:Drivers/CMSIS/Include/cmsis_gcc.h **** }
 133:Drivers/CMSIS/Include/cmsis_gcc.h **** 
 134:Drivers/CMSIS/Include/cmsis_gcc.h **** 
 135:Drivers/CMSIS/Include/cmsis_gcc.h **** /**
 136:Drivers/CMSIS/Include/cmsis_gcc.h ****   \brief   Disable IRQ Interrupts
 137:Drivers/CMSIS/Include/cmsis_gcc.h ****   \details Disables IRQ interrupts by setting the I-bit in the CPSR.
 138:Drivers/CMSIS/Include/cmsis_gcc.h ****            Can only be executed in Privileged modes.
 139:Drivers/CMSIS/Include/cmsis_gcc.h ****  */
 140:Drivers/CMSIS/Include/cmsis_gcc.h **** __STATIC_FORCEINLINE void __disable_irq(void)
 141:Drivers/CMSIS/Include/cmsis_gcc.h **** {
 142:Drivers/CMSIS/Include/cmsis_gcc.h ****   __ASM volatile ("cpsid i" : : : "memory");
 143:Drivers/CMSIS/Include/cmsis_gcc.h **** }
 144:Drivers/CMSIS/Include/cmsis_gcc.h **** 
 145:Drivers/CMSIS/Include/cmsis_gcc.h **** 
 146:Drivers/CMSIS/Include/cmsis_gcc.h **** /**
 147:Drivers/CMSIS/Include/cmsis_gcc.h ****   \brief   Get Control Register
 148:Drivers/CMSIS/Include/cmsis_gcc.h ****   \details Returns the content of the Control Register.
 149:Drivers/CMSIS/Include/cmsis_gcc.h ****   \return               Control Register value
 150:Drivers/CMSIS/Include/cmsis_gcc.h ****  */
 151:Drivers/CMSIS/Include/cmsis_gcc.h **** __STATIC_FORCEINLINE uint32_t __get_CONTROL(void)
 152:Drivers/CMSIS/Include/cmsis_gcc.h **** {
 153:Drivers/CMSIS/Include/cmsis_gcc.h ****   uint32_t result;
 154:Drivers/CMSIS/Include/cmsis_gcc.h **** 
 155:Drivers/CMSIS/Include/cmsis_gcc.h ****   __ASM volatile ("MRS %0, control" : "=r" (result) );
 156:Drivers/CMSIS/Include/cmsis_gcc.h ****   return(result);
 157:Drivers/CMSIS/Include/cmsis_gcc.h **** }
ARM GAS  /var/folders/n6/c271nzx11xl4r4_m7sqjlt0m0000gn/T//ccJ3qP4w.s 			page 7


 158:Drivers/CMSIS/Include/cmsis_gcc.h **** 
 159:Drivers/CMSIS/Include/cmsis_gcc.h **** 
 160:Drivers/CMSIS/Include/cmsis_gcc.h **** #if (defined (__ARM_FEATURE_CMSE ) && (__ARM_FEATURE_CMSE == 3))
 161:Drivers/CMSIS/Include/cmsis_gcc.h **** /**
 162:Drivers/CMSIS/Include/cmsis_gcc.h ****   \brief   Get Control Register (non-secure)
 163:Drivers/CMSIS/Include/cmsis_gcc.h ****   \details Returns the content of the non-secure Control Register when in secure mode.
 164:Drivers/CMSIS/Include/cmsis_gcc.h ****   \return               non-secure Control Register value
 165:Drivers/CMSIS/Include/cmsis_gcc.h ****  */
 166:Drivers/CMSIS/Include/cmsis_gcc.h **** __STATIC_FORCEINLINE uint32_t __TZ_get_CONTROL_NS(void)
 167:Drivers/CMSIS/Include/cmsis_gcc.h **** {
 168:Drivers/CMSIS/Include/cmsis_gcc.h ****   uint32_t result;
 169:Drivers/CMSIS/Include/cmsis_gcc.h **** 
 170:Drivers/CMSIS/Include/cmsis_gcc.h ****   __ASM volatile ("MRS %0, control_ns" : "=r" (result) );
 171:Drivers/CMSIS/Include/cmsis_gcc.h ****   return(result);
 172:Drivers/CMSIS/Include/cmsis_gcc.h **** }
 173:Drivers/CMSIS/Include/cmsis_gcc.h **** #endif
 174:Drivers/CMSIS/Include/cmsis_gcc.h **** 
 175:Drivers/CMSIS/Include/cmsis_gcc.h **** 
 176:Drivers/CMSIS/Include/cmsis_gcc.h **** /**
 177:Drivers/CMSIS/Include/cmsis_gcc.h ****   \brief   Set Control Register
 178:Drivers/CMSIS/Include/cmsis_gcc.h ****   \details Writes the given value to the Control Register.
 179:Drivers/CMSIS/Include/cmsis_gcc.h ****   \param [in]    control  Control Register value to set
 180:Drivers/CMSIS/Include/cmsis_gcc.h ****  */
 181:Drivers/CMSIS/Include/cmsis_gcc.h **** __STATIC_FORCEINLINE void __set_CONTROL(uint32_t control)
 182:Drivers/CMSIS/Include/cmsis_gcc.h **** {
 183:Drivers/CMSIS/Include/cmsis_gcc.h ****   __ASM volatile ("MSR control, %0" : : "r" (control) : "memory");
 184:Drivers/CMSIS/Include/cmsis_gcc.h **** }
 185:Drivers/CMSIS/Include/cmsis_gcc.h **** 
 186:Drivers/CMSIS/Include/cmsis_gcc.h **** 
 187:Drivers/CMSIS/Include/cmsis_gcc.h **** #if (defined (__ARM_FEATURE_CMSE ) && (__ARM_FEATURE_CMSE == 3))
 188:Drivers/CMSIS/Include/cmsis_gcc.h **** /**
 189:Drivers/CMSIS/Include/cmsis_gcc.h ****   \brief   Set Control Register (non-secure)
 190:Drivers/CMSIS/Include/cmsis_gcc.h ****   \details Writes the given value to the non-secure Control Register when in secure state.
 191:Drivers/CMSIS/Include/cmsis_gcc.h ****   \param [in]    control  Control Register value to set
 192:Drivers/CMSIS/Include/cmsis_gcc.h ****  */
 193:Drivers/CMSIS/Include/cmsis_gcc.h **** __STATIC_FORCEINLINE void __TZ_set_CONTROL_NS(uint32_t control)
 194:Drivers/CMSIS/Include/cmsis_gcc.h **** {
 195:Drivers/CMSIS/Include/cmsis_gcc.h ****   __ASM volatile ("MSR control_ns, %0" : : "r" (control) : "memory");
 196:Drivers/CMSIS/Include/cmsis_gcc.h **** }
 197:Drivers/CMSIS/Include/cmsis_gcc.h **** #endif
 198:Drivers/CMSIS/Include/cmsis_gcc.h **** 
 199:Drivers/CMSIS/Include/cmsis_gcc.h **** 
 200:Drivers/CMSIS/Include/cmsis_gcc.h **** /**
 201:Drivers/CMSIS/Include/cmsis_gcc.h ****   \brief   Get IPSR Register
 202:Drivers/CMSIS/Include/cmsis_gcc.h ****   \details Returns the content of the IPSR Register.
 203:Drivers/CMSIS/Include/cmsis_gcc.h ****   \return               IPSR Register value
 204:Drivers/CMSIS/Include/cmsis_gcc.h ****  */
 205:Drivers/CMSIS/Include/cmsis_gcc.h **** __STATIC_FORCEINLINE uint32_t __get_IPSR(void)
 206:Drivers/CMSIS/Include/cmsis_gcc.h **** {
 207:Drivers/CMSIS/Include/cmsis_gcc.h ****   uint32_t result;
 208:Drivers/CMSIS/Include/cmsis_gcc.h **** 
 209:Drivers/CMSIS/Include/cmsis_gcc.h ****   __ASM volatile ("MRS %0, ipsr" : "=r" (result) );
 210:Drivers/CMSIS/Include/cmsis_gcc.h ****   return(result);
 211:Drivers/CMSIS/Include/cmsis_gcc.h **** }
 212:Drivers/CMSIS/Include/cmsis_gcc.h **** 
 213:Drivers/CMSIS/Include/cmsis_gcc.h **** 
 214:Drivers/CMSIS/Include/cmsis_gcc.h **** /**
ARM GAS  /var/folders/n6/c271nzx11xl4r4_m7sqjlt0m0000gn/T//ccJ3qP4w.s 			page 8


 215:Drivers/CMSIS/Include/cmsis_gcc.h ****   \brief   Get APSR Register
 216:Drivers/CMSIS/Include/cmsis_gcc.h ****   \details Returns the content of the APSR Register.
 217:Drivers/CMSIS/Include/cmsis_gcc.h ****   \return               APSR Register value
 218:Drivers/CMSIS/Include/cmsis_gcc.h ****  */
 219:Drivers/CMSIS/Include/cmsis_gcc.h **** __STATIC_FORCEINLINE uint32_t __get_APSR(void)
 220:Drivers/CMSIS/Include/cmsis_gcc.h **** {
 221:Drivers/CMSIS/Include/cmsis_gcc.h ****   uint32_t result;
 222:Drivers/CMSIS/Include/cmsis_gcc.h **** 
 223:Drivers/CMSIS/Include/cmsis_gcc.h ****   __ASM volatile ("MRS %0, apsr" : "=r" (result) );
 224:Drivers/CMSIS/Include/cmsis_gcc.h ****   return(result);
 225:Drivers/CMSIS/Include/cmsis_gcc.h **** }
 226:Drivers/CMSIS/Include/cmsis_gcc.h **** 
 227:Drivers/CMSIS/Include/cmsis_gcc.h **** 
 228:Drivers/CMSIS/Include/cmsis_gcc.h **** /**
 229:Drivers/CMSIS/Include/cmsis_gcc.h ****   \brief   Get xPSR Register
 230:Drivers/CMSIS/Include/cmsis_gcc.h ****   \details Returns the content of the xPSR Register.
 231:Drivers/CMSIS/Include/cmsis_gcc.h ****   \return               xPSR Register value
 232:Drivers/CMSIS/Include/cmsis_gcc.h ****  */
 233:Drivers/CMSIS/Include/cmsis_gcc.h **** __STATIC_FORCEINLINE uint32_t __get_xPSR(void)
 234:Drivers/CMSIS/Include/cmsis_gcc.h **** {
 235:Drivers/CMSIS/Include/cmsis_gcc.h ****   uint32_t result;
 236:Drivers/CMSIS/Include/cmsis_gcc.h **** 
 237:Drivers/CMSIS/Include/cmsis_gcc.h ****   __ASM volatile ("MRS %0, xpsr" : "=r" (result) );
 238:Drivers/CMSIS/Include/cmsis_gcc.h ****   return(result);
 239:Drivers/CMSIS/Include/cmsis_gcc.h **** }
 240:Drivers/CMSIS/Include/cmsis_gcc.h **** 
 241:Drivers/CMSIS/Include/cmsis_gcc.h **** 
 242:Drivers/CMSIS/Include/cmsis_gcc.h **** /**
 243:Drivers/CMSIS/Include/cmsis_gcc.h ****   \brief   Get Process Stack Pointer
 244:Drivers/CMSIS/Include/cmsis_gcc.h ****   \details Returns the current value of the Process Stack Pointer (PSP).
 245:Drivers/CMSIS/Include/cmsis_gcc.h ****   \return               PSP Register value
 246:Drivers/CMSIS/Include/cmsis_gcc.h ****  */
 247:Drivers/CMSIS/Include/cmsis_gcc.h **** __STATIC_FORCEINLINE uint32_t __get_PSP(void)
 248:Drivers/CMSIS/Include/cmsis_gcc.h **** {
 249:Drivers/CMSIS/Include/cmsis_gcc.h ****   uint32_t result;
 250:Drivers/CMSIS/Include/cmsis_gcc.h **** 
 251:Drivers/CMSIS/Include/cmsis_gcc.h ****   __ASM volatile ("MRS %0, psp"  : "=r" (result) );
 252:Drivers/CMSIS/Include/cmsis_gcc.h ****   return(result);
 253:Drivers/CMSIS/Include/cmsis_gcc.h **** }
 254:Drivers/CMSIS/Include/cmsis_gcc.h **** 
 255:Drivers/CMSIS/Include/cmsis_gcc.h **** 
 256:Drivers/CMSIS/Include/cmsis_gcc.h **** #if (defined (__ARM_FEATURE_CMSE ) && (__ARM_FEATURE_CMSE == 3))
 257:Drivers/CMSIS/Include/cmsis_gcc.h **** /**
 258:Drivers/CMSIS/Include/cmsis_gcc.h ****   \brief   Get Process Stack Pointer (non-secure)
 259:Drivers/CMSIS/Include/cmsis_gcc.h ****   \details Returns the current value of the non-secure Process Stack Pointer (PSP) when in secure s
 260:Drivers/CMSIS/Include/cmsis_gcc.h ****   \return               PSP Register value
 261:Drivers/CMSIS/Include/cmsis_gcc.h ****  */
 262:Drivers/CMSIS/Include/cmsis_gcc.h **** __STATIC_FORCEINLINE uint32_t __TZ_get_PSP_NS(void)
 263:Drivers/CMSIS/Include/cmsis_gcc.h **** {
 264:Drivers/CMSIS/Include/cmsis_gcc.h ****   uint32_t result;
 265:Drivers/CMSIS/Include/cmsis_gcc.h **** 
 266:Drivers/CMSIS/Include/cmsis_gcc.h ****   __ASM volatile ("MRS %0, psp_ns"  : "=r" (result) );
 267:Drivers/CMSIS/Include/cmsis_gcc.h ****   return(result);
 268:Drivers/CMSIS/Include/cmsis_gcc.h **** }
 269:Drivers/CMSIS/Include/cmsis_gcc.h **** #endif
 270:Drivers/CMSIS/Include/cmsis_gcc.h **** 
 271:Drivers/CMSIS/Include/cmsis_gcc.h **** 
ARM GAS  /var/folders/n6/c271nzx11xl4r4_m7sqjlt0m0000gn/T//ccJ3qP4w.s 			page 9


 272:Drivers/CMSIS/Include/cmsis_gcc.h **** /**
 273:Drivers/CMSIS/Include/cmsis_gcc.h ****   \brief   Set Process Stack Pointer
 274:Drivers/CMSIS/Include/cmsis_gcc.h ****   \details Assigns the given value to the Process Stack Pointer (PSP).
 275:Drivers/CMSIS/Include/cmsis_gcc.h ****   \param [in]    topOfProcStack  Process Stack Pointer value to set
 276:Drivers/CMSIS/Include/cmsis_gcc.h ****  */
 277:Drivers/CMSIS/Include/cmsis_gcc.h **** __STATIC_FORCEINLINE void __set_PSP(uint32_t topOfProcStack)
 278:Drivers/CMSIS/Include/cmsis_gcc.h **** {
 279:Drivers/CMSIS/Include/cmsis_gcc.h ****   __ASM volatile ("MSR psp, %0" : : "r" (topOfProcStack) : );
 280:Drivers/CMSIS/Include/cmsis_gcc.h **** }
 281:Drivers/CMSIS/Include/cmsis_gcc.h **** 
 282:Drivers/CMSIS/Include/cmsis_gcc.h **** 
 283:Drivers/CMSIS/Include/cmsis_gcc.h **** #if (defined (__ARM_FEATURE_CMSE ) && (__ARM_FEATURE_CMSE == 3))
 284:Drivers/CMSIS/Include/cmsis_gcc.h **** /**
 285:Drivers/CMSIS/Include/cmsis_gcc.h ****   \brief   Set Process Stack Pointer (non-secure)
 286:Drivers/CMSIS/Include/cmsis_gcc.h ****   \details Assigns the given value to the non-secure Process Stack Pointer (PSP) when in secure sta
 287:Drivers/CMSIS/Include/cmsis_gcc.h ****   \param [in]    topOfProcStack  Process Stack Pointer value to set
 288:Drivers/CMSIS/Include/cmsis_gcc.h ****  */
 289:Drivers/CMSIS/Include/cmsis_gcc.h **** __STATIC_FORCEINLINE void __TZ_set_PSP_NS(uint32_t topOfProcStack)
 290:Drivers/CMSIS/Include/cmsis_gcc.h **** {
 291:Drivers/CMSIS/Include/cmsis_gcc.h ****   __ASM volatile ("MSR psp_ns, %0" : : "r" (topOfProcStack) : );
 292:Drivers/CMSIS/Include/cmsis_gcc.h **** }
 293:Drivers/CMSIS/Include/cmsis_gcc.h **** #endif
 294:Drivers/CMSIS/Include/cmsis_gcc.h **** 
 295:Drivers/CMSIS/Include/cmsis_gcc.h **** 
 296:Drivers/CMSIS/Include/cmsis_gcc.h **** /**
 297:Drivers/CMSIS/Include/cmsis_gcc.h ****   \brief   Get Main Stack Pointer
 298:Drivers/CMSIS/Include/cmsis_gcc.h ****   \details Returns the current value of the Main Stack Pointer (MSP).
 299:Drivers/CMSIS/Include/cmsis_gcc.h ****   \return               MSP Register value
 300:Drivers/CMSIS/Include/cmsis_gcc.h ****  */
 301:Drivers/CMSIS/Include/cmsis_gcc.h **** __STATIC_FORCEINLINE uint32_t __get_MSP(void)
 302:Drivers/CMSIS/Include/cmsis_gcc.h **** {
 303:Drivers/CMSIS/Include/cmsis_gcc.h ****   uint32_t result;
 304:Drivers/CMSIS/Include/cmsis_gcc.h **** 
 305:Drivers/CMSIS/Include/cmsis_gcc.h ****   __ASM volatile ("MRS %0, msp" : "=r" (result) );
 306:Drivers/CMSIS/Include/cmsis_gcc.h ****   return(result);
 307:Drivers/CMSIS/Include/cmsis_gcc.h **** }
 308:Drivers/CMSIS/Include/cmsis_gcc.h **** 
 309:Drivers/CMSIS/Include/cmsis_gcc.h **** 
 310:Drivers/CMSIS/Include/cmsis_gcc.h **** #if (defined (__ARM_FEATURE_CMSE ) && (__ARM_FEATURE_CMSE == 3))
 311:Drivers/CMSIS/Include/cmsis_gcc.h **** /**
 312:Drivers/CMSIS/Include/cmsis_gcc.h ****   \brief   Get Main Stack Pointer (non-secure)
 313:Drivers/CMSIS/Include/cmsis_gcc.h ****   \details Returns the current value of the non-secure Main Stack Pointer (MSP) when in secure stat
 314:Drivers/CMSIS/Include/cmsis_gcc.h ****   \return               MSP Register value
 315:Drivers/CMSIS/Include/cmsis_gcc.h ****  */
 316:Drivers/CMSIS/Include/cmsis_gcc.h **** __STATIC_FORCEINLINE uint32_t __TZ_get_MSP_NS(void)
 317:Drivers/CMSIS/Include/cmsis_gcc.h **** {
 318:Drivers/CMSIS/Include/cmsis_gcc.h ****   uint32_t result;
 319:Drivers/CMSIS/Include/cmsis_gcc.h **** 
 320:Drivers/CMSIS/Include/cmsis_gcc.h ****   __ASM volatile ("MRS %0, msp_ns" : "=r" (result) );
 321:Drivers/CMSIS/Include/cmsis_gcc.h ****   return(result);
 322:Drivers/CMSIS/Include/cmsis_gcc.h **** }
 323:Drivers/CMSIS/Include/cmsis_gcc.h **** #endif
 324:Drivers/CMSIS/Include/cmsis_gcc.h **** 
 325:Drivers/CMSIS/Include/cmsis_gcc.h **** 
 326:Drivers/CMSIS/Include/cmsis_gcc.h **** /**
 327:Drivers/CMSIS/Include/cmsis_gcc.h ****   \brief   Set Main Stack Pointer
 328:Drivers/CMSIS/Include/cmsis_gcc.h ****   \details Assigns the given value to the Main Stack Pointer (MSP).
ARM GAS  /var/folders/n6/c271nzx11xl4r4_m7sqjlt0m0000gn/T//ccJ3qP4w.s 			page 10


 329:Drivers/CMSIS/Include/cmsis_gcc.h ****   \param [in]    topOfMainStack  Main Stack Pointer value to set
 330:Drivers/CMSIS/Include/cmsis_gcc.h ****  */
 331:Drivers/CMSIS/Include/cmsis_gcc.h **** __STATIC_FORCEINLINE void __set_MSP(uint32_t topOfMainStack)
 332:Drivers/CMSIS/Include/cmsis_gcc.h **** {
 333:Drivers/CMSIS/Include/cmsis_gcc.h ****   __ASM volatile ("MSR msp, %0" : : "r" (topOfMainStack) : );
 334:Drivers/CMSIS/Include/cmsis_gcc.h **** }
 335:Drivers/CMSIS/Include/cmsis_gcc.h **** 
 336:Drivers/CMSIS/Include/cmsis_gcc.h **** 
 337:Drivers/CMSIS/Include/cmsis_gcc.h **** #if (defined (__ARM_FEATURE_CMSE ) && (__ARM_FEATURE_CMSE == 3))
 338:Drivers/CMSIS/Include/cmsis_gcc.h **** /**
 339:Drivers/CMSIS/Include/cmsis_gcc.h ****   \brief   Set Main Stack Pointer (non-secure)
 340:Drivers/CMSIS/Include/cmsis_gcc.h ****   \details Assigns the given value to the non-secure Main Stack Pointer (MSP) when in secure state.
 341:Drivers/CMSIS/Include/cmsis_gcc.h ****   \param [in]    topOfMainStack  Main Stack Pointer value to set
 342:Drivers/CMSIS/Include/cmsis_gcc.h ****  */
 343:Drivers/CMSIS/Include/cmsis_gcc.h **** __STATIC_FORCEINLINE void __TZ_set_MSP_NS(uint32_t topOfMainStack)
 344:Drivers/CMSIS/Include/cmsis_gcc.h **** {
 345:Drivers/CMSIS/Include/cmsis_gcc.h ****   __ASM volatile ("MSR msp_ns, %0" : : "r" (topOfMainStack) : );
 346:Drivers/CMSIS/Include/cmsis_gcc.h **** }
 347:Drivers/CMSIS/Include/cmsis_gcc.h **** #endif
 348:Drivers/CMSIS/Include/cmsis_gcc.h **** 
 349:Drivers/CMSIS/Include/cmsis_gcc.h **** 
 350:Drivers/CMSIS/Include/cmsis_gcc.h **** #if (defined (__ARM_FEATURE_CMSE ) && (__ARM_FEATURE_CMSE == 3))
 351:Drivers/CMSIS/Include/cmsis_gcc.h **** /**
 352:Drivers/CMSIS/Include/cmsis_gcc.h ****   \brief   Get Stack Pointer (non-secure)
 353:Drivers/CMSIS/Include/cmsis_gcc.h ****   \details Returns the current value of the non-secure Stack Pointer (SP) when in secure state.
 354:Drivers/CMSIS/Include/cmsis_gcc.h ****   \return               SP Register value
 355:Drivers/CMSIS/Include/cmsis_gcc.h ****  */
 356:Drivers/CMSIS/Include/cmsis_gcc.h **** __STATIC_FORCEINLINE uint32_t __TZ_get_SP_NS(void)
 357:Drivers/CMSIS/Include/cmsis_gcc.h **** {
 358:Drivers/CMSIS/Include/cmsis_gcc.h ****   uint32_t result;
 359:Drivers/CMSIS/Include/cmsis_gcc.h **** 
 360:Drivers/CMSIS/Include/cmsis_gcc.h ****   __ASM volatile ("MRS %0, sp_ns" : "=r" (result) );
 361:Drivers/CMSIS/Include/cmsis_gcc.h ****   return(result);
 362:Drivers/CMSIS/Include/cmsis_gcc.h **** }
 363:Drivers/CMSIS/Include/cmsis_gcc.h **** 
 364:Drivers/CMSIS/Include/cmsis_gcc.h **** 
 365:Drivers/CMSIS/Include/cmsis_gcc.h **** /**
 366:Drivers/CMSIS/Include/cmsis_gcc.h ****   \brief   Set Stack Pointer (non-secure)
 367:Drivers/CMSIS/Include/cmsis_gcc.h ****   \details Assigns the given value to the non-secure Stack Pointer (SP) when in secure state.
 368:Drivers/CMSIS/Include/cmsis_gcc.h ****   \param [in]    topOfStack  Stack Pointer value to set
 369:Drivers/CMSIS/Include/cmsis_gcc.h ****  */
 370:Drivers/CMSIS/Include/cmsis_gcc.h **** __STATIC_FORCEINLINE void __TZ_set_SP_NS(uint32_t topOfStack)
 371:Drivers/CMSIS/Include/cmsis_gcc.h **** {
 372:Drivers/CMSIS/Include/cmsis_gcc.h ****   __ASM volatile ("MSR sp_ns, %0" : : "r" (topOfStack) : );
 373:Drivers/CMSIS/Include/cmsis_gcc.h **** }
 374:Drivers/CMSIS/Include/cmsis_gcc.h **** #endif
 375:Drivers/CMSIS/Include/cmsis_gcc.h **** 
 376:Drivers/CMSIS/Include/cmsis_gcc.h **** 
 377:Drivers/CMSIS/Include/cmsis_gcc.h **** /**
 378:Drivers/CMSIS/Include/cmsis_gcc.h ****   \brief   Get Priority Mask
 379:Drivers/CMSIS/Include/cmsis_gcc.h ****   \details Returns the current state of the priority mask bit from the Priority Mask Register.
 380:Drivers/CMSIS/Include/cmsis_gcc.h ****   \return               Priority Mask value
 381:Drivers/CMSIS/Include/cmsis_gcc.h ****  */
 382:Drivers/CMSIS/Include/cmsis_gcc.h **** __STATIC_FORCEINLINE uint32_t __get_PRIMASK(void)
 383:Drivers/CMSIS/Include/cmsis_gcc.h **** {
 384:Drivers/CMSIS/Include/cmsis_gcc.h ****   uint32_t result;
 385:Drivers/CMSIS/Include/cmsis_gcc.h **** 
ARM GAS  /var/folders/n6/c271nzx11xl4r4_m7sqjlt0m0000gn/T//ccJ3qP4w.s 			page 11


 386:Drivers/CMSIS/Include/cmsis_gcc.h ****   __ASM volatile ("MRS %0, primask" : "=r" (result) :: "memory");
 387:Drivers/CMSIS/Include/cmsis_gcc.h ****   return(result);
 388:Drivers/CMSIS/Include/cmsis_gcc.h **** }
 389:Drivers/CMSIS/Include/cmsis_gcc.h **** 
 390:Drivers/CMSIS/Include/cmsis_gcc.h **** 
 391:Drivers/CMSIS/Include/cmsis_gcc.h **** #if (defined (__ARM_FEATURE_CMSE ) && (__ARM_FEATURE_CMSE == 3))
 392:Drivers/CMSIS/Include/cmsis_gcc.h **** /**
 393:Drivers/CMSIS/Include/cmsis_gcc.h ****   \brief   Get Priority Mask (non-secure)
 394:Drivers/CMSIS/Include/cmsis_gcc.h ****   \details Returns the current state of the non-secure priority mask bit from the Priority Mask Reg
 395:Drivers/CMSIS/Include/cmsis_gcc.h ****   \return               Priority Mask value
 396:Drivers/CMSIS/Include/cmsis_gcc.h ****  */
 397:Drivers/CMSIS/Include/cmsis_gcc.h **** __STATIC_FORCEINLINE uint32_t __TZ_get_PRIMASK_NS(void)
 398:Drivers/CMSIS/Include/cmsis_gcc.h **** {
 399:Drivers/CMSIS/Include/cmsis_gcc.h ****   uint32_t result;
 400:Drivers/CMSIS/Include/cmsis_gcc.h **** 
 401:Drivers/CMSIS/Include/cmsis_gcc.h ****   __ASM volatile ("MRS %0, primask_ns" : "=r" (result) :: "memory");
 402:Drivers/CMSIS/Include/cmsis_gcc.h ****   return(result);
 403:Drivers/CMSIS/Include/cmsis_gcc.h **** }
 404:Drivers/CMSIS/Include/cmsis_gcc.h **** #endif
 405:Drivers/CMSIS/Include/cmsis_gcc.h **** 
 406:Drivers/CMSIS/Include/cmsis_gcc.h **** 
 407:Drivers/CMSIS/Include/cmsis_gcc.h **** /**
 408:Drivers/CMSIS/Include/cmsis_gcc.h ****   \brief   Set Priority Mask
 409:Drivers/CMSIS/Include/cmsis_gcc.h ****   \details Assigns the given value to the Priority Mask Register.
 410:Drivers/CMSIS/Include/cmsis_gcc.h ****   \param [in]    priMask  Priority Mask
 411:Drivers/CMSIS/Include/cmsis_gcc.h ****  */
 412:Drivers/CMSIS/Include/cmsis_gcc.h **** __STATIC_FORCEINLINE void __set_PRIMASK(uint32_t priMask)
 413:Drivers/CMSIS/Include/cmsis_gcc.h **** {
 414:Drivers/CMSIS/Include/cmsis_gcc.h ****   __ASM volatile ("MSR primask, %0" : : "r" (priMask) : "memory");
 415:Drivers/CMSIS/Include/cmsis_gcc.h **** }
 416:Drivers/CMSIS/Include/cmsis_gcc.h **** 
 417:Drivers/CMSIS/Include/cmsis_gcc.h **** 
 418:Drivers/CMSIS/Include/cmsis_gcc.h **** #if (defined (__ARM_FEATURE_CMSE ) && (__ARM_FEATURE_CMSE == 3))
 419:Drivers/CMSIS/Include/cmsis_gcc.h **** /**
 420:Drivers/CMSIS/Include/cmsis_gcc.h ****   \brief   Set Priority Mask (non-secure)
 421:Drivers/CMSIS/Include/cmsis_gcc.h ****   \details Assigns the given value to the non-secure Priority Mask Register when in secure state.
 422:Drivers/CMSIS/Include/cmsis_gcc.h ****   \param [in]    priMask  Priority Mask
 423:Drivers/CMSIS/Include/cmsis_gcc.h ****  */
 424:Drivers/CMSIS/Include/cmsis_gcc.h **** __STATIC_FORCEINLINE void __TZ_set_PRIMASK_NS(uint32_t priMask)
 425:Drivers/CMSIS/Include/cmsis_gcc.h **** {
 426:Drivers/CMSIS/Include/cmsis_gcc.h ****   __ASM volatile ("MSR primask_ns, %0" : : "r" (priMask) : "memory");
 427:Drivers/CMSIS/Include/cmsis_gcc.h **** }
 428:Drivers/CMSIS/Include/cmsis_gcc.h **** #endif
 429:Drivers/CMSIS/Include/cmsis_gcc.h **** 
 430:Drivers/CMSIS/Include/cmsis_gcc.h **** 
 431:Drivers/CMSIS/Include/cmsis_gcc.h **** #if ((defined (__ARM_ARCH_7M__      ) && (__ARM_ARCH_7M__      == 1)) || \
 432:Drivers/CMSIS/Include/cmsis_gcc.h ****      (defined (__ARM_ARCH_7EM__     ) && (__ARM_ARCH_7EM__     == 1)) || \
 433:Drivers/CMSIS/Include/cmsis_gcc.h ****      (defined (__ARM_ARCH_8M_MAIN__ ) && (__ARM_ARCH_8M_MAIN__ == 1))    )
 434:Drivers/CMSIS/Include/cmsis_gcc.h **** /**
 435:Drivers/CMSIS/Include/cmsis_gcc.h ****   \brief   Enable FIQ
 436:Drivers/CMSIS/Include/cmsis_gcc.h ****   \details Enables FIQ interrupts by clearing the F-bit in the CPSR.
 437:Drivers/CMSIS/Include/cmsis_gcc.h ****            Can only be executed in Privileged modes.
 438:Drivers/CMSIS/Include/cmsis_gcc.h ****  */
 439:Drivers/CMSIS/Include/cmsis_gcc.h **** __STATIC_FORCEINLINE void __enable_fault_irq(void)
 440:Drivers/CMSIS/Include/cmsis_gcc.h **** {
 441:Drivers/CMSIS/Include/cmsis_gcc.h ****   __ASM volatile ("cpsie f" : : : "memory");
 442:Drivers/CMSIS/Include/cmsis_gcc.h **** }
ARM GAS  /var/folders/n6/c271nzx11xl4r4_m7sqjlt0m0000gn/T//ccJ3qP4w.s 			page 12


 443:Drivers/CMSIS/Include/cmsis_gcc.h **** 
 444:Drivers/CMSIS/Include/cmsis_gcc.h **** 
 445:Drivers/CMSIS/Include/cmsis_gcc.h **** /**
 446:Drivers/CMSIS/Include/cmsis_gcc.h ****   \brief   Disable FIQ
 447:Drivers/CMSIS/Include/cmsis_gcc.h ****   \details Disables FIQ interrupts by setting the F-bit in the CPSR.
 448:Drivers/CMSIS/Include/cmsis_gcc.h ****            Can only be executed in Privileged modes.
 449:Drivers/CMSIS/Include/cmsis_gcc.h ****  */
 450:Drivers/CMSIS/Include/cmsis_gcc.h **** __STATIC_FORCEINLINE void __disable_fault_irq(void)
 451:Drivers/CMSIS/Include/cmsis_gcc.h **** {
 452:Drivers/CMSIS/Include/cmsis_gcc.h ****   __ASM volatile ("cpsid f" : : : "memory");
 453:Drivers/CMSIS/Include/cmsis_gcc.h **** }
 454:Drivers/CMSIS/Include/cmsis_gcc.h **** 
 455:Drivers/CMSIS/Include/cmsis_gcc.h **** 
 456:Drivers/CMSIS/Include/cmsis_gcc.h **** /**
 457:Drivers/CMSIS/Include/cmsis_gcc.h ****   \brief   Get Base Priority
 458:Drivers/CMSIS/Include/cmsis_gcc.h ****   \details Returns the current value of the Base Priority register.
 459:Drivers/CMSIS/Include/cmsis_gcc.h ****   \return               Base Priority register value
 460:Drivers/CMSIS/Include/cmsis_gcc.h ****  */
 461:Drivers/CMSIS/Include/cmsis_gcc.h **** __STATIC_FORCEINLINE uint32_t __get_BASEPRI(void)
 462:Drivers/CMSIS/Include/cmsis_gcc.h **** {
 463:Drivers/CMSIS/Include/cmsis_gcc.h ****   uint32_t result;
 464:Drivers/CMSIS/Include/cmsis_gcc.h **** 
 465:Drivers/CMSIS/Include/cmsis_gcc.h ****   __ASM volatile ("MRS %0, basepri" : "=r" (result) );
 466:Drivers/CMSIS/Include/cmsis_gcc.h ****   return(result);
 467:Drivers/CMSIS/Include/cmsis_gcc.h **** }
 468:Drivers/CMSIS/Include/cmsis_gcc.h **** 
 469:Drivers/CMSIS/Include/cmsis_gcc.h **** 
 470:Drivers/CMSIS/Include/cmsis_gcc.h **** #if (defined (__ARM_FEATURE_CMSE ) && (__ARM_FEATURE_CMSE == 3))
 471:Drivers/CMSIS/Include/cmsis_gcc.h **** /**
 472:Drivers/CMSIS/Include/cmsis_gcc.h ****   \brief   Get Base Priority (non-secure)
 473:Drivers/CMSIS/Include/cmsis_gcc.h ****   \details Returns the current value of the non-secure Base Priority register when in secure state.
 474:Drivers/CMSIS/Include/cmsis_gcc.h ****   \return               Base Priority register value
 475:Drivers/CMSIS/Include/cmsis_gcc.h ****  */
 476:Drivers/CMSIS/Include/cmsis_gcc.h **** __STATIC_FORCEINLINE uint32_t __TZ_get_BASEPRI_NS(void)
 477:Drivers/CMSIS/Include/cmsis_gcc.h **** {
 478:Drivers/CMSIS/Include/cmsis_gcc.h ****   uint32_t result;
 479:Drivers/CMSIS/Include/cmsis_gcc.h **** 
 480:Drivers/CMSIS/Include/cmsis_gcc.h ****   __ASM volatile ("MRS %0, basepri_ns" : "=r" (result) );
 481:Drivers/CMSIS/Include/cmsis_gcc.h ****   return(result);
 482:Drivers/CMSIS/Include/cmsis_gcc.h **** }
 483:Drivers/CMSIS/Include/cmsis_gcc.h **** #endif
 484:Drivers/CMSIS/Include/cmsis_gcc.h **** 
 485:Drivers/CMSIS/Include/cmsis_gcc.h **** 
 486:Drivers/CMSIS/Include/cmsis_gcc.h **** /**
 487:Drivers/CMSIS/Include/cmsis_gcc.h ****   \brief   Set Base Priority
 488:Drivers/CMSIS/Include/cmsis_gcc.h ****   \details Assigns the given value to the Base Priority register.
 489:Drivers/CMSIS/Include/cmsis_gcc.h ****   \param [in]    basePri  Base Priority value to set
 490:Drivers/CMSIS/Include/cmsis_gcc.h ****  */
 491:Drivers/CMSIS/Include/cmsis_gcc.h **** __STATIC_FORCEINLINE void __set_BASEPRI(uint32_t basePri)
 492:Drivers/CMSIS/Include/cmsis_gcc.h **** {
 493:Drivers/CMSIS/Include/cmsis_gcc.h ****   __ASM volatile ("MSR basepri, %0" : : "r" (basePri) : "memory");
 494:Drivers/CMSIS/Include/cmsis_gcc.h **** }
 495:Drivers/CMSIS/Include/cmsis_gcc.h **** 
 496:Drivers/CMSIS/Include/cmsis_gcc.h **** 
 497:Drivers/CMSIS/Include/cmsis_gcc.h **** #if (defined (__ARM_FEATURE_CMSE ) && (__ARM_FEATURE_CMSE == 3))
 498:Drivers/CMSIS/Include/cmsis_gcc.h **** /**
 499:Drivers/CMSIS/Include/cmsis_gcc.h ****   \brief   Set Base Priority (non-secure)
ARM GAS  /var/folders/n6/c271nzx11xl4r4_m7sqjlt0m0000gn/T//ccJ3qP4w.s 			page 13


 500:Drivers/CMSIS/Include/cmsis_gcc.h ****   \details Assigns the given value to the non-secure Base Priority register when in secure state.
 501:Drivers/CMSIS/Include/cmsis_gcc.h ****   \param [in]    basePri  Base Priority value to set
 502:Drivers/CMSIS/Include/cmsis_gcc.h ****  */
 503:Drivers/CMSIS/Include/cmsis_gcc.h **** __STATIC_FORCEINLINE void __TZ_set_BASEPRI_NS(uint32_t basePri)
 504:Drivers/CMSIS/Include/cmsis_gcc.h **** {
 505:Drivers/CMSIS/Include/cmsis_gcc.h ****   __ASM volatile ("MSR basepri_ns, %0" : : "r" (basePri) : "memory");
 506:Drivers/CMSIS/Include/cmsis_gcc.h **** }
 507:Drivers/CMSIS/Include/cmsis_gcc.h **** #endif
 508:Drivers/CMSIS/Include/cmsis_gcc.h **** 
 509:Drivers/CMSIS/Include/cmsis_gcc.h **** 
 510:Drivers/CMSIS/Include/cmsis_gcc.h **** /**
 511:Drivers/CMSIS/Include/cmsis_gcc.h ****   \brief   Set Base Priority with condition
 512:Drivers/CMSIS/Include/cmsis_gcc.h ****   \details Assigns the given value to the Base Priority register only if BASEPRI masking is disable
 513:Drivers/CMSIS/Include/cmsis_gcc.h ****            or the new value increases the BASEPRI priority level.
 514:Drivers/CMSIS/Include/cmsis_gcc.h ****   \param [in]    basePri  Base Priority value to set
 515:Drivers/CMSIS/Include/cmsis_gcc.h ****  */
 516:Drivers/CMSIS/Include/cmsis_gcc.h **** __STATIC_FORCEINLINE void __set_BASEPRI_MAX(uint32_t basePri)
 517:Drivers/CMSIS/Include/cmsis_gcc.h **** {
 518:Drivers/CMSIS/Include/cmsis_gcc.h ****   __ASM volatile ("MSR basepri_max, %0" : : "r" (basePri) : "memory");
 519:Drivers/CMSIS/Include/cmsis_gcc.h **** }
 520:Drivers/CMSIS/Include/cmsis_gcc.h **** 
 521:Drivers/CMSIS/Include/cmsis_gcc.h **** 
 522:Drivers/CMSIS/Include/cmsis_gcc.h **** /**
 523:Drivers/CMSIS/Include/cmsis_gcc.h ****   \brief   Get Fault Mask
 524:Drivers/CMSIS/Include/cmsis_gcc.h ****   \details Returns the current value of the Fault Mask register.
 525:Drivers/CMSIS/Include/cmsis_gcc.h ****   \return               Fault Mask register value
 526:Drivers/CMSIS/Include/cmsis_gcc.h ****  */
 527:Drivers/CMSIS/Include/cmsis_gcc.h **** __STATIC_FORCEINLINE uint32_t __get_FAULTMASK(void)
 528:Drivers/CMSIS/Include/cmsis_gcc.h **** {
 529:Drivers/CMSIS/Include/cmsis_gcc.h ****   uint32_t result;
 530:Drivers/CMSIS/Include/cmsis_gcc.h **** 
 531:Drivers/CMSIS/Include/cmsis_gcc.h ****   __ASM volatile ("MRS %0, faultmask" : "=r" (result) );
 532:Drivers/CMSIS/Include/cmsis_gcc.h ****   return(result);
 533:Drivers/CMSIS/Include/cmsis_gcc.h **** }
 534:Drivers/CMSIS/Include/cmsis_gcc.h **** 
 535:Drivers/CMSIS/Include/cmsis_gcc.h **** 
 536:Drivers/CMSIS/Include/cmsis_gcc.h **** #if (defined (__ARM_FEATURE_CMSE ) && (__ARM_FEATURE_CMSE == 3))
 537:Drivers/CMSIS/Include/cmsis_gcc.h **** /**
 538:Drivers/CMSIS/Include/cmsis_gcc.h ****   \brief   Get Fault Mask (non-secure)
 539:Drivers/CMSIS/Include/cmsis_gcc.h ****   \details Returns the current value of the non-secure Fault Mask register when in secure state.
 540:Drivers/CMSIS/Include/cmsis_gcc.h ****   \return               Fault Mask register value
 541:Drivers/CMSIS/Include/cmsis_gcc.h ****  */
 542:Drivers/CMSIS/Include/cmsis_gcc.h **** __STATIC_FORCEINLINE uint32_t __TZ_get_FAULTMASK_NS(void)
 543:Drivers/CMSIS/Include/cmsis_gcc.h **** {
 544:Drivers/CMSIS/Include/cmsis_gcc.h ****   uint32_t result;
 545:Drivers/CMSIS/Include/cmsis_gcc.h **** 
 546:Drivers/CMSIS/Include/cmsis_gcc.h ****   __ASM volatile ("MRS %0, faultmask_ns" : "=r" (result) );
 547:Drivers/CMSIS/Include/cmsis_gcc.h ****   return(result);
 548:Drivers/CMSIS/Include/cmsis_gcc.h **** }
 549:Drivers/CMSIS/Include/cmsis_gcc.h **** #endif
 550:Drivers/CMSIS/Include/cmsis_gcc.h **** 
 551:Drivers/CMSIS/Include/cmsis_gcc.h **** 
 552:Drivers/CMSIS/Include/cmsis_gcc.h **** /**
 553:Drivers/CMSIS/Include/cmsis_gcc.h ****   \brief   Set Fault Mask
 554:Drivers/CMSIS/Include/cmsis_gcc.h ****   \details Assigns the given value to the Fault Mask register.
 555:Drivers/CMSIS/Include/cmsis_gcc.h ****   \param [in]    faultMask  Fault Mask value to set
 556:Drivers/CMSIS/Include/cmsis_gcc.h ****  */
ARM GAS  /var/folders/n6/c271nzx11xl4r4_m7sqjlt0m0000gn/T//ccJ3qP4w.s 			page 14


 557:Drivers/CMSIS/Include/cmsis_gcc.h **** __STATIC_FORCEINLINE void __set_FAULTMASK(uint32_t faultMask)
 558:Drivers/CMSIS/Include/cmsis_gcc.h **** {
 559:Drivers/CMSIS/Include/cmsis_gcc.h ****   __ASM volatile ("MSR faultmask, %0" : : "r" (faultMask) : "memory");
 560:Drivers/CMSIS/Include/cmsis_gcc.h **** }
 561:Drivers/CMSIS/Include/cmsis_gcc.h **** 
 562:Drivers/CMSIS/Include/cmsis_gcc.h **** 
 563:Drivers/CMSIS/Include/cmsis_gcc.h **** #if (defined (__ARM_FEATURE_CMSE ) && (__ARM_FEATURE_CMSE == 3))
 564:Drivers/CMSIS/Include/cmsis_gcc.h **** /**
 565:Drivers/CMSIS/Include/cmsis_gcc.h ****   \brief   Set Fault Mask (non-secure)
 566:Drivers/CMSIS/Include/cmsis_gcc.h ****   \details Assigns the given value to the non-secure Fault Mask register when in secure state.
 567:Drivers/CMSIS/Include/cmsis_gcc.h ****   \param [in]    faultMask  Fault Mask value to set
 568:Drivers/CMSIS/Include/cmsis_gcc.h ****  */
 569:Drivers/CMSIS/Include/cmsis_gcc.h **** __STATIC_FORCEINLINE void __TZ_set_FAULTMASK_NS(uint32_t faultMask)
 570:Drivers/CMSIS/Include/cmsis_gcc.h **** {
 571:Drivers/CMSIS/Include/cmsis_gcc.h ****   __ASM volatile ("MSR faultmask_ns, %0" : : "r" (faultMask) : "memory");
 572:Drivers/CMSIS/Include/cmsis_gcc.h **** }
 573:Drivers/CMSIS/Include/cmsis_gcc.h **** #endif
 574:Drivers/CMSIS/Include/cmsis_gcc.h **** 
 575:Drivers/CMSIS/Include/cmsis_gcc.h **** #endif /* ((defined (__ARM_ARCH_7M__      ) && (__ARM_ARCH_7M__      == 1)) || \
 576:Drivers/CMSIS/Include/cmsis_gcc.h ****            (defined (__ARM_ARCH_7EM__     ) && (__ARM_ARCH_7EM__     == 1)) || \
 577:Drivers/CMSIS/Include/cmsis_gcc.h ****            (defined (__ARM_ARCH_8M_MAIN__ ) && (__ARM_ARCH_8M_MAIN__ == 1))    ) */
 578:Drivers/CMSIS/Include/cmsis_gcc.h **** 
 579:Drivers/CMSIS/Include/cmsis_gcc.h **** 
 580:Drivers/CMSIS/Include/cmsis_gcc.h **** #if ((defined (__ARM_ARCH_8M_MAIN__ ) && (__ARM_ARCH_8M_MAIN__ == 1)) || \
 581:Drivers/CMSIS/Include/cmsis_gcc.h ****      (defined (__ARM_ARCH_8M_BASE__ ) && (__ARM_ARCH_8M_BASE__ == 1))    )
 582:Drivers/CMSIS/Include/cmsis_gcc.h **** 
 583:Drivers/CMSIS/Include/cmsis_gcc.h **** /**
 584:Drivers/CMSIS/Include/cmsis_gcc.h ****   \brief   Get Process Stack Pointer Limit
 585:Drivers/CMSIS/Include/cmsis_gcc.h ****   Devices without ARMv8-M Main Extensions (i.e. Cortex-M23) lack the non-secure
 586:Drivers/CMSIS/Include/cmsis_gcc.h ****   Stack Pointer Limit register hence zero is returned always in non-secure
 587:Drivers/CMSIS/Include/cmsis_gcc.h ****   mode.
 588:Drivers/CMSIS/Include/cmsis_gcc.h ****   
 589:Drivers/CMSIS/Include/cmsis_gcc.h ****   \details Returns the current value of the Process Stack Pointer Limit (PSPLIM).
 590:Drivers/CMSIS/Include/cmsis_gcc.h ****   \return               PSPLIM Register value
 591:Drivers/CMSIS/Include/cmsis_gcc.h ****  */
 592:Drivers/CMSIS/Include/cmsis_gcc.h **** __STATIC_FORCEINLINE uint32_t __get_PSPLIM(void)
 593:Drivers/CMSIS/Include/cmsis_gcc.h **** {
 594:Drivers/CMSIS/Include/cmsis_gcc.h **** #if (!(defined (__ARM_ARCH_8M_MAIN__ ) && (__ARM_ARCH_8M_MAIN__ == 1)) && \
 595:Drivers/CMSIS/Include/cmsis_gcc.h ****     (!defined (__ARM_FEATURE_CMSE) || (__ARM_FEATURE_CMSE < 3)))
 596:Drivers/CMSIS/Include/cmsis_gcc.h ****     // without main extensions, the non-secure PSPLIM is RAZ/WI
 597:Drivers/CMSIS/Include/cmsis_gcc.h ****   return 0U;
 598:Drivers/CMSIS/Include/cmsis_gcc.h **** #else
 599:Drivers/CMSIS/Include/cmsis_gcc.h ****   uint32_t result;
 600:Drivers/CMSIS/Include/cmsis_gcc.h ****   __ASM volatile ("MRS %0, psplim"  : "=r" (result) );
 601:Drivers/CMSIS/Include/cmsis_gcc.h ****   return result;
 602:Drivers/CMSIS/Include/cmsis_gcc.h **** #endif
 603:Drivers/CMSIS/Include/cmsis_gcc.h **** }
 604:Drivers/CMSIS/Include/cmsis_gcc.h **** 
 605:Drivers/CMSIS/Include/cmsis_gcc.h **** #if (defined (__ARM_FEATURE_CMSE) && (__ARM_FEATURE_CMSE == 3))
 606:Drivers/CMSIS/Include/cmsis_gcc.h **** /**
 607:Drivers/CMSIS/Include/cmsis_gcc.h ****   \brief   Get Process Stack Pointer Limit (non-secure)
 608:Drivers/CMSIS/Include/cmsis_gcc.h ****   Devices without ARMv8-M Main Extensions (i.e. Cortex-M23) lack the non-secure
 609:Drivers/CMSIS/Include/cmsis_gcc.h ****   Stack Pointer Limit register hence zero is returned always.
 610:Drivers/CMSIS/Include/cmsis_gcc.h **** 
 611:Drivers/CMSIS/Include/cmsis_gcc.h ****   \details Returns the current value of the non-secure Process Stack Pointer Limit (PSPLIM) when in
 612:Drivers/CMSIS/Include/cmsis_gcc.h ****   \return               PSPLIM Register value
 613:Drivers/CMSIS/Include/cmsis_gcc.h ****  */
ARM GAS  /var/folders/n6/c271nzx11xl4r4_m7sqjlt0m0000gn/T//ccJ3qP4w.s 			page 15


 614:Drivers/CMSIS/Include/cmsis_gcc.h **** __STATIC_FORCEINLINE uint32_t __TZ_get_PSPLIM_NS(void)
 615:Drivers/CMSIS/Include/cmsis_gcc.h **** {
 616:Drivers/CMSIS/Include/cmsis_gcc.h **** #if (!(defined (__ARM_ARCH_8M_MAIN__ ) && (__ARM_ARCH_8M_MAIN__ == 1)))
 617:Drivers/CMSIS/Include/cmsis_gcc.h ****   // without main extensions, the non-secure PSPLIM is RAZ/WI
 618:Drivers/CMSIS/Include/cmsis_gcc.h ****   return 0U;
 619:Drivers/CMSIS/Include/cmsis_gcc.h **** #else
 620:Drivers/CMSIS/Include/cmsis_gcc.h ****   uint32_t result;
 621:Drivers/CMSIS/Include/cmsis_gcc.h ****   __ASM volatile ("MRS %0, psplim_ns"  : "=r" (result) );
 622:Drivers/CMSIS/Include/cmsis_gcc.h ****   return result;
 623:Drivers/CMSIS/Include/cmsis_gcc.h **** #endif
 624:Drivers/CMSIS/Include/cmsis_gcc.h **** }
 625:Drivers/CMSIS/Include/cmsis_gcc.h **** #endif
 626:Drivers/CMSIS/Include/cmsis_gcc.h **** 
 627:Drivers/CMSIS/Include/cmsis_gcc.h **** 
 628:Drivers/CMSIS/Include/cmsis_gcc.h **** /**
 629:Drivers/CMSIS/Include/cmsis_gcc.h ****   \brief   Set Process Stack Pointer Limit
 630:Drivers/CMSIS/Include/cmsis_gcc.h ****   Devices without ARMv8-M Main Extensions (i.e. Cortex-M23) lack the non-secure
 631:Drivers/CMSIS/Include/cmsis_gcc.h ****   Stack Pointer Limit register hence the write is silently ignored in non-secure
 632:Drivers/CMSIS/Include/cmsis_gcc.h ****   mode.
 633:Drivers/CMSIS/Include/cmsis_gcc.h ****   
 634:Drivers/CMSIS/Include/cmsis_gcc.h ****   \details Assigns the given value to the Process Stack Pointer Limit (PSPLIM).
 635:Drivers/CMSIS/Include/cmsis_gcc.h ****   \param [in]    ProcStackPtrLimit  Process Stack Pointer Limit value to set
 636:Drivers/CMSIS/Include/cmsis_gcc.h ****  */
 637:Drivers/CMSIS/Include/cmsis_gcc.h **** __STATIC_FORCEINLINE void __set_PSPLIM(uint32_t ProcStackPtrLimit)
 638:Drivers/CMSIS/Include/cmsis_gcc.h **** {
 639:Drivers/CMSIS/Include/cmsis_gcc.h **** #if (!(defined (__ARM_ARCH_8M_MAIN__ ) && (__ARM_ARCH_8M_MAIN__ == 1)) && \
 640:Drivers/CMSIS/Include/cmsis_gcc.h ****     (!defined (__ARM_FEATURE_CMSE) || (__ARM_FEATURE_CMSE < 3)))
 641:Drivers/CMSIS/Include/cmsis_gcc.h ****   // without main extensions, the non-secure PSPLIM is RAZ/WI
 642:Drivers/CMSIS/Include/cmsis_gcc.h ****   (void)ProcStackPtrLimit;
 643:Drivers/CMSIS/Include/cmsis_gcc.h **** #else
 644:Drivers/CMSIS/Include/cmsis_gcc.h ****   __ASM volatile ("MSR psplim, %0" : : "r" (ProcStackPtrLimit));
 645:Drivers/CMSIS/Include/cmsis_gcc.h **** #endif
 646:Drivers/CMSIS/Include/cmsis_gcc.h **** }
 647:Drivers/CMSIS/Include/cmsis_gcc.h **** 
 648:Drivers/CMSIS/Include/cmsis_gcc.h **** 
 649:Drivers/CMSIS/Include/cmsis_gcc.h **** #if (defined (__ARM_FEATURE_CMSE  ) && (__ARM_FEATURE_CMSE   == 3))
 650:Drivers/CMSIS/Include/cmsis_gcc.h **** /**
 651:Drivers/CMSIS/Include/cmsis_gcc.h ****   \brief   Set Process Stack Pointer (non-secure)
 652:Drivers/CMSIS/Include/cmsis_gcc.h ****   Devices without ARMv8-M Main Extensions (i.e. Cortex-M23) lack the non-secure
 653:Drivers/CMSIS/Include/cmsis_gcc.h ****   Stack Pointer Limit register hence the write is silently ignored.
 654:Drivers/CMSIS/Include/cmsis_gcc.h **** 
 655:Drivers/CMSIS/Include/cmsis_gcc.h ****   \details Assigns the given value to the non-secure Process Stack Pointer Limit (PSPLIM) when in s
 656:Drivers/CMSIS/Include/cmsis_gcc.h ****   \param [in]    ProcStackPtrLimit  Process Stack Pointer Limit value to set
 657:Drivers/CMSIS/Include/cmsis_gcc.h ****  */
 658:Drivers/CMSIS/Include/cmsis_gcc.h **** __STATIC_FORCEINLINE void __TZ_set_PSPLIM_NS(uint32_t ProcStackPtrLimit)
 659:Drivers/CMSIS/Include/cmsis_gcc.h **** {
 660:Drivers/CMSIS/Include/cmsis_gcc.h **** #if (!(defined (__ARM_ARCH_8M_MAIN__ ) && (__ARM_ARCH_8M_MAIN__ == 1)))
 661:Drivers/CMSIS/Include/cmsis_gcc.h ****   // without main extensions, the non-secure PSPLIM is RAZ/WI
 662:Drivers/CMSIS/Include/cmsis_gcc.h ****   (void)ProcStackPtrLimit;
 663:Drivers/CMSIS/Include/cmsis_gcc.h **** #else
 664:Drivers/CMSIS/Include/cmsis_gcc.h ****   __ASM volatile ("MSR psplim_ns, %0\n" : : "r" (ProcStackPtrLimit));
 665:Drivers/CMSIS/Include/cmsis_gcc.h **** #endif
 666:Drivers/CMSIS/Include/cmsis_gcc.h **** }
 667:Drivers/CMSIS/Include/cmsis_gcc.h **** #endif
 668:Drivers/CMSIS/Include/cmsis_gcc.h **** 
 669:Drivers/CMSIS/Include/cmsis_gcc.h **** 
 670:Drivers/CMSIS/Include/cmsis_gcc.h **** /**
ARM GAS  /var/folders/n6/c271nzx11xl4r4_m7sqjlt0m0000gn/T//ccJ3qP4w.s 			page 16


 671:Drivers/CMSIS/Include/cmsis_gcc.h ****   \brief   Get Main Stack Pointer Limit
 672:Drivers/CMSIS/Include/cmsis_gcc.h ****   Devices without ARMv8-M Main Extensions (i.e. Cortex-M23) lack the non-secure
 673:Drivers/CMSIS/Include/cmsis_gcc.h ****   Stack Pointer Limit register hence zero is returned always in non-secure
 674:Drivers/CMSIS/Include/cmsis_gcc.h ****   mode.
 675:Drivers/CMSIS/Include/cmsis_gcc.h **** 
 676:Drivers/CMSIS/Include/cmsis_gcc.h ****   \details Returns the current value of the Main Stack Pointer Limit (MSPLIM).
 677:Drivers/CMSIS/Include/cmsis_gcc.h ****   \return               MSPLIM Register value
 678:Drivers/CMSIS/Include/cmsis_gcc.h ****  */
 679:Drivers/CMSIS/Include/cmsis_gcc.h **** __STATIC_FORCEINLINE uint32_t __get_MSPLIM(void)
 680:Drivers/CMSIS/Include/cmsis_gcc.h **** {
 681:Drivers/CMSIS/Include/cmsis_gcc.h **** #if (!(defined (__ARM_ARCH_8M_MAIN__ ) && (__ARM_ARCH_8M_MAIN__ == 1)) && \
 682:Drivers/CMSIS/Include/cmsis_gcc.h ****     (!defined (__ARM_FEATURE_CMSE) || (__ARM_FEATURE_CMSE < 3)))
 683:Drivers/CMSIS/Include/cmsis_gcc.h ****   // without main extensions, the non-secure MSPLIM is RAZ/WI
 684:Drivers/CMSIS/Include/cmsis_gcc.h ****   return 0U;
 685:Drivers/CMSIS/Include/cmsis_gcc.h **** #else
 686:Drivers/CMSIS/Include/cmsis_gcc.h ****   uint32_t result;
 687:Drivers/CMSIS/Include/cmsis_gcc.h ****   __ASM volatile ("MRS %0, msplim" : "=r" (result) );
 688:Drivers/CMSIS/Include/cmsis_gcc.h ****   return result;
 689:Drivers/CMSIS/Include/cmsis_gcc.h **** #endif
 690:Drivers/CMSIS/Include/cmsis_gcc.h **** }
 691:Drivers/CMSIS/Include/cmsis_gcc.h **** 
 692:Drivers/CMSIS/Include/cmsis_gcc.h **** 
 693:Drivers/CMSIS/Include/cmsis_gcc.h **** #if (defined (__ARM_FEATURE_CMSE  ) && (__ARM_FEATURE_CMSE   == 3))
 694:Drivers/CMSIS/Include/cmsis_gcc.h **** /**
 695:Drivers/CMSIS/Include/cmsis_gcc.h ****   \brief   Get Main Stack Pointer Limit (non-secure)
 696:Drivers/CMSIS/Include/cmsis_gcc.h ****   Devices without ARMv8-M Main Extensions (i.e. Cortex-M23) lack the non-secure
 697:Drivers/CMSIS/Include/cmsis_gcc.h ****   Stack Pointer Limit register hence zero is returned always.
 698:Drivers/CMSIS/Include/cmsis_gcc.h **** 
 699:Drivers/CMSIS/Include/cmsis_gcc.h ****   \details Returns the current value of the non-secure Main Stack Pointer Limit(MSPLIM) when in sec
 700:Drivers/CMSIS/Include/cmsis_gcc.h ****   \return               MSPLIM Register value
 701:Drivers/CMSIS/Include/cmsis_gcc.h ****  */
 702:Drivers/CMSIS/Include/cmsis_gcc.h **** __STATIC_FORCEINLINE uint32_t __TZ_get_MSPLIM_NS(void)
 703:Drivers/CMSIS/Include/cmsis_gcc.h **** {
 704:Drivers/CMSIS/Include/cmsis_gcc.h **** #if (!(defined (__ARM_ARCH_8M_MAIN__ ) && (__ARM_ARCH_8M_MAIN__ == 1)))
 705:Drivers/CMSIS/Include/cmsis_gcc.h ****   // without main extensions, the non-secure MSPLIM is RAZ/WI
 706:Drivers/CMSIS/Include/cmsis_gcc.h ****   return 0U;
 707:Drivers/CMSIS/Include/cmsis_gcc.h **** #else
 708:Drivers/CMSIS/Include/cmsis_gcc.h ****   uint32_t result;
 709:Drivers/CMSIS/Include/cmsis_gcc.h ****   __ASM volatile ("MRS %0, msplim_ns" : "=r" (result) );
 710:Drivers/CMSIS/Include/cmsis_gcc.h ****   return result;
 711:Drivers/CMSIS/Include/cmsis_gcc.h **** #endif
 712:Drivers/CMSIS/Include/cmsis_gcc.h **** }
 713:Drivers/CMSIS/Include/cmsis_gcc.h **** #endif
 714:Drivers/CMSIS/Include/cmsis_gcc.h **** 
 715:Drivers/CMSIS/Include/cmsis_gcc.h **** 
 716:Drivers/CMSIS/Include/cmsis_gcc.h **** /**
 717:Drivers/CMSIS/Include/cmsis_gcc.h ****   \brief   Set Main Stack Pointer Limit
 718:Drivers/CMSIS/Include/cmsis_gcc.h ****   Devices without ARMv8-M Main Extensions (i.e. Cortex-M23) lack the non-secure
 719:Drivers/CMSIS/Include/cmsis_gcc.h ****   Stack Pointer Limit register hence the write is silently ignored in non-secure
 720:Drivers/CMSIS/Include/cmsis_gcc.h ****   mode.
 721:Drivers/CMSIS/Include/cmsis_gcc.h **** 
 722:Drivers/CMSIS/Include/cmsis_gcc.h ****   \details Assigns the given value to the Main Stack Pointer Limit (MSPLIM).
 723:Drivers/CMSIS/Include/cmsis_gcc.h ****   \param [in]    MainStackPtrLimit  Main Stack Pointer Limit value to set
 724:Drivers/CMSIS/Include/cmsis_gcc.h ****  */
 725:Drivers/CMSIS/Include/cmsis_gcc.h **** __STATIC_FORCEINLINE void __set_MSPLIM(uint32_t MainStackPtrLimit)
 726:Drivers/CMSIS/Include/cmsis_gcc.h **** {
 727:Drivers/CMSIS/Include/cmsis_gcc.h **** #if (!(defined (__ARM_ARCH_8M_MAIN__ ) && (__ARM_ARCH_8M_MAIN__ == 1)) && \
ARM GAS  /var/folders/n6/c271nzx11xl4r4_m7sqjlt0m0000gn/T//ccJ3qP4w.s 			page 17


 728:Drivers/CMSIS/Include/cmsis_gcc.h ****     (!defined (__ARM_FEATURE_CMSE) || (__ARM_FEATURE_CMSE < 3)))
 729:Drivers/CMSIS/Include/cmsis_gcc.h ****   // without main extensions, the non-secure MSPLIM is RAZ/WI
 730:Drivers/CMSIS/Include/cmsis_gcc.h ****   (void)MainStackPtrLimit;
 731:Drivers/CMSIS/Include/cmsis_gcc.h **** #else
 732:Drivers/CMSIS/Include/cmsis_gcc.h ****   __ASM volatile ("MSR msplim, %0" : : "r" (MainStackPtrLimit));
 733:Drivers/CMSIS/Include/cmsis_gcc.h **** #endif
 734:Drivers/CMSIS/Include/cmsis_gcc.h **** }
 735:Drivers/CMSIS/Include/cmsis_gcc.h **** 
 736:Drivers/CMSIS/Include/cmsis_gcc.h **** 
 737:Drivers/CMSIS/Include/cmsis_gcc.h **** #if (defined (__ARM_FEATURE_CMSE  ) && (__ARM_FEATURE_CMSE   == 3))
 738:Drivers/CMSIS/Include/cmsis_gcc.h **** /**
 739:Drivers/CMSIS/Include/cmsis_gcc.h ****   \brief   Set Main Stack Pointer Limit (non-secure)
 740:Drivers/CMSIS/Include/cmsis_gcc.h ****   Devices without ARMv8-M Main Extensions (i.e. Cortex-M23) lack the non-secure
 741:Drivers/CMSIS/Include/cmsis_gcc.h ****   Stack Pointer Limit register hence the write is silently ignored.
 742:Drivers/CMSIS/Include/cmsis_gcc.h **** 
 743:Drivers/CMSIS/Include/cmsis_gcc.h ****   \details Assigns the given value to the non-secure Main Stack Pointer Limit (MSPLIM) when in secu
 744:Drivers/CMSIS/Include/cmsis_gcc.h ****   \param [in]    MainStackPtrLimit  Main Stack Pointer value to set
 745:Drivers/CMSIS/Include/cmsis_gcc.h ****  */
 746:Drivers/CMSIS/Include/cmsis_gcc.h **** __STATIC_FORCEINLINE void __TZ_set_MSPLIM_NS(uint32_t MainStackPtrLimit)
 747:Drivers/CMSIS/Include/cmsis_gcc.h **** {
 748:Drivers/CMSIS/Include/cmsis_gcc.h **** #if (!(defined (__ARM_ARCH_8M_MAIN__ ) && (__ARM_ARCH_8M_MAIN__ == 1)))
 749:Drivers/CMSIS/Include/cmsis_gcc.h ****   // without main extensions, the non-secure MSPLIM is RAZ/WI
 750:Drivers/CMSIS/Include/cmsis_gcc.h ****   (void)MainStackPtrLimit;
 751:Drivers/CMSIS/Include/cmsis_gcc.h **** #else
 752:Drivers/CMSIS/Include/cmsis_gcc.h ****   __ASM volatile ("MSR msplim_ns, %0" : : "r" (MainStackPtrLimit));
 753:Drivers/CMSIS/Include/cmsis_gcc.h **** #endif
 754:Drivers/CMSIS/Include/cmsis_gcc.h **** }
 755:Drivers/CMSIS/Include/cmsis_gcc.h **** #endif
 756:Drivers/CMSIS/Include/cmsis_gcc.h **** 
 757:Drivers/CMSIS/Include/cmsis_gcc.h **** #endif /* ((defined (__ARM_ARCH_8M_MAIN__ ) && (__ARM_ARCH_8M_MAIN__ == 1)) || \
 758:Drivers/CMSIS/Include/cmsis_gcc.h ****            (defined (__ARM_ARCH_8M_BASE__ ) && (__ARM_ARCH_8M_BASE__ == 1))    ) */
 759:Drivers/CMSIS/Include/cmsis_gcc.h **** 
 760:Drivers/CMSIS/Include/cmsis_gcc.h **** 
 761:Drivers/CMSIS/Include/cmsis_gcc.h **** /**
 762:Drivers/CMSIS/Include/cmsis_gcc.h ****   \brief   Get FPSCR
 763:Drivers/CMSIS/Include/cmsis_gcc.h ****   \details Returns the current value of the Floating Point Status/Control register.
 764:Drivers/CMSIS/Include/cmsis_gcc.h ****   \return               Floating Point Status/Control register value
 765:Drivers/CMSIS/Include/cmsis_gcc.h ****  */
 766:Drivers/CMSIS/Include/cmsis_gcc.h **** __STATIC_FORCEINLINE uint32_t __get_FPSCR(void)
 767:Drivers/CMSIS/Include/cmsis_gcc.h **** {
 768:Drivers/CMSIS/Include/cmsis_gcc.h **** #if ((defined (__FPU_PRESENT) && (__FPU_PRESENT == 1U)) && \
 769:Drivers/CMSIS/Include/cmsis_gcc.h ****      (defined (__FPU_USED   ) && (__FPU_USED    == 1U))     )
 770:Drivers/CMSIS/Include/cmsis_gcc.h **** #if __has_builtin(__builtin_arm_get_fpscr) 
 771:Drivers/CMSIS/Include/cmsis_gcc.h **** // Re-enable using built-in when GCC has been fixed
 772:Drivers/CMSIS/Include/cmsis_gcc.h **** // || (__GNUC__ > 7) || (__GNUC__ == 7 && __GNUC_MINOR__ >= 2)
 773:Drivers/CMSIS/Include/cmsis_gcc.h ****   /* see https://gcc.gnu.org/ml/gcc-patches/2017-04/msg00443.html */
 774:Drivers/CMSIS/Include/cmsis_gcc.h ****   return __builtin_arm_get_fpscr();
 775:Drivers/CMSIS/Include/cmsis_gcc.h **** #else
 776:Drivers/CMSIS/Include/cmsis_gcc.h ****   uint32_t result;
 777:Drivers/CMSIS/Include/cmsis_gcc.h **** 
 778:Drivers/CMSIS/Include/cmsis_gcc.h ****   __ASM volatile ("VMRS %0, fpscr" : "=r" (result) );
 779:Drivers/CMSIS/Include/cmsis_gcc.h ****   return(result);
 780:Drivers/CMSIS/Include/cmsis_gcc.h **** #endif
 781:Drivers/CMSIS/Include/cmsis_gcc.h **** #else
 782:Drivers/CMSIS/Include/cmsis_gcc.h ****   return(0U);
 783:Drivers/CMSIS/Include/cmsis_gcc.h **** #endif
 784:Drivers/CMSIS/Include/cmsis_gcc.h **** }
ARM GAS  /var/folders/n6/c271nzx11xl4r4_m7sqjlt0m0000gn/T//ccJ3qP4w.s 			page 18


 785:Drivers/CMSIS/Include/cmsis_gcc.h **** 
 786:Drivers/CMSIS/Include/cmsis_gcc.h **** 
 787:Drivers/CMSIS/Include/cmsis_gcc.h **** /**
 788:Drivers/CMSIS/Include/cmsis_gcc.h ****   \brief   Set FPSCR
 789:Drivers/CMSIS/Include/cmsis_gcc.h ****   \details Assigns the given value to the Floating Point Status/Control register.
 790:Drivers/CMSIS/Include/cmsis_gcc.h ****   \param [in]    fpscr  Floating Point Status/Control value to set
 791:Drivers/CMSIS/Include/cmsis_gcc.h ****  */
 792:Drivers/CMSIS/Include/cmsis_gcc.h **** __STATIC_FORCEINLINE void __set_FPSCR(uint32_t fpscr)
 793:Drivers/CMSIS/Include/cmsis_gcc.h **** {
 794:Drivers/CMSIS/Include/cmsis_gcc.h **** #if ((defined (__FPU_PRESENT) && (__FPU_PRESENT == 1U)) && \
 795:Drivers/CMSIS/Include/cmsis_gcc.h ****      (defined (__FPU_USED   ) && (__FPU_USED    == 1U))     )
 796:Drivers/CMSIS/Include/cmsis_gcc.h **** #if __has_builtin(__builtin_arm_set_fpscr)
 797:Drivers/CMSIS/Include/cmsis_gcc.h **** // Re-enable using built-in when GCC has been fixed
 798:Drivers/CMSIS/Include/cmsis_gcc.h **** // || (__GNUC__ > 7) || (__GNUC__ == 7 && __GNUC_MINOR__ >= 2)
 799:Drivers/CMSIS/Include/cmsis_gcc.h ****   /* see https://gcc.gnu.org/ml/gcc-patches/2017-04/msg00443.html */
 800:Drivers/CMSIS/Include/cmsis_gcc.h ****   __builtin_arm_set_fpscr(fpscr);
 801:Drivers/CMSIS/Include/cmsis_gcc.h **** #else
 802:Drivers/CMSIS/Include/cmsis_gcc.h ****   __ASM volatile ("VMSR fpscr, %0" : : "r" (fpscr) : "vfpcc", "memory");
 803:Drivers/CMSIS/Include/cmsis_gcc.h **** #endif
 804:Drivers/CMSIS/Include/cmsis_gcc.h **** #else
 805:Drivers/CMSIS/Include/cmsis_gcc.h ****   (void)fpscr;
 806:Drivers/CMSIS/Include/cmsis_gcc.h **** #endif
 807:Drivers/CMSIS/Include/cmsis_gcc.h **** }
 808:Drivers/CMSIS/Include/cmsis_gcc.h **** 
 809:Drivers/CMSIS/Include/cmsis_gcc.h **** 
 810:Drivers/CMSIS/Include/cmsis_gcc.h **** /*@} end of CMSIS_Core_RegAccFunctions */
 811:Drivers/CMSIS/Include/cmsis_gcc.h **** 
 812:Drivers/CMSIS/Include/cmsis_gcc.h **** 
 813:Drivers/CMSIS/Include/cmsis_gcc.h **** /* ##########################  Core Instruction Access  ######################### */
 814:Drivers/CMSIS/Include/cmsis_gcc.h **** /** \defgroup CMSIS_Core_InstructionInterface CMSIS Core Instruction Interface
 815:Drivers/CMSIS/Include/cmsis_gcc.h ****   Access to dedicated instructions
 816:Drivers/CMSIS/Include/cmsis_gcc.h ****   @{
 817:Drivers/CMSIS/Include/cmsis_gcc.h **** */
 818:Drivers/CMSIS/Include/cmsis_gcc.h **** 
 819:Drivers/CMSIS/Include/cmsis_gcc.h **** /* Define macros for porting to both thumb1 and thumb2.
 820:Drivers/CMSIS/Include/cmsis_gcc.h ****  * For thumb1, use low register (r0-r7), specified by constraint "l"
 821:Drivers/CMSIS/Include/cmsis_gcc.h ****  * Otherwise, use general registers, specified by constraint "r" */
 822:Drivers/CMSIS/Include/cmsis_gcc.h **** #if defined (__thumb__) && !defined (__thumb2__)
 823:Drivers/CMSIS/Include/cmsis_gcc.h **** #define __CMSIS_GCC_OUT_REG(r) "=l" (r)
 824:Drivers/CMSIS/Include/cmsis_gcc.h **** #define __CMSIS_GCC_RW_REG(r) "+l" (r)
 825:Drivers/CMSIS/Include/cmsis_gcc.h **** #define __CMSIS_GCC_USE_REG(r) "l" (r)
 826:Drivers/CMSIS/Include/cmsis_gcc.h **** #else
 827:Drivers/CMSIS/Include/cmsis_gcc.h **** #define __CMSIS_GCC_OUT_REG(r) "=r" (r)
 828:Drivers/CMSIS/Include/cmsis_gcc.h **** #define __CMSIS_GCC_RW_REG(r) "+r" (r)
 829:Drivers/CMSIS/Include/cmsis_gcc.h **** #define __CMSIS_GCC_USE_REG(r) "r" (r)
 830:Drivers/CMSIS/Include/cmsis_gcc.h **** #endif
 831:Drivers/CMSIS/Include/cmsis_gcc.h **** 
 832:Drivers/CMSIS/Include/cmsis_gcc.h **** /**
 833:Drivers/CMSIS/Include/cmsis_gcc.h ****   \brief   No Operation
 834:Drivers/CMSIS/Include/cmsis_gcc.h ****   \details No Operation does nothing. This instruction can be used for code alignment purposes.
 835:Drivers/CMSIS/Include/cmsis_gcc.h ****  */
 836:Drivers/CMSIS/Include/cmsis_gcc.h **** #define __NOP()                             __ASM volatile ("nop")
 837:Drivers/CMSIS/Include/cmsis_gcc.h **** 
 838:Drivers/CMSIS/Include/cmsis_gcc.h **** /**
 839:Drivers/CMSIS/Include/cmsis_gcc.h ****   \brief   Wait For Interrupt
 840:Drivers/CMSIS/Include/cmsis_gcc.h ****   \details Wait For Interrupt is a hint instruction that suspends execution until one of a number o
 841:Drivers/CMSIS/Include/cmsis_gcc.h ****  */
ARM GAS  /var/folders/n6/c271nzx11xl4r4_m7sqjlt0m0000gn/T//ccJ3qP4w.s 			page 19


 842:Drivers/CMSIS/Include/cmsis_gcc.h **** #define __WFI()                             __ASM volatile ("wfi")
 843:Drivers/CMSIS/Include/cmsis_gcc.h **** 
 844:Drivers/CMSIS/Include/cmsis_gcc.h **** 
 845:Drivers/CMSIS/Include/cmsis_gcc.h **** /**
 846:Drivers/CMSIS/Include/cmsis_gcc.h ****   \brief   Wait For Event
 847:Drivers/CMSIS/Include/cmsis_gcc.h ****   \details Wait For Event is a hint instruction that permits the processor to enter
 848:Drivers/CMSIS/Include/cmsis_gcc.h ****            a low-power state until one of a number of events occurs.
 849:Drivers/CMSIS/Include/cmsis_gcc.h ****  */
 850:Drivers/CMSIS/Include/cmsis_gcc.h **** #define __WFE()                             __ASM volatile ("wfe")
 851:Drivers/CMSIS/Include/cmsis_gcc.h **** 
 852:Drivers/CMSIS/Include/cmsis_gcc.h **** 
 853:Drivers/CMSIS/Include/cmsis_gcc.h **** /**
 854:Drivers/CMSIS/Include/cmsis_gcc.h ****   \brief   Send Event
 855:Drivers/CMSIS/Include/cmsis_gcc.h ****   \details Send Event is a hint instruction. It causes an event to be signaled to the CPU.
 856:Drivers/CMSIS/Include/cmsis_gcc.h ****  */
 857:Drivers/CMSIS/Include/cmsis_gcc.h **** #define __SEV()                             __ASM volatile ("sev")
 858:Drivers/CMSIS/Include/cmsis_gcc.h **** 
 859:Drivers/CMSIS/Include/cmsis_gcc.h **** 
 860:Drivers/CMSIS/Include/cmsis_gcc.h **** /**
 861:Drivers/CMSIS/Include/cmsis_gcc.h ****   \brief   Instruction Synchronization Barrier
 862:Drivers/CMSIS/Include/cmsis_gcc.h ****   \details Instruction Synchronization Barrier flushes the pipeline in the processor,
 863:Drivers/CMSIS/Include/cmsis_gcc.h ****            so that all instructions following the ISB are fetched from cache or memory,
 864:Drivers/CMSIS/Include/cmsis_gcc.h ****            after the instruction has been completed.
 865:Drivers/CMSIS/Include/cmsis_gcc.h ****  */
 866:Drivers/CMSIS/Include/cmsis_gcc.h **** __STATIC_FORCEINLINE void __ISB(void)
 867:Drivers/CMSIS/Include/cmsis_gcc.h **** {
 868:Drivers/CMSIS/Include/cmsis_gcc.h ****   __ASM volatile ("isb 0xF":::"memory");
 869:Drivers/CMSIS/Include/cmsis_gcc.h **** }
 870:Drivers/CMSIS/Include/cmsis_gcc.h **** 
 871:Drivers/CMSIS/Include/cmsis_gcc.h **** 
 872:Drivers/CMSIS/Include/cmsis_gcc.h **** /**
 873:Drivers/CMSIS/Include/cmsis_gcc.h ****   \brief   Data Synchronization Barrier
 874:Drivers/CMSIS/Include/cmsis_gcc.h ****   \details Acts as a special kind of Data Memory Barrier.
 875:Drivers/CMSIS/Include/cmsis_gcc.h ****            It completes when all explicit memory accesses before this instruction complete.
 876:Drivers/CMSIS/Include/cmsis_gcc.h ****  */
 877:Drivers/CMSIS/Include/cmsis_gcc.h **** __STATIC_FORCEINLINE void __DSB(void)
 878:Drivers/CMSIS/Include/cmsis_gcc.h **** {
 879:Drivers/CMSIS/Include/cmsis_gcc.h ****   __ASM volatile ("dsb 0xF":::"memory");
 880:Drivers/CMSIS/Include/cmsis_gcc.h **** }
 881:Drivers/CMSIS/Include/cmsis_gcc.h **** 
 882:Drivers/CMSIS/Include/cmsis_gcc.h **** 
 883:Drivers/CMSIS/Include/cmsis_gcc.h **** /**
 884:Drivers/CMSIS/Include/cmsis_gcc.h ****   \brief   Data Memory Barrier
 885:Drivers/CMSIS/Include/cmsis_gcc.h ****   \details Ensures the apparent order of the explicit memory operations before
 886:Drivers/CMSIS/Include/cmsis_gcc.h ****            and after the instruction, without ensuring their completion.
 887:Drivers/CMSIS/Include/cmsis_gcc.h ****  */
 888:Drivers/CMSIS/Include/cmsis_gcc.h **** __STATIC_FORCEINLINE void __DMB(void)
 889:Drivers/CMSIS/Include/cmsis_gcc.h **** {
 890:Drivers/CMSIS/Include/cmsis_gcc.h ****   __ASM volatile ("dmb 0xF":::"memory");
 891:Drivers/CMSIS/Include/cmsis_gcc.h **** }
 892:Drivers/CMSIS/Include/cmsis_gcc.h **** 
 893:Drivers/CMSIS/Include/cmsis_gcc.h **** 
 894:Drivers/CMSIS/Include/cmsis_gcc.h **** /**
 895:Drivers/CMSIS/Include/cmsis_gcc.h ****   \brief   Reverse byte order (32 bit)
 896:Drivers/CMSIS/Include/cmsis_gcc.h ****   \details Reverses the byte order in unsigned integer value. For example, 0x12345678 becomes 0x785
 897:Drivers/CMSIS/Include/cmsis_gcc.h ****   \param [in]    value  Value to reverse
 898:Drivers/CMSIS/Include/cmsis_gcc.h ****   \return               Reversed value
ARM GAS  /var/folders/n6/c271nzx11xl4r4_m7sqjlt0m0000gn/T//ccJ3qP4w.s 			page 20


 899:Drivers/CMSIS/Include/cmsis_gcc.h ****  */
 900:Drivers/CMSIS/Include/cmsis_gcc.h **** __STATIC_FORCEINLINE uint32_t __REV(uint32_t value)
 901:Drivers/CMSIS/Include/cmsis_gcc.h **** {
 902:Drivers/CMSIS/Include/cmsis_gcc.h **** #if (__GNUC__ > 4) || (__GNUC__ == 4 && __GNUC_MINOR__ >= 5)
 903:Drivers/CMSIS/Include/cmsis_gcc.h ****   return __builtin_bswap32(value);
 904:Drivers/CMSIS/Include/cmsis_gcc.h **** #else
 905:Drivers/CMSIS/Include/cmsis_gcc.h ****   uint32_t result;
 906:Drivers/CMSIS/Include/cmsis_gcc.h **** 
 907:Drivers/CMSIS/Include/cmsis_gcc.h ****   __ASM volatile ("rev %0, %1" : __CMSIS_GCC_OUT_REG (result) : __CMSIS_GCC_USE_REG (value) );
 908:Drivers/CMSIS/Include/cmsis_gcc.h ****   return result;
 909:Drivers/CMSIS/Include/cmsis_gcc.h **** #endif
 910:Drivers/CMSIS/Include/cmsis_gcc.h **** }
 911:Drivers/CMSIS/Include/cmsis_gcc.h **** 
 912:Drivers/CMSIS/Include/cmsis_gcc.h **** 
 913:Drivers/CMSIS/Include/cmsis_gcc.h **** /**
 914:Drivers/CMSIS/Include/cmsis_gcc.h ****   \brief   Reverse byte order (16 bit)
 915:Drivers/CMSIS/Include/cmsis_gcc.h ****   \details Reverses the byte order within each halfword of a word. For example, 0x12345678 becomes 
 916:Drivers/CMSIS/Include/cmsis_gcc.h ****   \param [in]    value  Value to reverse
 917:Drivers/CMSIS/Include/cmsis_gcc.h ****   \return               Reversed value
 918:Drivers/CMSIS/Include/cmsis_gcc.h ****  */
 919:Drivers/CMSIS/Include/cmsis_gcc.h **** __STATIC_FORCEINLINE uint32_t __REV16(uint32_t value)
 920:Drivers/CMSIS/Include/cmsis_gcc.h **** {
 921:Drivers/CMSIS/Include/cmsis_gcc.h ****   uint32_t result;
 922:Drivers/CMSIS/Include/cmsis_gcc.h **** 
 923:Drivers/CMSIS/Include/cmsis_gcc.h ****   __ASM volatile ("rev16 %0, %1" : __CMSIS_GCC_OUT_REG (result) : __CMSIS_GCC_USE_REG (value) );
 924:Drivers/CMSIS/Include/cmsis_gcc.h ****   return result;
 925:Drivers/CMSIS/Include/cmsis_gcc.h **** }
 926:Drivers/CMSIS/Include/cmsis_gcc.h **** 
 927:Drivers/CMSIS/Include/cmsis_gcc.h **** 
 928:Drivers/CMSIS/Include/cmsis_gcc.h **** /**
 929:Drivers/CMSIS/Include/cmsis_gcc.h ****   \brief   Reverse byte order (16 bit)
 930:Drivers/CMSIS/Include/cmsis_gcc.h ****   \details Reverses the byte order in a 16-bit value and returns the signed 16-bit result. For exam
 931:Drivers/CMSIS/Include/cmsis_gcc.h ****   \param [in]    value  Value to reverse
 932:Drivers/CMSIS/Include/cmsis_gcc.h ****   \return               Reversed value
 933:Drivers/CMSIS/Include/cmsis_gcc.h ****  */
 934:Drivers/CMSIS/Include/cmsis_gcc.h **** __STATIC_FORCEINLINE int16_t __REVSH(int16_t value)
 935:Drivers/CMSIS/Include/cmsis_gcc.h **** {
 936:Drivers/CMSIS/Include/cmsis_gcc.h **** #if (__GNUC__ > 4) || (__GNUC__ == 4 && __GNUC_MINOR__ >= 8)
 937:Drivers/CMSIS/Include/cmsis_gcc.h ****   return (int16_t)__builtin_bswap16(value);
 938:Drivers/CMSIS/Include/cmsis_gcc.h **** #else
 939:Drivers/CMSIS/Include/cmsis_gcc.h ****   int16_t result;
 940:Drivers/CMSIS/Include/cmsis_gcc.h **** 
 941:Drivers/CMSIS/Include/cmsis_gcc.h ****   __ASM volatile ("revsh %0, %1" : __CMSIS_GCC_OUT_REG (result) : __CMSIS_GCC_USE_REG (value) );
 942:Drivers/CMSIS/Include/cmsis_gcc.h ****   return result;
 943:Drivers/CMSIS/Include/cmsis_gcc.h **** #endif
 944:Drivers/CMSIS/Include/cmsis_gcc.h **** }
 945:Drivers/CMSIS/Include/cmsis_gcc.h **** 
 946:Drivers/CMSIS/Include/cmsis_gcc.h **** 
 947:Drivers/CMSIS/Include/cmsis_gcc.h **** /**
 948:Drivers/CMSIS/Include/cmsis_gcc.h ****   \brief   Rotate Right in unsigned value (32 bit)
 949:Drivers/CMSIS/Include/cmsis_gcc.h ****   \details Rotate Right (immediate) provides the value of the contents of a register rotated by a v
 950:Drivers/CMSIS/Include/cmsis_gcc.h ****   \param [in]    op1  Value to rotate
 951:Drivers/CMSIS/Include/cmsis_gcc.h ****   \param [in]    op2  Number of Bits to rotate
 952:Drivers/CMSIS/Include/cmsis_gcc.h ****   \return               Rotated value
 953:Drivers/CMSIS/Include/cmsis_gcc.h ****  */
 954:Drivers/CMSIS/Include/cmsis_gcc.h **** __STATIC_FORCEINLINE uint32_t __ROR(uint32_t op1, uint32_t op2)
 955:Drivers/CMSIS/Include/cmsis_gcc.h **** {
ARM GAS  /var/folders/n6/c271nzx11xl4r4_m7sqjlt0m0000gn/T//ccJ3qP4w.s 			page 21


 956:Drivers/CMSIS/Include/cmsis_gcc.h ****   op2 %= 32U;
 957:Drivers/CMSIS/Include/cmsis_gcc.h ****   if (op2 == 0U)
 958:Drivers/CMSIS/Include/cmsis_gcc.h ****   {
 959:Drivers/CMSIS/Include/cmsis_gcc.h ****     return op1;
 960:Drivers/CMSIS/Include/cmsis_gcc.h ****   }
 961:Drivers/CMSIS/Include/cmsis_gcc.h ****   return (op1 >> op2) | (op1 << (32U - op2));
 962:Drivers/CMSIS/Include/cmsis_gcc.h **** }
 963:Drivers/CMSIS/Include/cmsis_gcc.h **** 
 964:Drivers/CMSIS/Include/cmsis_gcc.h **** 
 965:Drivers/CMSIS/Include/cmsis_gcc.h **** /**
 966:Drivers/CMSIS/Include/cmsis_gcc.h ****   \brief   Breakpoint
 967:Drivers/CMSIS/Include/cmsis_gcc.h ****   \details Causes the processor to enter Debug state.
 968:Drivers/CMSIS/Include/cmsis_gcc.h ****            Debug tools can use this to investigate system state when the instruction at a particula
 969:Drivers/CMSIS/Include/cmsis_gcc.h ****   \param [in]    value  is ignored by the processor.
 970:Drivers/CMSIS/Include/cmsis_gcc.h ****                  If required, a debugger can use it to store additional information about the break
 971:Drivers/CMSIS/Include/cmsis_gcc.h ****  */
 972:Drivers/CMSIS/Include/cmsis_gcc.h **** #define __BKPT(value)                       __ASM volatile ("bkpt "#value)
 973:Drivers/CMSIS/Include/cmsis_gcc.h **** 
 974:Drivers/CMSIS/Include/cmsis_gcc.h **** 
 975:Drivers/CMSIS/Include/cmsis_gcc.h **** /**
 976:Drivers/CMSIS/Include/cmsis_gcc.h ****   \brief   Reverse bit order of value
 977:Drivers/CMSIS/Include/cmsis_gcc.h ****   \details Reverses the bit order of the given value.
 978:Drivers/CMSIS/Include/cmsis_gcc.h ****   \param [in]    value  Value to reverse
 979:Drivers/CMSIS/Include/cmsis_gcc.h ****   \return               Reversed value
 980:Drivers/CMSIS/Include/cmsis_gcc.h ****  */
 981:Drivers/CMSIS/Include/cmsis_gcc.h **** __STATIC_FORCEINLINE uint32_t __RBIT(uint32_t value)
 982:Drivers/CMSIS/Include/cmsis_gcc.h **** {
 983:Drivers/CMSIS/Include/cmsis_gcc.h ****   uint32_t result;
 984:Drivers/CMSIS/Include/cmsis_gcc.h **** 
 985:Drivers/CMSIS/Include/cmsis_gcc.h **** #if ((defined (__ARM_ARCH_7M__      ) && (__ARM_ARCH_7M__      == 1)) || \
 986:Drivers/CMSIS/Include/cmsis_gcc.h ****      (defined (__ARM_ARCH_7EM__     ) && (__ARM_ARCH_7EM__     == 1)) || \
 987:Drivers/CMSIS/Include/cmsis_gcc.h ****      (defined (__ARM_ARCH_8M_MAIN__ ) && (__ARM_ARCH_8M_MAIN__ == 1))    )
 988:Drivers/CMSIS/Include/cmsis_gcc.h ****    __ASM volatile ("rbit %0, %1" : "=r" (result) : "r" (value) );
 989:Drivers/CMSIS/Include/cmsis_gcc.h **** #else
 990:Drivers/CMSIS/Include/cmsis_gcc.h ****   uint32_t s = (4U /*sizeof(v)*/ * 8U) - 1U; /* extra shift needed at end */
 991:Drivers/CMSIS/Include/cmsis_gcc.h **** 
 992:Drivers/CMSIS/Include/cmsis_gcc.h ****   result = value;                      /* r will be reversed bits of v; first get LSB of v */
 993:Drivers/CMSIS/Include/cmsis_gcc.h ****   for (value >>= 1U; value != 0U; value >>= 1U)
 994:Drivers/CMSIS/Include/cmsis_gcc.h ****   {
 995:Drivers/CMSIS/Include/cmsis_gcc.h ****     result <<= 1U;
 996:Drivers/CMSIS/Include/cmsis_gcc.h ****     result |= value & 1U;
 997:Drivers/CMSIS/Include/cmsis_gcc.h ****     s--;
 998:Drivers/CMSIS/Include/cmsis_gcc.h ****   }
 999:Drivers/CMSIS/Include/cmsis_gcc.h ****   result <<= s;                        /* shift when v's highest bits are zero */
1000:Drivers/CMSIS/Include/cmsis_gcc.h **** #endif
1001:Drivers/CMSIS/Include/cmsis_gcc.h ****   return result;
1002:Drivers/CMSIS/Include/cmsis_gcc.h **** }
1003:Drivers/CMSIS/Include/cmsis_gcc.h **** 
1004:Drivers/CMSIS/Include/cmsis_gcc.h **** 
1005:Drivers/CMSIS/Include/cmsis_gcc.h **** /**
1006:Drivers/CMSIS/Include/cmsis_gcc.h ****   \brief   Count leading zeros
1007:Drivers/CMSIS/Include/cmsis_gcc.h ****   \details Counts the number of leading zeros of a data value.
1008:Drivers/CMSIS/Include/cmsis_gcc.h ****   \param [in]  value  Value to count the leading zeros
1009:Drivers/CMSIS/Include/cmsis_gcc.h ****   \return             number of leading zeros in value
1010:Drivers/CMSIS/Include/cmsis_gcc.h ****  */
1011:Drivers/CMSIS/Include/cmsis_gcc.h **** #define __CLZ             (uint8_t)__builtin_clz
1012:Drivers/CMSIS/Include/cmsis_gcc.h **** 
ARM GAS  /var/folders/n6/c271nzx11xl4r4_m7sqjlt0m0000gn/T//ccJ3qP4w.s 			page 22


1013:Drivers/CMSIS/Include/cmsis_gcc.h **** 
1014:Drivers/CMSIS/Include/cmsis_gcc.h **** #if ((defined (__ARM_ARCH_7M__      ) && (__ARM_ARCH_7M__      == 1)) || \
1015:Drivers/CMSIS/Include/cmsis_gcc.h ****      (defined (__ARM_ARCH_7EM__     ) && (__ARM_ARCH_7EM__     == 1)) || \
1016:Drivers/CMSIS/Include/cmsis_gcc.h ****      (defined (__ARM_ARCH_8M_MAIN__ ) && (__ARM_ARCH_8M_MAIN__ == 1)) || \
1017:Drivers/CMSIS/Include/cmsis_gcc.h ****      (defined (__ARM_ARCH_8M_BASE__ ) && (__ARM_ARCH_8M_BASE__ == 1))    )
1018:Drivers/CMSIS/Include/cmsis_gcc.h **** /**
1019:Drivers/CMSIS/Include/cmsis_gcc.h ****   \brief   LDR Exclusive (8 bit)
1020:Drivers/CMSIS/Include/cmsis_gcc.h ****   \details Executes a exclusive LDR instruction for 8 bit value.
1021:Drivers/CMSIS/Include/cmsis_gcc.h ****   \param [in]    ptr  Pointer to data
1022:Drivers/CMSIS/Include/cmsis_gcc.h ****   \return             value of type uint8_t at (*ptr)
1023:Drivers/CMSIS/Include/cmsis_gcc.h ****  */
1024:Drivers/CMSIS/Include/cmsis_gcc.h **** __STATIC_FORCEINLINE uint8_t __LDREXB(volatile uint8_t *addr)
1025:Drivers/CMSIS/Include/cmsis_gcc.h **** {
1026:Drivers/CMSIS/Include/cmsis_gcc.h ****     uint32_t result;
1027:Drivers/CMSIS/Include/cmsis_gcc.h **** 
1028:Drivers/CMSIS/Include/cmsis_gcc.h **** #if (__GNUC__ > 4) || (__GNUC__ == 4 && __GNUC_MINOR__ >= 8)
1029:Drivers/CMSIS/Include/cmsis_gcc.h ****    __ASM volatile ("ldrexb %0, %1" : "=r" (result) : "Q" (*addr) );
1030:Drivers/CMSIS/Include/cmsis_gcc.h **** #else
1031:Drivers/CMSIS/Include/cmsis_gcc.h ****     /* Prior to GCC 4.8, "Q" will be expanded to [rx, #0] which is not
1032:Drivers/CMSIS/Include/cmsis_gcc.h ****        accepted by assembler. So has to use following less efficient pattern.
1033:Drivers/CMSIS/Include/cmsis_gcc.h ****     */
1034:Drivers/CMSIS/Include/cmsis_gcc.h ****    __ASM volatile ("ldrexb %0, [%1]" : "=r" (result) : "r" (addr) : "memory" );
1035:Drivers/CMSIS/Include/cmsis_gcc.h **** #endif
1036:Drivers/CMSIS/Include/cmsis_gcc.h ****    return ((uint8_t) result);    /* Add explicit type cast here */
1037:Drivers/CMSIS/Include/cmsis_gcc.h **** }
1038:Drivers/CMSIS/Include/cmsis_gcc.h **** 
1039:Drivers/CMSIS/Include/cmsis_gcc.h **** 
1040:Drivers/CMSIS/Include/cmsis_gcc.h **** /**
1041:Drivers/CMSIS/Include/cmsis_gcc.h ****   \brief   LDR Exclusive (16 bit)
1042:Drivers/CMSIS/Include/cmsis_gcc.h ****   \details Executes a exclusive LDR instruction for 16 bit values.
1043:Drivers/CMSIS/Include/cmsis_gcc.h ****   \param [in]    ptr  Pointer to data
1044:Drivers/CMSIS/Include/cmsis_gcc.h ****   \return        value of type uint16_t at (*ptr)
1045:Drivers/CMSIS/Include/cmsis_gcc.h ****  */
1046:Drivers/CMSIS/Include/cmsis_gcc.h **** __STATIC_FORCEINLINE uint16_t __LDREXH(volatile uint16_t *addr)
1047:Drivers/CMSIS/Include/cmsis_gcc.h **** {
1048:Drivers/CMSIS/Include/cmsis_gcc.h ****     uint32_t result;
1049:Drivers/CMSIS/Include/cmsis_gcc.h **** 
1050:Drivers/CMSIS/Include/cmsis_gcc.h **** #if (__GNUC__ > 4) || (__GNUC__ == 4 && __GNUC_MINOR__ >= 8)
1051:Drivers/CMSIS/Include/cmsis_gcc.h ****    __ASM volatile ("ldrexh %0, %1" : "=r" (result) : "Q" (*addr) );
1052:Drivers/CMSIS/Include/cmsis_gcc.h **** #else
1053:Drivers/CMSIS/Include/cmsis_gcc.h ****     /* Prior to GCC 4.8, "Q" will be expanded to [rx, #0] which is not
1054:Drivers/CMSIS/Include/cmsis_gcc.h ****        accepted by assembler. So has to use following less efficient pattern.
1055:Drivers/CMSIS/Include/cmsis_gcc.h ****     */
1056:Drivers/CMSIS/Include/cmsis_gcc.h ****    __ASM volatile ("ldrexh %0, [%1]" : "=r" (result) : "r" (addr) : "memory" );
1057:Drivers/CMSIS/Include/cmsis_gcc.h **** #endif
1058:Drivers/CMSIS/Include/cmsis_gcc.h ****    return ((uint16_t) result);    /* Add explicit type cast here */
1059:Drivers/CMSIS/Include/cmsis_gcc.h **** }
1060:Drivers/CMSIS/Include/cmsis_gcc.h **** 
1061:Drivers/CMSIS/Include/cmsis_gcc.h **** 
1062:Drivers/CMSIS/Include/cmsis_gcc.h **** /**
1063:Drivers/CMSIS/Include/cmsis_gcc.h ****   \brief   LDR Exclusive (32 bit)
1064:Drivers/CMSIS/Include/cmsis_gcc.h ****   \details Executes a exclusive LDR instruction for 32 bit values.
1065:Drivers/CMSIS/Include/cmsis_gcc.h ****   \param [in]    ptr  Pointer to data
1066:Drivers/CMSIS/Include/cmsis_gcc.h ****   \return        value of type uint32_t at (*ptr)
1067:Drivers/CMSIS/Include/cmsis_gcc.h ****  */
1068:Drivers/CMSIS/Include/cmsis_gcc.h **** __STATIC_FORCEINLINE uint32_t __LDREXW(volatile uint32_t *addr)
1069:Drivers/CMSIS/Include/cmsis_gcc.h **** {
ARM GAS  /var/folders/n6/c271nzx11xl4r4_m7sqjlt0m0000gn/T//ccJ3qP4w.s 			page 23


1070:Drivers/CMSIS/Include/cmsis_gcc.h ****     uint32_t result;
1071:Drivers/CMSIS/Include/cmsis_gcc.h **** 
1072:Drivers/CMSIS/Include/cmsis_gcc.h ****    __ASM volatile ("ldrex %0, %1" : "=r" (result) : "Q" (*addr) );
1073:Drivers/CMSIS/Include/cmsis_gcc.h ****    return(result);
1074:Drivers/CMSIS/Include/cmsis_gcc.h **** }
1075:Drivers/CMSIS/Include/cmsis_gcc.h **** 
1076:Drivers/CMSIS/Include/cmsis_gcc.h **** 
1077:Drivers/CMSIS/Include/cmsis_gcc.h **** /**
1078:Drivers/CMSIS/Include/cmsis_gcc.h ****   \brief   STR Exclusive (8 bit)
1079:Drivers/CMSIS/Include/cmsis_gcc.h ****   \details Executes a exclusive STR instruction for 8 bit values.
1080:Drivers/CMSIS/Include/cmsis_gcc.h ****   \param [in]  value  Value to store
1081:Drivers/CMSIS/Include/cmsis_gcc.h ****   \param [in]    ptr  Pointer to location
1082:Drivers/CMSIS/Include/cmsis_gcc.h ****   \return          0  Function succeeded
1083:Drivers/CMSIS/Include/cmsis_gcc.h ****   \return          1  Function failed
1084:Drivers/CMSIS/Include/cmsis_gcc.h ****  */
1085:Drivers/CMSIS/Include/cmsis_gcc.h **** __STATIC_FORCEINLINE uint32_t __STREXB(uint8_t value, volatile uint8_t *addr)
1086:Drivers/CMSIS/Include/cmsis_gcc.h **** {
1087:Drivers/CMSIS/Include/cmsis_gcc.h ****    uint32_t result;
1088:Drivers/CMSIS/Include/cmsis_gcc.h **** 
1089:Drivers/CMSIS/Include/cmsis_gcc.h ****    __ASM volatile ("strexb %0, %2, %1" : "=&r" (result), "=Q" (*addr) : "r" ((uint32_t)value) );
1090:Drivers/CMSIS/Include/cmsis_gcc.h ****    return(result);
1091:Drivers/CMSIS/Include/cmsis_gcc.h **** }
1092:Drivers/CMSIS/Include/cmsis_gcc.h **** 
1093:Drivers/CMSIS/Include/cmsis_gcc.h **** 
1094:Drivers/CMSIS/Include/cmsis_gcc.h **** /**
1095:Drivers/CMSIS/Include/cmsis_gcc.h ****   \brief   STR Exclusive (16 bit)
1096:Drivers/CMSIS/Include/cmsis_gcc.h ****   \details Executes a exclusive STR instruction for 16 bit values.
1097:Drivers/CMSIS/Include/cmsis_gcc.h ****   \param [in]  value  Value to store
1098:Drivers/CMSIS/Include/cmsis_gcc.h ****   \param [in]    ptr  Pointer to location
1099:Drivers/CMSIS/Include/cmsis_gcc.h ****   \return          0  Function succeeded
1100:Drivers/CMSIS/Include/cmsis_gcc.h ****   \return          1  Function failed
1101:Drivers/CMSIS/Include/cmsis_gcc.h ****  */
1102:Drivers/CMSIS/Include/cmsis_gcc.h **** __STATIC_FORCEINLINE uint32_t __STREXH(uint16_t value, volatile uint16_t *addr)
1103:Drivers/CMSIS/Include/cmsis_gcc.h **** {
1104:Drivers/CMSIS/Include/cmsis_gcc.h ****    uint32_t result;
1105:Drivers/CMSIS/Include/cmsis_gcc.h **** 
1106:Drivers/CMSIS/Include/cmsis_gcc.h ****    __ASM volatile ("strexh %0, %2, %1" : "=&r" (result), "=Q" (*addr) : "r" ((uint32_t)value) );
1107:Drivers/CMSIS/Include/cmsis_gcc.h ****    return(result);
1108:Drivers/CMSIS/Include/cmsis_gcc.h **** }
1109:Drivers/CMSIS/Include/cmsis_gcc.h **** 
1110:Drivers/CMSIS/Include/cmsis_gcc.h **** 
1111:Drivers/CMSIS/Include/cmsis_gcc.h **** /**
1112:Drivers/CMSIS/Include/cmsis_gcc.h ****   \brief   STR Exclusive (32 bit)
1113:Drivers/CMSIS/Include/cmsis_gcc.h ****   \details Executes a exclusive STR instruction for 32 bit values.
1114:Drivers/CMSIS/Include/cmsis_gcc.h ****   \param [in]  value  Value to store
1115:Drivers/CMSIS/Include/cmsis_gcc.h ****   \param [in]    ptr  Pointer to location
1116:Drivers/CMSIS/Include/cmsis_gcc.h ****   \return          0  Function succeeded
1117:Drivers/CMSIS/Include/cmsis_gcc.h ****   \return          1  Function failed
1118:Drivers/CMSIS/Include/cmsis_gcc.h ****  */
1119:Drivers/CMSIS/Include/cmsis_gcc.h **** __STATIC_FORCEINLINE uint32_t __STREXW(uint32_t value, volatile uint32_t *addr)
1120:Drivers/CMSIS/Include/cmsis_gcc.h **** {
1121:Drivers/CMSIS/Include/cmsis_gcc.h ****    uint32_t result;
1122:Drivers/CMSIS/Include/cmsis_gcc.h **** 
1123:Drivers/CMSIS/Include/cmsis_gcc.h ****    __ASM volatile ("strex %0, %2, %1" : "=&r" (result), "=Q" (*addr) : "r" (value) );
1124:Drivers/CMSIS/Include/cmsis_gcc.h ****    return(result);
1125:Drivers/CMSIS/Include/cmsis_gcc.h **** }
1126:Drivers/CMSIS/Include/cmsis_gcc.h **** 
ARM GAS  /var/folders/n6/c271nzx11xl4r4_m7sqjlt0m0000gn/T//ccJ3qP4w.s 			page 24


1127:Drivers/CMSIS/Include/cmsis_gcc.h **** 
1128:Drivers/CMSIS/Include/cmsis_gcc.h **** /**
1129:Drivers/CMSIS/Include/cmsis_gcc.h ****   \brief   Remove the exclusive lock
1130:Drivers/CMSIS/Include/cmsis_gcc.h ****   \details Removes the exclusive lock which is created by LDREX.
1131:Drivers/CMSIS/Include/cmsis_gcc.h ****  */
1132:Drivers/CMSIS/Include/cmsis_gcc.h **** __STATIC_FORCEINLINE void __CLREX(void)
1133:Drivers/CMSIS/Include/cmsis_gcc.h **** {
1134:Drivers/CMSIS/Include/cmsis_gcc.h ****   __ASM volatile ("clrex" ::: "memory");
1135:Drivers/CMSIS/Include/cmsis_gcc.h **** }
1136:Drivers/CMSIS/Include/cmsis_gcc.h **** 
1137:Drivers/CMSIS/Include/cmsis_gcc.h **** #endif /* ((defined (__ARM_ARCH_7M__      ) && (__ARM_ARCH_7M__      == 1)) || \
1138:Drivers/CMSIS/Include/cmsis_gcc.h ****            (defined (__ARM_ARCH_7EM__     ) && (__ARM_ARCH_7EM__     == 1)) || \
1139:Drivers/CMSIS/Include/cmsis_gcc.h ****            (defined (__ARM_ARCH_8M_MAIN__ ) && (__ARM_ARCH_8M_MAIN__ == 1)) || \
1140:Drivers/CMSIS/Include/cmsis_gcc.h ****            (defined (__ARM_ARCH_8M_BASE__ ) && (__ARM_ARCH_8M_BASE__ == 1))    ) */
1141:Drivers/CMSIS/Include/cmsis_gcc.h **** 
1142:Drivers/CMSIS/Include/cmsis_gcc.h **** 
1143:Drivers/CMSIS/Include/cmsis_gcc.h **** #if ((defined (__ARM_ARCH_7M__      ) && (__ARM_ARCH_7M__      == 1)) || \
1144:Drivers/CMSIS/Include/cmsis_gcc.h ****      (defined (__ARM_ARCH_7EM__     ) && (__ARM_ARCH_7EM__     == 1)) || \
1145:Drivers/CMSIS/Include/cmsis_gcc.h ****      (defined (__ARM_ARCH_8M_MAIN__ ) && (__ARM_ARCH_8M_MAIN__ == 1))    )
1146:Drivers/CMSIS/Include/cmsis_gcc.h **** /**
1147:Drivers/CMSIS/Include/cmsis_gcc.h ****   \brief   Signed Saturate
1148:Drivers/CMSIS/Include/cmsis_gcc.h ****   \details Saturates a signed value.
1149:Drivers/CMSIS/Include/cmsis_gcc.h ****   \param [in]  ARG1  Value to be saturated
1150:Drivers/CMSIS/Include/cmsis_gcc.h ****   \param [in]  ARG2  Bit position to saturate to (1..32)
1151:Drivers/CMSIS/Include/cmsis_gcc.h ****   \return             Saturated value
1152:Drivers/CMSIS/Include/cmsis_gcc.h ****  */
1153:Drivers/CMSIS/Include/cmsis_gcc.h **** #define __SSAT(ARG1,ARG2) \
1154:Drivers/CMSIS/Include/cmsis_gcc.h **** __extension__ \
1155:Drivers/CMSIS/Include/cmsis_gcc.h **** ({                          \
1156:Drivers/CMSIS/Include/cmsis_gcc.h ****   int32_t __RES, __ARG1 = (ARG1); \
1157:Drivers/CMSIS/Include/cmsis_gcc.h ****   __ASM ("ssat %0, %1, %2" : "=r" (__RES) :  "I" (ARG2), "r" (__ARG1) ); \
1158:Drivers/CMSIS/Include/cmsis_gcc.h ****   __RES; \
1159:Drivers/CMSIS/Include/cmsis_gcc.h ****  })
1160:Drivers/CMSIS/Include/cmsis_gcc.h **** 
1161:Drivers/CMSIS/Include/cmsis_gcc.h **** 
1162:Drivers/CMSIS/Include/cmsis_gcc.h **** /**
1163:Drivers/CMSIS/Include/cmsis_gcc.h ****   \brief   Unsigned Saturate
1164:Drivers/CMSIS/Include/cmsis_gcc.h ****   \details Saturates an unsigned value.
1165:Drivers/CMSIS/Include/cmsis_gcc.h ****   \param [in]  ARG1  Value to be saturated
1166:Drivers/CMSIS/Include/cmsis_gcc.h ****   \param [in]  ARG2  Bit position to saturate to (0..31)
1167:Drivers/CMSIS/Include/cmsis_gcc.h ****   \return             Saturated value
1168:Drivers/CMSIS/Include/cmsis_gcc.h ****  */
1169:Drivers/CMSIS/Include/cmsis_gcc.h **** #define __USAT(ARG1,ARG2) \
1170:Drivers/CMSIS/Include/cmsis_gcc.h ****  __extension__ \
1171:Drivers/CMSIS/Include/cmsis_gcc.h **** ({                          \
1172:Drivers/CMSIS/Include/cmsis_gcc.h ****   uint32_t __RES, __ARG1 = (ARG1); \
1173:Drivers/CMSIS/Include/cmsis_gcc.h ****   __ASM ("usat %0, %1, %2" : "=r" (__RES) :  "I" (ARG2), "r" (__ARG1) ); \
1174:Drivers/CMSIS/Include/cmsis_gcc.h ****   __RES; \
1175:Drivers/CMSIS/Include/cmsis_gcc.h ****  })
1176:Drivers/CMSIS/Include/cmsis_gcc.h **** 
1177:Drivers/CMSIS/Include/cmsis_gcc.h **** 
1178:Drivers/CMSIS/Include/cmsis_gcc.h **** /**
1179:Drivers/CMSIS/Include/cmsis_gcc.h ****   \brief   Rotate Right with Extend (32 bit)
1180:Drivers/CMSIS/Include/cmsis_gcc.h ****   \details Moves each bit of a bitstring right by one bit.
1181:Drivers/CMSIS/Include/cmsis_gcc.h ****            The carry input is shifted in at the left end of the bitstring.
1182:Drivers/CMSIS/Include/cmsis_gcc.h ****   \param [in]    value  Value to rotate
1183:Drivers/CMSIS/Include/cmsis_gcc.h ****   \return               Rotated value
ARM GAS  /var/folders/n6/c271nzx11xl4r4_m7sqjlt0m0000gn/T//ccJ3qP4w.s 			page 25


1184:Drivers/CMSIS/Include/cmsis_gcc.h ****  */
1185:Drivers/CMSIS/Include/cmsis_gcc.h **** __STATIC_FORCEINLINE uint32_t __RRX(uint32_t value)
1186:Drivers/CMSIS/Include/cmsis_gcc.h **** {
1187:Drivers/CMSIS/Include/cmsis_gcc.h ****   uint32_t result;
1188:Drivers/CMSIS/Include/cmsis_gcc.h **** 
1189:Drivers/CMSIS/Include/cmsis_gcc.h ****   __ASM volatile ("rrx %0, %1" : __CMSIS_GCC_OUT_REG (result) : __CMSIS_GCC_USE_REG (value) );
1190:Drivers/CMSIS/Include/cmsis_gcc.h ****   return(result);
1191:Drivers/CMSIS/Include/cmsis_gcc.h **** }
1192:Drivers/CMSIS/Include/cmsis_gcc.h **** 
1193:Drivers/CMSIS/Include/cmsis_gcc.h **** 
1194:Drivers/CMSIS/Include/cmsis_gcc.h **** /**
1195:Drivers/CMSIS/Include/cmsis_gcc.h ****   \brief   LDRT Unprivileged (8 bit)
1196:Drivers/CMSIS/Include/cmsis_gcc.h ****   \details Executes a Unprivileged LDRT instruction for 8 bit value.
1197:Drivers/CMSIS/Include/cmsis_gcc.h ****   \param [in]    ptr  Pointer to data
1198:Drivers/CMSIS/Include/cmsis_gcc.h ****   \return             value of type uint8_t at (*ptr)
1199:Drivers/CMSIS/Include/cmsis_gcc.h ****  */
1200:Drivers/CMSIS/Include/cmsis_gcc.h **** __STATIC_FORCEINLINE uint8_t __LDRBT(volatile uint8_t *ptr)
1201:Drivers/CMSIS/Include/cmsis_gcc.h **** {
1202:Drivers/CMSIS/Include/cmsis_gcc.h ****     uint32_t result;
1203:Drivers/CMSIS/Include/cmsis_gcc.h **** 
1204:Drivers/CMSIS/Include/cmsis_gcc.h **** #if (__GNUC__ > 4) || (__GNUC__ == 4 && __GNUC_MINOR__ >= 8)
1205:Drivers/CMSIS/Include/cmsis_gcc.h ****    __ASM volatile ("ldrbt %0, %1" : "=r" (result) : "Q" (*ptr) );
1206:Drivers/CMSIS/Include/cmsis_gcc.h **** #else
1207:Drivers/CMSIS/Include/cmsis_gcc.h ****     /* Prior to GCC 4.8, "Q" will be expanded to [rx, #0] which is not
1208:Drivers/CMSIS/Include/cmsis_gcc.h ****        accepted by assembler. So has to use following less efficient pattern.
1209:Drivers/CMSIS/Include/cmsis_gcc.h ****     */
1210:Drivers/CMSIS/Include/cmsis_gcc.h ****    __ASM volatile ("ldrbt %0, [%1]" : "=r" (result) : "r" (ptr) : "memory" );
1211:Drivers/CMSIS/Include/cmsis_gcc.h **** #endif
1212:Drivers/CMSIS/Include/cmsis_gcc.h ****    return ((uint8_t) result);    /* Add explicit type cast here */
1213:Drivers/CMSIS/Include/cmsis_gcc.h **** }
1214:Drivers/CMSIS/Include/cmsis_gcc.h **** 
1215:Drivers/CMSIS/Include/cmsis_gcc.h **** 
1216:Drivers/CMSIS/Include/cmsis_gcc.h **** /**
1217:Drivers/CMSIS/Include/cmsis_gcc.h ****   \brief   LDRT Unprivileged (16 bit)
1218:Drivers/CMSIS/Include/cmsis_gcc.h ****   \details Executes a Unprivileged LDRT instruction for 16 bit values.
1219:Drivers/CMSIS/Include/cmsis_gcc.h ****   \param [in]    ptr  Pointer to data
1220:Drivers/CMSIS/Include/cmsis_gcc.h ****   \return        value of type uint16_t at (*ptr)
1221:Drivers/CMSIS/Include/cmsis_gcc.h ****  */
1222:Drivers/CMSIS/Include/cmsis_gcc.h **** __STATIC_FORCEINLINE uint16_t __LDRHT(volatile uint16_t *ptr)
1223:Drivers/CMSIS/Include/cmsis_gcc.h **** {
1224:Drivers/CMSIS/Include/cmsis_gcc.h ****     uint32_t result;
1225:Drivers/CMSIS/Include/cmsis_gcc.h **** 
1226:Drivers/CMSIS/Include/cmsis_gcc.h **** #if (__GNUC__ > 4) || (__GNUC__ == 4 && __GNUC_MINOR__ >= 8)
1227:Drivers/CMSIS/Include/cmsis_gcc.h ****    __ASM volatile ("ldrht %0, %1" : "=r" (result) : "Q" (*ptr) );
1228:Drivers/CMSIS/Include/cmsis_gcc.h **** #else
1229:Drivers/CMSIS/Include/cmsis_gcc.h ****     /* Prior to GCC 4.8, "Q" will be expanded to [rx, #0] which is not
1230:Drivers/CMSIS/Include/cmsis_gcc.h ****        accepted by assembler. So has to use following less efficient pattern.
1231:Drivers/CMSIS/Include/cmsis_gcc.h ****     */
1232:Drivers/CMSIS/Include/cmsis_gcc.h ****    __ASM volatile ("ldrht %0, [%1]" : "=r" (result) : "r" (ptr) : "memory" );
1233:Drivers/CMSIS/Include/cmsis_gcc.h **** #endif
1234:Drivers/CMSIS/Include/cmsis_gcc.h ****    return ((uint16_t) result);    /* Add explicit type cast here */
1235:Drivers/CMSIS/Include/cmsis_gcc.h **** }
1236:Drivers/CMSIS/Include/cmsis_gcc.h **** 
1237:Drivers/CMSIS/Include/cmsis_gcc.h **** 
1238:Drivers/CMSIS/Include/cmsis_gcc.h **** /**
1239:Drivers/CMSIS/Include/cmsis_gcc.h ****   \brief   LDRT Unprivileged (32 bit)
1240:Drivers/CMSIS/Include/cmsis_gcc.h ****   \details Executes a Unprivileged LDRT instruction for 32 bit values.
ARM GAS  /var/folders/n6/c271nzx11xl4r4_m7sqjlt0m0000gn/T//ccJ3qP4w.s 			page 26


1241:Drivers/CMSIS/Include/cmsis_gcc.h ****   \param [in]    ptr  Pointer to data
1242:Drivers/CMSIS/Include/cmsis_gcc.h ****   \return        value of type uint32_t at (*ptr)
1243:Drivers/CMSIS/Include/cmsis_gcc.h ****  */
1244:Drivers/CMSIS/Include/cmsis_gcc.h **** __STATIC_FORCEINLINE uint32_t __LDRT(volatile uint32_t *ptr)
1245:Drivers/CMSIS/Include/cmsis_gcc.h **** {
1246:Drivers/CMSIS/Include/cmsis_gcc.h ****     uint32_t result;
1247:Drivers/CMSIS/Include/cmsis_gcc.h **** 
1248:Drivers/CMSIS/Include/cmsis_gcc.h ****    __ASM volatile ("ldrt %0, %1" : "=r" (result) : "Q" (*ptr) );
1249:Drivers/CMSIS/Include/cmsis_gcc.h ****    return(result);
1250:Drivers/CMSIS/Include/cmsis_gcc.h **** }
1251:Drivers/CMSIS/Include/cmsis_gcc.h **** 
1252:Drivers/CMSIS/Include/cmsis_gcc.h **** 
1253:Drivers/CMSIS/Include/cmsis_gcc.h **** /**
1254:Drivers/CMSIS/Include/cmsis_gcc.h ****   \brief   STRT Unprivileged (8 bit)
1255:Drivers/CMSIS/Include/cmsis_gcc.h ****   \details Executes a Unprivileged STRT instruction for 8 bit values.
1256:Drivers/CMSIS/Include/cmsis_gcc.h ****   \param [in]  value  Value to store
1257:Drivers/CMSIS/Include/cmsis_gcc.h ****   \param [in]    ptr  Pointer to location
1258:Drivers/CMSIS/Include/cmsis_gcc.h ****  */
1259:Drivers/CMSIS/Include/cmsis_gcc.h **** __STATIC_FORCEINLINE void __STRBT(uint8_t value, volatile uint8_t *ptr)
1260:Drivers/CMSIS/Include/cmsis_gcc.h **** {
1261:Drivers/CMSIS/Include/cmsis_gcc.h ****    __ASM volatile ("strbt %1, %0" : "=Q" (*ptr) : "r" ((uint32_t)value) );
1262:Drivers/CMSIS/Include/cmsis_gcc.h **** }
1263:Drivers/CMSIS/Include/cmsis_gcc.h **** 
1264:Drivers/CMSIS/Include/cmsis_gcc.h **** 
1265:Drivers/CMSIS/Include/cmsis_gcc.h **** /**
1266:Drivers/CMSIS/Include/cmsis_gcc.h ****   \brief   STRT Unprivileged (16 bit)
1267:Drivers/CMSIS/Include/cmsis_gcc.h ****   \details Executes a Unprivileged STRT instruction for 16 bit values.
1268:Drivers/CMSIS/Include/cmsis_gcc.h ****   \param [in]  value  Value to store
1269:Drivers/CMSIS/Include/cmsis_gcc.h ****   \param [in]    ptr  Pointer to location
1270:Drivers/CMSIS/Include/cmsis_gcc.h ****  */
1271:Drivers/CMSIS/Include/cmsis_gcc.h **** __STATIC_FORCEINLINE void __STRHT(uint16_t value, volatile uint16_t *ptr)
1272:Drivers/CMSIS/Include/cmsis_gcc.h **** {
1273:Drivers/CMSIS/Include/cmsis_gcc.h ****    __ASM volatile ("strht %1, %0" : "=Q" (*ptr) : "r" ((uint32_t)value) );
1274:Drivers/CMSIS/Include/cmsis_gcc.h **** }
1275:Drivers/CMSIS/Include/cmsis_gcc.h **** 
1276:Drivers/CMSIS/Include/cmsis_gcc.h **** 
1277:Drivers/CMSIS/Include/cmsis_gcc.h **** /**
1278:Drivers/CMSIS/Include/cmsis_gcc.h ****   \brief   STRT Unprivileged (32 bit)
1279:Drivers/CMSIS/Include/cmsis_gcc.h ****   \details Executes a Unprivileged STRT instruction for 32 bit values.
1280:Drivers/CMSIS/Include/cmsis_gcc.h ****   \param [in]  value  Value to store
1281:Drivers/CMSIS/Include/cmsis_gcc.h ****   \param [in]    ptr  Pointer to location
1282:Drivers/CMSIS/Include/cmsis_gcc.h ****  */
1283:Drivers/CMSIS/Include/cmsis_gcc.h **** __STATIC_FORCEINLINE void __STRT(uint32_t value, volatile uint32_t *ptr)
1284:Drivers/CMSIS/Include/cmsis_gcc.h **** {
1285:Drivers/CMSIS/Include/cmsis_gcc.h ****    __ASM volatile ("strt %1, %0" : "=Q" (*ptr) : "r" (value) );
1286:Drivers/CMSIS/Include/cmsis_gcc.h **** }
1287:Drivers/CMSIS/Include/cmsis_gcc.h **** 
1288:Drivers/CMSIS/Include/cmsis_gcc.h **** #else  /* ((defined (__ARM_ARCH_7M__      ) && (__ARM_ARCH_7M__      == 1)) || \
1289:Drivers/CMSIS/Include/cmsis_gcc.h ****            (defined (__ARM_ARCH_7EM__     ) && (__ARM_ARCH_7EM__     == 1)) || \
1290:Drivers/CMSIS/Include/cmsis_gcc.h ****            (defined (__ARM_ARCH_8M_MAIN__ ) && (__ARM_ARCH_8M_MAIN__ == 1))    ) */
1291:Drivers/CMSIS/Include/cmsis_gcc.h **** 
1292:Drivers/CMSIS/Include/cmsis_gcc.h **** /**
1293:Drivers/CMSIS/Include/cmsis_gcc.h ****   \brief   Signed Saturate
1294:Drivers/CMSIS/Include/cmsis_gcc.h ****   \details Saturates a signed value.
1295:Drivers/CMSIS/Include/cmsis_gcc.h ****   \param [in]  value  Value to be saturated
1296:Drivers/CMSIS/Include/cmsis_gcc.h ****   \param [in]    sat  Bit position to saturate to (1..32)
1297:Drivers/CMSIS/Include/cmsis_gcc.h ****   \return             Saturated value
ARM GAS  /var/folders/n6/c271nzx11xl4r4_m7sqjlt0m0000gn/T//ccJ3qP4w.s 			page 27


1298:Drivers/CMSIS/Include/cmsis_gcc.h ****  */
1299:Drivers/CMSIS/Include/cmsis_gcc.h **** __STATIC_FORCEINLINE int32_t __SSAT(int32_t val, uint32_t sat)
1300:Drivers/CMSIS/Include/cmsis_gcc.h **** {
1301:Drivers/CMSIS/Include/cmsis_gcc.h ****   if ((sat >= 1U) && (sat <= 32U))
1302:Drivers/CMSIS/Include/cmsis_gcc.h ****   {
1303:Drivers/CMSIS/Include/cmsis_gcc.h ****     const int32_t max = (int32_t)((1U << (sat - 1U)) - 1U);
1304:Drivers/CMSIS/Include/cmsis_gcc.h ****     const int32_t min = -1 - max ;
1305:Drivers/CMSIS/Include/cmsis_gcc.h ****     if (val > max)
1306:Drivers/CMSIS/Include/cmsis_gcc.h ****     {
1307:Drivers/CMSIS/Include/cmsis_gcc.h ****       return max;
1308:Drivers/CMSIS/Include/cmsis_gcc.h ****     }
1309:Drivers/CMSIS/Include/cmsis_gcc.h ****     else if (val < min)
1310:Drivers/CMSIS/Include/cmsis_gcc.h ****     {
1311:Drivers/CMSIS/Include/cmsis_gcc.h ****       return min;
1312:Drivers/CMSIS/Include/cmsis_gcc.h ****     }
1313:Drivers/CMSIS/Include/cmsis_gcc.h ****   }
1314:Drivers/CMSIS/Include/cmsis_gcc.h ****   return val;
1315:Drivers/CMSIS/Include/cmsis_gcc.h **** }
1316:Drivers/CMSIS/Include/cmsis_gcc.h **** 
1317:Drivers/CMSIS/Include/cmsis_gcc.h **** /**
1318:Drivers/CMSIS/Include/cmsis_gcc.h ****   \brief   Unsigned Saturate
1319:Drivers/CMSIS/Include/cmsis_gcc.h ****   \details Saturates an unsigned value.
1320:Drivers/CMSIS/Include/cmsis_gcc.h ****   \param [in]  value  Value to be saturated
1321:Drivers/CMSIS/Include/cmsis_gcc.h ****   \param [in]    sat  Bit position to saturate to (0..31)
1322:Drivers/CMSIS/Include/cmsis_gcc.h ****   \return             Saturated value
1323:Drivers/CMSIS/Include/cmsis_gcc.h ****  */
1324:Drivers/CMSIS/Include/cmsis_gcc.h **** __STATIC_FORCEINLINE uint32_t __USAT(int32_t val, uint32_t sat)
1325:Drivers/CMSIS/Include/cmsis_gcc.h **** {
1326:Drivers/CMSIS/Include/cmsis_gcc.h ****   if (sat <= 31U)
1327:Drivers/CMSIS/Include/cmsis_gcc.h ****   {
1328:Drivers/CMSIS/Include/cmsis_gcc.h ****     const uint32_t max = ((1U << sat) - 1U);
1329:Drivers/CMSIS/Include/cmsis_gcc.h ****     if (val > (int32_t)max)
1330:Drivers/CMSIS/Include/cmsis_gcc.h ****     {
1331:Drivers/CMSIS/Include/cmsis_gcc.h ****       return max;
1332:Drivers/CMSIS/Include/cmsis_gcc.h ****     }
1333:Drivers/CMSIS/Include/cmsis_gcc.h ****     else if (val < 0)
1334:Drivers/CMSIS/Include/cmsis_gcc.h ****     {
1335:Drivers/CMSIS/Include/cmsis_gcc.h ****       return 0U;
1336:Drivers/CMSIS/Include/cmsis_gcc.h ****     }
1337:Drivers/CMSIS/Include/cmsis_gcc.h ****   }
1338:Drivers/CMSIS/Include/cmsis_gcc.h ****   return (uint32_t)val;
1339:Drivers/CMSIS/Include/cmsis_gcc.h **** }
1340:Drivers/CMSIS/Include/cmsis_gcc.h **** 
1341:Drivers/CMSIS/Include/cmsis_gcc.h **** #endif /* ((defined (__ARM_ARCH_7M__      ) && (__ARM_ARCH_7M__      == 1)) || \
1342:Drivers/CMSIS/Include/cmsis_gcc.h ****            (defined (__ARM_ARCH_7EM__     ) && (__ARM_ARCH_7EM__     == 1)) || \
1343:Drivers/CMSIS/Include/cmsis_gcc.h ****            (defined (__ARM_ARCH_8M_MAIN__ ) && (__ARM_ARCH_8M_MAIN__ == 1))    ) */
1344:Drivers/CMSIS/Include/cmsis_gcc.h **** 
1345:Drivers/CMSIS/Include/cmsis_gcc.h **** 
1346:Drivers/CMSIS/Include/cmsis_gcc.h **** #if ((defined (__ARM_ARCH_8M_MAIN__ ) && (__ARM_ARCH_8M_MAIN__ == 1)) || \
1347:Drivers/CMSIS/Include/cmsis_gcc.h ****      (defined (__ARM_ARCH_8M_BASE__ ) && (__ARM_ARCH_8M_BASE__ == 1))    )
1348:Drivers/CMSIS/Include/cmsis_gcc.h **** /**
1349:Drivers/CMSIS/Include/cmsis_gcc.h ****   \brief   Load-Acquire (8 bit)
1350:Drivers/CMSIS/Include/cmsis_gcc.h ****   \details Executes a LDAB instruction for 8 bit value.
1351:Drivers/CMSIS/Include/cmsis_gcc.h ****   \param [in]    ptr  Pointer to data
1352:Drivers/CMSIS/Include/cmsis_gcc.h ****   \return             value of type uint8_t at (*ptr)
1353:Drivers/CMSIS/Include/cmsis_gcc.h ****  */
1354:Drivers/CMSIS/Include/cmsis_gcc.h **** __STATIC_FORCEINLINE uint8_t __LDAB(volatile uint8_t *ptr)
ARM GAS  /var/folders/n6/c271nzx11xl4r4_m7sqjlt0m0000gn/T//ccJ3qP4w.s 			page 28


1355:Drivers/CMSIS/Include/cmsis_gcc.h **** {
1356:Drivers/CMSIS/Include/cmsis_gcc.h ****     uint32_t result;
1357:Drivers/CMSIS/Include/cmsis_gcc.h **** 
1358:Drivers/CMSIS/Include/cmsis_gcc.h ****    __ASM volatile ("ldab %0, %1" : "=r" (result) : "Q" (*ptr) );
1359:Drivers/CMSIS/Include/cmsis_gcc.h ****    return ((uint8_t) result);
1360:Drivers/CMSIS/Include/cmsis_gcc.h **** }
1361:Drivers/CMSIS/Include/cmsis_gcc.h **** 
1362:Drivers/CMSIS/Include/cmsis_gcc.h **** 
1363:Drivers/CMSIS/Include/cmsis_gcc.h **** /**
1364:Drivers/CMSIS/Include/cmsis_gcc.h ****   \brief   Load-Acquire (16 bit)
1365:Drivers/CMSIS/Include/cmsis_gcc.h ****   \details Executes a LDAH instruction for 16 bit values.
1366:Drivers/CMSIS/Include/cmsis_gcc.h ****   \param [in]    ptr  Pointer to data
1367:Drivers/CMSIS/Include/cmsis_gcc.h ****   \return        value of type uint16_t at (*ptr)
1368:Drivers/CMSIS/Include/cmsis_gcc.h ****  */
1369:Drivers/CMSIS/Include/cmsis_gcc.h **** __STATIC_FORCEINLINE uint16_t __LDAH(volatile uint16_t *ptr)
1370:Drivers/CMSIS/Include/cmsis_gcc.h **** {
1371:Drivers/CMSIS/Include/cmsis_gcc.h ****     uint32_t result;
1372:Drivers/CMSIS/Include/cmsis_gcc.h **** 
1373:Drivers/CMSIS/Include/cmsis_gcc.h ****    __ASM volatile ("ldah %0, %1" : "=r" (result) : "Q" (*ptr) );
1374:Drivers/CMSIS/Include/cmsis_gcc.h ****    return ((uint16_t) result);
1375:Drivers/CMSIS/Include/cmsis_gcc.h **** }
1376:Drivers/CMSIS/Include/cmsis_gcc.h **** 
1377:Drivers/CMSIS/Include/cmsis_gcc.h **** 
1378:Drivers/CMSIS/Include/cmsis_gcc.h **** /**
1379:Drivers/CMSIS/Include/cmsis_gcc.h ****   \brief   Load-Acquire (32 bit)
1380:Drivers/CMSIS/Include/cmsis_gcc.h ****   \details Executes a LDA instruction for 32 bit values.
1381:Drivers/CMSIS/Include/cmsis_gcc.h ****   \param [in]    ptr  Pointer to data
1382:Drivers/CMSIS/Include/cmsis_gcc.h ****   \return        value of type uint32_t at (*ptr)
1383:Drivers/CMSIS/Include/cmsis_gcc.h ****  */
1384:Drivers/CMSIS/Include/cmsis_gcc.h **** __STATIC_FORCEINLINE uint32_t __LDA(volatile uint32_t *ptr)
1385:Drivers/CMSIS/Include/cmsis_gcc.h **** {
1386:Drivers/CMSIS/Include/cmsis_gcc.h ****     uint32_t result;
1387:Drivers/CMSIS/Include/cmsis_gcc.h **** 
1388:Drivers/CMSIS/Include/cmsis_gcc.h ****    __ASM volatile ("lda %0, %1" : "=r" (result) : "Q" (*ptr) );
1389:Drivers/CMSIS/Include/cmsis_gcc.h ****    return(result);
1390:Drivers/CMSIS/Include/cmsis_gcc.h **** }
1391:Drivers/CMSIS/Include/cmsis_gcc.h **** 
1392:Drivers/CMSIS/Include/cmsis_gcc.h **** 
1393:Drivers/CMSIS/Include/cmsis_gcc.h **** /**
1394:Drivers/CMSIS/Include/cmsis_gcc.h ****   \brief   Store-Release (8 bit)
1395:Drivers/CMSIS/Include/cmsis_gcc.h ****   \details Executes a STLB instruction for 8 bit values.
1396:Drivers/CMSIS/Include/cmsis_gcc.h ****   \param [in]  value  Value to store
1397:Drivers/CMSIS/Include/cmsis_gcc.h ****   \param [in]    ptr  Pointer to location
1398:Drivers/CMSIS/Include/cmsis_gcc.h ****  */
1399:Drivers/CMSIS/Include/cmsis_gcc.h **** __STATIC_FORCEINLINE void __STLB(uint8_t value, volatile uint8_t *ptr)
1400:Drivers/CMSIS/Include/cmsis_gcc.h **** {
1401:Drivers/CMSIS/Include/cmsis_gcc.h ****    __ASM volatile ("stlb %1, %0" : "=Q" (*ptr) : "r" ((uint32_t)value) );
1402:Drivers/CMSIS/Include/cmsis_gcc.h **** }
1403:Drivers/CMSIS/Include/cmsis_gcc.h **** 
1404:Drivers/CMSIS/Include/cmsis_gcc.h **** 
1405:Drivers/CMSIS/Include/cmsis_gcc.h **** /**
1406:Drivers/CMSIS/Include/cmsis_gcc.h ****   \brief   Store-Release (16 bit)
1407:Drivers/CMSIS/Include/cmsis_gcc.h ****   \details Executes a STLH instruction for 16 bit values.
1408:Drivers/CMSIS/Include/cmsis_gcc.h ****   \param [in]  value  Value to store
1409:Drivers/CMSIS/Include/cmsis_gcc.h ****   \param [in]    ptr  Pointer to location
1410:Drivers/CMSIS/Include/cmsis_gcc.h ****  */
1411:Drivers/CMSIS/Include/cmsis_gcc.h **** __STATIC_FORCEINLINE void __STLH(uint16_t value, volatile uint16_t *ptr)
ARM GAS  /var/folders/n6/c271nzx11xl4r4_m7sqjlt0m0000gn/T//ccJ3qP4w.s 			page 29


1412:Drivers/CMSIS/Include/cmsis_gcc.h **** {
1413:Drivers/CMSIS/Include/cmsis_gcc.h ****    __ASM volatile ("stlh %1, %0" : "=Q" (*ptr) : "r" ((uint32_t)value) );
1414:Drivers/CMSIS/Include/cmsis_gcc.h **** }
1415:Drivers/CMSIS/Include/cmsis_gcc.h **** 
1416:Drivers/CMSIS/Include/cmsis_gcc.h **** 
1417:Drivers/CMSIS/Include/cmsis_gcc.h **** /**
1418:Drivers/CMSIS/Include/cmsis_gcc.h ****   \brief   Store-Release (32 bit)
1419:Drivers/CMSIS/Include/cmsis_gcc.h ****   \details Executes a STL instruction for 32 bit values.
1420:Drivers/CMSIS/Include/cmsis_gcc.h ****   \param [in]  value  Value to store
1421:Drivers/CMSIS/Include/cmsis_gcc.h ****   \param [in]    ptr  Pointer to location
1422:Drivers/CMSIS/Include/cmsis_gcc.h ****  */
1423:Drivers/CMSIS/Include/cmsis_gcc.h **** __STATIC_FORCEINLINE void __STL(uint32_t value, volatile uint32_t *ptr)
1424:Drivers/CMSIS/Include/cmsis_gcc.h **** {
1425:Drivers/CMSIS/Include/cmsis_gcc.h ****    __ASM volatile ("stl %1, %0" : "=Q" (*ptr) : "r" ((uint32_t)value) );
1426:Drivers/CMSIS/Include/cmsis_gcc.h **** }
1427:Drivers/CMSIS/Include/cmsis_gcc.h **** 
1428:Drivers/CMSIS/Include/cmsis_gcc.h **** 
1429:Drivers/CMSIS/Include/cmsis_gcc.h **** /**
1430:Drivers/CMSIS/Include/cmsis_gcc.h ****   \brief   Load-Acquire Exclusive (8 bit)
1431:Drivers/CMSIS/Include/cmsis_gcc.h ****   \details Executes a LDAB exclusive instruction for 8 bit value.
1432:Drivers/CMSIS/Include/cmsis_gcc.h ****   \param [in]    ptr  Pointer to data
1433:Drivers/CMSIS/Include/cmsis_gcc.h ****   \return             value of type uint8_t at (*ptr)
1434:Drivers/CMSIS/Include/cmsis_gcc.h ****  */
1435:Drivers/CMSIS/Include/cmsis_gcc.h **** __STATIC_FORCEINLINE uint8_t __LDAEXB(volatile uint8_t *ptr)
1436:Drivers/CMSIS/Include/cmsis_gcc.h **** {
1437:Drivers/CMSIS/Include/cmsis_gcc.h ****     uint32_t result;
1438:Drivers/CMSIS/Include/cmsis_gcc.h **** 
1439:Drivers/CMSIS/Include/cmsis_gcc.h ****    __ASM volatile ("ldaexb %0, %1" : "=r" (result) : "Q" (*ptr) );
1440:Drivers/CMSIS/Include/cmsis_gcc.h ****    return ((uint8_t) result);
1441:Drivers/CMSIS/Include/cmsis_gcc.h **** }
1442:Drivers/CMSIS/Include/cmsis_gcc.h **** 
1443:Drivers/CMSIS/Include/cmsis_gcc.h **** 
1444:Drivers/CMSIS/Include/cmsis_gcc.h **** /**
1445:Drivers/CMSIS/Include/cmsis_gcc.h ****   \brief   Load-Acquire Exclusive (16 bit)
1446:Drivers/CMSIS/Include/cmsis_gcc.h ****   \details Executes a LDAH exclusive instruction for 16 bit values.
1447:Drivers/CMSIS/Include/cmsis_gcc.h ****   \param [in]    ptr  Pointer to data
1448:Drivers/CMSIS/Include/cmsis_gcc.h ****   \return        value of type uint16_t at (*ptr)
1449:Drivers/CMSIS/Include/cmsis_gcc.h ****  */
1450:Drivers/CMSIS/Include/cmsis_gcc.h **** __STATIC_FORCEINLINE uint16_t __LDAEXH(volatile uint16_t *ptr)
1451:Drivers/CMSIS/Include/cmsis_gcc.h **** {
1452:Drivers/CMSIS/Include/cmsis_gcc.h ****     uint32_t result;
1453:Drivers/CMSIS/Include/cmsis_gcc.h **** 
1454:Drivers/CMSIS/Include/cmsis_gcc.h ****    __ASM volatile ("ldaexh %0, %1" : "=r" (result) : "Q" (*ptr) );
1455:Drivers/CMSIS/Include/cmsis_gcc.h ****    return ((uint16_t) result);
1456:Drivers/CMSIS/Include/cmsis_gcc.h **** }
1457:Drivers/CMSIS/Include/cmsis_gcc.h **** 
1458:Drivers/CMSIS/Include/cmsis_gcc.h **** 
1459:Drivers/CMSIS/Include/cmsis_gcc.h **** /**
1460:Drivers/CMSIS/Include/cmsis_gcc.h ****   \brief   Load-Acquire Exclusive (32 bit)
1461:Drivers/CMSIS/Include/cmsis_gcc.h ****   \details Executes a LDA exclusive instruction for 32 bit values.
1462:Drivers/CMSIS/Include/cmsis_gcc.h ****   \param [in]    ptr  Pointer to data
1463:Drivers/CMSIS/Include/cmsis_gcc.h ****   \return        value of type uint32_t at (*ptr)
1464:Drivers/CMSIS/Include/cmsis_gcc.h ****  */
1465:Drivers/CMSIS/Include/cmsis_gcc.h **** __STATIC_FORCEINLINE uint32_t __LDAEX(volatile uint32_t *ptr)
1466:Drivers/CMSIS/Include/cmsis_gcc.h **** {
1467:Drivers/CMSIS/Include/cmsis_gcc.h ****     uint32_t result;
1468:Drivers/CMSIS/Include/cmsis_gcc.h **** 
ARM GAS  /var/folders/n6/c271nzx11xl4r4_m7sqjlt0m0000gn/T//ccJ3qP4w.s 			page 30


1469:Drivers/CMSIS/Include/cmsis_gcc.h ****    __ASM volatile ("ldaex %0, %1" : "=r" (result) : "Q" (*ptr) );
1470:Drivers/CMSIS/Include/cmsis_gcc.h ****    return(result);
1471:Drivers/CMSIS/Include/cmsis_gcc.h **** }
1472:Drivers/CMSIS/Include/cmsis_gcc.h **** 
1473:Drivers/CMSIS/Include/cmsis_gcc.h **** 
1474:Drivers/CMSIS/Include/cmsis_gcc.h **** /**
1475:Drivers/CMSIS/Include/cmsis_gcc.h ****   \brief   Store-Release Exclusive (8 bit)
1476:Drivers/CMSIS/Include/cmsis_gcc.h ****   \details Executes a STLB exclusive instruction for 8 bit values.
1477:Drivers/CMSIS/Include/cmsis_gcc.h ****   \param [in]  value  Value to store
1478:Drivers/CMSIS/Include/cmsis_gcc.h ****   \param [in]    ptr  Pointer to location
1479:Drivers/CMSIS/Include/cmsis_gcc.h ****   \return          0  Function succeeded
1480:Drivers/CMSIS/Include/cmsis_gcc.h ****   \return          1  Function failed
1481:Drivers/CMSIS/Include/cmsis_gcc.h ****  */
1482:Drivers/CMSIS/Include/cmsis_gcc.h **** __STATIC_FORCEINLINE uint32_t __STLEXB(uint8_t value, volatile uint8_t *ptr)
1483:Drivers/CMSIS/Include/cmsis_gcc.h **** {
1484:Drivers/CMSIS/Include/cmsis_gcc.h ****    uint32_t result;
1485:Drivers/CMSIS/Include/cmsis_gcc.h **** 
1486:Drivers/CMSIS/Include/cmsis_gcc.h ****    __ASM volatile ("stlexb %0, %2, %1" : "=&r" (result), "=Q" (*ptr) : "r" ((uint32_t)value) );
1487:Drivers/CMSIS/Include/cmsis_gcc.h ****    return(result);
1488:Drivers/CMSIS/Include/cmsis_gcc.h **** }
1489:Drivers/CMSIS/Include/cmsis_gcc.h **** 
1490:Drivers/CMSIS/Include/cmsis_gcc.h **** 
1491:Drivers/CMSIS/Include/cmsis_gcc.h **** /**
1492:Drivers/CMSIS/Include/cmsis_gcc.h ****   \brief   Store-Release Exclusive (16 bit)
1493:Drivers/CMSIS/Include/cmsis_gcc.h ****   \details Executes a STLH exclusive instruction for 16 bit values.
1494:Drivers/CMSIS/Include/cmsis_gcc.h ****   \param [in]  value  Value to store
1495:Drivers/CMSIS/Include/cmsis_gcc.h ****   \param [in]    ptr  Pointer to location
1496:Drivers/CMSIS/Include/cmsis_gcc.h ****   \return          0  Function succeeded
1497:Drivers/CMSIS/Include/cmsis_gcc.h ****   \return          1  Function failed
1498:Drivers/CMSIS/Include/cmsis_gcc.h ****  */
1499:Drivers/CMSIS/Include/cmsis_gcc.h **** __STATIC_FORCEINLINE uint32_t __STLEXH(uint16_t value, volatile uint16_t *ptr)
1500:Drivers/CMSIS/Include/cmsis_gcc.h **** {
1501:Drivers/CMSIS/Include/cmsis_gcc.h ****    uint32_t result;
1502:Drivers/CMSIS/Include/cmsis_gcc.h **** 
1503:Drivers/CMSIS/Include/cmsis_gcc.h ****    __ASM volatile ("stlexh %0, %2, %1" : "=&r" (result), "=Q" (*ptr) : "r" ((uint32_t)value) );
1504:Drivers/CMSIS/Include/cmsis_gcc.h ****    return(result);
1505:Drivers/CMSIS/Include/cmsis_gcc.h **** }
1506:Drivers/CMSIS/Include/cmsis_gcc.h **** 
1507:Drivers/CMSIS/Include/cmsis_gcc.h **** 
1508:Drivers/CMSIS/Include/cmsis_gcc.h **** /**
1509:Drivers/CMSIS/Include/cmsis_gcc.h ****   \brief   Store-Release Exclusive (32 bit)
1510:Drivers/CMSIS/Include/cmsis_gcc.h ****   \details Executes a STL exclusive instruction for 32 bit values.
1511:Drivers/CMSIS/Include/cmsis_gcc.h ****   \param [in]  value  Value to store
1512:Drivers/CMSIS/Include/cmsis_gcc.h ****   \param [in]    ptr  Pointer to location
1513:Drivers/CMSIS/Include/cmsis_gcc.h ****   \return          0  Function succeeded
1514:Drivers/CMSIS/Include/cmsis_gcc.h ****   \return          1  Function failed
1515:Drivers/CMSIS/Include/cmsis_gcc.h ****  */
1516:Drivers/CMSIS/Include/cmsis_gcc.h **** __STATIC_FORCEINLINE uint32_t __STLEX(uint32_t value, volatile uint32_t *ptr)
1517:Drivers/CMSIS/Include/cmsis_gcc.h **** {
1518:Drivers/CMSIS/Include/cmsis_gcc.h ****    uint32_t result;
1519:Drivers/CMSIS/Include/cmsis_gcc.h **** 
1520:Drivers/CMSIS/Include/cmsis_gcc.h ****    __ASM volatile ("stlex %0, %2, %1" : "=&r" (result), "=Q" (*ptr) : "r" ((uint32_t)value) );
1521:Drivers/CMSIS/Include/cmsis_gcc.h ****    return(result);
1522:Drivers/CMSIS/Include/cmsis_gcc.h **** }
1523:Drivers/CMSIS/Include/cmsis_gcc.h **** 
1524:Drivers/CMSIS/Include/cmsis_gcc.h **** #endif /* ((defined (__ARM_ARCH_8M_MAIN__ ) && (__ARM_ARCH_8M_MAIN__ == 1)) || \
1525:Drivers/CMSIS/Include/cmsis_gcc.h ****            (defined (__ARM_ARCH_8M_BASE__ ) && (__ARM_ARCH_8M_BASE__ == 1))    ) */
ARM GAS  /var/folders/n6/c271nzx11xl4r4_m7sqjlt0m0000gn/T//ccJ3qP4w.s 			page 31


1526:Drivers/CMSIS/Include/cmsis_gcc.h **** 
1527:Drivers/CMSIS/Include/cmsis_gcc.h **** /*@}*/ /* end of group CMSIS_Core_InstructionInterface */
1528:Drivers/CMSIS/Include/cmsis_gcc.h **** 
1529:Drivers/CMSIS/Include/cmsis_gcc.h **** 
1530:Drivers/CMSIS/Include/cmsis_gcc.h **** /* ###################  Compiler specific Intrinsics  ########################### */
1531:Drivers/CMSIS/Include/cmsis_gcc.h **** /** \defgroup CMSIS_SIMD_intrinsics CMSIS SIMD Intrinsics
1532:Drivers/CMSIS/Include/cmsis_gcc.h ****   Access to dedicated SIMD instructions
1533:Drivers/CMSIS/Include/cmsis_gcc.h ****   @{
1534:Drivers/CMSIS/Include/cmsis_gcc.h **** */
1535:Drivers/CMSIS/Include/cmsis_gcc.h **** 
1536:Drivers/CMSIS/Include/cmsis_gcc.h **** #if (defined (__ARM_FEATURE_DSP) && (__ARM_FEATURE_DSP == 1))
1537:Drivers/CMSIS/Include/cmsis_gcc.h **** 
1538:Drivers/CMSIS/Include/cmsis_gcc.h **** __STATIC_FORCEINLINE uint32_t __SADD8(uint32_t op1, uint32_t op2)
1539:Drivers/CMSIS/Include/cmsis_gcc.h **** {
1540:Drivers/CMSIS/Include/cmsis_gcc.h ****   uint32_t result;
1541:Drivers/CMSIS/Include/cmsis_gcc.h **** 
1542:Drivers/CMSIS/Include/cmsis_gcc.h ****   __ASM volatile ("sadd8 %0, %1, %2" : "=r" (result) : "r" (op1), "r" (op2) );
1543:Drivers/CMSIS/Include/cmsis_gcc.h ****   return(result);
1544:Drivers/CMSIS/Include/cmsis_gcc.h **** }
1545:Drivers/CMSIS/Include/cmsis_gcc.h **** 
1546:Drivers/CMSIS/Include/cmsis_gcc.h **** __STATIC_FORCEINLINE uint32_t __QADD8(uint32_t op1, uint32_t op2)
1547:Drivers/CMSIS/Include/cmsis_gcc.h **** {
1548:Drivers/CMSIS/Include/cmsis_gcc.h ****   uint32_t result;
1549:Drivers/CMSIS/Include/cmsis_gcc.h **** 
1550:Drivers/CMSIS/Include/cmsis_gcc.h ****   __ASM volatile ("qadd8 %0, %1, %2" : "=r" (result) : "r" (op1), "r" (op2) );
1551:Drivers/CMSIS/Include/cmsis_gcc.h ****   return(result);
1552:Drivers/CMSIS/Include/cmsis_gcc.h **** }
1553:Drivers/CMSIS/Include/cmsis_gcc.h **** 
1554:Drivers/CMSIS/Include/cmsis_gcc.h **** __STATIC_FORCEINLINE uint32_t __SHADD8(uint32_t op1, uint32_t op2)
1555:Drivers/CMSIS/Include/cmsis_gcc.h **** {
1556:Drivers/CMSIS/Include/cmsis_gcc.h ****   uint32_t result;
1557:Drivers/CMSIS/Include/cmsis_gcc.h **** 
1558:Drivers/CMSIS/Include/cmsis_gcc.h ****   __ASM volatile ("shadd8 %0, %1, %2" : "=r" (result) : "r" (op1), "r" (op2) );
1559:Drivers/CMSIS/Include/cmsis_gcc.h ****   return(result);
1560:Drivers/CMSIS/Include/cmsis_gcc.h **** }
1561:Drivers/CMSIS/Include/cmsis_gcc.h **** 
1562:Drivers/CMSIS/Include/cmsis_gcc.h **** __STATIC_FORCEINLINE uint32_t __UADD8(uint32_t op1, uint32_t op2)
1563:Drivers/CMSIS/Include/cmsis_gcc.h **** {
1564:Drivers/CMSIS/Include/cmsis_gcc.h ****   uint32_t result;
1565:Drivers/CMSIS/Include/cmsis_gcc.h **** 
1566:Drivers/CMSIS/Include/cmsis_gcc.h ****   __ASM volatile ("uadd8 %0, %1, %2" : "=r" (result) : "r" (op1), "r" (op2) );
1567:Drivers/CMSIS/Include/cmsis_gcc.h ****   return(result);
1568:Drivers/CMSIS/Include/cmsis_gcc.h **** }
1569:Drivers/CMSIS/Include/cmsis_gcc.h **** 
1570:Drivers/CMSIS/Include/cmsis_gcc.h **** __STATIC_FORCEINLINE uint32_t __UQADD8(uint32_t op1, uint32_t op2)
1571:Drivers/CMSIS/Include/cmsis_gcc.h **** {
1572:Drivers/CMSIS/Include/cmsis_gcc.h ****   uint32_t result;
1573:Drivers/CMSIS/Include/cmsis_gcc.h **** 
1574:Drivers/CMSIS/Include/cmsis_gcc.h ****   __ASM volatile ("uqadd8 %0, %1, %2" : "=r" (result) : "r" (op1), "r" (op2) );
1575:Drivers/CMSIS/Include/cmsis_gcc.h ****   return(result);
1576:Drivers/CMSIS/Include/cmsis_gcc.h **** }
1577:Drivers/CMSIS/Include/cmsis_gcc.h **** 
1578:Drivers/CMSIS/Include/cmsis_gcc.h **** __STATIC_FORCEINLINE uint32_t __UHADD8(uint32_t op1, uint32_t op2)
1579:Drivers/CMSIS/Include/cmsis_gcc.h **** {
1580:Drivers/CMSIS/Include/cmsis_gcc.h ****   uint32_t result;
1581:Drivers/CMSIS/Include/cmsis_gcc.h **** 
1582:Drivers/CMSIS/Include/cmsis_gcc.h ****   __ASM volatile ("uhadd8 %0, %1, %2" : "=r" (result) : "r" (op1), "r" (op2) );
ARM GAS  /var/folders/n6/c271nzx11xl4r4_m7sqjlt0m0000gn/T//ccJ3qP4w.s 			page 32


1583:Drivers/CMSIS/Include/cmsis_gcc.h ****   return(result);
1584:Drivers/CMSIS/Include/cmsis_gcc.h **** }
1585:Drivers/CMSIS/Include/cmsis_gcc.h **** 
1586:Drivers/CMSIS/Include/cmsis_gcc.h **** 
1587:Drivers/CMSIS/Include/cmsis_gcc.h **** __STATIC_FORCEINLINE uint32_t __SSUB8(uint32_t op1, uint32_t op2)
1588:Drivers/CMSIS/Include/cmsis_gcc.h **** {
1589:Drivers/CMSIS/Include/cmsis_gcc.h ****   uint32_t result;
1590:Drivers/CMSIS/Include/cmsis_gcc.h **** 
1591:Drivers/CMSIS/Include/cmsis_gcc.h ****   __ASM volatile ("ssub8 %0, %1, %2" : "=r" (result) : "r" (op1), "r" (op2) );
1592:Drivers/CMSIS/Include/cmsis_gcc.h ****   return(result);
1593:Drivers/CMSIS/Include/cmsis_gcc.h **** }
1594:Drivers/CMSIS/Include/cmsis_gcc.h **** 
1595:Drivers/CMSIS/Include/cmsis_gcc.h **** __STATIC_FORCEINLINE uint32_t __QSUB8(uint32_t op1, uint32_t op2)
1596:Drivers/CMSIS/Include/cmsis_gcc.h **** {
1597:Drivers/CMSIS/Include/cmsis_gcc.h ****   uint32_t result;
1598:Drivers/CMSIS/Include/cmsis_gcc.h **** 
1599:Drivers/CMSIS/Include/cmsis_gcc.h ****   __ASM volatile ("qsub8 %0, %1, %2" : "=r" (result) : "r" (op1), "r" (op2) );
1600:Drivers/CMSIS/Include/cmsis_gcc.h ****   return(result);
1601:Drivers/CMSIS/Include/cmsis_gcc.h **** }
1602:Drivers/CMSIS/Include/cmsis_gcc.h **** 
1603:Drivers/CMSIS/Include/cmsis_gcc.h **** __STATIC_FORCEINLINE uint32_t __SHSUB8(uint32_t op1, uint32_t op2)
1604:Drivers/CMSIS/Include/cmsis_gcc.h **** {
1605:Drivers/CMSIS/Include/cmsis_gcc.h ****   uint32_t result;
1606:Drivers/CMSIS/Include/cmsis_gcc.h **** 
1607:Drivers/CMSIS/Include/cmsis_gcc.h ****   __ASM volatile ("shsub8 %0, %1, %2" : "=r" (result) : "r" (op1), "r" (op2) );
1608:Drivers/CMSIS/Include/cmsis_gcc.h ****   return(result);
1609:Drivers/CMSIS/Include/cmsis_gcc.h **** }
1610:Drivers/CMSIS/Include/cmsis_gcc.h **** 
1611:Drivers/CMSIS/Include/cmsis_gcc.h **** __STATIC_FORCEINLINE uint32_t __USUB8(uint32_t op1, uint32_t op2)
1612:Drivers/CMSIS/Include/cmsis_gcc.h **** {
1613:Drivers/CMSIS/Include/cmsis_gcc.h ****   uint32_t result;
1614:Drivers/CMSIS/Include/cmsis_gcc.h **** 
1615:Drivers/CMSIS/Include/cmsis_gcc.h ****   __ASM volatile ("usub8 %0, %1, %2" : "=r" (result) : "r" (op1), "r" (op2) );
1616:Drivers/CMSIS/Include/cmsis_gcc.h ****   return(result);
1617:Drivers/CMSIS/Include/cmsis_gcc.h **** }
1618:Drivers/CMSIS/Include/cmsis_gcc.h **** 
1619:Drivers/CMSIS/Include/cmsis_gcc.h **** __STATIC_FORCEINLINE uint32_t __UQSUB8(uint32_t op1, uint32_t op2)
1620:Drivers/CMSIS/Include/cmsis_gcc.h **** {
1621:Drivers/CMSIS/Include/cmsis_gcc.h ****   uint32_t result;
1622:Drivers/CMSIS/Include/cmsis_gcc.h **** 
1623:Drivers/CMSIS/Include/cmsis_gcc.h ****   __ASM volatile ("uqsub8 %0, %1, %2" : "=r" (result) : "r" (op1), "r" (op2) );
1624:Drivers/CMSIS/Include/cmsis_gcc.h ****   return(result);
1625:Drivers/CMSIS/Include/cmsis_gcc.h **** }
1626:Drivers/CMSIS/Include/cmsis_gcc.h **** 
1627:Drivers/CMSIS/Include/cmsis_gcc.h **** __STATIC_FORCEINLINE uint32_t __UHSUB8(uint32_t op1, uint32_t op2)
1628:Drivers/CMSIS/Include/cmsis_gcc.h **** {
1629:Drivers/CMSIS/Include/cmsis_gcc.h ****   uint32_t result;
1630:Drivers/CMSIS/Include/cmsis_gcc.h **** 
1631:Drivers/CMSIS/Include/cmsis_gcc.h ****   __ASM volatile ("uhsub8 %0, %1, %2" : "=r" (result) : "r" (op1), "r" (op2) );
1632:Drivers/CMSIS/Include/cmsis_gcc.h ****   return(result);
1633:Drivers/CMSIS/Include/cmsis_gcc.h **** }
1634:Drivers/CMSIS/Include/cmsis_gcc.h **** 
1635:Drivers/CMSIS/Include/cmsis_gcc.h **** 
1636:Drivers/CMSIS/Include/cmsis_gcc.h **** __STATIC_FORCEINLINE uint32_t __SADD16(uint32_t op1, uint32_t op2)
1637:Drivers/CMSIS/Include/cmsis_gcc.h **** {
1638:Drivers/CMSIS/Include/cmsis_gcc.h ****   uint32_t result;
1639:Drivers/CMSIS/Include/cmsis_gcc.h **** 
ARM GAS  /var/folders/n6/c271nzx11xl4r4_m7sqjlt0m0000gn/T//ccJ3qP4w.s 			page 33


1640:Drivers/CMSIS/Include/cmsis_gcc.h ****   __ASM volatile ("sadd16 %0, %1, %2" : "=r" (result) : "r" (op1), "r" (op2) );
1641:Drivers/CMSIS/Include/cmsis_gcc.h ****   return(result);
1642:Drivers/CMSIS/Include/cmsis_gcc.h **** }
1643:Drivers/CMSIS/Include/cmsis_gcc.h **** 
1644:Drivers/CMSIS/Include/cmsis_gcc.h **** __STATIC_FORCEINLINE uint32_t __QADD16(uint32_t op1, uint32_t op2)
1645:Drivers/CMSIS/Include/cmsis_gcc.h **** {
1646:Drivers/CMSIS/Include/cmsis_gcc.h ****   uint32_t result;
1647:Drivers/CMSIS/Include/cmsis_gcc.h **** 
1648:Drivers/CMSIS/Include/cmsis_gcc.h ****   __ASM volatile ("qadd16 %0, %1, %2" : "=r" (result) : "r" (op1), "r" (op2) );
1649:Drivers/CMSIS/Include/cmsis_gcc.h ****   return(result);
1650:Drivers/CMSIS/Include/cmsis_gcc.h **** }
1651:Drivers/CMSIS/Include/cmsis_gcc.h **** 
1652:Drivers/CMSIS/Include/cmsis_gcc.h **** __STATIC_FORCEINLINE uint32_t __SHADD16(uint32_t op1, uint32_t op2)
1653:Drivers/CMSIS/Include/cmsis_gcc.h **** {
1654:Drivers/CMSIS/Include/cmsis_gcc.h ****   uint32_t result;
1655:Drivers/CMSIS/Include/cmsis_gcc.h **** 
1656:Drivers/CMSIS/Include/cmsis_gcc.h ****   __ASM volatile ("shadd16 %0, %1, %2" : "=r" (result) : "r" (op1), "r" (op2) );
1657:Drivers/CMSIS/Include/cmsis_gcc.h ****   return(result);
1658:Drivers/CMSIS/Include/cmsis_gcc.h **** }
1659:Drivers/CMSIS/Include/cmsis_gcc.h **** 
1660:Drivers/CMSIS/Include/cmsis_gcc.h **** __STATIC_FORCEINLINE uint32_t __UADD16(uint32_t op1, uint32_t op2)
1661:Drivers/CMSIS/Include/cmsis_gcc.h **** {
1662:Drivers/CMSIS/Include/cmsis_gcc.h ****   uint32_t result;
1663:Drivers/CMSIS/Include/cmsis_gcc.h **** 
1664:Drivers/CMSIS/Include/cmsis_gcc.h ****   __ASM volatile ("uadd16 %0, %1, %2" : "=r" (result) : "r" (op1), "r" (op2) );
1665:Drivers/CMSIS/Include/cmsis_gcc.h ****   return(result);
1666:Drivers/CMSIS/Include/cmsis_gcc.h **** }
1667:Drivers/CMSIS/Include/cmsis_gcc.h **** 
1668:Drivers/CMSIS/Include/cmsis_gcc.h **** __STATIC_FORCEINLINE uint32_t __UQADD16(uint32_t op1, uint32_t op2)
1669:Drivers/CMSIS/Include/cmsis_gcc.h **** {
1670:Drivers/CMSIS/Include/cmsis_gcc.h ****   uint32_t result;
1671:Drivers/CMSIS/Include/cmsis_gcc.h **** 
1672:Drivers/CMSIS/Include/cmsis_gcc.h ****   __ASM volatile ("uqadd16 %0, %1, %2" : "=r" (result) : "r" (op1), "r" (op2) );
1673:Drivers/CMSIS/Include/cmsis_gcc.h ****   return(result);
1674:Drivers/CMSIS/Include/cmsis_gcc.h **** }
1675:Drivers/CMSIS/Include/cmsis_gcc.h **** 
1676:Drivers/CMSIS/Include/cmsis_gcc.h **** __STATIC_FORCEINLINE uint32_t __UHADD16(uint32_t op1, uint32_t op2)
1677:Drivers/CMSIS/Include/cmsis_gcc.h **** {
1678:Drivers/CMSIS/Include/cmsis_gcc.h ****   uint32_t result;
1679:Drivers/CMSIS/Include/cmsis_gcc.h **** 
1680:Drivers/CMSIS/Include/cmsis_gcc.h ****   __ASM volatile ("uhadd16 %0, %1, %2" : "=r" (result) : "r" (op1), "r" (op2) );
1681:Drivers/CMSIS/Include/cmsis_gcc.h ****   return(result);
1682:Drivers/CMSIS/Include/cmsis_gcc.h **** }
1683:Drivers/CMSIS/Include/cmsis_gcc.h **** 
1684:Drivers/CMSIS/Include/cmsis_gcc.h **** __STATIC_FORCEINLINE uint32_t __SSUB16(uint32_t op1, uint32_t op2)
1685:Drivers/CMSIS/Include/cmsis_gcc.h **** {
1686:Drivers/CMSIS/Include/cmsis_gcc.h ****   uint32_t result;
1687:Drivers/CMSIS/Include/cmsis_gcc.h **** 
1688:Drivers/CMSIS/Include/cmsis_gcc.h ****   __ASM volatile ("ssub16 %0, %1, %2" : "=r" (result) : "r" (op1), "r" (op2) );
1689:Drivers/CMSIS/Include/cmsis_gcc.h ****   return(result);
1690:Drivers/CMSIS/Include/cmsis_gcc.h **** }
1691:Drivers/CMSIS/Include/cmsis_gcc.h **** 
1692:Drivers/CMSIS/Include/cmsis_gcc.h **** __STATIC_FORCEINLINE uint32_t __QSUB16(uint32_t op1, uint32_t op2)
1693:Drivers/CMSIS/Include/cmsis_gcc.h **** {
1694:Drivers/CMSIS/Include/cmsis_gcc.h ****   uint32_t result;
1695:Drivers/CMSIS/Include/cmsis_gcc.h **** 
1696:Drivers/CMSIS/Include/cmsis_gcc.h ****   __ASM volatile ("qsub16 %0, %1, %2" : "=r" (result) : "r" (op1), "r" (op2) );
ARM GAS  /var/folders/n6/c271nzx11xl4r4_m7sqjlt0m0000gn/T//ccJ3qP4w.s 			page 34


1697:Drivers/CMSIS/Include/cmsis_gcc.h ****   return(result);
1698:Drivers/CMSIS/Include/cmsis_gcc.h **** }
1699:Drivers/CMSIS/Include/cmsis_gcc.h **** 
1700:Drivers/CMSIS/Include/cmsis_gcc.h **** __STATIC_FORCEINLINE uint32_t __SHSUB16(uint32_t op1, uint32_t op2)
1701:Drivers/CMSIS/Include/cmsis_gcc.h **** {
1702:Drivers/CMSIS/Include/cmsis_gcc.h ****   uint32_t result;
1703:Drivers/CMSIS/Include/cmsis_gcc.h **** 
1704:Drivers/CMSIS/Include/cmsis_gcc.h ****   __ASM volatile ("shsub16 %0, %1, %2" : "=r" (result) : "r" (op1), "r" (op2) );
1705:Drivers/CMSIS/Include/cmsis_gcc.h ****   return(result);
1706:Drivers/CMSIS/Include/cmsis_gcc.h **** }
1707:Drivers/CMSIS/Include/cmsis_gcc.h **** 
1708:Drivers/CMSIS/Include/cmsis_gcc.h **** __STATIC_FORCEINLINE uint32_t __USUB16(uint32_t op1, uint32_t op2)
1709:Drivers/CMSIS/Include/cmsis_gcc.h **** {
1710:Drivers/CMSIS/Include/cmsis_gcc.h ****   uint32_t result;
1711:Drivers/CMSIS/Include/cmsis_gcc.h **** 
1712:Drivers/CMSIS/Include/cmsis_gcc.h ****   __ASM volatile ("usub16 %0, %1, %2" : "=r" (result) : "r" (op1), "r" (op2) );
1713:Drivers/CMSIS/Include/cmsis_gcc.h ****   return(result);
1714:Drivers/CMSIS/Include/cmsis_gcc.h **** }
1715:Drivers/CMSIS/Include/cmsis_gcc.h **** 
1716:Drivers/CMSIS/Include/cmsis_gcc.h **** __STATIC_FORCEINLINE uint32_t __UQSUB16(uint32_t op1, uint32_t op2)
1717:Drivers/CMSIS/Include/cmsis_gcc.h **** {
1718:Drivers/CMSIS/Include/cmsis_gcc.h ****   uint32_t result;
1719:Drivers/CMSIS/Include/cmsis_gcc.h **** 
1720:Drivers/CMSIS/Include/cmsis_gcc.h ****   __ASM volatile ("uqsub16 %0, %1, %2" : "=r" (result) : "r" (op1), "r" (op2) );
1721:Drivers/CMSIS/Include/cmsis_gcc.h ****   return(result);
1722:Drivers/CMSIS/Include/cmsis_gcc.h **** }
1723:Drivers/CMSIS/Include/cmsis_gcc.h **** 
1724:Drivers/CMSIS/Include/cmsis_gcc.h **** __STATIC_FORCEINLINE uint32_t __UHSUB16(uint32_t op1, uint32_t op2)
1725:Drivers/CMSIS/Include/cmsis_gcc.h **** {
1726:Drivers/CMSIS/Include/cmsis_gcc.h ****   uint32_t result;
1727:Drivers/CMSIS/Include/cmsis_gcc.h **** 
1728:Drivers/CMSIS/Include/cmsis_gcc.h ****   __ASM volatile ("uhsub16 %0, %1, %2" : "=r" (result) : "r" (op1), "r" (op2) );
1729:Drivers/CMSIS/Include/cmsis_gcc.h ****   return(result);
1730:Drivers/CMSIS/Include/cmsis_gcc.h **** }
1731:Drivers/CMSIS/Include/cmsis_gcc.h **** 
1732:Drivers/CMSIS/Include/cmsis_gcc.h **** __STATIC_FORCEINLINE uint32_t __SASX(uint32_t op1, uint32_t op2)
1733:Drivers/CMSIS/Include/cmsis_gcc.h **** {
1734:Drivers/CMSIS/Include/cmsis_gcc.h ****   uint32_t result;
1735:Drivers/CMSIS/Include/cmsis_gcc.h **** 
1736:Drivers/CMSIS/Include/cmsis_gcc.h ****   __ASM volatile ("sasx %0, %1, %2" : "=r" (result) : "r" (op1), "r" (op2) );
1737:Drivers/CMSIS/Include/cmsis_gcc.h ****   return(result);
1738:Drivers/CMSIS/Include/cmsis_gcc.h **** }
1739:Drivers/CMSIS/Include/cmsis_gcc.h **** 
1740:Drivers/CMSIS/Include/cmsis_gcc.h **** __STATIC_FORCEINLINE uint32_t __QASX(uint32_t op1, uint32_t op2)
1741:Drivers/CMSIS/Include/cmsis_gcc.h **** {
1742:Drivers/CMSIS/Include/cmsis_gcc.h ****   uint32_t result;
1743:Drivers/CMSIS/Include/cmsis_gcc.h **** 
1744:Drivers/CMSIS/Include/cmsis_gcc.h ****   __ASM volatile ("qasx %0, %1, %2" : "=r" (result) : "r" (op1), "r" (op2) );
1745:Drivers/CMSIS/Include/cmsis_gcc.h ****   return(result);
1746:Drivers/CMSIS/Include/cmsis_gcc.h **** }
1747:Drivers/CMSIS/Include/cmsis_gcc.h **** 
1748:Drivers/CMSIS/Include/cmsis_gcc.h **** __STATIC_FORCEINLINE uint32_t __SHASX(uint32_t op1, uint32_t op2)
1749:Drivers/CMSIS/Include/cmsis_gcc.h **** {
1750:Drivers/CMSIS/Include/cmsis_gcc.h ****   uint32_t result;
1751:Drivers/CMSIS/Include/cmsis_gcc.h **** 
1752:Drivers/CMSIS/Include/cmsis_gcc.h ****   __ASM volatile ("shasx %0, %1, %2" : "=r" (result) : "r" (op1), "r" (op2) );
1753:Drivers/CMSIS/Include/cmsis_gcc.h ****   return(result);
ARM GAS  /var/folders/n6/c271nzx11xl4r4_m7sqjlt0m0000gn/T//ccJ3qP4w.s 			page 35


1754:Drivers/CMSIS/Include/cmsis_gcc.h **** }
1755:Drivers/CMSIS/Include/cmsis_gcc.h **** 
1756:Drivers/CMSIS/Include/cmsis_gcc.h **** __STATIC_FORCEINLINE uint32_t __UASX(uint32_t op1, uint32_t op2)
1757:Drivers/CMSIS/Include/cmsis_gcc.h **** {
1758:Drivers/CMSIS/Include/cmsis_gcc.h ****   uint32_t result;
1759:Drivers/CMSIS/Include/cmsis_gcc.h **** 
1760:Drivers/CMSIS/Include/cmsis_gcc.h ****   __ASM volatile ("uasx %0, %1, %2" : "=r" (result) : "r" (op1), "r" (op2) );
1761:Drivers/CMSIS/Include/cmsis_gcc.h ****   return(result);
1762:Drivers/CMSIS/Include/cmsis_gcc.h **** }
1763:Drivers/CMSIS/Include/cmsis_gcc.h **** 
1764:Drivers/CMSIS/Include/cmsis_gcc.h **** __STATIC_FORCEINLINE uint32_t __UQASX(uint32_t op1, uint32_t op2)
1765:Drivers/CMSIS/Include/cmsis_gcc.h **** {
1766:Drivers/CMSIS/Include/cmsis_gcc.h ****   uint32_t result;
1767:Drivers/CMSIS/Include/cmsis_gcc.h **** 
1768:Drivers/CMSIS/Include/cmsis_gcc.h ****   __ASM volatile ("uqasx %0, %1, %2" : "=r" (result) : "r" (op1), "r" (op2) );
1769:Drivers/CMSIS/Include/cmsis_gcc.h ****   return(result);
1770:Drivers/CMSIS/Include/cmsis_gcc.h **** }
1771:Drivers/CMSIS/Include/cmsis_gcc.h **** 
1772:Drivers/CMSIS/Include/cmsis_gcc.h **** __STATIC_FORCEINLINE uint32_t __UHASX(uint32_t op1, uint32_t op2)
1773:Drivers/CMSIS/Include/cmsis_gcc.h **** {
1774:Drivers/CMSIS/Include/cmsis_gcc.h ****   uint32_t result;
1775:Drivers/CMSIS/Include/cmsis_gcc.h **** 
1776:Drivers/CMSIS/Include/cmsis_gcc.h ****   __ASM volatile ("uhasx %0, %1, %2" : "=r" (result) : "r" (op1), "r" (op2) );
1777:Drivers/CMSIS/Include/cmsis_gcc.h ****   return(result);
1778:Drivers/CMSIS/Include/cmsis_gcc.h **** }
1779:Drivers/CMSIS/Include/cmsis_gcc.h **** 
1780:Drivers/CMSIS/Include/cmsis_gcc.h **** __STATIC_FORCEINLINE uint32_t __SSAX(uint32_t op1, uint32_t op2)
1781:Drivers/CMSIS/Include/cmsis_gcc.h **** {
1782:Drivers/CMSIS/Include/cmsis_gcc.h ****   uint32_t result;
1783:Drivers/CMSIS/Include/cmsis_gcc.h **** 
1784:Drivers/CMSIS/Include/cmsis_gcc.h ****   __ASM volatile ("ssax %0, %1, %2" : "=r" (result) : "r" (op1), "r" (op2) );
1785:Drivers/CMSIS/Include/cmsis_gcc.h ****   return(result);
1786:Drivers/CMSIS/Include/cmsis_gcc.h **** }
1787:Drivers/CMSIS/Include/cmsis_gcc.h **** 
1788:Drivers/CMSIS/Include/cmsis_gcc.h **** __STATIC_FORCEINLINE uint32_t __QSAX(uint32_t op1, uint32_t op2)
1789:Drivers/CMSIS/Include/cmsis_gcc.h **** {
1790:Drivers/CMSIS/Include/cmsis_gcc.h ****   uint32_t result;
1791:Drivers/CMSIS/Include/cmsis_gcc.h **** 
1792:Drivers/CMSIS/Include/cmsis_gcc.h ****   __ASM volatile ("qsax %0, %1, %2" : "=r" (result) : "r" (op1), "r" (op2) );
1793:Drivers/CMSIS/Include/cmsis_gcc.h ****   return(result);
1794:Drivers/CMSIS/Include/cmsis_gcc.h **** }
1795:Drivers/CMSIS/Include/cmsis_gcc.h **** 
1796:Drivers/CMSIS/Include/cmsis_gcc.h **** __STATIC_FORCEINLINE uint32_t __SHSAX(uint32_t op1, uint32_t op2)
1797:Drivers/CMSIS/Include/cmsis_gcc.h **** {
1798:Drivers/CMSIS/Include/cmsis_gcc.h ****   uint32_t result;
1799:Drivers/CMSIS/Include/cmsis_gcc.h **** 
1800:Drivers/CMSIS/Include/cmsis_gcc.h ****   __ASM volatile ("shsax %0, %1, %2" : "=r" (result) : "r" (op1), "r" (op2) );
1801:Drivers/CMSIS/Include/cmsis_gcc.h ****   return(result);
1802:Drivers/CMSIS/Include/cmsis_gcc.h **** }
1803:Drivers/CMSIS/Include/cmsis_gcc.h **** 
1804:Drivers/CMSIS/Include/cmsis_gcc.h **** __STATIC_FORCEINLINE uint32_t __USAX(uint32_t op1, uint32_t op2)
1805:Drivers/CMSIS/Include/cmsis_gcc.h **** {
1806:Drivers/CMSIS/Include/cmsis_gcc.h ****   uint32_t result;
1807:Drivers/CMSIS/Include/cmsis_gcc.h **** 
1808:Drivers/CMSIS/Include/cmsis_gcc.h ****   __ASM volatile ("usax %0, %1, %2" : "=r" (result) : "r" (op1), "r" (op2) );
1809:Drivers/CMSIS/Include/cmsis_gcc.h ****   return(result);
1810:Drivers/CMSIS/Include/cmsis_gcc.h **** }
ARM GAS  /var/folders/n6/c271nzx11xl4r4_m7sqjlt0m0000gn/T//ccJ3qP4w.s 			page 36


1811:Drivers/CMSIS/Include/cmsis_gcc.h **** 
1812:Drivers/CMSIS/Include/cmsis_gcc.h **** __STATIC_FORCEINLINE uint32_t __UQSAX(uint32_t op1, uint32_t op2)
1813:Drivers/CMSIS/Include/cmsis_gcc.h **** {
1814:Drivers/CMSIS/Include/cmsis_gcc.h ****   uint32_t result;
1815:Drivers/CMSIS/Include/cmsis_gcc.h **** 
1816:Drivers/CMSIS/Include/cmsis_gcc.h ****   __ASM volatile ("uqsax %0, %1, %2" : "=r" (result) : "r" (op1), "r" (op2) );
1817:Drivers/CMSIS/Include/cmsis_gcc.h ****   return(result);
1818:Drivers/CMSIS/Include/cmsis_gcc.h **** }
1819:Drivers/CMSIS/Include/cmsis_gcc.h **** 
1820:Drivers/CMSIS/Include/cmsis_gcc.h **** __STATIC_FORCEINLINE uint32_t __UHSAX(uint32_t op1, uint32_t op2)
1821:Drivers/CMSIS/Include/cmsis_gcc.h **** {
1822:Drivers/CMSIS/Include/cmsis_gcc.h ****   uint32_t result;
1823:Drivers/CMSIS/Include/cmsis_gcc.h **** 
1824:Drivers/CMSIS/Include/cmsis_gcc.h ****   __ASM volatile ("uhsax %0, %1, %2" : "=r" (result) : "r" (op1), "r" (op2) );
1825:Drivers/CMSIS/Include/cmsis_gcc.h ****   return(result);
1826:Drivers/CMSIS/Include/cmsis_gcc.h **** }
1827:Drivers/CMSIS/Include/cmsis_gcc.h **** 
1828:Drivers/CMSIS/Include/cmsis_gcc.h **** __STATIC_FORCEINLINE uint32_t __USAD8(uint32_t op1, uint32_t op2)
1829:Drivers/CMSIS/Include/cmsis_gcc.h **** {
1830:Drivers/CMSIS/Include/cmsis_gcc.h ****   uint32_t result;
1831:Drivers/CMSIS/Include/cmsis_gcc.h **** 
1832:Drivers/CMSIS/Include/cmsis_gcc.h ****   __ASM volatile ("usad8 %0, %1, %2" : "=r" (result) : "r" (op1), "r" (op2) );
1833:Drivers/CMSIS/Include/cmsis_gcc.h ****   return(result);
1834:Drivers/CMSIS/Include/cmsis_gcc.h **** }
1835:Drivers/CMSIS/Include/cmsis_gcc.h **** 
1836:Drivers/CMSIS/Include/cmsis_gcc.h **** __STATIC_FORCEINLINE uint32_t __USADA8(uint32_t op1, uint32_t op2, uint32_t op3)
1837:Drivers/CMSIS/Include/cmsis_gcc.h **** {
1838:Drivers/CMSIS/Include/cmsis_gcc.h ****   uint32_t result;
1839:Drivers/CMSIS/Include/cmsis_gcc.h **** 
1840:Drivers/CMSIS/Include/cmsis_gcc.h ****   __ASM volatile ("usada8 %0, %1, %2, %3" : "=r" (result) : "r" (op1), "r" (op2), "r" (op3) );
1841:Drivers/CMSIS/Include/cmsis_gcc.h ****   return(result);
1842:Drivers/CMSIS/Include/cmsis_gcc.h **** }
1843:Drivers/CMSIS/Include/cmsis_gcc.h **** 
1844:Drivers/CMSIS/Include/cmsis_gcc.h **** #define __SSAT16(ARG1,ARG2) \
1845:Drivers/CMSIS/Include/cmsis_gcc.h **** ({                          \
1846:Drivers/CMSIS/Include/cmsis_gcc.h ****   int32_t __RES, __ARG1 = (ARG1); \
1847:Drivers/CMSIS/Include/cmsis_gcc.h ****   __ASM ("ssat16 %0, %1, %2" : "=r" (__RES) :  "I" (ARG2), "r" (__ARG1) ); \
1848:Drivers/CMSIS/Include/cmsis_gcc.h ****   __RES; \
1849:Drivers/CMSIS/Include/cmsis_gcc.h ****  })
1850:Drivers/CMSIS/Include/cmsis_gcc.h **** 
1851:Drivers/CMSIS/Include/cmsis_gcc.h **** #define __USAT16(ARG1,ARG2) \
1852:Drivers/CMSIS/Include/cmsis_gcc.h **** ({                          \
1853:Drivers/CMSIS/Include/cmsis_gcc.h ****   uint32_t __RES, __ARG1 = (ARG1); \
1854:Drivers/CMSIS/Include/cmsis_gcc.h ****   __ASM ("usat16 %0, %1, %2" : "=r" (__RES) :  "I" (ARG2), "r" (__ARG1) ); \
1855:Drivers/CMSIS/Include/cmsis_gcc.h ****   __RES; \
1856:Drivers/CMSIS/Include/cmsis_gcc.h ****  })
1857:Drivers/CMSIS/Include/cmsis_gcc.h **** 
1858:Drivers/CMSIS/Include/cmsis_gcc.h **** __STATIC_FORCEINLINE uint32_t __UXTB16(uint32_t op1)
1859:Drivers/CMSIS/Include/cmsis_gcc.h **** {
1860:Drivers/CMSIS/Include/cmsis_gcc.h ****   uint32_t result;
1861:Drivers/CMSIS/Include/cmsis_gcc.h **** 
1862:Drivers/CMSIS/Include/cmsis_gcc.h ****   __ASM volatile ("uxtb16 %0, %1" : "=r" (result) : "r" (op1));
1863:Drivers/CMSIS/Include/cmsis_gcc.h ****   return(result);
1864:Drivers/CMSIS/Include/cmsis_gcc.h **** }
1865:Drivers/CMSIS/Include/cmsis_gcc.h **** 
1866:Drivers/CMSIS/Include/cmsis_gcc.h **** __STATIC_FORCEINLINE uint32_t __UXTAB16(uint32_t op1, uint32_t op2)
1867:Drivers/CMSIS/Include/cmsis_gcc.h **** {
ARM GAS  /var/folders/n6/c271nzx11xl4r4_m7sqjlt0m0000gn/T//ccJ3qP4w.s 			page 37


1868:Drivers/CMSIS/Include/cmsis_gcc.h ****   uint32_t result;
1869:Drivers/CMSIS/Include/cmsis_gcc.h **** 
1870:Drivers/CMSIS/Include/cmsis_gcc.h ****   __ASM volatile ("uxtab16 %0, %1, %2" : "=r" (result) : "r" (op1), "r" (op2) );
1871:Drivers/CMSIS/Include/cmsis_gcc.h ****   return(result);
1872:Drivers/CMSIS/Include/cmsis_gcc.h **** }
1873:Drivers/CMSIS/Include/cmsis_gcc.h **** 
1874:Drivers/CMSIS/Include/cmsis_gcc.h **** __STATIC_FORCEINLINE uint32_t __SXTB16(uint32_t op1)
1875:Drivers/CMSIS/Include/cmsis_gcc.h **** {
1876:Drivers/CMSIS/Include/cmsis_gcc.h ****   uint32_t result;
1877:Drivers/CMSIS/Include/cmsis_gcc.h **** 
1878:Drivers/CMSIS/Include/cmsis_gcc.h ****   __ASM volatile ("sxtb16 %0, %1" : "=r" (result) : "r" (op1));
1879:Drivers/CMSIS/Include/cmsis_gcc.h ****   return(result);
1880:Drivers/CMSIS/Include/cmsis_gcc.h **** }
1881:Drivers/CMSIS/Include/cmsis_gcc.h **** 
1882:Drivers/CMSIS/Include/cmsis_gcc.h **** __STATIC_FORCEINLINE uint32_t __SXTAB16(uint32_t op1, uint32_t op2)
1883:Drivers/CMSIS/Include/cmsis_gcc.h **** {
1884:Drivers/CMSIS/Include/cmsis_gcc.h ****   uint32_t result;
1885:Drivers/CMSIS/Include/cmsis_gcc.h **** 
1886:Drivers/CMSIS/Include/cmsis_gcc.h ****   __ASM volatile ("sxtab16 %0, %1, %2" : "=r" (result) : "r" (op1), "r" (op2) );
1887:Drivers/CMSIS/Include/cmsis_gcc.h ****   return(result);
1888:Drivers/CMSIS/Include/cmsis_gcc.h **** }
1889:Drivers/CMSIS/Include/cmsis_gcc.h **** 
1890:Drivers/CMSIS/Include/cmsis_gcc.h **** __STATIC_FORCEINLINE uint32_t __SMUAD  (uint32_t op1, uint32_t op2)
1891:Drivers/CMSIS/Include/cmsis_gcc.h **** {
1892:Drivers/CMSIS/Include/cmsis_gcc.h ****   uint32_t result;
1893:Drivers/CMSIS/Include/cmsis_gcc.h **** 
1894:Drivers/CMSIS/Include/cmsis_gcc.h ****   __ASM volatile ("smuad %0, %1, %2" : "=r" (result) : "r" (op1), "r" (op2) );
1895:Drivers/CMSIS/Include/cmsis_gcc.h ****   return(result);
1896:Drivers/CMSIS/Include/cmsis_gcc.h **** }
1897:Drivers/CMSIS/Include/cmsis_gcc.h **** 
1898:Drivers/CMSIS/Include/cmsis_gcc.h **** __STATIC_FORCEINLINE uint32_t __SMUADX (uint32_t op1, uint32_t op2)
1899:Drivers/CMSIS/Include/cmsis_gcc.h **** {
1900:Drivers/CMSIS/Include/cmsis_gcc.h ****   uint32_t result;
1901:Drivers/CMSIS/Include/cmsis_gcc.h **** 
1902:Drivers/CMSIS/Include/cmsis_gcc.h ****   __ASM volatile ("smuadx %0, %1, %2" : "=r" (result) : "r" (op1), "r" (op2) );
1903:Drivers/CMSIS/Include/cmsis_gcc.h ****   return(result);
1904:Drivers/CMSIS/Include/cmsis_gcc.h **** }
1905:Drivers/CMSIS/Include/cmsis_gcc.h **** 
1906:Drivers/CMSIS/Include/cmsis_gcc.h **** __STATIC_FORCEINLINE uint32_t __SMLAD (uint32_t op1, uint32_t op2, uint32_t op3)
1907:Drivers/CMSIS/Include/cmsis_gcc.h **** {
1908:Drivers/CMSIS/Include/cmsis_gcc.h ****   uint32_t result;
1909:Drivers/CMSIS/Include/cmsis_gcc.h **** 
1910:Drivers/CMSIS/Include/cmsis_gcc.h ****   __ASM volatile ("smlad %0, %1, %2, %3" : "=r" (result) : "r" (op1), "r" (op2), "r" (op3) );
1911:Drivers/CMSIS/Include/cmsis_gcc.h ****   return(result);
1912:Drivers/CMSIS/Include/cmsis_gcc.h **** }
1913:Drivers/CMSIS/Include/cmsis_gcc.h **** 
1914:Drivers/CMSIS/Include/cmsis_gcc.h **** __STATIC_FORCEINLINE uint32_t __SMLADX (uint32_t op1, uint32_t op2, uint32_t op3)
1915:Drivers/CMSIS/Include/cmsis_gcc.h **** {
1916:Drivers/CMSIS/Include/cmsis_gcc.h ****   uint32_t result;
1917:Drivers/CMSIS/Include/cmsis_gcc.h **** 
1918:Drivers/CMSIS/Include/cmsis_gcc.h ****   __ASM volatile ("smladx %0, %1, %2, %3" : "=r" (result) : "r" (op1), "r" (op2), "r" (op3) );
1919:Drivers/CMSIS/Include/cmsis_gcc.h ****   return(result);
1920:Drivers/CMSIS/Include/cmsis_gcc.h **** }
1921:Drivers/CMSIS/Include/cmsis_gcc.h **** 
1922:Drivers/CMSIS/Include/cmsis_gcc.h **** __STATIC_FORCEINLINE uint64_t __SMLALD (uint32_t op1, uint32_t op2, uint64_t acc)
1923:Drivers/CMSIS/Include/cmsis_gcc.h **** {
1924:Drivers/CMSIS/Include/cmsis_gcc.h ****   union llreg_u{
ARM GAS  /var/folders/n6/c271nzx11xl4r4_m7sqjlt0m0000gn/T//ccJ3qP4w.s 			page 38


1925:Drivers/CMSIS/Include/cmsis_gcc.h ****     uint32_t w32[2];
1926:Drivers/CMSIS/Include/cmsis_gcc.h ****     uint64_t w64;
1927:Drivers/CMSIS/Include/cmsis_gcc.h ****   } llr;
1928:Drivers/CMSIS/Include/cmsis_gcc.h ****   llr.w64 = acc;
1929:Drivers/CMSIS/Include/cmsis_gcc.h **** 
1930:Drivers/CMSIS/Include/cmsis_gcc.h **** #ifndef __ARMEB__   /* Little endian */
1931:Drivers/CMSIS/Include/cmsis_gcc.h ****   __ASM volatile ("smlald %0, %1, %2, %3" : "=r" (llr.w32[0]), "=r" (llr.w32[1]): "r" (op1), "r" (o
1932:Drivers/CMSIS/Include/cmsis_gcc.h **** #else               /* Big endian */
1933:Drivers/CMSIS/Include/cmsis_gcc.h ****   __ASM volatile ("smlald %0, %1, %2, %3" : "=r" (llr.w32[1]), "=r" (llr.w32[0]): "r" (op1), "r" (o
1934:Drivers/CMSIS/Include/cmsis_gcc.h **** #endif
1935:Drivers/CMSIS/Include/cmsis_gcc.h **** 
1936:Drivers/CMSIS/Include/cmsis_gcc.h ****   return(llr.w64);
1937:Drivers/CMSIS/Include/cmsis_gcc.h **** }
1938:Drivers/CMSIS/Include/cmsis_gcc.h **** 
1939:Drivers/CMSIS/Include/cmsis_gcc.h **** __STATIC_FORCEINLINE uint64_t __SMLALDX (uint32_t op1, uint32_t op2, uint64_t acc)
1940:Drivers/CMSIS/Include/cmsis_gcc.h **** {
1941:Drivers/CMSIS/Include/cmsis_gcc.h ****   union llreg_u{
1942:Drivers/CMSIS/Include/cmsis_gcc.h ****     uint32_t w32[2];
1943:Drivers/CMSIS/Include/cmsis_gcc.h ****     uint64_t w64;
1944:Drivers/CMSIS/Include/cmsis_gcc.h ****   } llr;
1945:Drivers/CMSIS/Include/cmsis_gcc.h ****   llr.w64 = acc;
1946:Drivers/CMSIS/Include/cmsis_gcc.h **** 
1947:Drivers/CMSIS/Include/cmsis_gcc.h **** #ifndef __ARMEB__   /* Little endian */
1948:Drivers/CMSIS/Include/cmsis_gcc.h ****   __ASM volatile ("smlaldx %0, %1, %2, %3" : "=r" (llr.w32[0]), "=r" (llr.w32[1]): "r" (op1), "r" (
1949:Drivers/CMSIS/Include/cmsis_gcc.h **** #else               /* Big endian */
1950:Drivers/CMSIS/Include/cmsis_gcc.h ****   __ASM volatile ("smlaldx %0, %1, %2, %3" : "=r" (llr.w32[1]), "=r" (llr.w32[0]): "r" (op1), "r" (
1951:Drivers/CMSIS/Include/cmsis_gcc.h **** #endif
1952:Drivers/CMSIS/Include/cmsis_gcc.h **** 
1953:Drivers/CMSIS/Include/cmsis_gcc.h ****   return(llr.w64);
1954:Drivers/CMSIS/Include/cmsis_gcc.h **** }
1955:Drivers/CMSIS/Include/cmsis_gcc.h **** 
1956:Drivers/CMSIS/Include/cmsis_gcc.h **** __STATIC_FORCEINLINE uint32_t __SMUSD  (uint32_t op1, uint32_t op2)
1957:Drivers/CMSIS/Include/cmsis_gcc.h **** {
1958:Drivers/CMSIS/Include/cmsis_gcc.h ****   uint32_t result;
1959:Drivers/CMSIS/Include/cmsis_gcc.h **** 
1960:Drivers/CMSIS/Include/cmsis_gcc.h ****   __ASM volatile ("smusd %0, %1, %2" : "=r" (result) : "r" (op1), "r" (op2) );
1961:Drivers/CMSIS/Include/cmsis_gcc.h ****   return(result);
1962:Drivers/CMSIS/Include/cmsis_gcc.h **** }
1963:Drivers/CMSIS/Include/cmsis_gcc.h **** 
1964:Drivers/CMSIS/Include/cmsis_gcc.h **** __STATIC_FORCEINLINE uint32_t __SMUSDX (uint32_t op1, uint32_t op2)
1965:Drivers/CMSIS/Include/cmsis_gcc.h **** {
1966:Drivers/CMSIS/Include/cmsis_gcc.h ****   uint32_t result;
1967:Drivers/CMSIS/Include/cmsis_gcc.h **** 
1968:Drivers/CMSIS/Include/cmsis_gcc.h ****   __ASM volatile ("smusdx %0, %1, %2" : "=r" (result) : "r" (op1), "r" (op2) );
1969:Drivers/CMSIS/Include/cmsis_gcc.h ****   return(result);
1970:Drivers/CMSIS/Include/cmsis_gcc.h **** }
1971:Drivers/CMSIS/Include/cmsis_gcc.h **** 
1972:Drivers/CMSIS/Include/cmsis_gcc.h **** __STATIC_FORCEINLINE uint32_t __SMLSD (uint32_t op1, uint32_t op2, uint32_t op3)
1973:Drivers/CMSIS/Include/cmsis_gcc.h **** {
1974:Drivers/CMSIS/Include/cmsis_gcc.h ****   uint32_t result;
1975:Drivers/CMSIS/Include/cmsis_gcc.h **** 
1976:Drivers/CMSIS/Include/cmsis_gcc.h ****   __ASM volatile ("smlsd %0, %1, %2, %3" : "=r" (result) : "r" (op1), "r" (op2), "r" (op3) );
1977:Drivers/CMSIS/Include/cmsis_gcc.h ****   return(result);
1978:Drivers/CMSIS/Include/cmsis_gcc.h **** }
1979:Drivers/CMSIS/Include/cmsis_gcc.h **** 
1980:Drivers/CMSIS/Include/cmsis_gcc.h **** __STATIC_FORCEINLINE uint32_t __SMLSDX (uint32_t op1, uint32_t op2, uint32_t op3)
1981:Drivers/CMSIS/Include/cmsis_gcc.h **** {
ARM GAS  /var/folders/n6/c271nzx11xl4r4_m7sqjlt0m0000gn/T//ccJ3qP4w.s 			page 39


1982:Drivers/CMSIS/Include/cmsis_gcc.h ****   uint32_t result;
1983:Drivers/CMSIS/Include/cmsis_gcc.h **** 
1984:Drivers/CMSIS/Include/cmsis_gcc.h ****   __ASM volatile ("smlsdx %0, %1, %2, %3" : "=r" (result) : "r" (op1), "r" (op2), "r" (op3) );
1985:Drivers/CMSIS/Include/cmsis_gcc.h ****   return(result);
1986:Drivers/CMSIS/Include/cmsis_gcc.h **** }
1987:Drivers/CMSIS/Include/cmsis_gcc.h **** 
1988:Drivers/CMSIS/Include/cmsis_gcc.h **** __STATIC_FORCEINLINE uint64_t __SMLSLD (uint32_t op1, uint32_t op2, uint64_t acc)
1989:Drivers/CMSIS/Include/cmsis_gcc.h **** {
1990:Drivers/CMSIS/Include/cmsis_gcc.h ****   union llreg_u{
1991:Drivers/CMSIS/Include/cmsis_gcc.h ****     uint32_t w32[2];
1992:Drivers/CMSIS/Include/cmsis_gcc.h ****     uint64_t w64;
1993:Drivers/CMSIS/Include/cmsis_gcc.h ****   } llr;
1994:Drivers/CMSIS/Include/cmsis_gcc.h ****   llr.w64 = acc;
1995:Drivers/CMSIS/Include/cmsis_gcc.h **** 
1996:Drivers/CMSIS/Include/cmsis_gcc.h **** #ifndef __ARMEB__   /* Little endian */
1997:Drivers/CMSIS/Include/cmsis_gcc.h ****   __ASM volatile ("smlsld %0, %1, %2, %3" : "=r" (llr.w32[0]), "=r" (llr.w32[1]): "r" (op1), "r" (o
1998:Drivers/CMSIS/Include/cmsis_gcc.h **** #else               /* Big endian */
1999:Drivers/CMSIS/Include/cmsis_gcc.h ****   __ASM volatile ("smlsld %0, %1, %2, %3" : "=r" (llr.w32[1]), "=r" (llr.w32[0]): "r" (op1), "r" (o
2000:Drivers/CMSIS/Include/cmsis_gcc.h **** #endif
2001:Drivers/CMSIS/Include/cmsis_gcc.h **** 
2002:Drivers/CMSIS/Include/cmsis_gcc.h ****   return(llr.w64);
2003:Drivers/CMSIS/Include/cmsis_gcc.h **** }
2004:Drivers/CMSIS/Include/cmsis_gcc.h **** 
2005:Drivers/CMSIS/Include/cmsis_gcc.h **** __STATIC_FORCEINLINE uint64_t __SMLSLDX (uint32_t op1, uint32_t op2, uint64_t acc)
2006:Drivers/CMSIS/Include/cmsis_gcc.h **** {
2007:Drivers/CMSIS/Include/cmsis_gcc.h ****   union llreg_u{
2008:Drivers/CMSIS/Include/cmsis_gcc.h ****     uint32_t w32[2];
2009:Drivers/CMSIS/Include/cmsis_gcc.h ****     uint64_t w64;
2010:Drivers/CMSIS/Include/cmsis_gcc.h ****   } llr;
2011:Drivers/CMSIS/Include/cmsis_gcc.h ****   llr.w64 = acc;
2012:Drivers/CMSIS/Include/cmsis_gcc.h **** 
2013:Drivers/CMSIS/Include/cmsis_gcc.h **** #ifndef __ARMEB__   /* Little endian */
2014:Drivers/CMSIS/Include/cmsis_gcc.h ****   __ASM volatile ("smlsldx %0, %1, %2, %3" : "=r" (llr.w32[0]), "=r" (llr.w32[1]): "r" (op1), "r" (
2015:Drivers/CMSIS/Include/cmsis_gcc.h **** #else               /* Big endian */
2016:Drivers/CMSIS/Include/cmsis_gcc.h ****   __ASM volatile ("smlsldx %0, %1, %2, %3" : "=r" (llr.w32[1]), "=r" (llr.w32[0]): "r" (op1), "r" (
2017:Drivers/CMSIS/Include/cmsis_gcc.h **** #endif
2018:Drivers/CMSIS/Include/cmsis_gcc.h **** 
2019:Drivers/CMSIS/Include/cmsis_gcc.h ****   return(llr.w64);
2020:Drivers/CMSIS/Include/cmsis_gcc.h **** }
2021:Drivers/CMSIS/Include/cmsis_gcc.h **** 
2022:Drivers/CMSIS/Include/cmsis_gcc.h **** __STATIC_FORCEINLINE uint32_t __SEL  (uint32_t op1, uint32_t op2)
2023:Drivers/CMSIS/Include/cmsis_gcc.h **** {
2024:Drivers/CMSIS/Include/cmsis_gcc.h ****   uint32_t result;
2025:Drivers/CMSIS/Include/cmsis_gcc.h **** 
2026:Drivers/CMSIS/Include/cmsis_gcc.h ****   __ASM volatile ("sel %0, %1, %2" : "=r" (result) : "r" (op1), "r" (op2) );
2027:Drivers/CMSIS/Include/cmsis_gcc.h ****   return(result);
2028:Drivers/CMSIS/Include/cmsis_gcc.h **** }
2029:Drivers/CMSIS/Include/cmsis_gcc.h **** 
2030:Drivers/CMSIS/Include/cmsis_gcc.h **** __STATIC_FORCEINLINE  int32_t __QADD( int32_t op1,  int32_t op2)
  99              		.loc 2 2030 31 view .LVU28
 100              	.LBB13:
2031:Drivers/CMSIS/Include/cmsis_gcc.h **** {
2032:Drivers/CMSIS/Include/cmsis_gcc.h ****   int32_t result;
 101              		.loc 2 2032 3 view .LVU29
2033:Drivers/CMSIS/Include/cmsis_gcc.h **** 
2034:Drivers/CMSIS/Include/cmsis_gcc.h ****   __ASM volatile ("qadd %0, %1, %2" : "=r" (result) : "r" (op1), "r" (op2) );
 102              		.loc 2 2034 3 view .LVU30
ARM GAS  /var/folders/n6/c271nzx11xl4r4_m7sqjlt0m0000gn/T//ccJ3qP4w.s 			page 40


 103              		.syntax unified
 104              	@ 2034 "Drivers/CMSIS/Include/cmsis_gcc.h" 1
 105 0028 8AFA86F6 		qadd r6, r6, r10
 106              	@ 0 "" 2
 107              	.LVL13:
2035:Drivers/CMSIS/Include/cmsis_gcc.h ****   return(result);
 108              		.loc 2 2035 3 view .LVU31
 109              		.loc 2 2035 3 is_stmt 0 view .LVU32
 110              		.thumb
 111              		.syntax unified
 112              	.LBE13:
 113              	.LBE12:
 114              		.loc 1 88 13 discriminator 1 view .LVU33
 115 002c 1660     		str	r6, [r2]
 116              	.LVL14:
  89:Drivers/CMSIS/DSP/Source/BasicMathFunctions/arm_add_q31.c ****     *pDst++ = __QADD(inA2, inB2);
 117              		.loc 1 89 5 is_stmt 1 view .LVU34
 118              	.LBB14:
 119              	.LBI14:
2030:Drivers/CMSIS/Include/cmsis_gcc.h **** {
 120              		.loc 2 2030 31 view .LVU35
 121              	.LBB15:
2032:Drivers/CMSIS/Include/cmsis_gcc.h **** 
 122              		.loc 2 2032 3 view .LVU36
2034:Drivers/CMSIS/Include/cmsis_gcc.h ****   return(result);
 123              		.loc 2 2034 3 view .LVU37
 124              		.syntax unified
 125              	@ 2034 "Drivers/CMSIS/Include/cmsis_gcc.h" 1
 126 002e 89FA85F5 		qadd r5, r5, r9
 127              	@ 0 "" 2
 128              	.LVL15:
 129              		.loc 2 2035 3 view .LVU38
 130              		.loc 2 2035 3 is_stmt 0 view .LVU39
 131              		.thumb
 132              		.syntax unified
 133              	.LBE15:
 134              	.LBE14:
 135              		.loc 1 89 13 discriminator 1 view .LVU40
 136 0032 5560     		str	r5, [r2, #4]
  90:Drivers/CMSIS/DSP/Source/BasicMathFunctions/arm_add_q31.c ****     *pDst++ = __QADD(inA3, inB3);
 137              		.loc 1 90 5 is_stmt 1 view .LVU41
 138              	.LVL16:
 139              	.LBB16:
 140              	.LBI16:
2030:Drivers/CMSIS/Include/cmsis_gcc.h **** {
 141              		.loc 2 2030 31 view .LVU42
 142              	.LBB17:
2032:Drivers/CMSIS/Include/cmsis_gcc.h **** 
 143              		.loc 2 2032 3 view .LVU43
2034:Drivers/CMSIS/Include/cmsis_gcc.h ****   return(result);
 144              		.loc 2 2034 3 view .LVU44
 145              		.syntax unified
 146              	@ 2034 "Drivers/CMSIS/Include/cmsis_gcc.h" 1
 147 0034 8BFA84F4 		qadd r4, r4, fp
 148              	@ 0 "" 2
 149              	.LVL17:
 150              		.loc 2 2035 3 view .LVU45
ARM GAS  /var/folders/n6/c271nzx11xl4r4_m7sqjlt0m0000gn/T//ccJ3qP4w.s 			page 41


 151              		.loc 2 2035 3 is_stmt 0 view .LVU46
 152              		.thumb
 153              		.syntax unified
 154              	.LBE17:
 155              	.LBE16:
 156              		.loc 1 90 13 discriminator 1 view .LVU47
 157 0038 9460     		str	r4, [r2, #8]
  91:Drivers/CMSIS/DSP/Source/BasicMathFunctions/arm_add_q31.c ****     *pDst++ = __QADD(inA4, inB4);
 158              		.loc 1 91 5 is_stmt 1 view .LVU48
 159              		.loc 1 91 10 is_stmt 0 view .LVU49
 160 003a 02F11004 		add	r4, r2, #16
 161              	.LVL18:
 162              	.LBB18:
 163              	.LBI18:
2030:Drivers/CMSIS/Include/cmsis_gcc.h **** {
 164              		.loc 2 2030 31 is_stmt 1 view .LVU50
 165              	.LBB19:
2032:Drivers/CMSIS/Include/cmsis_gcc.h **** 
 166              		.loc 2 2032 3 view .LVU51
2034:Drivers/CMSIS/Include/cmsis_gcc.h ****   return(result);
 167              		.loc 2 2034 3 view .LVU52
 168              		.syntax unified
 169              	@ 2034 "Drivers/CMSIS/Include/cmsis_gcc.h" 1
 170 003e 88FA80F0 		qadd r0, r0, r8
 171              	@ 0 "" 2
 172              	.LVL19:
 173              		.loc 2 2035 3 view .LVU53
 174              		.loc 2 2035 3 is_stmt 0 view .LVU54
 175              		.thumb
 176              		.syntax unified
 177              	.LBE19:
 178              	.LBE18:
 179              		.loc 1 91 13 discriminator 1 view .LVU55
 180 0042 D060     		str	r0, [r2, #12]
  92:Drivers/CMSIS/DSP/Source/BasicMathFunctions/arm_add_q31.c **** 
  93:Drivers/CMSIS/DSP/Source/BasicMathFunctions/arm_add_q31.c ****     /* Decrement the loop counter */
  94:Drivers/CMSIS/DSP/Source/BasicMathFunctions/arm_add_q31.c ****     blkCnt--;
 181              		.loc 1 94 5 is_stmt 1 view .LVU56
 182              		.loc 1 94 11 is_stmt 0 view .LVU57
 183 0044 013F     		subs	r7, r7, #1
 184              	.LVL20:
  91:Drivers/CMSIS/DSP/Source/BasicMathFunctions/arm_add_q31.c **** 
 185              		.loc 1 91 10 view .LVU58
 186 0046 2246     		mov	r2, r4
  86:Drivers/CMSIS/DSP/Source/BasicMathFunctions/arm_add_q31.c **** 
 187              		.loc 1 86 18 view .LVU59
 188 0048 7146     		mov	r1, lr
  84:Drivers/CMSIS/DSP/Source/BasicMathFunctions/arm_add_q31.c ****     inB3 = *pSrcB++;
 189              		.loc 1 84 18 view .LVU60
 190 004a 6046     		mov	r0, ip
 191              	.LVL21:
 192              	.L2:
  74:Drivers/CMSIS/DSP/Source/BasicMathFunctions/arm_add_q31.c ****   {
 193              		.loc 1 74 17 is_stmt 1 view .LVU61
 194 004c 002F     		cmp	r7, #0
 195 004e DBD1     		bne	.L3
  95:Drivers/CMSIS/DSP/Source/BasicMathFunctions/arm_add_q31.c ****   }
ARM GAS  /var/folders/n6/c271nzx11xl4r4_m7sqjlt0m0000gn/T//ccJ3qP4w.s 			page 42


  96:Drivers/CMSIS/DSP/Source/BasicMathFunctions/arm_add_q31.c **** 
  97:Drivers/CMSIS/DSP/Source/BasicMathFunctions/arm_add_q31.c ****   /* If the blockSize is not a multiple of 4, compute any remaining output samples here.
  98:Drivers/CMSIS/DSP/Source/BasicMathFunctions/arm_add_q31.c ****    ** No loop unrolling is used. */
  99:Drivers/CMSIS/DSP/Source/BasicMathFunctions/arm_add_q31.c ****   blkCnt = blockSize % 0x4U;
 196              		.loc 1 99 3 view .LVU62
 197              		.loc 1 99 10 is_stmt 0 view .LVU63
 198 0050 03F00304 		and	r4, r3, #3
 199              	.LVL22:
 100:Drivers/CMSIS/DSP/Source/BasicMathFunctions/arm_add_q31.c **** 
 101:Drivers/CMSIS/DSP/Source/BasicMathFunctions/arm_add_q31.c ****   while (blkCnt > 0U)
 200              		.loc 1 101 3 is_stmt 1 view .LVU64
 201              		.loc 1 101 9 is_stmt 0 view .LVU65
 202 0054 08E0     		b	.L4
 203              	.LVL23:
 204              	.L5:
 102:Drivers/CMSIS/DSP/Source/BasicMathFunctions/arm_add_q31.c ****   {
 103:Drivers/CMSIS/DSP/Source/BasicMathFunctions/arm_add_q31.c ****     /* C = A + B */
 104:Drivers/CMSIS/DSP/Source/BasicMathFunctions/arm_add_q31.c ****     /* Add and then store the results in the destination buffer. */
 105:Drivers/CMSIS/DSP/Source/BasicMathFunctions/arm_add_q31.c ****     *pDst++ = __QADD(*pSrcA++, *pSrcB++);
 205              		.loc 1 105 5 is_stmt 1 view .LVU66
 206              		.loc 1 105 15 is_stmt 0 view .LVU67
 207 0056 50F8043B 		ldr	r3, [r0], #4
 208              	.LVL24:
 209              		.loc 1 105 15 view .LVU68
 210 005a 51F8045B 		ldr	r5, [r1], #4
 211              	.LVL25:
 212              	.LBB20:
 213              	.LBI20:
2030:Drivers/CMSIS/Include/cmsis_gcc.h **** {
 214              		.loc 2 2030 31 is_stmt 1 view .LVU69
 215              	.LBB21:
2032:Drivers/CMSIS/Include/cmsis_gcc.h **** 
 216              		.loc 2 2032 3 view .LVU70
2034:Drivers/CMSIS/Include/cmsis_gcc.h ****   return(result);
 217              		.loc 2 2034 3 view .LVU71
 218              		.syntax unified
 219              	@ 2034 "Drivers/CMSIS/Include/cmsis_gcc.h" 1
 220 005e 85FA83F3 		qadd r3, r3, r5
 221              	@ 0 "" 2
 222              	.LVL26:
 223              		.loc 2 2035 3 view .LVU72
 224              		.loc 2 2035 3 is_stmt 0 view .LVU73
 225              		.thumb
 226              		.syntax unified
 227              	.LBE21:
 228              	.LBE20:
 229              		.loc 1 105 13 discriminator 1 view .LVU74
 230 0062 42F8043B 		str	r3, [r2], #4
 231              	.LVL27:
 106:Drivers/CMSIS/DSP/Source/BasicMathFunctions/arm_add_q31.c **** 
 107:Drivers/CMSIS/DSP/Source/BasicMathFunctions/arm_add_q31.c ****     /* Decrement the loop counter */
 108:Drivers/CMSIS/DSP/Source/BasicMathFunctions/arm_add_q31.c ****     blkCnt--;
 232              		.loc 1 108 5 is_stmt 1 view .LVU75
 233              		.loc 1 108 11 is_stmt 0 view .LVU76
 234 0066 013C     		subs	r4, r4, #1
 235              	.LVL28:
 236              	.L4:
ARM GAS  /var/folders/n6/c271nzx11xl4r4_m7sqjlt0m0000gn/T//ccJ3qP4w.s 			page 43


 101:Drivers/CMSIS/DSP/Source/BasicMathFunctions/arm_add_q31.c ****   {
 237              		.loc 1 101 17 is_stmt 1 view .LVU77
 238 0068 002C     		cmp	r4, #0
 239 006a F4D1     		bne	.L5
 109:Drivers/CMSIS/DSP/Source/BasicMathFunctions/arm_add_q31.c ****   }
 110:Drivers/CMSIS/DSP/Source/BasicMathFunctions/arm_add_q31.c **** 
 111:Drivers/CMSIS/DSP/Source/BasicMathFunctions/arm_add_q31.c **** #else
 112:Drivers/CMSIS/DSP/Source/BasicMathFunctions/arm_add_q31.c **** 
 113:Drivers/CMSIS/DSP/Source/BasicMathFunctions/arm_add_q31.c ****   /* Run the below code for Cortex-M0 */
 114:Drivers/CMSIS/DSP/Source/BasicMathFunctions/arm_add_q31.c **** 
 115:Drivers/CMSIS/DSP/Source/BasicMathFunctions/arm_add_q31.c **** 
 116:Drivers/CMSIS/DSP/Source/BasicMathFunctions/arm_add_q31.c **** 
 117:Drivers/CMSIS/DSP/Source/BasicMathFunctions/arm_add_q31.c ****   /* Initialize blkCnt with number of samples */
 118:Drivers/CMSIS/DSP/Source/BasicMathFunctions/arm_add_q31.c ****   blkCnt = blockSize;
 119:Drivers/CMSIS/DSP/Source/BasicMathFunctions/arm_add_q31.c **** 
 120:Drivers/CMSIS/DSP/Source/BasicMathFunctions/arm_add_q31.c ****   while (blkCnt > 0U)
 121:Drivers/CMSIS/DSP/Source/BasicMathFunctions/arm_add_q31.c ****   {
 122:Drivers/CMSIS/DSP/Source/BasicMathFunctions/arm_add_q31.c ****     /* C = A + B */
 123:Drivers/CMSIS/DSP/Source/BasicMathFunctions/arm_add_q31.c ****     /* Add and then store the results in the destination buffer. */
 124:Drivers/CMSIS/DSP/Source/BasicMathFunctions/arm_add_q31.c ****     *pDst++ = (q31_t) clip_q63_to_q31((q63_t) * pSrcA++ + *pSrcB++);
 125:Drivers/CMSIS/DSP/Source/BasicMathFunctions/arm_add_q31.c **** 
 126:Drivers/CMSIS/DSP/Source/BasicMathFunctions/arm_add_q31.c ****     /* Decrement the loop counter */
 127:Drivers/CMSIS/DSP/Source/BasicMathFunctions/arm_add_q31.c ****     blkCnt--;
 128:Drivers/CMSIS/DSP/Source/BasicMathFunctions/arm_add_q31.c ****   }
 129:Drivers/CMSIS/DSP/Source/BasicMathFunctions/arm_add_q31.c **** 
 130:Drivers/CMSIS/DSP/Source/BasicMathFunctions/arm_add_q31.c **** #endif /* #if defined (ARM_MATH_DSP) */
 131:Drivers/CMSIS/DSP/Source/BasicMathFunctions/arm_add_q31.c **** 
 132:Drivers/CMSIS/DSP/Source/BasicMathFunctions/arm_add_q31.c **** }
 240              		.loc 1 132 1 is_stmt 0 view .LVU78
 241 006c BDE8F08F 		pop	{r4, r5, r6, r7, r8, r9, r10, fp, pc}
 242              		.loc 1 132 1 view .LVU79
 243              		.cfi_endproc
 244              	.LFE135:
 246              		.text
 247              	.Letext0:
 248              		.file 3 "/Users/killian/Library/Application Support/Code/User/globalStorage/bmd.stm32-for-vscode/@
 249              		.file 4 "/Users/killian/Library/Application Support/Code/User/globalStorage/bmd.stm32-for-vscode/@
 250              		.file 5 "Drivers/CMSIS/DSP/Include/arm_math.h"
ARM GAS  /var/folders/n6/c271nzx11xl4r4_m7sqjlt0m0000gn/T//ccJ3qP4w.s 			page 44

