ARM GAS  /var/folders/n6/c271nzx11xl4r4_m7sqjlt0m0000gn/T//ccgmP6qh.s 			page 1


   1              		.cpu cortex-m7
   2              		.arch armv7e-m
   3              		.fpu fpv5-d16
   4              		.eabi_attribute 28, 1
   5              		.eabi_attribute 20, 1
   6              		.eabi_attribute 21, 1
   7              		.eabi_attribute 23, 3
   8              		.eabi_attribute 24, 1
   9              		.eabi_attribute 25, 1
  10              		.eabi_attribute 26, 1
  11              		.eabi_attribute 30, 1
  12              		.eabi_attribute 34, 1
  13              		.eabi_attribute 18, 4
  14              		.file	"arm_iir_lattice_q31.c"
  15              		.text
  16              	.Ltext0:
  17              		.cfi_sections	.debug_frame
  18              		.file 1 "Drivers/CMSIS/DSP/Source/FilteringFunctions/arm_iir_lattice_q31.c"
  19              		.section	.text.arm_iir_lattice_q31,"ax",%progbits
  20              		.align	1
  21              		.global	arm_iir_lattice_q31
  22              		.syntax unified
  23              		.thumb
  24              		.thumb_func
  26              	arm_iir_lattice_q31:
  27              	.LVL0:
  28              	.LFB135:
   1:Drivers/CMSIS/DSP/Source/FilteringFunctions/arm_iir_lattice_q31.c **** /* ----------------------------------------------------------------------
   2:Drivers/CMSIS/DSP/Source/FilteringFunctions/arm_iir_lattice_q31.c ****  * Project:      CMSIS DSP Library
   3:Drivers/CMSIS/DSP/Source/FilteringFunctions/arm_iir_lattice_q31.c ****  * Title:        arm_iir_lattice_q31.c
   4:Drivers/CMSIS/DSP/Source/FilteringFunctions/arm_iir_lattice_q31.c ****  * Description:  Q31 IIR lattice filter processing function
   5:Drivers/CMSIS/DSP/Source/FilteringFunctions/arm_iir_lattice_q31.c ****  *
   6:Drivers/CMSIS/DSP/Source/FilteringFunctions/arm_iir_lattice_q31.c ****  * $Date:        27. January 2017
   7:Drivers/CMSIS/DSP/Source/FilteringFunctions/arm_iir_lattice_q31.c ****  * $Revision:    V.1.5.1
   8:Drivers/CMSIS/DSP/Source/FilteringFunctions/arm_iir_lattice_q31.c ****  *
   9:Drivers/CMSIS/DSP/Source/FilteringFunctions/arm_iir_lattice_q31.c ****  * Target Processor: Cortex-M cores
  10:Drivers/CMSIS/DSP/Source/FilteringFunctions/arm_iir_lattice_q31.c ****  * -------------------------------------------------------------------- */
  11:Drivers/CMSIS/DSP/Source/FilteringFunctions/arm_iir_lattice_q31.c **** /*
  12:Drivers/CMSIS/DSP/Source/FilteringFunctions/arm_iir_lattice_q31.c ****  * Copyright (C) 2010-2017 ARM Limited or its affiliates. All rights reserved.
  13:Drivers/CMSIS/DSP/Source/FilteringFunctions/arm_iir_lattice_q31.c ****  *
  14:Drivers/CMSIS/DSP/Source/FilteringFunctions/arm_iir_lattice_q31.c ****  * SPDX-License-Identifier: Apache-2.0
  15:Drivers/CMSIS/DSP/Source/FilteringFunctions/arm_iir_lattice_q31.c ****  *
  16:Drivers/CMSIS/DSP/Source/FilteringFunctions/arm_iir_lattice_q31.c ****  * Licensed under the Apache License, Version 2.0 (the License); you may
  17:Drivers/CMSIS/DSP/Source/FilteringFunctions/arm_iir_lattice_q31.c ****  * not use this file except in compliance with the License.
  18:Drivers/CMSIS/DSP/Source/FilteringFunctions/arm_iir_lattice_q31.c ****  * You may obtain a copy of the License at
  19:Drivers/CMSIS/DSP/Source/FilteringFunctions/arm_iir_lattice_q31.c ****  *
  20:Drivers/CMSIS/DSP/Source/FilteringFunctions/arm_iir_lattice_q31.c ****  * www.apache.org/licenses/LICENSE-2.0
  21:Drivers/CMSIS/DSP/Source/FilteringFunctions/arm_iir_lattice_q31.c ****  *
  22:Drivers/CMSIS/DSP/Source/FilteringFunctions/arm_iir_lattice_q31.c ****  * Unless required by applicable law or agreed to in writing, software
  23:Drivers/CMSIS/DSP/Source/FilteringFunctions/arm_iir_lattice_q31.c ****  * distributed under the License is distributed on an AS IS BASIS, WITHOUT
  24:Drivers/CMSIS/DSP/Source/FilteringFunctions/arm_iir_lattice_q31.c ****  * WARRANTIES OR CONDITIONS OF ANY KIND, either express or implied.
  25:Drivers/CMSIS/DSP/Source/FilteringFunctions/arm_iir_lattice_q31.c ****  * See the License for the specific language governing permissions and
  26:Drivers/CMSIS/DSP/Source/FilteringFunctions/arm_iir_lattice_q31.c ****  * limitations under the License.
  27:Drivers/CMSIS/DSP/Source/FilteringFunctions/arm_iir_lattice_q31.c ****  */
  28:Drivers/CMSIS/DSP/Source/FilteringFunctions/arm_iir_lattice_q31.c **** 
  29:Drivers/CMSIS/DSP/Source/FilteringFunctions/arm_iir_lattice_q31.c **** #include "arm_math.h"
  30:Drivers/CMSIS/DSP/Source/FilteringFunctions/arm_iir_lattice_q31.c **** 
ARM GAS  /var/folders/n6/c271nzx11xl4r4_m7sqjlt0m0000gn/T//ccgmP6qh.s 			page 2


  31:Drivers/CMSIS/DSP/Source/FilteringFunctions/arm_iir_lattice_q31.c **** /**
  32:Drivers/CMSIS/DSP/Source/FilteringFunctions/arm_iir_lattice_q31.c ****  * @ingroup groupFilters
  33:Drivers/CMSIS/DSP/Source/FilteringFunctions/arm_iir_lattice_q31.c ****  */
  34:Drivers/CMSIS/DSP/Source/FilteringFunctions/arm_iir_lattice_q31.c **** 
  35:Drivers/CMSIS/DSP/Source/FilteringFunctions/arm_iir_lattice_q31.c **** /**
  36:Drivers/CMSIS/DSP/Source/FilteringFunctions/arm_iir_lattice_q31.c ****  * @addtogroup IIR_Lattice
  37:Drivers/CMSIS/DSP/Source/FilteringFunctions/arm_iir_lattice_q31.c ****  * @{
  38:Drivers/CMSIS/DSP/Source/FilteringFunctions/arm_iir_lattice_q31.c ****  */
  39:Drivers/CMSIS/DSP/Source/FilteringFunctions/arm_iir_lattice_q31.c **** 
  40:Drivers/CMSIS/DSP/Source/FilteringFunctions/arm_iir_lattice_q31.c **** /**
  41:Drivers/CMSIS/DSP/Source/FilteringFunctions/arm_iir_lattice_q31.c ****  * @brief Processing function for the Q31 IIR lattice filter.
  42:Drivers/CMSIS/DSP/Source/FilteringFunctions/arm_iir_lattice_q31.c ****  * @param[in] *S points to an instance of the Q31 IIR lattice structure.
  43:Drivers/CMSIS/DSP/Source/FilteringFunctions/arm_iir_lattice_q31.c ****  * @param[in] *pSrc points to the block of input data.
  44:Drivers/CMSIS/DSP/Source/FilteringFunctions/arm_iir_lattice_q31.c ****  * @param[out] *pDst points to the block of output data.
  45:Drivers/CMSIS/DSP/Source/FilteringFunctions/arm_iir_lattice_q31.c ****  * @param[in] blockSize number of samples to process.
  46:Drivers/CMSIS/DSP/Source/FilteringFunctions/arm_iir_lattice_q31.c ****  * @return none.
  47:Drivers/CMSIS/DSP/Source/FilteringFunctions/arm_iir_lattice_q31.c ****  *
  48:Drivers/CMSIS/DSP/Source/FilteringFunctions/arm_iir_lattice_q31.c ****  * @details
  49:Drivers/CMSIS/DSP/Source/FilteringFunctions/arm_iir_lattice_q31.c ****  * <b>Scaling and Overflow Behavior:</b>
  50:Drivers/CMSIS/DSP/Source/FilteringFunctions/arm_iir_lattice_q31.c ****  * \par
  51:Drivers/CMSIS/DSP/Source/FilteringFunctions/arm_iir_lattice_q31.c ****  * The function is implemented using an internal 64-bit accumulator.
  52:Drivers/CMSIS/DSP/Source/FilteringFunctions/arm_iir_lattice_q31.c ****  * The accumulator has a 2.62 format and maintains full precision of the intermediate multiplicatio
  53:Drivers/CMSIS/DSP/Source/FilteringFunctions/arm_iir_lattice_q31.c ****  * Thus, if the accumulator result overflows it wraps around rather than clip.
  54:Drivers/CMSIS/DSP/Source/FilteringFunctions/arm_iir_lattice_q31.c ****  * In order to avoid overflows completely the input signal must be scaled down by 2*log2(numStages)
  55:Drivers/CMSIS/DSP/Source/FilteringFunctions/arm_iir_lattice_q31.c ****  * After all multiply-accumulates are performed, the 2.62 accumulator is saturated to 1.32 format a
  56:Drivers/CMSIS/DSP/Source/FilteringFunctions/arm_iir_lattice_q31.c ****  */
  57:Drivers/CMSIS/DSP/Source/FilteringFunctions/arm_iir_lattice_q31.c **** 
  58:Drivers/CMSIS/DSP/Source/FilteringFunctions/arm_iir_lattice_q31.c **** void arm_iir_lattice_q31(
  59:Drivers/CMSIS/DSP/Source/FilteringFunctions/arm_iir_lattice_q31.c ****   const arm_iir_lattice_instance_q31 * S,
  60:Drivers/CMSIS/DSP/Source/FilteringFunctions/arm_iir_lattice_q31.c ****   q31_t * pSrc,
  61:Drivers/CMSIS/DSP/Source/FilteringFunctions/arm_iir_lattice_q31.c ****   q31_t * pDst,
  62:Drivers/CMSIS/DSP/Source/FilteringFunctions/arm_iir_lattice_q31.c ****   uint32_t blockSize)
  63:Drivers/CMSIS/DSP/Source/FilteringFunctions/arm_iir_lattice_q31.c **** {
  29              		.loc 1 63 1 view -0
  30              		.cfi_startproc
  31              		@ args = 0, pretend = 0, frame = 32
  32              		@ frame_needed = 0, uses_anonymous_args = 0
  33              		.loc 1 63 1 is_stmt 0 view .LVU1
  34 0000 2DE9F04F 		push	{r4, r5, r6, r7, r8, r9, r10, fp, lr}
  35              		.cfi_def_cfa_offset 36
  36              		.cfi_offset 4, -36
  37              		.cfi_offset 5, -32
  38              		.cfi_offset 6, -28
  39              		.cfi_offset 7, -24
  40              		.cfi_offset 8, -20
  41              		.cfi_offset 9, -16
  42              		.cfi_offset 10, -12
  43              		.cfi_offset 11, -8
  44              		.cfi_offset 14, -4
  45 0004 89B0     		sub	sp, sp, #36
  46              		.cfi_def_cfa_offset 72
  47 0006 0192     		str	r2, [sp, #4]
  48 0008 1A46     		mov	r2, r3
  49              	.LVL1:
  64:Drivers/CMSIS/DSP/Source/FilteringFunctions/arm_iir_lattice_q31.c ****   q31_t fcurr, fnext = 0, gcurr = 0, gnext;      /* Temporary variables for lattice stages */
  50              		.loc 1 64 3 is_stmt 1 view .LVU2
  65:Drivers/CMSIS/DSP/Source/FilteringFunctions/arm_iir_lattice_q31.c ****   q63_t acc;                                     /* Accumlator */
ARM GAS  /var/folders/n6/c271nzx11xl4r4_m7sqjlt0m0000gn/T//ccgmP6qh.s 			page 3


  51              		.loc 1 65 3 view .LVU3
  66:Drivers/CMSIS/DSP/Source/FilteringFunctions/arm_iir_lattice_q31.c ****   uint32_t blkCnt, tapCnt;                       /* Temporary variables for counts */
  52              		.loc 1 66 3 view .LVU4
  67:Drivers/CMSIS/DSP/Source/FilteringFunctions/arm_iir_lattice_q31.c ****   q31_t *px1, *px2, *pk, *pv;                    /* Temporary pointers for state and coef */
  53              		.loc 1 67 3 view .LVU5
  68:Drivers/CMSIS/DSP/Source/FilteringFunctions/arm_iir_lattice_q31.c ****   uint32_t numStages = S->numStages;             /* number of stages */
  54              		.loc 1 68 3 view .LVU6
  55              		.loc 1 68 25 is_stmt 0 view .LVU7
  56 000a 0388     		ldrh	r3, [r0]
  57              	.LVL2:
  58              		.loc 1 68 25 view .LVU8
  59 000c 0593     		str	r3, [sp, #20]
  60              	.LVL3:
  69:Drivers/CMSIS/DSP/Source/FilteringFunctions/arm_iir_lattice_q31.c ****   q31_t *pState;                                 /* State pointer */
  61              		.loc 1 69 3 is_stmt 1 view .LVU9
  70:Drivers/CMSIS/DSP/Source/FilteringFunctions/arm_iir_lattice_q31.c ****   q31_t *pStateCurnt;                            /* State current pointer */
  62              		.loc 1 70 3 view .LVU10
  71:Drivers/CMSIS/DSP/Source/FilteringFunctions/arm_iir_lattice_q31.c **** 
  72:Drivers/CMSIS/DSP/Source/FilteringFunctions/arm_iir_lattice_q31.c ****   blkCnt = blockSize;
  63              		.loc 1 72 3 view .LVU11
  73:Drivers/CMSIS/DSP/Source/FilteringFunctions/arm_iir_lattice_q31.c **** 
  74:Drivers/CMSIS/DSP/Source/FilteringFunctions/arm_iir_lattice_q31.c ****   pState = &S->pState[0];
  64              		.loc 1 74 3 view .LVU12
  65              		.loc 1 74 10 is_stmt 0 view .LVU13
  66 000e D0F804E0 		ldr	lr, [r0, #4]
  67              	.LVL4:
  75:Drivers/CMSIS/DSP/Source/FilteringFunctions/arm_iir_lattice_q31.c **** 
  76:Drivers/CMSIS/DSP/Source/FilteringFunctions/arm_iir_lattice_q31.c **** 
  77:Drivers/CMSIS/DSP/Source/FilteringFunctions/arm_iir_lattice_q31.c **** #if defined (ARM_MATH_DSP)
  78:Drivers/CMSIS/DSP/Source/FilteringFunctions/arm_iir_lattice_q31.c **** 
  79:Drivers/CMSIS/DSP/Source/FilteringFunctions/arm_iir_lattice_q31.c ****   /* Run the below code for Cortex-M4 and Cortex-M3 */
  80:Drivers/CMSIS/DSP/Source/FilteringFunctions/arm_iir_lattice_q31.c **** 
  81:Drivers/CMSIS/DSP/Source/FilteringFunctions/arm_iir_lattice_q31.c ****   /* Sample processing */
  82:Drivers/CMSIS/DSP/Source/FilteringFunctions/arm_iir_lattice_q31.c ****   while (blkCnt > 0U)
  68              		.loc 1 82 3 is_stmt 1 view .LVU14
  69 0012 0092     		str	r2, [sp]
  70 0014 F446     		mov	ip, lr
  71 0016 0690     		str	r0, [sp, #24]
  72 0018 8E46     		mov	lr, r1
  73              	.LVL5:
  74              		.loc 1 82 3 is_stmt 0 view .LVU15
  75 001a 0792     		str	r2, [sp, #28]
  76              		.loc 1 82 9 view .LVU16
  77 001c 34E1     		b	.L2
  78              	.LVL6:
  79              	.L4:
  83:Drivers/CMSIS/DSP/Source/FilteringFunctions/arm_iir_lattice_q31.c ****   {
  84:Drivers/CMSIS/DSP/Source/FilteringFunctions/arm_iir_lattice_q31.c ****     /* Read Sample from input buffer */
  85:Drivers/CMSIS/DSP/Source/FilteringFunctions/arm_iir_lattice_q31.c ****     /* fN(n) = x(n) */
  86:Drivers/CMSIS/DSP/Source/FilteringFunctions/arm_iir_lattice_q31.c ****     fcurr = *pSrc++;
  87:Drivers/CMSIS/DSP/Source/FilteringFunctions/arm_iir_lattice_q31.c **** 
  88:Drivers/CMSIS/DSP/Source/FilteringFunctions/arm_iir_lattice_q31.c ****     /* Initialize state read pointer */
  89:Drivers/CMSIS/DSP/Source/FilteringFunctions/arm_iir_lattice_q31.c ****     px1 = pState;
  90:Drivers/CMSIS/DSP/Source/FilteringFunctions/arm_iir_lattice_q31.c ****     /* Initialize state write pointer */
  91:Drivers/CMSIS/DSP/Source/FilteringFunctions/arm_iir_lattice_q31.c ****     px2 = pState;
  92:Drivers/CMSIS/DSP/Source/FilteringFunctions/arm_iir_lattice_q31.c ****     /* Set accumulator to zero */
  93:Drivers/CMSIS/DSP/Source/FilteringFunctions/arm_iir_lattice_q31.c ****     acc = 0;
ARM GAS  /var/folders/n6/c271nzx11xl4r4_m7sqjlt0m0000gn/T//ccgmP6qh.s 			page 4


  94:Drivers/CMSIS/DSP/Source/FilteringFunctions/arm_iir_lattice_q31.c ****     /* Initialize Ladder coeff pointer */
  95:Drivers/CMSIS/DSP/Source/FilteringFunctions/arm_iir_lattice_q31.c ****     pv = &S->pvCoeffs[0];
  96:Drivers/CMSIS/DSP/Source/FilteringFunctions/arm_iir_lattice_q31.c ****     /* Initialize Reflection coeff pointer */
  97:Drivers/CMSIS/DSP/Source/FilteringFunctions/arm_iir_lattice_q31.c ****     pk = &S->pkCoeffs[0];
  98:Drivers/CMSIS/DSP/Source/FilteringFunctions/arm_iir_lattice_q31.c **** 
  99:Drivers/CMSIS/DSP/Source/FilteringFunctions/arm_iir_lattice_q31.c **** 
 100:Drivers/CMSIS/DSP/Source/FilteringFunctions/arm_iir_lattice_q31.c ****     /* Process sample for first tap */
 101:Drivers/CMSIS/DSP/Source/FilteringFunctions/arm_iir_lattice_q31.c ****     gcurr = *px1++;
 102:Drivers/CMSIS/DSP/Source/FilteringFunctions/arm_iir_lattice_q31.c ****     /* fN-1(n) = fN(n) - kN * gN-1(n-1) */
 103:Drivers/CMSIS/DSP/Source/FilteringFunctions/arm_iir_lattice_q31.c ****     fnext = __QSUB(fcurr, (q31_t) (((q63_t) gcurr * (*pk)) >> 31));
 104:Drivers/CMSIS/DSP/Source/FilteringFunctions/arm_iir_lattice_q31.c ****     /* gN(n) = kN * fN-1(n) + gN-1(n-1) */
 105:Drivers/CMSIS/DSP/Source/FilteringFunctions/arm_iir_lattice_q31.c ****     gnext = __QADD(gcurr, (q31_t) (((q63_t) fnext * (*pk++)) >> 31));
 106:Drivers/CMSIS/DSP/Source/FilteringFunctions/arm_iir_lattice_q31.c ****     /* write gN-1(n-1) into state for next sample processing */
 107:Drivers/CMSIS/DSP/Source/FilteringFunctions/arm_iir_lattice_q31.c ****     *px2++ = gnext;
 108:Drivers/CMSIS/DSP/Source/FilteringFunctions/arm_iir_lattice_q31.c ****     /* y(n) += gN(n) * vN  */
 109:Drivers/CMSIS/DSP/Source/FilteringFunctions/arm_iir_lattice_q31.c ****     acc += ((q63_t) gnext * *pv++);
 110:Drivers/CMSIS/DSP/Source/FilteringFunctions/arm_iir_lattice_q31.c **** 
 111:Drivers/CMSIS/DSP/Source/FilteringFunctions/arm_iir_lattice_q31.c ****     /* Update f values for next coefficient processing */
 112:Drivers/CMSIS/DSP/Source/FilteringFunctions/arm_iir_lattice_q31.c ****     fcurr = fnext;
 113:Drivers/CMSIS/DSP/Source/FilteringFunctions/arm_iir_lattice_q31.c **** 
 114:Drivers/CMSIS/DSP/Source/FilteringFunctions/arm_iir_lattice_q31.c ****     /* Loop unrolling.  Process 4 taps at a time. */
 115:Drivers/CMSIS/DSP/Source/FilteringFunctions/arm_iir_lattice_q31.c ****     tapCnt = (numStages - 1U) >> 2;
 116:Drivers/CMSIS/DSP/Source/FilteringFunctions/arm_iir_lattice_q31.c **** 
 117:Drivers/CMSIS/DSP/Source/FilteringFunctions/arm_iir_lattice_q31.c ****     while (tapCnt > 0U)
 118:Drivers/CMSIS/DSP/Source/FilteringFunctions/arm_iir_lattice_q31.c ****     {
 119:Drivers/CMSIS/DSP/Source/FilteringFunctions/arm_iir_lattice_q31.c **** 
 120:Drivers/CMSIS/DSP/Source/FilteringFunctions/arm_iir_lattice_q31.c ****       /* Process sample for 2nd, 6th .. taps */
 121:Drivers/CMSIS/DSP/Source/FilteringFunctions/arm_iir_lattice_q31.c ****       /* Read gN-2(n-1) from state buffer */
 122:Drivers/CMSIS/DSP/Source/FilteringFunctions/arm_iir_lattice_q31.c ****       gcurr = *px1++;
  80              		.loc 1 122 7 is_stmt 1 view .LVU17
  81              		.loc 1 122 13 is_stmt 0 view .LVU18
  82 001e DCF800E0 		ldr	lr, [ip]
  83              	.LVL7:
 123:Drivers/CMSIS/DSP/Source/FilteringFunctions/arm_iir_lattice_q31.c ****       /* fN-2(n) = fN-1(n) - kN-1 * gN-2(n-1) */
 124:Drivers/CMSIS/DSP/Source/FilteringFunctions/arm_iir_lattice_q31.c ****       fnext = __QSUB(fcurr, (q31_t) (((q63_t) gcurr * (*pk)) >> 31));
  84              		.loc 1 124 7 is_stmt 1 view .LVU19
  85              		.loc 1 124 39 is_stmt 0 view .LVU20
  86 0022 4FEAEE78 		asr	r8, lr, #31
  87              		.loc 1 124 56 view .LVU21
  88 0026 3268     		ldr	r2, [r6]
  89 0028 4FEAE27A 		asr	r10, r2, #31
  90              		.loc 1 124 53 view .LVU22
  91 002c 0EFB0AFB 		mul	fp, lr, r10
  92 0030 02FB08BB 		mla	fp, r2, r8, fp
  93 0034 AEFB0289 		umull	r8, r9, lr, r2
  94 0038 D944     		add	r9, r9, fp
  95              		.loc 1 124 62 view .LVU23
  96 003a 4FEAD878 		lsr	r8, r8, #31
  97 003e 48EA4908 		orr	r8, r8, r9, lsl #1
  98              	.LVL8:
  99              	.LBB26:
 100              	.LBI26:
 101              		.file 2 "Drivers/CMSIS/Include/cmsis_gcc.h"
   1:Drivers/CMSIS/Include/cmsis_gcc.h **** /**************************************************************************//**
   2:Drivers/CMSIS/Include/cmsis_gcc.h ****  * @file     cmsis_gcc.h
   3:Drivers/CMSIS/Include/cmsis_gcc.h ****  * @brief    CMSIS compiler GCC header file
   4:Drivers/CMSIS/Include/cmsis_gcc.h ****  * @version  V5.0.4
ARM GAS  /var/folders/n6/c271nzx11xl4r4_m7sqjlt0m0000gn/T//ccgmP6qh.s 			page 5


   5:Drivers/CMSIS/Include/cmsis_gcc.h ****  * @date     09. April 2018
   6:Drivers/CMSIS/Include/cmsis_gcc.h ****  ******************************************************************************/
   7:Drivers/CMSIS/Include/cmsis_gcc.h **** /*
   8:Drivers/CMSIS/Include/cmsis_gcc.h ****  * Copyright (c) 2009-2018 Arm Limited. All rights reserved.
   9:Drivers/CMSIS/Include/cmsis_gcc.h ****  *
  10:Drivers/CMSIS/Include/cmsis_gcc.h ****  * SPDX-License-Identifier: Apache-2.0
  11:Drivers/CMSIS/Include/cmsis_gcc.h ****  *
  12:Drivers/CMSIS/Include/cmsis_gcc.h ****  * Licensed under the Apache License, Version 2.0 (the License); you may
  13:Drivers/CMSIS/Include/cmsis_gcc.h ****  * not use this file except in compliance with the License.
  14:Drivers/CMSIS/Include/cmsis_gcc.h ****  * You may obtain a copy of the License at
  15:Drivers/CMSIS/Include/cmsis_gcc.h ****  *
  16:Drivers/CMSIS/Include/cmsis_gcc.h ****  * www.apache.org/licenses/LICENSE-2.0
  17:Drivers/CMSIS/Include/cmsis_gcc.h ****  *
  18:Drivers/CMSIS/Include/cmsis_gcc.h ****  * Unless required by applicable law or agreed to in writing, software
  19:Drivers/CMSIS/Include/cmsis_gcc.h ****  * distributed under the License is distributed on an AS IS BASIS, WITHOUT
  20:Drivers/CMSIS/Include/cmsis_gcc.h ****  * WARRANTIES OR CONDITIONS OF ANY KIND, either express or implied.
  21:Drivers/CMSIS/Include/cmsis_gcc.h ****  * See the License for the specific language governing permissions and
  22:Drivers/CMSIS/Include/cmsis_gcc.h ****  * limitations under the License.
  23:Drivers/CMSIS/Include/cmsis_gcc.h ****  */
  24:Drivers/CMSIS/Include/cmsis_gcc.h **** 
  25:Drivers/CMSIS/Include/cmsis_gcc.h **** #ifndef __CMSIS_GCC_H
  26:Drivers/CMSIS/Include/cmsis_gcc.h **** #define __CMSIS_GCC_H
  27:Drivers/CMSIS/Include/cmsis_gcc.h **** 
  28:Drivers/CMSIS/Include/cmsis_gcc.h **** /* ignore some GCC warnings */
  29:Drivers/CMSIS/Include/cmsis_gcc.h **** #pragma GCC diagnostic push
  30:Drivers/CMSIS/Include/cmsis_gcc.h **** #pragma GCC diagnostic ignored "-Wsign-conversion"
  31:Drivers/CMSIS/Include/cmsis_gcc.h **** #pragma GCC diagnostic ignored "-Wconversion"
  32:Drivers/CMSIS/Include/cmsis_gcc.h **** #pragma GCC diagnostic ignored "-Wunused-parameter"
  33:Drivers/CMSIS/Include/cmsis_gcc.h **** 
  34:Drivers/CMSIS/Include/cmsis_gcc.h **** /* Fallback for __has_builtin */
  35:Drivers/CMSIS/Include/cmsis_gcc.h **** #ifndef __has_builtin
  36:Drivers/CMSIS/Include/cmsis_gcc.h ****   #define __has_builtin(x) (0)
  37:Drivers/CMSIS/Include/cmsis_gcc.h **** #endif
  38:Drivers/CMSIS/Include/cmsis_gcc.h **** 
  39:Drivers/CMSIS/Include/cmsis_gcc.h **** /* CMSIS compiler specific defines */
  40:Drivers/CMSIS/Include/cmsis_gcc.h **** #ifndef   __ASM
  41:Drivers/CMSIS/Include/cmsis_gcc.h ****   #define __ASM                                  __asm
  42:Drivers/CMSIS/Include/cmsis_gcc.h **** #endif
  43:Drivers/CMSIS/Include/cmsis_gcc.h **** #ifndef   __INLINE
  44:Drivers/CMSIS/Include/cmsis_gcc.h ****   #define __INLINE                               inline
  45:Drivers/CMSIS/Include/cmsis_gcc.h **** #endif
  46:Drivers/CMSIS/Include/cmsis_gcc.h **** #ifndef   __STATIC_INLINE
  47:Drivers/CMSIS/Include/cmsis_gcc.h ****   #define __STATIC_INLINE                        static inline
  48:Drivers/CMSIS/Include/cmsis_gcc.h **** #endif
  49:Drivers/CMSIS/Include/cmsis_gcc.h **** #ifndef   __STATIC_FORCEINLINE                 
  50:Drivers/CMSIS/Include/cmsis_gcc.h ****   #define __STATIC_FORCEINLINE                   __attribute__((always_inline)) static inline
  51:Drivers/CMSIS/Include/cmsis_gcc.h **** #endif                                           
  52:Drivers/CMSIS/Include/cmsis_gcc.h **** #ifndef   __NO_RETURN
  53:Drivers/CMSIS/Include/cmsis_gcc.h ****   #define __NO_RETURN                            __attribute__((__noreturn__))
  54:Drivers/CMSIS/Include/cmsis_gcc.h **** #endif
  55:Drivers/CMSIS/Include/cmsis_gcc.h **** #ifndef   __USED
  56:Drivers/CMSIS/Include/cmsis_gcc.h ****   #define __USED                                 __attribute__((used))
  57:Drivers/CMSIS/Include/cmsis_gcc.h **** #endif
  58:Drivers/CMSIS/Include/cmsis_gcc.h **** #ifndef   __WEAK
  59:Drivers/CMSIS/Include/cmsis_gcc.h ****   #define __WEAK                                 __attribute__((weak))
  60:Drivers/CMSIS/Include/cmsis_gcc.h **** #endif
  61:Drivers/CMSIS/Include/cmsis_gcc.h **** #ifndef   __PACKED
ARM GAS  /var/folders/n6/c271nzx11xl4r4_m7sqjlt0m0000gn/T//ccgmP6qh.s 			page 6


  62:Drivers/CMSIS/Include/cmsis_gcc.h ****   #define __PACKED                               __attribute__((packed, aligned(1)))
  63:Drivers/CMSIS/Include/cmsis_gcc.h **** #endif
  64:Drivers/CMSIS/Include/cmsis_gcc.h **** #ifndef   __PACKED_STRUCT
  65:Drivers/CMSIS/Include/cmsis_gcc.h ****   #define __PACKED_STRUCT                        struct __attribute__((packed, aligned(1)))
  66:Drivers/CMSIS/Include/cmsis_gcc.h **** #endif
  67:Drivers/CMSIS/Include/cmsis_gcc.h **** #ifndef   __PACKED_UNION
  68:Drivers/CMSIS/Include/cmsis_gcc.h ****   #define __PACKED_UNION                         union __attribute__((packed, aligned(1)))
  69:Drivers/CMSIS/Include/cmsis_gcc.h **** #endif
  70:Drivers/CMSIS/Include/cmsis_gcc.h **** #ifndef   __UNALIGNED_UINT32        /* deprecated */
  71:Drivers/CMSIS/Include/cmsis_gcc.h ****   #pragma GCC diagnostic push
  72:Drivers/CMSIS/Include/cmsis_gcc.h ****   #pragma GCC diagnostic ignored "-Wpacked"
  73:Drivers/CMSIS/Include/cmsis_gcc.h ****   #pragma GCC diagnostic ignored "-Wattributes"
  74:Drivers/CMSIS/Include/cmsis_gcc.h ****   struct __attribute__((packed)) T_UINT32 { uint32_t v; };
  75:Drivers/CMSIS/Include/cmsis_gcc.h ****   #pragma GCC diagnostic pop
  76:Drivers/CMSIS/Include/cmsis_gcc.h ****   #define __UNALIGNED_UINT32(x)                  (((struct T_UINT32 *)(x))->v)
  77:Drivers/CMSIS/Include/cmsis_gcc.h **** #endif
  78:Drivers/CMSIS/Include/cmsis_gcc.h **** #ifndef   __UNALIGNED_UINT16_WRITE
  79:Drivers/CMSIS/Include/cmsis_gcc.h ****   #pragma GCC diagnostic push
  80:Drivers/CMSIS/Include/cmsis_gcc.h ****   #pragma GCC diagnostic ignored "-Wpacked"
  81:Drivers/CMSIS/Include/cmsis_gcc.h ****   #pragma GCC diagnostic ignored "-Wattributes"
  82:Drivers/CMSIS/Include/cmsis_gcc.h ****   __PACKED_STRUCT T_UINT16_WRITE { uint16_t v; };
  83:Drivers/CMSIS/Include/cmsis_gcc.h ****   #pragma GCC diagnostic pop
  84:Drivers/CMSIS/Include/cmsis_gcc.h ****   #define __UNALIGNED_UINT16_WRITE(addr, val)    (void)((((struct T_UINT16_WRITE *)(void *)(addr))-
  85:Drivers/CMSIS/Include/cmsis_gcc.h **** #endif
  86:Drivers/CMSIS/Include/cmsis_gcc.h **** #ifndef   __UNALIGNED_UINT16_READ
  87:Drivers/CMSIS/Include/cmsis_gcc.h ****   #pragma GCC diagnostic push
  88:Drivers/CMSIS/Include/cmsis_gcc.h ****   #pragma GCC diagnostic ignored "-Wpacked"
  89:Drivers/CMSIS/Include/cmsis_gcc.h ****   #pragma GCC diagnostic ignored "-Wattributes"
  90:Drivers/CMSIS/Include/cmsis_gcc.h ****   __PACKED_STRUCT T_UINT16_READ { uint16_t v; };
  91:Drivers/CMSIS/Include/cmsis_gcc.h ****   #pragma GCC diagnostic pop
  92:Drivers/CMSIS/Include/cmsis_gcc.h ****   #define __UNALIGNED_UINT16_READ(addr)          (((const struct T_UINT16_READ *)(const void *)(add
  93:Drivers/CMSIS/Include/cmsis_gcc.h **** #endif
  94:Drivers/CMSIS/Include/cmsis_gcc.h **** #ifndef   __UNALIGNED_UINT32_WRITE
  95:Drivers/CMSIS/Include/cmsis_gcc.h ****   #pragma GCC diagnostic push
  96:Drivers/CMSIS/Include/cmsis_gcc.h ****   #pragma GCC diagnostic ignored "-Wpacked"
  97:Drivers/CMSIS/Include/cmsis_gcc.h ****   #pragma GCC diagnostic ignored "-Wattributes"
  98:Drivers/CMSIS/Include/cmsis_gcc.h ****   __PACKED_STRUCT T_UINT32_WRITE { uint32_t v; };
  99:Drivers/CMSIS/Include/cmsis_gcc.h ****   #pragma GCC diagnostic pop
 100:Drivers/CMSIS/Include/cmsis_gcc.h ****   #define __UNALIGNED_UINT32_WRITE(addr, val)    (void)((((struct T_UINT32_WRITE *)(void *)(addr))-
 101:Drivers/CMSIS/Include/cmsis_gcc.h **** #endif
 102:Drivers/CMSIS/Include/cmsis_gcc.h **** #ifndef   __UNALIGNED_UINT32_READ
 103:Drivers/CMSIS/Include/cmsis_gcc.h ****   #pragma GCC diagnostic push
 104:Drivers/CMSIS/Include/cmsis_gcc.h ****   #pragma GCC diagnostic ignored "-Wpacked"
 105:Drivers/CMSIS/Include/cmsis_gcc.h ****   #pragma GCC diagnostic ignored "-Wattributes"
 106:Drivers/CMSIS/Include/cmsis_gcc.h ****   __PACKED_STRUCT T_UINT32_READ { uint32_t v; };
 107:Drivers/CMSIS/Include/cmsis_gcc.h ****   #pragma GCC diagnostic pop
 108:Drivers/CMSIS/Include/cmsis_gcc.h ****   #define __UNALIGNED_UINT32_READ(addr)          (((const struct T_UINT32_READ *)(const void *)(add
 109:Drivers/CMSIS/Include/cmsis_gcc.h **** #endif
 110:Drivers/CMSIS/Include/cmsis_gcc.h **** #ifndef   __ALIGNED
 111:Drivers/CMSIS/Include/cmsis_gcc.h ****   #define __ALIGNED(x)                           __attribute__((aligned(x)))
 112:Drivers/CMSIS/Include/cmsis_gcc.h **** #endif
 113:Drivers/CMSIS/Include/cmsis_gcc.h **** #ifndef   __RESTRICT
 114:Drivers/CMSIS/Include/cmsis_gcc.h ****   #define __RESTRICT                             __restrict
 115:Drivers/CMSIS/Include/cmsis_gcc.h **** #endif
 116:Drivers/CMSIS/Include/cmsis_gcc.h **** 
 117:Drivers/CMSIS/Include/cmsis_gcc.h **** 
 118:Drivers/CMSIS/Include/cmsis_gcc.h **** /* ###########################  Core Function Access  ########################### */
ARM GAS  /var/folders/n6/c271nzx11xl4r4_m7sqjlt0m0000gn/T//ccgmP6qh.s 			page 7


 119:Drivers/CMSIS/Include/cmsis_gcc.h **** /** \ingroup  CMSIS_Core_FunctionInterface
 120:Drivers/CMSIS/Include/cmsis_gcc.h ****     \defgroup CMSIS_Core_RegAccFunctions CMSIS Core Register Access Functions
 121:Drivers/CMSIS/Include/cmsis_gcc.h ****   @{
 122:Drivers/CMSIS/Include/cmsis_gcc.h ****  */
 123:Drivers/CMSIS/Include/cmsis_gcc.h **** 
 124:Drivers/CMSIS/Include/cmsis_gcc.h **** /**
 125:Drivers/CMSIS/Include/cmsis_gcc.h ****   \brief   Enable IRQ Interrupts
 126:Drivers/CMSIS/Include/cmsis_gcc.h ****   \details Enables IRQ interrupts by clearing the I-bit in the CPSR.
 127:Drivers/CMSIS/Include/cmsis_gcc.h ****            Can only be executed in Privileged modes.
 128:Drivers/CMSIS/Include/cmsis_gcc.h ****  */
 129:Drivers/CMSIS/Include/cmsis_gcc.h **** __STATIC_FORCEINLINE void __enable_irq(void)
 130:Drivers/CMSIS/Include/cmsis_gcc.h **** {
 131:Drivers/CMSIS/Include/cmsis_gcc.h ****   __ASM volatile ("cpsie i" : : : "memory");
 132:Drivers/CMSIS/Include/cmsis_gcc.h **** }
 133:Drivers/CMSIS/Include/cmsis_gcc.h **** 
 134:Drivers/CMSIS/Include/cmsis_gcc.h **** 
 135:Drivers/CMSIS/Include/cmsis_gcc.h **** /**
 136:Drivers/CMSIS/Include/cmsis_gcc.h ****   \brief   Disable IRQ Interrupts
 137:Drivers/CMSIS/Include/cmsis_gcc.h ****   \details Disables IRQ interrupts by setting the I-bit in the CPSR.
 138:Drivers/CMSIS/Include/cmsis_gcc.h ****            Can only be executed in Privileged modes.
 139:Drivers/CMSIS/Include/cmsis_gcc.h ****  */
 140:Drivers/CMSIS/Include/cmsis_gcc.h **** __STATIC_FORCEINLINE void __disable_irq(void)
 141:Drivers/CMSIS/Include/cmsis_gcc.h **** {
 142:Drivers/CMSIS/Include/cmsis_gcc.h ****   __ASM volatile ("cpsid i" : : : "memory");
 143:Drivers/CMSIS/Include/cmsis_gcc.h **** }
 144:Drivers/CMSIS/Include/cmsis_gcc.h **** 
 145:Drivers/CMSIS/Include/cmsis_gcc.h **** 
 146:Drivers/CMSIS/Include/cmsis_gcc.h **** /**
 147:Drivers/CMSIS/Include/cmsis_gcc.h ****   \brief   Get Control Register
 148:Drivers/CMSIS/Include/cmsis_gcc.h ****   \details Returns the content of the Control Register.
 149:Drivers/CMSIS/Include/cmsis_gcc.h ****   \return               Control Register value
 150:Drivers/CMSIS/Include/cmsis_gcc.h ****  */
 151:Drivers/CMSIS/Include/cmsis_gcc.h **** __STATIC_FORCEINLINE uint32_t __get_CONTROL(void)
 152:Drivers/CMSIS/Include/cmsis_gcc.h **** {
 153:Drivers/CMSIS/Include/cmsis_gcc.h ****   uint32_t result;
 154:Drivers/CMSIS/Include/cmsis_gcc.h **** 
 155:Drivers/CMSIS/Include/cmsis_gcc.h ****   __ASM volatile ("MRS %0, control" : "=r" (result) );
 156:Drivers/CMSIS/Include/cmsis_gcc.h ****   return(result);
 157:Drivers/CMSIS/Include/cmsis_gcc.h **** }
 158:Drivers/CMSIS/Include/cmsis_gcc.h **** 
 159:Drivers/CMSIS/Include/cmsis_gcc.h **** 
 160:Drivers/CMSIS/Include/cmsis_gcc.h **** #if (defined (__ARM_FEATURE_CMSE ) && (__ARM_FEATURE_CMSE == 3))
 161:Drivers/CMSIS/Include/cmsis_gcc.h **** /**
 162:Drivers/CMSIS/Include/cmsis_gcc.h ****   \brief   Get Control Register (non-secure)
 163:Drivers/CMSIS/Include/cmsis_gcc.h ****   \details Returns the content of the non-secure Control Register when in secure mode.
 164:Drivers/CMSIS/Include/cmsis_gcc.h ****   \return               non-secure Control Register value
 165:Drivers/CMSIS/Include/cmsis_gcc.h ****  */
 166:Drivers/CMSIS/Include/cmsis_gcc.h **** __STATIC_FORCEINLINE uint32_t __TZ_get_CONTROL_NS(void)
 167:Drivers/CMSIS/Include/cmsis_gcc.h **** {
 168:Drivers/CMSIS/Include/cmsis_gcc.h ****   uint32_t result;
 169:Drivers/CMSIS/Include/cmsis_gcc.h **** 
 170:Drivers/CMSIS/Include/cmsis_gcc.h ****   __ASM volatile ("MRS %0, control_ns" : "=r" (result) );
 171:Drivers/CMSIS/Include/cmsis_gcc.h ****   return(result);
 172:Drivers/CMSIS/Include/cmsis_gcc.h **** }
 173:Drivers/CMSIS/Include/cmsis_gcc.h **** #endif
 174:Drivers/CMSIS/Include/cmsis_gcc.h **** 
 175:Drivers/CMSIS/Include/cmsis_gcc.h **** 
ARM GAS  /var/folders/n6/c271nzx11xl4r4_m7sqjlt0m0000gn/T//ccgmP6qh.s 			page 8


 176:Drivers/CMSIS/Include/cmsis_gcc.h **** /**
 177:Drivers/CMSIS/Include/cmsis_gcc.h ****   \brief   Set Control Register
 178:Drivers/CMSIS/Include/cmsis_gcc.h ****   \details Writes the given value to the Control Register.
 179:Drivers/CMSIS/Include/cmsis_gcc.h ****   \param [in]    control  Control Register value to set
 180:Drivers/CMSIS/Include/cmsis_gcc.h ****  */
 181:Drivers/CMSIS/Include/cmsis_gcc.h **** __STATIC_FORCEINLINE void __set_CONTROL(uint32_t control)
 182:Drivers/CMSIS/Include/cmsis_gcc.h **** {
 183:Drivers/CMSIS/Include/cmsis_gcc.h ****   __ASM volatile ("MSR control, %0" : : "r" (control) : "memory");
 184:Drivers/CMSIS/Include/cmsis_gcc.h **** }
 185:Drivers/CMSIS/Include/cmsis_gcc.h **** 
 186:Drivers/CMSIS/Include/cmsis_gcc.h **** 
 187:Drivers/CMSIS/Include/cmsis_gcc.h **** #if (defined (__ARM_FEATURE_CMSE ) && (__ARM_FEATURE_CMSE == 3))
 188:Drivers/CMSIS/Include/cmsis_gcc.h **** /**
 189:Drivers/CMSIS/Include/cmsis_gcc.h ****   \brief   Set Control Register (non-secure)
 190:Drivers/CMSIS/Include/cmsis_gcc.h ****   \details Writes the given value to the non-secure Control Register when in secure state.
 191:Drivers/CMSIS/Include/cmsis_gcc.h ****   \param [in]    control  Control Register value to set
 192:Drivers/CMSIS/Include/cmsis_gcc.h ****  */
 193:Drivers/CMSIS/Include/cmsis_gcc.h **** __STATIC_FORCEINLINE void __TZ_set_CONTROL_NS(uint32_t control)
 194:Drivers/CMSIS/Include/cmsis_gcc.h **** {
 195:Drivers/CMSIS/Include/cmsis_gcc.h ****   __ASM volatile ("MSR control_ns, %0" : : "r" (control) : "memory");
 196:Drivers/CMSIS/Include/cmsis_gcc.h **** }
 197:Drivers/CMSIS/Include/cmsis_gcc.h **** #endif
 198:Drivers/CMSIS/Include/cmsis_gcc.h **** 
 199:Drivers/CMSIS/Include/cmsis_gcc.h **** 
 200:Drivers/CMSIS/Include/cmsis_gcc.h **** /**
 201:Drivers/CMSIS/Include/cmsis_gcc.h ****   \brief   Get IPSR Register
 202:Drivers/CMSIS/Include/cmsis_gcc.h ****   \details Returns the content of the IPSR Register.
 203:Drivers/CMSIS/Include/cmsis_gcc.h ****   \return               IPSR Register value
 204:Drivers/CMSIS/Include/cmsis_gcc.h ****  */
 205:Drivers/CMSIS/Include/cmsis_gcc.h **** __STATIC_FORCEINLINE uint32_t __get_IPSR(void)
 206:Drivers/CMSIS/Include/cmsis_gcc.h **** {
 207:Drivers/CMSIS/Include/cmsis_gcc.h ****   uint32_t result;
 208:Drivers/CMSIS/Include/cmsis_gcc.h **** 
 209:Drivers/CMSIS/Include/cmsis_gcc.h ****   __ASM volatile ("MRS %0, ipsr" : "=r" (result) );
 210:Drivers/CMSIS/Include/cmsis_gcc.h ****   return(result);
 211:Drivers/CMSIS/Include/cmsis_gcc.h **** }
 212:Drivers/CMSIS/Include/cmsis_gcc.h **** 
 213:Drivers/CMSIS/Include/cmsis_gcc.h **** 
 214:Drivers/CMSIS/Include/cmsis_gcc.h **** /**
 215:Drivers/CMSIS/Include/cmsis_gcc.h ****   \brief   Get APSR Register
 216:Drivers/CMSIS/Include/cmsis_gcc.h ****   \details Returns the content of the APSR Register.
 217:Drivers/CMSIS/Include/cmsis_gcc.h ****   \return               APSR Register value
 218:Drivers/CMSIS/Include/cmsis_gcc.h ****  */
 219:Drivers/CMSIS/Include/cmsis_gcc.h **** __STATIC_FORCEINLINE uint32_t __get_APSR(void)
 220:Drivers/CMSIS/Include/cmsis_gcc.h **** {
 221:Drivers/CMSIS/Include/cmsis_gcc.h ****   uint32_t result;
 222:Drivers/CMSIS/Include/cmsis_gcc.h **** 
 223:Drivers/CMSIS/Include/cmsis_gcc.h ****   __ASM volatile ("MRS %0, apsr" : "=r" (result) );
 224:Drivers/CMSIS/Include/cmsis_gcc.h ****   return(result);
 225:Drivers/CMSIS/Include/cmsis_gcc.h **** }
 226:Drivers/CMSIS/Include/cmsis_gcc.h **** 
 227:Drivers/CMSIS/Include/cmsis_gcc.h **** 
 228:Drivers/CMSIS/Include/cmsis_gcc.h **** /**
 229:Drivers/CMSIS/Include/cmsis_gcc.h ****   \brief   Get xPSR Register
 230:Drivers/CMSIS/Include/cmsis_gcc.h ****   \details Returns the content of the xPSR Register.
 231:Drivers/CMSIS/Include/cmsis_gcc.h ****   \return               xPSR Register value
 232:Drivers/CMSIS/Include/cmsis_gcc.h ****  */
ARM GAS  /var/folders/n6/c271nzx11xl4r4_m7sqjlt0m0000gn/T//ccgmP6qh.s 			page 9


 233:Drivers/CMSIS/Include/cmsis_gcc.h **** __STATIC_FORCEINLINE uint32_t __get_xPSR(void)
 234:Drivers/CMSIS/Include/cmsis_gcc.h **** {
 235:Drivers/CMSIS/Include/cmsis_gcc.h ****   uint32_t result;
 236:Drivers/CMSIS/Include/cmsis_gcc.h **** 
 237:Drivers/CMSIS/Include/cmsis_gcc.h ****   __ASM volatile ("MRS %0, xpsr" : "=r" (result) );
 238:Drivers/CMSIS/Include/cmsis_gcc.h ****   return(result);
 239:Drivers/CMSIS/Include/cmsis_gcc.h **** }
 240:Drivers/CMSIS/Include/cmsis_gcc.h **** 
 241:Drivers/CMSIS/Include/cmsis_gcc.h **** 
 242:Drivers/CMSIS/Include/cmsis_gcc.h **** /**
 243:Drivers/CMSIS/Include/cmsis_gcc.h ****   \brief   Get Process Stack Pointer
 244:Drivers/CMSIS/Include/cmsis_gcc.h ****   \details Returns the current value of the Process Stack Pointer (PSP).
 245:Drivers/CMSIS/Include/cmsis_gcc.h ****   \return               PSP Register value
 246:Drivers/CMSIS/Include/cmsis_gcc.h ****  */
 247:Drivers/CMSIS/Include/cmsis_gcc.h **** __STATIC_FORCEINLINE uint32_t __get_PSP(void)
 248:Drivers/CMSIS/Include/cmsis_gcc.h **** {
 249:Drivers/CMSIS/Include/cmsis_gcc.h ****   uint32_t result;
 250:Drivers/CMSIS/Include/cmsis_gcc.h **** 
 251:Drivers/CMSIS/Include/cmsis_gcc.h ****   __ASM volatile ("MRS %0, psp"  : "=r" (result) );
 252:Drivers/CMSIS/Include/cmsis_gcc.h ****   return(result);
 253:Drivers/CMSIS/Include/cmsis_gcc.h **** }
 254:Drivers/CMSIS/Include/cmsis_gcc.h **** 
 255:Drivers/CMSIS/Include/cmsis_gcc.h **** 
 256:Drivers/CMSIS/Include/cmsis_gcc.h **** #if (defined (__ARM_FEATURE_CMSE ) && (__ARM_FEATURE_CMSE == 3))
 257:Drivers/CMSIS/Include/cmsis_gcc.h **** /**
 258:Drivers/CMSIS/Include/cmsis_gcc.h ****   \brief   Get Process Stack Pointer (non-secure)
 259:Drivers/CMSIS/Include/cmsis_gcc.h ****   \details Returns the current value of the non-secure Process Stack Pointer (PSP) when in secure s
 260:Drivers/CMSIS/Include/cmsis_gcc.h ****   \return               PSP Register value
 261:Drivers/CMSIS/Include/cmsis_gcc.h ****  */
 262:Drivers/CMSIS/Include/cmsis_gcc.h **** __STATIC_FORCEINLINE uint32_t __TZ_get_PSP_NS(void)
 263:Drivers/CMSIS/Include/cmsis_gcc.h **** {
 264:Drivers/CMSIS/Include/cmsis_gcc.h ****   uint32_t result;
 265:Drivers/CMSIS/Include/cmsis_gcc.h **** 
 266:Drivers/CMSIS/Include/cmsis_gcc.h ****   __ASM volatile ("MRS %0, psp_ns"  : "=r" (result) );
 267:Drivers/CMSIS/Include/cmsis_gcc.h ****   return(result);
 268:Drivers/CMSIS/Include/cmsis_gcc.h **** }
 269:Drivers/CMSIS/Include/cmsis_gcc.h **** #endif
 270:Drivers/CMSIS/Include/cmsis_gcc.h **** 
 271:Drivers/CMSIS/Include/cmsis_gcc.h **** 
 272:Drivers/CMSIS/Include/cmsis_gcc.h **** /**
 273:Drivers/CMSIS/Include/cmsis_gcc.h ****   \brief   Set Process Stack Pointer
 274:Drivers/CMSIS/Include/cmsis_gcc.h ****   \details Assigns the given value to the Process Stack Pointer (PSP).
 275:Drivers/CMSIS/Include/cmsis_gcc.h ****   \param [in]    topOfProcStack  Process Stack Pointer value to set
 276:Drivers/CMSIS/Include/cmsis_gcc.h ****  */
 277:Drivers/CMSIS/Include/cmsis_gcc.h **** __STATIC_FORCEINLINE void __set_PSP(uint32_t topOfProcStack)
 278:Drivers/CMSIS/Include/cmsis_gcc.h **** {
 279:Drivers/CMSIS/Include/cmsis_gcc.h ****   __ASM volatile ("MSR psp, %0" : : "r" (topOfProcStack) : );
 280:Drivers/CMSIS/Include/cmsis_gcc.h **** }
 281:Drivers/CMSIS/Include/cmsis_gcc.h **** 
 282:Drivers/CMSIS/Include/cmsis_gcc.h **** 
 283:Drivers/CMSIS/Include/cmsis_gcc.h **** #if (defined (__ARM_FEATURE_CMSE ) && (__ARM_FEATURE_CMSE == 3))
 284:Drivers/CMSIS/Include/cmsis_gcc.h **** /**
 285:Drivers/CMSIS/Include/cmsis_gcc.h ****   \brief   Set Process Stack Pointer (non-secure)
 286:Drivers/CMSIS/Include/cmsis_gcc.h ****   \details Assigns the given value to the non-secure Process Stack Pointer (PSP) when in secure sta
 287:Drivers/CMSIS/Include/cmsis_gcc.h ****   \param [in]    topOfProcStack  Process Stack Pointer value to set
 288:Drivers/CMSIS/Include/cmsis_gcc.h ****  */
 289:Drivers/CMSIS/Include/cmsis_gcc.h **** __STATIC_FORCEINLINE void __TZ_set_PSP_NS(uint32_t topOfProcStack)
ARM GAS  /var/folders/n6/c271nzx11xl4r4_m7sqjlt0m0000gn/T//ccgmP6qh.s 			page 10


 290:Drivers/CMSIS/Include/cmsis_gcc.h **** {
 291:Drivers/CMSIS/Include/cmsis_gcc.h ****   __ASM volatile ("MSR psp_ns, %0" : : "r" (topOfProcStack) : );
 292:Drivers/CMSIS/Include/cmsis_gcc.h **** }
 293:Drivers/CMSIS/Include/cmsis_gcc.h **** #endif
 294:Drivers/CMSIS/Include/cmsis_gcc.h **** 
 295:Drivers/CMSIS/Include/cmsis_gcc.h **** 
 296:Drivers/CMSIS/Include/cmsis_gcc.h **** /**
 297:Drivers/CMSIS/Include/cmsis_gcc.h ****   \brief   Get Main Stack Pointer
 298:Drivers/CMSIS/Include/cmsis_gcc.h ****   \details Returns the current value of the Main Stack Pointer (MSP).
 299:Drivers/CMSIS/Include/cmsis_gcc.h ****   \return               MSP Register value
 300:Drivers/CMSIS/Include/cmsis_gcc.h ****  */
 301:Drivers/CMSIS/Include/cmsis_gcc.h **** __STATIC_FORCEINLINE uint32_t __get_MSP(void)
 302:Drivers/CMSIS/Include/cmsis_gcc.h **** {
 303:Drivers/CMSIS/Include/cmsis_gcc.h ****   uint32_t result;
 304:Drivers/CMSIS/Include/cmsis_gcc.h **** 
 305:Drivers/CMSIS/Include/cmsis_gcc.h ****   __ASM volatile ("MRS %0, msp" : "=r" (result) );
 306:Drivers/CMSIS/Include/cmsis_gcc.h ****   return(result);
 307:Drivers/CMSIS/Include/cmsis_gcc.h **** }
 308:Drivers/CMSIS/Include/cmsis_gcc.h **** 
 309:Drivers/CMSIS/Include/cmsis_gcc.h **** 
 310:Drivers/CMSIS/Include/cmsis_gcc.h **** #if (defined (__ARM_FEATURE_CMSE ) && (__ARM_FEATURE_CMSE == 3))
 311:Drivers/CMSIS/Include/cmsis_gcc.h **** /**
 312:Drivers/CMSIS/Include/cmsis_gcc.h ****   \brief   Get Main Stack Pointer (non-secure)
 313:Drivers/CMSIS/Include/cmsis_gcc.h ****   \details Returns the current value of the non-secure Main Stack Pointer (MSP) when in secure stat
 314:Drivers/CMSIS/Include/cmsis_gcc.h ****   \return               MSP Register value
 315:Drivers/CMSIS/Include/cmsis_gcc.h ****  */
 316:Drivers/CMSIS/Include/cmsis_gcc.h **** __STATIC_FORCEINLINE uint32_t __TZ_get_MSP_NS(void)
 317:Drivers/CMSIS/Include/cmsis_gcc.h **** {
 318:Drivers/CMSIS/Include/cmsis_gcc.h ****   uint32_t result;
 319:Drivers/CMSIS/Include/cmsis_gcc.h **** 
 320:Drivers/CMSIS/Include/cmsis_gcc.h ****   __ASM volatile ("MRS %0, msp_ns" : "=r" (result) );
 321:Drivers/CMSIS/Include/cmsis_gcc.h ****   return(result);
 322:Drivers/CMSIS/Include/cmsis_gcc.h **** }
 323:Drivers/CMSIS/Include/cmsis_gcc.h **** #endif
 324:Drivers/CMSIS/Include/cmsis_gcc.h **** 
 325:Drivers/CMSIS/Include/cmsis_gcc.h **** 
 326:Drivers/CMSIS/Include/cmsis_gcc.h **** /**
 327:Drivers/CMSIS/Include/cmsis_gcc.h ****   \brief   Set Main Stack Pointer
 328:Drivers/CMSIS/Include/cmsis_gcc.h ****   \details Assigns the given value to the Main Stack Pointer (MSP).
 329:Drivers/CMSIS/Include/cmsis_gcc.h ****   \param [in]    topOfMainStack  Main Stack Pointer value to set
 330:Drivers/CMSIS/Include/cmsis_gcc.h ****  */
 331:Drivers/CMSIS/Include/cmsis_gcc.h **** __STATIC_FORCEINLINE void __set_MSP(uint32_t topOfMainStack)
 332:Drivers/CMSIS/Include/cmsis_gcc.h **** {
 333:Drivers/CMSIS/Include/cmsis_gcc.h ****   __ASM volatile ("MSR msp, %0" : : "r" (topOfMainStack) : );
 334:Drivers/CMSIS/Include/cmsis_gcc.h **** }
 335:Drivers/CMSIS/Include/cmsis_gcc.h **** 
 336:Drivers/CMSIS/Include/cmsis_gcc.h **** 
 337:Drivers/CMSIS/Include/cmsis_gcc.h **** #if (defined (__ARM_FEATURE_CMSE ) && (__ARM_FEATURE_CMSE == 3))
 338:Drivers/CMSIS/Include/cmsis_gcc.h **** /**
 339:Drivers/CMSIS/Include/cmsis_gcc.h ****   \brief   Set Main Stack Pointer (non-secure)
 340:Drivers/CMSIS/Include/cmsis_gcc.h ****   \details Assigns the given value to the non-secure Main Stack Pointer (MSP) when in secure state.
 341:Drivers/CMSIS/Include/cmsis_gcc.h ****   \param [in]    topOfMainStack  Main Stack Pointer value to set
 342:Drivers/CMSIS/Include/cmsis_gcc.h ****  */
 343:Drivers/CMSIS/Include/cmsis_gcc.h **** __STATIC_FORCEINLINE void __TZ_set_MSP_NS(uint32_t topOfMainStack)
 344:Drivers/CMSIS/Include/cmsis_gcc.h **** {
 345:Drivers/CMSIS/Include/cmsis_gcc.h ****   __ASM volatile ("MSR msp_ns, %0" : : "r" (topOfMainStack) : );
 346:Drivers/CMSIS/Include/cmsis_gcc.h **** }
ARM GAS  /var/folders/n6/c271nzx11xl4r4_m7sqjlt0m0000gn/T//ccgmP6qh.s 			page 11


 347:Drivers/CMSIS/Include/cmsis_gcc.h **** #endif
 348:Drivers/CMSIS/Include/cmsis_gcc.h **** 
 349:Drivers/CMSIS/Include/cmsis_gcc.h **** 
 350:Drivers/CMSIS/Include/cmsis_gcc.h **** #if (defined (__ARM_FEATURE_CMSE ) && (__ARM_FEATURE_CMSE == 3))
 351:Drivers/CMSIS/Include/cmsis_gcc.h **** /**
 352:Drivers/CMSIS/Include/cmsis_gcc.h ****   \brief   Get Stack Pointer (non-secure)
 353:Drivers/CMSIS/Include/cmsis_gcc.h ****   \details Returns the current value of the non-secure Stack Pointer (SP) when in secure state.
 354:Drivers/CMSIS/Include/cmsis_gcc.h ****   \return               SP Register value
 355:Drivers/CMSIS/Include/cmsis_gcc.h ****  */
 356:Drivers/CMSIS/Include/cmsis_gcc.h **** __STATIC_FORCEINLINE uint32_t __TZ_get_SP_NS(void)
 357:Drivers/CMSIS/Include/cmsis_gcc.h **** {
 358:Drivers/CMSIS/Include/cmsis_gcc.h ****   uint32_t result;
 359:Drivers/CMSIS/Include/cmsis_gcc.h **** 
 360:Drivers/CMSIS/Include/cmsis_gcc.h ****   __ASM volatile ("MRS %0, sp_ns" : "=r" (result) );
 361:Drivers/CMSIS/Include/cmsis_gcc.h ****   return(result);
 362:Drivers/CMSIS/Include/cmsis_gcc.h **** }
 363:Drivers/CMSIS/Include/cmsis_gcc.h **** 
 364:Drivers/CMSIS/Include/cmsis_gcc.h **** 
 365:Drivers/CMSIS/Include/cmsis_gcc.h **** /**
 366:Drivers/CMSIS/Include/cmsis_gcc.h ****   \brief   Set Stack Pointer (non-secure)
 367:Drivers/CMSIS/Include/cmsis_gcc.h ****   \details Assigns the given value to the non-secure Stack Pointer (SP) when in secure state.
 368:Drivers/CMSIS/Include/cmsis_gcc.h ****   \param [in]    topOfStack  Stack Pointer value to set
 369:Drivers/CMSIS/Include/cmsis_gcc.h ****  */
 370:Drivers/CMSIS/Include/cmsis_gcc.h **** __STATIC_FORCEINLINE void __TZ_set_SP_NS(uint32_t topOfStack)
 371:Drivers/CMSIS/Include/cmsis_gcc.h **** {
 372:Drivers/CMSIS/Include/cmsis_gcc.h ****   __ASM volatile ("MSR sp_ns, %0" : : "r" (topOfStack) : );
 373:Drivers/CMSIS/Include/cmsis_gcc.h **** }
 374:Drivers/CMSIS/Include/cmsis_gcc.h **** #endif
 375:Drivers/CMSIS/Include/cmsis_gcc.h **** 
 376:Drivers/CMSIS/Include/cmsis_gcc.h **** 
 377:Drivers/CMSIS/Include/cmsis_gcc.h **** /**
 378:Drivers/CMSIS/Include/cmsis_gcc.h ****   \brief   Get Priority Mask
 379:Drivers/CMSIS/Include/cmsis_gcc.h ****   \details Returns the current state of the priority mask bit from the Priority Mask Register.
 380:Drivers/CMSIS/Include/cmsis_gcc.h ****   \return               Priority Mask value
 381:Drivers/CMSIS/Include/cmsis_gcc.h ****  */
 382:Drivers/CMSIS/Include/cmsis_gcc.h **** __STATIC_FORCEINLINE uint32_t __get_PRIMASK(void)
 383:Drivers/CMSIS/Include/cmsis_gcc.h **** {
 384:Drivers/CMSIS/Include/cmsis_gcc.h ****   uint32_t result;
 385:Drivers/CMSIS/Include/cmsis_gcc.h **** 
 386:Drivers/CMSIS/Include/cmsis_gcc.h ****   __ASM volatile ("MRS %0, primask" : "=r" (result) :: "memory");
 387:Drivers/CMSIS/Include/cmsis_gcc.h ****   return(result);
 388:Drivers/CMSIS/Include/cmsis_gcc.h **** }
 389:Drivers/CMSIS/Include/cmsis_gcc.h **** 
 390:Drivers/CMSIS/Include/cmsis_gcc.h **** 
 391:Drivers/CMSIS/Include/cmsis_gcc.h **** #if (defined (__ARM_FEATURE_CMSE ) && (__ARM_FEATURE_CMSE == 3))
 392:Drivers/CMSIS/Include/cmsis_gcc.h **** /**
 393:Drivers/CMSIS/Include/cmsis_gcc.h ****   \brief   Get Priority Mask (non-secure)
 394:Drivers/CMSIS/Include/cmsis_gcc.h ****   \details Returns the current state of the non-secure priority mask bit from the Priority Mask Reg
 395:Drivers/CMSIS/Include/cmsis_gcc.h ****   \return               Priority Mask value
 396:Drivers/CMSIS/Include/cmsis_gcc.h ****  */
 397:Drivers/CMSIS/Include/cmsis_gcc.h **** __STATIC_FORCEINLINE uint32_t __TZ_get_PRIMASK_NS(void)
 398:Drivers/CMSIS/Include/cmsis_gcc.h **** {
 399:Drivers/CMSIS/Include/cmsis_gcc.h ****   uint32_t result;
 400:Drivers/CMSIS/Include/cmsis_gcc.h **** 
 401:Drivers/CMSIS/Include/cmsis_gcc.h ****   __ASM volatile ("MRS %0, primask_ns" : "=r" (result) :: "memory");
 402:Drivers/CMSIS/Include/cmsis_gcc.h ****   return(result);
 403:Drivers/CMSIS/Include/cmsis_gcc.h **** }
ARM GAS  /var/folders/n6/c271nzx11xl4r4_m7sqjlt0m0000gn/T//ccgmP6qh.s 			page 12


 404:Drivers/CMSIS/Include/cmsis_gcc.h **** #endif
 405:Drivers/CMSIS/Include/cmsis_gcc.h **** 
 406:Drivers/CMSIS/Include/cmsis_gcc.h **** 
 407:Drivers/CMSIS/Include/cmsis_gcc.h **** /**
 408:Drivers/CMSIS/Include/cmsis_gcc.h ****   \brief   Set Priority Mask
 409:Drivers/CMSIS/Include/cmsis_gcc.h ****   \details Assigns the given value to the Priority Mask Register.
 410:Drivers/CMSIS/Include/cmsis_gcc.h ****   \param [in]    priMask  Priority Mask
 411:Drivers/CMSIS/Include/cmsis_gcc.h ****  */
 412:Drivers/CMSIS/Include/cmsis_gcc.h **** __STATIC_FORCEINLINE void __set_PRIMASK(uint32_t priMask)
 413:Drivers/CMSIS/Include/cmsis_gcc.h **** {
 414:Drivers/CMSIS/Include/cmsis_gcc.h ****   __ASM volatile ("MSR primask, %0" : : "r" (priMask) : "memory");
 415:Drivers/CMSIS/Include/cmsis_gcc.h **** }
 416:Drivers/CMSIS/Include/cmsis_gcc.h **** 
 417:Drivers/CMSIS/Include/cmsis_gcc.h **** 
 418:Drivers/CMSIS/Include/cmsis_gcc.h **** #if (defined (__ARM_FEATURE_CMSE ) && (__ARM_FEATURE_CMSE == 3))
 419:Drivers/CMSIS/Include/cmsis_gcc.h **** /**
 420:Drivers/CMSIS/Include/cmsis_gcc.h ****   \brief   Set Priority Mask (non-secure)
 421:Drivers/CMSIS/Include/cmsis_gcc.h ****   \details Assigns the given value to the non-secure Priority Mask Register when in secure state.
 422:Drivers/CMSIS/Include/cmsis_gcc.h ****   \param [in]    priMask  Priority Mask
 423:Drivers/CMSIS/Include/cmsis_gcc.h ****  */
 424:Drivers/CMSIS/Include/cmsis_gcc.h **** __STATIC_FORCEINLINE void __TZ_set_PRIMASK_NS(uint32_t priMask)
 425:Drivers/CMSIS/Include/cmsis_gcc.h **** {
 426:Drivers/CMSIS/Include/cmsis_gcc.h ****   __ASM volatile ("MSR primask_ns, %0" : : "r" (priMask) : "memory");
 427:Drivers/CMSIS/Include/cmsis_gcc.h **** }
 428:Drivers/CMSIS/Include/cmsis_gcc.h **** #endif
 429:Drivers/CMSIS/Include/cmsis_gcc.h **** 
 430:Drivers/CMSIS/Include/cmsis_gcc.h **** 
 431:Drivers/CMSIS/Include/cmsis_gcc.h **** #if ((defined (__ARM_ARCH_7M__      ) && (__ARM_ARCH_7M__      == 1)) || \
 432:Drivers/CMSIS/Include/cmsis_gcc.h ****      (defined (__ARM_ARCH_7EM__     ) && (__ARM_ARCH_7EM__     == 1)) || \
 433:Drivers/CMSIS/Include/cmsis_gcc.h ****      (defined (__ARM_ARCH_8M_MAIN__ ) && (__ARM_ARCH_8M_MAIN__ == 1))    )
 434:Drivers/CMSIS/Include/cmsis_gcc.h **** /**
 435:Drivers/CMSIS/Include/cmsis_gcc.h ****   \brief   Enable FIQ
 436:Drivers/CMSIS/Include/cmsis_gcc.h ****   \details Enables FIQ interrupts by clearing the F-bit in the CPSR.
 437:Drivers/CMSIS/Include/cmsis_gcc.h ****            Can only be executed in Privileged modes.
 438:Drivers/CMSIS/Include/cmsis_gcc.h ****  */
 439:Drivers/CMSIS/Include/cmsis_gcc.h **** __STATIC_FORCEINLINE void __enable_fault_irq(void)
 440:Drivers/CMSIS/Include/cmsis_gcc.h **** {
 441:Drivers/CMSIS/Include/cmsis_gcc.h ****   __ASM volatile ("cpsie f" : : : "memory");
 442:Drivers/CMSIS/Include/cmsis_gcc.h **** }
 443:Drivers/CMSIS/Include/cmsis_gcc.h **** 
 444:Drivers/CMSIS/Include/cmsis_gcc.h **** 
 445:Drivers/CMSIS/Include/cmsis_gcc.h **** /**
 446:Drivers/CMSIS/Include/cmsis_gcc.h ****   \brief   Disable FIQ
 447:Drivers/CMSIS/Include/cmsis_gcc.h ****   \details Disables FIQ interrupts by setting the F-bit in the CPSR.
 448:Drivers/CMSIS/Include/cmsis_gcc.h ****            Can only be executed in Privileged modes.
 449:Drivers/CMSIS/Include/cmsis_gcc.h ****  */
 450:Drivers/CMSIS/Include/cmsis_gcc.h **** __STATIC_FORCEINLINE void __disable_fault_irq(void)
 451:Drivers/CMSIS/Include/cmsis_gcc.h **** {
 452:Drivers/CMSIS/Include/cmsis_gcc.h ****   __ASM volatile ("cpsid f" : : : "memory");
 453:Drivers/CMSIS/Include/cmsis_gcc.h **** }
 454:Drivers/CMSIS/Include/cmsis_gcc.h **** 
 455:Drivers/CMSIS/Include/cmsis_gcc.h **** 
 456:Drivers/CMSIS/Include/cmsis_gcc.h **** /**
 457:Drivers/CMSIS/Include/cmsis_gcc.h ****   \brief   Get Base Priority
 458:Drivers/CMSIS/Include/cmsis_gcc.h ****   \details Returns the current value of the Base Priority register.
 459:Drivers/CMSIS/Include/cmsis_gcc.h ****   \return               Base Priority register value
 460:Drivers/CMSIS/Include/cmsis_gcc.h ****  */
ARM GAS  /var/folders/n6/c271nzx11xl4r4_m7sqjlt0m0000gn/T//ccgmP6qh.s 			page 13


 461:Drivers/CMSIS/Include/cmsis_gcc.h **** __STATIC_FORCEINLINE uint32_t __get_BASEPRI(void)
 462:Drivers/CMSIS/Include/cmsis_gcc.h **** {
 463:Drivers/CMSIS/Include/cmsis_gcc.h ****   uint32_t result;
 464:Drivers/CMSIS/Include/cmsis_gcc.h **** 
 465:Drivers/CMSIS/Include/cmsis_gcc.h ****   __ASM volatile ("MRS %0, basepri" : "=r" (result) );
 466:Drivers/CMSIS/Include/cmsis_gcc.h ****   return(result);
 467:Drivers/CMSIS/Include/cmsis_gcc.h **** }
 468:Drivers/CMSIS/Include/cmsis_gcc.h **** 
 469:Drivers/CMSIS/Include/cmsis_gcc.h **** 
 470:Drivers/CMSIS/Include/cmsis_gcc.h **** #if (defined (__ARM_FEATURE_CMSE ) && (__ARM_FEATURE_CMSE == 3))
 471:Drivers/CMSIS/Include/cmsis_gcc.h **** /**
 472:Drivers/CMSIS/Include/cmsis_gcc.h ****   \brief   Get Base Priority (non-secure)
 473:Drivers/CMSIS/Include/cmsis_gcc.h ****   \details Returns the current value of the non-secure Base Priority register when in secure state.
 474:Drivers/CMSIS/Include/cmsis_gcc.h ****   \return               Base Priority register value
 475:Drivers/CMSIS/Include/cmsis_gcc.h ****  */
 476:Drivers/CMSIS/Include/cmsis_gcc.h **** __STATIC_FORCEINLINE uint32_t __TZ_get_BASEPRI_NS(void)
 477:Drivers/CMSIS/Include/cmsis_gcc.h **** {
 478:Drivers/CMSIS/Include/cmsis_gcc.h ****   uint32_t result;
 479:Drivers/CMSIS/Include/cmsis_gcc.h **** 
 480:Drivers/CMSIS/Include/cmsis_gcc.h ****   __ASM volatile ("MRS %0, basepri_ns" : "=r" (result) );
 481:Drivers/CMSIS/Include/cmsis_gcc.h ****   return(result);
 482:Drivers/CMSIS/Include/cmsis_gcc.h **** }
 483:Drivers/CMSIS/Include/cmsis_gcc.h **** #endif
 484:Drivers/CMSIS/Include/cmsis_gcc.h **** 
 485:Drivers/CMSIS/Include/cmsis_gcc.h **** 
 486:Drivers/CMSIS/Include/cmsis_gcc.h **** /**
 487:Drivers/CMSIS/Include/cmsis_gcc.h ****   \brief   Set Base Priority
 488:Drivers/CMSIS/Include/cmsis_gcc.h ****   \details Assigns the given value to the Base Priority register.
 489:Drivers/CMSIS/Include/cmsis_gcc.h ****   \param [in]    basePri  Base Priority value to set
 490:Drivers/CMSIS/Include/cmsis_gcc.h ****  */
 491:Drivers/CMSIS/Include/cmsis_gcc.h **** __STATIC_FORCEINLINE void __set_BASEPRI(uint32_t basePri)
 492:Drivers/CMSIS/Include/cmsis_gcc.h **** {
 493:Drivers/CMSIS/Include/cmsis_gcc.h ****   __ASM volatile ("MSR basepri, %0" : : "r" (basePri) : "memory");
 494:Drivers/CMSIS/Include/cmsis_gcc.h **** }
 495:Drivers/CMSIS/Include/cmsis_gcc.h **** 
 496:Drivers/CMSIS/Include/cmsis_gcc.h **** 
 497:Drivers/CMSIS/Include/cmsis_gcc.h **** #if (defined (__ARM_FEATURE_CMSE ) && (__ARM_FEATURE_CMSE == 3))
 498:Drivers/CMSIS/Include/cmsis_gcc.h **** /**
 499:Drivers/CMSIS/Include/cmsis_gcc.h ****   \brief   Set Base Priority (non-secure)
 500:Drivers/CMSIS/Include/cmsis_gcc.h ****   \details Assigns the given value to the non-secure Base Priority register when in secure state.
 501:Drivers/CMSIS/Include/cmsis_gcc.h ****   \param [in]    basePri  Base Priority value to set
 502:Drivers/CMSIS/Include/cmsis_gcc.h ****  */
 503:Drivers/CMSIS/Include/cmsis_gcc.h **** __STATIC_FORCEINLINE void __TZ_set_BASEPRI_NS(uint32_t basePri)
 504:Drivers/CMSIS/Include/cmsis_gcc.h **** {
 505:Drivers/CMSIS/Include/cmsis_gcc.h ****   __ASM volatile ("MSR basepri_ns, %0" : : "r" (basePri) : "memory");
 506:Drivers/CMSIS/Include/cmsis_gcc.h **** }
 507:Drivers/CMSIS/Include/cmsis_gcc.h **** #endif
 508:Drivers/CMSIS/Include/cmsis_gcc.h **** 
 509:Drivers/CMSIS/Include/cmsis_gcc.h **** 
 510:Drivers/CMSIS/Include/cmsis_gcc.h **** /**
 511:Drivers/CMSIS/Include/cmsis_gcc.h ****   \brief   Set Base Priority with condition
 512:Drivers/CMSIS/Include/cmsis_gcc.h ****   \details Assigns the given value to the Base Priority register only if BASEPRI masking is disable
 513:Drivers/CMSIS/Include/cmsis_gcc.h ****            or the new value increases the BASEPRI priority level.
 514:Drivers/CMSIS/Include/cmsis_gcc.h ****   \param [in]    basePri  Base Priority value to set
 515:Drivers/CMSIS/Include/cmsis_gcc.h ****  */
 516:Drivers/CMSIS/Include/cmsis_gcc.h **** __STATIC_FORCEINLINE void __set_BASEPRI_MAX(uint32_t basePri)
 517:Drivers/CMSIS/Include/cmsis_gcc.h **** {
ARM GAS  /var/folders/n6/c271nzx11xl4r4_m7sqjlt0m0000gn/T//ccgmP6qh.s 			page 14


 518:Drivers/CMSIS/Include/cmsis_gcc.h ****   __ASM volatile ("MSR basepri_max, %0" : : "r" (basePri) : "memory");
 519:Drivers/CMSIS/Include/cmsis_gcc.h **** }
 520:Drivers/CMSIS/Include/cmsis_gcc.h **** 
 521:Drivers/CMSIS/Include/cmsis_gcc.h **** 
 522:Drivers/CMSIS/Include/cmsis_gcc.h **** /**
 523:Drivers/CMSIS/Include/cmsis_gcc.h ****   \brief   Get Fault Mask
 524:Drivers/CMSIS/Include/cmsis_gcc.h ****   \details Returns the current value of the Fault Mask register.
 525:Drivers/CMSIS/Include/cmsis_gcc.h ****   \return               Fault Mask register value
 526:Drivers/CMSIS/Include/cmsis_gcc.h ****  */
 527:Drivers/CMSIS/Include/cmsis_gcc.h **** __STATIC_FORCEINLINE uint32_t __get_FAULTMASK(void)
 528:Drivers/CMSIS/Include/cmsis_gcc.h **** {
 529:Drivers/CMSIS/Include/cmsis_gcc.h ****   uint32_t result;
 530:Drivers/CMSIS/Include/cmsis_gcc.h **** 
 531:Drivers/CMSIS/Include/cmsis_gcc.h ****   __ASM volatile ("MRS %0, faultmask" : "=r" (result) );
 532:Drivers/CMSIS/Include/cmsis_gcc.h ****   return(result);
 533:Drivers/CMSIS/Include/cmsis_gcc.h **** }
 534:Drivers/CMSIS/Include/cmsis_gcc.h **** 
 535:Drivers/CMSIS/Include/cmsis_gcc.h **** 
 536:Drivers/CMSIS/Include/cmsis_gcc.h **** #if (defined (__ARM_FEATURE_CMSE ) && (__ARM_FEATURE_CMSE == 3))
 537:Drivers/CMSIS/Include/cmsis_gcc.h **** /**
 538:Drivers/CMSIS/Include/cmsis_gcc.h ****   \brief   Get Fault Mask (non-secure)
 539:Drivers/CMSIS/Include/cmsis_gcc.h ****   \details Returns the current value of the non-secure Fault Mask register when in secure state.
 540:Drivers/CMSIS/Include/cmsis_gcc.h ****   \return               Fault Mask register value
 541:Drivers/CMSIS/Include/cmsis_gcc.h ****  */
 542:Drivers/CMSIS/Include/cmsis_gcc.h **** __STATIC_FORCEINLINE uint32_t __TZ_get_FAULTMASK_NS(void)
 543:Drivers/CMSIS/Include/cmsis_gcc.h **** {
 544:Drivers/CMSIS/Include/cmsis_gcc.h ****   uint32_t result;
 545:Drivers/CMSIS/Include/cmsis_gcc.h **** 
 546:Drivers/CMSIS/Include/cmsis_gcc.h ****   __ASM volatile ("MRS %0, faultmask_ns" : "=r" (result) );
 547:Drivers/CMSIS/Include/cmsis_gcc.h ****   return(result);
 548:Drivers/CMSIS/Include/cmsis_gcc.h **** }
 549:Drivers/CMSIS/Include/cmsis_gcc.h **** #endif
 550:Drivers/CMSIS/Include/cmsis_gcc.h **** 
 551:Drivers/CMSIS/Include/cmsis_gcc.h **** 
 552:Drivers/CMSIS/Include/cmsis_gcc.h **** /**
 553:Drivers/CMSIS/Include/cmsis_gcc.h ****   \brief   Set Fault Mask
 554:Drivers/CMSIS/Include/cmsis_gcc.h ****   \details Assigns the given value to the Fault Mask register.
 555:Drivers/CMSIS/Include/cmsis_gcc.h ****   \param [in]    faultMask  Fault Mask value to set
 556:Drivers/CMSIS/Include/cmsis_gcc.h ****  */
 557:Drivers/CMSIS/Include/cmsis_gcc.h **** __STATIC_FORCEINLINE void __set_FAULTMASK(uint32_t faultMask)
 558:Drivers/CMSIS/Include/cmsis_gcc.h **** {
 559:Drivers/CMSIS/Include/cmsis_gcc.h ****   __ASM volatile ("MSR faultmask, %0" : : "r" (faultMask) : "memory");
 560:Drivers/CMSIS/Include/cmsis_gcc.h **** }
 561:Drivers/CMSIS/Include/cmsis_gcc.h **** 
 562:Drivers/CMSIS/Include/cmsis_gcc.h **** 
 563:Drivers/CMSIS/Include/cmsis_gcc.h **** #if (defined (__ARM_FEATURE_CMSE ) && (__ARM_FEATURE_CMSE == 3))
 564:Drivers/CMSIS/Include/cmsis_gcc.h **** /**
 565:Drivers/CMSIS/Include/cmsis_gcc.h ****   \brief   Set Fault Mask (non-secure)
 566:Drivers/CMSIS/Include/cmsis_gcc.h ****   \details Assigns the given value to the non-secure Fault Mask register when in secure state.
 567:Drivers/CMSIS/Include/cmsis_gcc.h ****   \param [in]    faultMask  Fault Mask value to set
 568:Drivers/CMSIS/Include/cmsis_gcc.h ****  */
 569:Drivers/CMSIS/Include/cmsis_gcc.h **** __STATIC_FORCEINLINE void __TZ_set_FAULTMASK_NS(uint32_t faultMask)
 570:Drivers/CMSIS/Include/cmsis_gcc.h **** {
 571:Drivers/CMSIS/Include/cmsis_gcc.h ****   __ASM volatile ("MSR faultmask_ns, %0" : : "r" (faultMask) : "memory");
 572:Drivers/CMSIS/Include/cmsis_gcc.h **** }
 573:Drivers/CMSIS/Include/cmsis_gcc.h **** #endif
 574:Drivers/CMSIS/Include/cmsis_gcc.h **** 
ARM GAS  /var/folders/n6/c271nzx11xl4r4_m7sqjlt0m0000gn/T//ccgmP6qh.s 			page 15


 575:Drivers/CMSIS/Include/cmsis_gcc.h **** #endif /* ((defined (__ARM_ARCH_7M__      ) && (__ARM_ARCH_7M__      == 1)) || \
 576:Drivers/CMSIS/Include/cmsis_gcc.h ****            (defined (__ARM_ARCH_7EM__     ) && (__ARM_ARCH_7EM__     == 1)) || \
 577:Drivers/CMSIS/Include/cmsis_gcc.h ****            (defined (__ARM_ARCH_8M_MAIN__ ) && (__ARM_ARCH_8M_MAIN__ == 1))    ) */
 578:Drivers/CMSIS/Include/cmsis_gcc.h **** 
 579:Drivers/CMSIS/Include/cmsis_gcc.h **** 
 580:Drivers/CMSIS/Include/cmsis_gcc.h **** #if ((defined (__ARM_ARCH_8M_MAIN__ ) && (__ARM_ARCH_8M_MAIN__ == 1)) || \
 581:Drivers/CMSIS/Include/cmsis_gcc.h ****      (defined (__ARM_ARCH_8M_BASE__ ) && (__ARM_ARCH_8M_BASE__ == 1))    )
 582:Drivers/CMSIS/Include/cmsis_gcc.h **** 
 583:Drivers/CMSIS/Include/cmsis_gcc.h **** /**
 584:Drivers/CMSIS/Include/cmsis_gcc.h ****   \brief   Get Process Stack Pointer Limit
 585:Drivers/CMSIS/Include/cmsis_gcc.h ****   Devices without ARMv8-M Main Extensions (i.e. Cortex-M23) lack the non-secure
 586:Drivers/CMSIS/Include/cmsis_gcc.h ****   Stack Pointer Limit register hence zero is returned always in non-secure
 587:Drivers/CMSIS/Include/cmsis_gcc.h ****   mode.
 588:Drivers/CMSIS/Include/cmsis_gcc.h ****   
 589:Drivers/CMSIS/Include/cmsis_gcc.h ****   \details Returns the current value of the Process Stack Pointer Limit (PSPLIM).
 590:Drivers/CMSIS/Include/cmsis_gcc.h ****   \return               PSPLIM Register value
 591:Drivers/CMSIS/Include/cmsis_gcc.h ****  */
 592:Drivers/CMSIS/Include/cmsis_gcc.h **** __STATIC_FORCEINLINE uint32_t __get_PSPLIM(void)
 593:Drivers/CMSIS/Include/cmsis_gcc.h **** {
 594:Drivers/CMSIS/Include/cmsis_gcc.h **** #if (!(defined (__ARM_ARCH_8M_MAIN__ ) && (__ARM_ARCH_8M_MAIN__ == 1)) && \
 595:Drivers/CMSIS/Include/cmsis_gcc.h ****     (!defined (__ARM_FEATURE_CMSE) || (__ARM_FEATURE_CMSE < 3)))
 596:Drivers/CMSIS/Include/cmsis_gcc.h ****     // without main extensions, the non-secure PSPLIM is RAZ/WI
 597:Drivers/CMSIS/Include/cmsis_gcc.h ****   return 0U;
 598:Drivers/CMSIS/Include/cmsis_gcc.h **** #else
 599:Drivers/CMSIS/Include/cmsis_gcc.h ****   uint32_t result;
 600:Drivers/CMSIS/Include/cmsis_gcc.h ****   __ASM volatile ("MRS %0, psplim"  : "=r" (result) );
 601:Drivers/CMSIS/Include/cmsis_gcc.h ****   return result;
 602:Drivers/CMSIS/Include/cmsis_gcc.h **** #endif
 603:Drivers/CMSIS/Include/cmsis_gcc.h **** }
 604:Drivers/CMSIS/Include/cmsis_gcc.h **** 
 605:Drivers/CMSIS/Include/cmsis_gcc.h **** #if (defined (__ARM_FEATURE_CMSE) && (__ARM_FEATURE_CMSE == 3))
 606:Drivers/CMSIS/Include/cmsis_gcc.h **** /**
 607:Drivers/CMSIS/Include/cmsis_gcc.h ****   \brief   Get Process Stack Pointer Limit (non-secure)
 608:Drivers/CMSIS/Include/cmsis_gcc.h ****   Devices without ARMv8-M Main Extensions (i.e. Cortex-M23) lack the non-secure
 609:Drivers/CMSIS/Include/cmsis_gcc.h ****   Stack Pointer Limit register hence zero is returned always.
 610:Drivers/CMSIS/Include/cmsis_gcc.h **** 
 611:Drivers/CMSIS/Include/cmsis_gcc.h ****   \details Returns the current value of the non-secure Process Stack Pointer Limit (PSPLIM) when in
 612:Drivers/CMSIS/Include/cmsis_gcc.h ****   \return               PSPLIM Register value
 613:Drivers/CMSIS/Include/cmsis_gcc.h ****  */
 614:Drivers/CMSIS/Include/cmsis_gcc.h **** __STATIC_FORCEINLINE uint32_t __TZ_get_PSPLIM_NS(void)
 615:Drivers/CMSIS/Include/cmsis_gcc.h **** {
 616:Drivers/CMSIS/Include/cmsis_gcc.h **** #if (!(defined (__ARM_ARCH_8M_MAIN__ ) && (__ARM_ARCH_8M_MAIN__ == 1)))
 617:Drivers/CMSIS/Include/cmsis_gcc.h ****   // without main extensions, the non-secure PSPLIM is RAZ/WI
 618:Drivers/CMSIS/Include/cmsis_gcc.h ****   return 0U;
 619:Drivers/CMSIS/Include/cmsis_gcc.h **** #else
 620:Drivers/CMSIS/Include/cmsis_gcc.h ****   uint32_t result;
 621:Drivers/CMSIS/Include/cmsis_gcc.h ****   __ASM volatile ("MRS %0, psplim_ns"  : "=r" (result) );
 622:Drivers/CMSIS/Include/cmsis_gcc.h ****   return result;
 623:Drivers/CMSIS/Include/cmsis_gcc.h **** #endif
 624:Drivers/CMSIS/Include/cmsis_gcc.h **** }
 625:Drivers/CMSIS/Include/cmsis_gcc.h **** #endif
 626:Drivers/CMSIS/Include/cmsis_gcc.h **** 
 627:Drivers/CMSIS/Include/cmsis_gcc.h **** 
 628:Drivers/CMSIS/Include/cmsis_gcc.h **** /**
 629:Drivers/CMSIS/Include/cmsis_gcc.h ****   \brief   Set Process Stack Pointer Limit
 630:Drivers/CMSIS/Include/cmsis_gcc.h ****   Devices without ARMv8-M Main Extensions (i.e. Cortex-M23) lack the non-secure
 631:Drivers/CMSIS/Include/cmsis_gcc.h ****   Stack Pointer Limit register hence the write is silently ignored in non-secure
ARM GAS  /var/folders/n6/c271nzx11xl4r4_m7sqjlt0m0000gn/T//ccgmP6qh.s 			page 16


 632:Drivers/CMSIS/Include/cmsis_gcc.h ****   mode.
 633:Drivers/CMSIS/Include/cmsis_gcc.h ****   
 634:Drivers/CMSIS/Include/cmsis_gcc.h ****   \details Assigns the given value to the Process Stack Pointer Limit (PSPLIM).
 635:Drivers/CMSIS/Include/cmsis_gcc.h ****   \param [in]    ProcStackPtrLimit  Process Stack Pointer Limit value to set
 636:Drivers/CMSIS/Include/cmsis_gcc.h ****  */
 637:Drivers/CMSIS/Include/cmsis_gcc.h **** __STATIC_FORCEINLINE void __set_PSPLIM(uint32_t ProcStackPtrLimit)
 638:Drivers/CMSIS/Include/cmsis_gcc.h **** {
 639:Drivers/CMSIS/Include/cmsis_gcc.h **** #if (!(defined (__ARM_ARCH_8M_MAIN__ ) && (__ARM_ARCH_8M_MAIN__ == 1)) && \
 640:Drivers/CMSIS/Include/cmsis_gcc.h ****     (!defined (__ARM_FEATURE_CMSE) || (__ARM_FEATURE_CMSE < 3)))
 641:Drivers/CMSIS/Include/cmsis_gcc.h ****   // without main extensions, the non-secure PSPLIM is RAZ/WI
 642:Drivers/CMSIS/Include/cmsis_gcc.h ****   (void)ProcStackPtrLimit;
 643:Drivers/CMSIS/Include/cmsis_gcc.h **** #else
 644:Drivers/CMSIS/Include/cmsis_gcc.h ****   __ASM volatile ("MSR psplim, %0" : : "r" (ProcStackPtrLimit));
 645:Drivers/CMSIS/Include/cmsis_gcc.h **** #endif
 646:Drivers/CMSIS/Include/cmsis_gcc.h **** }
 647:Drivers/CMSIS/Include/cmsis_gcc.h **** 
 648:Drivers/CMSIS/Include/cmsis_gcc.h **** 
 649:Drivers/CMSIS/Include/cmsis_gcc.h **** #if (defined (__ARM_FEATURE_CMSE  ) && (__ARM_FEATURE_CMSE   == 3))
 650:Drivers/CMSIS/Include/cmsis_gcc.h **** /**
 651:Drivers/CMSIS/Include/cmsis_gcc.h ****   \brief   Set Process Stack Pointer (non-secure)
 652:Drivers/CMSIS/Include/cmsis_gcc.h ****   Devices without ARMv8-M Main Extensions (i.e. Cortex-M23) lack the non-secure
 653:Drivers/CMSIS/Include/cmsis_gcc.h ****   Stack Pointer Limit register hence the write is silently ignored.
 654:Drivers/CMSIS/Include/cmsis_gcc.h **** 
 655:Drivers/CMSIS/Include/cmsis_gcc.h ****   \details Assigns the given value to the non-secure Process Stack Pointer Limit (PSPLIM) when in s
 656:Drivers/CMSIS/Include/cmsis_gcc.h ****   \param [in]    ProcStackPtrLimit  Process Stack Pointer Limit value to set
 657:Drivers/CMSIS/Include/cmsis_gcc.h ****  */
 658:Drivers/CMSIS/Include/cmsis_gcc.h **** __STATIC_FORCEINLINE void __TZ_set_PSPLIM_NS(uint32_t ProcStackPtrLimit)
 659:Drivers/CMSIS/Include/cmsis_gcc.h **** {
 660:Drivers/CMSIS/Include/cmsis_gcc.h **** #if (!(defined (__ARM_ARCH_8M_MAIN__ ) && (__ARM_ARCH_8M_MAIN__ == 1)))
 661:Drivers/CMSIS/Include/cmsis_gcc.h ****   // without main extensions, the non-secure PSPLIM is RAZ/WI
 662:Drivers/CMSIS/Include/cmsis_gcc.h ****   (void)ProcStackPtrLimit;
 663:Drivers/CMSIS/Include/cmsis_gcc.h **** #else
 664:Drivers/CMSIS/Include/cmsis_gcc.h ****   __ASM volatile ("MSR psplim_ns, %0\n" : : "r" (ProcStackPtrLimit));
 665:Drivers/CMSIS/Include/cmsis_gcc.h **** #endif
 666:Drivers/CMSIS/Include/cmsis_gcc.h **** }
 667:Drivers/CMSIS/Include/cmsis_gcc.h **** #endif
 668:Drivers/CMSIS/Include/cmsis_gcc.h **** 
 669:Drivers/CMSIS/Include/cmsis_gcc.h **** 
 670:Drivers/CMSIS/Include/cmsis_gcc.h **** /**
 671:Drivers/CMSIS/Include/cmsis_gcc.h ****   \brief   Get Main Stack Pointer Limit
 672:Drivers/CMSIS/Include/cmsis_gcc.h ****   Devices without ARMv8-M Main Extensions (i.e. Cortex-M23) lack the non-secure
 673:Drivers/CMSIS/Include/cmsis_gcc.h ****   Stack Pointer Limit register hence zero is returned always in non-secure
 674:Drivers/CMSIS/Include/cmsis_gcc.h ****   mode.
 675:Drivers/CMSIS/Include/cmsis_gcc.h **** 
 676:Drivers/CMSIS/Include/cmsis_gcc.h ****   \details Returns the current value of the Main Stack Pointer Limit (MSPLIM).
 677:Drivers/CMSIS/Include/cmsis_gcc.h ****   \return               MSPLIM Register value
 678:Drivers/CMSIS/Include/cmsis_gcc.h ****  */
 679:Drivers/CMSIS/Include/cmsis_gcc.h **** __STATIC_FORCEINLINE uint32_t __get_MSPLIM(void)
 680:Drivers/CMSIS/Include/cmsis_gcc.h **** {
 681:Drivers/CMSIS/Include/cmsis_gcc.h **** #if (!(defined (__ARM_ARCH_8M_MAIN__ ) && (__ARM_ARCH_8M_MAIN__ == 1)) && \
 682:Drivers/CMSIS/Include/cmsis_gcc.h ****     (!defined (__ARM_FEATURE_CMSE) || (__ARM_FEATURE_CMSE < 3)))
 683:Drivers/CMSIS/Include/cmsis_gcc.h ****   // without main extensions, the non-secure MSPLIM is RAZ/WI
 684:Drivers/CMSIS/Include/cmsis_gcc.h ****   return 0U;
 685:Drivers/CMSIS/Include/cmsis_gcc.h **** #else
 686:Drivers/CMSIS/Include/cmsis_gcc.h ****   uint32_t result;
 687:Drivers/CMSIS/Include/cmsis_gcc.h ****   __ASM volatile ("MRS %0, msplim" : "=r" (result) );
 688:Drivers/CMSIS/Include/cmsis_gcc.h ****   return result;
ARM GAS  /var/folders/n6/c271nzx11xl4r4_m7sqjlt0m0000gn/T//ccgmP6qh.s 			page 17


 689:Drivers/CMSIS/Include/cmsis_gcc.h **** #endif
 690:Drivers/CMSIS/Include/cmsis_gcc.h **** }
 691:Drivers/CMSIS/Include/cmsis_gcc.h **** 
 692:Drivers/CMSIS/Include/cmsis_gcc.h **** 
 693:Drivers/CMSIS/Include/cmsis_gcc.h **** #if (defined (__ARM_FEATURE_CMSE  ) && (__ARM_FEATURE_CMSE   == 3))
 694:Drivers/CMSIS/Include/cmsis_gcc.h **** /**
 695:Drivers/CMSIS/Include/cmsis_gcc.h ****   \brief   Get Main Stack Pointer Limit (non-secure)
 696:Drivers/CMSIS/Include/cmsis_gcc.h ****   Devices without ARMv8-M Main Extensions (i.e. Cortex-M23) lack the non-secure
 697:Drivers/CMSIS/Include/cmsis_gcc.h ****   Stack Pointer Limit register hence zero is returned always.
 698:Drivers/CMSIS/Include/cmsis_gcc.h **** 
 699:Drivers/CMSIS/Include/cmsis_gcc.h ****   \details Returns the current value of the non-secure Main Stack Pointer Limit(MSPLIM) when in sec
 700:Drivers/CMSIS/Include/cmsis_gcc.h ****   \return               MSPLIM Register value
 701:Drivers/CMSIS/Include/cmsis_gcc.h ****  */
 702:Drivers/CMSIS/Include/cmsis_gcc.h **** __STATIC_FORCEINLINE uint32_t __TZ_get_MSPLIM_NS(void)
 703:Drivers/CMSIS/Include/cmsis_gcc.h **** {
 704:Drivers/CMSIS/Include/cmsis_gcc.h **** #if (!(defined (__ARM_ARCH_8M_MAIN__ ) && (__ARM_ARCH_8M_MAIN__ == 1)))
 705:Drivers/CMSIS/Include/cmsis_gcc.h ****   // without main extensions, the non-secure MSPLIM is RAZ/WI
 706:Drivers/CMSIS/Include/cmsis_gcc.h ****   return 0U;
 707:Drivers/CMSIS/Include/cmsis_gcc.h **** #else
 708:Drivers/CMSIS/Include/cmsis_gcc.h ****   uint32_t result;
 709:Drivers/CMSIS/Include/cmsis_gcc.h ****   __ASM volatile ("MRS %0, msplim_ns" : "=r" (result) );
 710:Drivers/CMSIS/Include/cmsis_gcc.h ****   return result;
 711:Drivers/CMSIS/Include/cmsis_gcc.h **** #endif
 712:Drivers/CMSIS/Include/cmsis_gcc.h **** }
 713:Drivers/CMSIS/Include/cmsis_gcc.h **** #endif
 714:Drivers/CMSIS/Include/cmsis_gcc.h **** 
 715:Drivers/CMSIS/Include/cmsis_gcc.h **** 
 716:Drivers/CMSIS/Include/cmsis_gcc.h **** /**
 717:Drivers/CMSIS/Include/cmsis_gcc.h ****   \brief   Set Main Stack Pointer Limit
 718:Drivers/CMSIS/Include/cmsis_gcc.h ****   Devices without ARMv8-M Main Extensions (i.e. Cortex-M23) lack the non-secure
 719:Drivers/CMSIS/Include/cmsis_gcc.h ****   Stack Pointer Limit register hence the write is silently ignored in non-secure
 720:Drivers/CMSIS/Include/cmsis_gcc.h ****   mode.
 721:Drivers/CMSIS/Include/cmsis_gcc.h **** 
 722:Drivers/CMSIS/Include/cmsis_gcc.h ****   \details Assigns the given value to the Main Stack Pointer Limit (MSPLIM).
 723:Drivers/CMSIS/Include/cmsis_gcc.h ****   \param [in]    MainStackPtrLimit  Main Stack Pointer Limit value to set
 724:Drivers/CMSIS/Include/cmsis_gcc.h ****  */
 725:Drivers/CMSIS/Include/cmsis_gcc.h **** __STATIC_FORCEINLINE void __set_MSPLIM(uint32_t MainStackPtrLimit)
 726:Drivers/CMSIS/Include/cmsis_gcc.h **** {
 727:Drivers/CMSIS/Include/cmsis_gcc.h **** #if (!(defined (__ARM_ARCH_8M_MAIN__ ) && (__ARM_ARCH_8M_MAIN__ == 1)) && \
 728:Drivers/CMSIS/Include/cmsis_gcc.h ****     (!defined (__ARM_FEATURE_CMSE) || (__ARM_FEATURE_CMSE < 3)))
 729:Drivers/CMSIS/Include/cmsis_gcc.h ****   // without main extensions, the non-secure MSPLIM is RAZ/WI
 730:Drivers/CMSIS/Include/cmsis_gcc.h ****   (void)MainStackPtrLimit;
 731:Drivers/CMSIS/Include/cmsis_gcc.h **** #else
 732:Drivers/CMSIS/Include/cmsis_gcc.h ****   __ASM volatile ("MSR msplim, %0" : : "r" (MainStackPtrLimit));
 733:Drivers/CMSIS/Include/cmsis_gcc.h **** #endif
 734:Drivers/CMSIS/Include/cmsis_gcc.h **** }
 735:Drivers/CMSIS/Include/cmsis_gcc.h **** 
 736:Drivers/CMSIS/Include/cmsis_gcc.h **** 
 737:Drivers/CMSIS/Include/cmsis_gcc.h **** #if (defined (__ARM_FEATURE_CMSE  ) && (__ARM_FEATURE_CMSE   == 3))
 738:Drivers/CMSIS/Include/cmsis_gcc.h **** /**
 739:Drivers/CMSIS/Include/cmsis_gcc.h ****   \brief   Set Main Stack Pointer Limit (non-secure)
 740:Drivers/CMSIS/Include/cmsis_gcc.h ****   Devices without ARMv8-M Main Extensions (i.e. Cortex-M23) lack the non-secure
 741:Drivers/CMSIS/Include/cmsis_gcc.h ****   Stack Pointer Limit register hence the write is silently ignored.
 742:Drivers/CMSIS/Include/cmsis_gcc.h **** 
 743:Drivers/CMSIS/Include/cmsis_gcc.h ****   \details Assigns the given value to the non-secure Main Stack Pointer Limit (MSPLIM) when in secu
 744:Drivers/CMSIS/Include/cmsis_gcc.h ****   \param [in]    MainStackPtrLimit  Main Stack Pointer value to set
 745:Drivers/CMSIS/Include/cmsis_gcc.h ****  */
ARM GAS  /var/folders/n6/c271nzx11xl4r4_m7sqjlt0m0000gn/T//ccgmP6qh.s 			page 18


 746:Drivers/CMSIS/Include/cmsis_gcc.h **** __STATIC_FORCEINLINE void __TZ_set_MSPLIM_NS(uint32_t MainStackPtrLimit)
 747:Drivers/CMSIS/Include/cmsis_gcc.h **** {
 748:Drivers/CMSIS/Include/cmsis_gcc.h **** #if (!(defined (__ARM_ARCH_8M_MAIN__ ) && (__ARM_ARCH_8M_MAIN__ == 1)))
 749:Drivers/CMSIS/Include/cmsis_gcc.h ****   // without main extensions, the non-secure MSPLIM is RAZ/WI
 750:Drivers/CMSIS/Include/cmsis_gcc.h ****   (void)MainStackPtrLimit;
 751:Drivers/CMSIS/Include/cmsis_gcc.h **** #else
 752:Drivers/CMSIS/Include/cmsis_gcc.h ****   __ASM volatile ("MSR msplim_ns, %0" : : "r" (MainStackPtrLimit));
 753:Drivers/CMSIS/Include/cmsis_gcc.h **** #endif
 754:Drivers/CMSIS/Include/cmsis_gcc.h **** }
 755:Drivers/CMSIS/Include/cmsis_gcc.h **** #endif
 756:Drivers/CMSIS/Include/cmsis_gcc.h **** 
 757:Drivers/CMSIS/Include/cmsis_gcc.h **** #endif /* ((defined (__ARM_ARCH_8M_MAIN__ ) && (__ARM_ARCH_8M_MAIN__ == 1)) || \
 758:Drivers/CMSIS/Include/cmsis_gcc.h ****            (defined (__ARM_ARCH_8M_BASE__ ) && (__ARM_ARCH_8M_BASE__ == 1))    ) */
 759:Drivers/CMSIS/Include/cmsis_gcc.h **** 
 760:Drivers/CMSIS/Include/cmsis_gcc.h **** 
 761:Drivers/CMSIS/Include/cmsis_gcc.h **** /**
 762:Drivers/CMSIS/Include/cmsis_gcc.h ****   \brief   Get FPSCR
 763:Drivers/CMSIS/Include/cmsis_gcc.h ****   \details Returns the current value of the Floating Point Status/Control register.
 764:Drivers/CMSIS/Include/cmsis_gcc.h ****   \return               Floating Point Status/Control register value
 765:Drivers/CMSIS/Include/cmsis_gcc.h ****  */
 766:Drivers/CMSIS/Include/cmsis_gcc.h **** __STATIC_FORCEINLINE uint32_t __get_FPSCR(void)
 767:Drivers/CMSIS/Include/cmsis_gcc.h **** {
 768:Drivers/CMSIS/Include/cmsis_gcc.h **** #if ((defined (__FPU_PRESENT) && (__FPU_PRESENT == 1U)) && \
 769:Drivers/CMSIS/Include/cmsis_gcc.h ****      (defined (__FPU_USED   ) && (__FPU_USED    == 1U))     )
 770:Drivers/CMSIS/Include/cmsis_gcc.h **** #if __has_builtin(__builtin_arm_get_fpscr) 
 771:Drivers/CMSIS/Include/cmsis_gcc.h **** // Re-enable using built-in when GCC has been fixed
 772:Drivers/CMSIS/Include/cmsis_gcc.h **** // || (__GNUC__ > 7) || (__GNUC__ == 7 && __GNUC_MINOR__ >= 2)
 773:Drivers/CMSIS/Include/cmsis_gcc.h ****   /* see https://gcc.gnu.org/ml/gcc-patches/2017-04/msg00443.html */
 774:Drivers/CMSIS/Include/cmsis_gcc.h ****   return __builtin_arm_get_fpscr();
 775:Drivers/CMSIS/Include/cmsis_gcc.h **** #else
 776:Drivers/CMSIS/Include/cmsis_gcc.h ****   uint32_t result;
 777:Drivers/CMSIS/Include/cmsis_gcc.h **** 
 778:Drivers/CMSIS/Include/cmsis_gcc.h ****   __ASM volatile ("VMRS %0, fpscr" : "=r" (result) );
 779:Drivers/CMSIS/Include/cmsis_gcc.h ****   return(result);
 780:Drivers/CMSIS/Include/cmsis_gcc.h **** #endif
 781:Drivers/CMSIS/Include/cmsis_gcc.h **** #else
 782:Drivers/CMSIS/Include/cmsis_gcc.h ****   return(0U);
 783:Drivers/CMSIS/Include/cmsis_gcc.h **** #endif
 784:Drivers/CMSIS/Include/cmsis_gcc.h **** }
 785:Drivers/CMSIS/Include/cmsis_gcc.h **** 
 786:Drivers/CMSIS/Include/cmsis_gcc.h **** 
 787:Drivers/CMSIS/Include/cmsis_gcc.h **** /**
 788:Drivers/CMSIS/Include/cmsis_gcc.h ****   \brief   Set FPSCR
 789:Drivers/CMSIS/Include/cmsis_gcc.h ****   \details Assigns the given value to the Floating Point Status/Control register.
 790:Drivers/CMSIS/Include/cmsis_gcc.h ****   \param [in]    fpscr  Floating Point Status/Control value to set
 791:Drivers/CMSIS/Include/cmsis_gcc.h ****  */
 792:Drivers/CMSIS/Include/cmsis_gcc.h **** __STATIC_FORCEINLINE void __set_FPSCR(uint32_t fpscr)
 793:Drivers/CMSIS/Include/cmsis_gcc.h **** {
 794:Drivers/CMSIS/Include/cmsis_gcc.h **** #if ((defined (__FPU_PRESENT) && (__FPU_PRESENT == 1U)) && \
 795:Drivers/CMSIS/Include/cmsis_gcc.h ****      (defined (__FPU_USED   ) && (__FPU_USED    == 1U))     )
 796:Drivers/CMSIS/Include/cmsis_gcc.h **** #if __has_builtin(__builtin_arm_set_fpscr)
 797:Drivers/CMSIS/Include/cmsis_gcc.h **** // Re-enable using built-in when GCC has been fixed
 798:Drivers/CMSIS/Include/cmsis_gcc.h **** // || (__GNUC__ > 7) || (__GNUC__ == 7 && __GNUC_MINOR__ >= 2)
 799:Drivers/CMSIS/Include/cmsis_gcc.h ****   /* see https://gcc.gnu.org/ml/gcc-patches/2017-04/msg00443.html */
 800:Drivers/CMSIS/Include/cmsis_gcc.h ****   __builtin_arm_set_fpscr(fpscr);
 801:Drivers/CMSIS/Include/cmsis_gcc.h **** #else
 802:Drivers/CMSIS/Include/cmsis_gcc.h ****   __ASM volatile ("VMSR fpscr, %0" : : "r" (fpscr) : "vfpcc", "memory");
ARM GAS  /var/folders/n6/c271nzx11xl4r4_m7sqjlt0m0000gn/T//ccgmP6qh.s 			page 19


 803:Drivers/CMSIS/Include/cmsis_gcc.h **** #endif
 804:Drivers/CMSIS/Include/cmsis_gcc.h **** #else
 805:Drivers/CMSIS/Include/cmsis_gcc.h ****   (void)fpscr;
 806:Drivers/CMSIS/Include/cmsis_gcc.h **** #endif
 807:Drivers/CMSIS/Include/cmsis_gcc.h **** }
 808:Drivers/CMSIS/Include/cmsis_gcc.h **** 
 809:Drivers/CMSIS/Include/cmsis_gcc.h **** 
 810:Drivers/CMSIS/Include/cmsis_gcc.h **** /*@} end of CMSIS_Core_RegAccFunctions */
 811:Drivers/CMSIS/Include/cmsis_gcc.h **** 
 812:Drivers/CMSIS/Include/cmsis_gcc.h **** 
 813:Drivers/CMSIS/Include/cmsis_gcc.h **** /* ##########################  Core Instruction Access  ######################### */
 814:Drivers/CMSIS/Include/cmsis_gcc.h **** /** \defgroup CMSIS_Core_InstructionInterface CMSIS Core Instruction Interface
 815:Drivers/CMSIS/Include/cmsis_gcc.h ****   Access to dedicated instructions
 816:Drivers/CMSIS/Include/cmsis_gcc.h ****   @{
 817:Drivers/CMSIS/Include/cmsis_gcc.h **** */
 818:Drivers/CMSIS/Include/cmsis_gcc.h **** 
 819:Drivers/CMSIS/Include/cmsis_gcc.h **** /* Define macros for porting to both thumb1 and thumb2.
 820:Drivers/CMSIS/Include/cmsis_gcc.h ****  * For thumb1, use low register (r0-r7), specified by constraint "l"
 821:Drivers/CMSIS/Include/cmsis_gcc.h ****  * Otherwise, use general registers, specified by constraint "r" */
 822:Drivers/CMSIS/Include/cmsis_gcc.h **** #if defined (__thumb__) && !defined (__thumb2__)
 823:Drivers/CMSIS/Include/cmsis_gcc.h **** #define __CMSIS_GCC_OUT_REG(r) "=l" (r)
 824:Drivers/CMSIS/Include/cmsis_gcc.h **** #define __CMSIS_GCC_RW_REG(r) "+l" (r)
 825:Drivers/CMSIS/Include/cmsis_gcc.h **** #define __CMSIS_GCC_USE_REG(r) "l" (r)
 826:Drivers/CMSIS/Include/cmsis_gcc.h **** #else
 827:Drivers/CMSIS/Include/cmsis_gcc.h **** #define __CMSIS_GCC_OUT_REG(r) "=r" (r)
 828:Drivers/CMSIS/Include/cmsis_gcc.h **** #define __CMSIS_GCC_RW_REG(r) "+r" (r)
 829:Drivers/CMSIS/Include/cmsis_gcc.h **** #define __CMSIS_GCC_USE_REG(r) "r" (r)
 830:Drivers/CMSIS/Include/cmsis_gcc.h **** #endif
 831:Drivers/CMSIS/Include/cmsis_gcc.h **** 
 832:Drivers/CMSIS/Include/cmsis_gcc.h **** /**
 833:Drivers/CMSIS/Include/cmsis_gcc.h ****   \brief   No Operation
 834:Drivers/CMSIS/Include/cmsis_gcc.h ****   \details No Operation does nothing. This instruction can be used for code alignment purposes.
 835:Drivers/CMSIS/Include/cmsis_gcc.h ****  */
 836:Drivers/CMSIS/Include/cmsis_gcc.h **** #define __NOP()                             __ASM volatile ("nop")
 837:Drivers/CMSIS/Include/cmsis_gcc.h **** 
 838:Drivers/CMSIS/Include/cmsis_gcc.h **** /**
 839:Drivers/CMSIS/Include/cmsis_gcc.h ****   \brief   Wait For Interrupt
 840:Drivers/CMSIS/Include/cmsis_gcc.h ****   \details Wait For Interrupt is a hint instruction that suspends execution until one of a number o
 841:Drivers/CMSIS/Include/cmsis_gcc.h ****  */
 842:Drivers/CMSIS/Include/cmsis_gcc.h **** #define __WFI()                             __ASM volatile ("wfi")
 843:Drivers/CMSIS/Include/cmsis_gcc.h **** 
 844:Drivers/CMSIS/Include/cmsis_gcc.h **** 
 845:Drivers/CMSIS/Include/cmsis_gcc.h **** /**
 846:Drivers/CMSIS/Include/cmsis_gcc.h ****   \brief   Wait For Event
 847:Drivers/CMSIS/Include/cmsis_gcc.h ****   \details Wait For Event is a hint instruction that permits the processor to enter
 848:Drivers/CMSIS/Include/cmsis_gcc.h ****            a low-power state until one of a number of events occurs.
 849:Drivers/CMSIS/Include/cmsis_gcc.h ****  */
 850:Drivers/CMSIS/Include/cmsis_gcc.h **** #define __WFE()                             __ASM volatile ("wfe")
 851:Drivers/CMSIS/Include/cmsis_gcc.h **** 
 852:Drivers/CMSIS/Include/cmsis_gcc.h **** 
 853:Drivers/CMSIS/Include/cmsis_gcc.h **** /**
 854:Drivers/CMSIS/Include/cmsis_gcc.h ****   \brief   Send Event
 855:Drivers/CMSIS/Include/cmsis_gcc.h ****   \details Send Event is a hint instruction. It causes an event to be signaled to the CPU.
 856:Drivers/CMSIS/Include/cmsis_gcc.h ****  */
 857:Drivers/CMSIS/Include/cmsis_gcc.h **** #define __SEV()                             __ASM volatile ("sev")
 858:Drivers/CMSIS/Include/cmsis_gcc.h **** 
 859:Drivers/CMSIS/Include/cmsis_gcc.h **** 
ARM GAS  /var/folders/n6/c271nzx11xl4r4_m7sqjlt0m0000gn/T//ccgmP6qh.s 			page 20


 860:Drivers/CMSIS/Include/cmsis_gcc.h **** /**
 861:Drivers/CMSIS/Include/cmsis_gcc.h ****   \brief   Instruction Synchronization Barrier
 862:Drivers/CMSIS/Include/cmsis_gcc.h ****   \details Instruction Synchronization Barrier flushes the pipeline in the processor,
 863:Drivers/CMSIS/Include/cmsis_gcc.h ****            so that all instructions following the ISB are fetched from cache or memory,
 864:Drivers/CMSIS/Include/cmsis_gcc.h ****            after the instruction has been completed.
 865:Drivers/CMSIS/Include/cmsis_gcc.h ****  */
 866:Drivers/CMSIS/Include/cmsis_gcc.h **** __STATIC_FORCEINLINE void __ISB(void)
 867:Drivers/CMSIS/Include/cmsis_gcc.h **** {
 868:Drivers/CMSIS/Include/cmsis_gcc.h ****   __ASM volatile ("isb 0xF":::"memory");
 869:Drivers/CMSIS/Include/cmsis_gcc.h **** }
 870:Drivers/CMSIS/Include/cmsis_gcc.h **** 
 871:Drivers/CMSIS/Include/cmsis_gcc.h **** 
 872:Drivers/CMSIS/Include/cmsis_gcc.h **** /**
 873:Drivers/CMSIS/Include/cmsis_gcc.h ****   \brief   Data Synchronization Barrier
 874:Drivers/CMSIS/Include/cmsis_gcc.h ****   \details Acts as a special kind of Data Memory Barrier.
 875:Drivers/CMSIS/Include/cmsis_gcc.h ****            It completes when all explicit memory accesses before this instruction complete.
 876:Drivers/CMSIS/Include/cmsis_gcc.h ****  */
 877:Drivers/CMSIS/Include/cmsis_gcc.h **** __STATIC_FORCEINLINE void __DSB(void)
 878:Drivers/CMSIS/Include/cmsis_gcc.h **** {
 879:Drivers/CMSIS/Include/cmsis_gcc.h ****   __ASM volatile ("dsb 0xF":::"memory");
 880:Drivers/CMSIS/Include/cmsis_gcc.h **** }
 881:Drivers/CMSIS/Include/cmsis_gcc.h **** 
 882:Drivers/CMSIS/Include/cmsis_gcc.h **** 
 883:Drivers/CMSIS/Include/cmsis_gcc.h **** /**
 884:Drivers/CMSIS/Include/cmsis_gcc.h ****   \brief   Data Memory Barrier
 885:Drivers/CMSIS/Include/cmsis_gcc.h ****   \details Ensures the apparent order of the explicit memory operations before
 886:Drivers/CMSIS/Include/cmsis_gcc.h ****            and after the instruction, without ensuring their completion.
 887:Drivers/CMSIS/Include/cmsis_gcc.h ****  */
 888:Drivers/CMSIS/Include/cmsis_gcc.h **** __STATIC_FORCEINLINE void __DMB(void)
 889:Drivers/CMSIS/Include/cmsis_gcc.h **** {
 890:Drivers/CMSIS/Include/cmsis_gcc.h ****   __ASM volatile ("dmb 0xF":::"memory");
 891:Drivers/CMSIS/Include/cmsis_gcc.h **** }
 892:Drivers/CMSIS/Include/cmsis_gcc.h **** 
 893:Drivers/CMSIS/Include/cmsis_gcc.h **** 
 894:Drivers/CMSIS/Include/cmsis_gcc.h **** /**
 895:Drivers/CMSIS/Include/cmsis_gcc.h ****   \brief   Reverse byte order (32 bit)
 896:Drivers/CMSIS/Include/cmsis_gcc.h ****   \details Reverses the byte order in unsigned integer value. For example, 0x12345678 becomes 0x785
 897:Drivers/CMSIS/Include/cmsis_gcc.h ****   \param [in]    value  Value to reverse
 898:Drivers/CMSIS/Include/cmsis_gcc.h ****   \return               Reversed value
 899:Drivers/CMSIS/Include/cmsis_gcc.h ****  */
 900:Drivers/CMSIS/Include/cmsis_gcc.h **** __STATIC_FORCEINLINE uint32_t __REV(uint32_t value)
 901:Drivers/CMSIS/Include/cmsis_gcc.h **** {
 902:Drivers/CMSIS/Include/cmsis_gcc.h **** #if (__GNUC__ > 4) || (__GNUC__ == 4 && __GNUC_MINOR__ >= 5)
 903:Drivers/CMSIS/Include/cmsis_gcc.h ****   return __builtin_bswap32(value);
 904:Drivers/CMSIS/Include/cmsis_gcc.h **** #else
 905:Drivers/CMSIS/Include/cmsis_gcc.h ****   uint32_t result;
 906:Drivers/CMSIS/Include/cmsis_gcc.h **** 
 907:Drivers/CMSIS/Include/cmsis_gcc.h ****   __ASM volatile ("rev %0, %1" : __CMSIS_GCC_OUT_REG (result) : __CMSIS_GCC_USE_REG (value) );
 908:Drivers/CMSIS/Include/cmsis_gcc.h ****   return result;
 909:Drivers/CMSIS/Include/cmsis_gcc.h **** #endif
 910:Drivers/CMSIS/Include/cmsis_gcc.h **** }
 911:Drivers/CMSIS/Include/cmsis_gcc.h **** 
 912:Drivers/CMSIS/Include/cmsis_gcc.h **** 
 913:Drivers/CMSIS/Include/cmsis_gcc.h **** /**
 914:Drivers/CMSIS/Include/cmsis_gcc.h ****   \brief   Reverse byte order (16 bit)
 915:Drivers/CMSIS/Include/cmsis_gcc.h ****   \details Reverses the byte order within each halfword of a word. For example, 0x12345678 becomes 
 916:Drivers/CMSIS/Include/cmsis_gcc.h ****   \param [in]    value  Value to reverse
ARM GAS  /var/folders/n6/c271nzx11xl4r4_m7sqjlt0m0000gn/T//ccgmP6qh.s 			page 21


 917:Drivers/CMSIS/Include/cmsis_gcc.h ****   \return               Reversed value
 918:Drivers/CMSIS/Include/cmsis_gcc.h ****  */
 919:Drivers/CMSIS/Include/cmsis_gcc.h **** __STATIC_FORCEINLINE uint32_t __REV16(uint32_t value)
 920:Drivers/CMSIS/Include/cmsis_gcc.h **** {
 921:Drivers/CMSIS/Include/cmsis_gcc.h ****   uint32_t result;
 922:Drivers/CMSIS/Include/cmsis_gcc.h **** 
 923:Drivers/CMSIS/Include/cmsis_gcc.h ****   __ASM volatile ("rev16 %0, %1" : __CMSIS_GCC_OUT_REG (result) : __CMSIS_GCC_USE_REG (value) );
 924:Drivers/CMSIS/Include/cmsis_gcc.h ****   return result;
 925:Drivers/CMSIS/Include/cmsis_gcc.h **** }
 926:Drivers/CMSIS/Include/cmsis_gcc.h **** 
 927:Drivers/CMSIS/Include/cmsis_gcc.h **** 
 928:Drivers/CMSIS/Include/cmsis_gcc.h **** /**
 929:Drivers/CMSIS/Include/cmsis_gcc.h ****   \brief   Reverse byte order (16 bit)
 930:Drivers/CMSIS/Include/cmsis_gcc.h ****   \details Reverses the byte order in a 16-bit value and returns the signed 16-bit result. For exam
 931:Drivers/CMSIS/Include/cmsis_gcc.h ****   \param [in]    value  Value to reverse
 932:Drivers/CMSIS/Include/cmsis_gcc.h ****   \return               Reversed value
 933:Drivers/CMSIS/Include/cmsis_gcc.h ****  */
 934:Drivers/CMSIS/Include/cmsis_gcc.h **** __STATIC_FORCEINLINE int16_t __REVSH(int16_t value)
 935:Drivers/CMSIS/Include/cmsis_gcc.h **** {
 936:Drivers/CMSIS/Include/cmsis_gcc.h **** #if (__GNUC__ > 4) || (__GNUC__ == 4 && __GNUC_MINOR__ >= 8)
 937:Drivers/CMSIS/Include/cmsis_gcc.h ****   return (int16_t)__builtin_bswap16(value);
 938:Drivers/CMSIS/Include/cmsis_gcc.h **** #else
 939:Drivers/CMSIS/Include/cmsis_gcc.h ****   int16_t result;
 940:Drivers/CMSIS/Include/cmsis_gcc.h **** 
 941:Drivers/CMSIS/Include/cmsis_gcc.h ****   __ASM volatile ("revsh %0, %1" : __CMSIS_GCC_OUT_REG (result) : __CMSIS_GCC_USE_REG (value) );
 942:Drivers/CMSIS/Include/cmsis_gcc.h ****   return result;
 943:Drivers/CMSIS/Include/cmsis_gcc.h **** #endif
 944:Drivers/CMSIS/Include/cmsis_gcc.h **** }
 945:Drivers/CMSIS/Include/cmsis_gcc.h **** 
 946:Drivers/CMSIS/Include/cmsis_gcc.h **** 
 947:Drivers/CMSIS/Include/cmsis_gcc.h **** /**
 948:Drivers/CMSIS/Include/cmsis_gcc.h ****   \brief   Rotate Right in unsigned value (32 bit)
 949:Drivers/CMSIS/Include/cmsis_gcc.h ****   \details Rotate Right (immediate) provides the value of the contents of a register rotated by a v
 950:Drivers/CMSIS/Include/cmsis_gcc.h ****   \param [in]    op1  Value to rotate
 951:Drivers/CMSIS/Include/cmsis_gcc.h ****   \param [in]    op2  Number of Bits to rotate
 952:Drivers/CMSIS/Include/cmsis_gcc.h ****   \return               Rotated value
 953:Drivers/CMSIS/Include/cmsis_gcc.h ****  */
 954:Drivers/CMSIS/Include/cmsis_gcc.h **** __STATIC_FORCEINLINE uint32_t __ROR(uint32_t op1, uint32_t op2)
 955:Drivers/CMSIS/Include/cmsis_gcc.h **** {
 956:Drivers/CMSIS/Include/cmsis_gcc.h ****   op2 %= 32U;
 957:Drivers/CMSIS/Include/cmsis_gcc.h ****   if (op2 == 0U)
 958:Drivers/CMSIS/Include/cmsis_gcc.h ****   {
 959:Drivers/CMSIS/Include/cmsis_gcc.h ****     return op1;
 960:Drivers/CMSIS/Include/cmsis_gcc.h ****   }
 961:Drivers/CMSIS/Include/cmsis_gcc.h ****   return (op1 >> op2) | (op1 << (32U - op2));
 962:Drivers/CMSIS/Include/cmsis_gcc.h **** }
 963:Drivers/CMSIS/Include/cmsis_gcc.h **** 
 964:Drivers/CMSIS/Include/cmsis_gcc.h **** 
 965:Drivers/CMSIS/Include/cmsis_gcc.h **** /**
 966:Drivers/CMSIS/Include/cmsis_gcc.h ****   \brief   Breakpoint
 967:Drivers/CMSIS/Include/cmsis_gcc.h ****   \details Causes the processor to enter Debug state.
 968:Drivers/CMSIS/Include/cmsis_gcc.h ****            Debug tools can use this to investigate system state when the instruction at a particula
 969:Drivers/CMSIS/Include/cmsis_gcc.h ****   \param [in]    value  is ignored by the processor.
 970:Drivers/CMSIS/Include/cmsis_gcc.h ****                  If required, a debugger can use it to store additional information about the break
 971:Drivers/CMSIS/Include/cmsis_gcc.h ****  */
 972:Drivers/CMSIS/Include/cmsis_gcc.h **** #define __BKPT(value)                       __ASM volatile ("bkpt "#value)
 973:Drivers/CMSIS/Include/cmsis_gcc.h **** 
ARM GAS  /var/folders/n6/c271nzx11xl4r4_m7sqjlt0m0000gn/T//ccgmP6qh.s 			page 22


 974:Drivers/CMSIS/Include/cmsis_gcc.h **** 
 975:Drivers/CMSIS/Include/cmsis_gcc.h **** /**
 976:Drivers/CMSIS/Include/cmsis_gcc.h ****   \brief   Reverse bit order of value
 977:Drivers/CMSIS/Include/cmsis_gcc.h ****   \details Reverses the bit order of the given value.
 978:Drivers/CMSIS/Include/cmsis_gcc.h ****   \param [in]    value  Value to reverse
 979:Drivers/CMSIS/Include/cmsis_gcc.h ****   \return               Reversed value
 980:Drivers/CMSIS/Include/cmsis_gcc.h ****  */
 981:Drivers/CMSIS/Include/cmsis_gcc.h **** __STATIC_FORCEINLINE uint32_t __RBIT(uint32_t value)
 982:Drivers/CMSIS/Include/cmsis_gcc.h **** {
 983:Drivers/CMSIS/Include/cmsis_gcc.h ****   uint32_t result;
 984:Drivers/CMSIS/Include/cmsis_gcc.h **** 
 985:Drivers/CMSIS/Include/cmsis_gcc.h **** #if ((defined (__ARM_ARCH_7M__      ) && (__ARM_ARCH_7M__      == 1)) || \
 986:Drivers/CMSIS/Include/cmsis_gcc.h ****      (defined (__ARM_ARCH_7EM__     ) && (__ARM_ARCH_7EM__     == 1)) || \
 987:Drivers/CMSIS/Include/cmsis_gcc.h ****      (defined (__ARM_ARCH_8M_MAIN__ ) && (__ARM_ARCH_8M_MAIN__ == 1))    )
 988:Drivers/CMSIS/Include/cmsis_gcc.h ****    __ASM volatile ("rbit %0, %1" : "=r" (result) : "r" (value) );
 989:Drivers/CMSIS/Include/cmsis_gcc.h **** #else
 990:Drivers/CMSIS/Include/cmsis_gcc.h ****   uint32_t s = (4U /*sizeof(v)*/ * 8U) - 1U; /* extra shift needed at end */
 991:Drivers/CMSIS/Include/cmsis_gcc.h **** 
 992:Drivers/CMSIS/Include/cmsis_gcc.h ****   result = value;                      /* r will be reversed bits of v; first get LSB of v */
 993:Drivers/CMSIS/Include/cmsis_gcc.h ****   for (value >>= 1U; value != 0U; value >>= 1U)
 994:Drivers/CMSIS/Include/cmsis_gcc.h ****   {
 995:Drivers/CMSIS/Include/cmsis_gcc.h ****     result <<= 1U;
 996:Drivers/CMSIS/Include/cmsis_gcc.h ****     result |= value & 1U;
 997:Drivers/CMSIS/Include/cmsis_gcc.h ****     s--;
 998:Drivers/CMSIS/Include/cmsis_gcc.h ****   }
 999:Drivers/CMSIS/Include/cmsis_gcc.h ****   result <<= s;                        /* shift when v's highest bits are zero */
1000:Drivers/CMSIS/Include/cmsis_gcc.h **** #endif
1001:Drivers/CMSIS/Include/cmsis_gcc.h ****   return result;
1002:Drivers/CMSIS/Include/cmsis_gcc.h **** }
1003:Drivers/CMSIS/Include/cmsis_gcc.h **** 
1004:Drivers/CMSIS/Include/cmsis_gcc.h **** 
1005:Drivers/CMSIS/Include/cmsis_gcc.h **** /**
1006:Drivers/CMSIS/Include/cmsis_gcc.h ****   \brief   Count leading zeros
1007:Drivers/CMSIS/Include/cmsis_gcc.h ****   \details Counts the number of leading zeros of a data value.
1008:Drivers/CMSIS/Include/cmsis_gcc.h ****   \param [in]  value  Value to count the leading zeros
1009:Drivers/CMSIS/Include/cmsis_gcc.h ****   \return             number of leading zeros in value
1010:Drivers/CMSIS/Include/cmsis_gcc.h ****  */
1011:Drivers/CMSIS/Include/cmsis_gcc.h **** #define __CLZ             (uint8_t)__builtin_clz
1012:Drivers/CMSIS/Include/cmsis_gcc.h **** 
1013:Drivers/CMSIS/Include/cmsis_gcc.h **** 
1014:Drivers/CMSIS/Include/cmsis_gcc.h **** #if ((defined (__ARM_ARCH_7M__      ) && (__ARM_ARCH_7M__      == 1)) || \
1015:Drivers/CMSIS/Include/cmsis_gcc.h ****      (defined (__ARM_ARCH_7EM__     ) && (__ARM_ARCH_7EM__     == 1)) || \
1016:Drivers/CMSIS/Include/cmsis_gcc.h ****      (defined (__ARM_ARCH_8M_MAIN__ ) && (__ARM_ARCH_8M_MAIN__ == 1)) || \
1017:Drivers/CMSIS/Include/cmsis_gcc.h ****      (defined (__ARM_ARCH_8M_BASE__ ) && (__ARM_ARCH_8M_BASE__ == 1))    )
1018:Drivers/CMSIS/Include/cmsis_gcc.h **** /**
1019:Drivers/CMSIS/Include/cmsis_gcc.h ****   \brief   LDR Exclusive (8 bit)
1020:Drivers/CMSIS/Include/cmsis_gcc.h ****   \details Executes a exclusive LDR instruction for 8 bit value.
1021:Drivers/CMSIS/Include/cmsis_gcc.h ****   \param [in]    ptr  Pointer to data
1022:Drivers/CMSIS/Include/cmsis_gcc.h ****   \return             value of type uint8_t at (*ptr)
1023:Drivers/CMSIS/Include/cmsis_gcc.h ****  */
1024:Drivers/CMSIS/Include/cmsis_gcc.h **** __STATIC_FORCEINLINE uint8_t __LDREXB(volatile uint8_t *addr)
1025:Drivers/CMSIS/Include/cmsis_gcc.h **** {
1026:Drivers/CMSIS/Include/cmsis_gcc.h ****     uint32_t result;
1027:Drivers/CMSIS/Include/cmsis_gcc.h **** 
1028:Drivers/CMSIS/Include/cmsis_gcc.h **** #if (__GNUC__ > 4) || (__GNUC__ == 4 && __GNUC_MINOR__ >= 8)
1029:Drivers/CMSIS/Include/cmsis_gcc.h ****    __ASM volatile ("ldrexb %0, %1" : "=r" (result) : "Q" (*addr) );
1030:Drivers/CMSIS/Include/cmsis_gcc.h **** #else
ARM GAS  /var/folders/n6/c271nzx11xl4r4_m7sqjlt0m0000gn/T//ccgmP6qh.s 			page 23


1031:Drivers/CMSIS/Include/cmsis_gcc.h ****     /* Prior to GCC 4.8, "Q" will be expanded to [rx, #0] which is not
1032:Drivers/CMSIS/Include/cmsis_gcc.h ****        accepted by assembler. So has to use following less efficient pattern.
1033:Drivers/CMSIS/Include/cmsis_gcc.h ****     */
1034:Drivers/CMSIS/Include/cmsis_gcc.h ****    __ASM volatile ("ldrexb %0, [%1]" : "=r" (result) : "r" (addr) : "memory" );
1035:Drivers/CMSIS/Include/cmsis_gcc.h **** #endif
1036:Drivers/CMSIS/Include/cmsis_gcc.h ****    return ((uint8_t) result);    /* Add explicit type cast here */
1037:Drivers/CMSIS/Include/cmsis_gcc.h **** }
1038:Drivers/CMSIS/Include/cmsis_gcc.h **** 
1039:Drivers/CMSIS/Include/cmsis_gcc.h **** 
1040:Drivers/CMSIS/Include/cmsis_gcc.h **** /**
1041:Drivers/CMSIS/Include/cmsis_gcc.h ****   \brief   LDR Exclusive (16 bit)
1042:Drivers/CMSIS/Include/cmsis_gcc.h ****   \details Executes a exclusive LDR instruction for 16 bit values.
1043:Drivers/CMSIS/Include/cmsis_gcc.h ****   \param [in]    ptr  Pointer to data
1044:Drivers/CMSIS/Include/cmsis_gcc.h ****   \return        value of type uint16_t at (*ptr)
1045:Drivers/CMSIS/Include/cmsis_gcc.h ****  */
1046:Drivers/CMSIS/Include/cmsis_gcc.h **** __STATIC_FORCEINLINE uint16_t __LDREXH(volatile uint16_t *addr)
1047:Drivers/CMSIS/Include/cmsis_gcc.h **** {
1048:Drivers/CMSIS/Include/cmsis_gcc.h ****     uint32_t result;
1049:Drivers/CMSIS/Include/cmsis_gcc.h **** 
1050:Drivers/CMSIS/Include/cmsis_gcc.h **** #if (__GNUC__ > 4) || (__GNUC__ == 4 && __GNUC_MINOR__ >= 8)
1051:Drivers/CMSIS/Include/cmsis_gcc.h ****    __ASM volatile ("ldrexh %0, %1" : "=r" (result) : "Q" (*addr) );
1052:Drivers/CMSIS/Include/cmsis_gcc.h **** #else
1053:Drivers/CMSIS/Include/cmsis_gcc.h ****     /* Prior to GCC 4.8, "Q" will be expanded to [rx, #0] which is not
1054:Drivers/CMSIS/Include/cmsis_gcc.h ****        accepted by assembler. So has to use following less efficient pattern.
1055:Drivers/CMSIS/Include/cmsis_gcc.h ****     */
1056:Drivers/CMSIS/Include/cmsis_gcc.h ****    __ASM volatile ("ldrexh %0, [%1]" : "=r" (result) : "r" (addr) : "memory" );
1057:Drivers/CMSIS/Include/cmsis_gcc.h **** #endif
1058:Drivers/CMSIS/Include/cmsis_gcc.h ****    return ((uint16_t) result);    /* Add explicit type cast here */
1059:Drivers/CMSIS/Include/cmsis_gcc.h **** }
1060:Drivers/CMSIS/Include/cmsis_gcc.h **** 
1061:Drivers/CMSIS/Include/cmsis_gcc.h **** 
1062:Drivers/CMSIS/Include/cmsis_gcc.h **** /**
1063:Drivers/CMSIS/Include/cmsis_gcc.h ****   \brief   LDR Exclusive (32 bit)
1064:Drivers/CMSIS/Include/cmsis_gcc.h ****   \details Executes a exclusive LDR instruction for 32 bit values.
1065:Drivers/CMSIS/Include/cmsis_gcc.h ****   \param [in]    ptr  Pointer to data
1066:Drivers/CMSIS/Include/cmsis_gcc.h ****   \return        value of type uint32_t at (*ptr)
1067:Drivers/CMSIS/Include/cmsis_gcc.h ****  */
1068:Drivers/CMSIS/Include/cmsis_gcc.h **** __STATIC_FORCEINLINE uint32_t __LDREXW(volatile uint32_t *addr)
1069:Drivers/CMSIS/Include/cmsis_gcc.h **** {
1070:Drivers/CMSIS/Include/cmsis_gcc.h ****     uint32_t result;
1071:Drivers/CMSIS/Include/cmsis_gcc.h **** 
1072:Drivers/CMSIS/Include/cmsis_gcc.h ****    __ASM volatile ("ldrex %0, %1" : "=r" (result) : "Q" (*addr) );
1073:Drivers/CMSIS/Include/cmsis_gcc.h ****    return(result);
1074:Drivers/CMSIS/Include/cmsis_gcc.h **** }
1075:Drivers/CMSIS/Include/cmsis_gcc.h **** 
1076:Drivers/CMSIS/Include/cmsis_gcc.h **** 
1077:Drivers/CMSIS/Include/cmsis_gcc.h **** /**
1078:Drivers/CMSIS/Include/cmsis_gcc.h ****   \brief   STR Exclusive (8 bit)
1079:Drivers/CMSIS/Include/cmsis_gcc.h ****   \details Executes a exclusive STR instruction for 8 bit values.
1080:Drivers/CMSIS/Include/cmsis_gcc.h ****   \param [in]  value  Value to store
1081:Drivers/CMSIS/Include/cmsis_gcc.h ****   \param [in]    ptr  Pointer to location
1082:Drivers/CMSIS/Include/cmsis_gcc.h ****   \return          0  Function succeeded
1083:Drivers/CMSIS/Include/cmsis_gcc.h ****   \return          1  Function failed
1084:Drivers/CMSIS/Include/cmsis_gcc.h ****  */
1085:Drivers/CMSIS/Include/cmsis_gcc.h **** __STATIC_FORCEINLINE uint32_t __STREXB(uint8_t value, volatile uint8_t *addr)
1086:Drivers/CMSIS/Include/cmsis_gcc.h **** {
1087:Drivers/CMSIS/Include/cmsis_gcc.h ****    uint32_t result;
ARM GAS  /var/folders/n6/c271nzx11xl4r4_m7sqjlt0m0000gn/T//ccgmP6qh.s 			page 24


1088:Drivers/CMSIS/Include/cmsis_gcc.h **** 
1089:Drivers/CMSIS/Include/cmsis_gcc.h ****    __ASM volatile ("strexb %0, %2, %1" : "=&r" (result), "=Q" (*addr) : "r" ((uint32_t)value) );
1090:Drivers/CMSIS/Include/cmsis_gcc.h ****    return(result);
1091:Drivers/CMSIS/Include/cmsis_gcc.h **** }
1092:Drivers/CMSIS/Include/cmsis_gcc.h **** 
1093:Drivers/CMSIS/Include/cmsis_gcc.h **** 
1094:Drivers/CMSIS/Include/cmsis_gcc.h **** /**
1095:Drivers/CMSIS/Include/cmsis_gcc.h ****   \brief   STR Exclusive (16 bit)
1096:Drivers/CMSIS/Include/cmsis_gcc.h ****   \details Executes a exclusive STR instruction for 16 bit values.
1097:Drivers/CMSIS/Include/cmsis_gcc.h ****   \param [in]  value  Value to store
1098:Drivers/CMSIS/Include/cmsis_gcc.h ****   \param [in]    ptr  Pointer to location
1099:Drivers/CMSIS/Include/cmsis_gcc.h ****   \return          0  Function succeeded
1100:Drivers/CMSIS/Include/cmsis_gcc.h ****   \return          1  Function failed
1101:Drivers/CMSIS/Include/cmsis_gcc.h ****  */
1102:Drivers/CMSIS/Include/cmsis_gcc.h **** __STATIC_FORCEINLINE uint32_t __STREXH(uint16_t value, volatile uint16_t *addr)
1103:Drivers/CMSIS/Include/cmsis_gcc.h **** {
1104:Drivers/CMSIS/Include/cmsis_gcc.h ****    uint32_t result;
1105:Drivers/CMSIS/Include/cmsis_gcc.h **** 
1106:Drivers/CMSIS/Include/cmsis_gcc.h ****    __ASM volatile ("strexh %0, %2, %1" : "=&r" (result), "=Q" (*addr) : "r" ((uint32_t)value) );
1107:Drivers/CMSIS/Include/cmsis_gcc.h ****    return(result);
1108:Drivers/CMSIS/Include/cmsis_gcc.h **** }
1109:Drivers/CMSIS/Include/cmsis_gcc.h **** 
1110:Drivers/CMSIS/Include/cmsis_gcc.h **** 
1111:Drivers/CMSIS/Include/cmsis_gcc.h **** /**
1112:Drivers/CMSIS/Include/cmsis_gcc.h ****   \brief   STR Exclusive (32 bit)
1113:Drivers/CMSIS/Include/cmsis_gcc.h ****   \details Executes a exclusive STR instruction for 32 bit values.
1114:Drivers/CMSIS/Include/cmsis_gcc.h ****   \param [in]  value  Value to store
1115:Drivers/CMSIS/Include/cmsis_gcc.h ****   \param [in]    ptr  Pointer to location
1116:Drivers/CMSIS/Include/cmsis_gcc.h ****   \return          0  Function succeeded
1117:Drivers/CMSIS/Include/cmsis_gcc.h ****   \return          1  Function failed
1118:Drivers/CMSIS/Include/cmsis_gcc.h ****  */
1119:Drivers/CMSIS/Include/cmsis_gcc.h **** __STATIC_FORCEINLINE uint32_t __STREXW(uint32_t value, volatile uint32_t *addr)
1120:Drivers/CMSIS/Include/cmsis_gcc.h **** {
1121:Drivers/CMSIS/Include/cmsis_gcc.h ****    uint32_t result;
1122:Drivers/CMSIS/Include/cmsis_gcc.h **** 
1123:Drivers/CMSIS/Include/cmsis_gcc.h ****    __ASM volatile ("strex %0, %2, %1" : "=&r" (result), "=Q" (*addr) : "r" (value) );
1124:Drivers/CMSIS/Include/cmsis_gcc.h ****    return(result);
1125:Drivers/CMSIS/Include/cmsis_gcc.h **** }
1126:Drivers/CMSIS/Include/cmsis_gcc.h **** 
1127:Drivers/CMSIS/Include/cmsis_gcc.h **** 
1128:Drivers/CMSIS/Include/cmsis_gcc.h **** /**
1129:Drivers/CMSIS/Include/cmsis_gcc.h ****   \brief   Remove the exclusive lock
1130:Drivers/CMSIS/Include/cmsis_gcc.h ****   \details Removes the exclusive lock which is created by LDREX.
1131:Drivers/CMSIS/Include/cmsis_gcc.h ****  */
1132:Drivers/CMSIS/Include/cmsis_gcc.h **** __STATIC_FORCEINLINE void __CLREX(void)
1133:Drivers/CMSIS/Include/cmsis_gcc.h **** {
1134:Drivers/CMSIS/Include/cmsis_gcc.h ****   __ASM volatile ("clrex" ::: "memory");
1135:Drivers/CMSIS/Include/cmsis_gcc.h **** }
1136:Drivers/CMSIS/Include/cmsis_gcc.h **** 
1137:Drivers/CMSIS/Include/cmsis_gcc.h **** #endif /* ((defined (__ARM_ARCH_7M__      ) && (__ARM_ARCH_7M__      == 1)) || \
1138:Drivers/CMSIS/Include/cmsis_gcc.h ****            (defined (__ARM_ARCH_7EM__     ) && (__ARM_ARCH_7EM__     == 1)) || \
1139:Drivers/CMSIS/Include/cmsis_gcc.h ****            (defined (__ARM_ARCH_8M_MAIN__ ) && (__ARM_ARCH_8M_MAIN__ == 1)) || \
1140:Drivers/CMSIS/Include/cmsis_gcc.h ****            (defined (__ARM_ARCH_8M_BASE__ ) && (__ARM_ARCH_8M_BASE__ == 1))    ) */
1141:Drivers/CMSIS/Include/cmsis_gcc.h **** 
1142:Drivers/CMSIS/Include/cmsis_gcc.h **** 
1143:Drivers/CMSIS/Include/cmsis_gcc.h **** #if ((defined (__ARM_ARCH_7M__      ) && (__ARM_ARCH_7M__      == 1)) || \
1144:Drivers/CMSIS/Include/cmsis_gcc.h ****      (defined (__ARM_ARCH_7EM__     ) && (__ARM_ARCH_7EM__     == 1)) || \
ARM GAS  /var/folders/n6/c271nzx11xl4r4_m7sqjlt0m0000gn/T//ccgmP6qh.s 			page 25


1145:Drivers/CMSIS/Include/cmsis_gcc.h ****      (defined (__ARM_ARCH_8M_MAIN__ ) && (__ARM_ARCH_8M_MAIN__ == 1))    )
1146:Drivers/CMSIS/Include/cmsis_gcc.h **** /**
1147:Drivers/CMSIS/Include/cmsis_gcc.h ****   \brief   Signed Saturate
1148:Drivers/CMSIS/Include/cmsis_gcc.h ****   \details Saturates a signed value.
1149:Drivers/CMSIS/Include/cmsis_gcc.h ****   \param [in]  ARG1  Value to be saturated
1150:Drivers/CMSIS/Include/cmsis_gcc.h ****   \param [in]  ARG2  Bit position to saturate to (1..32)
1151:Drivers/CMSIS/Include/cmsis_gcc.h ****   \return             Saturated value
1152:Drivers/CMSIS/Include/cmsis_gcc.h ****  */
1153:Drivers/CMSIS/Include/cmsis_gcc.h **** #define __SSAT(ARG1,ARG2) \
1154:Drivers/CMSIS/Include/cmsis_gcc.h **** __extension__ \
1155:Drivers/CMSIS/Include/cmsis_gcc.h **** ({                          \
1156:Drivers/CMSIS/Include/cmsis_gcc.h ****   int32_t __RES, __ARG1 = (ARG1); \
1157:Drivers/CMSIS/Include/cmsis_gcc.h ****   __ASM ("ssat %0, %1, %2" : "=r" (__RES) :  "I" (ARG2), "r" (__ARG1) ); \
1158:Drivers/CMSIS/Include/cmsis_gcc.h ****   __RES; \
1159:Drivers/CMSIS/Include/cmsis_gcc.h ****  })
1160:Drivers/CMSIS/Include/cmsis_gcc.h **** 
1161:Drivers/CMSIS/Include/cmsis_gcc.h **** 
1162:Drivers/CMSIS/Include/cmsis_gcc.h **** /**
1163:Drivers/CMSIS/Include/cmsis_gcc.h ****   \brief   Unsigned Saturate
1164:Drivers/CMSIS/Include/cmsis_gcc.h ****   \details Saturates an unsigned value.
1165:Drivers/CMSIS/Include/cmsis_gcc.h ****   \param [in]  ARG1  Value to be saturated
1166:Drivers/CMSIS/Include/cmsis_gcc.h ****   \param [in]  ARG2  Bit position to saturate to (0..31)
1167:Drivers/CMSIS/Include/cmsis_gcc.h ****   \return             Saturated value
1168:Drivers/CMSIS/Include/cmsis_gcc.h ****  */
1169:Drivers/CMSIS/Include/cmsis_gcc.h **** #define __USAT(ARG1,ARG2) \
1170:Drivers/CMSIS/Include/cmsis_gcc.h ****  __extension__ \
1171:Drivers/CMSIS/Include/cmsis_gcc.h **** ({                          \
1172:Drivers/CMSIS/Include/cmsis_gcc.h ****   uint32_t __RES, __ARG1 = (ARG1); \
1173:Drivers/CMSIS/Include/cmsis_gcc.h ****   __ASM ("usat %0, %1, %2" : "=r" (__RES) :  "I" (ARG2), "r" (__ARG1) ); \
1174:Drivers/CMSIS/Include/cmsis_gcc.h ****   __RES; \
1175:Drivers/CMSIS/Include/cmsis_gcc.h ****  })
1176:Drivers/CMSIS/Include/cmsis_gcc.h **** 
1177:Drivers/CMSIS/Include/cmsis_gcc.h **** 
1178:Drivers/CMSIS/Include/cmsis_gcc.h **** /**
1179:Drivers/CMSIS/Include/cmsis_gcc.h ****   \brief   Rotate Right with Extend (32 bit)
1180:Drivers/CMSIS/Include/cmsis_gcc.h ****   \details Moves each bit of a bitstring right by one bit.
1181:Drivers/CMSIS/Include/cmsis_gcc.h ****            The carry input is shifted in at the left end of the bitstring.
1182:Drivers/CMSIS/Include/cmsis_gcc.h ****   \param [in]    value  Value to rotate
1183:Drivers/CMSIS/Include/cmsis_gcc.h ****   \return               Rotated value
1184:Drivers/CMSIS/Include/cmsis_gcc.h ****  */
1185:Drivers/CMSIS/Include/cmsis_gcc.h **** __STATIC_FORCEINLINE uint32_t __RRX(uint32_t value)
1186:Drivers/CMSIS/Include/cmsis_gcc.h **** {
1187:Drivers/CMSIS/Include/cmsis_gcc.h ****   uint32_t result;
1188:Drivers/CMSIS/Include/cmsis_gcc.h **** 
1189:Drivers/CMSIS/Include/cmsis_gcc.h ****   __ASM volatile ("rrx %0, %1" : __CMSIS_GCC_OUT_REG (result) : __CMSIS_GCC_USE_REG (value) );
1190:Drivers/CMSIS/Include/cmsis_gcc.h ****   return(result);
1191:Drivers/CMSIS/Include/cmsis_gcc.h **** }
1192:Drivers/CMSIS/Include/cmsis_gcc.h **** 
1193:Drivers/CMSIS/Include/cmsis_gcc.h **** 
1194:Drivers/CMSIS/Include/cmsis_gcc.h **** /**
1195:Drivers/CMSIS/Include/cmsis_gcc.h ****   \brief   LDRT Unprivileged (8 bit)
1196:Drivers/CMSIS/Include/cmsis_gcc.h ****   \details Executes a Unprivileged LDRT instruction for 8 bit value.
1197:Drivers/CMSIS/Include/cmsis_gcc.h ****   \param [in]    ptr  Pointer to data
1198:Drivers/CMSIS/Include/cmsis_gcc.h ****   \return             value of type uint8_t at (*ptr)
1199:Drivers/CMSIS/Include/cmsis_gcc.h ****  */
1200:Drivers/CMSIS/Include/cmsis_gcc.h **** __STATIC_FORCEINLINE uint8_t __LDRBT(volatile uint8_t *ptr)
1201:Drivers/CMSIS/Include/cmsis_gcc.h **** {
ARM GAS  /var/folders/n6/c271nzx11xl4r4_m7sqjlt0m0000gn/T//ccgmP6qh.s 			page 26


1202:Drivers/CMSIS/Include/cmsis_gcc.h ****     uint32_t result;
1203:Drivers/CMSIS/Include/cmsis_gcc.h **** 
1204:Drivers/CMSIS/Include/cmsis_gcc.h **** #if (__GNUC__ > 4) || (__GNUC__ == 4 && __GNUC_MINOR__ >= 8)
1205:Drivers/CMSIS/Include/cmsis_gcc.h ****    __ASM volatile ("ldrbt %0, %1" : "=r" (result) : "Q" (*ptr) );
1206:Drivers/CMSIS/Include/cmsis_gcc.h **** #else
1207:Drivers/CMSIS/Include/cmsis_gcc.h ****     /* Prior to GCC 4.8, "Q" will be expanded to [rx, #0] which is not
1208:Drivers/CMSIS/Include/cmsis_gcc.h ****        accepted by assembler. So has to use following less efficient pattern.
1209:Drivers/CMSIS/Include/cmsis_gcc.h ****     */
1210:Drivers/CMSIS/Include/cmsis_gcc.h ****    __ASM volatile ("ldrbt %0, [%1]" : "=r" (result) : "r" (ptr) : "memory" );
1211:Drivers/CMSIS/Include/cmsis_gcc.h **** #endif
1212:Drivers/CMSIS/Include/cmsis_gcc.h ****    return ((uint8_t) result);    /* Add explicit type cast here */
1213:Drivers/CMSIS/Include/cmsis_gcc.h **** }
1214:Drivers/CMSIS/Include/cmsis_gcc.h **** 
1215:Drivers/CMSIS/Include/cmsis_gcc.h **** 
1216:Drivers/CMSIS/Include/cmsis_gcc.h **** /**
1217:Drivers/CMSIS/Include/cmsis_gcc.h ****   \brief   LDRT Unprivileged (16 bit)
1218:Drivers/CMSIS/Include/cmsis_gcc.h ****   \details Executes a Unprivileged LDRT instruction for 16 bit values.
1219:Drivers/CMSIS/Include/cmsis_gcc.h ****   \param [in]    ptr  Pointer to data
1220:Drivers/CMSIS/Include/cmsis_gcc.h ****   \return        value of type uint16_t at (*ptr)
1221:Drivers/CMSIS/Include/cmsis_gcc.h ****  */
1222:Drivers/CMSIS/Include/cmsis_gcc.h **** __STATIC_FORCEINLINE uint16_t __LDRHT(volatile uint16_t *ptr)
1223:Drivers/CMSIS/Include/cmsis_gcc.h **** {
1224:Drivers/CMSIS/Include/cmsis_gcc.h ****     uint32_t result;
1225:Drivers/CMSIS/Include/cmsis_gcc.h **** 
1226:Drivers/CMSIS/Include/cmsis_gcc.h **** #if (__GNUC__ > 4) || (__GNUC__ == 4 && __GNUC_MINOR__ >= 8)
1227:Drivers/CMSIS/Include/cmsis_gcc.h ****    __ASM volatile ("ldrht %0, %1" : "=r" (result) : "Q" (*ptr) );
1228:Drivers/CMSIS/Include/cmsis_gcc.h **** #else
1229:Drivers/CMSIS/Include/cmsis_gcc.h ****     /* Prior to GCC 4.8, "Q" will be expanded to [rx, #0] which is not
1230:Drivers/CMSIS/Include/cmsis_gcc.h ****        accepted by assembler. So has to use following less efficient pattern.
1231:Drivers/CMSIS/Include/cmsis_gcc.h ****     */
1232:Drivers/CMSIS/Include/cmsis_gcc.h ****    __ASM volatile ("ldrht %0, [%1]" : "=r" (result) : "r" (ptr) : "memory" );
1233:Drivers/CMSIS/Include/cmsis_gcc.h **** #endif
1234:Drivers/CMSIS/Include/cmsis_gcc.h ****    return ((uint16_t) result);    /* Add explicit type cast here */
1235:Drivers/CMSIS/Include/cmsis_gcc.h **** }
1236:Drivers/CMSIS/Include/cmsis_gcc.h **** 
1237:Drivers/CMSIS/Include/cmsis_gcc.h **** 
1238:Drivers/CMSIS/Include/cmsis_gcc.h **** /**
1239:Drivers/CMSIS/Include/cmsis_gcc.h ****   \brief   LDRT Unprivileged (32 bit)
1240:Drivers/CMSIS/Include/cmsis_gcc.h ****   \details Executes a Unprivileged LDRT instruction for 32 bit values.
1241:Drivers/CMSIS/Include/cmsis_gcc.h ****   \param [in]    ptr  Pointer to data
1242:Drivers/CMSIS/Include/cmsis_gcc.h ****   \return        value of type uint32_t at (*ptr)
1243:Drivers/CMSIS/Include/cmsis_gcc.h ****  */
1244:Drivers/CMSIS/Include/cmsis_gcc.h **** __STATIC_FORCEINLINE uint32_t __LDRT(volatile uint32_t *ptr)
1245:Drivers/CMSIS/Include/cmsis_gcc.h **** {
1246:Drivers/CMSIS/Include/cmsis_gcc.h ****     uint32_t result;
1247:Drivers/CMSIS/Include/cmsis_gcc.h **** 
1248:Drivers/CMSIS/Include/cmsis_gcc.h ****    __ASM volatile ("ldrt %0, %1" : "=r" (result) : "Q" (*ptr) );
1249:Drivers/CMSIS/Include/cmsis_gcc.h ****    return(result);
1250:Drivers/CMSIS/Include/cmsis_gcc.h **** }
1251:Drivers/CMSIS/Include/cmsis_gcc.h **** 
1252:Drivers/CMSIS/Include/cmsis_gcc.h **** 
1253:Drivers/CMSIS/Include/cmsis_gcc.h **** /**
1254:Drivers/CMSIS/Include/cmsis_gcc.h ****   \brief   STRT Unprivileged (8 bit)
1255:Drivers/CMSIS/Include/cmsis_gcc.h ****   \details Executes a Unprivileged STRT instruction for 8 bit values.
1256:Drivers/CMSIS/Include/cmsis_gcc.h ****   \param [in]  value  Value to store
1257:Drivers/CMSIS/Include/cmsis_gcc.h ****   \param [in]    ptr  Pointer to location
1258:Drivers/CMSIS/Include/cmsis_gcc.h ****  */
ARM GAS  /var/folders/n6/c271nzx11xl4r4_m7sqjlt0m0000gn/T//ccgmP6qh.s 			page 27


1259:Drivers/CMSIS/Include/cmsis_gcc.h **** __STATIC_FORCEINLINE void __STRBT(uint8_t value, volatile uint8_t *ptr)
1260:Drivers/CMSIS/Include/cmsis_gcc.h **** {
1261:Drivers/CMSIS/Include/cmsis_gcc.h ****    __ASM volatile ("strbt %1, %0" : "=Q" (*ptr) : "r" ((uint32_t)value) );
1262:Drivers/CMSIS/Include/cmsis_gcc.h **** }
1263:Drivers/CMSIS/Include/cmsis_gcc.h **** 
1264:Drivers/CMSIS/Include/cmsis_gcc.h **** 
1265:Drivers/CMSIS/Include/cmsis_gcc.h **** /**
1266:Drivers/CMSIS/Include/cmsis_gcc.h ****   \brief   STRT Unprivileged (16 bit)
1267:Drivers/CMSIS/Include/cmsis_gcc.h ****   \details Executes a Unprivileged STRT instruction for 16 bit values.
1268:Drivers/CMSIS/Include/cmsis_gcc.h ****   \param [in]  value  Value to store
1269:Drivers/CMSIS/Include/cmsis_gcc.h ****   \param [in]    ptr  Pointer to location
1270:Drivers/CMSIS/Include/cmsis_gcc.h ****  */
1271:Drivers/CMSIS/Include/cmsis_gcc.h **** __STATIC_FORCEINLINE void __STRHT(uint16_t value, volatile uint16_t *ptr)
1272:Drivers/CMSIS/Include/cmsis_gcc.h **** {
1273:Drivers/CMSIS/Include/cmsis_gcc.h ****    __ASM volatile ("strht %1, %0" : "=Q" (*ptr) : "r" ((uint32_t)value) );
1274:Drivers/CMSIS/Include/cmsis_gcc.h **** }
1275:Drivers/CMSIS/Include/cmsis_gcc.h **** 
1276:Drivers/CMSIS/Include/cmsis_gcc.h **** 
1277:Drivers/CMSIS/Include/cmsis_gcc.h **** /**
1278:Drivers/CMSIS/Include/cmsis_gcc.h ****   \brief   STRT Unprivileged (32 bit)
1279:Drivers/CMSIS/Include/cmsis_gcc.h ****   \details Executes a Unprivileged STRT instruction for 32 bit values.
1280:Drivers/CMSIS/Include/cmsis_gcc.h ****   \param [in]  value  Value to store
1281:Drivers/CMSIS/Include/cmsis_gcc.h ****   \param [in]    ptr  Pointer to location
1282:Drivers/CMSIS/Include/cmsis_gcc.h ****  */
1283:Drivers/CMSIS/Include/cmsis_gcc.h **** __STATIC_FORCEINLINE void __STRT(uint32_t value, volatile uint32_t *ptr)
1284:Drivers/CMSIS/Include/cmsis_gcc.h **** {
1285:Drivers/CMSIS/Include/cmsis_gcc.h ****    __ASM volatile ("strt %1, %0" : "=Q" (*ptr) : "r" (value) );
1286:Drivers/CMSIS/Include/cmsis_gcc.h **** }
1287:Drivers/CMSIS/Include/cmsis_gcc.h **** 
1288:Drivers/CMSIS/Include/cmsis_gcc.h **** #else  /* ((defined (__ARM_ARCH_7M__      ) && (__ARM_ARCH_7M__      == 1)) || \
1289:Drivers/CMSIS/Include/cmsis_gcc.h ****            (defined (__ARM_ARCH_7EM__     ) && (__ARM_ARCH_7EM__     == 1)) || \
1290:Drivers/CMSIS/Include/cmsis_gcc.h ****            (defined (__ARM_ARCH_8M_MAIN__ ) && (__ARM_ARCH_8M_MAIN__ == 1))    ) */
1291:Drivers/CMSIS/Include/cmsis_gcc.h **** 
1292:Drivers/CMSIS/Include/cmsis_gcc.h **** /**
1293:Drivers/CMSIS/Include/cmsis_gcc.h ****   \brief   Signed Saturate
1294:Drivers/CMSIS/Include/cmsis_gcc.h ****   \details Saturates a signed value.
1295:Drivers/CMSIS/Include/cmsis_gcc.h ****   \param [in]  value  Value to be saturated
1296:Drivers/CMSIS/Include/cmsis_gcc.h ****   \param [in]    sat  Bit position to saturate to (1..32)
1297:Drivers/CMSIS/Include/cmsis_gcc.h ****   \return             Saturated value
1298:Drivers/CMSIS/Include/cmsis_gcc.h ****  */
1299:Drivers/CMSIS/Include/cmsis_gcc.h **** __STATIC_FORCEINLINE int32_t __SSAT(int32_t val, uint32_t sat)
1300:Drivers/CMSIS/Include/cmsis_gcc.h **** {
1301:Drivers/CMSIS/Include/cmsis_gcc.h ****   if ((sat >= 1U) && (sat <= 32U))
1302:Drivers/CMSIS/Include/cmsis_gcc.h ****   {
1303:Drivers/CMSIS/Include/cmsis_gcc.h ****     const int32_t max = (int32_t)((1U << (sat - 1U)) - 1U);
1304:Drivers/CMSIS/Include/cmsis_gcc.h ****     const int32_t min = -1 - max ;
1305:Drivers/CMSIS/Include/cmsis_gcc.h ****     if (val > max)
1306:Drivers/CMSIS/Include/cmsis_gcc.h ****     {
1307:Drivers/CMSIS/Include/cmsis_gcc.h ****       return max;
1308:Drivers/CMSIS/Include/cmsis_gcc.h ****     }
1309:Drivers/CMSIS/Include/cmsis_gcc.h ****     else if (val < min)
1310:Drivers/CMSIS/Include/cmsis_gcc.h ****     {
1311:Drivers/CMSIS/Include/cmsis_gcc.h ****       return min;
1312:Drivers/CMSIS/Include/cmsis_gcc.h ****     }
1313:Drivers/CMSIS/Include/cmsis_gcc.h ****   }
1314:Drivers/CMSIS/Include/cmsis_gcc.h ****   return val;
1315:Drivers/CMSIS/Include/cmsis_gcc.h **** }
ARM GAS  /var/folders/n6/c271nzx11xl4r4_m7sqjlt0m0000gn/T//ccgmP6qh.s 			page 28


1316:Drivers/CMSIS/Include/cmsis_gcc.h **** 
1317:Drivers/CMSIS/Include/cmsis_gcc.h **** /**
1318:Drivers/CMSIS/Include/cmsis_gcc.h ****   \brief   Unsigned Saturate
1319:Drivers/CMSIS/Include/cmsis_gcc.h ****   \details Saturates an unsigned value.
1320:Drivers/CMSIS/Include/cmsis_gcc.h ****   \param [in]  value  Value to be saturated
1321:Drivers/CMSIS/Include/cmsis_gcc.h ****   \param [in]    sat  Bit position to saturate to (0..31)
1322:Drivers/CMSIS/Include/cmsis_gcc.h ****   \return             Saturated value
1323:Drivers/CMSIS/Include/cmsis_gcc.h ****  */
1324:Drivers/CMSIS/Include/cmsis_gcc.h **** __STATIC_FORCEINLINE uint32_t __USAT(int32_t val, uint32_t sat)
1325:Drivers/CMSIS/Include/cmsis_gcc.h **** {
1326:Drivers/CMSIS/Include/cmsis_gcc.h ****   if (sat <= 31U)
1327:Drivers/CMSIS/Include/cmsis_gcc.h ****   {
1328:Drivers/CMSIS/Include/cmsis_gcc.h ****     const uint32_t max = ((1U << sat) - 1U);
1329:Drivers/CMSIS/Include/cmsis_gcc.h ****     if (val > (int32_t)max)
1330:Drivers/CMSIS/Include/cmsis_gcc.h ****     {
1331:Drivers/CMSIS/Include/cmsis_gcc.h ****       return max;
1332:Drivers/CMSIS/Include/cmsis_gcc.h ****     }
1333:Drivers/CMSIS/Include/cmsis_gcc.h ****     else if (val < 0)
1334:Drivers/CMSIS/Include/cmsis_gcc.h ****     {
1335:Drivers/CMSIS/Include/cmsis_gcc.h ****       return 0U;
1336:Drivers/CMSIS/Include/cmsis_gcc.h ****     }
1337:Drivers/CMSIS/Include/cmsis_gcc.h ****   }
1338:Drivers/CMSIS/Include/cmsis_gcc.h ****   return (uint32_t)val;
1339:Drivers/CMSIS/Include/cmsis_gcc.h **** }
1340:Drivers/CMSIS/Include/cmsis_gcc.h **** 
1341:Drivers/CMSIS/Include/cmsis_gcc.h **** #endif /* ((defined (__ARM_ARCH_7M__      ) && (__ARM_ARCH_7M__      == 1)) || \
1342:Drivers/CMSIS/Include/cmsis_gcc.h ****            (defined (__ARM_ARCH_7EM__     ) && (__ARM_ARCH_7EM__     == 1)) || \
1343:Drivers/CMSIS/Include/cmsis_gcc.h ****            (defined (__ARM_ARCH_8M_MAIN__ ) && (__ARM_ARCH_8M_MAIN__ == 1))    ) */
1344:Drivers/CMSIS/Include/cmsis_gcc.h **** 
1345:Drivers/CMSIS/Include/cmsis_gcc.h **** 
1346:Drivers/CMSIS/Include/cmsis_gcc.h **** #if ((defined (__ARM_ARCH_8M_MAIN__ ) && (__ARM_ARCH_8M_MAIN__ == 1)) || \
1347:Drivers/CMSIS/Include/cmsis_gcc.h ****      (defined (__ARM_ARCH_8M_BASE__ ) && (__ARM_ARCH_8M_BASE__ == 1))    )
1348:Drivers/CMSIS/Include/cmsis_gcc.h **** /**
1349:Drivers/CMSIS/Include/cmsis_gcc.h ****   \brief   Load-Acquire (8 bit)
1350:Drivers/CMSIS/Include/cmsis_gcc.h ****   \details Executes a LDAB instruction for 8 bit value.
1351:Drivers/CMSIS/Include/cmsis_gcc.h ****   \param [in]    ptr  Pointer to data
1352:Drivers/CMSIS/Include/cmsis_gcc.h ****   \return             value of type uint8_t at (*ptr)
1353:Drivers/CMSIS/Include/cmsis_gcc.h ****  */
1354:Drivers/CMSIS/Include/cmsis_gcc.h **** __STATIC_FORCEINLINE uint8_t __LDAB(volatile uint8_t *ptr)
1355:Drivers/CMSIS/Include/cmsis_gcc.h **** {
1356:Drivers/CMSIS/Include/cmsis_gcc.h ****     uint32_t result;
1357:Drivers/CMSIS/Include/cmsis_gcc.h **** 
1358:Drivers/CMSIS/Include/cmsis_gcc.h ****    __ASM volatile ("ldab %0, %1" : "=r" (result) : "Q" (*ptr) );
1359:Drivers/CMSIS/Include/cmsis_gcc.h ****    return ((uint8_t) result);
1360:Drivers/CMSIS/Include/cmsis_gcc.h **** }
1361:Drivers/CMSIS/Include/cmsis_gcc.h **** 
1362:Drivers/CMSIS/Include/cmsis_gcc.h **** 
1363:Drivers/CMSIS/Include/cmsis_gcc.h **** /**
1364:Drivers/CMSIS/Include/cmsis_gcc.h ****   \brief   Load-Acquire (16 bit)
1365:Drivers/CMSIS/Include/cmsis_gcc.h ****   \details Executes a LDAH instruction for 16 bit values.
1366:Drivers/CMSIS/Include/cmsis_gcc.h ****   \param [in]    ptr  Pointer to data
1367:Drivers/CMSIS/Include/cmsis_gcc.h ****   \return        value of type uint16_t at (*ptr)
1368:Drivers/CMSIS/Include/cmsis_gcc.h ****  */
1369:Drivers/CMSIS/Include/cmsis_gcc.h **** __STATIC_FORCEINLINE uint16_t __LDAH(volatile uint16_t *ptr)
1370:Drivers/CMSIS/Include/cmsis_gcc.h **** {
1371:Drivers/CMSIS/Include/cmsis_gcc.h ****     uint32_t result;
1372:Drivers/CMSIS/Include/cmsis_gcc.h **** 
ARM GAS  /var/folders/n6/c271nzx11xl4r4_m7sqjlt0m0000gn/T//ccgmP6qh.s 			page 29


1373:Drivers/CMSIS/Include/cmsis_gcc.h ****    __ASM volatile ("ldah %0, %1" : "=r" (result) : "Q" (*ptr) );
1374:Drivers/CMSIS/Include/cmsis_gcc.h ****    return ((uint16_t) result);
1375:Drivers/CMSIS/Include/cmsis_gcc.h **** }
1376:Drivers/CMSIS/Include/cmsis_gcc.h **** 
1377:Drivers/CMSIS/Include/cmsis_gcc.h **** 
1378:Drivers/CMSIS/Include/cmsis_gcc.h **** /**
1379:Drivers/CMSIS/Include/cmsis_gcc.h ****   \brief   Load-Acquire (32 bit)
1380:Drivers/CMSIS/Include/cmsis_gcc.h ****   \details Executes a LDA instruction for 32 bit values.
1381:Drivers/CMSIS/Include/cmsis_gcc.h ****   \param [in]    ptr  Pointer to data
1382:Drivers/CMSIS/Include/cmsis_gcc.h ****   \return        value of type uint32_t at (*ptr)
1383:Drivers/CMSIS/Include/cmsis_gcc.h ****  */
1384:Drivers/CMSIS/Include/cmsis_gcc.h **** __STATIC_FORCEINLINE uint32_t __LDA(volatile uint32_t *ptr)
1385:Drivers/CMSIS/Include/cmsis_gcc.h **** {
1386:Drivers/CMSIS/Include/cmsis_gcc.h ****     uint32_t result;
1387:Drivers/CMSIS/Include/cmsis_gcc.h **** 
1388:Drivers/CMSIS/Include/cmsis_gcc.h ****    __ASM volatile ("lda %0, %1" : "=r" (result) : "Q" (*ptr) );
1389:Drivers/CMSIS/Include/cmsis_gcc.h ****    return(result);
1390:Drivers/CMSIS/Include/cmsis_gcc.h **** }
1391:Drivers/CMSIS/Include/cmsis_gcc.h **** 
1392:Drivers/CMSIS/Include/cmsis_gcc.h **** 
1393:Drivers/CMSIS/Include/cmsis_gcc.h **** /**
1394:Drivers/CMSIS/Include/cmsis_gcc.h ****   \brief   Store-Release (8 bit)
1395:Drivers/CMSIS/Include/cmsis_gcc.h ****   \details Executes a STLB instruction for 8 bit values.
1396:Drivers/CMSIS/Include/cmsis_gcc.h ****   \param [in]  value  Value to store
1397:Drivers/CMSIS/Include/cmsis_gcc.h ****   \param [in]    ptr  Pointer to location
1398:Drivers/CMSIS/Include/cmsis_gcc.h ****  */
1399:Drivers/CMSIS/Include/cmsis_gcc.h **** __STATIC_FORCEINLINE void __STLB(uint8_t value, volatile uint8_t *ptr)
1400:Drivers/CMSIS/Include/cmsis_gcc.h **** {
1401:Drivers/CMSIS/Include/cmsis_gcc.h ****    __ASM volatile ("stlb %1, %0" : "=Q" (*ptr) : "r" ((uint32_t)value) );
1402:Drivers/CMSIS/Include/cmsis_gcc.h **** }
1403:Drivers/CMSIS/Include/cmsis_gcc.h **** 
1404:Drivers/CMSIS/Include/cmsis_gcc.h **** 
1405:Drivers/CMSIS/Include/cmsis_gcc.h **** /**
1406:Drivers/CMSIS/Include/cmsis_gcc.h ****   \brief   Store-Release (16 bit)
1407:Drivers/CMSIS/Include/cmsis_gcc.h ****   \details Executes a STLH instruction for 16 bit values.
1408:Drivers/CMSIS/Include/cmsis_gcc.h ****   \param [in]  value  Value to store
1409:Drivers/CMSIS/Include/cmsis_gcc.h ****   \param [in]    ptr  Pointer to location
1410:Drivers/CMSIS/Include/cmsis_gcc.h ****  */
1411:Drivers/CMSIS/Include/cmsis_gcc.h **** __STATIC_FORCEINLINE void __STLH(uint16_t value, volatile uint16_t *ptr)
1412:Drivers/CMSIS/Include/cmsis_gcc.h **** {
1413:Drivers/CMSIS/Include/cmsis_gcc.h ****    __ASM volatile ("stlh %1, %0" : "=Q" (*ptr) : "r" ((uint32_t)value) );
1414:Drivers/CMSIS/Include/cmsis_gcc.h **** }
1415:Drivers/CMSIS/Include/cmsis_gcc.h **** 
1416:Drivers/CMSIS/Include/cmsis_gcc.h **** 
1417:Drivers/CMSIS/Include/cmsis_gcc.h **** /**
1418:Drivers/CMSIS/Include/cmsis_gcc.h ****   \brief   Store-Release (32 bit)
1419:Drivers/CMSIS/Include/cmsis_gcc.h ****   \details Executes a STL instruction for 32 bit values.
1420:Drivers/CMSIS/Include/cmsis_gcc.h ****   \param [in]  value  Value to store
1421:Drivers/CMSIS/Include/cmsis_gcc.h ****   \param [in]    ptr  Pointer to location
1422:Drivers/CMSIS/Include/cmsis_gcc.h ****  */
1423:Drivers/CMSIS/Include/cmsis_gcc.h **** __STATIC_FORCEINLINE void __STL(uint32_t value, volatile uint32_t *ptr)
1424:Drivers/CMSIS/Include/cmsis_gcc.h **** {
1425:Drivers/CMSIS/Include/cmsis_gcc.h ****    __ASM volatile ("stl %1, %0" : "=Q" (*ptr) : "r" ((uint32_t)value) );
1426:Drivers/CMSIS/Include/cmsis_gcc.h **** }
1427:Drivers/CMSIS/Include/cmsis_gcc.h **** 
1428:Drivers/CMSIS/Include/cmsis_gcc.h **** 
1429:Drivers/CMSIS/Include/cmsis_gcc.h **** /**
ARM GAS  /var/folders/n6/c271nzx11xl4r4_m7sqjlt0m0000gn/T//ccgmP6qh.s 			page 30


1430:Drivers/CMSIS/Include/cmsis_gcc.h ****   \brief   Load-Acquire Exclusive (8 bit)
1431:Drivers/CMSIS/Include/cmsis_gcc.h ****   \details Executes a LDAB exclusive instruction for 8 bit value.
1432:Drivers/CMSIS/Include/cmsis_gcc.h ****   \param [in]    ptr  Pointer to data
1433:Drivers/CMSIS/Include/cmsis_gcc.h ****   \return             value of type uint8_t at (*ptr)
1434:Drivers/CMSIS/Include/cmsis_gcc.h ****  */
1435:Drivers/CMSIS/Include/cmsis_gcc.h **** __STATIC_FORCEINLINE uint8_t __LDAEXB(volatile uint8_t *ptr)
1436:Drivers/CMSIS/Include/cmsis_gcc.h **** {
1437:Drivers/CMSIS/Include/cmsis_gcc.h ****     uint32_t result;
1438:Drivers/CMSIS/Include/cmsis_gcc.h **** 
1439:Drivers/CMSIS/Include/cmsis_gcc.h ****    __ASM volatile ("ldaexb %0, %1" : "=r" (result) : "Q" (*ptr) );
1440:Drivers/CMSIS/Include/cmsis_gcc.h ****    return ((uint8_t) result);
1441:Drivers/CMSIS/Include/cmsis_gcc.h **** }
1442:Drivers/CMSIS/Include/cmsis_gcc.h **** 
1443:Drivers/CMSIS/Include/cmsis_gcc.h **** 
1444:Drivers/CMSIS/Include/cmsis_gcc.h **** /**
1445:Drivers/CMSIS/Include/cmsis_gcc.h ****   \brief   Load-Acquire Exclusive (16 bit)
1446:Drivers/CMSIS/Include/cmsis_gcc.h ****   \details Executes a LDAH exclusive instruction for 16 bit values.
1447:Drivers/CMSIS/Include/cmsis_gcc.h ****   \param [in]    ptr  Pointer to data
1448:Drivers/CMSIS/Include/cmsis_gcc.h ****   \return        value of type uint16_t at (*ptr)
1449:Drivers/CMSIS/Include/cmsis_gcc.h ****  */
1450:Drivers/CMSIS/Include/cmsis_gcc.h **** __STATIC_FORCEINLINE uint16_t __LDAEXH(volatile uint16_t *ptr)
1451:Drivers/CMSIS/Include/cmsis_gcc.h **** {
1452:Drivers/CMSIS/Include/cmsis_gcc.h ****     uint32_t result;
1453:Drivers/CMSIS/Include/cmsis_gcc.h **** 
1454:Drivers/CMSIS/Include/cmsis_gcc.h ****    __ASM volatile ("ldaexh %0, %1" : "=r" (result) : "Q" (*ptr) );
1455:Drivers/CMSIS/Include/cmsis_gcc.h ****    return ((uint16_t) result);
1456:Drivers/CMSIS/Include/cmsis_gcc.h **** }
1457:Drivers/CMSIS/Include/cmsis_gcc.h **** 
1458:Drivers/CMSIS/Include/cmsis_gcc.h **** 
1459:Drivers/CMSIS/Include/cmsis_gcc.h **** /**
1460:Drivers/CMSIS/Include/cmsis_gcc.h ****   \brief   Load-Acquire Exclusive (32 bit)
1461:Drivers/CMSIS/Include/cmsis_gcc.h ****   \details Executes a LDA exclusive instruction for 32 bit values.
1462:Drivers/CMSIS/Include/cmsis_gcc.h ****   \param [in]    ptr  Pointer to data
1463:Drivers/CMSIS/Include/cmsis_gcc.h ****   \return        value of type uint32_t at (*ptr)
1464:Drivers/CMSIS/Include/cmsis_gcc.h ****  */
1465:Drivers/CMSIS/Include/cmsis_gcc.h **** __STATIC_FORCEINLINE uint32_t __LDAEX(volatile uint32_t *ptr)
1466:Drivers/CMSIS/Include/cmsis_gcc.h **** {
1467:Drivers/CMSIS/Include/cmsis_gcc.h ****     uint32_t result;
1468:Drivers/CMSIS/Include/cmsis_gcc.h **** 
1469:Drivers/CMSIS/Include/cmsis_gcc.h ****    __ASM volatile ("ldaex %0, %1" : "=r" (result) : "Q" (*ptr) );
1470:Drivers/CMSIS/Include/cmsis_gcc.h ****    return(result);
1471:Drivers/CMSIS/Include/cmsis_gcc.h **** }
1472:Drivers/CMSIS/Include/cmsis_gcc.h **** 
1473:Drivers/CMSIS/Include/cmsis_gcc.h **** 
1474:Drivers/CMSIS/Include/cmsis_gcc.h **** /**
1475:Drivers/CMSIS/Include/cmsis_gcc.h ****   \brief   Store-Release Exclusive (8 bit)
1476:Drivers/CMSIS/Include/cmsis_gcc.h ****   \details Executes a STLB exclusive instruction for 8 bit values.
1477:Drivers/CMSIS/Include/cmsis_gcc.h ****   \param [in]  value  Value to store
1478:Drivers/CMSIS/Include/cmsis_gcc.h ****   \param [in]    ptr  Pointer to location
1479:Drivers/CMSIS/Include/cmsis_gcc.h ****   \return          0  Function succeeded
1480:Drivers/CMSIS/Include/cmsis_gcc.h ****   \return          1  Function failed
1481:Drivers/CMSIS/Include/cmsis_gcc.h ****  */
1482:Drivers/CMSIS/Include/cmsis_gcc.h **** __STATIC_FORCEINLINE uint32_t __STLEXB(uint8_t value, volatile uint8_t *ptr)
1483:Drivers/CMSIS/Include/cmsis_gcc.h **** {
1484:Drivers/CMSIS/Include/cmsis_gcc.h ****    uint32_t result;
1485:Drivers/CMSIS/Include/cmsis_gcc.h **** 
1486:Drivers/CMSIS/Include/cmsis_gcc.h ****    __ASM volatile ("stlexb %0, %2, %1" : "=&r" (result), "=Q" (*ptr) : "r" ((uint32_t)value) );
ARM GAS  /var/folders/n6/c271nzx11xl4r4_m7sqjlt0m0000gn/T//ccgmP6qh.s 			page 31


1487:Drivers/CMSIS/Include/cmsis_gcc.h ****    return(result);
1488:Drivers/CMSIS/Include/cmsis_gcc.h **** }
1489:Drivers/CMSIS/Include/cmsis_gcc.h **** 
1490:Drivers/CMSIS/Include/cmsis_gcc.h **** 
1491:Drivers/CMSIS/Include/cmsis_gcc.h **** /**
1492:Drivers/CMSIS/Include/cmsis_gcc.h ****   \brief   Store-Release Exclusive (16 bit)
1493:Drivers/CMSIS/Include/cmsis_gcc.h ****   \details Executes a STLH exclusive instruction for 16 bit values.
1494:Drivers/CMSIS/Include/cmsis_gcc.h ****   \param [in]  value  Value to store
1495:Drivers/CMSIS/Include/cmsis_gcc.h ****   \param [in]    ptr  Pointer to location
1496:Drivers/CMSIS/Include/cmsis_gcc.h ****   \return          0  Function succeeded
1497:Drivers/CMSIS/Include/cmsis_gcc.h ****   \return          1  Function failed
1498:Drivers/CMSIS/Include/cmsis_gcc.h ****  */
1499:Drivers/CMSIS/Include/cmsis_gcc.h **** __STATIC_FORCEINLINE uint32_t __STLEXH(uint16_t value, volatile uint16_t *ptr)
1500:Drivers/CMSIS/Include/cmsis_gcc.h **** {
1501:Drivers/CMSIS/Include/cmsis_gcc.h ****    uint32_t result;
1502:Drivers/CMSIS/Include/cmsis_gcc.h **** 
1503:Drivers/CMSIS/Include/cmsis_gcc.h ****    __ASM volatile ("stlexh %0, %2, %1" : "=&r" (result), "=Q" (*ptr) : "r" ((uint32_t)value) );
1504:Drivers/CMSIS/Include/cmsis_gcc.h ****    return(result);
1505:Drivers/CMSIS/Include/cmsis_gcc.h **** }
1506:Drivers/CMSIS/Include/cmsis_gcc.h **** 
1507:Drivers/CMSIS/Include/cmsis_gcc.h **** 
1508:Drivers/CMSIS/Include/cmsis_gcc.h **** /**
1509:Drivers/CMSIS/Include/cmsis_gcc.h ****   \brief   Store-Release Exclusive (32 bit)
1510:Drivers/CMSIS/Include/cmsis_gcc.h ****   \details Executes a STL exclusive instruction for 32 bit values.
1511:Drivers/CMSIS/Include/cmsis_gcc.h ****   \param [in]  value  Value to store
1512:Drivers/CMSIS/Include/cmsis_gcc.h ****   \param [in]    ptr  Pointer to location
1513:Drivers/CMSIS/Include/cmsis_gcc.h ****   \return          0  Function succeeded
1514:Drivers/CMSIS/Include/cmsis_gcc.h ****   \return          1  Function failed
1515:Drivers/CMSIS/Include/cmsis_gcc.h ****  */
1516:Drivers/CMSIS/Include/cmsis_gcc.h **** __STATIC_FORCEINLINE uint32_t __STLEX(uint32_t value, volatile uint32_t *ptr)
1517:Drivers/CMSIS/Include/cmsis_gcc.h **** {
1518:Drivers/CMSIS/Include/cmsis_gcc.h ****    uint32_t result;
1519:Drivers/CMSIS/Include/cmsis_gcc.h **** 
1520:Drivers/CMSIS/Include/cmsis_gcc.h ****    __ASM volatile ("stlex %0, %2, %1" : "=&r" (result), "=Q" (*ptr) : "r" ((uint32_t)value) );
1521:Drivers/CMSIS/Include/cmsis_gcc.h ****    return(result);
1522:Drivers/CMSIS/Include/cmsis_gcc.h **** }
1523:Drivers/CMSIS/Include/cmsis_gcc.h **** 
1524:Drivers/CMSIS/Include/cmsis_gcc.h **** #endif /* ((defined (__ARM_ARCH_8M_MAIN__ ) && (__ARM_ARCH_8M_MAIN__ == 1)) || \
1525:Drivers/CMSIS/Include/cmsis_gcc.h ****            (defined (__ARM_ARCH_8M_BASE__ ) && (__ARM_ARCH_8M_BASE__ == 1))    ) */
1526:Drivers/CMSIS/Include/cmsis_gcc.h **** 
1527:Drivers/CMSIS/Include/cmsis_gcc.h **** /*@}*/ /* end of group CMSIS_Core_InstructionInterface */
1528:Drivers/CMSIS/Include/cmsis_gcc.h **** 
1529:Drivers/CMSIS/Include/cmsis_gcc.h **** 
1530:Drivers/CMSIS/Include/cmsis_gcc.h **** /* ###################  Compiler specific Intrinsics  ########################### */
1531:Drivers/CMSIS/Include/cmsis_gcc.h **** /** \defgroup CMSIS_SIMD_intrinsics CMSIS SIMD Intrinsics
1532:Drivers/CMSIS/Include/cmsis_gcc.h ****   Access to dedicated SIMD instructions
1533:Drivers/CMSIS/Include/cmsis_gcc.h ****   @{
1534:Drivers/CMSIS/Include/cmsis_gcc.h **** */
1535:Drivers/CMSIS/Include/cmsis_gcc.h **** 
1536:Drivers/CMSIS/Include/cmsis_gcc.h **** #if (defined (__ARM_FEATURE_DSP) && (__ARM_FEATURE_DSP == 1))
1537:Drivers/CMSIS/Include/cmsis_gcc.h **** 
1538:Drivers/CMSIS/Include/cmsis_gcc.h **** __STATIC_FORCEINLINE uint32_t __SADD8(uint32_t op1, uint32_t op2)
1539:Drivers/CMSIS/Include/cmsis_gcc.h **** {
1540:Drivers/CMSIS/Include/cmsis_gcc.h ****   uint32_t result;
1541:Drivers/CMSIS/Include/cmsis_gcc.h **** 
1542:Drivers/CMSIS/Include/cmsis_gcc.h ****   __ASM volatile ("sadd8 %0, %1, %2" : "=r" (result) : "r" (op1), "r" (op2) );
1543:Drivers/CMSIS/Include/cmsis_gcc.h ****   return(result);
ARM GAS  /var/folders/n6/c271nzx11xl4r4_m7sqjlt0m0000gn/T//ccgmP6qh.s 			page 32


1544:Drivers/CMSIS/Include/cmsis_gcc.h **** }
1545:Drivers/CMSIS/Include/cmsis_gcc.h **** 
1546:Drivers/CMSIS/Include/cmsis_gcc.h **** __STATIC_FORCEINLINE uint32_t __QADD8(uint32_t op1, uint32_t op2)
1547:Drivers/CMSIS/Include/cmsis_gcc.h **** {
1548:Drivers/CMSIS/Include/cmsis_gcc.h ****   uint32_t result;
1549:Drivers/CMSIS/Include/cmsis_gcc.h **** 
1550:Drivers/CMSIS/Include/cmsis_gcc.h ****   __ASM volatile ("qadd8 %0, %1, %2" : "=r" (result) : "r" (op1), "r" (op2) );
1551:Drivers/CMSIS/Include/cmsis_gcc.h ****   return(result);
1552:Drivers/CMSIS/Include/cmsis_gcc.h **** }
1553:Drivers/CMSIS/Include/cmsis_gcc.h **** 
1554:Drivers/CMSIS/Include/cmsis_gcc.h **** __STATIC_FORCEINLINE uint32_t __SHADD8(uint32_t op1, uint32_t op2)
1555:Drivers/CMSIS/Include/cmsis_gcc.h **** {
1556:Drivers/CMSIS/Include/cmsis_gcc.h ****   uint32_t result;
1557:Drivers/CMSIS/Include/cmsis_gcc.h **** 
1558:Drivers/CMSIS/Include/cmsis_gcc.h ****   __ASM volatile ("shadd8 %0, %1, %2" : "=r" (result) : "r" (op1), "r" (op2) );
1559:Drivers/CMSIS/Include/cmsis_gcc.h ****   return(result);
1560:Drivers/CMSIS/Include/cmsis_gcc.h **** }
1561:Drivers/CMSIS/Include/cmsis_gcc.h **** 
1562:Drivers/CMSIS/Include/cmsis_gcc.h **** __STATIC_FORCEINLINE uint32_t __UADD8(uint32_t op1, uint32_t op2)
1563:Drivers/CMSIS/Include/cmsis_gcc.h **** {
1564:Drivers/CMSIS/Include/cmsis_gcc.h ****   uint32_t result;
1565:Drivers/CMSIS/Include/cmsis_gcc.h **** 
1566:Drivers/CMSIS/Include/cmsis_gcc.h ****   __ASM volatile ("uadd8 %0, %1, %2" : "=r" (result) : "r" (op1), "r" (op2) );
1567:Drivers/CMSIS/Include/cmsis_gcc.h ****   return(result);
1568:Drivers/CMSIS/Include/cmsis_gcc.h **** }
1569:Drivers/CMSIS/Include/cmsis_gcc.h **** 
1570:Drivers/CMSIS/Include/cmsis_gcc.h **** __STATIC_FORCEINLINE uint32_t __UQADD8(uint32_t op1, uint32_t op2)
1571:Drivers/CMSIS/Include/cmsis_gcc.h **** {
1572:Drivers/CMSIS/Include/cmsis_gcc.h ****   uint32_t result;
1573:Drivers/CMSIS/Include/cmsis_gcc.h **** 
1574:Drivers/CMSIS/Include/cmsis_gcc.h ****   __ASM volatile ("uqadd8 %0, %1, %2" : "=r" (result) : "r" (op1), "r" (op2) );
1575:Drivers/CMSIS/Include/cmsis_gcc.h ****   return(result);
1576:Drivers/CMSIS/Include/cmsis_gcc.h **** }
1577:Drivers/CMSIS/Include/cmsis_gcc.h **** 
1578:Drivers/CMSIS/Include/cmsis_gcc.h **** __STATIC_FORCEINLINE uint32_t __UHADD8(uint32_t op1, uint32_t op2)
1579:Drivers/CMSIS/Include/cmsis_gcc.h **** {
1580:Drivers/CMSIS/Include/cmsis_gcc.h ****   uint32_t result;
1581:Drivers/CMSIS/Include/cmsis_gcc.h **** 
1582:Drivers/CMSIS/Include/cmsis_gcc.h ****   __ASM volatile ("uhadd8 %0, %1, %2" : "=r" (result) : "r" (op1), "r" (op2) );
1583:Drivers/CMSIS/Include/cmsis_gcc.h ****   return(result);
1584:Drivers/CMSIS/Include/cmsis_gcc.h **** }
1585:Drivers/CMSIS/Include/cmsis_gcc.h **** 
1586:Drivers/CMSIS/Include/cmsis_gcc.h **** 
1587:Drivers/CMSIS/Include/cmsis_gcc.h **** __STATIC_FORCEINLINE uint32_t __SSUB8(uint32_t op1, uint32_t op2)
1588:Drivers/CMSIS/Include/cmsis_gcc.h **** {
1589:Drivers/CMSIS/Include/cmsis_gcc.h ****   uint32_t result;
1590:Drivers/CMSIS/Include/cmsis_gcc.h **** 
1591:Drivers/CMSIS/Include/cmsis_gcc.h ****   __ASM volatile ("ssub8 %0, %1, %2" : "=r" (result) : "r" (op1), "r" (op2) );
1592:Drivers/CMSIS/Include/cmsis_gcc.h ****   return(result);
1593:Drivers/CMSIS/Include/cmsis_gcc.h **** }
1594:Drivers/CMSIS/Include/cmsis_gcc.h **** 
1595:Drivers/CMSIS/Include/cmsis_gcc.h **** __STATIC_FORCEINLINE uint32_t __QSUB8(uint32_t op1, uint32_t op2)
1596:Drivers/CMSIS/Include/cmsis_gcc.h **** {
1597:Drivers/CMSIS/Include/cmsis_gcc.h ****   uint32_t result;
1598:Drivers/CMSIS/Include/cmsis_gcc.h **** 
1599:Drivers/CMSIS/Include/cmsis_gcc.h ****   __ASM volatile ("qsub8 %0, %1, %2" : "=r" (result) : "r" (op1), "r" (op2) );
1600:Drivers/CMSIS/Include/cmsis_gcc.h ****   return(result);
ARM GAS  /var/folders/n6/c271nzx11xl4r4_m7sqjlt0m0000gn/T//ccgmP6qh.s 			page 33


1601:Drivers/CMSIS/Include/cmsis_gcc.h **** }
1602:Drivers/CMSIS/Include/cmsis_gcc.h **** 
1603:Drivers/CMSIS/Include/cmsis_gcc.h **** __STATIC_FORCEINLINE uint32_t __SHSUB8(uint32_t op1, uint32_t op2)
1604:Drivers/CMSIS/Include/cmsis_gcc.h **** {
1605:Drivers/CMSIS/Include/cmsis_gcc.h ****   uint32_t result;
1606:Drivers/CMSIS/Include/cmsis_gcc.h **** 
1607:Drivers/CMSIS/Include/cmsis_gcc.h ****   __ASM volatile ("shsub8 %0, %1, %2" : "=r" (result) : "r" (op1), "r" (op2) );
1608:Drivers/CMSIS/Include/cmsis_gcc.h ****   return(result);
1609:Drivers/CMSIS/Include/cmsis_gcc.h **** }
1610:Drivers/CMSIS/Include/cmsis_gcc.h **** 
1611:Drivers/CMSIS/Include/cmsis_gcc.h **** __STATIC_FORCEINLINE uint32_t __USUB8(uint32_t op1, uint32_t op2)
1612:Drivers/CMSIS/Include/cmsis_gcc.h **** {
1613:Drivers/CMSIS/Include/cmsis_gcc.h ****   uint32_t result;
1614:Drivers/CMSIS/Include/cmsis_gcc.h **** 
1615:Drivers/CMSIS/Include/cmsis_gcc.h ****   __ASM volatile ("usub8 %0, %1, %2" : "=r" (result) : "r" (op1), "r" (op2) );
1616:Drivers/CMSIS/Include/cmsis_gcc.h ****   return(result);
1617:Drivers/CMSIS/Include/cmsis_gcc.h **** }
1618:Drivers/CMSIS/Include/cmsis_gcc.h **** 
1619:Drivers/CMSIS/Include/cmsis_gcc.h **** __STATIC_FORCEINLINE uint32_t __UQSUB8(uint32_t op1, uint32_t op2)
1620:Drivers/CMSIS/Include/cmsis_gcc.h **** {
1621:Drivers/CMSIS/Include/cmsis_gcc.h ****   uint32_t result;
1622:Drivers/CMSIS/Include/cmsis_gcc.h **** 
1623:Drivers/CMSIS/Include/cmsis_gcc.h ****   __ASM volatile ("uqsub8 %0, %1, %2" : "=r" (result) : "r" (op1), "r" (op2) );
1624:Drivers/CMSIS/Include/cmsis_gcc.h ****   return(result);
1625:Drivers/CMSIS/Include/cmsis_gcc.h **** }
1626:Drivers/CMSIS/Include/cmsis_gcc.h **** 
1627:Drivers/CMSIS/Include/cmsis_gcc.h **** __STATIC_FORCEINLINE uint32_t __UHSUB8(uint32_t op1, uint32_t op2)
1628:Drivers/CMSIS/Include/cmsis_gcc.h **** {
1629:Drivers/CMSIS/Include/cmsis_gcc.h ****   uint32_t result;
1630:Drivers/CMSIS/Include/cmsis_gcc.h **** 
1631:Drivers/CMSIS/Include/cmsis_gcc.h ****   __ASM volatile ("uhsub8 %0, %1, %2" : "=r" (result) : "r" (op1), "r" (op2) );
1632:Drivers/CMSIS/Include/cmsis_gcc.h ****   return(result);
1633:Drivers/CMSIS/Include/cmsis_gcc.h **** }
1634:Drivers/CMSIS/Include/cmsis_gcc.h **** 
1635:Drivers/CMSIS/Include/cmsis_gcc.h **** 
1636:Drivers/CMSIS/Include/cmsis_gcc.h **** __STATIC_FORCEINLINE uint32_t __SADD16(uint32_t op1, uint32_t op2)
1637:Drivers/CMSIS/Include/cmsis_gcc.h **** {
1638:Drivers/CMSIS/Include/cmsis_gcc.h ****   uint32_t result;
1639:Drivers/CMSIS/Include/cmsis_gcc.h **** 
1640:Drivers/CMSIS/Include/cmsis_gcc.h ****   __ASM volatile ("sadd16 %0, %1, %2" : "=r" (result) : "r" (op1), "r" (op2) );
1641:Drivers/CMSIS/Include/cmsis_gcc.h ****   return(result);
1642:Drivers/CMSIS/Include/cmsis_gcc.h **** }
1643:Drivers/CMSIS/Include/cmsis_gcc.h **** 
1644:Drivers/CMSIS/Include/cmsis_gcc.h **** __STATIC_FORCEINLINE uint32_t __QADD16(uint32_t op1, uint32_t op2)
1645:Drivers/CMSIS/Include/cmsis_gcc.h **** {
1646:Drivers/CMSIS/Include/cmsis_gcc.h ****   uint32_t result;
1647:Drivers/CMSIS/Include/cmsis_gcc.h **** 
1648:Drivers/CMSIS/Include/cmsis_gcc.h ****   __ASM volatile ("qadd16 %0, %1, %2" : "=r" (result) : "r" (op1), "r" (op2) );
1649:Drivers/CMSIS/Include/cmsis_gcc.h ****   return(result);
1650:Drivers/CMSIS/Include/cmsis_gcc.h **** }
1651:Drivers/CMSIS/Include/cmsis_gcc.h **** 
1652:Drivers/CMSIS/Include/cmsis_gcc.h **** __STATIC_FORCEINLINE uint32_t __SHADD16(uint32_t op1, uint32_t op2)
1653:Drivers/CMSIS/Include/cmsis_gcc.h **** {
1654:Drivers/CMSIS/Include/cmsis_gcc.h ****   uint32_t result;
1655:Drivers/CMSIS/Include/cmsis_gcc.h **** 
1656:Drivers/CMSIS/Include/cmsis_gcc.h ****   __ASM volatile ("shadd16 %0, %1, %2" : "=r" (result) : "r" (op1), "r" (op2) );
1657:Drivers/CMSIS/Include/cmsis_gcc.h ****   return(result);
ARM GAS  /var/folders/n6/c271nzx11xl4r4_m7sqjlt0m0000gn/T//ccgmP6qh.s 			page 34


1658:Drivers/CMSIS/Include/cmsis_gcc.h **** }
1659:Drivers/CMSIS/Include/cmsis_gcc.h **** 
1660:Drivers/CMSIS/Include/cmsis_gcc.h **** __STATIC_FORCEINLINE uint32_t __UADD16(uint32_t op1, uint32_t op2)
1661:Drivers/CMSIS/Include/cmsis_gcc.h **** {
1662:Drivers/CMSIS/Include/cmsis_gcc.h ****   uint32_t result;
1663:Drivers/CMSIS/Include/cmsis_gcc.h **** 
1664:Drivers/CMSIS/Include/cmsis_gcc.h ****   __ASM volatile ("uadd16 %0, %1, %2" : "=r" (result) : "r" (op1), "r" (op2) );
1665:Drivers/CMSIS/Include/cmsis_gcc.h ****   return(result);
1666:Drivers/CMSIS/Include/cmsis_gcc.h **** }
1667:Drivers/CMSIS/Include/cmsis_gcc.h **** 
1668:Drivers/CMSIS/Include/cmsis_gcc.h **** __STATIC_FORCEINLINE uint32_t __UQADD16(uint32_t op1, uint32_t op2)
1669:Drivers/CMSIS/Include/cmsis_gcc.h **** {
1670:Drivers/CMSIS/Include/cmsis_gcc.h ****   uint32_t result;
1671:Drivers/CMSIS/Include/cmsis_gcc.h **** 
1672:Drivers/CMSIS/Include/cmsis_gcc.h ****   __ASM volatile ("uqadd16 %0, %1, %2" : "=r" (result) : "r" (op1), "r" (op2) );
1673:Drivers/CMSIS/Include/cmsis_gcc.h ****   return(result);
1674:Drivers/CMSIS/Include/cmsis_gcc.h **** }
1675:Drivers/CMSIS/Include/cmsis_gcc.h **** 
1676:Drivers/CMSIS/Include/cmsis_gcc.h **** __STATIC_FORCEINLINE uint32_t __UHADD16(uint32_t op1, uint32_t op2)
1677:Drivers/CMSIS/Include/cmsis_gcc.h **** {
1678:Drivers/CMSIS/Include/cmsis_gcc.h ****   uint32_t result;
1679:Drivers/CMSIS/Include/cmsis_gcc.h **** 
1680:Drivers/CMSIS/Include/cmsis_gcc.h ****   __ASM volatile ("uhadd16 %0, %1, %2" : "=r" (result) : "r" (op1), "r" (op2) );
1681:Drivers/CMSIS/Include/cmsis_gcc.h ****   return(result);
1682:Drivers/CMSIS/Include/cmsis_gcc.h **** }
1683:Drivers/CMSIS/Include/cmsis_gcc.h **** 
1684:Drivers/CMSIS/Include/cmsis_gcc.h **** __STATIC_FORCEINLINE uint32_t __SSUB16(uint32_t op1, uint32_t op2)
1685:Drivers/CMSIS/Include/cmsis_gcc.h **** {
1686:Drivers/CMSIS/Include/cmsis_gcc.h ****   uint32_t result;
1687:Drivers/CMSIS/Include/cmsis_gcc.h **** 
1688:Drivers/CMSIS/Include/cmsis_gcc.h ****   __ASM volatile ("ssub16 %0, %1, %2" : "=r" (result) : "r" (op1), "r" (op2) );
1689:Drivers/CMSIS/Include/cmsis_gcc.h ****   return(result);
1690:Drivers/CMSIS/Include/cmsis_gcc.h **** }
1691:Drivers/CMSIS/Include/cmsis_gcc.h **** 
1692:Drivers/CMSIS/Include/cmsis_gcc.h **** __STATIC_FORCEINLINE uint32_t __QSUB16(uint32_t op1, uint32_t op2)
1693:Drivers/CMSIS/Include/cmsis_gcc.h **** {
1694:Drivers/CMSIS/Include/cmsis_gcc.h ****   uint32_t result;
1695:Drivers/CMSIS/Include/cmsis_gcc.h **** 
1696:Drivers/CMSIS/Include/cmsis_gcc.h ****   __ASM volatile ("qsub16 %0, %1, %2" : "=r" (result) : "r" (op1), "r" (op2) );
1697:Drivers/CMSIS/Include/cmsis_gcc.h ****   return(result);
1698:Drivers/CMSIS/Include/cmsis_gcc.h **** }
1699:Drivers/CMSIS/Include/cmsis_gcc.h **** 
1700:Drivers/CMSIS/Include/cmsis_gcc.h **** __STATIC_FORCEINLINE uint32_t __SHSUB16(uint32_t op1, uint32_t op2)
1701:Drivers/CMSIS/Include/cmsis_gcc.h **** {
1702:Drivers/CMSIS/Include/cmsis_gcc.h ****   uint32_t result;
1703:Drivers/CMSIS/Include/cmsis_gcc.h **** 
1704:Drivers/CMSIS/Include/cmsis_gcc.h ****   __ASM volatile ("shsub16 %0, %1, %2" : "=r" (result) : "r" (op1), "r" (op2) );
1705:Drivers/CMSIS/Include/cmsis_gcc.h ****   return(result);
1706:Drivers/CMSIS/Include/cmsis_gcc.h **** }
1707:Drivers/CMSIS/Include/cmsis_gcc.h **** 
1708:Drivers/CMSIS/Include/cmsis_gcc.h **** __STATIC_FORCEINLINE uint32_t __USUB16(uint32_t op1, uint32_t op2)
1709:Drivers/CMSIS/Include/cmsis_gcc.h **** {
1710:Drivers/CMSIS/Include/cmsis_gcc.h ****   uint32_t result;
1711:Drivers/CMSIS/Include/cmsis_gcc.h **** 
1712:Drivers/CMSIS/Include/cmsis_gcc.h ****   __ASM volatile ("usub16 %0, %1, %2" : "=r" (result) : "r" (op1), "r" (op2) );
1713:Drivers/CMSIS/Include/cmsis_gcc.h ****   return(result);
1714:Drivers/CMSIS/Include/cmsis_gcc.h **** }
ARM GAS  /var/folders/n6/c271nzx11xl4r4_m7sqjlt0m0000gn/T//ccgmP6qh.s 			page 35


1715:Drivers/CMSIS/Include/cmsis_gcc.h **** 
1716:Drivers/CMSIS/Include/cmsis_gcc.h **** __STATIC_FORCEINLINE uint32_t __UQSUB16(uint32_t op1, uint32_t op2)
1717:Drivers/CMSIS/Include/cmsis_gcc.h **** {
1718:Drivers/CMSIS/Include/cmsis_gcc.h ****   uint32_t result;
1719:Drivers/CMSIS/Include/cmsis_gcc.h **** 
1720:Drivers/CMSIS/Include/cmsis_gcc.h ****   __ASM volatile ("uqsub16 %0, %1, %2" : "=r" (result) : "r" (op1), "r" (op2) );
1721:Drivers/CMSIS/Include/cmsis_gcc.h ****   return(result);
1722:Drivers/CMSIS/Include/cmsis_gcc.h **** }
1723:Drivers/CMSIS/Include/cmsis_gcc.h **** 
1724:Drivers/CMSIS/Include/cmsis_gcc.h **** __STATIC_FORCEINLINE uint32_t __UHSUB16(uint32_t op1, uint32_t op2)
1725:Drivers/CMSIS/Include/cmsis_gcc.h **** {
1726:Drivers/CMSIS/Include/cmsis_gcc.h ****   uint32_t result;
1727:Drivers/CMSIS/Include/cmsis_gcc.h **** 
1728:Drivers/CMSIS/Include/cmsis_gcc.h ****   __ASM volatile ("uhsub16 %0, %1, %2" : "=r" (result) : "r" (op1), "r" (op2) );
1729:Drivers/CMSIS/Include/cmsis_gcc.h ****   return(result);
1730:Drivers/CMSIS/Include/cmsis_gcc.h **** }
1731:Drivers/CMSIS/Include/cmsis_gcc.h **** 
1732:Drivers/CMSIS/Include/cmsis_gcc.h **** __STATIC_FORCEINLINE uint32_t __SASX(uint32_t op1, uint32_t op2)
1733:Drivers/CMSIS/Include/cmsis_gcc.h **** {
1734:Drivers/CMSIS/Include/cmsis_gcc.h ****   uint32_t result;
1735:Drivers/CMSIS/Include/cmsis_gcc.h **** 
1736:Drivers/CMSIS/Include/cmsis_gcc.h ****   __ASM volatile ("sasx %0, %1, %2" : "=r" (result) : "r" (op1), "r" (op2) );
1737:Drivers/CMSIS/Include/cmsis_gcc.h ****   return(result);
1738:Drivers/CMSIS/Include/cmsis_gcc.h **** }
1739:Drivers/CMSIS/Include/cmsis_gcc.h **** 
1740:Drivers/CMSIS/Include/cmsis_gcc.h **** __STATIC_FORCEINLINE uint32_t __QASX(uint32_t op1, uint32_t op2)
1741:Drivers/CMSIS/Include/cmsis_gcc.h **** {
1742:Drivers/CMSIS/Include/cmsis_gcc.h ****   uint32_t result;
1743:Drivers/CMSIS/Include/cmsis_gcc.h **** 
1744:Drivers/CMSIS/Include/cmsis_gcc.h ****   __ASM volatile ("qasx %0, %1, %2" : "=r" (result) : "r" (op1), "r" (op2) );
1745:Drivers/CMSIS/Include/cmsis_gcc.h ****   return(result);
1746:Drivers/CMSIS/Include/cmsis_gcc.h **** }
1747:Drivers/CMSIS/Include/cmsis_gcc.h **** 
1748:Drivers/CMSIS/Include/cmsis_gcc.h **** __STATIC_FORCEINLINE uint32_t __SHASX(uint32_t op1, uint32_t op2)
1749:Drivers/CMSIS/Include/cmsis_gcc.h **** {
1750:Drivers/CMSIS/Include/cmsis_gcc.h ****   uint32_t result;
1751:Drivers/CMSIS/Include/cmsis_gcc.h **** 
1752:Drivers/CMSIS/Include/cmsis_gcc.h ****   __ASM volatile ("shasx %0, %1, %2" : "=r" (result) : "r" (op1), "r" (op2) );
1753:Drivers/CMSIS/Include/cmsis_gcc.h ****   return(result);
1754:Drivers/CMSIS/Include/cmsis_gcc.h **** }
1755:Drivers/CMSIS/Include/cmsis_gcc.h **** 
1756:Drivers/CMSIS/Include/cmsis_gcc.h **** __STATIC_FORCEINLINE uint32_t __UASX(uint32_t op1, uint32_t op2)
1757:Drivers/CMSIS/Include/cmsis_gcc.h **** {
1758:Drivers/CMSIS/Include/cmsis_gcc.h ****   uint32_t result;
1759:Drivers/CMSIS/Include/cmsis_gcc.h **** 
1760:Drivers/CMSIS/Include/cmsis_gcc.h ****   __ASM volatile ("uasx %0, %1, %2" : "=r" (result) : "r" (op1), "r" (op2) );
1761:Drivers/CMSIS/Include/cmsis_gcc.h ****   return(result);
1762:Drivers/CMSIS/Include/cmsis_gcc.h **** }
1763:Drivers/CMSIS/Include/cmsis_gcc.h **** 
1764:Drivers/CMSIS/Include/cmsis_gcc.h **** __STATIC_FORCEINLINE uint32_t __UQASX(uint32_t op1, uint32_t op2)
1765:Drivers/CMSIS/Include/cmsis_gcc.h **** {
1766:Drivers/CMSIS/Include/cmsis_gcc.h ****   uint32_t result;
1767:Drivers/CMSIS/Include/cmsis_gcc.h **** 
1768:Drivers/CMSIS/Include/cmsis_gcc.h ****   __ASM volatile ("uqasx %0, %1, %2" : "=r" (result) : "r" (op1), "r" (op2) );
1769:Drivers/CMSIS/Include/cmsis_gcc.h ****   return(result);
1770:Drivers/CMSIS/Include/cmsis_gcc.h **** }
1771:Drivers/CMSIS/Include/cmsis_gcc.h **** 
ARM GAS  /var/folders/n6/c271nzx11xl4r4_m7sqjlt0m0000gn/T//ccgmP6qh.s 			page 36


1772:Drivers/CMSIS/Include/cmsis_gcc.h **** __STATIC_FORCEINLINE uint32_t __UHASX(uint32_t op1, uint32_t op2)
1773:Drivers/CMSIS/Include/cmsis_gcc.h **** {
1774:Drivers/CMSIS/Include/cmsis_gcc.h ****   uint32_t result;
1775:Drivers/CMSIS/Include/cmsis_gcc.h **** 
1776:Drivers/CMSIS/Include/cmsis_gcc.h ****   __ASM volatile ("uhasx %0, %1, %2" : "=r" (result) : "r" (op1), "r" (op2) );
1777:Drivers/CMSIS/Include/cmsis_gcc.h ****   return(result);
1778:Drivers/CMSIS/Include/cmsis_gcc.h **** }
1779:Drivers/CMSIS/Include/cmsis_gcc.h **** 
1780:Drivers/CMSIS/Include/cmsis_gcc.h **** __STATIC_FORCEINLINE uint32_t __SSAX(uint32_t op1, uint32_t op2)
1781:Drivers/CMSIS/Include/cmsis_gcc.h **** {
1782:Drivers/CMSIS/Include/cmsis_gcc.h ****   uint32_t result;
1783:Drivers/CMSIS/Include/cmsis_gcc.h **** 
1784:Drivers/CMSIS/Include/cmsis_gcc.h ****   __ASM volatile ("ssax %0, %1, %2" : "=r" (result) : "r" (op1), "r" (op2) );
1785:Drivers/CMSIS/Include/cmsis_gcc.h ****   return(result);
1786:Drivers/CMSIS/Include/cmsis_gcc.h **** }
1787:Drivers/CMSIS/Include/cmsis_gcc.h **** 
1788:Drivers/CMSIS/Include/cmsis_gcc.h **** __STATIC_FORCEINLINE uint32_t __QSAX(uint32_t op1, uint32_t op2)
1789:Drivers/CMSIS/Include/cmsis_gcc.h **** {
1790:Drivers/CMSIS/Include/cmsis_gcc.h ****   uint32_t result;
1791:Drivers/CMSIS/Include/cmsis_gcc.h **** 
1792:Drivers/CMSIS/Include/cmsis_gcc.h ****   __ASM volatile ("qsax %0, %1, %2" : "=r" (result) : "r" (op1), "r" (op2) );
1793:Drivers/CMSIS/Include/cmsis_gcc.h ****   return(result);
1794:Drivers/CMSIS/Include/cmsis_gcc.h **** }
1795:Drivers/CMSIS/Include/cmsis_gcc.h **** 
1796:Drivers/CMSIS/Include/cmsis_gcc.h **** __STATIC_FORCEINLINE uint32_t __SHSAX(uint32_t op1, uint32_t op2)
1797:Drivers/CMSIS/Include/cmsis_gcc.h **** {
1798:Drivers/CMSIS/Include/cmsis_gcc.h ****   uint32_t result;
1799:Drivers/CMSIS/Include/cmsis_gcc.h **** 
1800:Drivers/CMSIS/Include/cmsis_gcc.h ****   __ASM volatile ("shsax %0, %1, %2" : "=r" (result) : "r" (op1), "r" (op2) );
1801:Drivers/CMSIS/Include/cmsis_gcc.h ****   return(result);
1802:Drivers/CMSIS/Include/cmsis_gcc.h **** }
1803:Drivers/CMSIS/Include/cmsis_gcc.h **** 
1804:Drivers/CMSIS/Include/cmsis_gcc.h **** __STATIC_FORCEINLINE uint32_t __USAX(uint32_t op1, uint32_t op2)
1805:Drivers/CMSIS/Include/cmsis_gcc.h **** {
1806:Drivers/CMSIS/Include/cmsis_gcc.h ****   uint32_t result;
1807:Drivers/CMSIS/Include/cmsis_gcc.h **** 
1808:Drivers/CMSIS/Include/cmsis_gcc.h ****   __ASM volatile ("usax %0, %1, %2" : "=r" (result) : "r" (op1), "r" (op2) );
1809:Drivers/CMSIS/Include/cmsis_gcc.h ****   return(result);
1810:Drivers/CMSIS/Include/cmsis_gcc.h **** }
1811:Drivers/CMSIS/Include/cmsis_gcc.h **** 
1812:Drivers/CMSIS/Include/cmsis_gcc.h **** __STATIC_FORCEINLINE uint32_t __UQSAX(uint32_t op1, uint32_t op2)
1813:Drivers/CMSIS/Include/cmsis_gcc.h **** {
1814:Drivers/CMSIS/Include/cmsis_gcc.h ****   uint32_t result;
1815:Drivers/CMSIS/Include/cmsis_gcc.h **** 
1816:Drivers/CMSIS/Include/cmsis_gcc.h ****   __ASM volatile ("uqsax %0, %1, %2" : "=r" (result) : "r" (op1), "r" (op2) );
1817:Drivers/CMSIS/Include/cmsis_gcc.h ****   return(result);
1818:Drivers/CMSIS/Include/cmsis_gcc.h **** }
1819:Drivers/CMSIS/Include/cmsis_gcc.h **** 
1820:Drivers/CMSIS/Include/cmsis_gcc.h **** __STATIC_FORCEINLINE uint32_t __UHSAX(uint32_t op1, uint32_t op2)
1821:Drivers/CMSIS/Include/cmsis_gcc.h **** {
1822:Drivers/CMSIS/Include/cmsis_gcc.h ****   uint32_t result;
1823:Drivers/CMSIS/Include/cmsis_gcc.h **** 
1824:Drivers/CMSIS/Include/cmsis_gcc.h ****   __ASM volatile ("uhsax %0, %1, %2" : "=r" (result) : "r" (op1), "r" (op2) );
1825:Drivers/CMSIS/Include/cmsis_gcc.h ****   return(result);
1826:Drivers/CMSIS/Include/cmsis_gcc.h **** }
1827:Drivers/CMSIS/Include/cmsis_gcc.h **** 
1828:Drivers/CMSIS/Include/cmsis_gcc.h **** __STATIC_FORCEINLINE uint32_t __USAD8(uint32_t op1, uint32_t op2)
ARM GAS  /var/folders/n6/c271nzx11xl4r4_m7sqjlt0m0000gn/T//ccgmP6qh.s 			page 37


1829:Drivers/CMSIS/Include/cmsis_gcc.h **** {
1830:Drivers/CMSIS/Include/cmsis_gcc.h ****   uint32_t result;
1831:Drivers/CMSIS/Include/cmsis_gcc.h **** 
1832:Drivers/CMSIS/Include/cmsis_gcc.h ****   __ASM volatile ("usad8 %0, %1, %2" : "=r" (result) : "r" (op1), "r" (op2) );
1833:Drivers/CMSIS/Include/cmsis_gcc.h ****   return(result);
1834:Drivers/CMSIS/Include/cmsis_gcc.h **** }
1835:Drivers/CMSIS/Include/cmsis_gcc.h **** 
1836:Drivers/CMSIS/Include/cmsis_gcc.h **** __STATIC_FORCEINLINE uint32_t __USADA8(uint32_t op1, uint32_t op2, uint32_t op3)
1837:Drivers/CMSIS/Include/cmsis_gcc.h **** {
1838:Drivers/CMSIS/Include/cmsis_gcc.h ****   uint32_t result;
1839:Drivers/CMSIS/Include/cmsis_gcc.h **** 
1840:Drivers/CMSIS/Include/cmsis_gcc.h ****   __ASM volatile ("usada8 %0, %1, %2, %3" : "=r" (result) : "r" (op1), "r" (op2), "r" (op3) );
1841:Drivers/CMSIS/Include/cmsis_gcc.h ****   return(result);
1842:Drivers/CMSIS/Include/cmsis_gcc.h **** }
1843:Drivers/CMSIS/Include/cmsis_gcc.h **** 
1844:Drivers/CMSIS/Include/cmsis_gcc.h **** #define __SSAT16(ARG1,ARG2) \
1845:Drivers/CMSIS/Include/cmsis_gcc.h **** ({                          \
1846:Drivers/CMSIS/Include/cmsis_gcc.h ****   int32_t __RES, __ARG1 = (ARG1); \
1847:Drivers/CMSIS/Include/cmsis_gcc.h ****   __ASM ("ssat16 %0, %1, %2" : "=r" (__RES) :  "I" (ARG2), "r" (__ARG1) ); \
1848:Drivers/CMSIS/Include/cmsis_gcc.h ****   __RES; \
1849:Drivers/CMSIS/Include/cmsis_gcc.h ****  })
1850:Drivers/CMSIS/Include/cmsis_gcc.h **** 
1851:Drivers/CMSIS/Include/cmsis_gcc.h **** #define __USAT16(ARG1,ARG2) \
1852:Drivers/CMSIS/Include/cmsis_gcc.h **** ({                          \
1853:Drivers/CMSIS/Include/cmsis_gcc.h ****   uint32_t __RES, __ARG1 = (ARG1); \
1854:Drivers/CMSIS/Include/cmsis_gcc.h ****   __ASM ("usat16 %0, %1, %2" : "=r" (__RES) :  "I" (ARG2), "r" (__ARG1) ); \
1855:Drivers/CMSIS/Include/cmsis_gcc.h ****   __RES; \
1856:Drivers/CMSIS/Include/cmsis_gcc.h ****  })
1857:Drivers/CMSIS/Include/cmsis_gcc.h **** 
1858:Drivers/CMSIS/Include/cmsis_gcc.h **** __STATIC_FORCEINLINE uint32_t __UXTB16(uint32_t op1)
1859:Drivers/CMSIS/Include/cmsis_gcc.h **** {
1860:Drivers/CMSIS/Include/cmsis_gcc.h ****   uint32_t result;
1861:Drivers/CMSIS/Include/cmsis_gcc.h **** 
1862:Drivers/CMSIS/Include/cmsis_gcc.h ****   __ASM volatile ("uxtb16 %0, %1" : "=r" (result) : "r" (op1));
1863:Drivers/CMSIS/Include/cmsis_gcc.h ****   return(result);
1864:Drivers/CMSIS/Include/cmsis_gcc.h **** }
1865:Drivers/CMSIS/Include/cmsis_gcc.h **** 
1866:Drivers/CMSIS/Include/cmsis_gcc.h **** __STATIC_FORCEINLINE uint32_t __UXTAB16(uint32_t op1, uint32_t op2)
1867:Drivers/CMSIS/Include/cmsis_gcc.h **** {
1868:Drivers/CMSIS/Include/cmsis_gcc.h ****   uint32_t result;
1869:Drivers/CMSIS/Include/cmsis_gcc.h **** 
1870:Drivers/CMSIS/Include/cmsis_gcc.h ****   __ASM volatile ("uxtab16 %0, %1, %2" : "=r" (result) : "r" (op1), "r" (op2) );
1871:Drivers/CMSIS/Include/cmsis_gcc.h ****   return(result);
1872:Drivers/CMSIS/Include/cmsis_gcc.h **** }
1873:Drivers/CMSIS/Include/cmsis_gcc.h **** 
1874:Drivers/CMSIS/Include/cmsis_gcc.h **** __STATIC_FORCEINLINE uint32_t __SXTB16(uint32_t op1)
1875:Drivers/CMSIS/Include/cmsis_gcc.h **** {
1876:Drivers/CMSIS/Include/cmsis_gcc.h ****   uint32_t result;
1877:Drivers/CMSIS/Include/cmsis_gcc.h **** 
1878:Drivers/CMSIS/Include/cmsis_gcc.h ****   __ASM volatile ("sxtb16 %0, %1" : "=r" (result) : "r" (op1));
1879:Drivers/CMSIS/Include/cmsis_gcc.h ****   return(result);
1880:Drivers/CMSIS/Include/cmsis_gcc.h **** }
1881:Drivers/CMSIS/Include/cmsis_gcc.h **** 
1882:Drivers/CMSIS/Include/cmsis_gcc.h **** __STATIC_FORCEINLINE uint32_t __SXTAB16(uint32_t op1, uint32_t op2)
1883:Drivers/CMSIS/Include/cmsis_gcc.h **** {
1884:Drivers/CMSIS/Include/cmsis_gcc.h ****   uint32_t result;
1885:Drivers/CMSIS/Include/cmsis_gcc.h **** 
ARM GAS  /var/folders/n6/c271nzx11xl4r4_m7sqjlt0m0000gn/T//ccgmP6qh.s 			page 38


1886:Drivers/CMSIS/Include/cmsis_gcc.h ****   __ASM volatile ("sxtab16 %0, %1, %2" : "=r" (result) : "r" (op1), "r" (op2) );
1887:Drivers/CMSIS/Include/cmsis_gcc.h ****   return(result);
1888:Drivers/CMSIS/Include/cmsis_gcc.h **** }
1889:Drivers/CMSIS/Include/cmsis_gcc.h **** 
1890:Drivers/CMSIS/Include/cmsis_gcc.h **** __STATIC_FORCEINLINE uint32_t __SMUAD  (uint32_t op1, uint32_t op2)
1891:Drivers/CMSIS/Include/cmsis_gcc.h **** {
1892:Drivers/CMSIS/Include/cmsis_gcc.h ****   uint32_t result;
1893:Drivers/CMSIS/Include/cmsis_gcc.h **** 
1894:Drivers/CMSIS/Include/cmsis_gcc.h ****   __ASM volatile ("smuad %0, %1, %2" : "=r" (result) : "r" (op1), "r" (op2) );
1895:Drivers/CMSIS/Include/cmsis_gcc.h ****   return(result);
1896:Drivers/CMSIS/Include/cmsis_gcc.h **** }
1897:Drivers/CMSIS/Include/cmsis_gcc.h **** 
1898:Drivers/CMSIS/Include/cmsis_gcc.h **** __STATIC_FORCEINLINE uint32_t __SMUADX (uint32_t op1, uint32_t op2)
1899:Drivers/CMSIS/Include/cmsis_gcc.h **** {
1900:Drivers/CMSIS/Include/cmsis_gcc.h ****   uint32_t result;
1901:Drivers/CMSIS/Include/cmsis_gcc.h **** 
1902:Drivers/CMSIS/Include/cmsis_gcc.h ****   __ASM volatile ("smuadx %0, %1, %2" : "=r" (result) : "r" (op1), "r" (op2) );
1903:Drivers/CMSIS/Include/cmsis_gcc.h ****   return(result);
1904:Drivers/CMSIS/Include/cmsis_gcc.h **** }
1905:Drivers/CMSIS/Include/cmsis_gcc.h **** 
1906:Drivers/CMSIS/Include/cmsis_gcc.h **** __STATIC_FORCEINLINE uint32_t __SMLAD (uint32_t op1, uint32_t op2, uint32_t op3)
1907:Drivers/CMSIS/Include/cmsis_gcc.h **** {
1908:Drivers/CMSIS/Include/cmsis_gcc.h ****   uint32_t result;
1909:Drivers/CMSIS/Include/cmsis_gcc.h **** 
1910:Drivers/CMSIS/Include/cmsis_gcc.h ****   __ASM volatile ("smlad %0, %1, %2, %3" : "=r" (result) : "r" (op1), "r" (op2), "r" (op3) );
1911:Drivers/CMSIS/Include/cmsis_gcc.h ****   return(result);
1912:Drivers/CMSIS/Include/cmsis_gcc.h **** }
1913:Drivers/CMSIS/Include/cmsis_gcc.h **** 
1914:Drivers/CMSIS/Include/cmsis_gcc.h **** __STATIC_FORCEINLINE uint32_t __SMLADX (uint32_t op1, uint32_t op2, uint32_t op3)
1915:Drivers/CMSIS/Include/cmsis_gcc.h **** {
1916:Drivers/CMSIS/Include/cmsis_gcc.h ****   uint32_t result;
1917:Drivers/CMSIS/Include/cmsis_gcc.h **** 
1918:Drivers/CMSIS/Include/cmsis_gcc.h ****   __ASM volatile ("smladx %0, %1, %2, %3" : "=r" (result) : "r" (op1), "r" (op2), "r" (op3) );
1919:Drivers/CMSIS/Include/cmsis_gcc.h ****   return(result);
1920:Drivers/CMSIS/Include/cmsis_gcc.h **** }
1921:Drivers/CMSIS/Include/cmsis_gcc.h **** 
1922:Drivers/CMSIS/Include/cmsis_gcc.h **** __STATIC_FORCEINLINE uint64_t __SMLALD (uint32_t op1, uint32_t op2, uint64_t acc)
1923:Drivers/CMSIS/Include/cmsis_gcc.h **** {
1924:Drivers/CMSIS/Include/cmsis_gcc.h ****   union llreg_u{
1925:Drivers/CMSIS/Include/cmsis_gcc.h ****     uint32_t w32[2];
1926:Drivers/CMSIS/Include/cmsis_gcc.h ****     uint64_t w64;
1927:Drivers/CMSIS/Include/cmsis_gcc.h ****   } llr;
1928:Drivers/CMSIS/Include/cmsis_gcc.h ****   llr.w64 = acc;
1929:Drivers/CMSIS/Include/cmsis_gcc.h **** 
1930:Drivers/CMSIS/Include/cmsis_gcc.h **** #ifndef __ARMEB__   /* Little endian */
1931:Drivers/CMSIS/Include/cmsis_gcc.h ****   __ASM volatile ("smlald %0, %1, %2, %3" : "=r" (llr.w32[0]), "=r" (llr.w32[1]): "r" (op1), "r" (o
1932:Drivers/CMSIS/Include/cmsis_gcc.h **** #else               /* Big endian */
1933:Drivers/CMSIS/Include/cmsis_gcc.h ****   __ASM volatile ("smlald %0, %1, %2, %3" : "=r" (llr.w32[1]), "=r" (llr.w32[0]): "r" (op1), "r" (o
1934:Drivers/CMSIS/Include/cmsis_gcc.h **** #endif
1935:Drivers/CMSIS/Include/cmsis_gcc.h **** 
1936:Drivers/CMSIS/Include/cmsis_gcc.h ****   return(llr.w64);
1937:Drivers/CMSIS/Include/cmsis_gcc.h **** }
1938:Drivers/CMSIS/Include/cmsis_gcc.h **** 
1939:Drivers/CMSIS/Include/cmsis_gcc.h **** __STATIC_FORCEINLINE uint64_t __SMLALDX (uint32_t op1, uint32_t op2, uint64_t acc)
1940:Drivers/CMSIS/Include/cmsis_gcc.h **** {
1941:Drivers/CMSIS/Include/cmsis_gcc.h ****   union llreg_u{
1942:Drivers/CMSIS/Include/cmsis_gcc.h ****     uint32_t w32[2];
ARM GAS  /var/folders/n6/c271nzx11xl4r4_m7sqjlt0m0000gn/T//ccgmP6qh.s 			page 39


1943:Drivers/CMSIS/Include/cmsis_gcc.h ****     uint64_t w64;
1944:Drivers/CMSIS/Include/cmsis_gcc.h ****   } llr;
1945:Drivers/CMSIS/Include/cmsis_gcc.h ****   llr.w64 = acc;
1946:Drivers/CMSIS/Include/cmsis_gcc.h **** 
1947:Drivers/CMSIS/Include/cmsis_gcc.h **** #ifndef __ARMEB__   /* Little endian */
1948:Drivers/CMSIS/Include/cmsis_gcc.h ****   __ASM volatile ("smlaldx %0, %1, %2, %3" : "=r" (llr.w32[0]), "=r" (llr.w32[1]): "r" (op1), "r" (
1949:Drivers/CMSIS/Include/cmsis_gcc.h **** #else               /* Big endian */
1950:Drivers/CMSIS/Include/cmsis_gcc.h ****   __ASM volatile ("smlaldx %0, %1, %2, %3" : "=r" (llr.w32[1]), "=r" (llr.w32[0]): "r" (op1), "r" (
1951:Drivers/CMSIS/Include/cmsis_gcc.h **** #endif
1952:Drivers/CMSIS/Include/cmsis_gcc.h **** 
1953:Drivers/CMSIS/Include/cmsis_gcc.h ****   return(llr.w64);
1954:Drivers/CMSIS/Include/cmsis_gcc.h **** }
1955:Drivers/CMSIS/Include/cmsis_gcc.h **** 
1956:Drivers/CMSIS/Include/cmsis_gcc.h **** __STATIC_FORCEINLINE uint32_t __SMUSD  (uint32_t op1, uint32_t op2)
1957:Drivers/CMSIS/Include/cmsis_gcc.h **** {
1958:Drivers/CMSIS/Include/cmsis_gcc.h ****   uint32_t result;
1959:Drivers/CMSIS/Include/cmsis_gcc.h **** 
1960:Drivers/CMSIS/Include/cmsis_gcc.h ****   __ASM volatile ("smusd %0, %1, %2" : "=r" (result) : "r" (op1), "r" (op2) );
1961:Drivers/CMSIS/Include/cmsis_gcc.h ****   return(result);
1962:Drivers/CMSIS/Include/cmsis_gcc.h **** }
1963:Drivers/CMSIS/Include/cmsis_gcc.h **** 
1964:Drivers/CMSIS/Include/cmsis_gcc.h **** __STATIC_FORCEINLINE uint32_t __SMUSDX (uint32_t op1, uint32_t op2)
1965:Drivers/CMSIS/Include/cmsis_gcc.h **** {
1966:Drivers/CMSIS/Include/cmsis_gcc.h ****   uint32_t result;
1967:Drivers/CMSIS/Include/cmsis_gcc.h **** 
1968:Drivers/CMSIS/Include/cmsis_gcc.h ****   __ASM volatile ("smusdx %0, %1, %2" : "=r" (result) : "r" (op1), "r" (op2) );
1969:Drivers/CMSIS/Include/cmsis_gcc.h ****   return(result);
1970:Drivers/CMSIS/Include/cmsis_gcc.h **** }
1971:Drivers/CMSIS/Include/cmsis_gcc.h **** 
1972:Drivers/CMSIS/Include/cmsis_gcc.h **** __STATIC_FORCEINLINE uint32_t __SMLSD (uint32_t op1, uint32_t op2, uint32_t op3)
1973:Drivers/CMSIS/Include/cmsis_gcc.h **** {
1974:Drivers/CMSIS/Include/cmsis_gcc.h ****   uint32_t result;
1975:Drivers/CMSIS/Include/cmsis_gcc.h **** 
1976:Drivers/CMSIS/Include/cmsis_gcc.h ****   __ASM volatile ("smlsd %0, %1, %2, %3" : "=r" (result) : "r" (op1), "r" (op2), "r" (op3) );
1977:Drivers/CMSIS/Include/cmsis_gcc.h ****   return(result);
1978:Drivers/CMSIS/Include/cmsis_gcc.h **** }
1979:Drivers/CMSIS/Include/cmsis_gcc.h **** 
1980:Drivers/CMSIS/Include/cmsis_gcc.h **** __STATIC_FORCEINLINE uint32_t __SMLSDX (uint32_t op1, uint32_t op2, uint32_t op3)
1981:Drivers/CMSIS/Include/cmsis_gcc.h **** {
1982:Drivers/CMSIS/Include/cmsis_gcc.h ****   uint32_t result;
1983:Drivers/CMSIS/Include/cmsis_gcc.h **** 
1984:Drivers/CMSIS/Include/cmsis_gcc.h ****   __ASM volatile ("smlsdx %0, %1, %2, %3" : "=r" (result) : "r" (op1), "r" (op2), "r" (op3) );
1985:Drivers/CMSIS/Include/cmsis_gcc.h ****   return(result);
1986:Drivers/CMSIS/Include/cmsis_gcc.h **** }
1987:Drivers/CMSIS/Include/cmsis_gcc.h **** 
1988:Drivers/CMSIS/Include/cmsis_gcc.h **** __STATIC_FORCEINLINE uint64_t __SMLSLD (uint32_t op1, uint32_t op2, uint64_t acc)
1989:Drivers/CMSIS/Include/cmsis_gcc.h **** {
1990:Drivers/CMSIS/Include/cmsis_gcc.h ****   union llreg_u{
1991:Drivers/CMSIS/Include/cmsis_gcc.h ****     uint32_t w32[2];
1992:Drivers/CMSIS/Include/cmsis_gcc.h ****     uint64_t w64;
1993:Drivers/CMSIS/Include/cmsis_gcc.h ****   } llr;
1994:Drivers/CMSIS/Include/cmsis_gcc.h ****   llr.w64 = acc;
1995:Drivers/CMSIS/Include/cmsis_gcc.h **** 
1996:Drivers/CMSIS/Include/cmsis_gcc.h **** #ifndef __ARMEB__   /* Little endian */
1997:Drivers/CMSIS/Include/cmsis_gcc.h ****   __ASM volatile ("smlsld %0, %1, %2, %3" : "=r" (llr.w32[0]), "=r" (llr.w32[1]): "r" (op1), "r" (o
1998:Drivers/CMSIS/Include/cmsis_gcc.h **** #else               /* Big endian */
1999:Drivers/CMSIS/Include/cmsis_gcc.h ****   __ASM volatile ("smlsld %0, %1, %2, %3" : "=r" (llr.w32[1]), "=r" (llr.w32[0]): "r" (op1), "r" (o
ARM GAS  /var/folders/n6/c271nzx11xl4r4_m7sqjlt0m0000gn/T//ccgmP6qh.s 			page 40


2000:Drivers/CMSIS/Include/cmsis_gcc.h **** #endif
2001:Drivers/CMSIS/Include/cmsis_gcc.h **** 
2002:Drivers/CMSIS/Include/cmsis_gcc.h ****   return(llr.w64);
2003:Drivers/CMSIS/Include/cmsis_gcc.h **** }
2004:Drivers/CMSIS/Include/cmsis_gcc.h **** 
2005:Drivers/CMSIS/Include/cmsis_gcc.h **** __STATIC_FORCEINLINE uint64_t __SMLSLDX (uint32_t op1, uint32_t op2, uint64_t acc)
2006:Drivers/CMSIS/Include/cmsis_gcc.h **** {
2007:Drivers/CMSIS/Include/cmsis_gcc.h ****   union llreg_u{
2008:Drivers/CMSIS/Include/cmsis_gcc.h ****     uint32_t w32[2];
2009:Drivers/CMSIS/Include/cmsis_gcc.h ****     uint64_t w64;
2010:Drivers/CMSIS/Include/cmsis_gcc.h ****   } llr;
2011:Drivers/CMSIS/Include/cmsis_gcc.h ****   llr.w64 = acc;
2012:Drivers/CMSIS/Include/cmsis_gcc.h **** 
2013:Drivers/CMSIS/Include/cmsis_gcc.h **** #ifndef __ARMEB__   /* Little endian */
2014:Drivers/CMSIS/Include/cmsis_gcc.h ****   __ASM volatile ("smlsldx %0, %1, %2, %3" : "=r" (llr.w32[0]), "=r" (llr.w32[1]): "r" (op1), "r" (
2015:Drivers/CMSIS/Include/cmsis_gcc.h **** #else               /* Big endian */
2016:Drivers/CMSIS/Include/cmsis_gcc.h ****   __ASM volatile ("smlsldx %0, %1, %2, %3" : "=r" (llr.w32[1]), "=r" (llr.w32[0]): "r" (op1), "r" (
2017:Drivers/CMSIS/Include/cmsis_gcc.h **** #endif
2018:Drivers/CMSIS/Include/cmsis_gcc.h **** 
2019:Drivers/CMSIS/Include/cmsis_gcc.h ****   return(llr.w64);
2020:Drivers/CMSIS/Include/cmsis_gcc.h **** }
2021:Drivers/CMSIS/Include/cmsis_gcc.h **** 
2022:Drivers/CMSIS/Include/cmsis_gcc.h **** __STATIC_FORCEINLINE uint32_t __SEL  (uint32_t op1, uint32_t op2)
2023:Drivers/CMSIS/Include/cmsis_gcc.h **** {
2024:Drivers/CMSIS/Include/cmsis_gcc.h ****   uint32_t result;
2025:Drivers/CMSIS/Include/cmsis_gcc.h **** 
2026:Drivers/CMSIS/Include/cmsis_gcc.h ****   __ASM volatile ("sel %0, %1, %2" : "=r" (result) : "r" (op1), "r" (op2) );
2027:Drivers/CMSIS/Include/cmsis_gcc.h ****   return(result);
2028:Drivers/CMSIS/Include/cmsis_gcc.h **** }
2029:Drivers/CMSIS/Include/cmsis_gcc.h **** 
2030:Drivers/CMSIS/Include/cmsis_gcc.h **** __STATIC_FORCEINLINE  int32_t __QADD( int32_t op1,  int32_t op2)
2031:Drivers/CMSIS/Include/cmsis_gcc.h **** {
2032:Drivers/CMSIS/Include/cmsis_gcc.h ****   int32_t result;
2033:Drivers/CMSIS/Include/cmsis_gcc.h **** 
2034:Drivers/CMSIS/Include/cmsis_gcc.h ****   __ASM volatile ("qadd %0, %1, %2" : "=r" (result) : "r" (op1), "r" (op2) );
2035:Drivers/CMSIS/Include/cmsis_gcc.h ****   return(result);
2036:Drivers/CMSIS/Include/cmsis_gcc.h **** }
2037:Drivers/CMSIS/Include/cmsis_gcc.h **** 
2038:Drivers/CMSIS/Include/cmsis_gcc.h **** __STATIC_FORCEINLINE  int32_t __QSUB( int32_t op1,  int32_t op2)
 102              		.loc 2 2038 31 is_stmt 1 view .LVU24
 103              	.LBB27:
2039:Drivers/CMSIS/Include/cmsis_gcc.h **** {
2040:Drivers/CMSIS/Include/cmsis_gcc.h ****   int32_t result;
 104              		.loc 2 2040 3 view .LVU25
2041:Drivers/CMSIS/Include/cmsis_gcc.h **** 
2042:Drivers/CMSIS/Include/cmsis_gcc.h ****   __ASM volatile ("qsub %0, %1, %2" : "=r" (result) : "r" (op1), "r" (op2) );
 105              		.loc 2 2042 3 view .LVU26
 106              		.syntax unified
 107              	@ 2042 "Drivers/CMSIS/Include/cmsis_gcc.h" 1
 108 0042 88FAA0F0 		qsub r0, r0, r8
 109              	@ 0 "" 2
 110              	.LVL9:
2043:Drivers/CMSIS/Include/cmsis_gcc.h ****   return(result);
 111              		.loc 2 2043 3 view .LVU27
 112              		.loc 2 2043 3 is_stmt 0 view .LVU28
 113              		.thumb
 114              		.syntax unified
ARM GAS  /var/folders/n6/c271nzx11xl4r4_m7sqjlt0m0000gn/T//ccgmP6qh.s 			page 41


 115              	.LBE27:
 116              	.LBE26:
 125:Drivers/CMSIS/DSP/Source/FilteringFunctions/arm_iir_lattice_q31.c ****       /* gN-1(n) = kN-1 * fN-2(n) + gN-2(n-1) */
 126:Drivers/CMSIS/DSP/Source/FilteringFunctions/arm_iir_lattice_q31.c ****       gnext = __QADD(gcurr, (q31_t) (((q63_t) fnext * (*pk++)) >> 31));
 117              		.loc 1 126 7 is_stmt 1 view .LVU29
 118              		.loc 1 126 39 is_stmt 0 view .LVU30
 119 0046 4FEAE078 		asr	r8, r0, #31
 120              	.LVL10:
 121              		.loc 1 126 53 view .LVU31
 122 004a 02FB08F8 		mul	r8, r2, r8
 123 004e 00FB0A88 		mla	r8, r0, r10, r8
 124 0052 A2FB0029 		umull	r2, r9, r2, r0
 125 0056 C144     		add	r9, r9, r8
 126              		.loc 1 126 64 view .LVU32
 127 0058 D20F     		lsrs	r2, r2, #31
 128 005a 42EA4902 		orr	r2, r2, r9, lsl #1
 129              	.LVL11:
 130              	.LBB28:
 131              	.LBI28:
2030:Drivers/CMSIS/Include/cmsis_gcc.h **** {
 132              		.loc 2 2030 31 is_stmt 1 view .LVU33
 133              	.LBB29:
2032:Drivers/CMSIS/Include/cmsis_gcc.h **** 
 134              		.loc 2 2032 3 view .LVU34
2034:Drivers/CMSIS/Include/cmsis_gcc.h ****   return(result);
 135              		.loc 2 2034 3 view .LVU35
 136              		.syntax unified
 137              	@ 2034 "Drivers/CMSIS/Include/cmsis_gcc.h" 1
 138 005e 82FA8EF2 		qadd r2, lr, r2
 139              	@ 0 "" 2
 140              	.LVL12:
2035:Drivers/CMSIS/Include/cmsis_gcc.h **** }
 141              		.loc 2 2035 3 view .LVU36
2035:Drivers/CMSIS/Include/cmsis_gcc.h **** }
 142              		.loc 2 2035 3 is_stmt 0 view .LVU37
 143              		.thumb
 144              		.syntax unified
 145              	.LBE29:
 146              	.LBE28:
 127:Drivers/CMSIS/DSP/Source/FilteringFunctions/arm_iir_lattice_q31.c ****       /* y(n) += gN-1(n) * vN-1  */
 128:Drivers/CMSIS/DSP/Source/FilteringFunctions/arm_iir_lattice_q31.c ****       /* process for gN-5(n) * vN-5, gN-9(n) * vN-9 ... */
 129:Drivers/CMSIS/DSP/Source/FilteringFunctions/arm_iir_lattice_q31.c ****       acc += ((q63_t) gnext * *pv++);
 147              		.loc 1 129 7 is_stmt 1 view .LVU38
 148              		.loc 1 129 15 is_stmt 0 view .LVU39
 149 0062 4FEAE279 		asr	r9, r2, #31
 150              	.LVL13:
 151              		.loc 1 129 31 view .LVU40
 152 0066 D4F800E0 		ldr	lr, [r4]
 153              	.LVL14:
 154              		.loc 1 129 31 view .LVU41
 155 006a 4FEAEE78 		asr	r8, lr, #31
 156              		.loc 1 129 29 view .LVU42
 157 006e 02FB08F8 		mul	r8, r2, r8
 158 0072 0EFB0988 		mla	r8, lr, r9, r8
 159 0076 A2FB0E9E 		umull	r9, lr, r2, lr
 160 007a C644     		add	lr, lr, r8
 161              		.loc 1 129 11 view .LVU43
ARM GAS  /var/folders/n6/c271nzx11xl4r4_m7sqjlt0m0000gn/T//ccgmP6qh.s 			page 42


 162 007c 13EB0903 		adds	r3, r3, r9
 163              	.LVL15:
 164              		.loc 1 129 11 view .LVU44
 165 0080 4EEB0101 		adc	r1, lr, r1
 166              	.LVL16:
 130:Drivers/CMSIS/DSP/Source/FilteringFunctions/arm_iir_lattice_q31.c ****       /* write gN-1(n) into state for next sample processing */
 131:Drivers/CMSIS/DSP/Source/FilteringFunctions/arm_iir_lattice_q31.c ****       *px2++ = gnext;
 167              		.loc 1 131 7 is_stmt 1 view .LVU45
 168              		.loc 1 131 14 is_stmt 0 view .LVU46
 169 0084 2A60     		str	r2, [r5]
 170              	.LVL17:
 132:Drivers/CMSIS/DSP/Source/FilteringFunctions/arm_iir_lattice_q31.c **** 
 133:Drivers/CMSIS/DSP/Source/FilteringFunctions/arm_iir_lattice_q31.c ****       /* Process sample for 3nd, 7th ...taps */
 134:Drivers/CMSIS/DSP/Source/FilteringFunctions/arm_iir_lattice_q31.c ****       /* Read gN-3(n-1) from state buffer */
 135:Drivers/CMSIS/DSP/Source/FilteringFunctions/arm_iir_lattice_q31.c ****       gcurr = *px1++;
 171              		.loc 1 135 7 is_stmt 1 view .LVU47
 172              		.loc 1 135 13 is_stmt 0 view .LVU48
 173 0086 DCF804E0 		ldr	lr, [ip, #4]
 174              	.LVL18:
 136:Drivers/CMSIS/DSP/Source/FilteringFunctions/arm_iir_lattice_q31.c ****       /* Process sample for 3rd, 7th .. taps */
 137:Drivers/CMSIS/DSP/Source/FilteringFunctions/arm_iir_lattice_q31.c ****       /* fN-3(n) = fN-2(n) - kN-2 * gN-3(n-1) */
 138:Drivers/CMSIS/DSP/Source/FilteringFunctions/arm_iir_lattice_q31.c ****       fcurr = __QSUB(fnext, (q31_t) (((q63_t) gcurr * (*pk)) >> 31));
 175              		.loc 1 138 7 is_stmt 1 view .LVU49
 176              		.loc 1 138 39 is_stmt 0 view .LVU50
 177 008a 4FEAEE78 		asr	r8, lr, #31
 178              		.loc 1 138 56 view .LVU51
 179 008e 7268     		ldr	r2, [r6, #4]
 180              	.LVL19:
 181              		.loc 1 138 56 view .LVU52
 182 0090 4FEAE27A 		asr	r10, r2, #31
 183              		.loc 1 138 53 view .LVU53
 184 0094 0EFB0AFB 		mul	fp, lr, r10
 185 0098 02FB08BB 		mla	fp, r2, r8, fp
 186 009c AEFB0289 		umull	r8, r9, lr, r2
 187 00a0 D944     		add	r9, r9, fp
 188              		.loc 1 138 62 view .LVU54
 189 00a2 4FEAD878 		lsr	r8, r8, #31
 190 00a6 48EA4908 		orr	r8, r8, r9, lsl #1
 191              	.LVL20:
 192              	.LBB30:
 193              	.LBI30:
2038:Drivers/CMSIS/Include/cmsis_gcc.h **** {
 194              		.loc 2 2038 31 is_stmt 1 view .LVU55
 195              	.LBB31:
2040:Drivers/CMSIS/Include/cmsis_gcc.h **** 
 196              		.loc 2 2040 3 view .LVU56
2042:Drivers/CMSIS/Include/cmsis_gcc.h ****   return(result);
 197              		.loc 2 2042 3 view .LVU57
 198              		.syntax unified
 199              	@ 2042 "Drivers/CMSIS/Include/cmsis_gcc.h" 1
 200 00aa 88FAA0F0 		qsub r0, r0, r8
 201              	@ 0 "" 2
 202              	.LVL21:
 203              		.loc 2 2043 3 view .LVU58
 204              		.loc 2 2043 3 is_stmt 0 view .LVU59
 205              		.thumb
 206              		.syntax unified
ARM GAS  /var/folders/n6/c271nzx11xl4r4_m7sqjlt0m0000gn/T//ccgmP6qh.s 			page 43


 207              	.LBE31:
 208              	.LBE30:
 139:Drivers/CMSIS/DSP/Source/FilteringFunctions/arm_iir_lattice_q31.c ****       /* gN-2(n) = kN-2 * fN-3(n) + gN-3(n-1) */
 140:Drivers/CMSIS/DSP/Source/FilteringFunctions/arm_iir_lattice_q31.c ****       gnext = __QADD(gcurr, (q31_t) (((q63_t) fcurr * (*pk++)) >> 31));
 209              		.loc 1 140 7 is_stmt 1 view .LVU60
 210              		.loc 1 140 39 is_stmt 0 view .LVU61
 211 00ae 4FEAE078 		asr	r8, r0, #31
 212              	.LVL22:
 213              		.loc 1 140 53 view .LVU62
 214 00b2 02FB08F8 		mul	r8, r2, r8
 215 00b6 00FB0A88 		mla	r8, r0, r10, r8
 216 00ba A2FB0029 		umull	r2, r9, r2, r0
 217 00be C144     		add	r9, r9, r8
 218              		.loc 1 140 64 view .LVU63
 219 00c0 D20F     		lsrs	r2, r2, #31
 220 00c2 42EA4902 		orr	r2, r2, r9, lsl #1
 221              	.LVL23:
 222              	.LBB32:
 223              	.LBI32:
2030:Drivers/CMSIS/Include/cmsis_gcc.h **** {
 224              		.loc 2 2030 31 is_stmt 1 view .LVU64
 225              	.LBB33:
2032:Drivers/CMSIS/Include/cmsis_gcc.h **** 
 226              		.loc 2 2032 3 view .LVU65
2034:Drivers/CMSIS/Include/cmsis_gcc.h ****   return(result);
 227              		.loc 2 2034 3 view .LVU66
 228              		.syntax unified
 229              	@ 2034 "Drivers/CMSIS/Include/cmsis_gcc.h" 1
 230 00c6 82FA8EF2 		qadd r2, lr, r2
 231              	@ 0 "" 2
 232              	.LVL24:
2035:Drivers/CMSIS/Include/cmsis_gcc.h **** }
 233              		.loc 2 2035 3 view .LVU67
2035:Drivers/CMSIS/Include/cmsis_gcc.h **** }
 234              		.loc 2 2035 3 is_stmt 0 view .LVU68
 235              		.thumb
 236              		.syntax unified
 237              	.LBE33:
 238              	.LBE32:
 141:Drivers/CMSIS/DSP/Source/FilteringFunctions/arm_iir_lattice_q31.c ****       /* y(n) += gN-2(n) * vN-2  */
 142:Drivers/CMSIS/DSP/Source/FilteringFunctions/arm_iir_lattice_q31.c ****       /* process for gN-6(n) * vN-6, gN-10(n) * vN-10 ... */
 143:Drivers/CMSIS/DSP/Source/FilteringFunctions/arm_iir_lattice_q31.c ****       acc += ((q63_t) gnext * *pv++);
 239              		.loc 1 143 7 is_stmt 1 view .LVU69
 240              		.loc 1 143 15 is_stmt 0 view .LVU70
 241 00ca 4FEAE279 		asr	r9, r2, #31
 242              	.LVL25:
 243              		.loc 1 143 31 view .LVU71
 244 00ce D4F80480 		ldr	r8, [r4, #4]
 245 00d2 4FEAE87E 		asr	lr, r8, #31
 246              	.LVL26:
 247              		.loc 1 143 29 view .LVU72
 248 00d6 02FB0EFE 		mul	lr, r2, lr
 249 00da 08FB09EE 		mla	lr, r8, r9, lr
 250 00de A2FB0898 		umull	r9, r8, r2, r8
 251 00e2 F044     		add	r8, r8, lr
 252              		.loc 1 143 11 view .LVU73
 253 00e4 13EB090E 		adds	lr, r3, r9
ARM GAS  /var/folders/n6/c271nzx11xl4r4_m7sqjlt0m0000gn/T//ccgmP6qh.s 			page 44


 254 00e8 48EB0108 		adc	r8, r8, r1
 255              	.LVL27:
 144:Drivers/CMSIS/DSP/Source/FilteringFunctions/arm_iir_lattice_q31.c ****       /* write gN-2(n) into state for next sample processing */
 145:Drivers/CMSIS/DSP/Source/FilteringFunctions/arm_iir_lattice_q31.c ****       *px2++ = gnext;
 256              		.loc 1 145 7 is_stmt 1 view .LVU74
 257              		.loc 1 145 14 is_stmt 0 view .LVU75
 258 00ec 6A60     		str	r2, [r5, #4]
 259              	.LVL28:
 146:Drivers/CMSIS/DSP/Source/FilteringFunctions/arm_iir_lattice_q31.c **** 
 147:Drivers/CMSIS/DSP/Source/FilteringFunctions/arm_iir_lattice_q31.c **** 
 148:Drivers/CMSIS/DSP/Source/FilteringFunctions/arm_iir_lattice_q31.c ****       /* Process sample for 4th, 8th ...taps */
 149:Drivers/CMSIS/DSP/Source/FilteringFunctions/arm_iir_lattice_q31.c ****       /* Read gN-4(n-1) from state buffer */
 150:Drivers/CMSIS/DSP/Source/FilteringFunctions/arm_iir_lattice_q31.c ****       gcurr = *px1++;
 260              		.loc 1 150 7 is_stmt 1 view .LVU76
 261              		.loc 1 150 13 is_stmt 0 view .LVU77
 262 00ee DCF80820 		ldr	r2, [ip, #8]
 263              	.LVL29:
 151:Drivers/CMSIS/DSP/Source/FilteringFunctions/arm_iir_lattice_q31.c ****       /* Process sample for 4th, 8th .. taps */
 152:Drivers/CMSIS/DSP/Source/FilteringFunctions/arm_iir_lattice_q31.c ****       /* fN-4(n) = fN-3(n) - kN-3 * gN-4(n-1) */
 153:Drivers/CMSIS/DSP/Source/FilteringFunctions/arm_iir_lattice_q31.c ****       fnext = __QSUB(fcurr, (q31_t) (((q63_t) gcurr * (*pk)) >> 31));
 264              		.loc 1 153 7 is_stmt 1 view .LVU78
 265              		.loc 1 153 39 is_stmt 0 view .LVU79
 266 00f2 D117     		asrs	r1, r2, #31
 267              		.loc 1 153 56 view .LVU80
 268 00f4 B368     		ldr	r3, [r6, #8]
 269 00f6 4FEAE37A 		asr	r10, r3, #31
 270              		.loc 1 153 53 view .LVU81
 271 00fa 02FB0AFB 		mul	fp, r2, r10
 272 00fe 03FB01BB 		mla	fp, r3, r1, fp
 273 0102 A2FB0319 		umull	r1, r9, r2, r3
 274 0106 D944     		add	r9, r9, fp
 275              		.loc 1 153 62 view .LVU82
 276 0108 C90F     		lsrs	r1, r1, #31
 277 010a 41EA4901 		orr	r1, r1, r9, lsl #1
 278              	.LVL30:
 279              	.LBB34:
 280              	.LBI34:
2038:Drivers/CMSIS/Include/cmsis_gcc.h **** {
 281              		.loc 2 2038 31 is_stmt 1 view .LVU83
 282              	.LBB35:
2040:Drivers/CMSIS/Include/cmsis_gcc.h **** 
 283              		.loc 2 2040 3 view .LVU84
2042:Drivers/CMSIS/Include/cmsis_gcc.h ****   return(result);
 284              		.loc 2 2042 3 view .LVU85
 285              		.syntax unified
 286              	@ 2042 "Drivers/CMSIS/Include/cmsis_gcc.h" 1
 287 010e 81FAA0F1 		qsub r1, r0, r1
 288              	@ 0 "" 2
 289              	.LVL31:
 290              		.loc 2 2043 3 view .LVU86
 291              		.loc 2 2043 3 is_stmt 0 view .LVU87
 292              		.thumb
 293              		.syntax unified
 294              	.LBE35:
 295              	.LBE34:
 154:Drivers/CMSIS/DSP/Source/FilteringFunctions/arm_iir_lattice_q31.c ****       /* gN-3(n) = kN-3 * fN-4(n) + gN-4(n-1) */
 155:Drivers/CMSIS/DSP/Source/FilteringFunctions/arm_iir_lattice_q31.c ****       gnext = __QADD(gcurr, (q31_t) (((q63_t) fnext * (*pk++)) >> 31));
ARM GAS  /var/folders/n6/c271nzx11xl4r4_m7sqjlt0m0000gn/T//ccgmP6qh.s 			page 45


 296              		.loc 1 155 7 is_stmt 1 view .LVU88
 297              		.loc 1 155 39 is_stmt 0 view .LVU89
 298 0112 C817     		asrs	r0, r1, #31
 299              	.LVL32:
 300              		.loc 1 155 53 view .LVU90
 301 0114 03FB00F0 		mul	r0, r3, r0
 302 0118 01FB0A00 		mla	r0, r1, r10, r0
 303 011c A3FB0139 		umull	r3, r9, r3, r1
 304 0120 8144     		add	r9, r9, r0
 305              		.loc 1 155 64 view .LVU91
 306 0122 DB0F     		lsrs	r3, r3, #31
 307 0124 43EA4903 		orr	r3, r3, r9, lsl #1
 308              	.LVL33:
 309              	.LBB36:
 310              	.LBI36:
2030:Drivers/CMSIS/Include/cmsis_gcc.h **** {
 311              		.loc 2 2030 31 is_stmt 1 view .LVU92
 312              	.LBB37:
2032:Drivers/CMSIS/Include/cmsis_gcc.h **** 
 313              		.loc 2 2032 3 view .LVU93
2034:Drivers/CMSIS/Include/cmsis_gcc.h ****   return(result);
 314              		.loc 2 2034 3 view .LVU94
 315              		.syntax unified
 316              	@ 2034 "Drivers/CMSIS/Include/cmsis_gcc.h" 1
 317 0128 83FA82F3 		qadd r3, r2, r3
 318              	@ 0 "" 2
 319              	.LVL34:
2035:Drivers/CMSIS/Include/cmsis_gcc.h **** }
 320              		.loc 2 2035 3 view .LVU95
2035:Drivers/CMSIS/Include/cmsis_gcc.h **** }
 321              		.loc 2 2035 3 is_stmt 0 view .LVU96
 322              		.thumb
 323              		.syntax unified
 324              	.LBE37:
 325              	.LBE36:
 156:Drivers/CMSIS/DSP/Source/FilteringFunctions/arm_iir_lattice_q31.c ****       /* y(n) += gN-3(n) * vN-3  */
 157:Drivers/CMSIS/DSP/Source/FilteringFunctions/arm_iir_lattice_q31.c ****       /* process for gN-7(n) * vN-7, gN-11(n) * vN-11 ... */
 158:Drivers/CMSIS/DSP/Source/FilteringFunctions/arm_iir_lattice_q31.c ****       acc += ((q63_t) gnext * *pv++);
 326              		.loc 1 158 7 is_stmt 1 view .LVU97
 327              		.loc 1 158 15 is_stmt 0 view .LVU98
 328 012c 4FEAE379 		asr	r9, r3, #31
 329              	.LVL35:
 330              		.loc 1 158 31 view .LVU99
 331 0130 A268     		ldr	r2, [r4, #8]
 332              	.LVL36:
 333              		.loc 1 158 31 view .LVU100
 334 0132 D017     		asrs	r0, r2, #31
 335              		.loc 1 158 29 view .LVU101
 336 0134 03FB00F0 		mul	r0, r3, r0
 337 0138 02FB0900 		mla	r0, r2, r9, r0
 338 013c A3FB0292 		umull	r9, r2, r3, r2
 339 0140 0244     		add	r2, r2, r0
 340              		.loc 1 158 11 view .LVU102
 341 0142 1EEB0909 		adds	r9, lr, r9
 342 0146 42EB080E 		adc	lr, r2, r8
 343              	.LVL37:
 159:Drivers/CMSIS/DSP/Source/FilteringFunctions/arm_iir_lattice_q31.c ****       /* write gN-3(n) into state for next sample processing */
ARM GAS  /var/folders/n6/c271nzx11xl4r4_m7sqjlt0m0000gn/T//ccgmP6qh.s 			page 46


 160:Drivers/CMSIS/DSP/Source/FilteringFunctions/arm_iir_lattice_q31.c ****       *px2++ = gnext;
 344              		.loc 1 160 7 is_stmt 1 view .LVU103
 345              		.loc 1 160 14 is_stmt 0 view .LVU104
 346 014a AB60     		str	r3, [r5, #8]
 347              	.LVL38:
 161:Drivers/CMSIS/DSP/Source/FilteringFunctions/arm_iir_lattice_q31.c **** 
 162:Drivers/CMSIS/DSP/Source/FilteringFunctions/arm_iir_lattice_q31.c **** 
 163:Drivers/CMSIS/DSP/Source/FilteringFunctions/arm_iir_lattice_q31.c ****       /* Process sample for 5th, 9th ...taps */
 164:Drivers/CMSIS/DSP/Source/FilteringFunctions/arm_iir_lattice_q31.c ****       /* Read gN-5(n-1) from state buffer */
 165:Drivers/CMSIS/DSP/Source/FilteringFunctions/arm_iir_lattice_q31.c ****       gcurr = *px1++;
 348              		.loc 1 165 7 is_stmt 1 view .LVU105
 349              		.loc 1 165 19 is_stmt 0 view .LVU106
 350 014c 0CF11008 		add	r8, ip, #16
 351              	.LVL39:
 352              		.loc 1 165 13 view .LVU107
 353 0150 DCF80C30 		ldr	r3, [ip, #12]
 354              	.LVL40:
 166:Drivers/CMSIS/DSP/Source/FilteringFunctions/arm_iir_lattice_q31.c ****       /* Process sample for 5th, 9th .. taps */
 167:Drivers/CMSIS/DSP/Source/FilteringFunctions/arm_iir_lattice_q31.c ****       /* fN-5(n) = fN-4(n) - kN-4 * gN-1(n-1) */
 168:Drivers/CMSIS/DSP/Source/FilteringFunctions/arm_iir_lattice_q31.c ****       fcurr = __QSUB(fnext, (q31_t) (((q63_t) gcurr * (*pk)) >> 31));
 355              		.loc 1 168 7 is_stmt 1 view .LVU108
 356              		.loc 1 168 39 is_stmt 0 view .LVU109
 357 0154 D817     		asrs	r0, r3, #31
 358              		.loc 1 168 56 view .LVU110
 359 0156 F268     		ldr	r2, [r6, #12]
 360 0158 4FEAE27A 		asr	r10, r2, #31
 361              		.loc 1 168 53 view .LVU111
 362 015c 03FB0AFB 		mul	fp, r3, r10
 363 0160 02FB00BB 		mla	fp, r2, r0, fp
 364 0164 A3FB020C 		umull	r0, ip, r3, r2
 365 0168 DC44     		add	ip, ip, fp
 366              		.loc 1 168 62 view .LVU112
 367 016a C00F     		lsrs	r0, r0, #31
 368 016c 40EA4C00 		orr	r0, r0, ip, lsl #1
 369              	.LVL41:
 370              	.LBB38:
 371              	.LBI38:
2038:Drivers/CMSIS/Include/cmsis_gcc.h **** {
 372              		.loc 2 2038 31 is_stmt 1 view .LVU113
 373              	.LBB39:
2040:Drivers/CMSIS/Include/cmsis_gcc.h **** 
 374              		.loc 2 2040 3 view .LVU114
2042:Drivers/CMSIS/Include/cmsis_gcc.h ****   return(result);
 375              		.loc 2 2042 3 view .LVU115
 376              		.syntax unified
 377              	@ 2042 "Drivers/CMSIS/Include/cmsis_gcc.h" 1
 378 0170 80FAA1F0 		qsub r0, r1, r0
 379              	@ 0 "" 2
 380              	.LVL42:
 381              		.loc 2 2043 3 view .LVU116
 382              		.loc 2 2043 3 is_stmt 0 view .LVU117
 383              		.thumb
 384              		.syntax unified
 385              	.LBE39:
 386              	.LBE38:
 169:Drivers/CMSIS/DSP/Source/FilteringFunctions/arm_iir_lattice_q31.c ****       /* gN-4(n) = kN-4 * fN-5(n) + gN-5(n-1) */
 170:Drivers/CMSIS/DSP/Source/FilteringFunctions/arm_iir_lattice_q31.c ****       gnext = __QADD(gcurr, (q31_t) (((q63_t) fcurr * (*pk++)) >> 31));
ARM GAS  /var/folders/n6/c271nzx11xl4r4_m7sqjlt0m0000gn/T//ccgmP6qh.s 			page 47


 387              		.loc 1 170 7 is_stmt 1 view .LVU118
 388              		.loc 1 170 39 is_stmt 0 view .LVU119
 389 0174 C117     		asrs	r1, r0, #31
 390              	.LVL43:
 391              		.loc 1 170 59 view .LVU120
 392 0176 1036     		adds	r6, r6, #16
 393              	.LVL44:
 394              		.loc 1 170 53 view .LVU121
 395 0178 02FB01F1 		mul	r1, r2, r1
 396 017c 00FB0A11 		mla	r1, r0, r10, r1
 397 0180 A2FB002C 		umull	r2, ip, r2, r0
 398 0184 8C44     		add	ip, ip, r1
 399              		.loc 1 170 64 view .LVU122
 400 0186 D20F     		lsrs	r2, r2, #31
 401 0188 42EA4C02 		orr	r2, r2, ip, lsl #1
 402              	.LVL45:
 403              	.LBB40:
 404              	.LBI40:
2030:Drivers/CMSIS/Include/cmsis_gcc.h **** {
 405              		.loc 2 2030 31 is_stmt 1 view .LVU123
 406              	.LBB41:
2032:Drivers/CMSIS/Include/cmsis_gcc.h **** 
 407              		.loc 2 2032 3 view .LVU124
2034:Drivers/CMSIS/Include/cmsis_gcc.h ****   return(result);
 408              		.loc 2 2034 3 view .LVU125
 409              		.syntax unified
 410              	@ 2034 "Drivers/CMSIS/Include/cmsis_gcc.h" 1
 411 018c 82FA83F2 		qadd r2, r3, r2
 412              	@ 0 "" 2
 413              	.LVL46:
2035:Drivers/CMSIS/Include/cmsis_gcc.h **** }
 414              		.loc 2 2035 3 view .LVU126
2035:Drivers/CMSIS/Include/cmsis_gcc.h **** }
 415              		.loc 2 2035 3 is_stmt 0 view .LVU127
 416              		.thumb
 417              		.syntax unified
 418              	.LBE41:
 419              	.LBE40:
 171:Drivers/CMSIS/DSP/Source/FilteringFunctions/arm_iir_lattice_q31.c ****       /* y(n) += gN-4(n) * vN-4  */
 172:Drivers/CMSIS/DSP/Source/FilteringFunctions/arm_iir_lattice_q31.c ****       /* process for gN-8(n) * vN-8, gN-12(n) * vN-12 ... */
 173:Drivers/CMSIS/DSP/Source/FilteringFunctions/arm_iir_lattice_q31.c ****       acc += ((q63_t) gnext * *pv++);
 420              		.loc 1 173 7 is_stmt 1 view .LVU128
 421              		.loc 1 173 15 is_stmt 0 view .LVU129
 422 0190 D317     		asrs	r3, r2, #31
 423              	.LVL47:
 424              		.loc 1 173 31 view .LVU130
 425 0192 E168     		ldr	r1, [r4, #12]
 426 0194 4FEAE17C 		asr	ip, r1, #31
 427              		.loc 1 173 29 view .LVU131
 428 0198 02FB0CFC 		mul	ip, r2, ip
 429 019c 01FB03CC 		mla	ip, r1, r3, ip
 430 01a0 A2FB0131 		umull	r3, r1, r2, r1
 431 01a4 6144     		add	r1, r1, ip
 432              		.loc 1 173 11 view .LVU132
 433 01a6 19EB0303 		adds	r3, r9, r3
 434 01aa 41EB0E01 		adc	r1, r1, lr
 435              	.LVL48:
ARM GAS  /var/folders/n6/c271nzx11xl4r4_m7sqjlt0m0000gn/T//ccgmP6qh.s 			page 48


 174:Drivers/CMSIS/DSP/Source/FilteringFunctions/arm_iir_lattice_q31.c ****       /* write gN-4(n) into state for next sample processing */
 175:Drivers/CMSIS/DSP/Source/FilteringFunctions/arm_iir_lattice_q31.c ****       *px2++ = gnext;
 436              		.loc 1 175 7 is_stmt 1 view .LVU133
 437              		.loc 1 175 14 is_stmt 0 view .LVU134
 438 01ae EA60     		str	r2, [r5, #12]
 439              	.LVL49:
 176:Drivers/CMSIS/DSP/Source/FilteringFunctions/arm_iir_lattice_q31.c **** 
 177:Drivers/CMSIS/DSP/Source/FilteringFunctions/arm_iir_lattice_q31.c ****       tapCnt--;
 440              		.loc 1 177 7 is_stmt 1 view .LVU135
 441              		.loc 1 177 13 is_stmt 0 view .LVU136
 442 01b0 013F     		subs	r7, r7, #1
 443              	.LVL50:
 173:Drivers/CMSIS/DSP/Source/FilteringFunctions/arm_iir_lattice_q31.c ****       /* write gN-4(n) into state for next sample processing */
 444              		.loc 1 173 34 view .LVU137
 445 01b2 1034     		adds	r4, r4, #16
 446              	.LVL51:
 175:Drivers/CMSIS/DSP/Source/FilteringFunctions/arm_iir_lattice_q31.c **** 
 447              		.loc 1 175 11 view .LVU138
 448 01b4 1035     		adds	r5, r5, #16
 449              	.LVL52:
 165:Drivers/CMSIS/DSP/Source/FilteringFunctions/arm_iir_lattice_q31.c ****       /* Process sample for 5th, 9th .. taps */
 450              		.loc 1 165 19 view .LVU139
 451 01b6 C446     		mov	ip, r8
 452              	.LVL53:
 453              	.L3:
 117:Drivers/CMSIS/DSP/Source/FilteringFunctions/arm_iir_lattice_q31.c ****     {
 454              		.loc 1 117 19 is_stmt 1 view .LVU140
 455 01b8 002F     		cmp	r7, #0
 456 01ba 7FF430AF 		bne	.L4
 178:Drivers/CMSIS/DSP/Source/FilteringFunctions/arm_iir_lattice_q31.c **** 
 179:Drivers/CMSIS/DSP/Source/FilteringFunctions/arm_iir_lattice_q31.c ****     }
 180:Drivers/CMSIS/DSP/Source/FilteringFunctions/arm_iir_lattice_q31.c **** 
 181:Drivers/CMSIS/DSP/Source/FilteringFunctions/arm_iir_lattice_q31.c ****     fnext = fcurr;
 182:Drivers/CMSIS/DSP/Source/FilteringFunctions/arm_iir_lattice_q31.c **** 
 183:Drivers/CMSIS/DSP/Source/FilteringFunctions/arm_iir_lattice_q31.c ****     /* If the filter length is not a multiple of 4, compute the remaining filter taps */
 184:Drivers/CMSIS/DSP/Source/FilteringFunctions/arm_iir_lattice_q31.c ****     tapCnt = (numStages - 1U) % 0x4U;
 457              		.loc 1 184 12 is_stmt 0 view .LVU141
 458 01be DDF808A0 		ldr	r10, [sp, #8]
 459 01c2 DDF80CE0 		ldr	lr, [sp, #12]
 460 01c6 DDF81090 		ldr	r9, [sp, #16]
 181:Drivers/CMSIS/DSP/Source/FilteringFunctions/arm_iir_lattice_q31.c **** 
 461              		.loc 1 181 5 is_stmt 1 view .LVU142
 462              	.LVL54:
 463              		.loc 1 184 5 view .LVU143
 464              		.loc 1 184 12 is_stmt 0 view .LVU144
 465 01ca 0AF0030A 		and	r10, r10, #3
 466              	.LVL55:
 185:Drivers/CMSIS/DSP/Source/FilteringFunctions/arm_iir_lattice_q31.c **** 
 186:Drivers/CMSIS/DSP/Source/FilteringFunctions/arm_iir_lattice_q31.c ****     while (tapCnt > 0U)
 467              		.loc 1 186 5 is_stmt 1 view .LVU145
 468 01ce B346     		mov	fp, r6
 469 01d0 5646     		mov	r6, r10
 470              	.LVL56:
 471              		.loc 1 186 5 is_stmt 0 view .LVU146
 472 01d2 CDF808E0 		str	lr, [sp, #8]
 473 01d6 CDF80C90 		str	r9, [sp, #12]
 474              	.LVL57:
ARM GAS  /var/folders/n6/c271nzx11xl4r4_m7sqjlt0m0000gn/T//ccgmP6qh.s 			page 49


 475              		.loc 1 186 11 view .LVU147
 476 01da 36E0     		b	.L5
 477              	.LVL58:
 478              	.L6:
 187:Drivers/CMSIS/DSP/Source/FilteringFunctions/arm_iir_lattice_q31.c ****     {
 188:Drivers/CMSIS/DSP/Source/FilteringFunctions/arm_iir_lattice_q31.c ****       gcurr = *px1++;
 479              		.loc 1 188 7 is_stmt 1 view .LVU148
 480              		.loc 1 188 13 is_stmt 0 view .LVU149
 481 01dc 5CF8047B 		ldr	r7, [ip], #4
 482              	.LVL59:
 189:Drivers/CMSIS/DSP/Source/FilteringFunctions/arm_iir_lattice_q31.c ****       /* Process sample for last taps */
 190:Drivers/CMSIS/DSP/Source/FilteringFunctions/arm_iir_lattice_q31.c ****       fnext = __QSUB(fcurr, (q31_t) (((q63_t) gcurr * (*pk)) >> 31));
 483              		.loc 1 190 7 is_stmt 1 view .LVU150
 484              		.loc 1 190 39 is_stmt 0 view .LVU151
 485 01e0 4FEAE77E 		asr	lr, r7, #31
 486              		.loc 1 190 56 view .LVU152
 487 01e4 5BF8042B 		ldr	r2, [fp], #4
 488              	.LVL60:
 489              		.loc 1 190 56 view .LVU153
 490 01e8 4FEAE27A 		asr	r10, r2, #31
 491              		.loc 1 190 53 view .LVU154
 492 01ec 07FB0AF9 		mul	r9, r7, r10
 493 01f0 02FB0E99 		mla	r9, r2, lr, r9
 494 01f4 A7FB02E8 		umull	lr, r8, r7, r2
 495 01f8 C844     		add	r8, r8, r9
 496              		.loc 1 190 62 view .LVU155
 497 01fa 4FEADE7E 		lsr	lr, lr, #31
 498 01fe 4EEA480E 		orr	lr, lr, r8, lsl #1
 499              	.LVL61:
 500              	.LBB42:
 501              	.LBI42:
2038:Drivers/CMSIS/Include/cmsis_gcc.h **** {
 502              		.loc 2 2038 31 is_stmt 1 view .LVU156
 503              	.LBB43:
2040:Drivers/CMSIS/Include/cmsis_gcc.h **** 
 504              		.loc 2 2040 3 view .LVU157
2042:Drivers/CMSIS/Include/cmsis_gcc.h ****   return(result);
 505              		.loc 2 2042 3 view .LVU158
 506              		.syntax unified
 507              	@ 2042 "Drivers/CMSIS/Include/cmsis_gcc.h" 1
 508 0202 8EFAA0F0 		qsub r0, r0, lr
 509              	@ 0 "" 2
 510              	.LVL62:
 511              		.loc 2 2043 3 view .LVU159
 512              		.loc 2 2043 3 is_stmt 0 view .LVU160
 513              		.thumb
 514              		.syntax unified
 515              	.LBE43:
 516              	.LBE42:
 191:Drivers/CMSIS/DSP/Source/FilteringFunctions/arm_iir_lattice_q31.c ****       gnext = __QADD(gcurr, (q31_t) (((q63_t) fnext * (*pk++)) >> 31));
 517              		.loc 1 191 7 is_stmt 1 view .LVU161
 518              		.loc 1 191 39 is_stmt 0 view .LVU162
 519 0206 4FEAE07E 		asr	lr, r0, #31
 520              	.LVL63:
 521              		.loc 1 191 53 view .LVU163
 522 020a 02FB0EFE 		mul	lr, r2, lr
 523 020e 00FB0AEE 		mla	lr, r0, r10, lr
ARM GAS  /var/folders/n6/c271nzx11xl4r4_m7sqjlt0m0000gn/T//ccgmP6qh.s 			page 50


 524 0212 A2FB0028 		umull	r2, r8, r2, r0
 525 0216 F044     		add	r8, r8, lr
 526              		.loc 1 191 64 view .LVU164
 527 0218 D20F     		lsrs	r2, r2, #31
 528 021a 42EA4802 		orr	r2, r2, r8, lsl #1
 529              	.LVL64:
 530              	.LBB44:
 531              	.LBI44:
2030:Drivers/CMSIS/Include/cmsis_gcc.h **** {
 532              		.loc 2 2030 31 is_stmt 1 view .LVU165
 533              	.LBB45:
2032:Drivers/CMSIS/Include/cmsis_gcc.h **** 
 534              		.loc 2 2032 3 view .LVU166
2034:Drivers/CMSIS/Include/cmsis_gcc.h ****   return(result);
 535              		.loc 2 2034 3 view .LVU167
 536              		.syntax unified
 537              	@ 2034 "Drivers/CMSIS/Include/cmsis_gcc.h" 1
 538 021e 82FA87F2 		qadd r2, r7, r2
 539              	@ 0 "" 2
 540              	.LVL65:
2035:Drivers/CMSIS/Include/cmsis_gcc.h **** }
 541              		.loc 2 2035 3 view .LVU168
2035:Drivers/CMSIS/Include/cmsis_gcc.h **** }
 542              		.loc 2 2035 3 is_stmt 0 view .LVU169
 543              		.thumb
 544              		.syntax unified
 545              	.LBE45:
 546              	.LBE44:
 192:Drivers/CMSIS/DSP/Source/FilteringFunctions/arm_iir_lattice_q31.c ****       /* Output samples for last taps */
 193:Drivers/CMSIS/DSP/Source/FilteringFunctions/arm_iir_lattice_q31.c ****       acc += ((q63_t) gnext * *pv++);
 547              		.loc 1 193 7 is_stmt 1 view .LVU170
 548              		.loc 1 193 15 is_stmt 0 view .LVU171
 549 0222 4FEAE278 		asr	r8, r2, #31
 550              	.LVL66:
 551              		.loc 1 193 31 view .LVU172
 552 0226 54F8047B 		ldr	r7, [r4], #4
 553              	.LVL67:
 554              		.loc 1 193 31 view .LVU173
 555 022a 4FEAE77E 		asr	lr, r7, #31
 556              		.loc 1 193 29 view .LVU174
 557 022e 02FB0EFE 		mul	lr, r2, lr
 558 0232 07FB08EE 		mla	lr, r7, r8, lr
 559 0236 A2FB0778 		umull	r7, r8, r2, r7
 560 023a C644     		add	lr, lr, r8
 561              		.loc 1 193 11 view .LVU175
 562 023c DF19     		adds	r7, r3, r7
 563 023e 3B46     		mov	r3, r7
 564              	.LVL68:
 565              		.loc 1 193 11 view .LVU176
 566 0240 4EEB0101 		adc	r1, lr, r1
 567              	.LVL69:
 194:Drivers/CMSIS/DSP/Source/FilteringFunctions/arm_iir_lattice_q31.c ****       *px2++ = gnext;
 568              		.loc 1 194 7 is_stmt 1 view .LVU177
 569              		.loc 1 194 14 is_stmt 0 view .LVU178
 570 0244 45F8042B 		str	r2, [r5], #4
 571              	.LVL70:
 195:Drivers/CMSIS/DSP/Source/FilteringFunctions/arm_iir_lattice_q31.c ****       fcurr = fnext;
ARM GAS  /var/folders/n6/c271nzx11xl4r4_m7sqjlt0m0000gn/T//ccgmP6qh.s 			page 51


 572              		.loc 1 195 7 is_stmt 1 view .LVU179
 196:Drivers/CMSIS/DSP/Source/FilteringFunctions/arm_iir_lattice_q31.c **** 
 197:Drivers/CMSIS/DSP/Source/FilteringFunctions/arm_iir_lattice_q31.c ****       tapCnt--;
 573              		.loc 1 197 7 view .LVU180
 574              		.loc 1 197 13 is_stmt 0 view .LVU181
 575 0248 013E     		subs	r6, r6, #1
 576              	.LVL71:
 577              	.L5:
 186:Drivers/CMSIS/DSP/Source/FilteringFunctions/arm_iir_lattice_q31.c ****     {
 578              		.loc 1 186 19 is_stmt 1 view .LVU182
 579 024a 002E     		cmp	r6, #0
 580 024c C6D1     		bne	.L6
 198:Drivers/CMSIS/DSP/Source/FilteringFunctions/arm_iir_lattice_q31.c **** 
 199:Drivers/CMSIS/DSP/Source/FilteringFunctions/arm_iir_lattice_q31.c ****     }
 200:Drivers/CMSIS/DSP/Source/FilteringFunctions/arm_iir_lattice_q31.c **** 
 201:Drivers/CMSIS/DSP/Source/FilteringFunctions/arm_iir_lattice_q31.c ****     /* y(n) += g0(n) * v0 */
 202:Drivers/CMSIS/DSP/Source/FilteringFunctions/arm_iir_lattice_q31.c ****     acc += (q63_t) fnext *(
 581              		.loc 1 202 12 is_stmt 0 view .LVU183
 582 024e DDF808E0 		ldr	lr, [sp, #8]
 583 0252 DDF80C90 		ldr	r9, [sp, #12]
 584              		.loc 1 202 5 is_stmt 1 view .LVU184
 585              		.loc 1 202 12 is_stmt 0 view .LVU185
 586 0256 C617     		asrs	r6, r0, #31
 587              	.LVL72:
 203:Drivers/CMSIS/DSP/Source/FilteringFunctions/arm_iir_lattice_q31.c ****   *pv++);
 588              		.loc 1 203 3 view .LVU186
 589 0258 2268     		ldr	r2, [r4]
 590 025a D417     		asrs	r4, r2, #31
 591              	.LVL73:
 202:Drivers/CMSIS/DSP/Source/FilteringFunctions/arm_iir_lattice_q31.c ****   *pv++);
 592              		.loc 1 202 26 view .LVU187
 593 025c 00FB04F4 		mul	r4, r0, r4
 594 0260 02FB0644 		mla	r4, r2, r6, r4
 595 0264 A0FB0262 		umull	r6, r2, r0, r2
 596 0268 2244     		add	r2, r2, r4
 202:Drivers/CMSIS/DSP/Source/FilteringFunctions/arm_iir_lattice_q31.c ****   *pv++);
 597              		.loc 1 202 9 view .LVU188
 598 026a 9B19     		adds	r3, r3, r6
 599              	.LVL74:
 202:Drivers/CMSIS/DSP/Source/FilteringFunctions/arm_iir_lattice_q31.c ****   *pv++);
 600              		.loc 1 202 9 view .LVU189
 601 026c 42EB0102 		adc	r2, r2, r1
 602              	.LVL75:
 204:Drivers/CMSIS/DSP/Source/FilteringFunctions/arm_iir_lattice_q31.c **** 
 205:Drivers/CMSIS/DSP/Source/FilteringFunctions/arm_iir_lattice_q31.c ****     *px2++ = fnext;
 603              		.loc 1 205 5 is_stmt 1 view .LVU190
 604              		.loc 1 205 12 is_stmt 0 view .LVU191
 605 0270 2860     		str	r0, [r5]
 206:Drivers/CMSIS/DSP/Source/FilteringFunctions/arm_iir_lattice_q31.c **** 
 207:Drivers/CMSIS/DSP/Source/FilteringFunctions/arm_iir_lattice_q31.c ****     /* write out into pDst */
 208:Drivers/CMSIS/DSP/Source/FilteringFunctions/arm_iir_lattice_q31.c ****     *pDst++ = (q31_t) (acc >> 31U);
 606              		.loc 1 208 5 is_stmt 1 view .LVU192
 607              		.loc 1 208 28 is_stmt 0 view .LVU193
 608 0272 DB0F     		lsrs	r3, r3, #31
 609              	.LVL76:
 610              		.loc 1 208 28 view .LVU194
 611 0274 43EA4203 		orr	r3, r3, r2, lsl #1
ARM GAS  /var/folders/n6/c271nzx11xl4r4_m7sqjlt0m0000gn/T//ccgmP6qh.s 			page 52


 612              		.loc 1 208 10 view .LVU195
 613 0278 019A     		ldr	r2, [sp, #4]
 614              	.LVL77:
 615              		.loc 1 208 13 view .LVU196
 616 027a 42F8043B 		str	r3, [r2], #4
 617              	.LVL78:
 209:Drivers/CMSIS/DSP/Source/FilteringFunctions/arm_iir_lattice_q31.c **** 
 210:Drivers/CMSIS/DSP/Source/FilteringFunctions/arm_iir_lattice_q31.c ****     /* Advance the state pointer by 4 to process the next group of 4 samples */
 211:Drivers/CMSIS/DSP/Source/FilteringFunctions/arm_iir_lattice_q31.c ****     pState = pState + 1U;
 618              		.loc 1 211 5 is_stmt 1 view .LVU197
 212:Drivers/CMSIS/DSP/Source/FilteringFunctions/arm_iir_lattice_q31.c ****     blkCnt--;
 619              		.loc 1 212 5 view .LVU198
 620              		.loc 1 212 11 is_stmt 0 view .LVU199
 621 027e 009B     		ldr	r3, [sp]
 622 0280 013B     		subs	r3, r3, #1
 623 0282 0093     		str	r3, [sp]
 624              	.LVL79:
 211:Drivers/CMSIS/DSP/Source/FilteringFunctions/arm_iir_lattice_q31.c ****     blkCnt--;
 625              		.loc 1 211 12 view .LVU200
 626 0284 CC46     		mov	ip, r9
 627              	.LVL80:
 208:Drivers/CMSIS/DSP/Source/FilteringFunctions/arm_iir_lattice_q31.c **** 
 628              		.loc 1 208 10 view .LVU201
 629 0286 0192     		str	r2, [sp, #4]
 630              	.LVL81:
 631              	.L2:
  82:Drivers/CMSIS/DSP/Source/FilteringFunctions/arm_iir_lattice_q31.c ****   {
 632              		.loc 1 82 17 is_stmt 1 view .LVU202
 633 0288 009B     		ldr	r3, [sp]
 634 028a 002B     		cmp	r3, #0
 635 028c 40D0     		beq	.L13
  86:Drivers/CMSIS/DSP/Source/FilteringFunctions/arm_iir_lattice_q31.c **** 
 636              		.loc 1 86 5 view .LVU203
 637              	.LVL82:
  86:Drivers/CMSIS/DSP/Source/FilteringFunctions/arm_iir_lattice_q31.c **** 
 638              		.loc 1 86 11 is_stmt 0 view .LVU204
 639 028e 5EF8040B 		ldr	r0, [lr], #4
 640              	.LVL83:
  89:Drivers/CMSIS/DSP/Source/FilteringFunctions/arm_iir_lattice_q31.c ****     /* Initialize state write pointer */
 641              		.loc 1 89 5 is_stmt 1 view .LVU205
  91:Drivers/CMSIS/DSP/Source/FilteringFunctions/arm_iir_lattice_q31.c ****     /* Set accumulator to zero */
 642              		.loc 1 91 5 view .LVU206
  93:Drivers/CMSIS/DSP/Source/FilteringFunctions/arm_iir_lattice_q31.c ****     /* Initialize Ladder coeff pointer */
 643              		.loc 1 93 5 view .LVU207
  95:Drivers/CMSIS/DSP/Source/FilteringFunctions/arm_iir_lattice_q31.c ****     /* Initialize Reflection coeff pointer */
 644              		.loc 1 95 5 view .LVU208
  95:Drivers/CMSIS/DSP/Source/FilteringFunctions/arm_iir_lattice_q31.c ****     /* Initialize Reflection coeff pointer */
 645              		.loc 1 95 8 is_stmt 0 view .LVU209
 646 0292 069B     		ldr	r3, [sp, #24]
 647 0294 DC68     		ldr	r4, [r3, #12]
 648              	.LVL84:
  97:Drivers/CMSIS/DSP/Source/FilteringFunctions/arm_iir_lattice_q31.c **** 
 649              		.loc 1 97 5 is_stmt 1 view .LVU210
 101:Drivers/CMSIS/DSP/Source/FilteringFunctions/arm_iir_lattice_q31.c ****     /* fN-1(n) = fN(n) - kN * gN-1(n-1) */
 650              		.loc 1 101 5 view .LVU211
 101:Drivers/CMSIS/DSP/Source/FilteringFunctions/arm_iir_lattice_q31.c ****     /* fN-1(n) = fN(n) - kN * gN-1(n-1) */
 651              		.loc 1 101 17 is_stmt 0 view .LVU212
ARM GAS  /var/folders/n6/c271nzx11xl4r4_m7sqjlt0m0000gn/T//ccgmP6qh.s 			page 53


 652 0296 E146     		mov	r9, ip
 653              	.LVL85:
 101:Drivers/CMSIS/DSP/Source/FilteringFunctions/arm_iir_lattice_q31.c ****     /* fN-1(n) = fN(n) - kN * gN-1(n-1) */
 654              		.loc 1 101 11 view .LVU213
 655 0298 59F8042B 		ldr	r2, [r9], #4
 656              	.LVL86:
 103:Drivers/CMSIS/DSP/Source/FilteringFunctions/arm_iir_lattice_q31.c ****     /* gN(n) = kN * fN-1(n) + gN-1(n-1) */
 657              		.loc 1 103 5 is_stmt 1 view .LVU214
 103:Drivers/CMSIS/DSP/Source/FilteringFunctions/arm_iir_lattice_q31.c ****     /* gN(n) = kN * fN-1(n) + gN-1(n-1) */
 658              		.loc 1 103 37 is_stmt 0 view .LVU215
 659 029c D117     		asrs	r1, r2, #31
 103:Drivers/CMSIS/DSP/Source/FilteringFunctions/arm_iir_lattice_q31.c ****     /* gN(n) = kN * fN-1(n) + gN-1(n-1) */
 660              		.loc 1 103 54 view .LVU216
 661 029e 9E68     		ldr	r6, [r3, #8]
 662 02a0 56F8043B 		ldr	r3, [r6], #4
 663              	.LVL87:
 103:Drivers/CMSIS/DSP/Source/FilteringFunctions/arm_iir_lattice_q31.c ****     /* gN(n) = kN * fN-1(n) + gN-1(n-1) */
 664              		.loc 1 103 54 view .LVU217
 665 02a4 4FEAE37A 		asr	r10, r3, #31
 103:Drivers/CMSIS/DSP/Source/FilteringFunctions/arm_iir_lattice_q31.c ****     /* gN(n) = kN * fN-1(n) + gN-1(n-1) */
 666              		.loc 1 103 51 view .LVU218
 667 02a8 02FB0AF7 		mul	r7, r2, r10
 668 02ac 03FB0177 		mla	r7, r3, r1, r7
 669 02b0 A2FB0315 		umull	r1, r5, r2, r3
 670 02b4 3D44     		add	r5, r5, r7
 103:Drivers/CMSIS/DSP/Source/FilteringFunctions/arm_iir_lattice_q31.c ****     /* gN(n) = kN * fN-1(n) + gN-1(n-1) */
 671              		.loc 1 103 60 view .LVU219
 672 02b6 C90F     		lsrs	r1, r1, #31
 673 02b8 41EA4501 		orr	r1, r1, r5, lsl #1
 674              	.LVL88:
 675              	.LBB46:
 676              	.LBI46:
2038:Drivers/CMSIS/Include/cmsis_gcc.h **** {
 677              		.loc 2 2038 31 is_stmt 1 view .LVU220
 678              	.LBB47:
2040:Drivers/CMSIS/Include/cmsis_gcc.h **** 
 679              		.loc 2 2040 3 view .LVU221
2042:Drivers/CMSIS/Include/cmsis_gcc.h ****   return(result);
 680              		.loc 2 2042 3 view .LVU222
 681              		.syntax unified
 682              	@ 2042 "Drivers/CMSIS/Include/cmsis_gcc.h" 1
 683 02bc 81FAA0F0 		qsub r0, r0, r1
 684              	@ 0 "" 2
 685              	.LVL89:
 686              		.loc 2 2043 3 view .LVU223
 687              		.loc 2 2043 3 is_stmt 0 view .LVU224
 688              		.thumb
 689              		.syntax unified
 690              	.LBE47:
 691              	.LBE46:
 105:Drivers/CMSIS/DSP/Source/FilteringFunctions/arm_iir_lattice_q31.c ****     /* write gN-1(n-1) into state for next sample processing */
 692              		.loc 1 105 5 is_stmt 1 view .LVU225
 105:Drivers/CMSIS/DSP/Source/FilteringFunctions/arm_iir_lattice_q31.c ****     /* write gN-1(n-1) into state for next sample processing */
 693              		.loc 1 105 37 is_stmt 0 view .LVU226
 694 02c0 C117     		asrs	r1, r0, #31
 695              	.LVL90:
 105:Drivers/CMSIS/DSP/Source/FilteringFunctions/arm_iir_lattice_q31.c ****     /* write gN-1(n-1) into state for next sample processing */
ARM GAS  /var/folders/n6/c271nzx11xl4r4_m7sqjlt0m0000gn/T//ccgmP6qh.s 			page 54


 696              		.loc 1 105 51 view .LVU227
 697 02c2 03FB01F1 		mul	r1, r3, r1
 698 02c6 00FB0A11 		mla	r1, r0, r10, r1
 699 02ca A3FB0035 		umull	r3, r5, r3, r0
 700 02ce 0D44     		add	r5, r5, r1
 105:Drivers/CMSIS/DSP/Source/FilteringFunctions/arm_iir_lattice_q31.c ****     /* write gN-1(n-1) into state for next sample processing */
 701              		.loc 1 105 62 view .LVU228
 702 02d0 DB0F     		lsrs	r3, r3, #31
 703 02d2 43EA4503 		orr	r3, r3, r5, lsl #1
 704              	.LVL91:
 705              	.LBB48:
 706              	.LBI48:
2030:Drivers/CMSIS/Include/cmsis_gcc.h **** {
 707              		.loc 2 2030 31 is_stmt 1 view .LVU229
 708              	.LBB49:
2032:Drivers/CMSIS/Include/cmsis_gcc.h **** 
 709              		.loc 2 2032 3 view .LVU230
2034:Drivers/CMSIS/Include/cmsis_gcc.h ****   return(result);
 710              		.loc 2 2034 3 view .LVU231
 711              		.syntax unified
 712              	@ 2034 "Drivers/CMSIS/Include/cmsis_gcc.h" 1
 713 02d6 83FA82F1 		qadd r1, r2, r3
 714              	@ 0 "" 2
 715              	.LVL92:
2035:Drivers/CMSIS/Include/cmsis_gcc.h **** }
 716              		.loc 2 2035 3 view .LVU232
2035:Drivers/CMSIS/Include/cmsis_gcc.h **** }
 717              		.loc 2 2035 3 is_stmt 0 view .LVU233
 718              		.thumb
 719              		.syntax unified
 720              	.LBE49:
 721              	.LBE48:
 107:Drivers/CMSIS/DSP/Source/FilteringFunctions/arm_iir_lattice_q31.c ****     /* y(n) += gN(n) * vN  */
 722              		.loc 1 107 5 is_stmt 1 view .LVU234
 107:Drivers/CMSIS/DSP/Source/FilteringFunctions/arm_iir_lattice_q31.c ****     /* y(n) += gN(n) * vN  */
 723              		.loc 1 107 12 is_stmt 0 view .LVU235
 724 02da CCF80010 		str	r1, [ip]
 725              	.LVL93:
 109:Drivers/CMSIS/DSP/Source/FilteringFunctions/arm_iir_lattice_q31.c **** 
 726              		.loc 1 109 5 is_stmt 1 view .LVU236
 109:Drivers/CMSIS/DSP/Source/FilteringFunctions/arm_iir_lattice_q31.c **** 
 727              		.loc 1 109 13 is_stmt 0 view .LVU237
 728 02de CD17     		asrs	r5, r1, #31
 729              	.LVL94:
 109:Drivers/CMSIS/DSP/Source/FilteringFunctions/arm_iir_lattice_q31.c **** 
 730              		.loc 1 109 29 view .LVU238
 731 02e0 54F8043B 		ldr	r3, [r4], #4
 732              	.LVL95:
 109:Drivers/CMSIS/DSP/Source/FilteringFunctions/arm_iir_lattice_q31.c **** 
 733              		.loc 1 109 29 view .LVU239
 734 02e4 DA17     		asrs	r2, r3, #31
 735              	.LVL96:
 109:Drivers/CMSIS/DSP/Source/FilteringFunctions/arm_iir_lattice_q31.c **** 
 736              		.loc 1 109 27 view .LVU240
 737 02e6 01FB02F2 		mul	r2, r1, r2
 738 02ea 03FB0522 		mla	r2, r3, r5, r2
 739 02ee A1FB0331 		umull	r3, r1, r1, r3
ARM GAS  /var/folders/n6/c271nzx11xl4r4_m7sqjlt0m0000gn/T//ccgmP6qh.s 			page 55


 740              	.LVL97:
 109:Drivers/CMSIS/DSP/Source/FilteringFunctions/arm_iir_lattice_q31.c **** 
 741              		.loc 1 109 27 view .LVU241
 742 02f2 1144     		add	r1, r1, r2
 743              	.LVL98:
 112:Drivers/CMSIS/DSP/Source/FilteringFunctions/arm_iir_lattice_q31.c **** 
 744              		.loc 1 112 5 is_stmt 1 view .LVU242
 115:Drivers/CMSIS/DSP/Source/FilteringFunctions/arm_iir_lattice_q31.c **** 
 745              		.loc 1 115 5 view .LVU243
 115:Drivers/CMSIS/DSP/Source/FilteringFunctions/arm_iir_lattice_q31.c **** 
 746              		.loc 1 115 25 is_stmt 0 view .LVU244
 747 02f4 059A     		ldr	r2, [sp, #20]
 748 02f6 02F1FF3A 		add	r10, r2, #-1
 115:Drivers/CMSIS/DSP/Source/FilteringFunctions/arm_iir_lattice_q31.c **** 
 749              		.loc 1 115 12 view .LVU245
 750 02fa 4FEA9A07 		lsr	r7, r10, #2
 751              	.LVL99:
 117:Drivers/CMSIS/DSP/Source/FilteringFunctions/arm_iir_lattice_q31.c ****     {
 752              		.loc 1 117 5 is_stmt 1 view .LVU246
 107:Drivers/CMSIS/DSP/Source/FilteringFunctions/arm_iir_lattice_q31.c ****     /* y(n) += gN(n) * vN  */
 753              		.loc 1 107 9 is_stmt 0 view .LVU247
 754 02fe 4D46     		mov	r5, r9
 101:Drivers/CMSIS/DSP/Source/FilteringFunctions/arm_iir_lattice_q31.c ****     /* fN-1(n) = fN(n) - kN * gN-1(n-1) */
 755              		.loc 1 101 17 view .LVU248
 756 0300 CC46     		mov	ip, r9
 757              	.LVL100:
 101:Drivers/CMSIS/DSP/Source/FilteringFunctions/arm_iir_lattice_q31.c ****     /* fN-1(n) = fN(n) - kN * gN-1(n-1) */
 758              		.loc 1 101 17 view .LVU249
 759 0302 CDF808A0 		str	r10, [sp, #8]
 760 0306 CDF80CE0 		str	lr, [sp, #12]
 761 030a CDF81090 		str	r9, [sp, #16]
 117:Drivers/CMSIS/DSP/Source/FilteringFunctions/arm_iir_lattice_q31.c ****     {
 762              		.loc 1 117 11 view .LVU250
 763 030e 53E7     		b	.L3
 764              	.LVL101:
 765              	.L13:
 213:Drivers/CMSIS/DSP/Source/FilteringFunctions/arm_iir_lattice_q31.c **** 
 214:Drivers/CMSIS/DSP/Source/FilteringFunctions/arm_iir_lattice_q31.c ****   }
 215:Drivers/CMSIS/DSP/Source/FilteringFunctions/arm_iir_lattice_q31.c **** 
 216:Drivers/CMSIS/DSP/Source/FilteringFunctions/arm_iir_lattice_q31.c ****   /* Processing is complete. Now copy last S->numStages samples to start of the buffer
 217:Drivers/CMSIS/DSP/Source/FilteringFunctions/arm_iir_lattice_q31.c ****      for the preperation of next frame process */
 218:Drivers/CMSIS/DSP/Source/FilteringFunctions/arm_iir_lattice_q31.c **** 
 219:Drivers/CMSIS/DSP/Source/FilteringFunctions/arm_iir_lattice_q31.c ****   /* Points to the start of the state buffer */
 220:Drivers/CMSIS/DSP/Source/FilteringFunctions/arm_iir_lattice_q31.c ****   pStateCurnt = &S->pState[0];
 766              		.loc 1 220 15 view .LVU251
 767 0310 DDF81890 		ldr	r9, [sp, #24]
 768 0314 079A     		ldr	r2, [sp, #28]
 769              		.loc 1 220 3 is_stmt 1 view .LVU252
 770              		.loc 1 220 15 is_stmt 0 view .LVU253
 771 0316 D9F80430 		ldr	r3, [r9, #4]
 772              	.LVL102:
 221:Drivers/CMSIS/DSP/Source/FilteringFunctions/arm_iir_lattice_q31.c ****   pState = &S->pState[blockSize];
 773              		.loc 1 221 3 is_stmt 1 view .LVU254
 774              		.loc 1 221 10 is_stmt 0 view .LVU255
 775 031a 03EB8202 		add	r2, r3, r2, lsl #2
 776              	.LVL103:
 222:Drivers/CMSIS/DSP/Source/FilteringFunctions/arm_iir_lattice_q31.c **** 
ARM GAS  /var/folders/n6/c271nzx11xl4r4_m7sqjlt0m0000gn/T//ccgmP6qh.s 			page 56


 223:Drivers/CMSIS/DSP/Source/FilteringFunctions/arm_iir_lattice_q31.c ****   tapCnt = numStages >> 2U;
 777              		.loc 1 223 3 is_stmt 1 view .LVU256
 778              		.loc 1 223 10 is_stmt 0 view .LVU257
 779 031e 0599     		ldr	r1, [sp, #20]
 780 0320 8908     		lsrs	r1, r1, #2
 781              	.LVL104:
 224:Drivers/CMSIS/DSP/Source/FilteringFunctions/arm_iir_lattice_q31.c **** 
 225:Drivers/CMSIS/DSP/Source/FilteringFunctions/arm_iir_lattice_q31.c ****   /* copy data */
 226:Drivers/CMSIS/DSP/Source/FilteringFunctions/arm_iir_lattice_q31.c ****   while (tapCnt > 0U)
 782              		.loc 1 226 3 is_stmt 1 view .LVU258
 783              		.loc 1 226 9 is_stmt 0 view .LVU259
 784 0322 0AE0     		b	.L8
 785              	.L9:
 227:Drivers/CMSIS/DSP/Source/FilteringFunctions/arm_iir_lattice_q31.c ****   {
 228:Drivers/CMSIS/DSP/Source/FilteringFunctions/arm_iir_lattice_q31.c ****     *pStateCurnt++ = *pState++;
 786              		.loc 1 228 5 is_stmt 1 view .LVU260
 787              	.LVL105:
 788              		.loc 1 228 22 is_stmt 0 view .LVU261
 789 0324 1068     		ldr	r0, [r2]
 790              		.loc 1 228 20 view .LVU262
 791 0326 1860     		str	r0, [r3]
 229:Drivers/CMSIS/DSP/Source/FilteringFunctions/arm_iir_lattice_q31.c ****     *pStateCurnt++ = *pState++;
 792              		.loc 1 229 5 is_stmt 1 view .LVU263
 793              	.LVL106:
 794              		.loc 1 229 22 is_stmt 0 view .LVU264
 795 0328 5068     		ldr	r0, [r2, #4]
 796              		.loc 1 229 20 view .LVU265
 797 032a 5860     		str	r0, [r3, #4]
 230:Drivers/CMSIS/DSP/Source/FilteringFunctions/arm_iir_lattice_q31.c ****     *pStateCurnt++ = *pState++;
 798              		.loc 1 230 5 is_stmt 1 view .LVU266
 799              	.LVL107:
 800              		.loc 1 230 22 is_stmt 0 view .LVU267
 801 032c 9068     		ldr	r0, [r2, #8]
 802              		.loc 1 230 20 view .LVU268
 803 032e 9860     		str	r0, [r3, #8]
 231:Drivers/CMSIS/DSP/Source/FilteringFunctions/arm_iir_lattice_q31.c ****     *pStateCurnt++ = *pState++;
 804              		.loc 1 231 5 is_stmt 1 view .LVU269
 805              	.LVL108:
 806              		.loc 1 231 22 is_stmt 0 view .LVU270
 807 0330 D068     		ldr	r0, [r2, #12]
 808              		.loc 1 231 20 view .LVU271
 809 0332 D860     		str	r0, [r3, #12]
 232:Drivers/CMSIS/DSP/Source/FilteringFunctions/arm_iir_lattice_q31.c **** 
 233:Drivers/CMSIS/DSP/Source/FilteringFunctions/arm_iir_lattice_q31.c ****     /* Decrement the loop counter */
 234:Drivers/CMSIS/DSP/Source/FilteringFunctions/arm_iir_lattice_q31.c ****     tapCnt--;
 810              		.loc 1 234 5 is_stmt 1 view .LVU272
 811              		.loc 1 234 11 is_stmt 0 view .LVU273
 812 0334 0139     		subs	r1, r1, #1
 813              	.LVL109:
 231:Drivers/CMSIS/DSP/Source/FilteringFunctions/arm_iir_lattice_q31.c ****     *pStateCurnt++ = *pState++;
 814              		.loc 1 231 17 view .LVU274
 815 0336 1033     		adds	r3, r3, #16
 816              	.LVL110:
 231:Drivers/CMSIS/DSP/Source/FilteringFunctions/arm_iir_lattice_q31.c ****     *pStateCurnt++ = *pState++;
 817              		.loc 1 231 29 view .LVU275
 818 0338 1032     		adds	r2, r2, #16
 819              	.LVL111:
ARM GAS  /var/folders/n6/c271nzx11xl4r4_m7sqjlt0m0000gn/T//ccgmP6qh.s 			page 57


 820              	.L8:
 226:Drivers/CMSIS/DSP/Source/FilteringFunctions/arm_iir_lattice_q31.c ****   {
 821              		.loc 1 226 17 is_stmt 1 view .LVU276
 822 033a 0029     		cmp	r1, #0
 823 033c F2D1     		bne	.L9
 235:Drivers/CMSIS/DSP/Source/FilteringFunctions/arm_iir_lattice_q31.c **** 
 236:Drivers/CMSIS/DSP/Source/FilteringFunctions/arm_iir_lattice_q31.c ****   }
 237:Drivers/CMSIS/DSP/Source/FilteringFunctions/arm_iir_lattice_q31.c **** 
 238:Drivers/CMSIS/DSP/Source/FilteringFunctions/arm_iir_lattice_q31.c ****   /* Calculate remaining number of copies */
 239:Drivers/CMSIS/DSP/Source/FilteringFunctions/arm_iir_lattice_q31.c ****   tapCnt = (numStages) % 0x4U;
 824              		.loc 1 239 3 view .LVU277
 825              		.loc 1 239 10 is_stmt 0 view .LVU278
 826 033e 0599     		ldr	r1, [sp, #20]
 827              	.LVL112:
 828              		.loc 1 239 10 view .LVU279
 829 0340 01F00301 		and	r1, r1, #3
 830              	.LVL113:
 240:Drivers/CMSIS/DSP/Source/FilteringFunctions/arm_iir_lattice_q31.c **** 
 241:Drivers/CMSIS/DSP/Source/FilteringFunctions/arm_iir_lattice_q31.c ****   /* Copy the remaining q31_t data */
 242:Drivers/CMSIS/DSP/Source/FilteringFunctions/arm_iir_lattice_q31.c ****   while (tapCnt > 0U)
 831              		.loc 1 242 3 is_stmt 1 view .LVU280
 832              		.loc 1 242 9 is_stmt 0 view .LVU281
 833 0344 04E0     		b	.L10
 834              	.L11:
 243:Drivers/CMSIS/DSP/Source/FilteringFunctions/arm_iir_lattice_q31.c ****   {
 244:Drivers/CMSIS/DSP/Source/FilteringFunctions/arm_iir_lattice_q31.c ****     *pStateCurnt++ = *pState++;
 835              		.loc 1 244 5 is_stmt 1 view .LVU282
 836              	.LVL114:
 837              		.loc 1 244 22 is_stmt 0 view .LVU283
 838 0346 52F8040B 		ldr	r0, [r2], #4
 839              	.LVL115:
 840              		.loc 1 244 20 view .LVU284
 841 034a 43F8040B 		str	r0, [r3], #4
 842              	.LVL116:
 245:Drivers/CMSIS/DSP/Source/FilteringFunctions/arm_iir_lattice_q31.c **** 
 246:Drivers/CMSIS/DSP/Source/FilteringFunctions/arm_iir_lattice_q31.c ****     /* Decrement the loop counter */
 247:Drivers/CMSIS/DSP/Source/FilteringFunctions/arm_iir_lattice_q31.c ****     tapCnt--;
 843              		.loc 1 247 5 is_stmt 1 view .LVU285
 844              		.loc 1 247 11 is_stmt 0 view .LVU286
 845 034e 0139     		subs	r1, r1, #1
 846              	.LVL117:
 847              	.L10:
 242:Drivers/CMSIS/DSP/Source/FilteringFunctions/arm_iir_lattice_q31.c ****   {
 848              		.loc 1 242 17 is_stmt 1 view .LVU287
 849 0350 0029     		cmp	r1, #0
 850 0352 F8D1     		bne	.L11
 248:Drivers/CMSIS/DSP/Source/FilteringFunctions/arm_iir_lattice_q31.c ****   };
 249:Drivers/CMSIS/DSP/Source/FilteringFunctions/arm_iir_lattice_q31.c **** 
 250:Drivers/CMSIS/DSP/Source/FilteringFunctions/arm_iir_lattice_q31.c **** #else
 251:Drivers/CMSIS/DSP/Source/FilteringFunctions/arm_iir_lattice_q31.c **** 
 252:Drivers/CMSIS/DSP/Source/FilteringFunctions/arm_iir_lattice_q31.c ****   /* Run the below code for Cortex-M0 */
 253:Drivers/CMSIS/DSP/Source/FilteringFunctions/arm_iir_lattice_q31.c ****   /* Sample processing */
 254:Drivers/CMSIS/DSP/Source/FilteringFunctions/arm_iir_lattice_q31.c ****   while (blkCnt > 0U)
 255:Drivers/CMSIS/DSP/Source/FilteringFunctions/arm_iir_lattice_q31.c ****   {
 256:Drivers/CMSIS/DSP/Source/FilteringFunctions/arm_iir_lattice_q31.c ****     /* Read Sample from input buffer */
 257:Drivers/CMSIS/DSP/Source/FilteringFunctions/arm_iir_lattice_q31.c ****     /* fN(n) = x(n) */
 258:Drivers/CMSIS/DSP/Source/FilteringFunctions/arm_iir_lattice_q31.c ****     fcurr = *pSrc++;
ARM GAS  /var/folders/n6/c271nzx11xl4r4_m7sqjlt0m0000gn/T//ccgmP6qh.s 			page 58


 259:Drivers/CMSIS/DSP/Source/FilteringFunctions/arm_iir_lattice_q31.c **** 
 260:Drivers/CMSIS/DSP/Source/FilteringFunctions/arm_iir_lattice_q31.c ****     /* Initialize state read pointer */
 261:Drivers/CMSIS/DSP/Source/FilteringFunctions/arm_iir_lattice_q31.c ****     px1 = pState;
 262:Drivers/CMSIS/DSP/Source/FilteringFunctions/arm_iir_lattice_q31.c ****     /* Initialize state write pointer */
 263:Drivers/CMSIS/DSP/Source/FilteringFunctions/arm_iir_lattice_q31.c ****     px2 = pState;
 264:Drivers/CMSIS/DSP/Source/FilteringFunctions/arm_iir_lattice_q31.c ****     /* Set accumulator to zero */
 265:Drivers/CMSIS/DSP/Source/FilteringFunctions/arm_iir_lattice_q31.c ****     acc = 0;
 266:Drivers/CMSIS/DSP/Source/FilteringFunctions/arm_iir_lattice_q31.c ****     /* Initialize Ladder coeff pointer */
 267:Drivers/CMSIS/DSP/Source/FilteringFunctions/arm_iir_lattice_q31.c ****     pv = &S->pvCoeffs[0];
 268:Drivers/CMSIS/DSP/Source/FilteringFunctions/arm_iir_lattice_q31.c ****     /* Initialize Reflection coeff pointer */
 269:Drivers/CMSIS/DSP/Source/FilteringFunctions/arm_iir_lattice_q31.c ****     pk = &S->pkCoeffs[0];
 270:Drivers/CMSIS/DSP/Source/FilteringFunctions/arm_iir_lattice_q31.c **** 
 271:Drivers/CMSIS/DSP/Source/FilteringFunctions/arm_iir_lattice_q31.c ****     tapCnt = numStages;
 272:Drivers/CMSIS/DSP/Source/FilteringFunctions/arm_iir_lattice_q31.c **** 
 273:Drivers/CMSIS/DSP/Source/FilteringFunctions/arm_iir_lattice_q31.c ****     while (tapCnt > 0U)
 274:Drivers/CMSIS/DSP/Source/FilteringFunctions/arm_iir_lattice_q31.c ****     {
 275:Drivers/CMSIS/DSP/Source/FilteringFunctions/arm_iir_lattice_q31.c ****       gcurr = *px1++;
 276:Drivers/CMSIS/DSP/Source/FilteringFunctions/arm_iir_lattice_q31.c ****       /* Process sample */
 277:Drivers/CMSIS/DSP/Source/FilteringFunctions/arm_iir_lattice_q31.c ****       /* fN-1(n) = fN(n) - kN * gN-1(n-1) */
 278:Drivers/CMSIS/DSP/Source/FilteringFunctions/arm_iir_lattice_q31.c ****       fnext =
 279:Drivers/CMSIS/DSP/Source/FilteringFunctions/arm_iir_lattice_q31.c ****         clip_q63_to_q31(((q63_t) fcurr -
 280:Drivers/CMSIS/DSP/Source/FilteringFunctions/arm_iir_lattice_q31.c ****                          ((q31_t) (((q63_t) gcurr * (*pk)) >> 31))));
 281:Drivers/CMSIS/DSP/Source/FilteringFunctions/arm_iir_lattice_q31.c ****       /* gN(n) = kN * fN-1(n) + gN-1(n-1) */
 282:Drivers/CMSIS/DSP/Source/FilteringFunctions/arm_iir_lattice_q31.c ****       gnext =
 283:Drivers/CMSIS/DSP/Source/FilteringFunctions/arm_iir_lattice_q31.c ****         clip_q63_to_q31(((q63_t) gcurr +
 284:Drivers/CMSIS/DSP/Source/FilteringFunctions/arm_iir_lattice_q31.c ****                          ((q31_t) (((q63_t) fnext * (*pk++)) >> 31))));
 285:Drivers/CMSIS/DSP/Source/FilteringFunctions/arm_iir_lattice_q31.c ****       /* Output samples */
 286:Drivers/CMSIS/DSP/Source/FilteringFunctions/arm_iir_lattice_q31.c ****       /* y(n) += gN(n) * vN  */
 287:Drivers/CMSIS/DSP/Source/FilteringFunctions/arm_iir_lattice_q31.c ****       acc += ((q63_t) gnext * *pv++);
 288:Drivers/CMSIS/DSP/Source/FilteringFunctions/arm_iir_lattice_q31.c ****       /* write gN-1(n-1) into state for next sample processing */
 289:Drivers/CMSIS/DSP/Source/FilteringFunctions/arm_iir_lattice_q31.c ****       *px2++ = gnext;
 290:Drivers/CMSIS/DSP/Source/FilteringFunctions/arm_iir_lattice_q31.c ****       /* Update f values for next coefficient processing */
 291:Drivers/CMSIS/DSP/Source/FilteringFunctions/arm_iir_lattice_q31.c ****       fcurr = fnext;
 292:Drivers/CMSIS/DSP/Source/FilteringFunctions/arm_iir_lattice_q31.c **** 
 293:Drivers/CMSIS/DSP/Source/FilteringFunctions/arm_iir_lattice_q31.c ****       tapCnt--;
 294:Drivers/CMSIS/DSP/Source/FilteringFunctions/arm_iir_lattice_q31.c ****     }
 295:Drivers/CMSIS/DSP/Source/FilteringFunctions/arm_iir_lattice_q31.c **** 
 296:Drivers/CMSIS/DSP/Source/FilteringFunctions/arm_iir_lattice_q31.c ****     /* y(n) += g0(n) * v0 */
 297:Drivers/CMSIS/DSP/Source/FilteringFunctions/arm_iir_lattice_q31.c ****     acc += (q63_t) fnext *(
 298:Drivers/CMSIS/DSP/Source/FilteringFunctions/arm_iir_lattice_q31.c ****   *pv++);
 299:Drivers/CMSIS/DSP/Source/FilteringFunctions/arm_iir_lattice_q31.c **** 
 300:Drivers/CMSIS/DSP/Source/FilteringFunctions/arm_iir_lattice_q31.c ****     *px2++ = fnext;
 301:Drivers/CMSIS/DSP/Source/FilteringFunctions/arm_iir_lattice_q31.c **** 
 302:Drivers/CMSIS/DSP/Source/FilteringFunctions/arm_iir_lattice_q31.c ****     /* write out into pDst */
 303:Drivers/CMSIS/DSP/Source/FilteringFunctions/arm_iir_lattice_q31.c ****     *pDst++ = (q31_t) (acc >> 31U);
 304:Drivers/CMSIS/DSP/Source/FilteringFunctions/arm_iir_lattice_q31.c **** 
 305:Drivers/CMSIS/DSP/Source/FilteringFunctions/arm_iir_lattice_q31.c ****     /* Advance the state pointer by 1 to process the next group of samples */
 306:Drivers/CMSIS/DSP/Source/FilteringFunctions/arm_iir_lattice_q31.c ****     pState = pState + 1U;
 307:Drivers/CMSIS/DSP/Source/FilteringFunctions/arm_iir_lattice_q31.c ****     blkCnt--;
 308:Drivers/CMSIS/DSP/Source/FilteringFunctions/arm_iir_lattice_q31.c **** 
 309:Drivers/CMSIS/DSP/Source/FilteringFunctions/arm_iir_lattice_q31.c ****   }
 310:Drivers/CMSIS/DSP/Source/FilteringFunctions/arm_iir_lattice_q31.c **** 
 311:Drivers/CMSIS/DSP/Source/FilteringFunctions/arm_iir_lattice_q31.c ****   /* Processing is complete. Now copy last S->numStages samples to start of the buffer
 312:Drivers/CMSIS/DSP/Source/FilteringFunctions/arm_iir_lattice_q31.c ****      for the preperation of next frame process */
 313:Drivers/CMSIS/DSP/Source/FilteringFunctions/arm_iir_lattice_q31.c **** 
 314:Drivers/CMSIS/DSP/Source/FilteringFunctions/arm_iir_lattice_q31.c ****   /* Points to the start of the state buffer */
 315:Drivers/CMSIS/DSP/Source/FilteringFunctions/arm_iir_lattice_q31.c ****   pStateCurnt = &S->pState[0];
ARM GAS  /var/folders/n6/c271nzx11xl4r4_m7sqjlt0m0000gn/T//ccgmP6qh.s 			page 59


 316:Drivers/CMSIS/DSP/Source/FilteringFunctions/arm_iir_lattice_q31.c ****   pState = &S->pState[blockSize];
 317:Drivers/CMSIS/DSP/Source/FilteringFunctions/arm_iir_lattice_q31.c **** 
 318:Drivers/CMSIS/DSP/Source/FilteringFunctions/arm_iir_lattice_q31.c ****   tapCnt = numStages;
 319:Drivers/CMSIS/DSP/Source/FilteringFunctions/arm_iir_lattice_q31.c **** 
 320:Drivers/CMSIS/DSP/Source/FilteringFunctions/arm_iir_lattice_q31.c ****   /* Copy the remaining q31_t data */
 321:Drivers/CMSIS/DSP/Source/FilteringFunctions/arm_iir_lattice_q31.c ****   while (tapCnt > 0U)
 322:Drivers/CMSIS/DSP/Source/FilteringFunctions/arm_iir_lattice_q31.c ****   {
 323:Drivers/CMSIS/DSP/Source/FilteringFunctions/arm_iir_lattice_q31.c ****     *pStateCurnt++ = *pState++;
 324:Drivers/CMSIS/DSP/Source/FilteringFunctions/arm_iir_lattice_q31.c **** 
 325:Drivers/CMSIS/DSP/Source/FilteringFunctions/arm_iir_lattice_q31.c ****     /* Decrement the loop counter */
 326:Drivers/CMSIS/DSP/Source/FilteringFunctions/arm_iir_lattice_q31.c ****     tapCnt--;
 327:Drivers/CMSIS/DSP/Source/FilteringFunctions/arm_iir_lattice_q31.c ****   }
 328:Drivers/CMSIS/DSP/Source/FilteringFunctions/arm_iir_lattice_q31.c **** 
 329:Drivers/CMSIS/DSP/Source/FilteringFunctions/arm_iir_lattice_q31.c **** #endif /*   #if defined (ARM_MATH_DSP) */
 330:Drivers/CMSIS/DSP/Source/FilteringFunctions/arm_iir_lattice_q31.c **** 
 331:Drivers/CMSIS/DSP/Source/FilteringFunctions/arm_iir_lattice_q31.c **** }
 851              		.loc 1 331 1 is_stmt 0 view .LVU288
 852 0354 09B0     		add	sp, sp, #36
 853              		.cfi_def_cfa_offset 36
 854              	.LVL118:
 855              		.loc 1 331 1 view .LVU289
 856              		@ sp needed
 857 0356 BDE8F08F 		pop	{r4, r5, r6, r7, r8, r9, r10, fp, pc}
 858              		.loc 1 331 1 view .LVU290
 859              		.cfi_endproc
 860              	.LFE135:
 862              		.text
 863              	.Letext0:
 864              		.file 3 "/Users/killian/Library/Application Support/Code/User/globalStorage/bmd.stm32-for-vscode/@
 865              		.file 4 "/Users/killian/Library/Application Support/Code/User/globalStorage/bmd.stm32-for-vscode/@
 866              		.file 5 "Drivers/CMSIS/DSP/Include/arm_math.h"
ARM GAS  /var/folders/n6/c271nzx11xl4r4_m7sqjlt0m0000gn/T//ccgmP6qh.s 			page 60

