ARM GAS  /var/folders/n6/c271nzx11xl4r4_m7sqjlt0m0000gn/T//ccHq3Xre.s 			page 1


   1              		.cpu cortex-m7
   2              		.arch armv7e-m
   3              		.fpu fpv5-d16
   4              		.eabi_attribute 28, 1
   5              		.eabi_attribute 20, 1
   6              		.eabi_attribute 21, 1
   7              		.eabi_attribute 23, 3
   8              		.eabi_attribute 24, 1
   9              		.eabi_attribute 25, 1
  10              		.eabi_attribute 26, 1
  11              		.eabi_attribute 30, 1
  12              		.eabi_attribute 34, 1
  13              		.eabi_attribute 18, 4
  14              		.file	"arm_cfft_radix4_f32.c"
  15              		.text
  16              	.Ltext0:
  17              		.cfi_sections	.debug_frame
  18              		.file 1 "Drivers/CMSIS/DSP/Source/TransformFunctions/arm_cfft_radix4_f32.c"
  19              		.section	.text.arm_radix4_butterfly_f32,"ax",%progbits
  20              		.align	1
  21              		.global	arm_radix4_butterfly_f32
  22              		.syntax unified
  23              		.thumb
  24              		.thumb_func
  26              	arm_radix4_butterfly_f32:
  27              	.LVL0:
  28              	.LFB136:
   1:Drivers/CMSIS/DSP/Source/TransformFunctions/arm_cfft_radix4_f32.c **** /* ----------------------------------------------------------------------
   2:Drivers/CMSIS/DSP/Source/TransformFunctions/arm_cfft_radix4_f32.c ****  * Project:      CMSIS DSP Library
   3:Drivers/CMSIS/DSP/Source/TransformFunctions/arm_cfft_radix4_f32.c ****  * Title:        arm_cfft_radix4_f32.c
   4:Drivers/CMSIS/DSP/Source/TransformFunctions/arm_cfft_radix4_f32.c ****  * Description:  Radix-4 Decimation in Frequency CFFT & CIFFT Floating point processing function
   5:Drivers/CMSIS/DSP/Source/TransformFunctions/arm_cfft_radix4_f32.c ****  *
   6:Drivers/CMSIS/DSP/Source/TransformFunctions/arm_cfft_radix4_f32.c ****  * $Date:        27. January 2017
   7:Drivers/CMSIS/DSP/Source/TransformFunctions/arm_cfft_radix4_f32.c ****  * $Revision:    V.1.5.1
   8:Drivers/CMSIS/DSP/Source/TransformFunctions/arm_cfft_radix4_f32.c ****  *
   9:Drivers/CMSIS/DSP/Source/TransformFunctions/arm_cfft_radix4_f32.c ****  * Target Processor: Cortex-M cores
  10:Drivers/CMSIS/DSP/Source/TransformFunctions/arm_cfft_radix4_f32.c ****  * -------------------------------------------------------------------- */
  11:Drivers/CMSIS/DSP/Source/TransformFunctions/arm_cfft_radix4_f32.c **** /*
  12:Drivers/CMSIS/DSP/Source/TransformFunctions/arm_cfft_radix4_f32.c ****  * Copyright (C) 2010-2017 ARM Limited or its affiliates. All rights reserved.
  13:Drivers/CMSIS/DSP/Source/TransformFunctions/arm_cfft_radix4_f32.c ****  *
  14:Drivers/CMSIS/DSP/Source/TransformFunctions/arm_cfft_radix4_f32.c ****  * SPDX-License-Identifier: Apache-2.0
  15:Drivers/CMSIS/DSP/Source/TransformFunctions/arm_cfft_radix4_f32.c ****  *
  16:Drivers/CMSIS/DSP/Source/TransformFunctions/arm_cfft_radix4_f32.c ****  * Licensed under the Apache License, Version 2.0 (the License); you may
  17:Drivers/CMSIS/DSP/Source/TransformFunctions/arm_cfft_radix4_f32.c ****  * not use this file except in compliance with the License.
  18:Drivers/CMSIS/DSP/Source/TransformFunctions/arm_cfft_radix4_f32.c ****  * You may obtain a copy of the License at
  19:Drivers/CMSIS/DSP/Source/TransformFunctions/arm_cfft_radix4_f32.c ****  *
  20:Drivers/CMSIS/DSP/Source/TransformFunctions/arm_cfft_radix4_f32.c ****  * www.apache.org/licenses/LICENSE-2.0
  21:Drivers/CMSIS/DSP/Source/TransformFunctions/arm_cfft_radix4_f32.c ****  *
  22:Drivers/CMSIS/DSP/Source/TransformFunctions/arm_cfft_radix4_f32.c ****  * Unless required by applicable law or agreed to in writing, software
  23:Drivers/CMSIS/DSP/Source/TransformFunctions/arm_cfft_radix4_f32.c ****  * distributed under the License is distributed on an AS IS BASIS, WITHOUT
  24:Drivers/CMSIS/DSP/Source/TransformFunctions/arm_cfft_radix4_f32.c ****  * WARRANTIES OR CONDITIONS OF ANY KIND, either express or implied.
  25:Drivers/CMSIS/DSP/Source/TransformFunctions/arm_cfft_radix4_f32.c ****  * See the License for the specific language governing permissions and
  26:Drivers/CMSIS/DSP/Source/TransformFunctions/arm_cfft_radix4_f32.c ****  * limitations under the License.
  27:Drivers/CMSIS/DSP/Source/TransformFunctions/arm_cfft_radix4_f32.c ****  */
  28:Drivers/CMSIS/DSP/Source/TransformFunctions/arm_cfft_radix4_f32.c **** 
  29:Drivers/CMSIS/DSP/Source/TransformFunctions/arm_cfft_radix4_f32.c **** #include "arm_math.h"
  30:Drivers/CMSIS/DSP/Source/TransformFunctions/arm_cfft_radix4_f32.c **** 
ARM GAS  /var/folders/n6/c271nzx11xl4r4_m7sqjlt0m0000gn/T//ccHq3Xre.s 			page 2


  31:Drivers/CMSIS/DSP/Source/TransformFunctions/arm_cfft_radix4_f32.c **** extern void arm_bitreversal_f32(
  32:Drivers/CMSIS/DSP/Source/TransformFunctions/arm_cfft_radix4_f32.c **** float32_t * pSrc,
  33:Drivers/CMSIS/DSP/Source/TransformFunctions/arm_cfft_radix4_f32.c **** uint16_t fftSize,
  34:Drivers/CMSIS/DSP/Source/TransformFunctions/arm_cfft_radix4_f32.c **** uint16_t bitRevFactor,
  35:Drivers/CMSIS/DSP/Source/TransformFunctions/arm_cfft_radix4_f32.c **** uint16_t * pBitRevTab);
  36:Drivers/CMSIS/DSP/Source/TransformFunctions/arm_cfft_radix4_f32.c **** 
  37:Drivers/CMSIS/DSP/Source/TransformFunctions/arm_cfft_radix4_f32.c **** void arm_radix4_butterfly_f32(
  38:Drivers/CMSIS/DSP/Source/TransformFunctions/arm_cfft_radix4_f32.c **** float32_t * pSrc,
  39:Drivers/CMSIS/DSP/Source/TransformFunctions/arm_cfft_radix4_f32.c **** uint16_t fftLen,
  40:Drivers/CMSIS/DSP/Source/TransformFunctions/arm_cfft_radix4_f32.c **** float32_t * pCoef,
  41:Drivers/CMSIS/DSP/Source/TransformFunctions/arm_cfft_radix4_f32.c **** uint16_t twidCoefModifier);
  42:Drivers/CMSIS/DSP/Source/TransformFunctions/arm_cfft_radix4_f32.c **** 
  43:Drivers/CMSIS/DSP/Source/TransformFunctions/arm_cfft_radix4_f32.c **** void arm_radix4_butterfly_inverse_f32(
  44:Drivers/CMSIS/DSP/Source/TransformFunctions/arm_cfft_radix4_f32.c **** float32_t * pSrc,
  45:Drivers/CMSIS/DSP/Source/TransformFunctions/arm_cfft_radix4_f32.c **** uint16_t fftLen,
  46:Drivers/CMSIS/DSP/Source/TransformFunctions/arm_cfft_radix4_f32.c **** float32_t * pCoef,
  47:Drivers/CMSIS/DSP/Source/TransformFunctions/arm_cfft_radix4_f32.c **** uint16_t twidCoefModifier,
  48:Drivers/CMSIS/DSP/Source/TransformFunctions/arm_cfft_radix4_f32.c **** float32_t onebyfftLen);
  49:Drivers/CMSIS/DSP/Source/TransformFunctions/arm_cfft_radix4_f32.c **** 
  50:Drivers/CMSIS/DSP/Source/TransformFunctions/arm_cfft_radix4_f32.c **** 
  51:Drivers/CMSIS/DSP/Source/TransformFunctions/arm_cfft_radix4_f32.c **** /**
  52:Drivers/CMSIS/DSP/Source/TransformFunctions/arm_cfft_radix4_f32.c **** * @ingroup groupTransforms
  53:Drivers/CMSIS/DSP/Source/TransformFunctions/arm_cfft_radix4_f32.c **** */
  54:Drivers/CMSIS/DSP/Source/TransformFunctions/arm_cfft_radix4_f32.c **** 
  55:Drivers/CMSIS/DSP/Source/TransformFunctions/arm_cfft_radix4_f32.c **** /**
  56:Drivers/CMSIS/DSP/Source/TransformFunctions/arm_cfft_radix4_f32.c **** * @addtogroup ComplexFFT
  57:Drivers/CMSIS/DSP/Source/TransformFunctions/arm_cfft_radix4_f32.c **** * @{
  58:Drivers/CMSIS/DSP/Source/TransformFunctions/arm_cfft_radix4_f32.c **** */
  59:Drivers/CMSIS/DSP/Source/TransformFunctions/arm_cfft_radix4_f32.c **** 
  60:Drivers/CMSIS/DSP/Source/TransformFunctions/arm_cfft_radix4_f32.c **** /**
  61:Drivers/CMSIS/DSP/Source/TransformFunctions/arm_cfft_radix4_f32.c **** * @details
  62:Drivers/CMSIS/DSP/Source/TransformFunctions/arm_cfft_radix4_f32.c **** * @brief Processing function for the floating-point Radix-4 CFFT/CIFFT.
  63:Drivers/CMSIS/DSP/Source/TransformFunctions/arm_cfft_radix4_f32.c **** * @deprecated Do not use this function.  It has been superseded by \ref arm_cfft_f32 and will be re
  64:Drivers/CMSIS/DSP/Source/TransformFunctions/arm_cfft_radix4_f32.c **** * in the future.
  65:Drivers/CMSIS/DSP/Source/TransformFunctions/arm_cfft_radix4_f32.c **** * @param[in]      *S    points to an instance of the floating-point Radix-4 CFFT/CIFFT structure.
  66:Drivers/CMSIS/DSP/Source/TransformFunctions/arm_cfft_radix4_f32.c **** * @param[in, out] *pSrc points to the complex data buffer of size <code>2*fftLen</code>. Processing
  67:Drivers/CMSIS/DSP/Source/TransformFunctions/arm_cfft_radix4_f32.c **** * @return none.
  68:Drivers/CMSIS/DSP/Source/TransformFunctions/arm_cfft_radix4_f32.c **** */
  69:Drivers/CMSIS/DSP/Source/TransformFunctions/arm_cfft_radix4_f32.c **** 
  70:Drivers/CMSIS/DSP/Source/TransformFunctions/arm_cfft_radix4_f32.c **** void arm_cfft_radix4_f32(
  71:Drivers/CMSIS/DSP/Source/TransformFunctions/arm_cfft_radix4_f32.c ****   const arm_cfft_radix4_instance_f32 * S,
  72:Drivers/CMSIS/DSP/Source/TransformFunctions/arm_cfft_radix4_f32.c ****   float32_t * pSrc)
  73:Drivers/CMSIS/DSP/Source/TransformFunctions/arm_cfft_radix4_f32.c **** {
  74:Drivers/CMSIS/DSP/Source/TransformFunctions/arm_cfft_radix4_f32.c ****    if (S->ifftFlag == 1U)
  75:Drivers/CMSIS/DSP/Source/TransformFunctions/arm_cfft_radix4_f32.c ****    {
  76:Drivers/CMSIS/DSP/Source/TransformFunctions/arm_cfft_radix4_f32.c ****       /*  Complex IFFT radix-4  */
  77:Drivers/CMSIS/DSP/Source/TransformFunctions/arm_cfft_radix4_f32.c ****       arm_radix4_butterfly_inverse_f32(pSrc, S->fftLen, S->pTwiddle, S->twidCoefModifier, S->onebyf
  78:Drivers/CMSIS/DSP/Source/TransformFunctions/arm_cfft_radix4_f32.c ****    }
  79:Drivers/CMSIS/DSP/Source/TransformFunctions/arm_cfft_radix4_f32.c ****    else
  80:Drivers/CMSIS/DSP/Source/TransformFunctions/arm_cfft_radix4_f32.c ****    {
  81:Drivers/CMSIS/DSP/Source/TransformFunctions/arm_cfft_radix4_f32.c ****       /*  Complex FFT radix-4  */
  82:Drivers/CMSIS/DSP/Source/TransformFunctions/arm_cfft_radix4_f32.c ****       arm_radix4_butterfly_f32(pSrc, S->fftLen, S->pTwiddle, S->twidCoefModifier);
  83:Drivers/CMSIS/DSP/Source/TransformFunctions/arm_cfft_radix4_f32.c ****    }
  84:Drivers/CMSIS/DSP/Source/TransformFunctions/arm_cfft_radix4_f32.c **** 
  85:Drivers/CMSIS/DSP/Source/TransformFunctions/arm_cfft_radix4_f32.c ****    if (S->bitReverseFlag == 1U)
  86:Drivers/CMSIS/DSP/Source/TransformFunctions/arm_cfft_radix4_f32.c ****    {
  87:Drivers/CMSIS/DSP/Source/TransformFunctions/arm_cfft_radix4_f32.c ****       /*  Bit Reversal */
ARM GAS  /var/folders/n6/c271nzx11xl4r4_m7sqjlt0m0000gn/T//ccHq3Xre.s 			page 3


  88:Drivers/CMSIS/DSP/Source/TransformFunctions/arm_cfft_radix4_f32.c ****       arm_bitreversal_f32(pSrc, S->fftLen, S->bitRevFactor, S->pBitRevTable);
  89:Drivers/CMSIS/DSP/Source/TransformFunctions/arm_cfft_radix4_f32.c ****    }
  90:Drivers/CMSIS/DSP/Source/TransformFunctions/arm_cfft_radix4_f32.c **** 
  91:Drivers/CMSIS/DSP/Source/TransformFunctions/arm_cfft_radix4_f32.c **** }
  92:Drivers/CMSIS/DSP/Source/TransformFunctions/arm_cfft_radix4_f32.c **** 
  93:Drivers/CMSIS/DSP/Source/TransformFunctions/arm_cfft_radix4_f32.c **** /**
  94:Drivers/CMSIS/DSP/Source/TransformFunctions/arm_cfft_radix4_f32.c **** * @} end of ComplexFFT group
  95:Drivers/CMSIS/DSP/Source/TransformFunctions/arm_cfft_radix4_f32.c **** */
  96:Drivers/CMSIS/DSP/Source/TransformFunctions/arm_cfft_radix4_f32.c **** 
  97:Drivers/CMSIS/DSP/Source/TransformFunctions/arm_cfft_radix4_f32.c **** /* ----------------------------------------------------------------------
  98:Drivers/CMSIS/DSP/Source/TransformFunctions/arm_cfft_radix4_f32.c ****  * Internal helper function used by the FFTs
  99:Drivers/CMSIS/DSP/Source/TransformFunctions/arm_cfft_radix4_f32.c ****  * ---------------------------------------------------------------------- */
 100:Drivers/CMSIS/DSP/Source/TransformFunctions/arm_cfft_radix4_f32.c **** 
 101:Drivers/CMSIS/DSP/Source/TransformFunctions/arm_cfft_radix4_f32.c **** /*
 102:Drivers/CMSIS/DSP/Source/TransformFunctions/arm_cfft_radix4_f32.c **** * @brief  Core function for the floating-point CFFT butterfly process.
 103:Drivers/CMSIS/DSP/Source/TransformFunctions/arm_cfft_radix4_f32.c **** * @param[in, out] *pSrc            points to the in-place buffer of floating-point data type.
 104:Drivers/CMSIS/DSP/Source/TransformFunctions/arm_cfft_radix4_f32.c **** * @param[in]      fftLen           length of the FFT.
 105:Drivers/CMSIS/DSP/Source/TransformFunctions/arm_cfft_radix4_f32.c **** * @param[in]      *pCoef           points to the twiddle coefficient buffer.
 106:Drivers/CMSIS/DSP/Source/TransformFunctions/arm_cfft_radix4_f32.c **** * @param[in]      twidCoefModifier twiddle coefficient modifier that supports different size FFTs w
 107:Drivers/CMSIS/DSP/Source/TransformFunctions/arm_cfft_radix4_f32.c **** * @return none.
 108:Drivers/CMSIS/DSP/Source/TransformFunctions/arm_cfft_radix4_f32.c **** */
 109:Drivers/CMSIS/DSP/Source/TransformFunctions/arm_cfft_radix4_f32.c **** 
 110:Drivers/CMSIS/DSP/Source/TransformFunctions/arm_cfft_radix4_f32.c **** void arm_radix4_butterfly_f32(
 111:Drivers/CMSIS/DSP/Source/TransformFunctions/arm_cfft_radix4_f32.c **** float32_t * pSrc,
 112:Drivers/CMSIS/DSP/Source/TransformFunctions/arm_cfft_radix4_f32.c **** uint16_t fftLen,
 113:Drivers/CMSIS/DSP/Source/TransformFunctions/arm_cfft_radix4_f32.c **** float32_t * pCoef,
 114:Drivers/CMSIS/DSP/Source/TransformFunctions/arm_cfft_radix4_f32.c **** uint16_t twidCoefModifier)
 115:Drivers/CMSIS/DSP/Source/TransformFunctions/arm_cfft_radix4_f32.c **** {
  29              		.loc 1 115 1 view -0
  30              		.cfi_startproc
  31              		@ args = 0, pretend = 0, frame = 24
  32              		@ frame_needed = 0, uses_anonymous_args = 0
  33              		.loc 1 115 1 is_stmt 0 view .LVU1
  34 0000 2DE9F04F 		push	{r4, r5, r6, r7, r8, r9, r10, fp, lr}
  35              		.cfi_def_cfa_offset 36
  36              		.cfi_offset 4, -36
  37              		.cfi_offset 5, -32
  38              		.cfi_offset 6, -28
  39              		.cfi_offset 7, -24
  40              		.cfi_offset 8, -20
  41              		.cfi_offset 9, -16
  42              		.cfi_offset 10, -12
  43              		.cfi_offset 11, -8
  44              		.cfi_offset 14, -4
  45 0004 2DED028B 		vpush.64	{d8}
  46              		.cfi_def_cfa_offset 44
  47              		.cfi_offset 80, -44
  48              		.cfi_offset 81, -40
  49 0008 87B0     		sub	sp, sp, #28
  50              		.cfi_def_cfa_offset 72
  51 000a 8B46     		mov	fp, r1
  52 000c 1146     		mov	r1, r2
  53              	.LVL1:
  54              		.loc 1 115 1 view .LVU2
  55 000e 0193     		str	r3, [sp, #4]
 116:Drivers/CMSIS/DSP/Source/TransformFunctions/arm_cfft_radix4_f32.c **** 
 117:Drivers/CMSIS/DSP/Source/TransformFunctions/arm_cfft_radix4_f32.c ****    float32_t co1, co2, co3, si1, si2, si3;
ARM GAS  /var/folders/n6/c271nzx11xl4r4_m7sqjlt0m0000gn/T//ccHq3Xre.s 			page 4


  56              		.loc 1 117 4 is_stmt 1 view .LVU3
 118:Drivers/CMSIS/DSP/Source/TransformFunctions/arm_cfft_radix4_f32.c ****    uint32_t ia1, ia2, ia3;
  57              		.loc 1 118 4 view .LVU4
 119:Drivers/CMSIS/DSP/Source/TransformFunctions/arm_cfft_radix4_f32.c ****    uint32_t i0, i1, i2, i3;
  58              		.loc 1 119 4 view .LVU5
 120:Drivers/CMSIS/DSP/Source/TransformFunctions/arm_cfft_radix4_f32.c ****    uint32_t n1, n2, j, k;
  59              		.loc 1 120 4 view .LVU6
 121:Drivers/CMSIS/DSP/Source/TransformFunctions/arm_cfft_radix4_f32.c **** 
 122:Drivers/CMSIS/DSP/Source/TransformFunctions/arm_cfft_radix4_f32.c **** #if defined (ARM_MATH_DSP)
 123:Drivers/CMSIS/DSP/Source/TransformFunctions/arm_cfft_radix4_f32.c **** 
 124:Drivers/CMSIS/DSP/Source/TransformFunctions/arm_cfft_radix4_f32.c ****    /* Run the below code for Cortex-M4 and Cortex-M3 */
 125:Drivers/CMSIS/DSP/Source/TransformFunctions/arm_cfft_radix4_f32.c **** 
 126:Drivers/CMSIS/DSP/Source/TransformFunctions/arm_cfft_radix4_f32.c ****    float32_t xaIn, yaIn, xbIn, ybIn, xcIn, ycIn, xdIn, ydIn;
  60              		.loc 1 126 4 view .LVU7
 127:Drivers/CMSIS/DSP/Source/TransformFunctions/arm_cfft_radix4_f32.c ****    float32_t Xaplusc, Xbplusd, Yaplusc, Ybplusd, Xaminusc, Xbminusd, Yaminusc,
  61              		.loc 1 127 4 view .LVU8
 128:Drivers/CMSIS/DSP/Source/TransformFunctions/arm_cfft_radix4_f32.c ****    Ybminusd;
 129:Drivers/CMSIS/DSP/Source/TransformFunctions/arm_cfft_radix4_f32.c ****    float32_t Xb12C_out, Yb12C_out, Xc12C_out, Yc12C_out, Xd12C_out, Yd12C_out;
  62              		.loc 1 129 4 view .LVU9
 130:Drivers/CMSIS/DSP/Source/TransformFunctions/arm_cfft_radix4_f32.c ****    float32_t Xb12_out, Yb12_out, Xc12_out, Yc12_out, Xd12_out, Yd12_out;
  63              		.loc 1 130 4 view .LVU10
 131:Drivers/CMSIS/DSP/Source/TransformFunctions/arm_cfft_radix4_f32.c ****    float32_t *ptr1;
  64              		.loc 1 131 4 view .LVU11
 132:Drivers/CMSIS/DSP/Source/TransformFunctions/arm_cfft_radix4_f32.c ****    float32_t p0,p1,p2,p3,p4,p5;
  65              		.loc 1 132 4 view .LVU12
 133:Drivers/CMSIS/DSP/Source/TransformFunctions/arm_cfft_radix4_f32.c ****    float32_t a0,a1,a2,a3,a4,a5,a6,a7;
  66              		.loc 1 133 4 view .LVU13
 134:Drivers/CMSIS/DSP/Source/TransformFunctions/arm_cfft_radix4_f32.c **** 
 135:Drivers/CMSIS/DSP/Source/TransformFunctions/arm_cfft_radix4_f32.c ****    /*  Initializations for the first stage */
 136:Drivers/CMSIS/DSP/Source/TransformFunctions/arm_cfft_radix4_f32.c ****    n2 = fftLen;
  67              		.loc 1 136 4 view .LVU14
  68              	.LVL2:
 137:Drivers/CMSIS/DSP/Source/TransformFunctions/arm_cfft_radix4_f32.c ****    n1 = n2;
  69              		.loc 1 137 4 view .LVU15
 138:Drivers/CMSIS/DSP/Source/TransformFunctions/arm_cfft_radix4_f32.c **** 
 139:Drivers/CMSIS/DSP/Source/TransformFunctions/arm_cfft_radix4_f32.c ****    /* n2 = fftLen/4 */
 140:Drivers/CMSIS/DSP/Source/TransformFunctions/arm_cfft_radix4_f32.c ****    n2 >>= 2U;
  70              		.loc 1 140 4 view .LVU16
  71              		.loc 1 140 7 is_stmt 0 view .LVU17
  72 0010 4FEA9B09 		lsr	r9, fp, #2
  73              	.LVL3:
 141:Drivers/CMSIS/DSP/Source/TransformFunctions/arm_cfft_radix4_f32.c ****    i0 = 0U;
  74              		.loc 1 141 4 is_stmt 1 view .LVU18
 142:Drivers/CMSIS/DSP/Source/TransformFunctions/arm_cfft_radix4_f32.c ****    ia1 = 0U;
  75              		.loc 1 142 4 view .LVU19
 143:Drivers/CMSIS/DSP/Source/TransformFunctions/arm_cfft_radix4_f32.c **** 
 144:Drivers/CMSIS/DSP/Source/TransformFunctions/arm_cfft_radix4_f32.c ****    j = n2;
  76              		.loc 1 144 4 view .LVU20
  77              		.loc 1 144 6 is_stmt 0 view .LVU21
  78 0014 CDF80C90 		str	r9, [sp, #12]
 141:Drivers/CMSIS/DSP/Source/TransformFunctions/arm_cfft_radix4_f32.c ****    ia1 = 0U;
  79              		.loc 1 141 7 view .LVU22
  80 0018 4FF00008 		mov	r8, #0
 142:Drivers/CMSIS/DSP/Source/TransformFunctions/arm_cfft_radix4_f32.c ****    ia1 = 0U;
  81              		.loc 1 142 8 view .LVU23
  82 001c C246     		mov	r10, r8
  83 001e CDF808B0 		str	fp, [sp, #8]
ARM GAS  /var/folders/n6/c271nzx11xl4r4_m7sqjlt0m0000gn/T//ccHq3Xre.s 			page 5


  84 0022 CB46     		mov	fp, r9
  85              	.LVL4:
  86              	.L2:
 145:Drivers/CMSIS/DSP/Source/TransformFunctions/arm_cfft_radix4_f32.c **** 
 146:Drivers/CMSIS/DSP/Source/TransformFunctions/arm_cfft_radix4_f32.c ****    /*  Calculation of first stage */
 147:Drivers/CMSIS/DSP/Source/TransformFunctions/arm_cfft_radix4_f32.c ****    do
  87              		.loc 1 147 4 is_stmt 1 view .LVU24
 148:Drivers/CMSIS/DSP/Source/TransformFunctions/arm_cfft_radix4_f32.c ****    {
 149:Drivers/CMSIS/DSP/Source/TransformFunctions/arm_cfft_radix4_f32.c ****       /*  index calculation for the input as, */
 150:Drivers/CMSIS/DSP/Source/TransformFunctions/arm_cfft_radix4_f32.c ****       /*  pSrc[i0 + 0], pSrc[i0 + fftLen/4], pSrc[i0 + fftLen/2], pSrc[i0 + 3fftLen/4] */
 151:Drivers/CMSIS/DSP/Source/TransformFunctions/arm_cfft_radix4_f32.c ****       i1 = i0 + n2;
  88              		.loc 1 151 7 view .LVU25
  89              		.loc 1 151 10 is_stmt 0 view .LVU26
  90 0024 08EB0B0C 		add	ip, r8, fp
  91              	.LVL5:
 152:Drivers/CMSIS/DSP/Source/TransformFunctions/arm_cfft_radix4_f32.c ****       i2 = i1 + n2;
  92              		.loc 1 152 7 is_stmt 1 view .LVU27
  93              		.loc 1 152 10 is_stmt 0 view .LVU28
  94 0028 08EB4B04 		add	r4, r8, fp, lsl #1
  95              	.LVL6:
 153:Drivers/CMSIS/DSP/Source/TransformFunctions/arm_cfft_radix4_f32.c ****       i3 = i2 + n2;
  96              		.loc 1 153 7 is_stmt 1 view .LVU29
  97              		.loc 1 153 10 is_stmt 0 view .LVU30
  98 002c 0BEB0407 		add	r7, fp, r4
  99              	.LVL7:
 154:Drivers/CMSIS/DSP/Source/TransformFunctions/arm_cfft_radix4_f32.c **** 
 155:Drivers/CMSIS/DSP/Source/TransformFunctions/arm_cfft_radix4_f32.c ****       xaIn = pSrc[(2U * i0)];
 100              		.loc 1 155 7 is_stmt 1 view .LVU31
 101              		.loc 1 155 18 is_stmt 0 view .LVU32
 102 0030 4FEAC806 		lsl	r6, r8, #3
 103 0034 00EBC809 		add	r9, r0, r8, lsl #3
 104              		.loc 1 155 12 view .LVU33
 105 0038 D9ED007A 		vldr.32	s15, [r9]
 106              	.LVL8:
 156:Drivers/CMSIS/DSP/Source/TransformFunctions/arm_cfft_radix4_f32.c ****       yaIn = pSrc[(2U * i0) + 1U];
 107              		.loc 1 156 7 is_stmt 1 view .LVU34
 108              		.loc 1 156 18 is_stmt 0 view .LVU35
 109 003c 0436     		adds	r6, r6, #4
 110 003e 0644     		add	r6, r6, r0
 111              		.loc 1 156 12 view .LVU36
 112 0040 96ED006A 		vldr.32	s12, [r6]
 113              	.LVL9:
 157:Drivers/CMSIS/DSP/Source/TransformFunctions/arm_cfft_radix4_f32.c **** 
 158:Drivers/CMSIS/DSP/Source/TransformFunctions/arm_cfft_radix4_f32.c ****       xbIn = pSrc[(2U * i1)];
 114              		.loc 1 158 7 is_stmt 1 view .LVU37
 115              		.loc 1 158 18 is_stmt 0 view .LVU38
 116 0044 4FEACC05 		lsl	r5, ip, #3
 117 0048 00EBCC0C 		add	ip, r0, ip, lsl #3
 118              	.LVL10:
 119              		.loc 1 158 12 view .LVU39
 120 004c 9CED007A 		vldr.32	s14, [ip]
 121              	.LVL11:
 159:Drivers/CMSIS/DSP/Source/TransformFunctions/arm_cfft_radix4_f32.c ****       ybIn = pSrc[(2U * i1) + 1U];
 122              		.loc 1 159 7 is_stmt 1 view .LVU40
 123              		.loc 1 159 18 is_stmt 0 view .LVU41
 124 0050 0435     		adds	r5, r5, #4
 125 0052 0544     		add	r5, r5, r0
ARM GAS  /var/folders/n6/c271nzx11xl4r4_m7sqjlt0m0000gn/T//ccHq3Xre.s 			page 6


 126              		.loc 1 159 12 view .LVU42
 127 0054 D5ED005A 		vldr.32	s11, [r5]
 128              	.LVL12:
 160:Drivers/CMSIS/DSP/Source/TransformFunctions/arm_cfft_radix4_f32.c **** 
 161:Drivers/CMSIS/DSP/Source/TransformFunctions/arm_cfft_radix4_f32.c ****       xcIn = pSrc[(2U * i2)];
 129              		.loc 1 161 7 is_stmt 1 view .LVU43
 130              		.loc 1 161 18 is_stmt 0 view .LVU44
 131 0058 E200     		lsls	r2, r4, #3
 132 005a 00EBC404 		add	r4, r0, r4, lsl #3
 133              	.LVL13:
 134              		.loc 1 161 12 view .LVU45
 135 005e 94ED001A 		vldr.32	s2, [r4]
 136              	.LVL14:
 162:Drivers/CMSIS/DSP/Source/TransformFunctions/arm_cfft_radix4_f32.c ****       ycIn = pSrc[(2U * i2) + 1U];
 137              		.loc 1 162 7 is_stmt 1 view .LVU46
 138              		.loc 1 162 18 is_stmt 0 view .LVU47
 139 0062 0432     		adds	r2, r2, #4
 140 0064 0244     		add	r2, r2, r0
 141              		.loc 1 162 12 view .LVU48
 142 0066 92ED003A 		vldr.32	s6, [r2]
 143              	.LVL15:
 163:Drivers/CMSIS/DSP/Source/TransformFunctions/arm_cfft_radix4_f32.c **** 
 164:Drivers/CMSIS/DSP/Source/TransformFunctions/arm_cfft_radix4_f32.c ****       xdIn = pSrc[(2U * i3)];
 144              		.loc 1 164 7 is_stmt 1 view .LVU49
 145              		.loc 1 164 18 is_stmt 0 view .LVU50
 146 006a FB00     		lsls	r3, r7, #3
 147 006c 00EBC707 		add	r7, r0, r7, lsl #3
 148              	.LVL16:
 149              		.loc 1 164 12 view .LVU51
 150 0070 D7ED001A 		vldr.32	s3, [r7]
 151              	.LVL17:
 165:Drivers/CMSIS/DSP/Source/TransformFunctions/arm_cfft_radix4_f32.c ****       ydIn = pSrc[(2U * i3) + 1U];
 152              		.loc 1 165 7 is_stmt 1 view .LVU52
 153              		.loc 1 165 18 is_stmt 0 view .LVU53
 154 0074 0433     		adds	r3, r3, #4
 155 0076 0344     		add	r3, r3, r0
 156              		.loc 1 165 12 view .LVU54
 157 0078 0093     		str	r3, [sp]
 158 007a D3ED003A 		vldr.32	s7, [r3]
 159              	.LVL18:
 166:Drivers/CMSIS/DSP/Source/TransformFunctions/arm_cfft_radix4_f32.c **** 
 167:Drivers/CMSIS/DSP/Source/TransformFunctions/arm_cfft_radix4_f32.c ****       /* xa + xc */
 168:Drivers/CMSIS/DSP/Source/TransformFunctions/arm_cfft_radix4_f32.c ****       Xaplusc = xaIn + xcIn;
 160              		.loc 1 168 7 is_stmt 1 view .LVU55
 161              		.loc 1 168 15 is_stmt 0 view .LVU56
 162 007e 77EE814A 		vadd.f32	s9, s15, s2
 163              	.LVL19:
 169:Drivers/CMSIS/DSP/Source/TransformFunctions/arm_cfft_radix4_f32.c ****       /* xb + xd */
 170:Drivers/CMSIS/DSP/Source/TransformFunctions/arm_cfft_radix4_f32.c ****       Xbplusd = xbIn + xdIn;
 164              		.loc 1 170 7 is_stmt 1 view .LVU57
 165              		.loc 1 170 15 is_stmt 0 view .LVU58
 166 0082 37EE212A 		vadd.f32	s4, s14, s3
 167              	.LVL20:
 171:Drivers/CMSIS/DSP/Source/TransformFunctions/arm_cfft_radix4_f32.c ****       /* ya + yc */
 172:Drivers/CMSIS/DSP/Source/TransformFunctions/arm_cfft_radix4_f32.c ****       Yaplusc = yaIn + ycIn;
 168              		.loc 1 172 7 is_stmt 1 view .LVU59
 169              		.loc 1 172 15 is_stmt 0 view .LVU60
ARM GAS  /var/folders/n6/c271nzx11xl4r4_m7sqjlt0m0000gn/T//ccHq3Xre.s 			page 7


 170 0086 76EE036A 		vadd.f32	s13, s12, s6
 171              	.LVL21:
 173:Drivers/CMSIS/DSP/Source/TransformFunctions/arm_cfft_radix4_f32.c ****       /* yb + yd */
 174:Drivers/CMSIS/DSP/Source/TransformFunctions/arm_cfft_radix4_f32.c ****       Ybplusd = ybIn + ydIn;
 172              		.loc 1 174 7 is_stmt 1 view .LVU61
 173              		.loc 1 174 15 is_stmt 0 view .LVU62
 174 008a 75EEA32A 		vadd.f32	s5, s11, s7
 175              	.LVL22:
 175:Drivers/CMSIS/DSP/Source/TransformFunctions/arm_cfft_radix4_f32.c **** 
 176:Drivers/CMSIS/DSP/Source/TransformFunctions/arm_cfft_radix4_f32.c ****       /*  index calculation for the coefficients */
 177:Drivers/CMSIS/DSP/Source/TransformFunctions/arm_cfft_radix4_f32.c ****       ia2 = ia1 + ia1;
 176              		.loc 1 177 7 is_stmt 1 view .LVU63
 178:Drivers/CMSIS/DSP/Source/TransformFunctions/arm_cfft_radix4_f32.c ****       co2 = pCoef[ia2 * 2U];
 177              		.loc 1 178 7 view .LVU64
 178              		.loc 1 178 18 is_stmt 0 view .LVU65
 179 008e 4FEA0A1E 		lsl	lr, r10, #4
 180 0092 01EB0A13 		add	r3, r1, r10, lsl #4
 181              		.loc 1 178 11 view .LVU66
 182 0096 93ED005A 		vldr.32	s10, [r3]
 183              	.LVL23:
 179:Drivers/CMSIS/DSP/Source/TransformFunctions/arm_cfft_radix4_f32.c ****       si2 = pCoef[(ia2 * 2U) + 1U];
 184              		.loc 1 179 7 is_stmt 1 view .LVU67
 185              		.loc 1 179 18 is_stmt 0 view .LVU68
 186 009a 0EF1040E 		add	lr, lr, #4
 187 009e 8E44     		add	lr, lr, r1
 188              		.loc 1 179 11 view .LVU69
 189 00a0 9EED004A 		vldr.32	s8, [lr]
 190              	.LVL24:
 180:Drivers/CMSIS/DSP/Source/TransformFunctions/arm_cfft_radix4_f32.c **** 
 181:Drivers/CMSIS/DSP/Source/TransformFunctions/arm_cfft_radix4_f32.c ****       /* xa - xc */
 182:Drivers/CMSIS/DSP/Source/TransformFunctions/arm_cfft_radix4_f32.c ****       Xaminusc = xaIn - xcIn;
 191              		.loc 1 182 7 is_stmt 1 view .LVU70
 192              		.loc 1 182 16 is_stmt 0 view .LVU71
 193 00a4 77EEC17A 		vsub.f32	s15, s15, s2
 194              	.LVL25:
 183:Drivers/CMSIS/DSP/Source/TransformFunctions/arm_cfft_radix4_f32.c ****       /* xb - xd */
 184:Drivers/CMSIS/DSP/Source/TransformFunctions/arm_cfft_radix4_f32.c ****       Xbminusd = xbIn - xdIn;
 195              		.loc 1 184 7 is_stmt 1 view .LVU72
 196              		.loc 1 184 16 is_stmt 0 view .LVU73
 197 00a8 37EE617A 		vsub.f32	s14, s14, s3
 198              	.LVL26:
 185:Drivers/CMSIS/DSP/Source/TransformFunctions/arm_cfft_radix4_f32.c ****       /* ya - yc */
 186:Drivers/CMSIS/DSP/Source/TransformFunctions/arm_cfft_radix4_f32.c ****       Yaminusc = yaIn - ycIn;
 199              		.loc 1 186 7 is_stmt 1 view .LVU74
 200              		.loc 1 186 16 is_stmt 0 view .LVU75
 201 00ac 36EE436A 		vsub.f32	s12, s12, s6
 202              	.LVL27:
 187:Drivers/CMSIS/DSP/Source/TransformFunctions/arm_cfft_radix4_f32.c ****       /* yb - yd */
 188:Drivers/CMSIS/DSP/Source/TransformFunctions/arm_cfft_radix4_f32.c ****       Ybminusd = ybIn - ydIn;
 203              		.loc 1 188 7 is_stmt 1 view .LVU76
 204              		.loc 1 188 16 is_stmt 0 view .LVU77
 205 00b0 75EEE35A 		vsub.f32	s11, s11, s7
 206              	.LVL28:
 189:Drivers/CMSIS/DSP/Source/TransformFunctions/arm_cfft_radix4_f32.c **** 
 190:Drivers/CMSIS/DSP/Source/TransformFunctions/arm_cfft_radix4_f32.c ****       /* xa' = xa + xb + xc + xd */
 191:Drivers/CMSIS/DSP/Source/TransformFunctions/arm_cfft_radix4_f32.c ****       pSrc[(2U * i0)] = Xaplusc + Xbplusd;
 207              		.loc 1 191 7 is_stmt 1 view .LVU78
ARM GAS  /var/folders/n6/c271nzx11xl4r4_m7sqjlt0m0000gn/T//ccHq3Xre.s 			page 8


 208              		.loc 1 191 33 is_stmt 0 view .LVU79
 209 00b4 74EE823A 		vadd.f32	s7, s9, s4
 210              	.LVL29:
 211              		.loc 1 191 23 view .LVU80
 212 00b8 C9ED003A 		vstr.32	s7, [r9]
 213              	.LVL30:
 192:Drivers/CMSIS/DSP/Source/TransformFunctions/arm_cfft_radix4_f32.c ****       /* ya' = ya + yb + yc + yd */
 193:Drivers/CMSIS/DSP/Source/TransformFunctions/arm_cfft_radix4_f32.c ****       pSrc[(2U * i0) + 1U] = Yaplusc + Ybplusd;
 214              		.loc 1 193 7 is_stmt 1 view .LVU81
 215              		.loc 1 193 38 is_stmt 0 view .LVU82
 216 00bc 76EEA23A 		vadd.f32	s7, s13, s5
 217              		.loc 1 193 28 view .LVU83
 218 00c0 C6ED003A 		vstr.32	s7, [r6]
 219              	.LVL31:
 194:Drivers/CMSIS/DSP/Source/TransformFunctions/arm_cfft_radix4_f32.c **** 
 195:Drivers/CMSIS/DSP/Source/TransformFunctions/arm_cfft_radix4_f32.c ****       /* (xa - xc) + (yb - yd) */
 196:Drivers/CMSIS/DSP/Source/TransformFunctions/arm_cfft_radix4_f32.c ****       Xb12C_out = (Xaminusc + Ybminusd);
 220              		.loc 1 196 7 is_stmt 1 view .LVU84
 221              		.loc 1 196 17 is_stmt 0 view .LVU85
 222 00c4 77EEA53A 		vadd.f32	s7, s15, s11
 223              	.LVL32:
 197:Drivers/CMSIS/DSP/Source/TransformFunctions/arm_cfft_radix4_f32.c ****       /* (ya - yc) + (xb - xd) */
 198:Drivers/CMSIS/DSP/Source/TransformFunctions/arm_cfft_radix4_f32.c ****       Yb12C_out = (Yaminusc - Xbminusd);
 224              		.loc 1 198 7 is_stmt 1 view .LVU86
 225              		.loc 1 198 17 is_stmt 0 view .LVU87
 226 00c8 36EE473A 		vsub.f32	s6, s12, s14
 227              	.LVL33:
 199:Drivers/CMSIS/DSP/Source/TransformFunctions/arm_cfft_radix4_f32.c ****       /* (xa + xc) - (xb + xd) */
 200:Drivers/CMSIS/DSP/Source/TransformFunctions/arm_cfft_radix4_f32.c ****       Xc12C_out = (Xaplusc - Xbplusd);
 228              		.loc 1 200 7 is_stmt 1 view .LVU88
 229              		.loc 1 200 17 is_stmt 0 view .LVU89
 230 00cc 74EEC24A 		vsub.f32	s9, s9, s4
 231              	.LVL34:
 201:Drivers/CMSIS/DSP/Source/TransformFunctions/arm_cfft_radix4_f32.c ****       /* (ya + yc) - (yb + yd) */
 202:Drivers/CMSIS/DSP/Source/TransformFunctions/arm_cfft_radix4_f32.c ****       Yc12C_out = (Yaplusc - Ybplusd);
 232              		.loc 1 202 7 is_stmt 1 view .LVU90
 233              		.loc 1 202 17 is_stmt 0 view .LVU91
 234 00d0 76EEE26A 		vsub.f32	s13, s13, s5
 235              	.LVL35:
 203:Drivers/CMSIS/DSP/Source/TransformFunctions/arm_cfft_radix4_f32.c ****       /* (xa - xc) - (yb - yd) */
 204:Drivers/CMSIS/DSP/Source/TransformFunctions/arm_cfft_radix4_f32.c ****       Xd12C_out = (Xaminusc - Ybminusd);
 236              		.loc 1 204 7 is_stmt 1 view .LVU92
 237              		.loc 1 204 17 is_stmt 0 view .LVU93
 238 00d4 77EEE57A 		vsub.f32	s15, s15, s11
 239              	.LVL36:
 205:Drivers/CMSIS/DSP/Source/TransformFunctions/arm_cfft_radix4_f32.c ****       /* (ya - yc) + (xb - xd) */
 206:Drivers/CMSIS/DSP/Source/TransformFunctions/arm_cfft_radix4_f32.c ****       Yd12C_out = (Xbminusd + Yaminusc);
 240              		.loc 1 206 7 is_stmt 1 view .LVU94
 241              		.loc 1 206 17 is_stmt 0 view .LVU95
 242 00d8 37EE067A 		vadd.f32	s14, s14, s12
 243              	.LVL37:
 207:Drivers/CMSIS/DSP/Source/TransformFunctions/arm_cfft_radix4_f32.c **** 
 208:Drivers/CMSIS/DSP/Source/TransformFunctions/arm_cfft_radix4_f32.c ****       co1 = pCoef[ia1 * 2U];
 244              		.loc 1 208 7 is_stmt 1 view .LVU96
 245              		.loc 1 208 18 is_stmt 0 view .LVU97
 246 00dc 4FEACA06 		lsl	r6, r10, #3
 247 00e0 01EBCA0E 		add	lr, r1, r10, lsl #3
ARM GAS  /var/folders/n6/c271nzx11xl4r4_m7sqjlt0m0000gn/T//ccHq3Xre.s 			page 9


 248              		.loc 1 208 11 view .LVU98
 249 00e4 DEED005A 		vldr.32	s11, [lr]
 250              	.LVL38:
 209:Drivers/CMSIS/DSP/Source/TransformFunctions/arm_cfft_radix4_f32.c ****       si1 = pCoef[(ia1 * 2U) + 1U];
 251              		.loc 1 209 7 is_stmt 1 view .LVU99
 252              		.loc 1 209 18 is_stmt 0 view .LVU100
 253 00e8 0436     		adds	r6, r6, #4
 254 00ea 0E44     		add	r6, r6, r1
 255              		.loc 1 209 11 view .LVU101
 256 00ec D6ED000A 		vldr.32	s1, [r6]
 257              	.LVL39:
 210:Drivers/CMSIS/DSP/Source/TransformFunctions/arm_cfft_radix4_f32.c **** 
 211:Drivers/CMSIS/DSP/Source/TransformFunctions/arm_cfft_radix4_f32.c ****       /*  index calculation for the coefficients */
 212:Drivers/CMSIS/DSP/Source/TransformFunctions/arm_cfft_radix4_f32.c ****       ia3 = ia2 + ia1;
 258              		.loc 1 212 7 is_stmt 1 view .LVU102
 213:Drivers/CMSIS/DSP/Source/TransformFunctions/arm_cfft_radix4_f32.c ****       co3 = pCoef[ia3 * 2U];
 259              		.loc 1 213 7 view .LVU103
 260              		.loc 1 213 18 is_stmt 0 view .LVU104
 261 00f0 0AEB4A0E 		add	lr, r10, r10, lsl #1
 262 00f4 4FEACE06 		lsl	r6, lr, #3
 263 00f8 01EBCE0E 		add	lr, r1, lr, lsl #3
 264              		.loc 1 213 11 view .LVU105
 265 00fc 9EED006A 		vldr.32	s12, [lr]
 266              	.LVL40:
 214:Drivers/CMSIS/DSP/Source/TransformFunctions/arm_cfft_radix4_f32.c ****       si3 = pCoef[(ia3 * 2U) + 1U];
 267              		.loc 1 214 7 is_stmt 1 view .LVU106
 268              		.loc 1 214 18 is_stmt 0 view .LVU107
 269 0100 0436     		adds	r6, r6, #4
 270 0102 0E44     		add	r6, r6, r1
 271              		.loc 1 214 11 view .LVU108
 272 0104 96ED001A 		vldr.32	s2, [r6]
 273              	.LVL41:
 215:Drivers/CMSIS/DSP/Source/TransformFunctions/arm_cfft_radix4_f32.c **** 
 216:Drivers/CMSIS/DSP/Source/TransformFunctions/arm_cfft_radix4_f32.c ****       Xb12_out = Xb12C_out * co1;
 274              		.loc 1 216 7 is_stmt 1 view .LVU109
 275              		.loc 1 216 16 is_stmt 0 view .LVU110
 276 0108 23EEA52A 		vmul.f32	s4, s7, s11
 277              	.LVL42:
 217:Drivers/CMSIS/DSP/Source/TransformFunctions/arm_cfft_radix4_f32.c ****       Yb12_out = Yb12C_out * co1;
 278              		.loc 1 217 7 is_stmt 1 view .LVU111
 279              		.loc 1 217 16 is_stmt 0 view .LVU112
 280 010c 63EE255A 		vmul.f32	s11, s6, s11
 281              	.LVL43:
 218:Drivers/CMSIS/DSP/Source/TransformFunctions/arm_cfft_radix4_f32.c ****       Xc12_out = Xc12C_out * co2;
 282              		.loc 1 218 7 is_stmt 1 view .LVU113
 283              		.loc 1 218 16 is_stmt 0 view .LVU114
 284 0110 65EE241A 		vmul.f32	s3, s10, s9
 285              	.LVL44:
 219:Drivers/CMSIS/DSP/Source/TransformFunctions/arm_cfft_radix4_f32.c ****       Yc12_out = Yc12C_out * co2;
 286              		.loc 1 219 7 is_stmt 1 view .LVU115
 287              		.loc 1 219 16 is_stmt 0 view .LVU116
 288 0114 25EE265A 		vmul.f32	s10, s10, s13
 289              	.LVL45:
 220:Drivers/CMSIS/DSP/Source/TransformFunctions/arm_cfft_radix4_f32.c ****       Xd12_out = Xd12C_out * co3;
 290              		.loc 1 220 7 is_stmt 1 view .LVU117
 291              		.loc 1 220 16 is_stmt 0 view .LVU118
 292 0118 67EE862A 		vmul.f32	s5, s15, s12
ARM GAS  /var/folders/n6/c271nzx11xl4r4_m7sqjlt0m0000gn/T//ccHq3Xre.s 			page 10


 293              	.LVL46:
 221:Drivers/CMSIS/DSP/Source/TransformFunctions/arm_cfft_radix4_f32.c ****       Yd12_out = Yd12C_out * co3;
 294              		.loc 1 221 7 is_stmt 1 view .LVU119
 295              		.loc 1 221 16 is_stmt 0 view .LVU120
 296 011c 27EE066A 		vmul.f32	s12, s14, s12
 297              	.LVL47:
 222:Drivers/CMSIS/DSP/Source/TransformFunctions/arm_cfft_radix4_f32.c **** 
 223:Drivers/CMSIS/DSP/Source/TransformFunctions/arm_cfft_radix4_f32.c ****       /* xb' = (xa+yb-xc-yd)co1 - (ya-xb-yc+xd)(si1) */
 224:Drivers/CMSIS/DSP/Source/TransformFunctions/arm_cfft_radix4_f32.c ****       //Xb12_out -= Yb12C_out * si1;
 225:Drivers/CMSIS/DSP/Source/TransformFunctions/arm_cfft_radix4_f32.c ****       p0 = Yb12C_out * si1;
 298              		.loc 1 225 7 is_stmt 1 view .LVU121
 299              		.loc 1 225 10 is_stmt 0 view .LVU122
 300 0120 23EE203A 		vmul.f32	s6, s6, s1
 301              	.LVL48:
 226:Drivers/CMSIS/DSP/Source/TransformFunctions/arm_cfft_radix4_f32.c ****       /* yb' = (ya-xb-yc+xd)co1 + (xa+yb-xc-yd)(si1) */
 227:Drivers/CMSIS/DSP/Source/TransformFunctions/arm_cfft_radix4_f32.c ****       //Yb12_out += Xb12C_out * si1;
 228:Drivers/CMSIS/DSP/Source/TransformFunctions/arm_cfft_radix4_f32.c ****       p1 = Xb12C_out * si1;
 302              		.loc 1 228 7 is_stmt 1 view .LVU123
 303              		.loc 1 228 10 is_stmt 0 view .LVU124
 304 0124 63EEA03A 		vmul.f32	s7, s7, s1
 305              	.LVL49:
 229:Drivers/CMSIS/DSP/Source/TransformFunctions/arm_cfft_radix4_f32.c ****       /* xc' = (xa-xb+xc-xd)co2 - (ya-yb+yc-yd)(si2) */
 230:Drivers/CMSIS/DSP/Source/TransformFunctions/arm_cfft_radix4_f32.c ****       //Xc12_out -= Yc12C_out * si2;
 231:Drivers/CMSIS/DSP/Source/TransformFunctions/arm_cfft_radix4_f32.c ****       p2 = Yc12C_out * si2;
 306              		.loc 1 231 7 is_stmt 1 view .LVU125
 307              		.loc 1 231 10 is_stmt 0 view .LVU126
 308 0128 64EE266A 		vmul.f32	s13, s8, s13
 309              	.LVL50:
 232:Drivers/CMSIS/DSP/Source/TransformFunctions/arm_cfft_radix4_f32.c ****       /* yc' = (ya-yb+yc-yd)co2 + (xa-xb+xc-xd)(si2) */
 233:Drivers/CMSIS/DSP/Source/TransformFunctions/arm_cfft_radix4_f32.c ****       //Yc12_out += Xc12C_out * si2;
 234:Drivers/CMSIS/DSP/Source/TransformFunctions/arm_cfft_radix4_f32.c ****       p3 = Xc12C_out * si2;
 310              		.loc 1 234 7 is_stmt 1 view .LVU127
 311              		.loc 1 234 10 is_stmt 0 view .LVU128
 312 012c 24EE244A 		vmul.f32	s8, s8, s9
 313              	.LVL51:
 235:Drivers/CMSIS/DSP/Source/TransformFunctions/arm_cfft_radix4_f32.c ****       /* xd' = (xa-yb-xc+yd)co3 - (ya+xb-yc-xd)(si3) */
 236:Drivers/CMSIS/DSP/Source/TransformFunctions/arm_cfft_radix4_f32.c ****       //Xd12_out -= Yd12C_out * si3;
 237:Drivers/CMSIS/DSP/Source/TransformFunctions/arm_cfft_radix4_f32.c ****       p4 = Yd12C_out * si3;
 314              		.loc 1 237 7 is_stmt 1 view .LVU129
 315              		.loc 1 237 10 is_stmt 0 view .LVU130
 316 0130 27EE017A 		vmul.f32	s14, s14, s2
 317              	.LVL52:
 238:Drivers/CMSIS/DSP/Source/TransformFunctions/arm_cfft_radix4_f32.c ****       /* yd' = (ya+xb-yc-xd)co3 + (xa-yb-xc+yd)(si3) */
 239:Drivers/CMSIS/DSP/Source/TransformFunctions/arm_cfft_radix4_f32.c ****       //Yd12_out += Xd12C_out * si3;
 240:Drivers/CMSIS/DSP/Source/TransformFunctions/arm_cfft_radix4_f32.c ****       p5 = Xd12C_out * si3;
 318              		.loc 1 240 7 is_stmt 1 view .LVU131
 319              		.loc 1 240 10 is_stmt 0 view .LVU132
 320 0134 67EE817A 		vmul.f32	s15, s15, s2
 321              	.LVL53:
 241:Drivers/CMSIS/DSP/Source/TransformFunctions/arm_cfft_radix4_f32.c **** 
 242:Drivers/CMSIS/DSP/Source/TransformFunctions/arm_cfft_radix4_f32.c ****       Xb12_out += p0;
 322              		.loc 1 242 7 is_stmt 1 view .LVU133
 323              		.loc 1 242 16 is_stmt 0 view .LVU134
 324 0138 72EE034A 		vadd.f32	s9, s4, s6
 325              	.LVL54:
 243:Drivers/CMSIS/DSP/Source/TransformFunctions/arm_cfft_radix4_f32.c ****       Yb12_out -= p1;
 326              		.loc 1 243 7 is_stmt 1 view .LVU135
ARM GAS  /var/folders/n6/c271nzx11xl4r4_m7sqjlt0m0000gn/T//ccHq3Xre.s 			page 11


 327              		.loc 1 243 16 is_stmt 0 view .LVU136
 328 013c 75EEE35A 		vsub.f32	s11, s11, s7
 329              	.LVL55:
 244:Drivers/CMSIS/DSP/Source/TransformFunctions/arm_cfft_radix4_f32.c ****       Xc12_out += p2;
 330              		.loc 1 244 7 is_stmt 1 view .LVU137
 331              		.loc 1 244 16 is_stmt 0 view .LVU138
 332 0140 71EEA63A 		vadd.f32	s7, s3, s13
 333              	.LVL56:
 245:Drivers/CMSIS/DSP/Source/TransformFunctions/arm_cfft_radix4_f32.c ****       Yc12_out -= p3;
 334              		.loc 1 245 7 is_stmt 1 view .LVU139
 335              		.loc 1 245 16 is_stmt 0 view .LVU140
 336 0144 75EE446A 		vsub.f32	s13, s10, s8
 337              	.LVL57:
 246:Drivers/CMSIS/DSP/Source/TransformFunctions/arm_cfft_radix4_f32.c ****       Xd12_out += p4;
 338              		.loc 1 246 7 is_stmt 1 view .LVU141
 339              		.loc 1 246 16 is_stmt 0 view .LVU142
 340 0148 32EE877A 		vadd.f32	s14, s5, s14
 341              	.LVL58:
 247:Drivers/CMSIS/DSP/Source/TransformFunctions/arm_cfft_radix4_f32.c ****       Yd12_out -= p5;
 342              		.loc 1 247 7 is_stmt 1 view .LVU143
 343              		.loc 1 247 16 is_stmt 0 view .LVU144
 344 014c 76EE677A 		vsub.f32	s15, s12, s15
 345              	.LVL59:
 248:Drivers/CMSIS/DSP/Source/TransformFunctions/arm_cfft_radix4_f32.c **** 
 249:Drivers/CMSIS/DSP/Source/TransformFunctions/arm_cfft_radix4_f32.c ****       /* xc' = (xa-xb+xc-xd)co2 + (ya-yb+yc-yd)(si2) */
 250:Drivers/CMSIS/DSP/Source/TransformFunctions/arm_cfft_radix4_f32.c ****       pSrc[2U * i1] = Xc12_out;
 346              		.loc 1 250 7 is_stmt 1 view .LVU145
 347              		.loc 1 250 21 is_stmt 0 view .LVU146
 348 0150 CCED003A 		vstr.32	s7, [ip]
 349              	.LVL60:
 251:Drivers/CMSIS/DSP/Source/TransformFunctions/arm_cfft_radix4_f32.c **** 
 252:Drivers/CMSIS/DSP/Source/TransformFunctions/arm_cfft_radix4_f32.c ****       /* yc' = (ya-yb+yc-yd)co2 - (xa-xb+xc-xd)(si2) */
 253:Drivers/CMSIS/DSP/Source/TransformFunctions/arm_cfft_radix4_f32.c ****       pSrc[(2U * i1) + 1U] = Yc12_out;
 350              		.loc 1 253 7 is_stmt 1 view .LVU147
 351              		.loc 1 253 28 is_stmt 0 view .LVU148
 352 0154 C5ED006A 		vstr.32	s13, [r5]
 254:Drivers/CMSIS/DSP/Source/TransformFunctions/arm_cfft_radix4_f32.c **** 
 255:Drivers/CMSIS/DSP/Source/TransformFunctions/arm_cfft_radix4_f32.c ****       /* xb' = (xa+yb-xc-yd)co1 + (ya-xb-yc+xd)(si1) */
 256:Drivers/CMSIS/DSP/Source/TransformFunctions/arm_cfft_radix4_f32.c ****       pSrc[2U * i2] = Xb12_out;
 353              		.loc 1 256 7 is_stmt 1 view .LVU149
 354              		.loc 1 256 21 is_stmt 0 view .LVU150
 355 0158 C4ED004A 		vstr.32	s9, [r4]
 257:Drivers/CMSIS/DSP/Source/TransformFunctions/arm_cfft_radix4_f32.c **** 
 258:Drivers/CMSIS/DSP/Source/TransformFunctions/arm_cfft_radix4_f32.c ****       /* yb' = (ya-xb-yc+xd)co1 - (xa+yb-xc-yd)(si1) */
 259:Drivers/CMSIS/DSP/Source/TransformFunctions/arm_cfft_radix4_f32.c ****       pSrc[(2U * i2) + 1U] = Yb12_out;
 356              		.loc 1 259 7 is_stmt 1 view .LVU151
 357              		.loc 1 259 28 is_stmt 0 view .LVU152
 358 015c C2ED005A 		vstr.32	s11, [r2]
 260:Drivers/CMSIS/DSP/Source/TransformFunctions/arm_cfft_radix4_f32.c **** 
 261:Drivers/CMSIS/DSP/Source/TransformFunctions/arm_cfft_radix4_f32.c ****       /* xd' = (xa-yb-xc+yd)co3 + (ya+xb-yc-xd)(si3) */
 262:Drivers/CMSIS/DSP/Source/TransformFunctions/arm_cfft_radix4_f32.c ****       pSrc[2U * i3] = Xd12_out;
 359              		.loc 1 262 7 is_stmt 1 view .LVU153
 360              		.loc 1 262 21 is_stmt 0 view .LVU154
 361 0160 87ED007A 		vstr.32	s14, [r7]
 263:Drivers/CMSIS/DSP/Source/TransformFunctions/arm_cfft_radix4_f32.c **** 
 264:Drivers/CMSIS/DSP/Source/TransformFunctions/arm_cfft_radix4_f32.c ****       /* yd' = (ya+xb-yc-xd)co3 - (xa-yb-xc+yd)(si3) */
 265:Drivers/CMSIS/DSP/Source/TransformFunctions/arm_cfft_radix4_f32.c ****       pSrc[(2U * i3) + 1U] = Yd12_out;
ARM GAS  /var/folders/n6/c271nzx11xl4r4_m7sqjlt0m0000gn/T//ccHq3Xre.s 			page 12


 362              		.loc 1 265 7 is_stmt 1 view .LVU155
 363              		.loc 1 265 28 is_stmt 0 view .LVU156
 364 0164 009B     		ldr	r3, [sp]
 365 0166 C3ED007A 		vstr.32	s15, [r3]
 266:Drivers/CMSIS/DSP/Source/TransformFunctions/arm_cfft_radix4_f32.c **** 
 267:Drivers/CMSIS/DSP/Source/TransformFunctions/arm_cfft_radix4_f32.c ****       /*  Twiddle coefficients index modifier */
 268:Drivers/CMSIS/DSP/Source/TransformFunctions/arm_cfft_radix4_f32.c ****       ia1 += twidCoefModifier;
 366              		.loc 1 268 7 is_stmt 1 view .LVU157
 367              		.loc 1 268 11 is_stmt 0 view .LVU158
 368 016a 019B     		ldr	r3, [sp, #4]
 369 016c 9A44     		add	r10, r10, r3
 370              	.LVL61:
 269:Drivers/CMSIS/DSP/Source/TransformFunctions/arm_cfft_radix4_f32.c **** 
 270:Drivers/CMSIS/DSP/Source/TransformFunctions/arm_cfft_radix4_f32.c ****       /*  Updating input index */
 271:Drivers/CMSIS/DSP/Source/TransformFunctions/arm_cfft_radix4_f32.c ****       i0++;
 371              		.loc 1 271 7 is_stmt 1 view .LVU159
 372              		.loc 1 271 9 is_stmt 0 view .LVU160
 373 016e 08F10108 		add	r8, r8, #1
 374              	.LVL62:
 272:Drivers/CMSIS/DSP/Source/TransformFunctions/arm_cfft_radix4_f32.c **** 
 273:Drivers/CMSIS/DSP/Source/TransformFunctions/arm_cfft_radix4_f32.c ****    }
 274:Drivers/CMSIS/DSP/Source/TransformFunctions/arm_cfft_radix4_f32.c ****    while (--j);
 375              		.loc 1 274 11 is_stmt 1 discriminator 1 view .LVU161
 376              		.loc 1 274 11 is_stmt 0 discriminator 1 view .LVU162
 377 0172 039B     		ldr	r3, [sp, #12]
 378 0174 013B     		subs	r3, r3, #1
 379              	.LVL63:
 380              		.loc 1 274 11 discriminator 1 view .LVU163
 381 0176 0393     		str	r3, [sp, #12]
 382 0178 7FF454AF 		bne	.L2
 275:Drivers/CMSIS/DSP/Source/TransformFunctions/arm_cfft_radix4_f32.c **** 
 276:Drivers/CMSIS/DSP/Source/TransformFunctions/arm_cfft_radix4_f32.c ****    twidCoefModifier <<= 2U;
 383              		.loc 1 276 21 view .LVU164
 384 017c D946     		mov	r9, fp
 385 017e DDF808B0 		ldr	fp, [sp, #8]
 386              	.LVL64:
 387              		.loc 1 276 4 is_stmt 1 view .LVU165
 388              		.loc 1 276 21 is_stmt 0 view .LVU166
 389 0182 019B     		ldr	r3, [sp, #4]
 390              	.LVL65:
 391              		.loc 1 276 21 view .LVU167
 392 0184 9B00     		lsls	r3, r3, #2
 393 0186 9DB2     		uxth	r5, r3
 394              	.LVL66:
 277:Drivers/CMSIS/DSP/Source/TransformFunctions/arm_cfft_radix4_f32.c **** 
 278:Drivers/CMSIS/DSP/Source/TransformFunctions/arm_cfft_radix4_f32.c ****    /*  Calculation of second stage to excluding last stage */
 279:Drivers/CMSIS/DSP/Source/TransformFunctions/arm_cfft_radix4_f32.c ****    for (k = fftLen >> 2U; k > 4U; k >>= 2U)
 395              		.loc 1 279 4 is_stmt 1 view .LVU168
 396              		.loc 1 279 20 is_stmt 0 view .LVU169
 397 0188 4FEA9B03 		lsr	r3, fp, #2
 398              	.LVL67:
 399              		.loc 1 279 11 view .LVU170
 400 018c 1A46     		mov	r2, r3
 401 018e 0593     		str	r3, [sp, #20]
 402 0190 0F46     		mov	r7, r1
 403              		.loc 1 279 4 view .LVU171
 404 0192 BEE0     		b	.L3
ARM GAS  /var/folders/n6/c271nzx11xl4r4_m7sqjlt0m0000gn/T//ccHq3Xre.s 			page 13


 405              	.LVL68:
 406              	.L6:
 280:Drivers/CMSIS/DSP/Source/TransformFunctions/arm_cfft_radix4_f32.c ****    {
 281:Drivers/CMSIS/DSP/Source/TransformFunctions/arm_cfft_radix4_f32.c ****       /*  Initializations for the first stage */
 282:Drivers/CMSIS/DSP/Source/TransformFunctions/arm_cfft_radix4_f32.c ****       n1 = n2;
 407              		.loc 1 282 7 is_stmt 1 view .LVU172
 283:Drivers/CMSIS/DSP/Source/TransformFunctions/arm_cfft_radix4_f32.c ****       n2 >>= 2U;
 408              		.loc 1 283 7 view .LVU173
 409              		.loc 1 283 10 is_stmt 0 view .LVU174
 410 0194 4FEA990E 		lsr	lr, r9, #2
 411              	.LVL69:
 284:Drivers/CMSIS/DSP/Source/TransformFunctions/arm_cfft_radix4_f32.c ****       ia1 = 0U;
 412              		.loc 1 284 7 is_stmt 1 view .LVU175
 285:Drivers/CMSIS/DSP/Source/TransformFunctions/arm_cfft_radix4_f32.c **** 
 286:Drivers/CMSIS/DSP/Source/TransformFunctions/arm_cfft_radix4_f32.c ****       /*  Calculation of first stage */
 287:Drivers/CMSIS/DSP/Source/TransformFunctions/arm_cfft_radix4_f32.c ****       j = 0;
 413              		.loc 1 287 7 view .LVU176
 414              		.loc 1 287 9 is_stmt 0 view .LVU177
 415 0198 DDF80C80 		ldr	r8, [sp, #12]
 416 019c 4146     		mov	r1, r8
 284:Drivers/CMSIS/DSP/Source/TransformFunctions/arm_cfft_radix4_f32.c ****       ia1 = 0U;
 417              		.loc 1 284 11 view .LVU178
 418 019e 0295     		str	r5, [sp, #8]
 419 01a0 0492     		str	r2, [sp, #16]
 420              	.LVL70:
 421              	.L5:
 288:Drivers/CMSIS/DSP/Source/TransformFunctions/arm_cfft_radix4_f32.c ****       do
 422              		.loc 1 288 7 is_stmt 1 view .LVU179
 289:Drivers/CMSIS/DSP/Source/TransformFunctions/arm_cfft_radix4_f32.c ****       {
 290:Drivers/CMSIS/DSP/Source/TransformFunctions/arm_cfft_radix4_f32.c ****          /*  index calculation for the coefficients */
 291:Drivers/CMSIS/DSP/Source/TransformFunctions/arm_cfft_radix4_f32.c ****          ia2 = ia1 + ia1;
 423              		.loc 1 291 10 view .LVU180
 292:Drivers/CMSIS/DSP/Source/TransformFunctions/arm_cfft_radix4_f32.c ****          ia3 = ia2 + ia1;
 424              		.loc 1 292 10 view .LVU181
 425              		.loc 1 292 14 is_stmt 0 view .LVU182
 426 01a2 08EB4802 		add	r2, r8, r8, lsl #1
 427              	.LVL71:
 293:Drivers/CMSIS/DSP/Source/TransformFunctions/arm_cfft_radix4_f32.c ****          co1 = pCoef[ia1 * 2U];
 428              		.loc 1 293 10 is_stmt 1 view .LVU183
 429              		.loc 1 293 21 is_stmt 0 view .LVU184
 430 01a6 4FEAC803 		lsl	r3, r8, #3
 431 01aa 07EBC80A 		add	r10, r7, r8, lsl #3
 432              		.loc 1 293 14 view .LVU185
 433 01ae 9AED000A 		vldr.32	s0, [r10]
 434              	.LVL72:
 294:Drivers/CMSIS/DSP/Source/TransformFunctions/arm_cfft_radix4_f32.c ****          si1 = pCoef[(ia1 * 2U) + 1U];
 435              		.loc 1 294 10 is_stmt 1 view .LVU186
 436              		.loc 1 294 21 is_stmt 0 view .LVU187
 437 01b2 0433     		adds	r3, r3, #4
 438 01b4 3B44     		add	r3, r3, r7
 439              		.loc 1 294 14 view .LVU188
 440 01b6 D3ED000A 		vldr.32	s1, [r3]
 441              	.LVL73:
 295:Drivers/CMSIS/DSP/Source/TransformFunctions/arm_cfft_radix4_f32.c ****          co2 = pCoef[ia2 * 2U];
 442              		.loc 1 295 10 is_stmt 1 view .LVU189
 443              		.loc 1 295 21 is_stmt 0 view .LVU190
 444 01ba 4FEA0813 		lsl	r3, r8, #4
ARM GAS  /var/folders/n6/c271nzx11xl4r4_m7sqjlt0m0000gn/T//ccHq3Xre.s 			page 14


 445 01be 07EB081A 		add	r10, r7, r8, lsl #4
 446              		.loc 1 295 14 view .LVU191
 447 01c2 9AED001A 		vldr.32	s2, [r10]
 448              	.LVL74:
 296:Drivers/CMSIS/DSP/Source/TransformFunctions/arm_cfft_radix4_f32.c ****          si2 = pCoef[(ia2 * 2U) + 1U];
 449              		.loc 1 296 10 is_stmt 1 view .LVU192
 450              		.loc 1 296 21 is_stmt 0 view .LVU193
 451 01c6 0433     		adds	r3, r3, #4
 452 01c8 3B44     		add	r3, r3, r7
 453              		.loc 1 296 14 view .LVU194
 454 01ca D3ED001A 		vldr.32	s3, [r3]
 455              	.LVL75:
 297:Drivers/CMSIS/DSP/Source/TransformFunctions/arm_cfft_radix4_f32.c ****          co3 = pCoef[ia3 * 2U];
 456              		.loc 1 297 10 is_stmt 1 view .LVU195
 457              		.loc 1 297 21 is_stmt 0 view .LVU196
 458 01ce D300     		lsls	r3, r2, #3
 459 01d0 07EBC202 		add	r2, r7, r2, lsl #3
 460              	.LVL76:
 461              		.loc 1 297 14 view .LVU197
 462 01d4 92ED002A 		vldr.32	s4, [r2]
 463              	.LVL77:
 298:Drivers/CMSIS/DSP/Source/TransformFunctions/arm_cfft_radix4_f32.c ****          si3 = pCoef[(ia3 * 2U) + 1U];
 464              		.loc 1 298 10 is_stmt 1 view .LVU198
 465              		.loc 1 298 21 is_stmt 0 view .LVU199
 466 01d8 0433     		adds	r3, r3, #4
 467 01da 3B44     		add	r3, r3, r7
 468              		.loc 1 298 14 view .LVU200
 469 01dc D3ED002A 		vldr.32	s5, [r3]
 470              	.LVL78:
 299:Drivers/CMSIS/DSP/Source/TransformFunctions/arm_cfft_radix4_f32.c **** 
 300:Drivers/CMSIS/DSP/Source/TransformFunctions/arm_cfft_radix4_f32.c ****          /*  Twiddle coefficients index modifier */
 301:Drivers/CMSIS/DSP/Source/TransformFunctions/arm_cfft_radix4_f32.c ****          ia1 += twidCoefModifier;
 471              		.loc 1 301 10 is_stmt 1 view .LVU201
 472              		.loc 1 301 14 is_stmt 0 view .LVU202
 473 01e0 029B     		ldr	r3, [sp, #8]
 474 01e2 9844     		add	r8, r8, r3
 475              	.LVL79:
 302:Drivers/CMSIS/DSP/Source/TransformFunctions/arm_cfft_radix4_f32.c **** 
 303:Drivers/CMSIS/DSP/Source/TransformFunctions/arm_cfft_radix4_f32.c ****          i0 = j;
 476              		.loc 1 303 10 is_stmt 1 view .LVU203
 477              		.loc 1 303 13 is_stmt 0 view .LVU204
 478 01e4 0B46     		mov	r3, r1
 479 01e6 CDF80080 		str	r8, [sp]
 480 01ea 0191     		str	r1, [sp, #4]
 481              	.LVL80:
 482              	.L4:
 304:Drivers/CMSIS/DSP/Source/TransformFunctions/arm_cfft_radix4_f32.c ****          do
 483              		.loc 1 304 10 is_stmt 1 view .LVU205
 305:Drivers/CMSIS/DSP/Source/TransformFunctions/arm_cfft_radix4_f32.c ****          {
 306:Drivers/CMSIS/DSP/Source/TransformFunctions/arm_cfft_radix4_f32.c ****             /*  index calculation for the input as, */
 307:Drivers/CMSIS/DSP/Source/TransformFunctions/arm_cfft_radix4_f32.c ****             /*  pSrc[i0 + 0], pSrc[i0 + fftLen/4], pSrc[i0 + fftLen/2], pSrc[i0 + 3fftLen/4] */
 308:Drivers/CMSIS/DSP/Source/TransformFunctions/arm_cfft_radix4_f32.c ****             i1 = i0 + n2;
 484              		.loc 1 308 13 view .LVU206
 485              		.loc 1 308 16 is_stmt 0 view .LVU207
 486 01ec 03EB0E08 		add	r8, r3, lr
 487              	.LVL81:
 309:Drivers/CMSIS/DSP/Source/TransformFunctions/arm_cfft_radix4_f32.c ****             i2 = i1 + n2;
ARM GAS  /var/folders/n6/c271nzx11xl4r4_m7sqjlt0m0000gn/T//ccHq3Xre.s 			page 15


 488              		.loc 1 309 13 is_stmt 1 view .LVU208
 489              		.loc 1 309 16 is_stmt 0 view .LVU209
 490 01f0 03EB4E04 		add	r4, r3, lr, lsl #1
 491              	.LVL82:
 310:Drivers/CMSIS/DSP/Source/TransformFunctions/arm_cfft_radix4_f32.c ****             i3 = i2 + n2;
 492              		.loc 1 310 13 is_stmt 1 view .LVU210
 493              		.loc 1 310 16 is_stmt 0 view .LVU211
 494 01f4 0EEB040C 		add	ip, lr, r4
 495              	.LVL83:
 311:Drivers/CMSIS/DSP/Source/TransformFunctions/arm_cfft_radix4_f32.c **** 
 312:Drivers/CMSIS/DSP/Source/TransformFunctions/arm_cfft_radix4_f32.c ****             xaIn = pSrc[(2U * i0)];
 496              		.loc 1 312 13 is_stmt 1 view .LVU212
 497              		.loc 1 312 24 is_stmt 0 view .LVU213
 498 01f8 DE00     		lsls	r6, r3, #3
 499 01fa 00EBC30A 		add	r10, r0, r3, lsl #3
 500              		.loc 1 312 18 view .LVU214
 501 01fe 9AED006A 		vldr.32	s12, [r10]
 502              	.LVL84:
 313:Drivers/CMSIS/DSP/Source/TransformFunctions/arm_cfft_radix4_f32.c ****             yaIn = pSrc[(2U * i0) + 1U];
 503              		.loc 1 313 13 is_stmt 1 view .LVU215
 504              		.loc 1 313 24 is_stmt 0 view .LVU216
 505 0202 0436     		adds	r6, r6, #4
 506 0204 0644     		add	r6, r6, r0
 507              		.loc 1 313 18 view .LVU217
 508 0206 D6ED006A 		vldr.32	s13, [r6]
 509              	.LVL85:
 314:Drivers/CMSIS/DSP/Source/TransformFunctions/arm_cfft_radix4_f32.c **** 
 315:Drivers/CMSIS/DSP/Source/TransformFunctions/arm_cfft_radix4_f32.c ****             xbIn = pSrc[(2U * i1)];
 510              		.loc 1 315 13 is_stmt 1 view .LVU218
 511              		.loc 1 315 24 is_stmt 0 view .LVU219
 512 020a 4FEAC805 		lsl	r5, r8, #3
 513 020e 00EBC808 		add	r8, r0, r8, lsl #3
 514              	.LVL86:
 515              		.loc 1 315 18 view .LVU220
 516 0212 98ED005A 		vldr.32	s10, [r8]
 517              	.LVL87:
 316:Drivers/CMSIS/DSP/Source/TransformFunctions/arm_cfft_radix4_f32.c ****             ybIn = pSrc[(2U * i1) + 1U];
 518              		.loc 1 316 13 is_stmt 1 view .LVU221
 519              		.loc 1 316 24 is_stmt 0 view .LVU222
 520 0216 0435     		adds	r5, r5, #4
 521 0218 0544     		add	r5, r5, r0
 522              		.loc 1 316 18 view .LVU223
 523 021a D5ED005A 		vldr.32	s11, [r5]
 524              	.LVL88:
 317:Drivers/CMSIS/DSP/Source/TransformFunctions/arm_cfft_radix4_f32.c **** 
 318:Drivers/CMSIS/DSP/Source/TransformFunctions/arm_cfft_radix4_f32.c ****             xcIn = pSrc[(2U * i2)];
 525              		.loc 1 318 13 is_stmt 1 view .LVU224
 526              		.loc 1 318 24 is_stmt 0 view .LVU225
 527 021e E100     		lsls	r1, r4, #3
 528 0220 00EBC404 		add	r4, r0, r4, lsl #3
 529              	.LVL89:
 530              		.loc 1 318 18 view .LVU226
 531 0224 94ED003A 		vldr.32	s6, [r4]
 532              	.LVL90:
 319:Drivers/CMSIS/DSP/Source/TransformFunctions/arm_cfft_radix4_f32.c ****             ycIn = pSrc[(2U * i2) + 1U];
 533              		.loc 1 319 13 is_stmt 1 view .LVU227
 534              		.loc 1 319 24 is_stmt 0 view .LVU228
ARM GAS  /var/folders/n6/c271nzx11xl4r4_m7sqjlt0m0000gn/T//ccHq3Xre.s 			page 16


 535 0228 0431     		adds	r1, r1, #4
 536 022a 0144     		add	r1, r1, r0
 537              		.loc 1 319 18 view .LVU229
 538 022c 91ED004A 		vldr.32	s8, [r1]
 539              	.LVL91:
 320:Drivers/CMSIS/DSP/Source/TransformFunctions/arm_cfft_radix4_f32.c **** 
 321:Drivers/CMSIS/DSP/Source/TransformFunctions/arm_cfft_radix4_f32.c ****             xdIn = pSrc[(2U * i3)];
 540              		.loc 1 321 13 is_stmt 1 view .LVU230
 541              		.loc 1 321 24 is_stmt 0 view .LVU231
 542 0230 4FEACC02 		lsl	r2, ip, #3
 543 0234 00EBCC0C 		add	ip, r0, ip, lsl #3
 544              	.LVL92:
 545              		.loc 1 321 18 view .LVU232
 546 0238 DCED003A 		vldr.32	s7, [ip]
 547              	.LVL93:
 322:Drivers/CMSIS/DSP/Source/TransformFunctions/arm_cfft_radix4_f32.c ****             ydIn = pSrc[(2U * i3) + 1U];
 548              		.loc 1 322 13 is_stmt 1 view .LVU233
 549              		.loc 1 322 24 is_stmt 0 view .LVU234
 550 023c 0432     		adds	r2, r2, #4
 551 023e 0244     		add	r2, r2, r0
 552              		.loc 1 322 18 view .LVU235
 553 0240 D2ED004A 		vldr.32	s9, [r2]
 554              	.LVL94:
 323:Drivers/CMSIS/DSP/Source/TransformFunctions/arm_cfft_radix4_f32.c **** 
 324:Drivers/CMSIS/DSP/Source/TransformFunctions/arm_cfft_radix4_f32.c ****             /* xa - xc */
 325:Drivers/CMSIS/DSP/Source/TransformFunctions/arm_cfft_radix4_f32.c ****             Xaminusc = xaIn - xcIn;
 555              		.loc 1 325 13 is_stmt 1 view .LVU236
 556              		.loc 1 325 22 is_stmt 0 view .LVU237
 557 0244 76EE437A 		vsub.f32	s15, s12, s6
 558              	.LVL95:
 326:Drivers/CMSIS/DSP/Source/TransformFunctions/arm_cfft_radix4_f32.c ****             /* (xb - xd) */
 327:Drivers/CMSIS/DSP/Source/TransformFunctions/arm_cfft_radix4_f32.c ****             Xbminusd = xbIn - xdIn;
 559              		.loc 1 327 13 is_stmt 1 view .LVU238
 560              		.loc 1 327 22 is_stmt 0 view .LVU239
 561 0248 35EE637A 		vsub.f32	s14, s10, s7
 562              	.LVL96:
 328:Drivers/CMSIS/DSP/Source/TransformFunctions/arm_cfft_radix4_f32.c ****             /* ya - yc */
 329:Drivers/CMSIS/DSP/Source/TransformFunctions/arm_cfft_radix4_f32.c ****             Yaminusc = yaIn - ycIn;
 563              		.loc 1 329 13 is_stmt 1 view .LVU240
 564              		.loc 1 329 22 is_stmt 0 view .LVU241
 565 024c 36EEC48A 		vsub.f32	s16, s13, s8
 566              	.LVL97:
 330:Drivers/CMSIS/DSP/Source/TransformFunctions/arm_cfft_radix4_f32.c ****             /* (yb - yd) */
 331:Drivers/CMSIS/DSP/Source/TransformFunctions/arm_cfft_radix4_f32.c ****             Ybminusd = ybIn - ydIn;
 567              		.loc 1 331 13 is_stmt 1 view .LVU242
 568              		.loc 1 331 22 is_stmt 0 view .LVU243
 569 0250 75EEE48A 		vsub.f32	s17, s11, s9
 570              	.LVL98:
 332:Drivers/CMSIS/DSP/Source/TransformFunctions/arm_cfft_radix4_f32.c **** 
 333:Drivers/CMSIS/DSP/Source/TransformFunctions/arm_cfft_radix4_f32.c ****             /* xa + xc */
 334:Drivers/CMSIS/DSP/Source/TransformFunctions/arm_cfft_radix4_f32.c ****             Xaplusc = xaIn + xcIn;
 571              		.loc 1 334 13 is_stmt 1 view .LVU244
 572              		.loc 1 334 21 is_stmt 0 view .LVU245
 573 0254 36EE036A 		vadd.f32	s12, s12, s6
 574              	.LVL99:
 335:Drivers/CMSIS/DSP/Source/TransformFunctions/arm_cfft_radix4_f32.c ****             /* xb + xd */
 336:Drivers/CMSIS/DSP/Source/TransformFunctions/arm_cfft_radix4_f32.c ****             Xbplusd = xbIn + xdIn;
ARM GAS  /var/folders/n6/c271nzx11xl4r4_m7sqjlt0m0000gn/T//ccHq3Xre.s 			page 17


 575              		.loc 1 336 13 is_stmt 1 view .LVU246
 576              		.loc 1 336 21 is_stmt 0 view .LVU247
 577 0258 35EE235A 		vadd.f32	s10, s10, s7
 578              	.LVL100:
 337:Drivers/CMSIS/DSP/Source/TransformFunctions/arm_cfft_radix4_f32.c ****             /* ya + yc */
 338:Drivers/CMSIS/DSP/Source/TransformFunctions/arm_cfft_radix4_f32.c ****             Yaplusc = yaIn + ycIn;
 579              		.loc 1 338 13 is_stmt 1 view .LVU248
 580              		.loc 1 338 21 is_stmt 0 view .LVU249
 581 025c 76EE846A 		vadd.f32	s13, s13, s8
 582              	.LVL101:
 339:Drivers/CMSIS/DSP/Source/TransformFunctions/arm_cfft_radix4_f32.c ****             /* yb + yd */
 340:Drivers/CMSIS/DSP/Source/TransformFunctions/arm_cfft_radix4_f32.c ****             Ybplusd = ybIn + ydIn;
 583              		.loc 1 340 13 is_stmt 1 view .LVU250
 584              		.loc 1 340 21 is_stmt 0 view .LVU251
 585 0260 75EEA45A 		vadd.f32	s11, s11, s9
 586              	.LVL102:
 341:Drivers/CMSIS/DSP/Source/TransformFunctions/arm_cfft_radix4_f32.c **** 
 342:Drivers/CMSIS/DSP/Source/TransformFunctions/arm_cfft_radix4_f32.c ****             /* (xa - xc) + (yb - yd) */
 343:Drivers/CMSIS/DSP/Source/TransformFunctions/arm_cfft_radix4_f32.c ****             Xb12C_out = (Xaminusc + Ybminusd);
 587              		.loc 1 343 13 is_stmt 1 view .LVU252
 588              		.loc 1 343 23 is_stmt 0 view .LVU253
 589 0264 77EEA83A 		vadd.f32	s7, s15, s17
 590              	.LVL103:
 344:Drivers/CMSIS/DSP/Source/TransformFunctions/arm_cfft_radix4_f32.c ****             /* (ya - yc) -  (xb - xd) */
 345:Drivers/CMSIS/DSP/Source/TransformFunctions/arm_cfft_radix4_f32.c ****             Yb12C_out = (Yaminusc - Xbminusd);
 591              		.loc 1 345 13 is_stmt 1 view .LVU254
 592              		.loc 1 345 23 is_stmt 0 view .LVU255
 593 0268 38EE473A 		vsub.f32	s6, s16, s14
 594              	.LVL104:
 346:Drivers/CMSIS/DSP/Source/TransformFunctions/arm_cfft_radix4_f32.c ****             /* xa + xc -(xb + xd) */
 347:Drivers/CMSIS/DSP/Source/TransformFunctions/arm_cfft_radix4_f32.c ****             Xc12C_out = (Xaplusc - Xbplusd);
 595              		.loc 1 347 13 is_stmt 1 view .LVU256
 596              		.loc 1 347 23 is_stmt 0 view .LVU257
 597 026c 76EE454A 		vsub.f32	s9, s12, s10
 598              	.LVL105:
 348:Drivers/CMSIS/DSP/Source/TransformFunctions/arm_cfft_radix4_f32.c ****             /* (ya + yc) - (yb + yd) */
 349:Drivers/CMSIS/DSP/Source/TransformFunctions/arm_cfft_radix4_f32.c ****             Yc12C_out = (Yaplusc - Ybplusd);
 599              		.loc 1 349 13 is_stmt 1 view .LVU258
 600              		.loc 1 349 23 is_stmt 0 view .LVU259
 601 0270 36EEE54A 		vsub.f32	s8, s13, s11
 602              	.LVL106:
 350:Drivers/CMSIS/DSP/Source/TransformFunctions/arm_cfft_radix4_f32.c ****             /* (xa - xc) - (yb - yd) */
 351:Drivers/CMSIS/DSP/Source/TransformFunctions/arm_cfft_radix4_f32.c ****             Xd12C_out = (Xaminusc - Ybminusd);
 603              		.loc 1 351 13 is_stmt 1 view .LVU260
 604              		.loc 1 351 23 is_stmt 0 view .LVU261
 605 0274 77EEE87A 		vsub.f32	s15, s15, s17
 606              	.LVL107:
 352:Drivers/CMSIS/DSP/Source/TransformFunctions/arm_cfft_radix4_f32.c ****             /* (ya - yc) +  (xb - xd) */
 353:Drivers/CMSIS/DSP/Source/TransformFunctions/arm_cfft_radix4_f32.c ****             Yd12C_out = (Xbminusd + Yaminusc);
 607              		.loc 1 353 13 is_stmt 1 view .LVU262
 608              		.loc 1 353 23 is_stmt 0 view .LVU263
 609 0278 37EE087A 		vadd.f32	s14, s14, s16
 610              	.LVL108:
 354:Drivers/CMSIS/DSP/Source/TransformFunctions/arm_cfft_radix4_f32.c **** 
 355:Drivers/CMSIS/DSP/Source/TransformFunctions/arm_cfft_radix4_f32.c ****             pSrc[(2U * i0)] = Xaplusc + Xbplusd;
 611              		.loc 1 355 13 is_stmt 1 view .LVU264
 612              		.loc 1 355 39 is_stmt 0 view .LVU265
ARM GAS  /var/folders/n6/c271nzx11xl4r4_m7sqjlt0m0000gn/T//ccHq3Xre.s 			page 18


 613 027c 36EE056A 		vadd.f32	s12, s12, s10
 614              	.LVL109:
 615              		.loc 1 355 29 view .LVU266
 616 0280 8AED006A 		vstr.32	s12, [r10]
 617              	.LVL110:
 356:Drivers/CMSIS/DSP/Source/TransformFunctions/arm_cfft_radix4_f32.c ****             pSrc[(2U * i0) + 1U] = Yaplusc + Ybplusd;
 618              		.loc 1 356 13 is_stmt 1 view .LVU267
 619              		.loc 1 356 44 is_stmt 0 view .LVU268
 620 0284 76EEA56A 		vadd.f32	s13, s13, s11
 621              	.LVL111:
 622              		.loc 1 356 34 view .LVU269
 623 0288 C6ED006A 		vstr.32	s13, [r6]
 624              	.LVL112:
 357:Drivers/CMSIS/DSP/Source/TransformFunctions/arm_cfft_radix4_f32.c **** 
 358:Drivers/CMSIS/DSP/Source/TransformFunctions/arm_cfft_radix4_f32.c ****             Xb12_out = Xb12C_out * co1;
 625              		.loc 1 358 13 is_stmt 1 view .LVU270
 626              		.loc 1 358 22 is_stmt 0 view .LVU271
 627 028c 20EE235A 		vmul.f32	s10, s0, s7
 628              	.LVL113:
 359:Drivers/CMSIS/DSP/Source/TransformFunctions/arm_cfft_radix4_f32.c ****             Yb12_out = Yb12C_out * co1;
 629              		.loc 1 359 13 is_stmt 1 view .LVU272
 630              		.loc 1 359 22 is_stmt 0 view .LVU273
 631 0290 60EE035A 		vmul.f32	s11, s0, s6
 632              	.LVL114:
 360:Drivers/CMSIS/DSP/Source/TransformFunctions/arm_cfft_radix4_f32.c ****             Xc12_out = Xc12C_out * co2;
 633              		.loc 1 360 13 is_stmt 1 view .LVU274
 634              		.loc 1 360 22 is_stmt 0 view .LVU275
 635 0294 61EE248A 		vmul.f32	s17, s2, s9
 636              	.LVL115:
 361:Drivers/CMSIS/DSP/Source/TransformFunctions/arm_cfft_radix4_f32.c ****             Yc12_out = Yc12C_out * co2;
 637              		.loc 1 361 13 is_stmt 1 view .LVU276
 638              		.loc 1 361 22 is_stmt 0 view .LVU277
 639 0298 21EE048A 		vmul.f32	s16, s2, s8
 640              	.LVL116:
 362:Drivers/CMSIS/DSP/Source/TransformFunctions/arm_cfft_radix4_f32.c ****             Xd12_out = Xd12C_out * co3;
 641              		.loc 1 362 13 is_stmt 1 view .LVU278
 642              		.loc 1 362 22 is_stmt 0 view .LVU279
 643 029c 22EE276A 		vmul.f32	s12, s4, s15
 644              	.LVL117:
 363:Drivers/CMSIS/DSP/Source/TransformFunctions/arm_cfft_radix4_f32.c ****             Yd12_out = Yd12C_out * co3;
 645              		.loc 1 363 13 is_stmt 1 view .LVU280
 646              		.loc 1 363 22 is_stmt 0 view .LVU281
 647 02a0 62EE076A 		vmul.f32	s13, s4, s14
 648              	.LVL118:
 364:Drivers/CMSIS/DSP/Source/TransformFunctions/arm_cfft_radix4_f32.c **** 
 365:Drivers/CMSIS/DSP/Source/TransformFunctions/arm_cfft_radix4_f32.c ****             /* xb' = (xa+yb-xc-yd)co1 - (ya-xb-yc+xd)(si1) */
 366:Drivers/CMSIS/DSP/Source/TransformFunctions/arm_cfft_radix4_f32.c ****             //Xb12_out -= Yb12C_out * si1;
 367:Drivers/CMSIS/DSP/Source/TransformFunctions/arm_cfft_radix4_f32.c ****             p0 = Yb12C_out * si1;
 649              		.loc 1 367 13 is_stmt 1 view .LVU282
 650              		.loc 1 367 16 is_stmt 0 view .LVU283
 651 02a4 20EE833A 		vmul.f32	s6, s1, s6
 652              	.LVL119:
 368:Drivers/CMSIS/DSP/Source/TransformFunctions/arm_cfft_radix4_f32.c ****             /* yb' = (ya-xb-yc+xd)co1 + (xa+yb-xc-yd)(si1) */
 369:Drivers/CMSIS/DSP/Source/TransformFunctions/arm_cfft_radix4_f32.c ****             //Yb12_out += Xb12C_out * si1;
 370:Drivers/CMSIS/DSP/Source/TransformFunctions/arm_cfft_radix4_f32.c ****             p1 = Xb12C_out * si1;
 653              		.loc 1 370 13 is_stmt 1 view .LVU284
 654              		.loc 1 370 16 is_stmt 0 view .LVU285
ARM GAS  /var/folders/n6/c271nzx11xl4r4_m7sqjlt0m0000gn/T//ccHq3Xre.s 			page 19


 655 02a8 60EEA33A 		vmul.f32	s7, s1, s7
 656              	.LVL120:
 371:Drivers/CMSIS/DSP/Source/TransformFunctions/arm_cfft_radix4_f32.c ****             /* xc' = (xa-xb+xc-xd)co2 - (ya-yb+yc-yd)(si2) */
 372:Drivers/CMSIS/DSP/Source/TransformFunctions/arm_cfft_radix4_f32.c ****             //Xc12_out -= Yc12C_out * si2;
 373:Drivers/CMSIS/DSP/Source/TransformFunctions/arm_cfft_radix4_f32.c ****             p2 = Yc12C_out * si2;
 657              		.loc 1 373 13 is_stmt 1 view .LVU286
 658              		.loc 1 373 16 is_stmt 0 view .LVU287
 659 02ac 21EE844A 		vmul.f32	s8, s3, s8
 660              	.LVL121:
 374:Drivers/CMSIS/DSP/Source/TransformFunctions/arm_cfft_radix4_f32.c ****             /* yc' = (ya-yb+yc-yd)co2 + (xa-xb+xc-xd)(si2) */
 375:Drivers/CMSIS/DSP/Source/TransformFunctions/arm_cfft_radix4_f32.c ****             //Yc12_out += Xc12C_out * si2;
 376:Drivers/CMSIS/DSP/Source/TransformFunctions/arm_cfft_radix4_f32.c ****             p3 = Xc12C_out * si2;
 661              		.loc 1 376 13 is_stmt 1 view .LVU288
 662              		.loc 1 376 16 is_stmt 0 view .LVU289
 663 02b0 61EEA44A 		vmul.f32	s9, s3, s9
 664              	.LVL122:
 377:Drivers/CMSIS/DSP/Source/TransformFunctions/arm_cfft_radix4_f32.c ****             /* xd' = (xa-yb-xc+yd)co3 - (ya+xb-yc-xd)(si3) */
 378:Drivers/CMSIS/DSP/Source/TransformFunctions/arm_cfft_radix4_f32.c ****             //Xd12_out -= Yd12C_out * si3;
 379:Drivers/CMSIS/DSP/Source/TransformFunctions/arm_cfft_radix4_f32.c ****             p4 = Yd12C_out * si3;
 665              		.loc 1 379 13 is_stmt 1 view .LVU290
 666              		.loc 1 379 16 is_stmt 0 view .LVU291
 667 02b4 22EE877A 		vmul.f32	s14, s5, s14
 668              	.LVL123:
 380:Drivers/CMSIS/DSP/Source/TransformFunctions/arm_cfft_radix4_f32.c ****             /* yd' = (ya+xb-yc-xd)co3 + (xa-yb-xc+yd)(si3) */
 381:Drivers/CMSIS/DSP/Source/TransformFunctions/arm_cfft_radix4_f32.c ****             //Yd12_out += Xd12C_out * si3;
 382:Drivers/CMSIS/DSP/Source/TransformFunctions/arm_cfft_radix4_f32.c ****             p5 = Xd12C_out * si3;
 669              		.loc 1 382 13 is_stmt 1 view .LVU292
 670              		.loc 1 382 16 is_stmt 0 view .LVU293
 671 02b8 62EEA77A 		vmul.f32	s15, s5, s15
 672              	.LVL124:
 383:Drivers/CMSIS/DSP/Source/TransformFunctions/arm_cfft_radix4_f32.c **** 
 384:Drivers/CMSIS/DSP/Source/TransformFunctions/arm_cfft_radix4_f32.c ****             Xb12_out += p0;
 673              		.loc 1 384 13 is_stmt 1 view .LVU294
 674              		.loc 1 384 22 is_stmt 0 view .LVU295
 675 02bc 35EE035A 		vadd.f32	s10, s10, s6
 676              	.LVL125:
 385:Drivers/CMSIS/DSP/Source/TransformFunctions/arm_cfft_radix4_f32.c ****             Yb12_out -= p1;
 677              		.loc 1 385 13 is_stmt 1 view .LVU296
 678              		.loc 1 385 22 is_stmt 0 view .LVU297
 679 02c0 75EEE35A 		vsub.f32	s11, s11, s7
 680              	.LVL126:
 386:Drivers/CMSIS/DSP/Source/TransformFunctions/arm_cfft_radix4_f32.c ****             Xc12_out += p2;
 681              		.loc 1 386 13 is_stmt 1 view .LVU298
 682              		.loc 1 386 22 is_stmt 0 view .LVU299
 683 02c4 38EE844A 		vadd.f32	s8, s17, s8
 684              	.LVL127:
 387:Drivers/CMSIS/DSP/Source/TransformFunctions/arm_cfft_radix4_f32.c ****             Yc12_out -= p3;
 685              		.loc 1 387 13 is_stmt 1 view .LVU300
 686              		.loc 1 387 22 is_stmt 0 view .LVU301
 687 02c8 78EE644A 		vsub.f32	s9, s16, s9
 688              	.LVL128:
 388:Drivers/CMSIS/DSP/Source/TransformFunctions/arm_cfft_radix4_f32.c ****             Xd12_out += p4;
 689              		.loc 1 388 13 is_stmt 1 view .LVU302
 690              		.loc 1 388 22 is_stmt 0 view .LVU303
 691 02cc 36EE077A 		vadd.f32	s14, s12, s14
 692              	.LVL129:
 389:Drivers/CMSIS/DSP/Source/TransformFunctions/arm_cfft_radix4_f32.c ****             Yd12_out -= p5;
ARM GAS  /var/folders/n6/c271nzx11xl4r4_m7sqjlt0m0000gn/T//ccHq3Xre.s 			page 20


 693              		.loc 1 389 13 is_stmt 1 view .LVU304
 694              		.loc 1 389 22 is_stmt 0 view .LVU305
 695 02d0 76EEE77A 		vsub.f32	s15, s13, s15
 696              	.LVL130:
 390:Drivers/CMSIS/DSP/Source/TransformFunctions/arm_cfft_radix4_f32.c **** 
 391:Drivers/CMSIS/DSP/Source/TransformFunctions/arm_cfft_radix4_f32.c ****             /* xc' = (xa-xb+xc-xd)co2 + (ya-yb+yc-yd)(si2) */
 392:Drivers/CMSIS/DSP/Source/TransformFunctions/arm_cfft_radix4_f32.c ****             pSrc[2U * i1] = Xc12_out;
 697              		.loc 1 392 13 is_stmt 1 view .LVU306
 698              		.loc 1 392 27 is_stmt 0 view .LVU307
 699 02d4 88ED004A 		vstr.32	s8, [r8]
 393:Drivers/CMSIS/DSP/Source/TransformFunctions/arm_cfft_radix4_f32.c **** 
 394:Drivers/CMSIS/DSP/Source/TransformFunctions/arm_cfft_radix4_f32.c ****             /* yc' = (ya-yb+yc-yd)co2 - (xa-xb+xc-xd)(si2) */
 395:Drivers/CMSIS/DSP/Source/TransformFunctions/arm_cfft_radix4_f32.c ****             pSrc[(2U * i1) + 1U] = Yc12_out;
 700              		.loc 1 395 13 is_stmt 1 view .LVU308
 701              		.loc 1 395 34 is_stmt 0 view .LVU309
 702 02d8 C5ED004A 		vstr.32	s9, [r5]
 396:Drivers/CMSIS/DSP/Source/TransformFunctions/arm_cfft_radix4_f32.c **** 
 397:Drivers/CMSIS/DSP/Source/TransformFunctions/arm_cfft_radix4_f32.c ****             /* xb' = (xa+yb-xc-yd)co1 + (ya-xb-yc+xd)(si1) */
 398:Drivers/CMSIS/DSP/Source/TransformFunctions/arm_cfft_radix4_f32.c ****             pSrc[2U * i2] = Xb12_out;
 703              		.loc 1 398 13 is_stmt 1 view .LVU310
 704              		.loc 1 398 27 is_stmt 0 view .LVU311
 705 02dc 84ED005A 		vstr.32	s10, [r4]
 399:Drivers/CMSIS/DSP/Source/TransformFunctions/arm_cfft_radix4_f32.c **** 
 400:Drivers/CMSIS/DSP/Source/TransformFunctions/arm_cfft_radix4_f32.c ****             /* yb' = (ya-xb-yc+xd)co1 - (xa+yb-xc-yd)(si1) */
 401:Drivers/CMSIS/DSP/Source/TransformFunctions/arm_cfft_radix4_f32.c ****             pSrc[(2U * i2) + 1U] = Yb12_out;
 706              		.loc 1 401 13 is_stmt 1 view .LVU312
 707              		.loc 1 401 34 is_stmt 0 view .LVU313
 708 02e0 C1ED005A 		vstr.32	s11, [r1]
 402:Drivers/CMSIS/DSP/Source/TransformFunctions/arm_cfft_radix4_f32.c **** 
 403:Drivers/CMSIS/DSP/Source/TransformFunctions/arm_cfft_radix4_f32.c ****             /* xd' = (xa-yb-xc+yd)co3 + (ya+xb-yc-xd)(si3) */
 404:Drivers/CMSIS/DSP/Source/TransformFunctions/arm_cfft_radix4_f32.c ****             pSrc[2U * i3] = Xd12_out;
 709              		.loc 1 404 13 is_stmt 1 view .LVU314
 710              		.loc 1 404 27 is_stmt 0 view .LVU315
 711 02e4 8CED007A 		vstr.32	s14, [ip]
 405:Drivers/CMSIS/DSP/Source/TransformFunctions/arm_cfft_radix4_f32.c **** 
 406:Drivers/CMSIS/DSP/Source/TransformFunctions/arm_cfft_radix4_f32.c ****             /* yd' = (ya+xb-yc-xd)co3 - (xa-yb-xc+yd)(si3) */
 407:Drivers/CMSIS/DSP/Source/TransformFunctions/arm_cfft_radix4_f32.c ****             pSrc[(2U * i3) + 1U] = Yd12_out;
 712              		.loc 1 407 13 is_stmt 1 view .LVU316
 713              		.loc 1 407 34 is_stmt 0 view .LVU317
 714 02e8 C2ED007A 		vstr.32	s15, [r2]
 408:Drivers/CMSIS/DSP/Source/TransformFunctions/arm_cfft_radix4_f32.c **** 
 409:Drivers/CMSIS/DSP/Source/TransformFunctions/arm_cfft_radix4_f32.c ****             i0 += n1;
 715              		.loc 1 409 13 is_stmt 1 view .LVU318
 716              		.loc 1 409 16 is_stmt 0 view .LVU319
 717 02ec 4B44     		add	r3, r3, r9
 718              	.LVL131:
 410:Drivers/CMSIS/DSP/Source/TransformFunctions/arm_cfft_radix4_f32.c ****          } while (i0 < fftLen);
 719              		.loc 1 410 22 is_stmt 1 discriminator 1 view .LVU320
 720 02ee 9B45     		cmp	fp, r3
 721 02f0 3FF67CAF 		bhi	.L4
 411:Drivers/CMSIS/DSP/Source/TransformFunctions/arm_cfft_radix4_f32.c ****          j++;
 722              		.loc 1 411 11 is_stmt 0 view .LVU321
 723 02f4 DDF80080 		ldr	r8, [sp]
 724 02f8 0199     		ldr	r1, [sp, #4]
 725              		.loc 1 411 10 is_stmt 1 view .LVU322
 726              		.loc 1 411 11 is_stmt 0 view .LVU323
 727 02fa 0131     		adds	r1, r1, #1
ARM GAS  /var/folders/n6/c271nzx11xl4r4_m7sqjlt0m0000gn/T//ccHq3Xre.s 			page 21


 728              	.LVL132:
 412:Drivers/CMSIS/DSP/Source/TransformFunctions/arm_cfft_radix4_f32.c ****       } while (j <= (n2 - 1U));
 729              		.loc 1 412 18 is_stmt 1 view .LVU324
 730              		.loc 1 412 25 is_stmt 0 view .LVU325
 731 02fc 0EF1FF33 		add	r3, lr, #-1
 732              	.LVL133:
 733              		.loc 1 412 18 view .LVU326
 734 0300 8B42     		cmp	r3, r1
 735 0302 BFF44EAF 		bcs	.L5
 413:Drivers/CMSIS/DSP/Source/TransformFunctions/arm_cfft_radix4_f32.c ****       twidCoefModifier <<= 2U;
 736              		.loc 1 413 24 view .LVU327
 737 0306 029D     		ldr	r5, [sp, #8]
 738 0308 049A     		ldr	r2, [sp, #16]
 739              		.loc 1 413 7 is_stmt 1 view .LVU328
 740              		.loc 1 413 24 is_stmt 0 view .LVU329
 741 030a AB00     		lsls	r3, r5, #2
 742 030c 9DB2     		uxth	r5, r3
 743              	.LVL134:
 279:Drivers/CMSIS/DSP/Source/TransformFunctions/arm_cfft_radix4_f32.c ****    {
 744              		.loc 1 279 37 is_stmt 1 discriminator 2 view .LVU330
 745 030e 9208     		lsrs	r2, r2, #2
 746              	.LVL135:
 283:Drivers/CMSIS/DSP/Source/TransformFunctions/arm_cfft_radix4_f32.c ****       ia1 = 0U;
 747              		.loc 1 283 10 is_stmt 0 view .LVU331
 748 0310 F146     		mov	r9, lr
 749              	.LVL136:
 750              	.L3:
 279:Drivers/CMSIS/DSP/Source/TransformFunctions/arm_cfft_radix4_f32.c ****    {
 751              		.loc 1 279 29 is_stmt 1 discriminator 1 view .LVU332
 752 0312 042A     		cmp	r2, #4
 753 0314 3FF63EAF 		bhi	.L6
 279:Drivers/CMSIS/DSP/Source/TransformFunctions/arm_cfft_radix4_f32.c ****    {
 754              		.loc 1 279 29 is_stmt 0 discriminator 1 view .LVU333
 755 0318 059B     		ldr	r3, [sp, #20]
 756              	.LVL137:
 757              	.L7:
 414:Drivers/CMSIS/DSP/Source/TransformFunctions/arm_cfft_radix4_f32.c ****    }
 415:Drivers/CMSIS/DSP/Source/TransformFunctions/arm_cfft_radix4_f32.c **** 
 416:Drivers/CMSIS/DSP/Source/TransformFunctions/arm_cfft_radix4_f32.c ****    j = fftLen >> 2;
 417:Drivers/CMSIS/DSP/Source/TransformFunctions/arm_cfft_radix4_f32.c ****    ptr1 = &pSrc[0];
 418:Drivers/CMSIS/DSP/Source/TransformFunctions/arm_cfft_radix4_f32.c **** 
 419:Drivers/CMSIS/DSP/Source/TransformFunctions/arm_cfft_radix4_f32.c ****    /*  Calculations of last stage */
 420:Drivers/CMSIS/DSP/Source/TransformFunctions/arm_cfft_radix4_f32.c ****    do
 758              		.loc 1 420 4 is_stmt 1 view .LVU334
 421:Drivers/CMSIS/DSP/Source/TransformFunctions/arm_cfft_radix4_f32.c ****    {
 422:Drivers/CMSIS/DSP/Source/TransformFunctions/arm_cfft_radix4_f32.c ****       xaIn = ptr1[0];
 759              		.loc 1 422 7 view .LVU335
 760              		.loc 1 422 12 is_stmt 0 view .LVU336
 761 031a 90ED007A 		vldr.32	s14, [r0]
 762              	.LVL138:
 423:Drivers/CMSIS/DSP/Source/TransformFunctions/arm_cfft_radix4_f32.c ****       yaIn = ptr1[1];
 763              		.loc 1 423 7 is_stmt 1 view .LVU337
 764              		.loc 1 423 12 is_stmt 0 view .LVU338
 765 031e D0ED017A 		vldr.32	s15, [r0, #4]
 766              	.LVL139:
 424:Drivers/CMSIS/DSP/Source/TransformFunctions/arm_cfft_radix4_f32.c ****       xbIn = ptr1[2];
 767              		.loc 1 424 7 is_stmt 1 view .LVU339
ARM GAS  /var/folders/n6/c271nzx11xl4r4_m7sqjlt0m0000gn/T//ccHq3Xre.s 			page 22


 768              		.loc 1 424 12 is_stmt 0 view .LVU340
 769 0322 D0ED026A 		vldr.32	s13, [r0, #8]
 770              	.LVL140:
 425:Drivers/CMSIS/DSP/Source/TransformFunctions/arm_cfft_radix4_f32.c ****       ybIn = ptr1[3];
 771              		.loc 1 425 7 is_stmt 1 view .LVU341
 772              		.loc 1 425 12 is_stmt 0 view .LVU342
 773 0326 90ED036A 		vldr.32	s12, [r0, #12]
 774              	.LVL141:
 426:Drivers/CMSIS/DSP/Source/TransformFunctions/arm_cfft_radix4_f32.c ****       xcIn = ptr1[4];
 775              		.loc 1 426 7 is_stmt 1 view .LVU343
 776              		.loc 1 426 12 is_stmt 0 view .LVU344
 777 032a D0ED045A 		vldr.32	s11, [r0, #16]
 778              	.LVL142:
 427:Drivers/CMSIS/DSP/Source/TransformFunctions/arm_cfft_radix4_f32.c ****       ycIn = ptr1[5];
 779              		.loc 1 427 7 is_stmt 1 view .LVU345
 780              		.loc 1 427 12 is_stmt 0 view .LVU346
 781 032e D0ED054A 		vldr.32	s9, [r0, #20]
 782              	.LVL143:
 428:Drivers/CMSIS/DSP/Source/TransformFunctions/arm_cfft_radix4_f32.c ****       xdIn = ptr1[6];
 783              		.loc 1 428 7 is_stmt 1 view .LVU347
 784              		.loc 1 428 12 is_stmt 0 view .LVU348
 785 0332 90ED063A 		vldr.32	s6, [r0, #24]
 786              	.LVL144:
 429:Drivers/CMSIS/DSP/Source/TransformFunctions/arm_cfft_radix4_f32.c ****       ydIn = ptr1[7];
 787              		.loc 1 429 7 is_stmt 1 view .LVU349
 788              		.loc 1 429 12 is_stmt 0 view .LVU350
 789 0336 D0ED073A 		vldr.32	s7, [r0, #28]
 790              	.LVL145:
 430:Drivers/CMSIS/DSP/Source/TransformFunctions/arm_cfft_radix4_f32.c **** 
 431:Drivers/CMSIS/DSP/Source/TransformFunctions/arm_cfft_radix4_f32.c ****       /* xa + xc */
 432:Drivers/CMSIS/DSP/Source/TransformFunctions/arm_cfft_radix4_f32.c ****       Xaplusc = xaIn + xcIn;
 791              		.loc 1 432 7 is_stmt 1 view .LVU351
 792              		.loc 1 432 15 is_stmt 0 view .LVU352
 793 033a 37EE255A 		vadd.f32	s10, s14, s11
 794              	.LVL146:
 433:Drivers/CMSIS/DSP/Source/TransformFunctions/arm_cfft_radix4_f32.c **** 
 434:Drivers/CMSIS/DSP/Source/TransformFunctions/arm_cfft_radix4_f32.c ****       /* xa - xc */
 435:Drivers/CMSIS/DSP/Source/TransformFunctions/arm_cfft_radix4_f32.c ****       Xaminusc = xaIn - xcIn;
 795              		.loc 1 435 7 is_stmt 1 view .LVU353
 796              		.loc 1 435 16 is_stmt 0 view .LVU354
 797 033e 37EE657A 		vsub.f32	s14, s14, s11
 798              	.LVL147:
 436:Drivers/CMSIS/DSP/Source/TransformFunctions/arm_cfft_radix4_f32.c **** 
 437:Drivers/CMSIS/DSP/Source/TransformFunctions/arm_cfft_radix4_f32.c ****       /* ya + yc */
 438:Drivers/CMSIS/DSP/Source/TransformFunctions/arm_cfft_radix4_f32.c ****       Yaplusc = yaIn + ycIn;
 799              		.loc 1 438 7 is_stmt 1 view .LVU355
 800              		.loc 1 438 15 is_stmt 0 view .LVU356
 801 0342 77EEA45A 		vadd.f32	s11, s15, s9
 802              	.LVL148:
 439:Drivers/CMSIS/DSP/Source/TransformFunctions/arm_cfft_radix4_f32.c **** 
 440:Drivers/CMSIS/DSP/Source/TransformFunctions/arm_cfft_radix4_f32.c ****       /* ya - yc */
 441:Drivers/CMSIS/DSP/Source/TransformFunctions/arm_cfft_radix4_f32.c ****       Yaminusc = yaIn - ycIn;
 803              		.loc 1 441 7 is_stmt 1 view .LVU357
 804              		.loc 1 441 16 is_stmt 0 view .LVU358
 805 0346 77EEE47A 		vsub.f32	s15, s15, s9
 806              	.LVL149:
 442:Drivers/CMSIS/DSP/Source/TransformFunctions/arm_cfft_radix4_f32.c **** 
ARM GAS  /var/folders/n6/c271nzx11xl4r4_m7sqjlt0m0000gn/T//ccHq3Xre.s 			page 23


 443:Drivers/CMSIS/DSP/Source/TransformFunctions/arm_cfft_radix4_f32.c ****       /* xb + xd */
 444:Drivers/CMSIS/DSP/Source/TransformFunctions/arm_cfft_radix4_f32.c ****       Xbplusd = xbIn + xdIn;
 807              		.loc 1 444 7 is_stmt 1 view .LVU359
 808              		.loc 1 444 15 is_stmt 0 view .LVU360
 809 034a 36EE834A 		vadd.f32	s8, s13, s6
 810              	.LVL150:
 445:Drivers/CMSIS/DSP/Source/TransformFunctions/arm_cfft_radix4_f32.c **** 
 446:Drivers/CMSIS/DSP/Source/TransformFunctions/arm_cfft_radix4_f32.c ****       /* yb + yd */
 447:Drivers/CMSIS/DSP/Source/TransformFunctions/arm_cfft_radix4_f32.c ****       Ybplusd = ybIn + ydIn;
 811              		.loc 1 447 7 is_stmt 1 view .LVU361
 812              		.loc 1 447 15 is_stmt 0 view .LVU362
 813 034e 76EE234A 		vadd.f32	s9, s12, s7
 814              	.LVL151:
 448:Drivers/CMSIS/DSP/Source/TransformFunctions/arm_cfft_radix4_f32.c **** 
 449:Drivers/CMSIS/DSP/Source/TransformFunctions/arm_cfft_radix4_f32.c ****       /* (xb-xd) */
 450:Drivers/CMSIS/DSP/Source/TransformFunctions/arm_cfft_radix4_f32.c ****       Xbminusd = xbIn - xdIn;
 815              		.loc 1 450 7 is_stmt 1 view .LVU363
 816              		.loc 1 450 16 is_stmt 0 view .LVU364
 817 0352 76EEC36A 		vsub.f32	s13, s13, s6
 818              	.LVL152:
 451:Drivers/CMSIS/DSP/Source/TransformFunctions/arm_cfft_radix4_f32.c **** 
 452:Drivers/CMSIS/DSP/Source/TransformFunctions/arm_cfft_radix4_f32.c ****       /* (yb-yd) */
 453:Drivers/CMSIS/DSP/Source/TransformFunctions/arm_cfft_radix4_f32.c ****       Ybminusd = ybIn - ydIn;
 819              		.loc 1 453 7 is_stmt 1 view .LVU365
 820              		.loc 1 453 16 is_stmt 0 view .LVU366
 821 0356 36EE636A 		vsub.f32	s12, s12, s7
 822              	.LVL153:
 454:Drivers/CMSIS/DSP/Source/TransformFunctions/arm_cfft_radix4_f32.c **** 
 455:Drivers/CMSIS/DSP/Source/TransformFunctions/arm_cfft_radix4_f32.c ****       /* xa' = xa + xb + xc + xd */
 456:Drivers/CMSIS/DSP/Source/TransformFunctions/arm_cfft_radix4_f32.c ****       a0 = (Xaplusc + Xbplusd);
 823              		.loc 1 456 7 is_stmt 1 view .LVU367
 824              		.loc 1 456 10 is_stmt 0 view .LVU368
 825 035a 35EE043A 		vadd.f32	s6, s10, s8
 826              	.LVL154:
 457:Drivers/CMSIS/DSP/Source/TransformFunctions/arm_cfft_radix4_f32.c ****       /* ya' = ya + yb + yc + yd */
 458:Drivers/CMSIS/DSP/Source/TransformFunctions/arm_cfft_radix4_f32.c ****       a1 = (Yaplusc + Ybplusd);
 827              		.loc 1 458 7 is_stmt 1 view .LVU369
 828              		.loc 1 458 10 is_stmt 0 view .LVU370
 829 035e 75EEA43A 		vadd.f32	s7, s11, s9
 830              	.LVL155:
 459:Drivers/CMSIS/DSP/Source/TransformFunctions/arm_cfft_radix4_f32.c ****       /* xc' = (xa-xb+xc-xd) */
 460:Drivers/CMSIS/DSP/Source/TransformFunctions/arm_cfft_radix4_f32.c ****       a2 = (Xaplusc - Xbplusd);
 831              		.loc 1 460 7 is_stmt 1 view .LVU371
 832              		.loc 1 460 10 is_stmt 0 view .LVU372
 833 0362 35EE445A 		vsub.f32	s10, s10, s8
 834              	.LVL156:
 461:Drivers/CMSIS/DSP/Source/TransformFunctions/arm_cfft_radix4_f32.c ****       /* yc' = (ya-yb+yc-yd) */
 462:Drivers/CMSIS/DSP/Source/TransformFunctions/arm_cfft_radix4_f32.c ****       a3 = (Yaplusc - Ybplusd);
 835              		.loc 1 462 7 is_stmt 1 view .LVU373
 836              		.loc 1 462 10 is_stmt 0 view .LVU374
 837 0366 75EEE45A 		vsub.f32	s11, s11, s9
 838              	.LVL157:
 463:Drivers/CMSIS/DSP/Source/TransformFunctions/arm_cfft_radix4_f32.c ****       /* xb' = (xa+yb-xc-yd) */
 464:Drivers/CMSIS/DSP/Source/TransformFunctions/arm_cfft_radix4_f32.c ****       a4 = (Xaminusc + Ybminusd);
 839              		.loc 1 464 7 is_stmt 1 view .LVU375
 840              		.loc 1 464 10 is_stmt 0 view .LVU376
 841 036a 37EE064A 		vadd.f32	s8, s14, s12
ARM GAS  /var/folders/n6/c271nzx11xl4r4_m7sqjlt0m0000gn/T//ccHq3Xre.s 			page 24


 842              	.LVL158:
 465:Drivers/CMSIS/DSP/Source/TransformFunctions/arm_cfft_radix4_f32.c ****       /* yb' = (ya-xb-yc+xd) */
 466:Drivers/CMSIS/DSP/Source/TransformFunctions/arm_cfft_radix4_f32.c ****       a5 = (Yaminusc - Xbminusd);
 843              		.loc 1 466 7 is_stmt 1 view .LVU377
 844              		.loc 1 466 10 is_stmt 0 view .LVU378
 845 036e 77EEE64A 		vsub.f32	s9, s15, s13
 846              	.LVL159:
 467:Drivers/CMSIS/DSP/Source/TransformFunctions/arm_cfft_radix4_f32.c ****       /* xd' = (xa-yb-xc+yd)) */
 468:Drivers/CMSIS/DSP/Source/TransformFunctions/arm_cfft_radix4_f32.c ****       a6 = (Xaminusc - Ybminusd);
 847              		.loc 1 468 7 is_stmt 1 view .LVU379
 848              		.loc 1 468 10 is_stmt 0 view .LVU380
 849 0372 37EE467A 		vsub.f32	s14, s14, s12
 850              	.LVL160:
 469:Drivers/CMSIS/DSP/Source/TransformFunctions/arm_cfft_radix4_f32.c ****       /* yd' = (ya+xb-yc-xd) */
 470:Drivers/CMSIS/DSP/Source/TransformFunctions/arm_cfft_radix4_f32.c ****       a7 = (Xbminusd + Yaminusc);
 851              		.loc 1 470 7 is_stmt 1 view .LVU381
 852              		.loc 1 470 10 is_stmt 0 view .LVU382
 853 0376 77EEA67A 		vadd.f32	s15, s15, s13
 854              	.LVL161:
 471:Drivers/CMSIS/DSP/Source/TransformFunctions/arm_cfft_radix4_f32.c **** 
 472:Drivers/CMSIS/DSP/Source/TransformFunctions/arm_cfft_radix4_f32.c ****       ptr1[0] = a0;
 855              		.loc 1 472 7 is_stmt 1 view .LVU383
 856              		.loc 1 472 15 is_stmt 0 view .LVU384
 857 037a 80ED003A 		vstr.32	s6, [r0]
 858              	.LVL162:
 473:Drivers/CMSIS/DSP/Source/TransformFunctions/arm_cfft_radix4_f32.c ****       ptr1[1] = a1;
 859              		.loc 1 473 7 is_stmt 1 view .LVU385
 860              		.loc 1 473 15 is_stmt 0 view .LVU386
 861 037e C0ED013A 		vstr.32	s7, [r0, #4]
 862              	.LVL163:
 474:Drivers/CMSIS/DSP/Source/TransformFunctions/arm_cfft_radix4_f32.c ****       ptr1[2] = a2;
 863              		.loc 1 474 7 is_stmt 1 view .LVU387
 864              		.loc 1 474 15 is_stmt 0 view .LVU388
 865 0382 80ED025A 		vstr.32	s10, [r0, #8]
 866              	.LVL164:
 475:Drivers/CMSIS/DSP/Source/TransformFunctions/arm_cfft_radix4_f32.c ****       ptr1[3] = a3;
 867              		.loc 1 475 7 is_stmt 1 view .LVU389
 868              		.loc 1 475 15 is_stmt 0 view .LVU390
 869 0386 C0ED035A 		vstr.32	s11, [r0, #12]
 870              	.LVL165:
 476:Drivers/CMSIS/DSP/Source/TransformFunctions/arm_cfft_radix4_f32.c ****       ptr1[4] = a4;
 871              		.loc 1 476 7 is_stmt 1 view .LVU391
 872              		.loc 1 476 15 is_stmt 0 view .LVU392
 873 038a 80ED044A 		vstr.32	s8, [r0, #16]
 874              	.LVL166:
 477:Drivers/CMSIS/DSP/Source/TransformFunctions/arm_cfft_radix4_f32.c ****       ptr1[5] = a5;
 875              		.loc 1 477 7 is_stmt 1 view .LVU393
 876              		.loc 1 477 15 is_stmt 0 view .LVU394
 877 038e C0ED054A 		vstr.32	s9, [r0, #20]
 878              	.LVL167:
 478:Drivers/CMSIS/DSP/Source/TransformFunctions/arm_cfft_radix4_f32.c ****       ptr1[6] = a6;
 879              		.loc 1 478 7 is_stmt 1 view .LVU395
 880              		.loc 1 478 15 is_stmt 0 view .LVU396
 881 0392 80ED067A 		vstr.32	s14, [r0, #24]
 882              	.LVL168:
 479:Drivers/CMSIS/DSP/Source/TransformFunctions/arm_cfft_radix4_f32.c ****       ptr1[7] = a7;
 883              		.loc 1 479 7 is_stmt 1 view .LVU397
ARM GAS  /var/folders/n6/c271nzx11xl4r4_m7sqjlt0m0000gn/T//ccHq3Xre.s 			page 25


 884              		.loc 1 479 15 is_stmt 0 view .LVU398
 885 0396 C0ED077A 		vstr.32	s15, [r0, #28]
 886              	.LVL169:
 480:Drivers/CMSIS/DSP/Source/TransformFunctions/arm_cfft_radix4_f32.c **** 
 481:Drivers/CMSIS/DSP/Source/TransformFunctions/arm_cfft_radix4_f32.c ****       /* increment pointer by 8 */
 482:Drivers/CMSIS/DSP/Source/TransformFunctions/arm_cfft_radix4_f32.c ****       ptr1 += 8U;
 887              		.loc 1 482 7 is_stmt 1 view .LVU399
 888              		.loc 1 482 12 is_stmt 0 view .LVU400
 889 039a 2030     		adds	r0, r0, #32
 890              	.LVL170:
 483:Drivers/CMSIS/DSP/Source/TransformFunctions/arm_cfft_radix4_f32.c ****    } while (--j);
 891              		.loc 1 483 13 is_stmt 1 discriminator 1 view .LVU401
 892              		.loc 1 483 13 is_stmt 0 discriminator 1 view .LVU402
 893 039c 013B     		subs	r3, r3, #1
 894              	.LVL171:
 895              		.loc 1 483 13 discriminator 1 view .LVU403
 896 039e BCD1     		bne	.L7
 484:Drivers/CMSIS/DSP/Source/TransformFunctions/arm_cfft_radix4_f32.c **** 
 485:Drivers/CMSIS/DSP/Source/TransformFunctions/arm_cfft_radix4_f32.c **** #else
 486:Drivers/CMSIS/DSP/Source/TransformFunctions/arm_cfft_radix4_f32.c **** 
 487:Drivers/CMSIS/DSP/Source/TransformFunctions/arm_cfft_radix4_f32.c ****    float32_t t1, t2, r1, r2, s1, s2;
 488:Drivers/CMSIS/DSP/Source/TransformFunctions/arm_cfft_radix4_f32.c **** 
 489:Drivers/CMSIS/DSP/Source/TransformFunctions/arm_cfft_radix4_f32.c ****    /* Run the below code for Cortex-M0 */
 490:Drivers/CMSIS/DSP/Source/TransformFunctions/arm_cfft_radix4_f32.c **** 
 491:Drivers/CMSIS/DSP/Source/TransformFunctions/arm_cfft_radix4_f32.c ****    /*  Initializations for the fft calculation */
 492:Drivers/CMSIS/DSP/Source/TransformFunctions/arm_cfft_radix4_f32.c ****    n2 = fftLen;
 493:Drivers/CMSIS/DSP/Source/TransformFunctions/arm_cfft_radix4_f32.c ****    n1 = n2;
 494:Drivers/CMSIS/DSP/Source/TransformFunctions/arm_cfft_radix4_f32.c ****    for (k = fftLen; k > 1U; k >>= 2U)
 495:Drivers/CMSIS/DSP/Source/TransformFunctions/arm_cfft_radix4_f32.c ****    {
 496:Drivers/CMSIS/DSP/Source/TransformFunctions/arm_cfft_radix4_f32.c ****       /*  Initializations for the fft calculation */
 497:Drivers/CMSIS/DSP/Source/TransformFunctions/arm_cfft_radix4_f32.c ****       n1 = n2;
 498:Drivers/CMSIS/DSP/Source/TransformFunctions/arm_cfft_radix4_f32.c ****       n2 >>= 2U;
 499:Drivers/CMSIS/DSP/Source/TransformFunctions/arm_cfft_radix4_f32.c ****       ia1 = 0U;
 500:Drivers/CMSIS/DSP/Source/TransformFunctions/arm_cfft_radix4_f32.c **** 
 501:Drivers/CMSIS/DSP/Source/TransformFunctions/arm_cfft_radix4_f32.c ****       /*  FFT Calculation */
 502:Drivers/CMSIS/DSP/Source/TransformFunctions/arm_cfft_radix4_f32.c ****       j = 0;
 503:Drivers/CMSIS/DSP/Source/TransformFunctions/arm_cfft_radix4_f32.c ****       do
 504:Drivers/CMSIS/DSP/Source/TransformFunctions/arm_cfft_radix4_f32.c ****       {
 505:Drivers/CMSIS/DSP/Source/TransformFunctions/arm_cfft_radix4_f32.c ****          /*  index calculation for the coefficients */
 506:Drivers/CMSIS/DSP/Source/TransformFunctions/arm_cfft_radix4_f32.c ****          ia2 = ia1 + ia1;
 507:Drivers/CMSIS/DSP/Source/TransformFunctions/arm_cfft_radix4_f32.c ****          ia3 = ia2 + ia1;
 508:Drivers/CMSIS/DSP/Source/TransformFunctions/arm_cfft_radix4_f32.c ****          co1 = pCoef[ia1 * 2U];
 509:Drivers/CMSIS/DSP/Source/TransformFunctions/arm_cfft_radix4_f32.c ****          si1 = pCoef[(ia1 * 2U) + 1U];
 510:Drivers/CMSIS/DSP/Source/TransformFunctions/arm_cfft_radix4_f32.c ****          co2 = pCoef[ia2 * 2U];
 511:Drivers/CMSIS/DSP/Source/TransformFunctions/arm_cfft_radix4_f32.c ****          si2 = pCoef[(ia2 * 2U) + 1U];
 512:Drivers/CMSIS/DSP/Source/TransformFunctions/arm_cfft_radix4_f32.c ****          co3 = pCoef[ia3 * 2U];
 513:Drivers/CMSIS/DSP/Source/TransformFunctions/arm_cfft_radix4_f32.c ****          si3 = pCoef[(ia3 * 2U) + 1U];
 514:Drivers/CMSIS/DSP/Source/TransformFunctions/arm_cfft_radix4_f32.c **** 
 515:Drivers/CMSIS/DSP/Source/TransformFunctions/arm_cfft_radix4_f32.c ****          /*  Twiddle coefficients index modifier */
 516:Drivers/CMSIS/DSP/Source/TransformFunctions/arm_cfft_radix4_f32.c ****          ia1 = ia1 + twidCoefModifier;
 517:Drivers/CMSIS/DSP/Source/TransformFunctions/arm_cfft_radix4_f32.c **** 
 518:Drivers/CMSIS/DSP/Source/TransformFunctions/arm_cfft_radix4_f32.c ****          i0 = j;
 519:Drivers/CMSIS/DSP/Source/TransformFunctions/arm_cfft_radix4_f32.c ****          do
 520:Drivers/CMSIS/DSP/Source/TransformFunctions/arm_cfft_radix4_f32.c ****          {
 521:Drivers/CMSIS/DSP/Source/TransformFunctions/arm_cfft_radix4_f32.c ****             /*  index calculation for the input as, */
 522:Drivers/CMSIS/DSP/Source/TransformFunctions/arm_cfft_radix4_f32.c ****             /*  pSrc[i0 + 0], pSrc[i0 + fftLen/4], pSrc[i0 + fftLen/2], pSrc[i0 + 3fftLen/4] */
 523:Drivers/CMSIS/DSP/Source/TransformFunctions/arm_cfft_radix4_f32.c ****             i1 = i0 + n2;
ARM GAS  /var/folders/n6/c271nzx11xl4r4_m7sqjlt0m0000gn/T//ccHq3Xre.s 			page 26


 524:Drivers/CMSIS/DSP/Source/TransformFunctions/arm_cfft_radix4_f32.c ****             i2 = i1 + n2;
 525:Drivers/CMSIS/DSP/Source/TransformFunctions/arm_cfft_radix4_f32.c ****             i3 = i2 + n2;
 526:Drivers/CMSIS/DSP/Source/TransformFunctions/arm_cfft_radix4_f32.c **** 
 527:Drivers/CMSIS/DSP/Source/TransformFunctions/arm_cfft_radix4_f32.c ****             /* xa + xc */
 528:Drivers/CMSIS/DSP/Source/TransformFunctions/arm_cfft_radix4_f32.c ****             r1 = pSrc[(2U * i0)] + pSrc[(2U * i2)];
 529:Drivers/CMSIS/DSP/Source/TransformFunctions/arm_cfft_radix4_f32.c **** 
 530:Drivers/CMSIS/DSP/Source/TransformFunctions/arm_cfft_radix4_f32.c ****             /* xa - xc */
 531:Drivers/CMSIS/DSP/Source/TransformFunctions/arm_cfft_radix4_f32.c ****             r2 = pSrc[(2U * i0)] - pSrc[(2U * i2)];
 532:Drivers/CMSIS/DSP/Source/TransformFunctions/arm_cfft_radix4_f32.c **** 
 533:Drivers/CMSIS/DSP/Source/TransformFunctions/arm_cfft_radix4_f32.c ****             /* ya + yc */
 534:Drivers/CMSIS/DSP/Source/TransformFunctions/arm_cfft_radix4_f32.c ****             s1 = pSrc[(2U * i0) + 1U] + pSrc[(2U * i2) + 1U];
 535:Drivers/CMSIS/DSP/Source/TransformFunctions/arm_cfft_radix4_f32.c **** 
 536:Drivers/CMSIS/DSP/Source/TransformFunctions/arm_cfft_radix4_f32.c ****             /* ya - yc */
 537:Drivers/CMSIS/DSP/Source/TransformFunctions/arm_cfft_radix4_f32.c ****             s2 = pSrc[(2U * i0) + 1U] - pSrc[(2U * i2) + 1U];
 538:Drivers/CMSIS/DSP/Source/TransformFunctions/arm_cfft_radix4_f32.c **** 
 539:Drivers/CMSIS/DSP/Source/TransformFunctions/arm_cfft_radix4_f32.c ****             /* xb + xd */
 540:Drivers/CMSIS/DSP/Source/TransformFunctions/arm_cfft_radix4_f32.c ****             t1 = pSrc[2U * i1] + pSrc[2U * i3];
 541:Drivers/CMSIS/DSP/Source/TransformFunctions/arm_cfft_radix4_f32.c **** 
 542:Drivers/CMSIS/DSP/Source/TransformFunctions/arm_cfft_radix4_f32.c ****             /* xa' = xa + xb + xc + xd */
 543:Drivers/CMSIS/DSP/Source/TransformFunctions/arm_cfft_radix4_f32.c ****             pSrc[2U * i0] = r1 + t1;
 544:Drivers/CMSIS/DSP/Source/TransformFunctions/arm_cfft_radix4_f32.c **** 
 545:Drivers/CMSIS/DSP/Source/TransformFunctions/arm_cfft_radix4_f32.c ****             /* xa + xc -(xb + xd) */
 546:Drivers/CMSIS/DSP/Source/TransformFunctions/arm_cfft_radix4_f32.c ****             r1 = r1 - t1;
 547:Drivers/CMSIS/DSP/Source/TransformFunctions/arm_cfft_radix4_f32.c **** 
 548:Drivers/CMSIS/DSP/Source/TransformFunctions/arm_cfft_radix4_f32.c ****             /* yb + yd */
 549:Drivers/CMSIS/DSP/Source/TransformFunctions/arm_cfft_radix4_f32.c ****             t2 = pSrc[(2U * i1) + 1U] + pSrc[(2U * i3) + 1U];
 550:Drivers/CMSIS/DSP/Source/TransformFunctions/arm_cfft_radix4_f32.c **** 
 551:Drivers/CMSIS/DSP/Source/TransformFunctions/arm_cfft_radix4_f32.c ****             /* ya' = ya + yb + yc + yd */
 552:Drivers/CMSIS/DSP/Source/TransformFunctions/arm_cfft_radix4_f32.c ****             pSrc[(2U * i0) + 1U] = s1 + t2;
 553:Drivers/CMSIS/DSP/Source/TransformFunctions/arm_cfft_radix4_f32.c **** 
 554:Drivers/CMSIS/DSP/Source/TransformFunctions/arm_cfft_radix4_f32.c ****             /* (ya + yc) - (yb + yd) */
 555:Drivers/CMSIS/DSP/Source/TransformFunctions/arm_cfft_radix4_f32.c ****             s1 = s1 - t2;
 556:Drivers/CMSIS/DSP/Source/TransformFunctions/arm_cfft_radix4_f32.c **** 
 557:Drivers/CMSIS/DSP/Source/TransformFunctions/arm_cfft_radix4_f32.c ****             /* (yb - yd) */
 558:Drivers/CMSIS/DSP/Source/TransformFunctions/arm_cfft_radix4_f32.c ****             t1 = pSrc[(2U * i1) + 1U] - pSrc[(2U * i3) + 1U];
 559:Drivers/CMSIS/DSP/Source/TransformFunctions/arm_cfft_radix4_f32.c **** 
 560:Drivers/CMSIS/DSP/Source/TransformFunctions/arm_cfft_radix4_f32.c ****             /* (xb - xd) */
 561:Drivers/CMSIS/DSP/Source/TransformFunctions/arm_cfft_radix4_f32.c ****             t2 = pSrc[2U * i1] - pSrc[2U * i3];
 562:Drivers/CMSIS/DSP/Source/TransformFunctions/arm_cfft_radix4_f32.c **** 
 563:Drivers/CMSIS/DSP/Source/TransformFunctions/arm_cfft_radix4_f32.c ****             /* xc' = (xa-xb+xc-xd)co2 + (ya-yb+yc-yd)(si2) */
 564:Drivers/CMSIS/DSP/Source/TransformFunctions/arm_cfft_radix4_f32.c ****             pSrc[2U * i1] = (r1 * co2) + (s1 * si2);
 565:Drivers/CMSIS/DSP/Source/TransformFunctions/arm_cfft_radix4_f32.c **** 
 566:Drivers/CMSIS/DSP/Source/TransformFunctions/arm_cfft_radix4_f32.c ****             /* yc' = (ya-yb+yc-yd)co2 - (xa-xb+xc-xd)(si2) */
 567:Drivers/CMSIS/DSP/Source/TransformFunctions/arm_cfft_radix4_f32.c ****             pSrc[(2U * i1) + 1U] = (s1 * co2) - (r1 * si2);
 568:Drivers/CMSIS/DSP/Source/TransformFunctions/arm_cfft_radix4_f32.c **** 
 569:Drivers/CMSIS/DSP/Source/TransformFunctions/arm_cfft_radix4_f32.c ****             /* (xa - xc) + (yb - yd) */
 570:Drivers/CMSIS/DSP/Source/TransformFunctions/arm_cfft_radix4_f32.c ****             r1 = r2 + t1;
 571:Drivers/CMSIS/DSP/Source/TransformFunctions/arm_cfft_radix4_f32.c **** 
 572:Drivers/CMSIS/DSP/Source/TransformFunctions/arm_cfft_radix4_f32.c ****             /* (xa - xc) - (yb - yd) */
 573:Drivers/CMSIS/DSP/Source/TransformFunctions/arm_cfft_radix4_f32.c ****             r2 = r2 - t1;
 574:Drivers/CMSIS/DSP/Source/TransformFunctions/arm_cfft_radix4_f32.c **** 
 575:Drivers/CMSIS/DSP/Source/TransformFunctions/arm_cfft_radix4_f32.c ****             /* (ya - yc) -  (xb - xd) */
 576:Drivers/CMSIS/DSP/Source/TransformFunctions/arm_cfft_radix4_f32.c ****             s1 = s2 - t2;
 577:Drivers/CMSIS/DSP/Source/TransformFunctions/arm_cfft_radix4_f32.c **** 
 578:Drivers/CMSIS/DSP/Source/TransformFunctions/arm_cfft_radix4_f32.c ****             /* (ya - yc) +  (xb - xd) */
 579:Drivers/CMSIS/DSP/Source/TransformFunctions/arm_cfft_radix4_f32.c ****             s2 = s2 + t2;
 580:Drivers/CMSIS/DSP/Source/TransformFunctions/arm_cfft_radix4_f32.c **** 
ARM GAS  /var/folders/n6/c271nzx11xl4r4_m7sqjlt0m0000gn/T//ccHq3Xre.s 			page 27


 581:Drivers/CMSIS/DSP/Source/TransformFunctions/arm_cfft_radix4_f32.c ****             /* xb' = (xa+yb-xc-yd)co1 + (ya-xb-yc+xd)(si1) */
 582:Drivers/CMSIS/DSP/Source/TransformFunctions/arm_cfft_radix4_f32.c ****             pSrc[2U * i2] = (r1 * co1) + (s1 * si1);
 583:Drivers/CMSIS/DSP/Source/TransformFunctions/arm_cfft_radix4_f32.c **** 
 584:Drivers/CMSIS/DSP/Source/TransformFunctions/arm_cfft_radix4_f32.c ****             /* yb' = (ya-xb-yc+xd)co1 - (xa+yb-xc-yd)(si1) */
 585:Drivers/CMSIS/DSP/Source/TransformFunctions/arm_cfft_radix4_f32.c ****             pSrc[(2U * i2) + 1U] = (s1 * co1) - (r1 * si1);
 586:Drivers/CMSIS/DSP/Source/TransformFunctions/arm_cfft_radix4_f32.c **** 
 587:Drivers/CMSIS/DSP/Source/TransformFunctions/arm_cfft_radix4_f32.c ****             /* xd' = (xa-yb-xc+yd)co3 + (ya+xb-yc-xd)(si3) */
 588:Drivers/CMSIS/DSP/Source/TransformFunctions/arm_cfft_radix4_f32.c ****             pSrc[2U * i3] = (r2 * co3) + (s2 * si3);
 589:Drivers/CMSIS/DSP/Source/TransformFunctions/arm_cfft_radix4_f32.c **** 
 590:Drivers/CMSIS/DSP/Source/TransformFunctions/arm_cfft_radix4_f32.c ****             /* yd' = (ya+xb-yc-xd)co3 - (xa-yb-xc+yd)(si3) */
 591:Drivers/CMSIS/DSP/Source/TransformFunctions/arm_cfft_radix4_f32.c ****             pSrc[(2U * i3) + 1U] = (s2 * co3) - (r2 * si3);
 592:Drivers/CMSIS/DSP/Source/TransformFunctions/arm_cfft_radix4_f32.c **** 
 593:Drivers/CMSIS/DSP/Source/TransformFunctions/arm_cfft_radix4_f32.c ****             i0 += n1;
 594:Drivers/CMSIS/DSP/Source/TransformFunctions/arm_cfft_radix4_f32.c ****          } while ( i0 < fftLen);
 595:Drivers/CMSIS/DSP/Source/TransformFunctions/arm_cfft_radix4_f32.c ****          j++;
 596:Drivers/CMSIS/DSP/Source/TransformFunctions/arm_cfft_radix4_f32.c ****       } while (j <= (n2 - 1U));
 597:Drivers/CMSIS/DSP/Source/TransformFunctions/arm_cfft_radix4_f32.c ****       twidCoefModifier <<= 2U;
 598:Drivers/CMSIS/DSP/Source/TransformFunctions/arm_cfft_radix4_f32.c ****    }
 599:Drivers/CMSIS/DSP/Source/TransformFunctions/arm_cfft_radix4_f32.c **** 
 600:Drivers/CMSIS/DSP/Source/TransformFunctions/arm_cfft_radix4_f32.c **** #endif /* #if defined (ARM_MATH_DSP) */
 601:Drivers/CMSIS/DSP/Source/TransformFunctions/arm_cfft_radix4_f32.c **** 
 602:Drivers/CMSIS/DSP/Source/TransformFunctions/arm_cfft_radix4_f32.c **** }
 897              		.loc 1 602 1 view .LVU404
 898 03a0 07B0     		add	sp, sp, #28
 899              		.cfi_def_cfa_offset 44
 900              		@ sp needed
 901 03a2 BDEC028B 		vldm	sp!, {d8}
 902              		.cfi_restore 80
 903              		.cfi_restore 81
 904              		.cfi_def_cfa_offset 36
 905 03a6 BDE8F08F 		pop	{r4, r5, r6, r7, r8, r9, r10, fp, pc}
 906              		.loc 1 602 1 view .LVU405
 907              		.cfi_endproc
 908              	.LFE136:
 910              		.section	.text.arm_radix4_butterfly_inverse_f32,"ax",%progbits
 911              		.align	1
 912              		.global	arm_radix4_butterfly_inverse_f32
 913              		.syntax unified
 914              		.thumb
 915              		.thumb_func
 917              	arm_radix4_butterfly_inverse_f32:
 918              	.LVL172:
 919              	.LFB137:
 603:Drivers/CMSIS/DSP/Source/TransformFunctions/arm_cfft_radix4_f32.c **** 
 604:Drivers/CMSIS/DSP/Source/TransformFunctions/arm_cfft_radix4_f32.c **** /*
 605:Drivers/CMSIS/DSP/Source/TransformFunctions/arm_cfft_radix4_f32.c **** * @brief  Core function for the floating-point CIFFT butterfly process.
 606:Drivers/CMSIS/DSP/Source/TransformFunctions/arm_cfft_radix4_f32.c **** * @param[in, out] *pSrc            points to the in-place buffer of floating-point data type.
 607:Drivers/CMSIS/DSP/Source/TransformFunctions/arm_cfft_radix4_f32.c **** * @param[in]      fftLen           length of the FFT.
 608:Drivers/CMSIS/DSP/Source/TransformFunctions/arm_cfft_radix4_f32.c **** * @param[in]      *pCoef           points to twiddle coefficient buffer.
 609:Drivers/CMSIS/DSP/Source/TransformFunctions/arm_cfft_radix4_f32.c **** * @param[in]      twidCoefModifier twiddle coefficient modifier that supports different size FFTs w
 610:Drivers/CMSIS/DSP/Source/TransformFunctions/arm_cfft_radix4_f32.c **** * @param[in]      onebyfftLen      value of 1/fftLen.
 611:Drivers/CMSIS/DSP/Source/TransformFunctions/arm_cfft_radix4_f32.c **** * @return none.
 612:Drivers/CMSIS/DSP/Source/TransformFunctions/arm_cfft_radix4_f32.c **** */
 613:Drivers/CMSIS/DSP/Source/TransformFunctions/arm_cfft_radix4_f32.c **** 
 614:Drivers/CMSIS/DSP/Source/TransformFunctions/arm_cfft_radix4_f32.c **** void arm_radix4_butterfly_inverse_f32(
 615:Drivers/CMSIS/DSP/Source/TransformFunctions/arm_cfft_radix4_f32.c **** float32_t * pSrc,
 616:Drivers/CMSIS/DSP/Source/TransformFunctions/arm_cfft_radix4_f32.c **** uint16_t fftLen,
ARM GAS  /var/folders/n6/c271nzx11xl4r4_m7sqjlt0m0000gn/T//ccHq3Xre.s 			page 28


 617:Drivers/CMSIS/DSP/Source/TransformFunctions/arm_cfft_radix4_f32.c **** float32_t * pCoef,
 618:Drivers/CMSIS/DSP/Source/TransformFunctions/arm_cfft_radix4_f32.c **** uint16_t twidCoefModifier,
 619:Drivers/CMSIS/DSP/Source/TransformFunctions/arm_cfft_radix4_f32.c **** float32_t onebyfftLen)
 620:Drivers/CMSIS/DSP/Source/TransformFunctions/arm_cfft_radix4_f32.c **** {
 920              		.loc 1 620 1 is_stmt 1 view -0
 921              		.cfi_startproc
 922              		@ args = 0, pretend = 0, frame = 24
 923              		@ frame_needed = 0, uses_anonymous_args = 0
 924              		.loc 1 620 1 is_stmt 0 view .LVU407
 925 0000 2DE9F04F 		push	{r4, r5, r6, r7, r8, r9, r10, fp, lr}
 926              		.cfi_def_cfa_offset 36
 927              		.cfi_offset 4, -36
 928              		.cfi_offset 5, -32
 929              		.cfi_offset 6, -28
 930              		.cfi_offset 7, -24
 931              		.cfi_offset 8, -20
 932              		.cfi_offset 9, -16
 933              		.cfi_offset 10, -12
 934              		.cfi_offset 11, -8
 935              		.cfi_offset 14, -4
 936 0004 2DED048B 		vpush.64	{d8, d9}
 937              		.cfi_def_cfa_offset 52
 938              		.cfi_offset 80, -52
 939              		.cfi_offset 81, -48
 940              		.cfi_offset 82, -44
 941              		.cfi_offset 83, -40
 942 0008 87B0     		sub	sp, sp, #28
 943              		.cfi_def_cfa_offset 80
 944 000a 8B46     		mov	fp, r1
 945 000c 1146     		mov	r1, r2
 946              	.LVL173:
 947              		.loc 1 620 1 view .LVU408
 948 000e 0193     		str	r3, [sp, #4]
 949 0010 B0EE407A 		vmov.f32	s14, s0
 621:Drivers/CMSIS/DSP/Source/TransformFunctions/arm_cfft_radix4_f32.c ****    float32_t co1, co2, co3, si1, si2, si3;
 950              		.loc 1 621 4 is_stmt 1 view .LVU409
 622:Drivers/CMSIS/DSP/Source/TransformFunctions/arm_cfft_radix4_f32.c ****    uint32_t ia1, ia2, ia3;
 951              		.loc 1 622 4 view .LVU410
 623:Drivers/CMSIS/DSP/Source/TransformFunctions/arm_cfft_radix4_f32.c ****    uint32_t i0, i1, i2, i3;
 952              		.loc 1 623 4 view .LVU411
 624:Drivers/CMSIS/DSP/Source/TransformFunctions/arm_cfft_radix4_f32.c ****    uint32_t n1, n2, j, k;
 953              		.loc 1 624 4 view .LVU412
 625:Drivers/CMSIS/DSP/Source/TransformFunctions/arm_cfft_radix4_f32.c **** 
 626:Drivers/CMSIS/DSP/Source/TransformFunctions/arm_cfft_radix4_f32.c **** #if defined (ARM_MATH_DSP)
 627:Drivers/CMSIS/DSP/Source/TransformFunctions/arm_cfft_radix4_f32.c **** 
 628:Drivers/CMSIS/DSP/Source/TransformFunctions/arm_cfft_radix4_f32.c ****    float32_t xaIn, yaIn, xbIn, ybIn, xcIn, ycIn, xdIn, ydIn;
 954              		.loc 1 628 4 view .LVU413
 629:Drivers/CMSIS/DSP/Source/TransformFunctions/arm_cfft_radix4_f32.c ****    float32_t Xaplusc, Xbplusd, Yaplusc, Ybplusd, Xaminusc, Xbminusd, Yaminusc,
 955              		.loc 1 629 4 view .LVU414
 630:Drivers/CMSIS/DSP/Source/TransformFunctions/arm_cfft_radix4_f32.c ****    Ybminusd;
 631:Drivers/CMSIS/DSP/Source/TransformFunctions/arm_cfft_radix4_f32.c ****    float32_t Xb12C_out, Yb12C_out, Xc12C_out, Yc12C_out, Xd12C_out, Yd12C_out;
 956              		.loc 1 631 4 view .LVU415
 632:Drivers/CMSIS/DSP/Source/TransformFunctions/arm_cfft_radix4_f32.c ****    float32_t Xb12_out, Yb12_out, Xc12_out, Yc12_out, Xd12_out, Yd12_out;
 957              		.loc 1 632 4 view .LVU416
 633:Drivers/CMSIS/DSP/Source/TransformFunctions/arm_cfft_radix4_f32.c ****    float32_t *ptr1;
 958              		.loc 1 633 4 view .LVU417
 634:Drivers/CMSIS/DSP/Source/TransformFunctions/arm_cfft_radix4_f32.c ****    float32_t p0,p1,p2,p3,p4,p5,p6,p7;
ARM GAS  /var/folders/n6/c271nzx11xl4r4_m7sqjlt0m0000gn/T//ccHq3Xre.s 			page 29


 959              		.loc 1 634 4 view .LVU418
 635:Drivers/CMSIS/DSP/Source/TransformFunctions/arm_cfft_radix4_f32.c ****    float32_t a0,a1,a2,a3,a4,a5,a6,a7;
 960              		.loc 1 635 4 view .LVU419
 636:Drivers/CMSIS/DSP/Source/TransformFunctions/arm_cfft_radix4_f32.c **** 
 637:Drivers/CMSIS/DSP/Source/TransformFunctions/arm_cfft_radix4_f32.c **** 
 638:Drivers/CMSIS/DSP/Source/TransformFunctions/arm_cfft_radix4_f32.c ****    /*  Initializations for the first stage */
 639:Drivers/CMSIS/DSP/Source/TransformFunctions/arm_cfft_radix4_f32.c ****    n2 = fftLen;
 961              		.loc 1 639 4 view .LVU420
 962              	.LVL174:
 640:Drivers/CMSIS/DSP/Source/TransformFunctions/arm_cfft_radix4_f32.c ****    n1 = n2;
 963              		.loc 1 640 4 view .LVU421
 641:Drivers/CMSIS/DSP/Source/TransformFunctions/arm_cfft_radix4_f32.c **** 
 642:Drivers/CMSIS/DSP/Source/TransformFunctions/arm_cfft_radix4_f32.c ****    /* n2 = fftLen/4 */
 643:Drivers/CMSIS/DSP/Source/TransformFunctions/arm_cfft_radix4_f32.c ****    n2 >>= 2U;
 964              		.loc 1 643 4 view .LVU422
 965              		.loc 1 643 7 is_stmt 0 view .LVU423
 966 0014 4FEA9B09 		lsr	r9, fp, #2
 967              	.LVL175:
 644:Drivers/CMSIS/DSP/Source/TransformFunctions/arm_cfft_radix4_f32.c ****    i0 = 0U;
 968              		.loc 1 644 4 is_stmt 1 view .LVU424
 645:Drivers/CMSIS/DSP/Source/TransformFunctions/arm_cfft_radix4_f32.c ****    ia1 = 0U;
 969              		.loc 1 645 4 view .LVU425
 646:Drivers/CMSIS/DSP/Source/TransformFunctions/arm_cfft_radix4_f32.c **** 
 647:Drivers/CMSIS/DSP/Source/TransformFunctions/arm_cfft_radix4_f32.c ****    j = n2;
 970              		.loc 1 647 4 view .LVU426
 971              		.loc 1 647 6 is_stmt 0 view .LVU427
 972 0018 CDF80C90 		str	r9, [sp, #12]
 644:Drivers/CMSIS/DSP/Source/TransformFunctions/arm_cfft_radix4_f32.c ****    ia1 = 0U;
 973              		.loc 1 644 7 view .LVU428
 974 001c 4FF00008 		mov	r8, #0
 645:Drivers/CMSIS/DSP/Source/TransformFunctions/arm_cfft_radix4_f32.c ****    ia1 = 0U;
 975              		.loc 1 645 8 view .LVU429
 976 0020 C246     		mov	r10, r8
 977 0022 CDF808B0 		str	fp, [sp, #8]
 978 0026 CB46     		mov	fp, r9
 979              	.LVL176:
 980              	.L10:
 648:Drivers/CMSIS/DSP/Source/TransformFunctions/arm_cfft_radix4_f32.c **** 
 649:Drivers/CMSIS/DSP/Source/TransformFunctions/arm_cfft_radix4_f32.c ****    /*  Calculation of first stage */
 650:Drivers/CMSIS/DSP/Source/TransformFunctions/arm_cfft_radix4_f32.c ****    do
 981              		.loc 1 650 4 is_stmt 1 view .LVU430
 651:Drivers/CMSIS/DSP/Source/TransformFunctions/arm_cfft_radix4_f32.c ****    {
 652:Drivers/CMSIS/DSP/Source/TransformFunctions/arm_cfft_radix4_f32.c ****       /*  index calculation for the input as, */
 653:Drivers/CMSIS/DSP/Source/TransformFunctions/arm_cfft_radix4_f32.c ****       /*  pSrc[i0 + 0], pSrc[i0 + fftLen/4], pSrc[i0 + fftLen/2], pSrc[i0 + 3fftLen/4] */
 654:Drivers/CMSIS/DSP/Source/TransformFunctions/arm_cfft_radix4_f32.c ****       i1 = i0 + n2;
 982              		.loc 1 654 7 view .LVU431
 983              		.loc 1 654 10 is_stmt 0 view .LVU432
 984 0028 08EB0B0C 		add	ip, r8, fp
 985              	.LVL177:
 655:Drivers/CMSIS/DSP/Source/TransformFunctions/arm_cfft_radix4_f32.c ****       i2 = i1 + n2;
 986              		.loc 1 655 7 is_stmt 1 view .LVU433
 987              		.loc 1 655 10 is_stmt 0 view .LVU434
 988 002c 08EB4B04 		add	r4, r8, fp, lsl #1
 989              	.LVL178:
 656:Drivers/CMSIS/DSP/Source/TransformFunctions/arm_cfft_radix4_f32.c ****       i3 = i2 + n2;
 990              		.loc 1 656 7 is_stmt 1 view .LVU435
 991              		.loc 1 656 10 is_stmt 0 view .LVU436
ARM GAS  /var/folders/n6/c271nzx11xl4r4_m7sqjlt0m0000gn/T//ccHq3Xre.s 			page 30


 992 0030 0BEB0407 		add	r7, fp, r4
 993              	.LVL179:
 657:Drivers/CMSIS/DSP/Source/TransformFunctions/arm_cfft_radix4_f32.c **** 
 658:Drivers/CMSIS/DSP/Source/TransformFunctions/arm_cfft_radix4_f32.c ****       /*  Butterfly implementation */
 659:Drivers/CMSIS/DSP/Source/TransformFunctions/arm_cfft_radix4_f32.c ****       xaIn = pSrc[(2U * i0)];
 994              		.loc 1 659 7 is_stmt 1 view .LVU437
 995              		.loc 1 659 18 is_stmt 0 view .LVU438
 996 0034 4FEAC806 		lsl	r6, r8, #3
 997 0038 00EBC809 		add	r9, r0, r8, lsl #3
 998              		.loc 1 659 12 view .LVU439
 999 003c D9ED007A 		vldr.32	s15, [r9]
 1000              	.LVL180:
 660:Drivers/CMSIS/DSP/Source/TransformFunctions/arm_cfft_radix4_f32.c ****       yaIn = pSrc[(2U * i0) + 1U];
 1001              		.loc 1 660 7 is_stmt 1 view .LVU440
 1002              		.loc 1 660 18 is_stmt 0 view .LVU441
 1003 0040 0436     		adds	r6, r6, #4
 1004 0042 0644     		add	r6, r6, r0
 1005              		.loc 1 660 12 view .LVU442
 1006 0044 D6ED006A 		vldr.32	s13, [r6]
 1007              	.LVL181:
 661:Drivers/CMSIS/DSP/Source/TransformFunctions/arm_cfft_radix4_f32.c **** 
 662:Drivers/CMSIS/DSP/Source/TransformFunctions/arm_cfft_radix4_f32.c ****       xcIn = pSrc[(2U * i2)];
 1008              		.loc 1 662 7 is_stmt 1 view .LVU443
 1009              		.loc 1 662 18 is_stmt 0 view .LVU444
 1010 0048 E200     		lsls	r2, r4, #3
 1011 004a 00EBC404 		add	r4, r0, r4, lsl #3
 1012              	.LVL182:
 1013              		.loc 1 662 12 view .LVU445
 1014 004e D4ED000A 		vldr.32	s1, [r4]
 1015              	.LVL183:
 663:Drivers/CMSIS/DSP/Source/TransformFunctions/arm_cfft_radix4_f32.c ****       ycIn = pSrc[(2U * i2) + 1U];
 1016              		.loc 1 663 7 is_stmt 1 view .LVU446
 1017              		.loc 1 663 18 is_stmt 0 view .LVU447
 1018 0052 0432     		adds	r2, r2, #4
 1019 0054 0244     		add	r2, r2, r0
 1020              		.loc 1 663 12 view .LVU448
 1021 0056 D2ED002A 		vldr.32	s5, [r2]
 1022              	.LVL184:
 664:Drivers/CMSIS/DSP/Source/TransformFunctions/arm_cfft_radix4_f32.c **** 
 665:Drivers/CMSIS/DSP/Source/TransformFunctions/arm_cfft_radix4_f32.c ****       xbIn = pSrc[(2U * i1)];
 1023              		.loc 1 665 7 is_stmt 1 view .LVU449
 1024              		.loc 1 665 18 is_stmt 0 view .LVU450
 1025 005a 4FEACC05 		lsl	r5, ip, #3
 1026 005e 00EBCC0C 		add	ip, r0, ip, lsl #3
 1027              	.LVL185:
 1028              		.loc 1 665 12 view .LVU451
 1029 0062 DCED005A 		vldr.32	s11, [ip]
 1030              	.LVL186:
 666:Drivers/CMSIS/DSP/Source/TransformFunctions/arm_cfft_radix4_f32.c ****       ybIn = pSrc[(2U * i1) + 1U];
 1031              		.loc 1 666 7 is_stmt 1 view .LVU452
 1032              		.loc 1 666 18 is_stmt 0 view .LVU453
 1033 0066 0435     		adds	r5, r5, #4
 1034 0068 0544     		add	r5, r5, r0
 1035              		.loc 1 666 12 view .LVU454
 1036 006a 95ED005A 		vldr.32	s10, [r5]
 1037              	.LVL187:
 667:Drivers/CMSIS/DSP/Source/TransformFunctions/arm_cfft_radix4_f32.c **** 
ARM GAS  /var/folders/n6/c271nzx11xl4r4_m7sqjlt0m0000gn/T//ccHq3Xre.s 			page 31


 668:Drivers/CMSIS/DSP/Source/TransformFunctions/arm_cfft_radix4_f32.c ****       xdIn = pSrc[(2U * i3)];
 1038              		.loc 1 668 7 is_stmt 1 view .LVU455
 1039              		.loc 1 668 18 is_stmt 0 view .LVU456
 1040 006e FB00     		lsls	r3, r7, #3
 1041 0070 00EBC707 		add	r7, r0, r7, lsl #3
 1042              	.LVL188:
 1043              		.loc 1 668 12 view .LVU457
 1044 0074 97ED001A 		vldr.32	s2, [r7]
 1045              	.LVL189:
 669:Drivers/CMSIS/DSP/Source/TransformFunctions/arm_cfft_radix4_f32.c ****       ydIn = pSrc[(2U * i3) + 1U];
 1046              		.loc 1 669 7 is_stmt 1 view .LVU458
 1047              		.loc 1 669 18 is_stmt 0 view .LVU459
 1048 0078 0433     		adds	r3, r3, #4
 1049 007a 0344     		add	r3, r3, r0
 1050              		.loc 1 669 12 view .LVU460
 1051 007c 0093     		str	r3, [sp]
 1052 007e 93ED003A 		vldr.32	s6, [r3]
 1053              	.LVL190:
 670:Drivers/CMSIS/DSP/Source/TransformFunctions/arm_cfft_radix4_f32.c **** 
 671:Drivers/CMSIS/DSP/Source/TransformFunctions/arm_cfft_radix4_f32.c ****       /* xa + xc */
 672:Drivers/CMSIS/DSP/Source/TransformFunctions/arm_cfft_radix4_f32.c ****       Xaplusc = xaIn + xcIn;
 1054              		.loc 1 672 7 is_stmt 1 view .LVU461
 1055              		.loc 1 672 15 is_stmt 0 view .LVU462
 1056 0082 37EEA04A 		vadd.f32	s8, s15, s1
 1057              	.LVL191:
 673:Drivers/CMSIS/DSP/Source/TransformFunctions/arm_cfft_radix4_f32.c ****       /* xb + xd */
 674:Drivers/CMSIS/DSP/Source/TransformFunctions/arm_cfft_radix4_f32.c ****       Xbplusd = xbIn + xdIn;
 1058              		.loc 1 674 7 is_stmt 1 view .LVU463
 1059              		.loc 1 674 15 is_stmt 0 view .LVU464
 1060 0086 75EE811A 		vadd.f32	s3, s11, s2
 1061              	.LVL192:
 675:Drivers/CMSIS/DSP/Source/TransformFunctions/arm_cfft_radix4_f32.c ****       /* ya + yc */
 676:Drivers/CMSIS/DSP/Source/TransformFunctions/arm_cfft_radix4_f32.c ****       Yaplusc = yaIn + ycIn;
 1062              		.loc 1 676 7 is_stmt 1 view .LVU465
 1063              		.loc 1 676 15 is_stmt 0 view .LVU466
 1064 008a 36EEA26A 		vadd.f32	s12, s13, s5
 1065              	.LVL193:
 677:Drivers/CMSIS/DSP/Source/TransformFunctions/arm_cfft_radix4_f32.c ****       /* yb + yd */
 678:Drivers/CMSIS/DSP/Source/TransformFunctions/arm_cfft_radix4_f32.c ****       Ybplusd = ybIn + ydIn;
 1066              		.loc 1 678 7 is_stmt 1 view .LVU467
 1067              		.loc 1 678 15 is_stmt 0 view .LVU468
 1068 008e 35EE032A 		vadd.f32	s4, s10, s6
 1069              	.LVL194:
 679:Drivers/CMSIS/DSP/Source/TransformFunctions/arm_cfft_radix4_f32.c **** 
 680:Drivers/CMSIS/DSP/Source/TransformFunctions/arm_cfft_radix4_f32.c ****       /*  index calculation for the coefficients */
 681:Drivers/CMSIS/DSP/Source/TransformFunctions/arm_cfft_radix4_f32.c ****       ia2 = ia1 + ia1;
 1070              		.loc 1 681 7 is_stmt 1 view .LVU469
 682:Drivers/CMSIS/DSP/Source/TransformFunctions/arm_cfft_radix4_f32.c ****       co2 = pCoef[ia2 * 2U];
 1071              		.loc 1 682 7 view .LVU470
 1072              		.loc 1 682 18 is_stmt 0 view .LVU471
 1073 0092 4FEA0A1E 		lsl	lr, r10, #4
 1074 0096 01EB0A13 		add	r3, r1, r10, lsl #4
 1075              		.loc 1 682 11 view .LVU472
 1076 009a D3ED004A 		vldr.32	s9, [r3]
 1077              	.LVL195:
 683:Drivers/CMSIS/DSP/Source/TransformFunctions/arm_cfft_radix4_f32.c ****       si2 = pCoef[(ia2 * 2U) + 1U];
 1078              		.loc 1 683 7 is_stmt 1 view .LVU473
ARM GAS  /var/folders/n6/c271nzx11xl4r4_m7sqjlt0m0000gn/T//ccHq3Xre.s 			page 32


 1079              		.loc 1 683 18 is_stmt 0 view .LVU474
 1080 009e 0EF1040E 		add	lr, lr, #4
 1081 00a2 8E44     		add	lr, lr, r1
 1082              		.loc 1 683 11 view .LVU475
 1083 00a4 DEED003A 		vldr.32	s7, [lr]
 1084              	.LVL196:
 684:Drivers/CMSIS/DSP/Source/TransformFunctions/arm_cfft_radix4_f32.c **** 
 685:Drivers/CMSIS/DSP/Source/TransformFunctions/arm_cfft_radix4_f32.c ****       /* xa - xc */
 686:Drivers/CMSIS/DSP/Source/TransformFunctions/arm_cfft_radix4_f32.c ****       Xaminusc = xaIn - xcIn;
 1085              		.loc 1 686 7 is_stmt 1 view .LVU476
 1086              		.loc 1 686 16 is_stmt 0 view .LVU477
 1087 00a8 77EEE07A 		vsub.f32	s15, s15, s1
 1088              	.LVL197:
 687:Drivers/CMSIS/DSP/Source/TransformFunctions/arm_cfft_radix4_f32.c ****       /* xb - xd */
 688:Drivers/CMSIS/DSP/Source/TransformFunctions/arm_cfft_radix4_f32.c ****       Xbminusd = xbIn - xdIn;
 1089              		.loc 1 688 7 is_stmt 1 view .LVU478
 1090              		.loc 1 688 16 is_stmt 0 view .LVU479
 1091 00ac 75EEC15A 		vsub.f32	s11, s11, s2
 1092              	.LVL198:
 689:Drivers/CMSIS/DSP/Source/TransformFunctions/arm_cfft_radix4_f32.c ****       /* ya - yc */
 690:Drivers/CMSIS/DSP/Source/TransformFunctions/arm_cfft_radix4_f32.c ****       Yaminusc = yaIn - ycIn;
 1093              		.loc 1 690 7 is_stmt 1 view .LVU480
 1094              		.loc 1 690 16 is_stmt 0 view .LVU481
 1095 00b0 76EEE26A 		vsub.f32	s13, s13, s5
 1096              	.LVL199:
 691:Drivers/CMSIS/DSP/Source/TransformFunctions/arm_cfft_radix4_f32.c ****       /* yb - yd */
 692:Drivers/CMSIS/DSP/Source/TransformFunctions/arm_cfft_radix4_f32.c ****       Ybminusd = ybIn - ydIn;
 1097              		.loc 1 692 7 is_stmt 1 view .LVU482
 1098              		.loc 1 692 16 is_stmt 0 view .LVU483
 1099 00b4 35EE435A 		vsub.f32	s10, s10, s6
 1100              	.LVL200:
 693:Drivers/CMSIS/DSP/Source/TransformFunctions/arm_cfft_radix4_f32.c **** 
 694:Drivers/CMSIS/DSP/Source/TransformFunctions/arm_cfft_radix4_f32.c ****       /* xa' = xa + xb + xc + xd */
 695:Drivers/CMSIS/DSP/Source/TransformFunctions/arm_cfft_radix4_f32.c ****       pSrc[(2U * i0)] = Xaplusc + Xbplusd;
 1101              		.loc 1 695 7 is_stmt 1 view .LVU484
 1102              		.loc 1 695 33 is_stmt 0 view .LVU485
 1103 00b8 34EE213A 		vadd.f32	s6, s8, s3
 1104              	.LVL201:
 1105              		.loc 1 695 23 view .LVU486
 1106 00bc 89ED003A 		vstr.32	s6, [r9]
 1107              	.LVL202:
 696:Drivers/CMSIS/DSP/Source/TransformFunctions/arm_cfft_radix4_f32.c **** 
 697:Drivers/CMSIS/DSP/Source/TransformFunctions/arm_cfft_radix4_f32.c ****       /* ya' = ya + yb + yc + yd */
 698:Drivers/CMSIS/DSP/Source/TransformFunctions/arm_cfft_radix4_f32.c ****       pSrc[(2U * i0) + 1U] = Yaplusc + Ybplusd;
 1108              		.loc 1 698 7 is_stmt 1 view .LVU487
 1109              		.loc 1 698 38 is_stmt 0 view .LVU488
 1110 00c0 36EE023A 		vadd.f32	s6, s12, s4
 1111              		.loc 1 698 28 view .LVU489
 1112 00c4 86ED003A 		vstr.32	s6, [r6]
 1113              	.LVL203:
 699:Drivers/CMSIS/DSP/Source/TransformFunctions/arm_cfft_radix4_f32.c **** 
 700:Drivers/CMSIS/DSP/Source/TransformFunctions/arm_cfft_radix4_f32.c ****       /* (xa - xc) - (yb - yd) */
 701:Drivers/CMSIS/DSP/Source/TransformFunctions/arm_cfft_radix4_f32.c ****       Xb12C_out = (Xaminusc - Ybminusd);
 1114              		.loc 1 701 7 is_stmt 1 view .LVU490
 1115              		.loc 1 701 17 is_stmt 0 view .LVU491
 1116 00c8 37EEC53A 		vsub.f32	s6, s15, s10
 1117              	.LVL204:
ARM GAS  /var/folders/n6/c271nzx11xl4r4_m7sqjlt0m0000gn/T//ccHq3Xre.s 			page 33


 702:Drivers/CMSIS/DSP/Source/TransformFunctions/arm_cfft_radix4_f32.c ****       /* (ya - yc) + (xb - xd) */
 703:Drivers/CMSIS/DSP/Source/TransformFunctions/arm_cfft_radix4_f32.c ****       Yb12C_out = (Yaminusc + Xbminusd);
 1118              		.loc 1 703 7 is_stmt 1 view .LVU492
 1119              		.loc 1 703 17 is_stmt 0 view .LVU493
 1120 00cc 75EEA62A 		vadd.f32	s5, s11, s13
 1121              	.LVL205:
 704:Drivers/CMSIS/DSP/Source/TransformFunctions/arm_cfft_radix4_f32.c ****       /* (xa + xc) - (xb + xd) */
 705:Drivers/CMSIS/DSP/Source/TransformFunctions/arm_cfft_radix4_f32.c ****       Xc12C_out = (Xaplusc - Xbplusd);
 1122              		.loc 1 705 7 is_stmt 1 view .LVU494
 1123              		.loc 1 705 17 is_stmt 0 view .LVU495
 1124 00d0 34EE614A 		vsub.f32	s8, s8, s3
 1125              	.LVL206:
 706:Drivers/CMSIS/DSP/Source/TransformFunctions/arm_cfft_radix4_f32.c ****       /* (ya + yc) - (yb + yd) */
 707:Drivers/CMSIS/DSP/Source/TransformFunctions/arm_cfft_radix4_f32.c ****       Yc12C_out = (Yaplusc - Ybplusd);
 1126              		.loc 1 707 7 is_stmt 1 view .LVU496
 1127              		.loc 1 707 17 is_stmt 0 view .LVU497
 1128 00d4 36EE426A 		vsub.f32	s12, s12, s4
 1129              	.LVL207:
 708:Drivers/CMSIS/DSP/Source/TransformFunctions/arm_cfft_radix4_f32.c ****       /* (xa - xc) + (yb - yd) */
 709:Drivers/CMSIS/DSP/Source/TransformFunctions/arm_cfft_radix4_f32.c ****       Xd12C_out = (Xaminusc + Ybminusd);
 1130              		.loc 1 709 7 is_stmt 1 view .LVU498
 1131              		.loc 1 709 17 is_stmt 0 view .LVU499
 1132 00d8 77EE857A 		vadd.f32	s15, s15, s10
 1133              	.LVL208:
 710:Drivers/CMSIS/DSP/Source/TransformFunctions/arm_cfft_radix4_f32.c ****       /* (ya - yc) - (xb - xd) */
 711:Drivers/CMSIS/DSP/Source/TransformFunctions/arm_cfft_radix4_f32.c ****       Yd12C_out = (Yaminusc - Xbminusd);
 1134              		.loc 1 711 7 is_stmt 1 view .LVU500
 1135              		.loc 1 711 17 is_stmt 0 view .LVU501
 1136 00dc 76EEE56A 		vsub.f32	s13, s13, s11
 1137              	.LVL209:
 712:Drivers/CMSIS/DSP/Source/TransformFunctions/arm_cfft_radix4_f32.c **** 
 713:Drivers/CMSIS/DSP/Source/TransformFunctions/arm_cfft_radix4_f32.c ****       co1 = pCoef[ia1 * 2U];
 1138              		.loc 1 713 7 is_stmt 1 view .LVU502
 1139              		.loc 1 713 18 is_stmt 0 view .LVU503
 1140 00e0 4FEACA06 		lsl	r6, r10, #3
 1141 00e4 01EBCA0E 		add	lr, r1, r10, lsl #3
 1142              		.loc 1 713 11 view .LVU504
 1143 00e8 9EED005A 		vldr.32	s10, [lr]
 1144              	.LVL210:
 714:Drivers/CMSIS/DSP/Source/TransformFunctions/arm_cfft_radix4_f32.c ****       si1 = pCoef[(ia1 * 2U) + 1U];
 1145              		.loc 1 714 7 is_stmt 1 view .LVU505
 1146              		.loc 1 714 18 is_stmt 0 view .LVU506
 1147 00ec 0436     		adds	r6, r6, #4
 1148 00ee 0E44     		add	r6, r6, r1
 1149              		.loc 1 714 11 view .LVU507
 1150 00f0 96ED000A 		vldr.32	s0, [r6]
 1151              	.LVL211:
 715:Drivers/CMSIS/DSP/Source/TransformFunctions/arm_cfft_radix4_f32.c **** 
 716:Drivers/CMSIS/DSP/Source/TransformFunctions/arm_cfft_radix4_f32.c ****       /*  index calculation for the coefficients */
 717:Drivers/CMSIS/DSP/Source/TransformFunctions/arm_cfft_radix4_f32.c ****       ia3 = ia2 + ia1;
 1152              		.loc 1 717 7 is_stmt 1 view .LVU508
 718:Drivers/CMSIS/DSP/Source/TransformFunctions/arm_cfft_radix4_f32.c ****       co3 = pCoef[ia3 * 2U];
 1153              		.loc 1 718 7 view .LVU509
 1154              		.loc 1 718 18 is_stmt 0 view .LVU510
 1155 00f4 0AEB4A0E 		add	lr, r10, r10, lsl #1
 1156 00f8 4FEACE06 		lsl	r6, lr, #3
 1157 00fc 01EBCE0E 		add	lr, r1, lr, lsl #3
ARM GAS  /var/folders/n6/c271nzx11xl4r4_m7sqjlt0m0000gn/T//ccHq3Xre.s 			page 34


 1158              		.loc 1 718 11 view .LVU511
 1159 0100 DEED005A 		vldr.32	s11, [lr]
 1160              	.LVL212:
 719:Drivers/CMSIS/DSP/Source/TransformFunctions/arm_cfft_radix4_f32.c ****       si3 = pCoef[(ia3 * 2U) + 1U];
 1161              		.loc 1 719 7 is_stmt 1 view .LVU512
 1162              		.loc 1 719 18 is_stmt 0 view .LVU513
 1163 0104 0436     		adds	r6, r6, #4
 1164 0106 0E44     		add	r6, r6, r1
 1165              		.loc 1 719 11 view .LVU514
 1166 0108 D6ED000A 		vldr.32	s1, [r6]
 1167              	.LVL213:
 720:Drivers/CMSIS/DSP/Source/TransformFunctions/arm_cfft_radix4_f32.c **** 
 721:Drivers/CMSIS/DSP/Source/TransformFunctions/arm_cfft_radix4_f32.c ****       Xb12_out = Xb12C_out * co1;
 1168              		.loc 1 721 7 is_stmt 1 view .LVU515
 1169              		.loc 1 721 16 is_stmt 0 view .LVU516
 1170 010c 63EE051A 		vmul.f32	s3, s6, s10
 1171              	.LVL214:
 722:Drivers/CMSIS/DSP/Source/TransformFunctions/arm_cfft_radix4_f32.c ****       Yb12_out = Yb12C_out * co1;
 1172              		.loc 1 722 7 is_stmt 1 view .LVU517
 1173              		.loc 1 722 16 is_stmt 0 view .LVU518
 1174 0110 22EE855A 		vmul.f32	s10, s5, s10
 1175              	.LVL215:
 723:Drivers/CMSIS/DSP/Source/TransformFunctions/arm_cfft_radix4_f32.c ****       Xc12_out = Xc12C_out * co2;
 1176              		.loc 1 723 7 is_stmt 1 view .LVU519
 1177              		.loc 1 723 16 is_stmt 0 view .LVU520
 1178 0114 24EE841A 		vmul.f32	s2, s9, s8
 1179              	.LVL216:
 724:Drivers/CMSIS/DSP/Source/TransformFunctions/arm_cfft_radix4_f32.c ****       Yc12_out = Yc12C_out * co2;
 1180              		.loc 1 724 7 is_stmt 1 view .LVU521
 1181              		.loc 1 724 16 is_stmt 0 view .LVU522
 1182 0118 64EE864A 		vmul.f32	s9, s9, s12
 1183              	.LVL217:
 725:Drivers/CMSIS/DSP/Source/TransformFunctions/arm_cfft_radix4_f32.c ****       Xd12_out = Xd12C_out * co3;
 1184              		.loc 1 725 7 is_stmt 1 view .LVU523
 1185              		.loc 1 725 16 is_stmt 0 view .LVU524
 1186 011c 27EEA52A 		vmul.f32	s4, s15, s11
 1187              	.LVL218:
 726:Drivers/CMSIS/DSP/Source/TransformFunctions/arm_cfft_radix4_f32.c ****       Yd12_out = Yd12C_out * co3;
 1188              		.loc 1 726 7 is_stmt 1 view .LVU525
 1189              		.loc 1 726 16 is_stmt 0 view .LVU526
 1190 0120 66EEA55A 		vmul.f32	s11, s13, s11
 1191              	.LVL219:
 727:Drivers/CMSIS/DSP/Source/TransformFunctions/arm_cfft_radix4_f32.c **** 
 728:Drivers/CMSIS/DSP/Source/TransformFunctions/arm_cfft_radix4_f32.c ****       /* xb' = (xa+yb-xc-yd)co1 - (ya-xb-yc+xd)(si1) */
 729:Drivers/CMSIS/DSP/Source/TransformFunctions/arm_cfft_radix4_f32.c ****       //Xb12_out -= Yb12C_out * si1;
 730:Drivers/CMSIS/DSP/Source/TransformFunctions/arm_cfft_radix4_f32.c ****       p0 = Yb12C_out * si1;
 1192              		.loc 1 730 7 is_stmt 1 view .LVU527
 1193              		.loc 1 730 10 is_stmt 0 view .LVU528
 1194 0124 62EE802A 		vmul.f32	s5, s5, s0
 1195              	.LVL220:
 731:Drivers/CMSIS/DSP/Source/TransformFunctions/arm_cfft_radix4_f32.c ****       /* yb' = (ya-xb-yc+xd)co1 + (xa+yb-xc-yd)(si1) */
 732:Drivers/CMSIS/DSP/Source/TransformFunctions/arm_cfft_radix4_f32.c ****       //Yb12_out += Xb12C_out * si1;
 733:Drivers/CMSIS/DSP/Source/TransformFunctions/arm_cfft_radix4_f32.c ****       p1 = Xb12C_out * si1;
 1196              		.loc 1 733 7 is_stmt 1 view .LVU529
 1197              		.loc 1 733 10 is_stmt 0 view .LVU530
 1198 0128 23EE003A 		vmul.f32	s6, s6, s0
 1199              	.LVL221:
ARM GAS  /var/folders/n6/c271nzx11xl4r4_m7sqjlt0m0000gn/T//ccHq3Xre.s 			page 35


 734:Drivers/CMSIS/DSP/Source/TransformFunctions/arm_cfft_radix4_f32.c ****       /* xc' = (xa-xb+xc-xd)co2 - (ya-yb+yc-yd)(si2) */
 735:Drivers/CMSIS/DSP/Source/TransformFunctions/arm_cfft_radix4_f32.c ****       //Xc12_out -= Yc12C_out * si2;
 736:Drivers/CMSIS/DSP/Source/TransformFunctions/arm_cfft_radix4_f32.c ****       p2 = Yc12C_out * si2;
 1200              		.loc 1 736 7 is_stmt 1 view .LVU531
 1201              		.loc 1 736 10 is_stmt 0 view .LVU532
 1202 012c 23EE866A 		vmul.f32	s12, s7, s12
 1203              	.LVL222:
 737:Drivers/CMSIS/DSP/Source/TransformFunctions/arm_cfft_radix4_f32.c ****       /* yc' = (ya-yb+yc-yd)co2 + (xa-xb+xc-xd)(si2) */
 738:Drivers/CMSIS/DSP/Source/TransformFunctions/arm_cfft_radix4_f32.c ****       //Yc12_out += Xc12C_out * si2;
 739:Drivers/CMSIS/DSP/Source/TransformFunctions/arm_cfft_radix4_f32.c ****       p3 = Xc12C_out * si2;
 1204              		.loc 1 739 7 is_stmt 1 view .LVU533
 1205              		.loc 1 739 10 is_stmt 0 view .LVU534
 1206 0130 63EE843A 		vmul.f32	s7, s7, s8
 1207              	.LVL223:
 740:Drivers/CMSIS/DSP/Source/TransformFunctions/arm_cfft_radix4_f32.c ****       /* xd' = (xa-yb-xc+yd)co3 - (ya+xb-yc-xd)(si3) */
 741:Drivers/CMSIS/DSP/Source/TransformFunctions/arm_cfft_radix4_f32.c ****       //Xd12_out -= Yd12C_out * si3;
 742:Drivers/CMSIS/DSP/Source/TransformFunctions/arm_cfft_radix4_f32.c ****       p4 = Yd12C_out * si3;
 1208              		.loc 1 742 7 is_stmt 1 view .LVU535
 1209              		.loc 1 742 10 is_stmt 0 view .LVU536
 1210 0134 66EEA06A 		vmul.f32	s13, s13, s1
 1211              	.LVL224:
 743:Drivers/CMSIS/DSP/Source/TransformFunctions/arm_cfft_radix4_f32.c ****       /* yd' = (ya+xb-yc-xd)co3 + (xa-yb-xc+yd)(si3) */
 744:Drivers/CMSIS/DSP/Source/TransformFunctions/arm_cfft_radix4_f32.c ****       //Yd12_out += Xd12C_out * si3;
 745:Drivers/CMSIS/DSP/Source/TransformFunctions/arm_cfft_radix4_f32.c ****       p5 = Xd12C_out * si3;
 1212              		.loc 1 745 7 is_stmt 1 view .LVU537
 1213              		.loc 1 745 10 is_stmt 0 view .LVU538
 1214 0138 67EEA07A 		vmul.f32	s15, s15, s1
 1215              	.LVL225:
 746:Drivers/CMSIS/DSP/Source/TransformFunctions/arm_cfft_radix4_f32.c **** 
 747:Drivers/CMSIS/DSP/Source/TransformFunctions/arm_cfft_radix4_f32.c ****       Xb12_out -= p0;
 1216              		.loc 1 747 7 is_stmt 1 view .LVU539
 1217              		.loc 1 747 16 is_stmt 0 view .LVU540
 1218 013c 31EEE24A 		vsub.f32	s8, s3, s5
 1219              	.LVL226:
 748:Drivers/CMSIS/DSP/Source/TransformFunctions/arm_cfft_radix4_f32.c ****       Yb12_out += p1;
 1220              		.loc 1 748 7 is_stmt 1 view .LVU541
 1221              		.loc 1 748 16 is_stmt 0 view .LVU542
 1222 0140 35EE035A 		vadd.f32	s10, s10, s6
 1223              	.LVL227:
 749:Drivers/CMSIS/DSP/Source/TransformFunctions/arm_cfft_radix4_f32.c ****       Xc12_out -= p2;
 1224              		.loc 1 749 7 is_stmt 1 view .LVU543
 1225              		.loc 1 749 16 is_stmt 0 view .LVU544
 1226 0144 31EE463A 		vsub.f32	s6, s2, s12
 1227              	.LVL228:
 750:Drivers/CMSIS/DSP/Source/TransformFunctions/arm_cfft_radix4_f32.c ****       Yc12_out += p3;
 1228              		.loc 1 750 7 is_stmt 1 view .LVU545
 1229              		.loc 1 750 16 is_stmt 0 view .LVU546
 1230 0148 34EEA36A 		vadd.f32	s12, s9, s7
 1231              	.LVL229:
 751:Drivers/CMSIS/DSP/Source/TransformFunctions/arm_cfft_radix4_f32.c ****       Xd12_out -= p4;
 1232              		.loc 1 751 7 is_stmt 1 view .LVU547
 1233              		.loc 1 751 16 is_stmt 0 view .LVU548
 1234 014c 72EE666A 		vsub.f32	s13, s4, s13
 1235              	.LVL230:
 752:Drivers/CMSIS/DSP/Source/TransformFunctions/arm_cfft_radix4_f32.c ****       Yd12_out += p5;
 1236              		.loc 1 752 7 is_stmt 1 view .LVU549
 1237              		.loc 1 752 16 is_stmt 0 view .LVU550
ARM GAS  /var/folders/n6/c271nzx11xl4r4_m7sqjlt0m0000gn/T//ccHq3Xre.s 			page 36


 1238 0150 75EEA77A 		vadd.f32	s15, s11, s15
 1239              	.LVL231:
 753:Drivers/CMSIS/DSP/Source/TransformFunctions/arm_cfft_radix4_f32.c **** 
 754:Drivers/CMSIS/DSP/Source/TransformFunctions/arm_cfft_radix4_f32.c ****       /* xc' = (xa-xb+xc-xd)co2 - (ya-yb+yc-yd)(si2) */
 755:Drivers/CMSIS/DSP/Source/TransformFunctions/arm_cfft_radix4_f32.c ****       pSrc[2U * i1] = Xc12_out;
 1240              		.loc 1 755 7 is_stmt 1 view .LVU551
 1241              		.loc 1 755 21 is_stmt 0 view .LVU552
 1242 0154 8CED003A 		vstr.32	s6, [ip]
 1243              	.LVL232:
 756:Drivers/CMSIS/DSP/Source/TransformFunctions/arm_cfft_radix4_f32.c **** 
 757:Drivers/CMSIS/DSP/Source/TransformFunctions/arm_cfft_radix4_f32.c ****       /* yc' = (ya-yb+yc-yd)co2 + (xa-xb+xc-xd)(si2) */
 758:Drivers/CMSIS/DSP/Source/TransformFunctions/arm_cfft_radix4_f32.c ****       pSrc[(2U * i1) + 1U] = Yc12_out;
 1244              		.loc 1 758 7 is_stmt 1 view .LVU553
 1245              		.loc 1 758 28 is_stmt 0 view .LVU554
 1246 0158 85ED006A 		vstr.32	s12, [r5]
 759:Drivers/CMSIS/DSP/Source/TransformFunctions/arm_cfft_radix4_f32.c **** 
 760:Drivers/CMSIS/DSP/Source/TransformFunctions/arm_cfft_radix4_f32.c ****       /* xb' = (xa+yb-xc-yd)co1 - (ya-xb-yc+xd)(si1) */
 761:Drivers/CMSIS/DSP/Source/TransformFunctions/arm_cfft_radix4_f32.c ****       pSrc[2U * i2] = Xb12_out;
 1247              		.loc 1 761 7 is_stmt 1 view .LVU555
 1248              		.loc 1 761 21 is_stmt 0 view .LVU556
 1249 015c 84ED004A 		vstr.32	s8, [r4]
 762:Drivers/CMSIS/DSP/Source/TransformFunctions/arm_cfft_radix4_f32.c **** 
 763:Drivers/CMSIS/DSP/Source/TransformFunctions/arm_cfft_radix4_f32.c ****       /* yb' = (ya-xb-yc+xd)co1 + (xa+yb-xc-yd)(si1) */
 764:Drivers/CMSIS/DSP/Source/TransformFunctions/arm_cfft_radix4_f32.c ****       pSrc[(2U * i2) + 1U] = Yb12_out;
 1250              		.loc 1 764 7 is_stmt 1 view .LVU557
 1251              		.loc 1 764 28 is_stmt 0 view .LVU558
 1252 0160 82ED005A 		vstr.32	s10, [r2]
 765:Drivers/CMSIS/DSP/Source/TransformFunctions/arm_cfft_radix4_f32.c **** 
 766:Drivers/CMSIS/DSP/Source/TransformFunctions/arm_cfft_radix4_f32.c ****       /* xd' = (xa-yb-xc+yd)co3 - (ya+xb-yc-xd)(si3) */
 767:Drivers/CMSIS/DSP/Source/TransformFunctions/arm_cfft_radix4_f32.c ****       pSrc[2U * i3] = Xd12_out;
 1253              		.loc 1 767 7 is_stmt 1 view .LVU559
 1254              		.loc 1 767 21 is_stmt 0 view .LVU560
 1255 0164 C7ED006A 		vstr.32	s13, [r7]
 768:Drivers/CMSIS/DSP/Source/TransformFunctions/arm_cfft_radix4_f32.c **** 
 769:Drivers/CMSIS/DSP/Source/TransformFunctions/arm_cfft_radix4_f32.c ****       /* yd' = (ya+xb-yc-xd)co3 + (xa-yb-xc+yd)(si3) */
 770:Drivers/CMSIS/DSP/Source/TransformFunctions/arm_cfft_radix4_f32.c ****       pSrc[(2U * i3) + 1U] = Yd12_out;
 1256              		.loc 1 770 7 is_stmt 1 view .LVU561
 1257              		.loc 1 770 28 is_stmt 0 view .LVU562
 1258 0168 009B     		ldr	r3, [sp]
 1259 016a C3ED007A 		vstr.32	s15, [r3]
 771:Drivers/CMSIS/DSP/Source/TransformFunctions/arm_cfft_radix4_f32.c **** 
 772:Drivers/CMSIS/DSP/Source/TransformFunctions/arm_cfft_radix4_f32.c ****       /*  Twiddle coefficients index modifier */
 773:Drivers/CMSIS/DSP/Source/TransformFunctions/arm_cfft_radix4_f32.c ****       ia1 = ia1 + twidCoefModifier;
 1260              		.loc 1 773 7 is_stmt 1 view .LVU563
 1261              		.loc 1 773 11 is_stmt 0 view .LVU564
 1262 016e 019B     		ldr	r3, [sp, #4]
 1263 0170 9A44     		add	r10, r10, r3
 1264              	.LVL233:
 774:Drivers/CMSIS/DSP/Source/TransformFunctions/arm_cfft_radix4_f32.c **** 
 775:Drivers/CMSIS/DSP/Source/TransformFunctions/arm_cfft_radix4_f32.c ****       /*  Updating input index */
 776:Drivers/CMSIS/DSP/Source/TransformFunctions/arm_cfft_radix4_f32.c ****       i0 = i0 + 1U;
 1265              		.loc 1 776 7 is_stmt 1 view .LVU565
 1266              		.loc 1 776 10 is_stmt 0 view .LVU566
 1267 0172 08F10108 		add	r8, r8, #1
 1268              	.LVL234:
 777:Drivers/CMSIS/DSP/Source/TransformFunctions/arm_cfft_radix4_f32.c **** 
 778:Drivers/CMSIS/DSP/Source/TransformFunctions/arm_cfft_radix4_f32.c ****    } while (--j);
ARM GAS  /var/folders/n6/c271nzx11xl4r4_m7sqjlt0m0000gn/T//ccHq3Xre.s 			page 37


 1269              		.loc 1 778 13 is_stmt 1 discriminator 1 view .LVU567
 1270              		.loc 1 778 13 is_stmt 0 discriminator 1 view .LVU568
 1271 0176 039B     		ldr	r3, [sp, #12]
 1272 0178 013B     		subs	r3, r3, #1
 1273              	.LVL235:
 1274              		.loc 1 778 13 discriminator 1 view .LVU569
 1275 017a 0393     		str	r3, [sp, #12]
 1276 017c 7FF454AF 		bne	.L10
 779:Drivers/CMSIS/DSP/Source/TransformFunctions/arm_cfft_radix4_f32.c **** 
 780:Drivers/CMSIS/DSP/Source/TransformFunctions/arm_cfft_radix4_f32.c ****    twidCoefModifier <<= 2U;
 1277              		.loc 1 780 21 view .LVU570
 1278 0180 D946     		mov	r9, fp
 1279 0182 DDF808B0 		ldr	fp, [sp, #8]
 1280              	.LVL236:
 1281              		.loc 1 780 4 is_stmt 1 view .LVU571
 1282              		.loc 1 780 21 is_stmt 0 view .LVU572
 1283 0186 019B     		ldr	r3, [sp, #4]
 1284              	.LVL237:
 1285              		.loc 1 780 21 view .LVU573
 1286 0188 9B00     		lsls	r3, r3, #2
 1287 018a 9DB2     		uxth	r5, r3
 1288              	.LVL238:
 781:Drivers/CMSIS/DSP/Source/TransformFunctions/arm_cfft_radix4_f32.c **** 
 782:Drivers/CMSIS/DSP/Source/TransformFunctions/arm_cfft_radix4_f32.c ****    /*  Calculation of second stage to excluding last stage */
 783:Drivers/CMSIS/DSP/Source/TransformFunctions/arm_cfft_radix4_f32.c ****    for (k = fftLen >> 2U; k > 4U; k >>= 2U)
 1289              		.loc 1 783 4 is_stmt 1 view .LVU574
 1290              		.loc 1 783 20 is_stmt 0 view .LVU575
 1291 018c 4FEA9B03 		lsr	r3, fp, #2
 1292              	.LVL239:
 1293              		.loc 1 783 11 view .LVU576
 1294 0190 1A46     		mov	r2, r3
 1295 0192 0593     		str	r3, [sp, #20]
 1296 0194 0F46     		mov	r7, r1
 1297              		.loc 1 783 4 view .LVU577
 1298 0196 BEE0     		b	.L11
 1299              	.LVL240:
 1300              	.L14:
 784:Drivers/CMSIS/DSP/Source/TransformFunctions/arm_cfft_radix4_f32.c ****    {
 785:Drivers/CMSIS/DSP/Source/TransformFunctions/arm_cfft_radix4_f32.c ****       /*  Initializations for the first stage */
 786:Drivers/CMSIS/DSP/Source/TransformFunctions/arm_cfft_radix4_f32.c ****       n1 = n2;
 1301              		.loc 1 786 7 is_stmt 1 view .LVU578
 787:Drivers/CMSIS/DSP/Source/TransformFunctions/arm_cfft_radix4_f32.c ****       n2 >>= 2U;
 1302              		.loc 1 787 7 view .LVU579
 1303              		.loc 1 787 10 is_stmt 0 view .LVU580
 1304 0198 4FEA990E 		lsr	lr, r9, #2
 1305              	.LVL241:
 788:Drivers/CMSIS/DSP/Source/TransformFunctions/arm_cfft_radix4_f32.c ****       ia1 = 0U;
 1306              		.loc 1 788 7 is_stmt 1 view .LVU581
 789:Drivers/CMSIS/DSP/Source/TransformFunctions/arm_cfft_radix4_f32.c **** 
 790:Drivers/CMSIS/DSP/Source/TransformFunctions/arm_cfft_radix4_f32.c ****       /*  Calculation of first stage */
 791:Drivers/CMSIS/DSP/Source/TransformFunctions/arm_cfft_radix4_f32.c ****       j = 0;
 1307              		.loc 1 791 7 view .LVU582
 1308              		.loc 1 791 9 is_stmt 0 view .LVU583
 1309 019c DDF80C80 		ldr	r8, [sp, #12]
 1310 01a0 4146     		mov	r1, r8
 788:Drivers/CMSIS/DSP/Source/TransformFunctions/arm_cfft_radix4_f32.c ****       ia1 = 0U;
 1311              		.loc 1 788 11 view .LVU584
ARM GAS  /var/folders/n6/c271nzx11xl4r4_m7sqjlt0m0000gn/T//ccHq3Xre.s 			page 38


 1312 01a2 0295     		str	r5, [sp, #8]
 1313 01a4 0492     		str	r2, [sp, #16]
 1314              	.LVL242:
 1315              	.L13:
 792:Drivers/CMSIS/DSP/Source/TransformFunctions/arm_cfft_radix4_f32.c ****       do
 1316              		.loc 1 792 7 is_stmt 1 view .LVU585
 793:Drivers/CMSIS/DSP/Source/TransformFunctions/arm_cfft_radix4_f32.c ****       {
 794:Drivers/CMSIS/DSP/Source/TransformFunctions/arm_cfft_radix4_f32.c ****          /*  index calculation for the coefficients */
 795:Drivers/CMSIS/DSP/Source/TransformFunctions/arm_cfft_radix4_f32.c ****          ia2 = ia1 + ia1;
 1317              		.loc 1 795 10 view .LVU586
 796:Drivers/CMSIS/DSP/Source/TransformFunctions/arm_cfft_radix4_f32.c ****          ia3 = ia2 + ia1;
 1318              		.loc 1 796 10 view .LVU587
 1319              		.loc 1 796 14 is_stmt 0 view .LVU588
 1320 01a6 08EB4802 		add	r2, r8, r8, lsl #1
 1321              	.LVL243:
 797:Drivers/CMSIS/DSP/Source/TransformFunctions/arm_cfft_radix4_f32.c ****          co1 = pCoef[ia1 * 2U];
 1322              		.loc 1 797 10 is_stmt 1 view .LVU589
 1323              		.loc 1 797 21 is_stmt 0 view .LVU590
 1324 01aa 4FEAC803 		lsl	r3, r8, #3
 1325 01ae 07EBC80A 		add	r10, r7, r8, lsl #3
 1326              		.loc 1 797 14 view .LVU591
 1327 01b2 9AED000A 		vldr.32	s0, [r10]
 1328              	.LVL244:
 798:Drivers/CMSIS/DSP/Source/TransformFunctions/arm_cfft_radix4_f32.c ****          si1 = pCoef[(ia1 * 2U) + 1U];
 1329              		.loc 1 798 10 is_stmt 1 view .LVU592
 1330              		.loc 1 798 21 is_stmt 0 view .LVU593
 1331 01b6 0433     		adds	r3, r3, #4
 1332 01b8 3B44     		add	r3, r3, r7
 1333              		.loc 1 798 14 view .LVU594
 1334 01ba D3ED000A 		vldr.32	s1, [r3]
 1335              	.LVL245:
 799:Drivers/CMSIS/DSP/Source/TransformFunctions/arm_cfft_radix4_f32.c ****          co2 = pCoef[ia2 * 2U];
 1336              		.loc 1 799 10 is_stmt 1 view .LVU595
 1337              		.loc 1 799 21 is_stmt 0 view .LVU596
 1338 01be 4FEA0813 		lsl	r3, r8, #4
 1339 01c2 07EB081A 		add	r10, r7, r8, lsl #4
 1340              		.loc 1 799 14 view .LVU597
 1341 01c6 9AED001A 		vldr.32	s2, [r10]
 1342              	.LVL246:
 800:Drivers/CMSIS/DSP/Source/TransformFunctions/arm_cfft_radix4_f32.c ****          si2 = pCoef[(ia2 * 2U) + 1U];
 1343              		.loc 1 800 10 is_stmt 1 view .LVU598
 1344              		.loc 1 800 21 is_stmt 0 view .LVU599
 1345 01ca 0433     		adds	r3, r3, #4
 1346 01cc 3B44     		add	r3, r3, r7
 1347              		.loc 1 800 14 view .LVU600
 1348 01ce D3ED001A 		vldr.32	s3, [r3]
 1349              	.LVL247:
 801:Drivers/CMSIS/DSP/Source/TransformFunctions/arm_cfft_radix4_f32.c ****          co3 = pCoef[ia3 * 2U];
 1350              		.loc 1 801 10 is_stmt 1 view .LVU601
 1351              		.loc 1 801 21 is_stmt 0 view .LVU602
 1352 01d2 D300     		lsls	r3, r2, #3
 1353 01d4 07EBC202 		add	r2, r7, r2, lsl #3
 1354              	.LVL248:
 1355              		.loc 1 801 14 view .LVU603
 1356 01d8 92ED002A 		vldr.32	s4, [r2]
 1357              	.LVL249:
 802:Drivers/CMSIS/DSP/Source/TransformFunctions/arm_cfft_radix4_f32.c ****          si3 = pCoef[(ia3 * 2U) + 1U];
ARM GAS  /var/folders/n6/c271nzx11xl4r4_m7sqjlt0m0000gn/T//ccHq3Xre.s 			page 39


 1358              		.loc 1 802 10 is_stmt 1 view .LVU604
 1359              		.loc 1 802 21 is_stmt 0 view .LVU605
 1360 01dc 0433     		adds	r3, r3, #4
 1361 01de 3B44     		add	r3, r3, r7
 1362              		.loc 1 802 14 view .LVU606
 1363 01e0 D3ED002A 		vldr.32	s5, [r3]
 1364              	.LVL250:
 803:Drivers/CMSIS/DSP/Source/TransformFunctions/arm_cfft_radix4_f32.c **** 
 804:Drivers/CMSIS/DSP/Source/TransformFunctions/arm_cfft_radix4_f32.c ****          /*  Twiddle coefficients index modifier */
 805:Drivers/CMSIS/DSP/Source/TransformFunctions/arm_cfft_radix4_f32.c ****          ia1 = ia1 + twidCoefModifier;
 1365              		.loc 1 805 10 is_stmt 1 view .LVU607
 1366              		.loc 1 805 14 is_stmt 0 view .LVU608
 1367 01e4 029B     		ldr	r3, [sp, #8]
 1368 01e6 9844     		add	r8, r8, r3
 1369              	.LVL251:
 806:Drivers/CMSIS/DSP/Source/TransformFunctions/arm_cfft_radix4_f32.c **** 
 807:Drivers/CMSIS/DSP/Source/TransformFunctions/arm_cfft_radix4_f32.c ****          i0 = j;
 1370              		.loc 1 807 10 is_stmt 1 view .LVU609
 1371              		.loc 1 807 13 is_stmt 0 view .LVU610
 1372 01e8 0B46     		mov	r3, r1
 1373 01ea CDF80080 		str	r8, [sp]
 1374 01ee 0191     		str	r1, [sp, #4]
 1375              	.LVL252:
 1376              	.L12:
 808:Drivers/CMSIS/DSP/Source/TransformFunctions/arm_cfft_radix4_f32.c ****          do
 1377              		.loc 1 808 10 is_stmt 1 view .LVU611
 809:Drivers/CMSIS/DSP/Source/TransformFunctions/arm_cfft_radix4_f32.c ****          {
 810:Drivers/CMSIS/DSP/Source/TransformFunctions/arm_cfft_radix4_f32.c ****             /*  index calculation for the input as, */
 811:Drivers/CMSIS/DSP/Source/TransformFunctions/arm_cfft_radix4_f32.c ****             /*  pSrc[i0 + 0], pSrc[i0 + fftLen/4], pSrc[i0 + fftLen/2], pSrc[i0 + 3fftLen/4] */
 812:Drivers/CMSIS/DSP/Source/TransformFunctions/arm_cfft_radix4_f32.c ****             i1 = i0 + n2;
 1378              		.loc 1 812 13 view .LVU612
 1379              		.loc 1 812 16 is_stmt 0 view .LVU613
 1380 01f0 03EB0E08 		add	r8, r3, lr
 1381              	.LVL253:
 813:Drivers/CMSIS/DSP/Source/TransformFunctions/arm_cfft_radix4_f32.c ****             i2 = i1 + n2;
 1382              		.loc 1 813 13 is_stmt 1 view .LVU614
 1383              		.loc 1 813 16 is_stmt 0 view .LVU615
 1384 01f4 03EB4E04 		add	r4, r3, lr, lsl #1
 1385              	.LVL254:
 814:Drivers/CMSIS/DSP/Source/TransformFunctions/arm_cfft_radix4_f32.c ****             i3 = i2 + n2;
 1386              		.loc 1 814 13 is_stmt 1 view .LVU616
 1387              		.loc 1 814 16 is_stmt 0 view .LVU617
 1388 01f8 0EEB040C 		add	ip, lr, r4
 1389              	.LVL255:
 815:Drivers/CMSIS/DSP/Source/TransformFunctions/arm_cfft_radix4_f32.c **** 
 816:Drivers/CMSIS/DSP/Source/TransformFunctions/arm_cfft_radix4_f32.c ****             xaIn = pSrc[(2U * i0)];
 1390              		.loc 1 816 13 is_stmt 1 view .LVU618
 1391              		.loc 1 816 24 is_stmt 0 view .LVU619
 1392 01fc DE00     		lsls	r6, r3, #3
 1393 01fe 00EBC30A 		add	r10, r0, r3, lsl #3
 1394              		.loc 1 816 18 view .LVU620
 1395 0202 9AED006A 		vldr.32	s12, [r10]
 1396              	.LVL256:
 817:Drivers/CMSIS/DSP/Source/TransformFunctions/arm_cfft_radix4_f32.c ****             yaIn = pSrc[(2U * i0) + 1U];
 1397              		.loc 1 817 13 is_stmt 1 view .LVU621
 1398              		.loc 1 817 24 is_stmt 0 view .LVU622
 1399 0206 0436     		adds	r6, r6, #4
ARM GAS  /var/folders/n6/c271nzx11xl4r4_m7sqjlt0m0000gn/T//ccHq3Xre.s 			page 40


 1400 0208 0644     		add	r6, r6, r0
 1401              		.loc 1 817 18 view .LVU623
 1402 020a D6ED006A 		vldr.32	s13, [r6]
 1403              	.LVL257:
 818:Drivers/CMSIS/DSP/Source/TransformFunctions/arm_cfft_radix4_f32.c **** 
 819:Drivers/CMSIS/DSP/Source/TransformFunctions/arm_cfft_radix4_f32.c ****             xbIn = pSrc[(2U * i1)];
 1404              		.loc 1 819 13 is_stmt 1 view .LVU624
 1405              		.loc 1 819 24 is_stmt 0 view .LVU625
 1406 020e 4FEAC805 		lsl	r5, r8, #3
 1407 0212 00EBC808 		add	r8, r0, r8, lsl #3
 1408              	.LVL258:
 1409              		.loc 1 819 18 view .LVU626
 1410 0216 98ED005A 		vldr.32	s10, [r8]
 1411              	.LVL259:
 820:Drivers/CMSIS/DSP/Source/TransformFunctions/arm_cfft_radix4_f32.c ****             ybIn = pSrc[(2U * i1) + 1U];
 1412              		.loc 1 820 13 is_stmt 1 view .LVU627
 1413              		.loc 1 820 24 is_stmt 0 view .LVU628
 1414 021a 0435     		adds	r5, r5, #4
 1415 021c 0544     		add	r5, r5, r0
 1416              		.loc 1 820 18 view .LVU629
 1417 021e D5ED005A 		vldr.32	s11, [r5]
 1418              	.LVL260:
 821:Drivers/CMSIS/DSP/Source/TransformFunctions/arm_cfft_radix4_f32.c **** 
 822:Drivers/CMSIS/DSP/Source/TransformFunctions/arm_cfft_radix4_f32.c ****             xcIn = pSrc[(2U * i2)];
 1419              		.loc 1 822 13 is_stmt 1 view .LVU630
 1420              		.loc 1 822 24 is_stmt 0 view .LVU631
 1421 0222 E100     		lsls	r1, r4, #3
 1422 0224 00EBC404 		add	r4, r0, r4, lsl #3
 1423              	.LVL261:
 1424              		.loc 1 822 18 view .LVU632
 1425 0228 94ED003A 		vldr.32	s6, [r4]
 1426              	.LVL262:
 823:Drivers/CMSIS/DSP/Source/TransformFunctions/arm_cfft_radix4_f32.c ****             ycIn = pSrc[(2U * i2) + 1U];
 1427              		.loc 1 823 13 is_stmt 1 view .LVU633
 1428              		.loc 1 823 24 is_stmt 0 view .LVU634
 1429 022c 0431     		adds	r1, r1, #4
 1430 022e 0144     		add	r1, r1, r0
 1431              		.loc 1 823 18 view .LVU635
 1432 0230 91ED004A 		vldr.32	s8, [r1]
 1433              	.LVL263:
 824:Drivers/CMSIS/DSP/Source/TransformFunctions/arm_cfft_radix4_f32.c **** 
 825:Drivers/CMSIS/DSP/Source/TransformFunctions/arm_cfft_radix4_f32.c ****             xdIn = pSrc[(2U * i3)];
 1434              		.loc 1 825 13 is_stmt 1 view .LVU636
 1435              		.loc 1 825 24 is_stmt 0 view .LVU637
 1436 0234 4FEACC02 		lsl	r2, ip, #3
 1437 0238 00EBCC0C 		add	ip, r0, ip, lsl #3
 1438              	.LVL264:
 1439              		.loc 1 825 18 view .LVU638
 1440 023c DCED003A 		vldr.32	s7, [ip]
 1441              	.LVL265:
 826:Drivers/CMSIS/DSP/Source/TransformFunctions/arm_cfft_radix4_f32.c ****             ydIn = pSrc[(2U * i3) + 1U];
 1442              		.loc 1 826 13 is_stmt 1 view .LVU639
 1443              		.loc 1 826 24 is_stmt 0 view .LVU640
 1444 0240 0432     		adds	r2, r2, #4
 1445 0242 0244     		add	r2, r2, r0
 1446              		.loc 1 826 18 view .LVU641
 1447 0244 D2ED004A 		vldr.32	s9, [r2]
ARM GAS  /var/folders/n6/c271nzx11xl4r4_m7sqjlt0m0000gn/T//ccHq3Xre.s 			page 41


 1448              	.LVL266:
 827:Drivers/CMSIS/DSP/Source/TransformFunctions/arm_cfft_radix4_f32.c **** 
 828:Drivers/CMSIS/DSP/Source/TransformFunctions/arm_cfft_radix4_f32.c ****             /* xa - xc */
 829:Drivers/CMSIS/DSP/Source/TransformFunctions/arm_cfft_radix4_f32.c ****             Xaminusc = xaIn - xcIn;
 1449              		.loc 1 829 13 is_stmt 1 view .LVU642
 1450              		.loc 1 829 22 is_stmt 0 view .LVU643
 1451 0248 76EE437A 		vsub.f32	s15, s12, s6
 1452              	.LVL267:
 830:Drivers/CMSIS/DSP/Source/TransformFunctions/arm_cfft_radix4_f32.c ****             /* (xb - xd) */
 831:Drivers/CMSIS/DSP/Source/TransformFunctions/arm_cfft_radix4_f32.c ****             Xbminusd = xbIn - xdIn;
 1453              		.loc 1 831 13 is_stmt 1 view .LVU644
 1454              		.loc 1 831 22 is_stmt 0 view .LVU645
 1455 024c 35EE638A 		vsub.f32	s16, s10, s7
 1456              	.LVL268:
 832:Drivers/CMSIS/DSP/Source/TransformFunctions/arm_cfft_radix4_f32.c ****             /* ya - yc */
 833:Drivers/CMSIS/DSP/Source/TransformFunctions/arm_cfft_radix4_f32.c ****             Yaminusc = yaIn - ycIn;
 1457              		.loc 1 833 13 is_stmt 1 view .LVU646
 1458              		.loc 1 833 22 is_stmt 0 view .LVU647
 1459 0250 36EEC49A 		vsub.f32	s18, s13, s8
 1460              	.LVL269:
 834:Drivers/CMSIS/DSP/Source/TransformFunctions/arm_cfft_radix4_f32.c ****             /* (yb - yd) */
 835:Drivers/CMSIS/DSP/Source/TransformFunctions/arm_cfft_radix4_f32.c ****             Ybminusd = ybIn - ydIn;
 1461              		.loc 1 835 13 is_stmt 1 view .LVU648
 1462              		.loc 1 835 22 is_stmt 0 view .LVU649
 1463 0254 75EEE48A 		vsub.f32	s17, s11, s9
 1464              	.LVL270:
 836:Drivers/CMSIS/DSP/Source/TransformFunctions/arm_cfft_radix4_f32.c **** 
 837:Drivers/CMSIS/DSP/Source/TransformFunctions/arm_cfft_radix4_f32.c ****             /* xa + xc */
 838:Drivers/CMSIS/DSP/Source/TransformFunctions/arm_cfft_radix4_f32.c ****             Xaplusc = xaIn + xcIn;
 1465              		.loc 1 838 13 is_stmt 1 view .LVU650
 1466              		.loc 1 838 21 is_stmt 0 view .LVU651
 1467 0258 36EE036A 		vadd.f32	s12, s12, s6
 1468              	.LVL271:
 839:Drivers/CMSIS/DSP/Source/TransformFunctions/arm_cfft_radix4_f32.c ****             /* xb + xd */
 840:Drivers/CMSIS/DSP/Source/TransformFunctions/arm_cfft_radix4_f32.c ****             Xbplusd = xbIn + xdIn;
 1469              		.loc 1 840 13 is_stmt 1 view .LVU652
 1470              		.loc 1 840 21 is_stmt 0 view .LVU653
 1471 025c 35EE235A 		vadd.f32	s10, s10, s7
 1472              	.LVL272:
 841:Drivers/CMSIS/DSP/Source/TransformFunctions/arm_cfft_radix4_f32.c ****             /* ya + yc */
 842:Drivers/CMSIS/DSP/Source/TransformFunctions/arm_cfft_radix4_f32.c ****             Yaplusc = yaIn + ycIn;
 1473              		.loc 1 842 13 is_stmt 1 view .LVU654
 1474              		.loc 1 842 21 is_stmt 0 view .LVU655
 1475 0260 76EE846A 		vadd.f32	s13, s13, s8
 1476              	.LVL273:
 843:Drivers/CMSIS/DSP/Source/TransformFunctions/arm_cfft_radix4_f32.c ****             /* yb + yd */
 844:Drivers/CMSIS/DSP/Source/TransformFunctions/arm_cfft_radix4_f32.c ****             Ybplusd = ybIn + ydIn;
 1477              		.loc 1 844 13 is_stmt 1 view .LVU656
 1478              		.loc 1 844 21 is_stmt 0 view .LVU657
 1479 0264 75EEA45A 		vadd.f32	s11, s11, s9
 1480              	.LVL274:
 845:Drivers/CMSIS/DSP/Source/TransformFunctions/arm_cfft_radix4_f32.c **** 
 846:Drivers/CMSIS/DSP/Source/TransformFunctions/arm_cfft_radix4_f32.c ****             /* (xa - xc) - (yb - yd) */
 847:Drivers/CMSIS/DSP/Source/TransformFunctions/arm_cfft_radix4_f32.c ****             Xb12C_out = (Xaminusc - Ybminusd);
 1481              		.loc 1 847 13 is_stmt 1 view .LVU658
 1482              		.loc 1 847 23 is_stmt 0 view .LVU659
 1483 0268 77EEE83A 		vsub.f32	s7, s15, s17
ARM GAS  /var/folders/n6/c271nzx11xl4r4_m7sqjlt0m0000gn/T//ccHq3Xre.s 			page 42


 1484              	.LVL275:
 848:Drivers/CMSIS/DSP/Source/TransformFunctions/arm_cfft_radix4_f32.c ****             /* (ya - yc) +  (xb - xd) */
 849:Drivers/CMSIS/DSP/Source/TransformFunctions/arm_cfft_radix4_f32.c ****             Yb12C_out = (Yaminusc + Xbminusd);
 1485              		.loc 1 849 13 is_stmt 1 view .LVU660
 1486              		.loc 1 849 23 is_stmt 0 view .LVU661
 1487 026c 38EE093A 		vadd.f32	s6, s16, s18
 1488              	.LVL276:
 850:Drivers/CMSIS/DSP/Source/TransformFunctions/arm_cfft_radix4_f32.c ****             /* xa + xc -(xb + xd) */
 851:Drivers/CMSIS/DSP/Source/TransformFunctions/arm_cfft_radix4_f32.c ****             Xc12C_out = (Xaplusc - Xbplusd);
 1489              		.loc 1 851 13 is_stmt 1 view .LVU662
 1490              		.loc 1 851 23 is_stmt 0 view .LVU663
 1491 0270 76EE454A 		vsub.f32	s9, s12, s10
 1492              	.LVL277:
 852:Drivers/CMSIS/DSP/Source/TransformFunctions/arm_cfft_radix4_f32.c ****             /* (ya + yc) - (yb + yd) */
 853:Drivers/CMSIS/DSP/Source/TransformFunctions/arm_cfft_radix4_f32.c ****             Yc12C_out = (Yaplusc - Ybplusd);
 1493              		.loc 1 853 13 is_stmt 1 view .LVU664
 1494              		.loc 1 853 23 is_stmt 0 view .LVU665
 1495 0274 36EEE54A 		vsub.f32	s8, s13, s11
 1496              	.LVL278:
 854:Drivers/CMSIS/DSP/Source/TransformFunctions/arm_cfft_radix4_f32.c ****             /* (xa - xc) + (yb - yd) */
 855:Drivers/CMSIS/DSP/Source/TransformFunctions/arm_cfft_radix4_f32.c ****             Xd12C_out = (Xaminusc + Ybminusd);
 1497              		.loc 1 855 13 is_stmt 1 view .LVU666
 1498              		.loc 1 855 23 is_stmt 0 view .LVU667
 1499 0278 77EEA87A 		vadd.f32	s15, s15, s17
 1500              	.LVL279:
 856:Drivers/CMSIS/DSP/Source/TransformFunctions/arm_cfft_radix4_f32.c ****             /* (ya - yc) -  (xb - xd) */
 857:Drivers/CMSIS/DSP/Source/TransformFunctions/arm_cfft_radix4_f32.c ****             Yd12C_out = (Yaminusc - Xbminusd);
 1501              		.loc 1 857 13 is_stmt 1 view .LVU668
 1502              		.loc 1 857 23 is_stmt 0 view .LVU669
 1503 027c 39EE489A 		vsub.f32	s18, s18, s16
 1504              	.LVL280:
 858:Drivers/CMSIS/DSP/Source/TransformFunctions/arm_cfft_radix4_f32.c **** 
 859:Drivers/CMSIS/DSP/Source/TransformFunctions/arm_cfft_radix4_f32.c ****             pSrc[(2U * i0)] = Xaplusc + Xbplusd;
 1505              		.loc 1 859 13 is_stmt 1 view .LVU670
 1506              		.loc 1 859 39 is_stmt 0 view .LVU671
 1507 0280 36EE056A 		vadd.f32	s12, s12, s10
 1508              	.LVL281:
 1509              		.loc 1 859 29 view .LVU672
 1510 0284 8AED006A 		vstr.32	s12, [r10]
 1511              	.LVL282:
 860:Drivers/CMSIS/DSP/Source/TransformFunctions/arm_cfft_radix4_f32.c ****             pSrc[(2U * i0) + 1U] = Yaplusc + Ybplusd;
 1512              		.loc 1 860 13 is_stmt 1 view .LVU673
 1513              		.loc 1 860 44 is_stmt 0 view .LVU674
 1514 0288 76EEA56A 		vadd.f32	s13, s13, s11
 1515              	.LVL283:
 1516              		.loc 1 860 34 view .LVU675
 1517 028c C6ED006A 		vstr.32	s13, [r6]
 1518              	.LVL284:
 861:Drivers/CMSIS/DSP/Source/TransformFunctions/arm_cfft_radix4_f32.c **** 
 862:Drivers/CMSIS/DSP/Source/TransformFunctions/arm_cfft_radix4_f32.c ****             Xb12_out = Xb12C_out * co1;
 1519              		.loc 1 862 13 is_stmt 1 view .LVU676
 1520              		.loc 1 862 22 is_stmt 0 view .LVU677
 1521 0290 20EE235A 		vmul.f32	s10, s0, s7
 1522              	.LVL285:
 863:Drivers/CMSIS/DSP/Source/TransformFunctions/arm_cfft_radix4_f32.c ****             Yb12_out = Yb12C_out * co1;
 1523              		.loc 1 863 13 is_stmt 1 view .LVU678
 1524              		.loc 1 863 22 is_stmt 0 view .LVU679
ARM GAS  /var/folders/n6/c271nzx11xl4r4_m7sqjlt0m0000gn/T//ccHq3Xre.s 			page 43


 1525 0294 60EE035A 		vmul.f32	s11, s0, s6
 1526              	.LVL286:
 864:Drivers/CMSIS/DSP/Source/TransformFunctions/arm_cfft_radix4_f32.c ****             Xc12_out = Xc12C_out * co2;
 1527              		.loc 1 864 13 is_stmt 1 view .LVU680
 1528              		.loc 1 864 22 is_stmt 0 view .LVU681
 1529 0298 61EE248A 		vmul.f32	s17, s2, s9
 1530              	.LVL287:
 865:Drivers/CMSIS/DSP/Source/TransformFunctions/arm_cfft_radix4_f32.c ****             Yc12_out = Yc12C_out * co2;
 1531              		.loc 1 865 13 is_stmt 1 view .LVU682
 1532              		.loc 1 865 22 is_stmt 0 view .LVU683
 1533 029c 21EE048A 		vmul.f32	s16, s2, s8
 1534              	.LVL288:
 866:Drivers/CMSIS/DSP/Source/TransformFunctions/arm_cfft_radix4_f32.c ****             Xd12_out = Xd12C_out * co3;
 1535              		.loc 1 866 13 is_stmt 1 view .LVU684
 1536              		.loc 1 866 22 is_stmt 0 view .LVU685
 1537 02a0 22EE276A 		vmul.f32	s12, s4, s15
 1538              	.LVL289:
 867:Drivers/CMSIS/DSP/Source/TransformFunctions/arm_cfft_radix4_f32.c ****             Yd12_out = Yd12C_out * co3;
 1539              		.loc 1 867 13 is_stmt 1 view .LVU686
 1540              		.loc 1 867 22 is_stmt 0 view .LVU687
 1541 02a4 62EE096A 		vmul.f32	s13, s4, s18
 1542              	.LVL290:
 868:Drivers/CMSIS/DSP/Source/TransformFunctions/arm_cfft_radix4_f32.c **** 
 869:Drivers/CMSIS/DSP/Source/TransformFunctions/arm_cfft_radix4_f32.c ****             /* xb' = (xa+yb-xc-yd)co1 - (ya-xb-yc+xd)(si1) */
 870:Drivers/CMSIS/DSP/Source/TransformFunctions/arm_cfft_radix4_f32.c ****             //Xb12_out -= Yb12C_out * si1;
 871:Drivers/CMSIS/DSP/Source/TransformFunctions/arm_cfft_radix4_f32.c ****             p0 = Yb12C_out * si1;
 1543              		.loc 1 871 13 is_stmt 1 view .LVU688
 1544              		.loc 1 871 16 is_stmt 0 view .LVU689
 1545 02a8 20EE833A 		vmul.f32	s6, s1, s6
 1546              	.LVL291:
 872:Drivers/CMSIS/DSP/Source/TransformFunctions/arm_cfft_radix4_f32.c ****             /* yb' = (ya-xb-yc+xd)co1 + (xa+yb-xc-yd)(si1) */
 873:Drivers/CMSIS/DSP/Source/TransformFunctions/arm_cfft_radix4_f32.c ****             //Yb12_out += Xb12C_out * si1;
 874:Drivers/CMSIS/DSP/Source/TransformFunctions/arm_cfft_radix4_f32.c ****             p1 = Xb12C_out * si1;
 1547              		.loc 1 874 13 is_stmt 1 view .LVU690
 1548              		.loc 1 874 16 is_stmt 0 view .LVU691
 1549 02ac 60EEA33A 		vmul.f32	s7, s1, s7
 1550              	.LVL292:
 875:Drivers/CMSIS/DSP/Source/TransformFunctions/arm_cfft_radix4_f32.c ****             /* xc' = (xa-xb+xc-xd)co2 - (ya-yb+yc-yd)(si2) */
 876:Drivers/CMSIS/DSP/Source/TransformFunctions/arm_cfft_radix4_f32.c ****             //Xc12_out -= Yc12C_out * si2;
 877:Drivers/CMSIS/DSP/Source/TransformFunctions/arm_cfft_radix4_f32.c ****             p2 = Yc12C_out * si2;
 1551              		.loc 1 877 13 is_stmt 1 view .LVU692
 1552              		.loc 1 877 16 is_stmt 0 view .LVU693
 1553 02b0 21EE844A 		vmul.f32	s8, s3, s8
 1554              	.LVL293:
 878:Drivers/CMSIS/DSP/Source/TransformFunctions/arm_cfft_radix4_f32.c ****             /* yc' = (ya-yb+yc-yd)co2 + (xa-xb+xc-xd)(si2) */
 879:Drivers/CMSIS/DSP/Source/TransformFunctions/arm_cfft_radix4_f32.c ****             //Yc12_out += Xc12C_out * si2;
 880:Drivers/CMSIS/DSP/Source/TransformFunctions/arm_cfft_radix4_f32.c ****             p3 = Xc12C_out * si2;
 1555              		.loc 1 880 13 is_stmt 1 view .LVU694
 1556              		.loc 1 880 16 is_stmt 0 view .LVU695
 1557 02b4 61EEA44A 		vmul.f32	s9, s3, s9
 1558              	.LVL294:
 881:Drivers/CMSIS/DSP/Source/TransformFunctions/arm_cfft_radix4_f32.c ****             /* xd' = (xa-yb-xc+yd)co3 - (ya+xb-yc-xd)(si3) */
 882:Drivers/CMSIS/DSP/Source/TransformFunctions/arm_cfft_radix4_f32.c ****             //Xd12_out -= Yd12C_out * si3;
 883:Drivers/CMSIS/DSP/Source/TransformFunctions/arm_cfft_radix4_f32.c ****             p4 = Yd12C_out * si3;
 1559              		.loc 1 883 13 is_stmt 1 view .LVU696
 1560              		.loc 1 883 16 is_stmt 0 view .LVU697
 1561 02b8 22EE899A 		vmul.f32	s18, s5, s18
ARM GAS  /var/folders/n6/c271nzx11xl4r4_m7sqjlt0m0000gn/T//ccHq3Xre.s 			page 44


 1562              	.LVL295:
 884:Drivers/CMSIS/DSP/Source/TransformFunctions/arm_cfft_radix4_f32.c ****             /* yd' = (ya+xb-yc-xd)co3 + (xa-yb-xc+yd)(si3) */
 885:Drivers/CMSIS/DSP/Source/TransformFunctions/arm_cfft_radix4_f32.c ****             //Yd12_out += Xd12C_out * si3;
 886:Drivers/CMSIS/DSP/Source/TransformFunctions/arm_cfft_radix4_f32.c ****             p5 = Xd12C_out * si3;
 1563              		.loc 1 886 13 is_stmt 1 view .LVU698
 1564              		.loc 1 886 16 is_stmt 0 view .LVU699
 1565 02bc 62EEA77A 		vmul.f32	s15, s5, s15
 1566              	.LVL296:
 887:Drivers/CMSIS/DSP/Source/TransformFunctions/arm_cfft_radix4_f32.c **** 
 888:Drivers/CMSIS/DSP/Source/TransformFunctions/arm_cfft_radix4_f32.c ****             Xb12_out -= p0;
 1567              		.loc 1 888 13 is_stmt 1 view .LVU700
 1568              		.loc 1 888 22 is_stmt 0 view .LVU701
 1569 02c0 35EE435A 		vsub.f32	s10, s10, s6
 1570              	.LVL297:
 889:Drivers/CMSIS/DSP/Source/TransformFunctions/arm_cfft_radix4_f32.c ****             Yb12_out += p1;
 1571              		.loc 1 889 13 is_stmt 1 view .LVU702
 1572              		.loc 1 889 22 is_stmt 0 view .LVU703
 1573 02c4 75EEA35A 		vadd.f32	s11, s11, s7
 1574              	.LVL298:
 890:Drivers/CMSIS/DSP/Source/TransformFunctions/arm_cfft_radix4_f32.c ****             Xc12_out -= p2;
 1575              		.loc 1 890 13 is_stmt 1 view .LVU704
 1576              		.loc 1 890 22 is_stmt 0 view .LVU705
 1577 02c8 38EEC44A 		vsub.f32	s8, s17, s8
 1578              	.LVL299:
 891:Drivers/CMSIS/DSP/Source/TransformFunctions/arm_cfft_radix4_f32.c ****             Yc12_out += p3;
 1579              		.loc 1 891 13 is_stmt 1 view .LVU706
 1580              		.loc 1 891 22 is_stmt 0 view .LVU707
 1581 02cc 78EE244A 		vadd.f32	s9, s16, s9
 1582              	.LVL300:
 892:Drivers/CMSIS/DSP/Source/TransformFunctions/arm_cfft_radix4_f32.c ****             Xd12_out -= p4;
 1583              		.loc 1 892 13 is_stmt 1 view .LVU708
 1584              		.loc 1 892 22 is_stmt 0 view .LVU709
 1585 02d0 36EE496A 		vsub.f32	s12, s12, s18
 1586              	.LVL301:
 893:Drivers/CMSIS/DSP/Source/TransformFunctions/arm_cfft_radix4_f32.c ****             Yd12_out += p5;
 1587              		.loc 1 893 13 is_stmt 1 view .LVU710
 1588              		.loc 1 893 22 is_stmt 0 view .LVU711
 1589 02d4 76EEA77A 		vadd.f32	s15, s13, s15
 1590              	.LVL302:
 894:Drivers/CMSIS/DSP/Source/TransformFunctions/arm_cfft_radix4_f32.c **** 
 895:Drivers/CMSIS/DSP/Source/TransformFunctions/arm_cfft_radix4_f32.c ****             /* xc' = (xa-xb+xc-xd)co2 - (ya-yb+yc-yd)(si2) */
 896:Drivers/CMSIS/DSP/Source/TransformFunctions/arm_cfft_radix4_f32.c ****             pSrc[2U * i1] = Xc12_out;
 1591              		.loc 1 896 13 is_stmt 1 view .LVU712
 1592              		.loc 1 896 27 is_stmt 0 view .LVU713
 1593 02d8 88ED004A 		vstr.32	s8, [r8]
 897:Drivers/CMSIS/DSP/Source/TransformFunctions/arm_cfft_radix4_f32.c **** 
 898:Drivers/CMSIS/DSP/Source/TransformFunctions/arm_cfft_radix4_f32.c ****             /* yc' = (ya-yb+yc-yd)co2 + (xa-xb+xc-xd)(si2) */
 899:Drivers/CMSIS/DSP/Source/TransformFunctions/arm_cfft_radix4_f32.c ****             pSrc[(2U * i1) + 1U] = Yc12_out;
 1594              		.loc 1 899 13 is_stmt 1 view .LVU714
 1595              		.loc 1 899 34 is_stmt 0 view .LVU715
 1596 02dc C5ED004A 		vstr.32	s9, [r5]
 900:Drivers/CMSIS/DSP/Source/TransformFunctions/arm_cfft_radix4_f32.c **** 
 901:Drivers/CMSIS/DSP/Source/TransformFunctions/arm_cfft_radix4_f32.c ****             /* xb' = (xa+yb-xc-yd)co1 - (ya-xb-yc+xd)(si1) */
 902:Drivers/CMSIS/DSP/Source/TransformFunctions/arm_cfft_radix4_f32.c ****             pSrc[2U * i2] = Xb12_out;
 1597              		.loc 1 902 13 is_stmt 1 view .LVU716
 1598              		.loc 1 902 27 is_stmt 0 view .LVU717
 1599 02e0 84ED005A 		vstr.32	s10, [r4]
ARM GAS  /var/folders/n6/c271nzx11xl4r4_m7sqjlt0m0000gn/T//ccHq3Xre.s 			page 45


 903:Drivers/CMSIS/DSP/Source/TransformFunctions/arm_cfft_radix4_f32.c **** 
 904:Drivers/CMSIS/DSP/Source/TransformFunctions/arm_cfft_radix4_f32.c ****             /* yb' = (ya-xb-yc+xd)co1 + (xa+yb-xc-yd)(si1) */
 905:Drivers/CMSIS/DSP/Source/TransformFunctions/arm_cfft_radix4_f32.c ****             pSrc[(2U * i2) + 1U] = Yb12_out;
 1600              		.loc 1 905 13 is_stmt 1 view .LVU718
 1601              		.loc 1 905 34 is_stmt 0 view .LVU719
 1602 02e4 C1ED005A 		vstr.32	s11, [r1]
 906:Drivers/CMSIS/DSP/Source/TransformFunctions/arm_cfft_radix4_f32.c **** 
 907:Drivers/CMSIS/DSP/Source/TransformFunctions/arm_cfft_radix4_f32.c ****             /* xd' = (xa-yb-xc+yd)co3 - (ya+xb-yc-xd)(si3) */
 908:Drivers/CMSIS/DSP/Source/TransformFunctions/arm_cfft_radix4_f32.c ****             pSrc[2U * i3] = Xd12_out;
 1603              		.loc 1 908 13 is_stmt 1 view .LVU720
 1604              		.loc 1 908 27 is_stmt 0 view .LVU721
 1605 02e8 8CED006A 		vstr.32	s12, [ip]
 909:Drivers/CMSIS/DSP/Source/TransformFunctions/arm_cfft_radix4_f32.c **** 
 910:Drivers/CMSIS/DSP/Source/TransformFunctions/arm_cfft_radix4_f32.c ****             /* yd' = (ya+xb-yc-xd)co3 + (xa-yb-xc+yd)(si3) */
 911:Drivers/CMSIS/DSP/Source/TransformFunctions/arm_cfft_radix4_f32.c ****             pSrc[(2U * i3) + 1U] = Yd12_out;
 1606              		.loc 1 911 13 is_stmt 1 view .LVU722
 1607              		.loc 1 911 34 is_stmt 0 view .LVU723
 1608 02ec C2ED007A 		vstr.32	s15, [r2]
 912:Drivers/CMSIS/DSP/Source/TransformFunctions/arm_cfft_radix4_f32.c **** 
 913:Drivers/CMSIS/DSP/Source/TransformFunctions/arm_cfft_radix4_f32.c ****             i0 += n1;
 1609              		.loc 1 913 13 is_stmt 1 view .LVU724
 1610              		.loc 1 913 16 is_stmt 0 view .LVU725
 1611 02f0 4B44     		add	r3, r3, r9
 1612              	.LVL303:
 914:Drivers/CMSIS/DSP/Source/TransformFunctions/arm_cfft_radix4_f32.c ****          } while (i0 < fftLen);
 1613              		.loc 1 914 22 is_stmt 1 discriminator 1 view .LVU726
 1614 02f2 9B45     		cmp	fp, r3
 1615 02f4 3FF67CAF 		bhi	.L12
 915:Drivers/CMSIS/DSP/Source/TransformFunctions/arm_cfft_radix4_f32.c ****          j++;
 1616              		.loc 1 915 11 is_stmt 0 view .LVU727
 1617 02f8 DDF80080 		ldr	r8, [sp]
 1618 02fc 0199     		ldr	r1, [sp, #4]
 1619              		.loc 1 915 10 is_stmt 1 view .LVU728
 1620              		.loc 1 915 11 is_stmt 0 view .LVU729
 1621 02fe 0131     		adds	r1, r1, #1
 1622              	.LVL304:
 916:Drivers/CMSIS/DSP/Source/TransformFunctions/arm_cfft_radix4_f32.c ****       } while (j <= (n2 - 1U));
 1623              		.loc 1 916 18 is_stmt 1 view .LVU730
 1624              		.loc 1 916 25 is_stmt 0 view .LVU731
 1625 0300 0EF1FF33 		add	r3, lr, #-1
 1626              	.LVL305:
 1627              		.loc 1 916 18 view .LVU732
 1628 0304 8B42     		cmp	r3, r1
 1629 0306 BFF44EAF 		bcs	.L13
 917:Drivers/CMSIS/DSP/Source/TransformFunctions/arm_cfft_radix4_f32.c ****       twidCoefModifier <<= 2U;
 1630              		.loc 1 917 24 view .LVU733
 1631 030a 029D     		ldr	r5, [sp, #8]
 1632 030c 049A     		ldr	r2, [sp, #16]
 1633              		.loc 1 917 7 is_stmt 1 view .LVU734
 1634              		.loc 1 917 24 is_stmt 0 view .LVU735
 1635 030e AB00     		lsls	r3, r5, #2
 1636 0310 9DB2     		uxth	r5, r3
 1637              	.LVL306:
 783:Drivers/CMSIS/DSP/Source/TransformFunctions/arm_cfft_radix4_f32.c ****    {
 1638              		.loc 1 783 37 is_stmt 1 discriminator 2 view .LVU736
 1639 0312 9208     		lsrs	r2, r2, #2
 1640              	.LVL307:
ARM GAS  /var/folders/n6/c271nzx11xl4r4_m7sqjlt0m0000gn/T//ccHq3Xre.s 			page 46


 787:Drivers/CMSIS/DSP/Source/TransformFunctions/arm_cfft_radix4_f32.c ****       ia1 = 0U;
 1641              		.loc 1 787 10 is_stmt 0 view .LVU737
 1642 0314 F146     		mov	r9, lr
 1643              	.LVL308:
 1644              	.L11:
 783:Drivers/CMSIS/DSP/Source/TransformFunctions/arm_cfft_radix4_f32.c ****    {
 1645              		.loc 1 783 29 is_stmt 1 discriminator 1 view .LVU738
 1646 0316 042A     		cmp	r2, #4
 1647 0318 3FF63EAF 		bhi	.L14
 783:Drivers/CMSIS/DSP/Source/TransformFunctions/arm_cfft_radix4_f32.c ****    {
 1648              		.loc 1 783 29 is_stmt 0 discriminator 1 view .LVU739
 1649 031c 059B     		ldr	r3, [sp, #20]
 1650              	.LVL309:
 1651              	.L15:
 918:Drivers/CMSIS/DSP/Source/TransformFunctions/arm_cfft_radix4_f32.c ****    }
 919:Drivers/CMSIS/DSP/Source/TransformFunctions/arm_cfft_radix4_f32.c ****    /*  Initializations of last stage */
 920:Drivers/CMSIS/DSP/Source/TransformFunctions/arm_cfft_radix4_f32.c **** 
 921:Drivers/CMSIS/DSP/Source/TransformFunctions/arm_cfft_radix4_f32.c ****    j = fftLen >> 2;
 922:Drivers/CMSIS/DSP/Source/TransformFunctions/arm_cfft_radix4_f32.c ****    ptr1 = &pSrc[0];
 923:Drivers/CMSIS/DSP/Source/TransformFunctions/arm_cfft_radix4_f32.c **** 
 924:Drivers/CMSIS/DSP/Source/TransformFunctions/arm_cfft_radix4_f32.c ****    /*  Calculations of last stage */
 925:Drivers/CMSIS/DSP/Source/TransformFunctions/arm_cfft_radix4_f32.c ****    do
 1652              		.loc 1 925 4 is_stmt 1 view .LVU740
 926:Drivers/CMSIS/DSP/Source/TransformFunctions/arm_cfft_radix4_f32.c ****    {
 927:Drivers/CMSIS/DSP/Source/TransformFunctions/arm_cfft_radix4_f32.c ****       xaIn = ptr1[0];
 1653              		.loc 1 927 7 view .LVU741
 1654              		.loc 1 927 12 is_stmt 0 view .LVU742
 1655 031e D0ED006A 		vldr.32	s13, [r0]
 1656              	.LVL310:
 928:Drivers/CMSIS/DSP/Source/TransformFunctions/arm_cfft_radix4_f32.c ****       yaIn = ptr1[1];
 1657              		.loc 1 928 7 is_stmt 1 view .LVU743
 1658              		.loc 1 928 12 is_stmt 0 view .LVU744
 1659 0322 D0ED017A 		vldr.32	s15, [r0, #4]
 1660              	.LVL311:
 929:Drivers/CMSIS/DSP/Source/TransformFunctions/arm_cfft_radix4_f32.c ****       xbIn = ptr1[2];
 1661              		.loc 1 929 7 is_stmt 1 view .LVU745
 1662              		.loc 1 929 12 is_stmt 0 view .LVU746
 1663 0326 90ED025A 		vldr.32	s10, [r0, #8]
 1664              	.LVL312:
 930:Drivers/CMSIS/DSP/Source/TransformFunctions/arm_cfft_radix4_f32.c ****       ybIn = ptr1[3];
 1665              		.loc 1 930 7 is_stmt 1 view .LVU747
 1666              		.loc 1 930 12 is_stmt 0 view .LVU748
 1667 032a D0ED034A 		vldr.32	s9, [r0, #12]
 1668              	.LVL313:
 931:Drivers/CMSIS/DSP/Source/TransformFunctions/arm_cfft_radix4_f32.c ****       xcIn = ptr1[4];
 1669              		.loc 1 931 7 is_stmt 1 view .LVU749
 1670              		.loc 1 931 12 is_stmt 0 view .LVU750
 1671 032e 90ED046A 		vldr.32	s12, [r0, #16]
 1672              	.LVL314:
 932:Drivers/CMSIS/DSP/Source/TransformFunctions/arm_cfft_radix4_f32.c ****       ycIn = ptr1[5];
 1673              		.loc 1 932 7 is_stmt 1 view .LVU751
 1674              		.loc 1 932 12 is_stmt 0 view .LVU752
 1675 0332 90ED054A 		vldr.32	s8, [r0, #20]
 1676              	.LVL315:
 933:Drivers/CMSIS/DSP/Source/TransformFunctions/arm_cfft_radix4_f32.c ****       xdIn = ptr1[6];
 1677              		.loc 1 933 7 is_stmt 1 view .LVU753
 1678              		.loc 1 933 12 is_stmt 0 view .LVU754
ARM GAS  /var/folders/n6/c271nzx11xl4r4_m7sqjlt0m0000gn/T//ccHq3Xre.s 			page 47


 1679 0336 D0ED062A 		vldr.32	s5, [r0, #24]
 1680              	.LVL316:
 934:Drivers/CMSIS/DSP/Source/TransformFunctions/arm_cfft_radix4_f32.c ****       ydIn = ptr1[7];
 1681              		.loc 1 934 7 is_stmt 1 view .LVU755
 1682              		.loc 1 934 12 is_stmt 0 view .LVU756
 1683 033a 90ED073A 		vldr.32	s6, [r0, #28]
 1684              	.LVL317:
 935:Drivers/CMSIS/DSP/Source/TransformFunctions/arm_cfft_radix4_f32.c **** 
 936:Drivers/CMSIS/DSP/Source/TransformFunctions/arm_cfft_radix4_f32.c ****       /*  Butterfly implementation */
 937:Drivers/CMSIS/DSP/Source/TransformFunctions/arm_cfft_radix4_f32.c ****       /* xa + xc */
 938:Drivers/CMSIS/DSP/Source/TransformFunctions/arm_cfft_radix4_f32.c ****       Xaplusc = xaIn + xcIn;
 1685              		.loc 1 938 7 is_stmt 1 view .LVU757
 1686              		.loc 1 938 15 is_stmt 0 view .LVU758
 1687 033e 76EE865A 		vadd.f32	s11, s13, s12
 1688              	.LVL318:
 939:Drivers/CMSIS/DSP/Source/TransformFunctions/arm_cfft_radix4_f32.c **** 
 940:Drivers/CMSIS/DSP/Source/TransformFunctions/arm_cfft_radix4_f32.c ****       /* xa - xc */
 941:Drivers/CMSIS/DSP/Source/TransformFunctions/arm_cfft_radix4_f32.c ****       Xaminusc = xaIn - xcIn;
 1689              		.loc 1 941 7 is_stmt 1 view .LVU759
 1690              		.loc 1 941 16 is_stmt 0 view .LVU760
 1691 0342 76EEC66A 		vsub.f32	s13, s13, s12
 1692              	.LVL319:
 942:Drivers/CMSIS/DSP/Source/TransformFunctions/arm_cfft_radix4_f32.c **** 
 943:Drivers/CMSIS/DSP/Source/TransformFunctions/arm_cfft_radix4_f32.c ****       /* ya + yc */
 944:Drivers/CMSIS/DSP/Source/TransformFunctions/arm_cfft_radix4_f32.c ****       Yaplusc = yaIn + ycIn;
 1693              		.loc 1 944 7 is_stmt 1 view .LVU761
 1694              		.loc 1 944 15 is_stmt 0 view .LVU762
 1695 0346 37EE846A 		vadd.f32	s12, s15, s8
 1696              	.LVL320:
 945:Drivers/CMSIS/DSP/Source/TransformFunctions/arm_cfft_radix4_f32.c **** 
 946:Drivers/CMSIS/DSP/Source/TransformFunctions/arm_cfft_radix4_f32.c ****       /* ya - yc */
 947:Drivers/CMSIS/DSP/Source/TransformFunctions/arm_cfft_radix4_f32.c ****       Yaminusc = yaIn - ycIn;
 1697              		.loc 1 947 7 is_stmt 1 view .LVU763
 1698              		.loc 1 947 16 is_stmt 0 view .LVU764
 1699 034a 77EEC47A 		vsub.f32	s15, s15, s8
 1700              	.LVL321:
 948:Drivers/CMSIS/DSP/Source/TransformFunctions/arm_cfft_radix4_f32.c **** 
 949:Drivers/CMSIS/DSP/Source/TransformFunctions/arm_cfft_radix4_f32.c ****       /* xb + xd */
 950:Drivers/CMSIS/DSP/Source/TransformFunctions/arm_cfft_radix4_f32.c ****       Xbplusd = xbIn + xdIn;
 1701              		.loc 1 950 7 is_stmt 1 view .LVU765
 1702              		.loc 1 950 15 is_stmt 0 view .LVU766
 1703 034e 75EE223A 		vadd.f32	s7, s10, s5
 1704              	.LVL322:
 951:Drivers/CMSIS/DSP/Source/TransformFunctions/arm_cfft_radix4_f32.c **** 
 952:Drivers/CMSIS/DSP/Source/TransformFunctions/arm_cfft_radix4_f32.c ****       /* yb + yd */
 953:Drivers/CMSIS/DSP/Source/TransformFunctions/arm_cfft_radix4_f32.c ****       Ybplusd = ybIn + ydIn;
 1705              		.loc 1 953 7 is_stmt 1 view .LVU767
 1706              		.loc 1 953 15 is_stmt 0 view .LVU768
 1707 0352 34EE834A 		vadd.f32	s8, s9, s6
 1708              	.LVL323:
 954:Drivers/CMSIS/DSP/Source/TransformFunctions/arm_cfft_radix4_f32.c **** 
 955:Drivers/CMSIS/DSP/Source/TransformFunctions/arm_cfft_radix4_f32.c ****       /* (xb-xd) */
 956:Drivers/CMSIS/DSP/Source/TransformFunctions/arm_cfft_radix4_f32.c ****       Xbminusd = xbIn - xdIn;
 1709              		.loc 1 956 7 is_stmt 1 view .LVU769
 1710              		.loc 1 956 16 is_stmt 0 view .LVU770
 1711 0356 35EE625A 		vsub.f32	s10, s10, s5
 1712              	.LVL324:
ARM GAS  /var/folders/n6/c271nzx11xl4r4_m7sqjlt0m0000gn/T//ccHq3Xre.s 			page 48


 957:Drivers/CMSIS/DSP/Source/TransformFunctions/arm_cfft_radix4_f32.c **** 
 958:Drivers/CMSIS/DSP/Source/TransformFunctions/arm_cfft_radix4_f32.c ****       /* (yb-yd) */
 959:Drivers/CMSIS/DSP/Source/TransformFunctions/arm_cfft_radix4_f32.c ****       Ybminusd = ybIn - ydIn;
 1713              		.loc 1 959 7 is_stmt 1 view .LVU771
 1714              		.loc 1 959 16 is_stmt 0 view .LVU772
 1715 035a 74EEC34A 		vsub.f32	s9, s9, s6
 1716              	.LVL325:
 960:Drivers/CMSIS/DSP/Source/TransformFunctions/arm_cfft_radix4_f32.c **** 
 961:Drivers/CMSIS/DSP/Source/TransformFunctions/arm_cfft_radix4_f32.c ****       /* xa' = (xa+xb+xc+xd) * onebyfftLen */
 962:Drivers/CMSIS/DSP/Source/TransformFunctions/arm_cfft_radix4_f32.c ****       a0 = (Xaplusc + Xbplusd);
 1717              		.loc 1 962 7 is_stmt 1 view .LVU773
 1718              		.loc 1 962 10 is_stmt 0 view .LVU774
 1719 035e 75EEA32A 		vadd.f32	s5, s11, s7
 1720              	.LVL326:
 963:Drivers/CMSIS/DSP/Source/TransformFunctions/arm_cfft_radix4_f32.c ****       /* ya' = (ya+yb+yc+yd) * onebyfftLen */
 964:Drivers/CMSIS/DSP/Source/TransformFunctions/arm_cfft_radix4_f32.c ****       a1 = (Yaplusc + Ybplusd);
 1721              		.loc 1 964 7 is_stmt 1 view .LVU775
 1722              		.loc 1 964 10 is_stmt 0 view .LVU776
 1723 0362 36EE043A 		vadd.f32	s6, s12, s8
 1724              	.LVL327:
 965:Drivers/CMSIS/DSP/Source/TransformFunctions/arm_cfft_radix4_f32.c ****       /* xc' = (xa-xb+xc-xd) * onebyfftLen */
 966:Drivers/CMSIS/DSP/Source/TransformFunctions/arm_cfft_radix4_f32.c ****       a2 = (Xaplusc - Xbplusd);
 1725              		.loc 1 966 7 is_stmt 1 view .LVU777
 1726              		.loc 1 966 10 is_stmt 0 view .LVU778
 1727 0366 75EEE35A 		vsub.f32	s11, s11, s7
 1728              	.LVL328:
 967:Drivers/CMSIS/DSP/Source/TransformFunctions/arm_cfft_radix4_f32.c ****       /* yc' = (ya-yb+yc-yd) * onebyfftLen  */
 968:Drivers/CMSIS/DSP/Source/TransformFunctions/arm_cfft_radix4_f32.c ****       a3 = (Yaplusc - Ybplusd);
 1729              		.loc 1 968 7 is_stmt 1 view .LVU779
 1730              		.loc 1 968 10 is_stmt 0 view .LVU780
 1731 036a 36EE446A 		vsub.f32	s12, s12, s8
 1732              	.LVL329:
 969:Drivers/CMSIS/DSP/Source/TransformFunctions/arm_cfft_radix4_f32.c ****       /* xb' = (xa-yb-xc+yd) * onebyfftLen */
 970:Drivers/CMSIS/DSP/Source/TransformFunctions/arm_cfft_radix4_f32.c ****       a4 = (Xaminusc - Ybminusd);
 1733              		.loc 1 970 7 is_stmt 1 view .LVU781
 1734              		.loc 1 970 10 is_stmt 0 view .LVU782
 1735 036e 76EEE43A 		vsub.f32	s7, s13, s9
 1736              	.LVL330:
 971:Drivers/CMSIS/DSP/Source/TransformFunctions/arm_cfft_radix4_f32.c ****       /* yb' = (ya+xb-yc-xd) * onebyfftLen */
 972:Drivers/CMSIS/DSP/Source/TransformFunctions/arm_cfft_radix4_f32.c ****       a5 = (Yaminusc + Xbminusd);
 1737              		.loc 1 972 7 is_stmt 1 view .LVU783
 1738              		.loc 1 972 10 is_stmt 0 view .LVU784
 1739 0372 37EE854A 		vadd.f32	s8, s15, s10
 1740              	.LVL331:
 973:Drivers/CMSIS/DSP/Source/TransformFunctions/arm_cfft_radix4_f32.c ****       /* xd' = (xa-yb-xc+yd) * onebyfftLen */
 974:Drivers/CMSIS/DSP/Source/TransformFunctions/arm_cfft_radix4_f32.c ****       a6 = (Xaminusc + Ybminusd);
 1741              		.loc 1 974 7 is_stmt 1 view .LVU785
 1742              		.loc 1 974 10 is_stmt 0 view .LVU786
 1743 0376 76EEA46A 		vadd.f32	s13, s13, s9
 1744              	.LVL332:
 975:Drivers/CMSIS/DSP/Source/TransformFunctions/arm_cfft_radix4_f32.c ****       /* yd' = (ya-xb-yc+xd) * onebyfftLen */
 976:Drivers/CMSIS/DSP/Source/TransformFunctions/arm_cfft_radix4_f32.c ****       a7 = (Yaminusc - Xbminusd);
 1745              		.loc 1 976 7 is_stmt 1 view .LVU787
 1746              		.loc 1 976 10 is_stmt 0 view .LVU788
 1747 037a 77EEC57A 		vsub.f32	s15, s15, s10
 1748              	.LVL333:
 977:Drivers/CMSIS/DSP/Source/TransformFunctions/arm_cfft_radix4_f32.c **** 
ARM GAS  /var/folders/n6/c271nzx11xl4r4_m7sqjlt0m0000gn/T//ccHq3Xre.s 			page 49


 978:Drivers/CMSIS/DSP/Source/TransformFunctions/arm_cfft_radix4_f32.c ****       p0 = a0 * onebyfftLen;
 1749              		.loc 1 978 7 is_stmt 1 view .LVU789
 1750              		.loc 1 978 10 is_stmt 0 view .LVU790
 1751 037e 62EE872A 		vmul.f32	s5, s5, s14
 1752              	.LVL334:
 979:Drivers/CMSIS/DSP/Source/TransformFunctions/arm_cfft_radix4_f32.c ****       p1 = a1 * onebyfftLen;
 1753              		.loc 1 979 7 is_stmt 1 view .LVU791
 1754              		.loc 1 979 10 is_stmt 0 view .LVU792
 1755 0382 23EE073A 		vmul.f32	s6, s6, s14
 1756              	.LVL335:
 980:Drivers/CMSIS/DSP/Source/TransformFunctions/arm_cfft_radix4_f32.c ****       p2 = a2 * onebyfftLen;
 1757              		.loc 1 980 7 is_stmt 1 view .LVU793
 1758              		.loc 1 980 10 is_stmt 0 view .LVU794
 1759 0386 65EE875A 		vmul.f32	s11, s11, s14
 1760              	.LVL336:
 981:Drivers/CMSIS/DSP/Source/TransformFunctions/arm_cfft_radix4_f32.c ****       p3 = a3 * onebyfftLen;
 1761              		.loc 1 981 7 is_stmt 1 view .LVU795
 1762              		.loc 1 981 10 is_stmt 0 view .LVU796
 1763 038a 26EE076A 		vmul.f32	s12, s12, s14
 1764              	.LVL337:
 982:Drivers/CMSIS/DSP/Source/TransformFunctions/arm_cfft_radix4_f32.c ****       p4 = a4 * onebyfftLen;
 1765              		.loc 1 982 7 is_stmt 1 view .LVU797
 1766              		.loc 1 982 10 is_stmt 0 view .LVU798
 1767 038e 63EE874A 		vmul.f32	s9, s7, s14
 1768              	.LVL338:
 983:Drivers/CMSIS/DSP/Source/TransformFunctions/arm_cfft_radix4_f32.c ****       p5 = a5 * onebyfftLen;
 1769              		.loc 1 983 7 is_stmt 1 view .LVU799
 1770              		.loc 1 983 10 is_stmt 0 view .LVU800
 1771 0392 24EE075A 		vmul.f32	s10, s8, s14
 1772              	.LVL339:
 984:Drivers/CMSIS/DSP/Source/TransformFunctions/arm_cfft_radix4_f32.c ****       p6 = a6 * onebyfftLen;
 1773              		.loc 1 984 7 is_stmt 1 view .LVU801
 1774              		.loc 1 984 10 is_stmt 0 view .LVU802
 1775 0396 66EE876A 		vmul.f32	s13, s13, s14
 1776              	.LVL340:
 985:Drivers/CMSIS/DSP/Source/TransformFunctions/arm_cfft_radix4_f32.c ****       p7 = a7 * onebyfftLen;
 1777              		.loc 1 985 7 is_stmt 1 view .LVU803
 1778              		.loc 1 985 10 is_stmt 0 view .LVU804
 1779 039a 67EE877A 		vmul.f32	s15, s15, s14
 1780              	.LVL341:
 986:Drivers/CMSIS/DSP/Source/TransformFunctions/arm_cfft_radix4_f32.c **** 
 987:Drivers/CMSIS/DSP/Source/TransformFunctions/arm_cfft_radix4_f32.c ****       /* xa' = (xa+xb+xc+xd) * onebyfftLen */
 988:Drivers/CMSIS/DSP/Source/TransformFunctions/arm_cfft_radix4_f32.c ****       ptr1[0] = p0;
 1781              		.loc 1 988 7 is_stmt 1 view .LVU805
 1782              		.loc 1 988 15 is_stmt 0 view .LVU806
 1783 039e C0ED002A 		vstr.32	s5, [r0]
 1784              	.LVL342:
 989:Drivers/CMSIS/DSP/Source/TransformFunctions/arm_cfft_radix4_f32.c ****       /* ya' = (ya+yb+yc+yd) * onebyfftLen */
 990:Drivers/CMSIS/DSP/Source/TransformFunctions/arm_cfft_radix4_f32.c ****       ptr1[1] = p1;
 1785              		.loc 1 990 7 is_stmt 1 view .LVU807
 1786              		.loc 1 990 15 is_stmt 0 view .LVU808
 1787 03a2 80ED013A 		vstr.32	s6, [r0, #4]
 1788              	.LVL343:
 991:Drivers/CMSIS/DSP/Source/TransformFunctions/arm_cfft_radix4_f32.c ****       /* xc' = (xa-xb+xc-xd) * onebyfftLen */
 992:Drivers/CMSIS/DSP/Source/TransformFunctions/arm_cfft_radix4_f32.c ****       ptr1[2] = p2;
 1789              		.loc 1 992 7 is_stmt 1 view .LVU809
 1790              		.loc 1 992 15 is_stmt 0 view .LVU810
ARM GAS  /var/folders/n6/c271nzx11xl4r4_m7sqjlt0m0000gn/T//ccHq3Xre.s 			page 50


 1791 03a6 C0ED025A 		vstr.32	s11, [r0, #8]
 1792              	.LVL344:
 993:Drivers/CMSIS/DSP/Source/TransformFunctions/arm_cfft_radix4_f32.c ****       /* yc' = (ya-yb+yc-yd) * onebyfftLen  */
 994:Drivers/CMSIS/DSP/Source/TransformFunctions/arm_cfft_radix4_f32.c ****       ptr1[3] = p3;
 1793              		.loc 1 994 7 is_stmt 1 view .LVU811
 1794              		.loc 1 994 15 is_stmt 0 view .LVU812
 1795 03aa 80ED036A 		vstr.32	s12, [r0, #12]
 1796              	.LVL345:
 995:Drivers/CMSIS/DSP/Source/TransformFunctions/arm_cfft_radix4_f32.c ****       /* xb' = (xa-yb-xc+yd) * onebyfftLen */
 996:Drivers/CMSIS/DSP/Source/TransformFunctions/arm_cfft_radix4_f32.c ****       ptr1[4] = p4;
 1797              		.loc 1 996 7 is_stmt 1 view .LVU813
 1798              		.loc 1 996 15 is_stmt 0 view .LVU814
 1799 03ae C0ED044A 		vstr.32	s9, [r0, #16]
 1800              	.LVL346:
 997:Drivers/CMSIS/DSP/Source/TransformFunctions/arm_cfft_radix4_f32.c ****       /* yb' = (ya+xb-yc-xd) * onebyfftLen */
 998:Drivers/CMSIS/DSP/Source/TransformFunctions/arm_cfft_radix4_f32.c ****       ptr1[5] = p5;
 1801              		.loc 1 998 7 is_stmt 1 view .LVU815
 1802              		.loc 1 998 15 is_stmt 0 view .LVU816
 1803 03b2 80ED055A 		vstr.32	s10, [r0, #20]
 1804              	.LVL347:
 999:Drivers/CMSIS/DSP/Source/TransformFunctions/arm_cfft_radix4_f32.c ****       /* xd' = (xa-yb-xc+yd) * onebyfftLen */
1000:Drivers/CMSIS/DSP/Source/TransformFunctions/arm_cfft_radix4_f32.c ****       ptr1[6] = p6;
 1805              		.loc 1 1000 7 is_stmt 1 view .LVU817
 1806              		.loc 1 1000 15 is_stmt 0 view .LVU818
 1807 03b6 C0ED066A 		vstr.32	s13, [r0, #24]
 1808              	.LVL348:
1001:Drivers/CMSIS/DSP/Source/TransformFunctions/arm_cfft_radix4_f32.c ****       /* yd' = (ya-xb-yc+xd) * onebyfftLen */
1002:Drivers/CMSIS/DSP/Source/TransformFunctions/arm_cfft_radix4_f32.c ****       ptr1[7] = p7;
 1809              		.loc 1 1002 7 is_stmt 1 view .LVU819
 1810              		.loc 1 1002 15 is_stmt 0 view .LVU820
 1811 03ba C0ED077A 		vstr.32	s15, [r0, #28]
 1812              	.LVL349:
1003:Drivers/CMSIS/DSP/Source/TransformFunctions/arm_cfft_radix4_f32.c **** 
1004:Drivers/CMSIS/DSP/Source/TransformFunctions/arm_cfft_radix4_f32.c ****       /* increment source pointer by 8 for next calculations */
1005:Drivers/CMSIS/DSP/Source/TransformFunctions/arm_cfft_radix4_f32.c ****       ptr1 = ptr1 + 8U;
 1813              		.loc 1 1005 7 is_stmt 1 view .LVU821
 1814              		.loc 1 1005 12 is_stmt 0 view .LVU822
 1815 03be 2030     		adds	r0, r0, #32
 1816              	.LVL350:
1006:Drivers/CMSIS/DSP/Source/TransformFunctions/arm_cfft_radix4_f32.c **** 
1007:Drivers/CMSIS/DSP/Source/TransformFunctions/arm_cfft_radix4_f32.c ****    } while (--j);
 1817              		.loc 1 1007 13 is_stmt 1 discriminator 1 view .LVU823
 1818              		.loc 1 1007 13 is_stmt 0 discriminator 1 view .LVU824
 1819 03c0 013B     		subs	r3, r3, #1
 1820              	.LVL351:
 1821              		.loc 1 1007 13 discriminator 1 view .LVU825
 1822 03c2 ACD1     		bne	.L15
1008:Drivers/CMSIS/DSP/Source/TransformFunctions/arm_cfft_radix4_f32.c **** 
1009:Drivers/CMSIS/DSP/Source/TransformFunctions/arm_cfft_radix4_f32.c **** #else
1010:Drivers/CMSIS/DSP/Source/TransformFunctions/arm_cfft_radix4_f32.c **** 
1011:Drivers/CMSIS/DSP/Source/TransformFunctions/arm_cfft_radix4_f32.c ****    float32_t t1, t2, r1, r2, s1, s2;
1012:Drivers/CMSIS/DSP/Source/TransformFunctions/arm_cfft_radix4_f32.c **** 
1013:Drivers/CMSIS/DSP/Source/TransformFunctions/arm_cfft_radix4_f32.c ****    /* Run the below code for Cortex-M0 */
1014:Drivers/CMSIS/DSP/Source/TransformFunctions/arm_cfft_radix4_f32.c **** 
1015:Drivers/CMSIS/DSP/Source/TransformFunctions/arm_cfft_radix4_f32.c ****    /*  Initializations for the first stage */
1016:Drivers/CMSIS/DSP/Source/TransformFunctions/arm_cfft_radix4_f32.c ****    n2 = fftLen;
1017:Drivers/CMSIS/DSP/Source/TransformFunctions/arm_cfft_radix4_f32.c ****    n1 = n2;
ARM GAS  /var/folders/n6/c271nzx11xl4r4_m7sqjlt0m0000gn/T//ccHq3Xre.s 			page 51


1018:Drivers/CMSIS/DSP/Source/TransformFunctions/arm_cfft_radix4_f32.c **** 
1019:Drivers/CMSIS/DSP/Source/TransformFunctions/arm_cfft_radix4_f32.c ****    /*  Calculation of first stage */
1020:Drivers/CMSIS/DSP/Source/TransformFunctions/arm_cfft_radix4_f32.c ****    for (k = fftLen; k > 4U; k >>= 2U)
1021:Drivers/CMSIS/DSP/Source/TransformFunctions/arm_cfft_radix4_f32.c ****    {
1022:Drivers/CMSIS/DSP/Source/TransformFunctions/arm_cfft_radix4_f32.c ****       /*  Initializations for the first stage */
1023:Drivers/CMSIS/DSP/Source/TransformFunctions/arm_cfft_radix4_f32.c ****       n1 = n2;
1024:Drivers/CMSIS/DSP/Source/TransformFunctions/arm_cfft_radix4_f32.c ****       n2 >>= 2U;
1025:Drivers/CMSIS/DSP/Source/TransformFunctions/arm_cfft_radix4_f32.c ****       ia1 = 0U;
1026:Drivers/CMSIS/DSP/Source/TransformFunctions/arm_cfft_radix4_f32.c **** 
1027:Drivers/CMSIS/DSP/Source/TransformFunctions/arm_cfft_radix4_f32.c ****       /*  Calculation of first stage */
1028:Drivers/CMSIS/DSP/Source/TransformFunctions/arm_cfft_radix4_f32.c ****       j = 0;
1029:Drivers/CMSIS/DSP/Source/TransformFunctions/arm_cfft_radix4_f32.c ****       do
1030:Drivers/CMSIS/DSP/Source/TransformFunctions/arm_cfft_radix4_f32.c ****       {
1031:Drivers/CMSIS/DSP/Source/TransformFunctions/arm_cfft_radix4_f32.c ****          /*  index calculation for the coefficients */
1032:Drivers/CMSIS/DSP/Source/TransformFunctions/arm_cfft_radix4_f32.c ****          ia2 = ia1 + ia1;
1033:Drivers/CMSIS/DSP/Source/TransformFunctions/arm_cfft_radix4_f32.c ****          ia3 = ia2 + ia1;
1034:Drivers/CMSIS/DSP/Source/TransformFunctions/arm_cfft_radix4_f32.c ****          co1 = pCoef[ia1 * 2U];
1035:Drivers/CMSIS/DSP/Source/TransformFunctions/arm_cfft_radix4_f32.c ****          si1 = pCoef[(ia1 * 2U) + 1U];
1036:Drivers/CMSIS/DSP/Source/TransformFunctions/arm_cfft_radix4_f32.c ****          co2 = pCoef[ia2 * 2U];
1037:Drivers/CMSIS/DSP/Source/TransformFunctions/arm_cfft_radix4_f32.c ****          si2 = pCoef[(ia2 * 2U) + 1U];
1038:Drivers/CMSIS/DSP/Source/TransformFunctions/arm_cfft_radix4_f32.c ****          co3 = pCoef[ia3 * 2U];
1039:Drivers/CMSIS/DSP/Source/TransformFunctions/arm_cfft_radix4_f32.c ****          si3 = pCoef[(ia3 * 2U) + 1U];
1040:Drivers/CMSIS/DSP/Source/TransformFunctions/arm_cfft_radix4_f32.c **** 
1041:Drivers/CMSIS/DSP/Source/TransformFunctions/arm_cfft_radix4_f32.c ****          /*  Twiddle coefficients index modifier */
1042:Drivers/CMSIS/DSP/Source/TransformFunctions/arm_cfft_radix4_f32.c ****          ia1 = ia1 + twidCoefModifier;
1043:Drivers/CMSIS/DSP/Source/TransformFunctions/arm_cfft_radix4_f32.c **** 
1044:Drivers/CMSIS/DSP/Source/TransformFunctions/arm_cfft_radix4_f32.c ****          i0 = j;
1045:Drivers/CMSIS/DSP/Source/TransformFunctions/arm_cfft_radix4_f32.c ****          do
1046:Drivers/CMSIS/DSP/Source/TransformFunctions/arm_cfft_radix4_f32.c ****          {
1047:Drivers/CMSIS/DSP/Source/TransformFunctions/arm_cfft_radix4_f32.c ****             /*  index calculation for the input as, */
1048:Drivers/CMSIS/DSP/Source/TransformFunctions/arm_cfft_radix4_f32.c ****             /*  pSrc[i0 + 0], pSrc[i0 + fftLen/4], pSrc[i0 + fftLen/2], pSrc[i0 + 3fftLen/4] */
1049:Drivers/CMSIS/DSP/Source/TransformFunctions/arm_cfft_radix4_f32.c ****             i1 = i0 + n2;
1050:Drivers/CMSIS/DSP/Source/TransformFunctions/arm_cfft_radix4_f32.c ****             i2 = i1 + n2;
1051:Drivers/CMSIS/DSP/Source/TransformFunctions/arm_cfft_radix4_f32.c ****             i3 = i2 + n2;
1052:Drivers/CMSIS/DSP/Source/TransformFunctions/arm_cfft_radix4_f32.c **** 
1053:Drivers/CMSIS/DSP/Source/TransformFunctions/arm_cfft_radix4_f32.c ****             /* xa + xc */
1054:Drivers/CMSIS/DSP/Source/TransformFunctions/arm_cfft_radix4_f32.c ****             r1 = pSrc[(2U * i0)] + pSrc[(2U * i2)];
1055:Drivers/CMSIS/DSP/Source/TransformFunctions/arm_cfft_radix4_f32.c **** 
1056:Drivers/CMSIS/DSP/Source/TransformFunctions/arm_cfft_radix4_f32.c ****             /* xa - xc */
1057:Drivers/CMSIS/DSP/Source/TransformFunctions/arm_cfft_radix4_f32.c ****             r2 = pSrc[(2U * i0)] - pSrc[(2U * i2)];
1058:Drivers/CMSIS/DSP/Source/TransformFunctions/arm_cfft_radix4_f32.c **** 
1059:Drivers/CMSIS/DSP/Source/TransformFunctions/arm_cfft_radix4_f32.c ****             /* ya + yc */
1060:Drivers/CMSIS/DSP/Source/TransformFunctions/arm_cfft_radix4_f32.c ****             s1 = pSrc[(2U * i0) + 1U] + pSrc[(2U * i2) + 1U];
1061:Drivers/CMSIS/DSP/Source/TransformFunctions/arm_cfft_radix4_f32.c **** 
1062:Drivers/CMSIS/DSP/Source/TransformFunctions/arm_cfft_radix4_f32.c ****             /* ya - yc */
1063:Drivers/CMSIS/DSP/Source/TransformFunctions/arm_cfft_radix4_f32.c ****             s2 = pSrc[(2U * i0) + 1U] - pSrc[(2U * i2) + 1U];
1064:Drivers/CMSIS/DSP/Source/TransformFunctions/arm_cfft_radix4_f32.c **** 
1065:Drivers/CMSIS/DSP/Source/TransformFunctions/arm_cfft_radix4_f32.c ****             /* xb + xd */
1066:Drivers/CMSIS/DSP/Source/TransformFunctions/arm_cfft_radix4_f32.c ****             t1 = pSrc[2U * i1] + pSrc[2U * i3];
1067:Drivers/CMSIS/DSP/Source/TransformFunctions/arm_cfft_radix4_f32.c **** 
1068:Drivers/CMSIS/DSP/Source/TransformFunctions/arm_cfft_radix4_f32.c ****             /* xa' = xa + xb + xc + xd */
1069:Drivers/CMSIS/DSP/Source/TransformFunctions/arm_cfft_radix4_f32.c ****             pSrc[2U * i0] = r1 + t1;
1070:Drivers/CMSIS/DSP/Source/TransformFunctions/arm_cfft_radix4_f32.c **** 
1071:Drivers/CMSIS/DSP/Source/TransformFunctions/arm_cfft_radix4_f32.c ****             /* xa + xc -(xb + xd) */
1072:Drivers/CMSIS/DSP/Source/TransformFunctions/arm_cfft_radix4_f32.c ****             r1 = r1 - t1;
1073:Drivers/CMSIS/DSP/Source/TransformFunctions/arm_cfft_radix4_f32.c **** 
1074:Drivers/CMSIS/DSP/Source/TransformFunctions/arm_cfft_radix4_f32.c ****             /* yb + yd */
ARM GAS  /var/folders/n6/c271nzx11xl4r4_m7sqjlt0m0000gn/T//ccHq3Xre.s 			page 52


1075:Drivers/CMSIS/DSP/Source/TransformFunctions/arm_cfft_radix4_f32.c ****             t2 = pSrc[(2U * i1) + 1U] + pSrc[(2U * i3) + 1U];
1076:Drivers/CMSIS/DSP/Source/TransformFunctions/arm_cfft_radix4_f32.c **** 
1077:Drivers/CMSIS/DSP/Source/TransformFunctions/arm_cfft_radix4_f32.c ****             /* ya' = ya + yb + yc + yd */
1078:Drivers/CMSIS/DSP/Source/TransformFunctions/arm_cfft_radix4_f32.c ****             pSrc[(2U * i0) + 1U] = s1 + t2;
1079:Drivers/CMSIS/DSP/Source/TransformFunctions/arm_cfft_radix4_f32.c **** 
1080:Drivers/CMSIS/DSP/Source/TransformFunctions/arm_cfft_radix4_f32.c ****             /* (ya + yc) - (yb + yd) */
1081:Drivers/CMSIS/DSP/Source/TransformFunctions/arm_cfft_radix4_f32.c ****             s1 = s1 - t2;
1082:Drivers/CMSIS/DSP/Source/TransformFunctions/arm_cfft_radix4_f32.c **** 
1083:Drivers/CMSIS/DSP/Source/TransformFunctions/arm_cfft_radix4_f32.c ****             /* (yb - yd) */
1084:Drivers/CMSIS/DSP/Source/TransformFunctions/arm_cfft_radix4_f32.c ****             t1 = pSrc[(2U * i1) + 1U] - pSrc[(2U * i3) + 1U];
1085:Drivers/CMSIS/DSP/Source/TransformFunctions/arm_cfft_radix4_f32.c **** 
1086:Drivers/CMSIS/DSP/Source/TransformFunctions/arm_cfft_radix4_f32.c ****             /* (xb - xd) */
1087:Drivers/CMSIS/DSP/Source/TransformFunctions/arm_cfft_radix4_f32.c ****             t2 = pSrc[2U * i1] - pSrc[2U * i3];
1088:Drivers/CMSIS/DSP/Source/TransformFunctions/arm_cfft_radix4_f32.c **** 
1089:Drivers/CMSIS/DSP/Source/TransformFunctions/arm_cfft_radix4_f32.c ****             /* xc' = (xa-xb+xc-xd)co2 - (ya-yb+yc-yd)(si2) */
1090:Drivers/CMSIS/DSP/Source/TransformFunctions/arm_cfft_radix4_f32.c ****             pSrc[2U * i1] = (r1 * co2) - (s1 * si2);
1091:Drivers/CMSIS/DSP/Source/TransformFunctions/arm_cfft_radix4_f32.c **** 
1092:Drivers/CMSIS/DSP/Source/TransformFunctions/arm_cfft_radix4_f32.c ****             /* yc' = (ya-yb+yc-yd)co2 + (xa-xb+xc-xd)(si2) */
1093:Drivers/CMSIS/DSP/Source/TransformFunctions/arm_cfft_radix4_f32.c ****             pSrc[(2U * i1) + 1U] = (s1 * co2) + (r1 * si2);
1094:Drivers/CMSIS/DSP/Source/TransformFunctions/arm_cfft_radix4_f32.c **** 
1095:Drivers/CMSIS/DSP/Source/TransformFunctions/arm_cfft_radix4_f32.c ****             /* (xa - xc) - (yb - yd) */
1096:Drivers/CMSIS/DSP/Source/TransformFunctions/arm_cfft_radix4_f32.c ****             r1 = r2 - t1;
1097:Drivers/CMSIS/DSP/Source/TransformFunctions/arm_cfft_radix4_f32.c **** 
1098:Drivers/CMSIS/DSP/Source/TransformFunctions/arm_cfft_radix4_f32.c ****             /* (xa - xc) + (yb - yd) */
1099:Drivers/CMSIS/DSP/Source/TransformFunctions/arm_cfft_radix4_f32.c ****             r2 = r2 + t1;
1100:Drivers/CMSIS/DSP/Source/TransformFunctions/arm_cfft_radix4_f32.c **** 
1101:Drivers/CMSIS/DSP/Source/TransformFunctions/arm_cfft_radix4_f32.c ****             /* (ya - yc) +  (xb - xd) */
1102:Drivers/CMSIS/DSP/Source/TransformFunctions/arm_cfft_radix4_f32.c ****             s1 = s2 + t2;
1103:Drivers/CMSIS/DSP/Source/TransformFunctions/arm_cfft_radix4_f32.c **** 
1104:Drivers/CMSIS/DSP/Source/TransformFunctions/arm_cfft_radix4_f32.c ****             /* (ya - yc) -  (xb - xd) */
1105:Drivers/CMSIS/DSP/Source/TransformFunctions/arm_cfft_radix4_f32.c ****             s2 = s2 - t2;
1106:Drivers/CMSIS/DSP/Source/TransformFunctions/arm_cfft_radix4_f32.c **** 
1107:Drivers/CMSIS/DSP/Source/TransformFunctions/arm_cfft_radix4_f32.c ****             /* xb' = (xa+yb-xc-yd)co1 - (ya-xb-yc+xd)(si1) */
1108:Drivers/CMSIS/DSP/Source/TransformFunctions/arm_cfft_radix4_f32.c ****             pSrc[2U * i2] = (r1 * co1) - (s1 * si1);
1109:Drivers/CMSIS/DSP/Source/TransformFunctions/arm_cfft_radix4_f32.c **** 
1110:Drivers/CMSIS/DSP/Source/TransformFunctions/arm_cfft_radix4_f32.c ****             /* yb' = (ya-xb-yc+xd)co1 + (xa+yb-xc-yd)(si1) */
1111:Drivers/CMSIS/DSP/Source/TransformFunctions/arm_cfft_radix4_f32.c ****             pSrc[(2U * i2) + 1U] = (s1 * co1) + (r1 * si1);
1112:Drivers/CMSIS/DSP/Source/TransformFunctions/arm_cfft_radix4_f32.c **** 
1113:Drivers/CMSIS/DSP/Source/TransformFunctions/arm_cfft_radix4_f32.c ****             /* xd' = (xa-yb-xc+yd)co3 - (ya+xb-yc-xd)(si3) */
1114:Drivers/CMSIS/DSP/Source/TransformFunctions/arm_cfft_radix4_f32.c ****             pSrc[2U * i3] = (r2 * co3) - (s2 * si3);
1115:Drivers/CMSIS/DSP/Source/TransformFunctions/arm_cfft_radix4_f32.c **** 
1116:Drivers/CMSIS/DSP/Source/TransformFunctions/arm_cfft_radix4_f32.c ****             /* yd' = (ya+xb-yc-xd)co3 + (xa-yb-xc+yd)(si3) */
1117:Drivers/CMSIS/DSP/Source/TransformFunctions/arm_cfft_radix4_f32.c ****             pSrc[(2U * i3) + 1U] = (s2 * co3) + (r2 * si3);
1118:Drivers/CMSIS/DSP/Source/TransformFunctions/arm_cfft_radix4_f32.c **** 
1119:Drivers/CMSIS/DSP/Source/TransformFunctions/arm_cfft_radix4_f32.c ****             i0 += n1;
1120:Drivers/CMSIS/DSP/Source/TransformFunctions/arm_cfft_radix4_f32.c ****          } while ( i0 < fftLen);
1121:Drivers/CMSIS/DSP/Source/TransformFunctions/arm_cfft_radix4_f32.c ****          j++;
1122:Drivers/CMSIS/DSP/Source/TransformFunctions/arm_cfft_radix4_f32.c ****       } while (j <= (n2 - 1U));
1123:Drivers/CMSIS/DSP/Source/TransformFunctions/arm_cfft_radix4_f32.c ****       twidCoefModifier <<= 2U;
1124:Drivers/CMSIS/DSP/Source/TransformFunctions/arm_cfft_radix4_f32.c ****    }
1125:Drivers/CMSIS/DSP/Source/TransformFunctions/arm_cfft_radix4_f32.c ****    /*  Initializations of last stage */
1126:Drivers/CMSIS/DSP/Source/TransformFunctions/arm_cfft_radix4_f32.c ****    n1 = n2;
1127:Drivers/CMSIS/DSP/Source/TransformFunctions/arm_cfft_radix4_f32.c ****    n2 >>= 2U;
1128:Drivers/CMSIS/DSP/Source/TransformFunctions/arm_cfft_radix4_f32.c **** 
1129:Drivers/CMSIS/DSP/Source/TransformFunctions/arm_cfft_radix4_f32.c ****    /*  Calculations of last stage */
1130:Drivers/CMSIS/DSP/Source/TransformFunctions/arm_cfft_radix4_f32.c ****    for (i0 = 0U; i0 <= (fftLen - n1); i0 += n1)
1131:Drivers/CMSIS/DSP/Source/TransformFunctions/arm_cfft_radix4_f32.c ****    {
ARM GAS  /var/folders/n6/c271nzx11xl4r4_m7sqjlt0m0000gn/T//ccHq3Xre.s 			page 53


1132:Drivers/CMSIS/DSP/Source/TransformFunctions/arm_cfft_radix4_f32.c ****       /*  index calculation for the input as, */
1133:Drivers/CMSIS/DSP/Source/TransformFunctions/arm_cfft_radix4_f32.c ****       /*  pSrc[i0 + 0], pSrc[i0 + fftLen/4], pSrc[i0 + fftLen/2], pSrc[i0 + 3fftLen/4] */
1134:Drivers/CMSIS/DSP/Source/TransformFunctions/arm_cfft_radix4_f32.c ****       i1 = i0 + n2;
1135:Drivers/CMSIS/DSP/Source/TransformFunctions/arm_cfft_radix4_f32.c ****       i2 = i1 + n2;
1136:Drivers/CMSIS/DSP/Source/TransformFunctions/arm_cfft_radix4_f32.c ****       i3 = i2 + n2;
1137:Drivers/CMSIS/DSP/Source/TransformFunctions/arm_cfft_radix4_f32.c **** 
1138:Drivers/CMSIS/DSP/Source/TransformFunctions/arm_cfft_radix4_f32.c ****       /*  Butterfly implementation */
1139:Drivers/CMSIS/DSP/Source/TransformFunctions/arm_cfft_radix4_f32.c ****       /* xa + xc */
1140:Drivers/CMSIS/DSP/Source/TransformFunctions/arm_cfft_radix4_f32.c ****       r1 = pSrc[2U * i0] + pSrc[2U * i2];
1141:Drivers/CMSIS/DSP/Source/TransformFunctions/arm_cfft_radix4_f32.c **** 
1142:Drivers/CMSIS/DSP/Source/TransformFunctions/arm_cfft_radix4_f32.c ****       /* xa - xc */
1143:Drivers/CMSIS/DSP/Source/TransformFunctions/arm_cfft_radix4_f32.c ****       r2 = pSrc[2U * i0] - pSrc[2U * i2];
1144:Drivers/CMSIS/DSP/Source/TransformFunctions/arm_cfft_radix4_f32.c **** 
1145:Drivers/CMSIS/DSP/Source/TransformFunctions/arm_cfft_radix4_f32.c ****       /* ya + yc */
1146:Drivers/CMSIS/DSP/Source/TransformFunctions/arm_cfft_radix4_f32.c ****       s1 = pSrc[(2U * i0) + 1U] + pSrc[(2U * i2) + 1U];
1147:Drivers/CMSIS/DSP/Source/TransformFunctions/arm_cfft_radix4_f32.c **** 
1148:Drivers/CMSIS/DSP/Source/TransformFunctions/arm_cfft_radix4_f32.c ****       /* ya - yc */
1149:Drivers/CMSIS/DSP/Source/TransformFunctions/arm_cfft_radix4_f32.c ****       s2 = pSrc[(2U * i0) + 1U] - pSrc[(2U * i2) + 1U];
1150:Drivers/CMSIS/DSP/Source/TransformFunctions/arm_cfft_radix4_f32.c **** 
1151:Drivers/CMSIS/DSP/Source/TransformFunctions/arm_cfft_radix4_f32.c ****       /* xc + xd */
1152:Drivers/CMSIS/DSP/Source/TransformFunctions/arm_cfft_radix4_f32.c ****       t1 = pSrc[2U * i1] + pSrc[2U * i3];
1153:Drivers/CMSIS/DSP/Source/TransformFunctions/arm_cfft_radix4_f32.c **** 
1154:Drivers/CMSIS/DSP/Source/TransformFunctions/arm_cfft_radix4_f32.c ****       /* xa' = xa + xb + xc + xd */
1155:Drivers/CMSIS/DSP/Source/TransformFunctions/arm_cfft_radix4_f32.c ****       pSrc[2U * i0] = (r1 + t1) * onebyfftLen;
1156:Drivers/CMSIS/DSP/Source/TransformFunctions/arm_cfft_radix4_f32.c **** 
1157:Drivers/CMSIS/DSP/Source/TransformFunctions/arm_cfft_radix4_f32.c ****       /* (xa + xb) - (xc + xd) */
1158:Drivers/CMSIS/DSP/Source/TransformFunctions/arm_cfft_radix4_f32.c ****       r1 = r1 - t1;
1159:Drivers/CMSIS/DSP/Source/TransformFunctions/arm_cfft_radix4_f32.c **** 
1160:Drivers/CMSIS/DSP/Source/TransformFunctions/arm_cfft_radix4_f32.c ****       /* yb + yd */
1161:Drivers/CMSIS/DSP/Source/TransformFunctions/arm_cfft_radix4_f32.c ****       t2 = pSrc[(2U * i1) + 1U] + pSrc[(2U * i3) + 1U];
1162:Drivers/CMSIS/DSP/Source/TransformFunctions/arm_cfft_radix4_f32.c **** 
1163:Drivers/CMSIS/DSP/Source/TransformFunctions/arm_cfft_radix4_f32.c ****       /* ya' = ya + yb + yc + yd */
1164:Drivers/CMSIS/DSP/Source/TransformFunctions/arm_cfft_radix4_f32.c ****       pSrc[(2U * i0) + 1U] = (s1 + t2) * onebyfftLen;
1165:Drivers/CMSIS/DSP/Source/TransformFunctions/arm_cfft_radix4_f32.c **** 
1166:Drivers/CMSIS/DSP/Source/TransformFunctions/arm_cfft_radix4_f32.c ****       /* (ya + yc) - (yb + yd) */
1167:Drivers/CMSIS/DSP/Source/TransformFunctions/arm_cfft_radix4_f32.c ****       s1 = s1 - t2;
1168:Drivers/CMSIS/DSP/Source/TransformFunctions/arm_cfft_radix4_f32.c **** 
1169:Drivers/CMSIS/DSP/Source/TransformFunctions/arm_cfft_radix4_f32.c ****       /* (yb-yd) */
1170:Drivers/CMSIS/DSP/Source/TransformFunctions/arm_cfft_radix4_f32.c ****       t1 = pSrc[(2U * i1) + 1U] - pSrc[(2U * i3) + 1U];
1171:Drivers/CMSIS/DSP/Source/TransformFunctions/arm_cfft_radix4_f32.c **** 
1172:Drivers/CMSIS/DSP/Source/TransformFunctions/arm_cfft_radix4_f32.c ****       /* (xb-xd) */
1173:Drivers/CMSIS/DSP/Source/TransformFunctions/arm_cfft_radix4_f32.c ****       t2 = pSrc[2U * i1] - pSrc[2U * i3];
1174:Drivers/CMSIS/DSP/Source/TransformFunctions/arm_cfft_radix4_f32.c **** 
1175:Drivers/CMSIS/DSP/Source/TransformFunctions/arm_cfft_radix4_f32.c ****       /* xc' = (xa-xb+xc-xd)co2 - (ya-yb+yc-yd)(si2) */
1176:Drivers/CMSIS/DSP/Source/TransformFunctions/arm_cfft_radix4_f32.c ****       pSrc[2U * i1] = r1 * onebyfftLen;
1177:Drivers/CMSIS/DSP/Source/TransformFunctions/arm_cfft_radix4_f32.c **** 
1178:Drivers/CMSIS/DSP/Source/TransformFunctions/arm_cfft_radix4_f32.c ****       /* yc' = (ya-yb+yc-yd)co2 + (xa-xb+xc-xd)(si2) */
1179:Drivers/CMSIS/DSP/Source/TransformFunctions/arm_cfft_radix4_f32.c ****       pSrc[(2U * i1) + 1U] = s1 * onebyfftLen;
1180:Drivers/CMSIS/DSP/Source/TransformFunctions/arm_cfft_radix4_f32.c **** 
1181:Drivers/CMSIS/DSP/Source/TransformFunctions/arm_cfft_radix4_f32.c ****       /* (xa - xc) - (yb-yd) */
1182:Drivers/CMSIS/DSP/Source/TransformFunctions/arm_cfft_radix4_f32.c ****       r1 = r2 - t1;
1183:Drivers/CMSIS/DSP/Source/TransformFunctions/arm_cfft_radix4_f32.c **** 
1184:Drivers/CMSIS/DSP/Source/TransformFunctions/arm_cfft_radix4_f32.c ****       /* (xa - xc) + (yb-yd) */
1185:Drivers/CMSIS/DSP/Source/TransformFunctions/arm_cfft_radix4_f32.c ****       r2 = r2 + t1;
1186:Drivers/CMSIS/DSP/Source/TransformFunctions/arm_cfft_radix4_f32.c **** 
1187:Drivers/CMSIS/DSP/Source/TransformFunctions/arm_cfft_radix4_f32.c ****       /* (ya - yc) + (xb-xd) */
1188:Drivers/CMSIS/DSP/Source/TransformFunctions/arm_cfft_radix4_f32.c ****       s1 = s2 + t2;
ARM GAS  /var/folders/n6/c271nzx11xl4r4_m7sqjlt0m0000gn/T//ccHq3Xre.s 			page 54


1189:Drivers/CMSIS/DSP/Source/TransformFunctions/arm_cfft_radix4_f32.c **** 
1190:Drivers/CMSIS/DSP/Source/TransformFunctions/arm_cfft_radix4_f32.c ****       /* (ya - yc) - (xb-xd) */
1191:Drivers/CMSIS/DSP/Source/TransformFunctions/arm_cfft_radix4_f32.c ****       s2 = s2 - t2;
1192:Drivers/CMSIS/DSP/Source/TransformFunctions/arm_cfft_radix4_f32.c **** 
1193:Drivers/CMSIS/DSP/Source/TransformFunctions/arm_cfft_radix4_f32.c ****       /* xb' = (xa+yb-xc-yd)co1 - (ya-xb-yc+xd)(si1) */
1194:Drivers/CMSIS/DSP/Source/TransformFunctions/arm_cfft_radix4_f32.c ****       pSrc[2U * i2] = r1 * onebyfftLen;
1195:Drivers/CMSIS/DSP/Source/TransformFunctions/arm_cfft_radix4_f32.c **** 
1196:Drivers/CMSIS/DSP/Source/TransformFunctions/arm_cfft_radix4_f32.c ****       /* yb' = (ya-xb-yc+xd)co1 + (xa+yb-xc-yd)(si1) */
1197:Drivers/CMSIS/DSP/Source/TransformFunctions/arm_cfft_radix4_f32.c ****       pSrc[(2U * i2) + 1U] = s1 * onebyfftLen;
1198:Drivers/CMSIS/DSP/Source/TransformFunctions/arm_cfft_radix4_f32.c **** 
1199:Drivers/CMSIS/DSP/Source/TransformFunctions/arm_cfft_radix4_f32.c ****       /* xd' = (xa-yb-xc+yd)co3 - (ya+xb-yc-xd)(si3) */
1200:Drivers/CMSIS/DSP/Source/TransformFunctions/arm_cfft_radix4_f32.c ****       pSrc[2U * i3] = r2 * onebyfftLen;
1201:Drivers/CMSIS/DSP/Source/TransformFunctions/arm_cfft_radix4_f32.c **** 
1202:Drivers/CMSIS/DSP/Source/TransformFunctions/arm_cfft_radix4_f32.c ****       /* yd' = (ya+xb-yc-xd)co3 + (xa-yb-xc+yd)(si3) */
1203:Drivers/CMSIS/DSP/Source/TransformFunctions/arm_cfft_radix4_f32.c ****       pSrc[(2U * i3) + 1U] = s2 * onebyfftLen;
1204:Drivers/CMSIS/DSP/Source/TransformFunctions/arm_cfft_radix4_f32.c ****    }
1205:Drivers/CMSIS/DSP/Source/TransformFunctions/arm_cfft_radix4_f32.c **** 
1206:Drivers/CMSIS/DSP/Source/TransformFunctions/arm_cfft_radix4_f32.c **** #endif /* #if defined (ARM_MATH_DSP) */
1207:Drivers/CMSIS/DSP/Source/TransformFunctions/arm_cfft_radix4_f32.c **** }
 1823              		.loc 1 1207 1 view .LVU826
 1824 03c4 07B0     		add	sp, sp, #28
 1825              		.cfi_def_cfa_offset 52
 1826              		@ sp needed
 1827 03c6 BDEC048B 		vldm	sp!, {d8-d9}
 1828              		.cfi_restore 82
 1829              		.cfi_restore 83
 1830              		.cfi_restore 80
 1831              		.cfi_restore 81
 1832              		.cfi_def_cfa_offset 36
 1833 03ca BDE8F08F 		pop	{r4, r5, r6, r7, r8, r9, r10, fp, pc}
 1834              		.loc 1 1207 1 view .LVU827
 1835              		.cfi_endproc
 1836              	.LFE137:
 1838              		.section	.text.arm_cfft_radix4_f32,"ax",%progbits
 1839              		.align	1
 1840              		.global	arm_cfft_radix4_f32
 1841              		.syntax unified
 1842              		.thumb
 1843              		.thumb_func
 1845              	arm_cfft_radix4_f32:
 1846              	.LVL352:
 1847              	.LFB135:
  73:Drivers/CMSIS/DSP/Source/TransformFunctions/arm_cfft_radix4_f32.c ****    if (S->ifftFlag == 1U)
 1848              		.loc 1 73 1 is_stmt 1 view -0
 1849              		.cfi_startproc
 1850              		@ args = 0, pretend = 0, frame = 0
 1851              		@ frame_needed = 0, uses_anonymous_args = 0
  73:Drivers/CMSIS/DSP/Source/TransformFunctions/arm_cfft_radix4_f32.c ****    if (S->ifftFlag == 1U)
 1852              		.loc 1 73 1 is_stmt 0 view .LVU829
 1853 0000 38B5     		push	{r3, r4, r5, lr}
 1854              		.cfi_def_cfa_offset 16
 1855              		.cfi_offset 3, -16
 1856              		.cfi_offset 4, -12
 1857              		.cfi_offset 5, -8
 1858              		.cfi_offset 14, -4
 1859 0002 0446     		mov	r4, r0
 1860 0004 0D46     		mov	r5, r1
ARM GAS  /var/folders/n6/c271nzx11xl4r4_m7sqjlt0m0000gn/T//ccHq3Xre.s 			page 55


  74:Drivers/CMSIS/DSP/Source/TransformFunctions/arm_cfft_radix4_f32.c ****    {
 1861              		.loc 1 74 4 is_stmt 1 view .LVU830
  74:Drivers/CMSIS/DSP/Source/TransformFunctions/arm_cfft_radix4_f32.c ****    {
 1862              		.loc 1 74 9 is_stmt 0 view .LVU831
 1863 0006 8378     		ldrb	r3, [r0, #2]	@ zero_extendqisi2
  74:Drivers/CMSIS/DSP/Source/TransformFunctions/arm_cfft_radix4_f32.c ****    {
 1864              		.loc 1 74 7 view .LVU832
 1865 0008 012B     		cmp	r3, #1
 1866 000a 09D0     		beq	.L22
  82:Drivers/CMSIS/DSP/Source/TransformFunctions/arm_cfft_radix4_f32.c ****    }
 1867              		.loc 1 82 7 is_stmt 1 view .LVU833
 1868 000c 8389     		ldrh	r3, [r0, #12]
 1869 000e 4268     		ldr	r2, [r0, #4]
 1870 0010 0188     		ldrh	r1, [r0]
 1871              	.LVL353:
  82:Drivers/CMSIS/DSP/Source/TransformFunctions/arm_cfft_radix4_f32.c ****    }
 1872              		.loc 1 82 7 is_stmt 0 view .LVU834
 1873 0012 2846     		mov	r0, r5
 1874              	.LVL354:
  82:Drivers/CMSIS/DSP/Source/TransformFunctions/arm_cfft_radix4_f32.c ****    }
 1875              		.loc 1 82 7 view .LVU835
 1876 0014 FFF7FEFF 		bl	arm_radix4_butterfly_f32
 1877              	.LVL355:
 1878              	.L19:
  85:Drivers/CMSIS/DSP/Source/TransformFunctions/arm_cfft_radix4_f32.c ****    {
 1879              		.loc 1 85 4 is_stmt 1 view .LVU836
  85:Drivers/CMSIS/DSP/Source/TransformFunctions/arm_cfft_radix4_f32.c ****    {
 1880              		.loc 1 85 9 is_stmt 0 view .LVU837
 1881 0018 E378     		ldrb	r3, [r4, #3]	@ zero_extendqisi2
  85:Drivers/CMSIS/DSP/Source/TransformFunctions/arm_cfft_radix4_f32.c ****    {
 1882              		.loc 1 85 7 view .LVU838
 1883 001a 012B     		cmp	r3, #1
 1884 001c 09D0     		beq	.L23
 1885              	.L17:
  91:Drivers/CMSIS/DSP/Source/TransformFunctions/arm_cfft_radix4_f32.c **** 
 1886              		.loc 1 91 1 view .LVU839
 1887 001e 38BD     		pop	{r3, r4, r5, pc}
 1888              	.LVL356:
 1889              	.L22:
  77:Drivers/CMSIS/DSP/Source/TransformFunctions/arm_cfft_radix4_f32.c ****    }
 1890              		.loc 1 77 7 is_stmt 1 view .LVU840
 1891 0020 90ED040A 		vldr.32	s0, [r0, #16]
 1892 0024 8389     		ldrh	r3, [r0, #12]
 1893 0026 4268     		ldr	r2, [r0, #4]
 1894 0028 0188     		ldrh	r1, [r0]
 1895              	.LVL357:
  77:Drivers/CMSIS/DSP/Source/TransformFunctions/arm_cfft_radix4_f32.c ****    }
 1896              		.loc 1 77 7 is_stmt 0 view .LVU841
 1897 002a 2846     		mov	r0, r5
 1898              	.LVL358:
  77:Drivers/CMSIS/DSP/Source/TransformFunctions/arm_cfft_radix4_f32.c ****    }
 1899              		.loc 1 77 7 view .LVU842
 1900 002c FFF7FEFF 		bl	arm_radix4_butterfly_inverse_f32
 1901              	.LVL359:
 1902 0030 F2E7     		b	.L19
 1903              	.L23:
  88:Drivers/CMSIS/DSP/Source/TransformFunctions/arm_cfft_radix4_f32.c ****    }
ARM GAS  /var/folders/n6/c271nzx11xl4r4_m7sqjlt0m0000gn/T//ccHq3Xre.s 			page 56


 1904              		.loc 1 88 7 is_stmt 1 view .LVU843
 1905 0032 A368     		ldr	r3, [r4, #8]
 1906 0034 E289     		ldrh	r2, [r4, #14]
 1907 0036 2188     		ldrh	r1, [r4]
 1908 0038 2846     		mov	r0, r5
 1909 003a FFF7FEFF 		bl	arm_bitreversal_f32
 1910              	.LVL360:
  91:Drivers/CMSIS/DSP/Source/TransformFunctions/arm_cfft_radix4_f32.c **** 
 1911              		.loc 1 91 1 is_stmt 0 view .LVU844
 1912 003e EEE7     		b	.L17
 1913              		.cfi_endproc
 1914              	.LFE135:
 1916              		.text
 1917              	.Letext0:
 1918              		.file 2 "/Users/killian/Library/Application Support/Code/User/globalStorage/bmd.stm32-for-vscode/@
 1919              		.file 3 "/Users/killian/Library/Application Support/Code/User/globalStorage/bmd.stm32-for-vscode/@
 1920              		.file 4 "Drivers/CMSIS/DSP/Include/arm_math.h"
ARM GAS  /var/folders/n6/c271nzx11xl4r4_m7sqjlt0m0000gn/T//ccHq3Xre.s 			page 57

