ARM GAS  /var/folders/n6/c271nzx11xl4r4_m7sqjlt0m0000gn/T//ccerAvNX.s 			page 1


   1              		.cpu cortex-m7
   2              		.arch armv7e-m
   3              		.fpu fpv5-d16
   4              		.eabi_attribute 28, 1
   5              		.eabi_attribute 20, 1
   6              		.eabi_attribute 21, 1
   7              		.eabi_attribute 23, 3
   8              		.eabi_attribute 24, 1
   9              		.eabi_attribute 25, 1
  10              		.eabi_attribute 26, 1
  11              		.eabi_attribute 30, 1
  12              		.eabi_attribute 34, 1
  13              		.eabi_attribute 18, 4
  14              		.file	"arm_q31_to_float.c"
  15              		.text
  16              	.Ltext0:
  17              		.cfi_sections	.debug_frame
  18              		.file 1 "Drivers/CMSIS/DSP/Source/SupportFunctions/arm_q31_to_float.c"
  19              		.section	.text.arm_q31_to_float,"ax",%progbits
  20              		.align	1
  21              		.global	arm_q31_to_float
  22              		.syntax unified
  23              		.thumb
  24              		.thumb_func
  26              	arm_q31_to_float:
  27              	.LVL0:
  28              	.LFB135:
   1:Drivers/CMSIS/DSP/Source/SupportFunctions/arm_q31_to_float.c **** /* ----------------------------------------------------------------------
   2:Drivers/CMSIS/DSP/Source/SupportFunctions/arm_q31_to_float.c ****  * Project:      CMSIS DSP Library
   3:Drivers/CMSIS/DSP/Source/SupportFunctions/arm_q31_to_float.c ****  * Title:        arm_q31_to_float.c
   4:Drivers/CMSIS/DSP/Source/SupportFunctions/arm_q31_to_float.c ****  * Description:  Converts the elements of the Q31 vector to floating-point vector
   5:Drivers/CMSIS/DSP/Source/SupportFunctions/arm_q31_to_float.c ****  *
   6:Drivers/CMSIS/DSP/Source/SupportFunctions/arm_q31_to_float.c ****  * $Date:        27. January 2017
   7:Drivers/CMSIS/DSP/Source/SupportFunctions/arm_q31_to_float.c ****  * $Revision:    V.1.5.1
   8:Drivers/CMSIS/DSP/Source/SupportFunctions/arm_q31_to_float.c ****  *
   9:Drivers/CMSIS/DSP/Source/SupportFunctions/arm_q31_to_float.c ****  * Target Processor: Cortex-M cores
  10:Drivers/CMSIS/DSP/Source/SupportFunctions/arm_q31_to_float.c ****  * -------------------------------------------------------------------- */
  11:Drivers/CMSIS/DSP/Source/SupportFunctions/arm_q31_to_float.c **** /*
  12:Drivers/CMSIS/DSP/Source/SupportFunctions/arm_q31_to_float.c ****  * Copyright (C) 2010-2017 ARM Limited or its affiliates. All rights reserved.
  13:Drivers/CMSIS/DSP/Source/SupportFunctions/arm_q31_to_float.c ****  *
  14:Drivers/CMSIS/DSP/Source/SupportFunctions/arm_q31_to_float.c ****  * SPDX-License-Identifier: Apache-2.0
  15:Drivers/CMSIS/DSP/Source/SupportFunctions/arm_q31_to_float.c ****  *
  16:Drivers/CMSIS/DSP/Source/SupportFunctions/arm_q31_to_float.c ****  * Licensed under the Apache License, Version 2.0 (the License); you may
  17:Drivers/CMSIS/DSP/Source/SupportFunctions/arm_q31_to_float.c ****  * not use this file except in compliance with the License.
  18:Drivers/CMSIS/DSP/Source/SupportFunctions/arm_q31_to_float.c ****  * You may obtain a copy of the License at
  19:Drivers/CMSIS/DSP/Source/SupportFunctions/arm_q31_to_float.c ****  *
  20:Drivers/CMSIS/DSP/Source/SupportFunctions/arm_q31_to_float.c ****  * www.apache.org/licenses/LICENSE-2.0
  21:Drivers/CMSIS/DSP/Source/SupportFunctions/arm_q31_to_float.c ****  *
  22:Drivers/CMSIS/DSP/Source/SupportFunctions/arm_q31_to_float.c ****  * Unless required by applicable law or agreed to in writing, software
  23:Drivers/CMSIS/DSP/Source/SupportFunctions/arm_q31_to_float.c ****  * distributed under the License is distributed on an AS IS BASIS, WITHOUT
  24:Drivers/CMSIS/DSP/Source/SupportFunctions/arm_q31_to_float.c ****  * WARRANTIES OR CONDITIONS OF ANY KIND, either express or implied.
  25:Drivers/CMSIS/DSP/Source/SupportFunctions/arm_q31_to_float.c ****  * See the License for the specific language governing permissions and
  26:Drivers/CMSIS/DSP/Source/SupportFunctions/arm_q31_to_float.c ****  * limitations under the License.
  27:Drivers/CMSIS/DSP/Source/SupportFunctions/arm_q31_to_float.c ****  */
  28:Drivers/CMSIS/DSP/Source/SupportFunctions/arm_q31_to_float.c **** 
  29:Drivers/CMSIS/DSP/Source/SupportFunctions/arm_q31_to_float.c **** #include "arm_math.h"
  30:Drivers/CMSIS/DSP/Source/SupportFunctions/arm_q31_to_float.c **** 
ARM GAS  /var/folders/n6/c271nzx11xl4r4_m7sqjlt0m0000gn/T//ccerAvNX.s 			page 2


  31:Drivers/CMSIS/DSP/Source/SupportFunctions/arm_q31_to_float.c **** /**
  32:Drivers/CMSIS/DSP/Source/SupportFunctions/arm_q31_to_float.c ****  * @ingroup groupSupport
  33:Drivers/CMSIS/DSP/Source/SupportFunctions/arm_q31_to_float.c ****  */
  34:Drivers/CMSIS/DSP/Source/SupportFunctions/arm_q31_to_float.c **** 
  35:Drivers/CMSIS/DSP/Source/SupportFunctions/arm_q31_to_float.c **** /**
  36:Drivers/CMSIS/DSP/Source/SupportFunctions/arm_q31_to_float.c ****  * @defgroup q31_to_x  Convert 32-bit Integer value
  37:Drivers/CMSIS/DSP/Source/SupportFunctions/arm_q31_to_float.c ****  */
  38:Drivers/CMSIS/DSP/Source/SupportFunctions/arm_q31_to_float.c **** 
  39:Drivers/CMSIS/DSP/Source/SupportFunctions/arm_q31_to_float.c **** /**
  40:Drivers/CMSIS/DSP/Source/SupportFunctions/arm_q31_to_float.c ****  * @addtogroup q31_to_x
  41:Drivers/CMSIS/DSP/Source/SupportFunctions/arm_q31_to_float.c ****  * @{
  42:Drivers/CMSIS/DSP/Source/SupportFunctions/arm_q31_to_float.c ****  */
  43:Drivers/CMSIS/DSP/Source/SupportFunctions/arm_q31_to_float.c **** 
  44:Drivers/CMSIS/DSP/Source/SupportFunctions/arm_q31_to_float.c **** /**
  45:Drivers/CMSIS/DSP/Source/SupportFunctions/arm_q31_to_float.c ****  * @brief Converts the elements of the Q31 vector to floating-point vector.
  46:Drivers/CMSIS/DSP/Source/SupportFunctions/arm_q31_to_float.c ****  * @param[in]       *pSrc points to the Q31 input vector
  47:Drivers/CMSIS/DSP/Source/SupportFunctions/arm_q31_to_float.c ****  * @param[out]      *pDst points to the floating-point output vector
  48:Drivers/CMSIS/DSP/Source/SupportFunctions/arm_q31_to_float.c ****  * @param[in]       blockSize length of the input vector
  49:Drivers/CMSIS/DSP/Source/SupportFunctions/arm_q31_to_float.c ****  * @return none.
  50:Drivers/CMSIS/DSP/Source/SupportFunctions/arm_q31_to_float.c ****  *
  51:Drivers/CMSIS/DSP/Source/SupportFunctions/arm_q31_to_float.c ****  * \par Description:
  52:Drivers/CMSIS/DSP/Source/SupportFunctions/arm_q31_to_float.c ****  *
  53:Drivers/CMSIS/DSP/Source/SupportFunctions/arm_q31_to_float.c ****  * The equation used for the conversion process is:
  54:Drivers/CMSIS/DSP/Source/SupportFunctions/arm_q31_to_float.c ****  *
  55:Drivers/CMSIS/DSP/Source/SupportFunctions/arm_q31_to_float.c ****  * <pre>
  56:Drivers/CMSIS/DSP/Source/SupportFunctions/arm_q31_to_float.c ****  * 	pDst[n] = (float32_t) pSrc[n] / 2147483648;   0 <= n < blockSize.
  57:Drivers/CMSIS/DSP/Source/SupportFunctions/arm_q31_to_float.c ****  * </pre>
  58:Drivers/CMSIS/DSP/Source/SupportFunctions/arm_q31_to_float.c ****  *
  59:Drivers/CMSIS/DSP/Source/SupportFunctions/arm_q31_to_float.c ****  */
  60:Drivers/CMSIS/DSP/Source/SupportFunctions/arm_q31_to_float.c **** 
  61:Drivers/CMSIS/DSP/Source/SupportFunctions/arm_q31_to_float.c **** 
  62:Drivers/CMSIS/DSP/Source/SupportFunctions/arm_q31_to_float.c **** void arm_q31_to_float(
  63:Drivers/CMSIS/DSP/Source/SupportFunctions/arm_q31_to_float.c ****   q31_t * pSrc,
  64:Drivers/CMSIS/DSP/Source/SupportFunctions/arm_q31_to_float.c ****   float32_t * pDst,
  65:Drivers/CMSIS/DSP/Source/SupportFunctions/arm_q31_to_float.c ****   uint32_t blockSize)
  66:Drivers/CMSIS/DSP/Source/SupportFunctions/arm_q31_to_float.c **** {
  29              		.loc 1 66 1 view -0
  30              		.cfi_startproc
  31              		@ args = 0, pretend = 0, frame = 0
  32              		@ frame_needed = 0, uses_anonymous_args = 0
  33              		@ link register save eliminated.
  67:Drivers/CMSIS/DSP/Source/SupportFunctions/arm_q31_to_float.c ****   q31_t *pIn = pSrc;                             /* Src pointer */
  34              		.loc 1 67 3 view .LVU1
  68:Drivers/CMSIS/DSP/Source/SupportFunctions/arm_q31_to_float.c ****   uint32_t blkCnt;                               /* loop counter */
  35              		.loc 1 68 3 view .LVU2
  69:Drivers/CMSIS/DSP/Source/SupportFunctions/arm_q31_to_float.c **** 
  70:Drivers/CMSIS/DSP/Source/SupportFunctions/arm_q31_to_float.c **** 
  71:Drivers/CMSIS/DSP/Source/SupportFunctions/arm_q31_to_float.c **** #if defined (ARM_MATH_DSP)
  72:Drivers/CMSIS/DSP/Source/SupportFunctions/arm_q31_to_float.c **** 
  73:Drivers/CMSIS/DSP/Source/SupportFunctions/arm_q31_to_float.c ****   /* Run the below code for Cortex-M4 and Cortex-M3 */
  74:Drivers/CMSIS/DSP/Source/SupportFunctions/arm_q31_to_float.c **** 
  75:Drivers/CMSIS/DSP/Source/SupportFunctions/arm_q31_to_float.c ****   /*loop Unrolling */
  76:Drivers/CMSIS/DSP/Source/SupportFunctions/arm_q31_to_float.c ****   blkCnt = blockSize >> 2U;
  36              		.loc 1 76 3 view .LVU3
  37              		.loc 1 76 10 is_stmt 0 view .LVU4
  38 0000 9308     		lsrs	r3, r2, #2
  39              	.LVL1:
ARM GAS  /var/folders/n6/c271nzx11xl4r4_m7sqjlt0m0000gn/T//ccerAvNX.s 			page 3


  77:Drivers/CMSIS/DSP/Source/SupportFunctions/arm_q31_to_float.c **** 
  78:Drivers/CMSIS/DSP/Source/SupportFunctions/arm_q31_to_float.c ****   /* First part of the processing with loop unrolling.  Compute 4 outputs at a time.
  79:Drivers/CMSIS/DSP/Source/SupportFunctions/arm_q31_to_float.c ****    ** a second loop below computes the remaining 1 to 3 samples. */
  80:Drivers/CMSIS/DSP/Source/SupportFunctions/arm_q31_to_float.c ****   while (blkCnt > 0U)
  40              		.loc 1 80 3 is_stmt 1 view .LVU5
  41              		.loc 1 80 9 is_stmt 0 view .LVU6
  42 0002 24E0     		b	.L2
  43              	.LVL2:
  44              	.L3:
  81:Drivers/CMSIS/DSP/Source/SupportFunctions/arm_q31_to_float.c ****   {
  82:Drivers/CMSIS/DSP/Source/SupportFunctions/arm_q31_to_float.c ****     /* C = (float32_t) A / 2147483648 */
  83:Drivers/CMSIS/DSP/Source/SupportFunctions/arm_q31_to_float.c ****     /* convert from q31 to float and then store the results in the destination buffer */
  84:Drivers/CMSIS/DSP/Source/SupportFunctions/arm_q31_to_float.c ****     *pDst++ = ((float32_t) * pIn++ / 2147483648.0f);
  45              		.loc 1 84 5 is_stmt 1 view .LVU7
  46              		.loc 1 84 16 is_stmt 0 view .LVU8
  47 0004 D0ED007A 		vldr.32	s15, [r0]	@ int
  48 0008 F8EEE77A 		vcvt.f32.s32	s15, s15
  49              	.LVL3:
  50              		.loc 1 84 36 view .LVU9
  51 000c 9FED197A 		vldr.32	s14, .L6
  52 0010 67EE877A 		vmul.f32	s15, s15, s14
  53              		.loc 1 84 13 view .LVU10
  54 0014 C1ED007A 		vstr.32	s15, [r1]
  85:Drivers/CMSIS/DSP/Source/SupportFunctions/arm_q31_to_float.c ****     *pDst++ = ((float32_t) * pIn++ / 2147483648.0f);
  55              		.loc 1 85 5 is_stmt 1 view .LVU11
  56              	.LVL4:
  57              		.loc 1 85 16 is_stmt 0 view .LVU12
  58 0018 D0ED017A 		vldr.32	s15, [r0, #4]	@ int
  59 001c F8EEE77A 		vcvt.f32.s32	s15, s15
  60              	.LVL5:
  61              		.loc 1 85 36 view .LVU13
  62 0020 67EE877A 		vmul.f32	s15, s15, s14
  63              		.loc 1 85 13 view .LVU14
  64 0024 C1ED017A 		vstr.32	s15, [r1, #4]
  86:Drivers/CMSIS/DSP/Source/SupportFunctions/arm_q31_to_float.c ****     *pDst++ = ((float32_t) * pIn++ / 2147483648.0f);
  65              		.loc 1 86 5 is_stmt 1 view .LVU15
  66              	.LVL6:
  67              		.loc 1 86 16 is_stmt 0 view .LVU16
  68 0028 D0ED027A 		vldr.32	s15, [r0, #8]	@ int
  69 002c F8EEE77A 		vcvt.f32.s32	s15, s15
  70              	.LVL7:
  71              		.loc 1 86 36 view .LVU17
  72 0030 67EE877A 		vmul.f32	s15, s15, s14
  73              		.loc 1 86 13 view .LVU18
  74 0034 C1ED027A 		vstr.32	s15, [r1, #8]
  87:Drivers/CMSIS/DSP/Source/SupportFunctions/arm_q31_to_float.c ****     *pDst++ = ((float32_t) * pIn++ / 2147483648.0f);
  75              		.loc 1 87 5 is_stmt 1 view .LVU19
  76              	.LVL8:
  77              		.loc 1 87 16 is_stmt 0 view .LVU20
  78 0038 D0ED037A 		vldr.32	s15, [r0, #12]	@ int
  79 003c F8EEE77A 		vcvt.f32.s32	s15, s15
  80              	.LVL9:
  81              		.loc 1 87 36 view .LVU21
  82 0040 67EE877A 		vmul.f32	s15, s15, s14
  83              		.loc 1 87 13 view .LVU22
  84 0044 C1ED037A 		vstr.32	s15, [r1, #12]
  88:Drivers/CMSIS/DSP/Source/SupportFunctions/arm_q31_to_float.c **** 
ARM GAS  /var/folders/n6/c271nzx11xl4r4_m7sqjlt0m0000gn/T//ccerAvNX.s 			page 4


  89:Drivers/CMSIS/DSP/Source/SupportFunctions/arm_q31_to_float.c ****     /* Decrement the loop counter */
  90:Drivers/CMSIS/DSP/Source/SupportFunctions/arm_q31_to_float.c ****     blkCnt--;
  85              		.loc 1 90 5 is_stmt 1 view .LVU23
  86              		.loc 1 90 11 is_stmt 0 view .LVU24
  87 0048 013B     		subs	r3, r3, #1
  88              	.LVL10:
  87:Drivers/CMSIS/DSP/Source/SupportFunctions/arm_q31_to_float.c ****     *pDst++ = ((float32_t) * pIn++ / 2147483648.0f);
  89              		.loc 1 87 33 view .LVU25
  90 004a 1030     		adds	r0, r0, #16
  91              	.LVL11:
  87:Drivers/CMSIS/DSP/Source/SupportFunctions/arm_q31_to_float.c ****     *pDst++ = ((float32_t) * pIn++ / 2147483648.0f);
  92              		.loc 1 87 10 view .LVU26
  93 004c 1031     		adds	r1, r1, #16
  94              	.LVL12:
  95              	.L2:
  80:Drivers/CMSIS/DSP/Source/SupportFunctions/arm_q31_to_float.c ****   {
  96              		.loc 1 80 17 is_stmt 1 view .LVU27
  97 004e 002B     		cmp	r3, #0
  98 0050 D8D1     		bne	.L3
  91:Drivers/CMSIS/DSP/Source/SupportFunctions/arm_q31_to_float.c ****   }
  92:Drivers/CMSIS/DSP/Source/SupportFunctions/arm_q31_to_float.c **** 
  93:Drivers/CMSIS/DSP/Source/SupportFunctions/arm_q31_to_float.c ****   /* If the blockSize is not a multiple of 4, compute any remaining output samples here.
  94:Drivers/CMSIS/DSP/Source/SupportFunctions/arm_q31_to_float.c ****    ** No loop unrolling is used. */
  95:Drivers/CMSIS/DSP/Source/SupportFunctions/arm_q31_to_float.c ****   blkCnt = blockSize % 0x4U;
  99              		.loc 1 95 3 view .LVU28
 100              		.loc 1 95 10 is_stmt 0 view .LVU29
 101 0052 02F00302 		and	r2, r2, #3
 102              	.LVL13:
  96:Drivers/CMSIS/DSP/Source/SupportFunctions/arm_q31_to_float.c **** 
  97:Drivers/CMSIS/DSP/Source/SupportFunctions/arm_q31_to_float.c **** #else
  98:Drivers/CMSIS/DSP/Source/SupportFunctions/arm_q31_to_float.c **** 
  99:Drivers/CMSIS/DSP/Source/SupportFunctions/arm_q31_to_float.c ****   /* Run the below code for Cortex-M0 */
 100:Drivers/CMSIS/DSP/Source/SupportFunctions/arm_q31_to_float.c **** 
 101:Drivers/CMSIS/DSP/Source/SupportFunctions/arm_q31_to_float.c ****   /* Loop over blockSize number of values */
 102:Drivers/CMSIS/DSP/Source/SupportFunctions/arm_q31_to_float.c ****   blkCnt = blockSize;
 103:Drivers/CMSIS/DSP/Source/SupportFunctions/arm_q31_to_float.c **** 
 104:Drivers/CMSIS/DSP/Source/SupportFunctions/arm_q31_to_float.c **** #endif /* #if defined (ARM_MATH_DSP) */
 105:Drivers/CMSIS/DSP/Source/SupportFunctions/arm_q31_to_float.c **** 
 106:Drivers/CMSIS/DSP/Source/SupportFunctions/arm_q31_to_float.c ****   while (blkCnt > 0U)
 103              		.loc 1 106 3 is_stmt 1 view .LVU30
 104              		.loc 1 106 9 is_stmt 0 view .LVU31
 105 0056 0AE0     		b	.L4
 106              	.L5:
 107:Drivers/CMSIS/DSP/Source/SupportFunctions/arm_q31_to_float.c ****   {
 108:Drivers/CMSIS/DSP/Source/SupportFunctions/arm_q31_to_float.c ****     /* C = (float32_t) A / 2147483648 */
 109:Drivers/CMSIS/DSP/Source/SupportFunctions/arm_q31_to_float.c ****     /* convert from q31 to float and then store the results in the destination buffer */
 110:Drivers/CMSIS/DSP/Source/SupportFunctions/arm_q31_to_float.c ****     *pDst++ = ((float32_t) * pIn++ / 2147483648.0f);
 107              		.loc 1 110 5 is_stmt 1 view .LVU32
 108              	.LVL14:
 109              		.loc 1 110 28 is_stmt 0 view .LVU33
 110 0058 F0EC017A 		vldmia.32	r0!, {s15}	@ int
 111              	.LVL15:
 112              		.loc 1 110 16 view .LVU34
 113 005c F8EEE77A 		vcvt.f32.s32	s15, s15
 114              	.LVL16:
 115              		.loc 1 110 36 view .LVU35
 116 0060 9FED047A 		vldr.32	s14, .L6
ARM GAS  /var/folders/n6/c271nzx11xl4r4_m7sqjlt0m0000gn/T//ccerAvNX.s 			page 5


 117 0064 67EE877A 		vmul.f32	s15, s15, s14
 118              		.loc 1 110 13 view .LVU36
 119 0068 E1EC017A 		vstmia.32	r1!, {s15}
 120              	.LVL17:
 111:Drivers/CMSIS/DSP/Source/SupportFunctions/arm_q31_to_float.c **** 
 112:Drivers/CMSIS/DSP/Source/SupportFunctions/arm_q31_to_float.c ****     /* Decrement the loop counter */
 113:Drivers/CMSIS/DSP/Source/SupportFunctions/arm_q31_to_float.c ****     blkCnt--;
 121              		.loc 1 113 5 is_stmt 1 view .LVU37
 122              		.loc 1 113 11 is_stmt 0 view .LVU38
 123 006c 013A     		subs	r2, r2, #1
 124              	.LVL18:
 125              	.L4:
 106:Drivers/CMSIS/DSP/Source/SupportFunctions/arm_q31_to_float.c ****   {
 126              		.loc 1 106 17 is_stmt 1 view .LVU39
 127 006e 002A     		cmp	r2, #0
 128 0070 F2D1     		bne	.L5
 114:Drivers/CMSIS/DSP/Source/SupportFunctions/arm_q31_to_float.c ****   }
 115:Drivers/CMSIS/DSP/Source/SupportFunctions/arm_q31_to_float.c **** }
 129              		.loc 1 115 1 is_stmt 0 view .LVU40
 130 0072 7047     		bx	lr
 131              	.L7:
 132              		.align	2
 133              	.L6:
 134 0074 00000030 		.word	805306368
 135              		.cfi_endproc
 136              	.LFE135:
 138              		.text
 139              	.Letext0:
 140              		.file 2 "/Users/killian/Library/Application Support/Code/User/globalStorage/bmd.stm32-for-vscode/@
 141              		.file 3 "/Users/killian/Library/Application Support/Code/User/globalStorage/bmd.stm32-for-vscode/@
 142              		.file 4 "Drivers/CMSIS/DSP/Include/arm_math.h"
ARM GAS  /var/folders/n6/c271nzx11xl4r4_m7sqjlt0m0000gn/T//ccerAvNX.s 			page 6


DEFINED SYMBOLS
                            *ABS*:00000000 arm_q31_to_float.c
/var/folders/n6/c271nzx11xl4r4_m7sqjlt0m0000gn/T//ccerAvNX.s:20     .text.arm_q31_to_float:00000000 $t
/var/folders/n6/c271nzx11xl4r4_m7sqjlt0m0000gn/T//ccerAvNX.s:26     .text.arm_q31_to_float:00000000 arm_q31_to_float
/var/folders/n6/c271nzx11xl4r4_m7sqjlt0m0000gn/T//ccerAvNX.s:134    .text.arm_q31_to_float:00000074 $d

NO UNDEFINED SYMBOLS
