ARM GAS  /var/folders/n6/c271nzx11xl4r4_m7sqjlt0m0000gn/T//ccA39Knf.s 			page 1


   1              		.cpu cortex-m7
   2              		.arch armv7e-m
   3              		.fpu fpv5-d16
   4              		.eabi_attribute 28, 1
   5              		.eabi_attribute 20, 1
   6              		.eabi_attribute 21, 1
   7              		.eabi_attribute 23, 3
   8              		.eabi_attribute 24, 1
   9              		.eabi_attribute 25, 1
  10              		.eabi_attribute 26, 1
  11              		.eabi_attribute 30, 1
  12              		.eabi_attribute 34, 1
  13              		.eabi_attribute 18, 4
  14              		.file	"arm_fir_f32.c"
  15              		.text
  16              	.Ltext0:
  17              		.cfi_sections	.debug_frame
  18              		.file 1 "Drivers/CMSIS/DSP/Source/FilteringFunctions/arm_fir_f32.c"
  19              		.section	.text.arm_fir_f32,"ax",%progbits
  20              		.align	1
  21              		.global	arm_fir_f32
  22              		.syntax unified
  23              		.thumb
  24              		.thumb_func
  26              	arm_fir_f32:
  27              	.LVL0:
  28              	.LFB135:
   1:Drivers/CMSIS/DSP/Source/FilteringFunctions/arm_fir_f32.c **** /* ----------------------------------------------------------------------
   2:Drivers/CMSIS/DSP/Source/FilteringFunctions/arm_fir_f32.c ****  * Project:      CMSIS DSP Library
   3:Drivers/CMSIS/DSP/Source/FilteringFunctions/arm_fir_f32.c ****  * Title:        arm_fir_f32.c
   4:Drivers/CMSIS/DSP/Source/FilteringFunctions/arm_fir_f32.c ****  * Description:  Floating-point FIR filter processing function
   5:Drivers/CMSIS/DSP/Source/FilteringFunctions/arm_fir_f32.c ****  *
   6:Drivers/CMSIS/DSP/Source/FilteringFunctions/arm_fir_f32.c ****  * $Date:        27. January 2017
   7:Drivers/CMSIS/DSP/Source/FilteringFunctions/arm_fir_f32.c ****  * $Revision:    V.1.5.1
   8:Drivers/CMSIS/DSP/Source/FilteringFunctions/arm_fir_f32.c ****  *
   9:Drivers/CMSIS/DSP/Source/FilteringFunctions/arm_fir_f32.c ****  * Target Processor: Cortex-M cores
  10:Drivers/CMSIS/DSP/Source/FilteringFunctions/arm_fir_f32.c ****  * -------------------------------------------------------------------- */
  11:Drivers/CMSIS/DSP/Source/FilteringFunctions/arm_fir_f32.c **** /*
  12:Drivers/CMSIS/DSP/Source/FilteringFunctions/arm_fir_f32.c ****  * Copyright (C) 2010-2017 ARM Limited or its affiliates. All rights reserved.
  13:Drivers/CMSIS/DSP/Source/FilteringFunctions/arm_fir_f32.c ****  *
  14:Drivers/CMSIS/DSP/Source/FilteringFunctions/arm_fir_f32.c ****  * SPDX-License-Identifier: Apache-2.0
  15:Drivers/CMSIS/DSP/Source/FilteringFunctions/arm_fir_f32.c ****  *
  16:Drivers/CMSIS/DSP/Source/FilteringFunctions/arm_fir_f32.c ****  * Licensed under the Apache License, Version 2.0 (the License); you may
  17:Drivers/CMSIS/DSP/Source/FilteringFunctions/arm_fir_f32.c ****  * not use this file except in compliance with the License.
  18:Drivers/CMSIS/DSP/Source/FilteringFunctions/arm_fir_f32.c ****  * You may obtain a copy of the License at
  19:Drivers/CMSIS/DSP/Source/FilteringFunctions/arm_fir_f32.c ****  *
  20:Drivers/CMSIS/DSP/Source/FilteringFunctions/arm_fir_f32.c ****  * www.apache.org/licenses/LICENSE-2.0
  21:Drivers/CMSIS/DSP/Source/FilteringFunctions/arm_fir_f32.c ****  *
  22:Drivers/CMSIS/DSP/Source/FilteringFunctions/arm_fir_f32.c ****  * Unless required by applicable law or agreed to in writing, software
  23:Drivers/CMSIS/DSP/Source/FilteringFunctions/arm_fir_f32.c ****  * distributed under the License is distributed on an AS IS BASIS, WITHOUT
  24:Drivers/CMSIS/DSP/Source/FilteringFunctions/arm_fir_f32.c ****  * WARRANTIES OR CONDITIONS OF ANY KIND, either express or implied.
  25:Drivers/CMSIS/DSP/Source/FilteringFunctions/arm_fir_f32.c ****  * See the License for the specific language governing permissions and
  26:Drivers/CMSIS/DSP/Source/FilteringFunctions/arm_fir_f32.c ****  * limitations under the License.
  27:Drivers/CMSIS/DSP/Source/FilteringFunctions/arm_fir_f32.c ****  */
  28:Drivers/CMSIS/DSP/Source/FilteringFunctions/arm_fir_f32.c **** 
  29:Drivers/CMSIS/DSP/Source/FilteringFunctions/arm_fir_f32.c **** #include "arm_math.h"
  30:Drivers/CMSIS/DSP/Source/FilteringFunctions/arm_fir_f32.c **** 
ARM GAS  /var/folders/n6/c271nzx11xl4r4_m7sqjlt0m0000gn/T//ccA39Knf.s 			page 2


  31:Drivers/CMSIS/DSP/Source/FilteringFunctions/arm_fir_f32.c **** /**
  32:Drivers/CMSIS/DSP/Source/FilteringFunctions/arm_fir_f32.c **** * @ingroup groupFilters
  33:Drivers/CMSIS/DSP/Source/FilteringFunctions/arm_fir_f32.c **** */
  34:Drivers/CMSIS/DSP/Source/FilteringFunctions/arm_fir_f32.c **** 
  35:Drivers/CMSIS/DSP/Source/FilteringFunctions/arm_fir_f32.c **** /**
  36:Drivers/CMSIS/DSP/Source/FilteringFunctions/arm_fir_f32.c **** * @defgroup FIR Finite Impulse Response (FIR) Filters
  37:Drivers/CMSIS/DSP/Source/FilteringFunctions/arm_fir_f32.c **** *
  38:Drivers/CMSIS/DSP/Source/FilteringFunctions/arm_fir_f32.c **** * This set of functions implements Finite Impulse Response (FIR) filters
  39:Drivers/CMSIS/DSP/Source/FilteringFunctions/arm_fir_f32.c **** * for Q7, Q15, Q31, and floating-point data types.  Fast versions of Q15 and Q31 are also provided.
  40:Drivers/CMSIS/DSP/Source/FilteringFunctions/arm_fir_f32.c **** * The functions operate on blocks of input and output data and each call to the function processes
  41:Drivers/CMSIS/DSP/Source/FilteringFunctions/arm_fir_f32.c **** * <code>blockSize</code> samples through the filter.  <code>pSrc</code> and
  42:Drivers/CMSIS/DSP/Source/FilteringFunctions/arm_fir_f32.c **** * <code>pDst</code> points to input and output arrays containing <code>blockSize</code> values.
  43:Drivers/CMSIS/DSP/Source/FilteringFunctions/arm_fir_f32.c **** *
  44:Drivers/CMSIS/DSP/Source/FilteringFunctions/arm_fir_f32.c **** * \par Algorithm:
  45:Drivers/CMSIS/DSP/Source/FilteringFunctions/arm_fir_f32.c **** * The FIR filter algorithm is based upon a sequence of multiply-accumulate (MAC) operations.
  46:Drivers/CMSIS/DSP/Source/FilteringFunctions/arm_fir_f32.c **** * Each filter coefficient <code>b[n]</code> is multiplied by a state variable which equals a previo
  47:Drivers/CMSIS/DSP/Source/FilteringFunctions/arm_fir_f32.c **** * <pre>
  48:Drivers/CMSIS/DSP/Source/FilteringFunctions/arm_fir_f32.c **** *    y[n] = b[0] * x[n] + b[1] * x[n-1] + b[2] * x[n-2] + ...+ b[numTaps-1] * x[n-numTaps+1]
  49:Drivers/CMSIS/DSP/Source/FilteringFunctions/arm_fir_f32.c **** * </pre>
  50:Drivers/CMSIS/DSP/Source/FilteringFunctions/arm_fir_f32.c **** * \par
  51:Drivers/CMSIS/DSP/Source/FilteringFunctions/arm_fir_f32.c **** * \image html FIR.gif "Finite Impulse Response filter"
  52:Drivers/CMSIS/DSP/Source/FilteringFunctions/arm_fir_f32.c **** * \par
  53:Drivers/CMSIS/DSP/Source/FilteringFunctions/arm_fir_f32.c **** * <code>pCoeffs</code> points to a coefficient array of size <code>numTaps</code>.
  54:Drivers/CMSIS/DSP/Source/FilteringFunctions/arm_fir_f32.c **** * Coefficients are stored in time reversed order.
  55:Drivers/CMSIS/DSP/Source/FilteringFunctions/arm_fir_f32.c **** * \par
  56:Drivers/CMSIS/DSP/Source/FilteringFunctions/arm_fir_f32.c **** * <pre>
  57:Drivers/CMSIS/DSP/Source/FilteringFunctions/arm_fir_f32.c **** *    {b[numTaps-1], b[numTaps-2], b[N-2], ..., b[1], b[0]}
  58:Drivers/CMSIS/DSP/Source/FilteringFunctions/arm_fir_f32.c **** * </pre>
  59:Drivers/CMSIS/DSP/Source/FilteringFunctions/arm_fir_f32.c **** * \par
  60:Drivers/CMSIS/DSP/Source/FilteringFunctions/arm_fir_f32.c **** * <code>pState</code> points to a state array of size <code>numTaps + blockSize - 1</code>.
  61:Drivers/CMSIS/DSP/Source/FilteringFunctions/arm_fir_f32.c **** * Samples in the state buffer are stored in the following order.
  62:Drivers/CMSIS/DSP/Source/FilteringFunctions/arm_fir_f32.c **** * \par
  63:Drivers/CMSIS/DSP/Source/FilteringFunctions/arm_fir_f32.c **** * <pre>
  64:Drivers/CMSIS/DSP/Source/FilteringFunctions/arm_fir_f32.c **** *    {x[n-numTaps+1], x[n-numTaps], x[n-numTaps-1], x[n-numTaps-2]....x[0], x[1], ..., x[blockSize-
  65:Drivers/CMSIS/DSP/Source/FilteringFunctions/arm_fir_f32.c **** * </pre>
  66:Drivers/CMSIS/DSP/Source/FilteringFunctions/arm_fir_f32.c **** * \par
  67:Drivers/CMSIS/DSP/Source/FilteringFunctions/arm_fir_f32.c **** * Note that the length of the state buffer exceeds the length of the coefficient array by <code>blo
  68:Drivers/CMSIS/DSP/Source/FilteringFunctions/arm_fir_f32.c **** * The increased state buffer length allows circular addressing, which is traditionally used in the 
  69:Drivers/CMSIS/DSP/Source/FilteringFunctions/arm_fir_f32.c **** * to be avoided and yields a significant speed improvement.
  70:Drivers/CMSIS/DSP/Source/FilteringFunctions/arm_fir_f32.c **** * The state variables are updated after each block of data is processed; the coefficients are untou
  71:Drivers/CMSIS/DSP/Source/FilteringFunctions/arm_fir_f32.c **** * \par Instance Structure
  72:Drivers/CMSIS/DSP/Source/FilteringFunctions/arm_fir_f32.c **** * The coefficients and state variables for a filter are stored together in an instance data structu
  73:Drivers/CMSIS/DSP/Source/FilteringFunctions/arm_fir_f32.c **** * A separate instance structure must be defined for each filter.
  74:Drivers/CMSIS/DSP/Source/FilteringFunctions/arm_fir_f32.c **** * Coefficient arrays may be shared among several instances while state variable arrays cannot be sh
  75:Drivers/CMSIS/DSP/Source/FilteringFunctions/arm_fir_f32.c **** * There are separate instance structure declarations for each of the 4 supported data types.
  76:Drivers/CMSIS/DSP/Source/FilteringFunctions/arm_fir_f32.c **** *
  77:Drivers/CMSIS/DSP/Source/FilteringFunctions/arm_fir_f32.c **** * \par Initialization Functions
  78:Drivers/CMSIS/DSP/Source/FilteringFunctions/arm_fir_f32.c **** * There is also an associated initialization function for each data type.
  79:Drivers/CMSIS/DSP/Source/FilteringFunctions/arm_fir_f32.c **** * The initialization function performs the following operations:
  80:Drivers/CMSIS/DSP/Source/FilteringFunctions/arm_fir_f32.c **** * - Sets the values of the internal structure fields.
  81:Drivers/CMSIS/DSP/Source/FilteringFunctions/arm_fir_f32.c **** * - Zeros out the values in the state buffer.
  82:Drivers/CMSIS/DSP/Source/FilteringFunctions/arm_fir_f32.c **** * To do this manually without calling the init function, assign the follow subfields of the instanc
  83:Drivers/CMSIS/DSP/Source/FilteringFunctions/arm_fir_f32.c **** * numTaps, pCoeffs, pState. Also set all of the values in pState to zero.
  84:Drivers/CMSIS/DSP/Source/FilteringFunctions/arm_fir_f32.c **** *
  85:Drivers/CMSIS/DSP/Source/FilteringFunctions/arm_fir_f32.c **** * \par
  86:Drivers/CMSIS/DSP/Source/FilteringFunctions/arm_fir_f32.c **** * Use of the initialization function is optional.
  87:Drivers/CMSIS/DSP/Source/FilteringFunctions/arm_fir_f32.c **** * However, if the initialization function is used, then the instance structure cannot be placed int
ARM GAS  /var/folders/n6/c271nzx11xl4r4_m7sqjlt0m0000gn/T//ccA39Knf.s 			page 3


  88:Drivers/CMSIS/DSP/Source/FilteringFunctions/arm_fir_f32.c **** * To place an instance structure into a const data section, the instance structure must be manually
  89:Drivers/CMSIS/DSP/Source/FilteringFunctions/arm_fir_f32.c **** * Set the values in the state buffer to zeros before static initialization.
  90:Drivers/CMSIS/DSP/Source/FilteringFunctions/arm_fir_f32.c **** * The code below statically initializes each of the 4 different data type filter instance structure
  91:Drivers/CMSIS/DSP/Source/FilteringFunctions/arm_fir_f32.c **** * <pre>
  92:Drivers/CMSIS/DSP/Source/FilteringFunctions/arm_fir_f32.c **** *arm_fir_instance_f32 S = {numTaps, pState, pCoeffs};
  93:Drivers/CMSIS/DSP/Source/FilteringFunctions/arm_fir_f32.c **** *arm_fir_instance_q31 S = {numTaps, pState, pCoeffs};
  94:Drivers/CMSIS/DSP/Source/FilteringFunctions/arm_fir_f32.c **** *arm_fir_instance_q15 S = {numTaps, pState, pCoeffs};
  95:Drivers/CMSIS/DSP/Source/FilteringFunctions/arm_fir_f32.c **** *arm_fir_instance_q7 S =  {numTaps, pState, pCoeffs};
  96:Drivers/CMSIS/DSP/Source/FilteringFunctions/arm_fir_f32.c **** * </pre>
  97:Drivers/CMSIS/DSP/Source/FilteringFunctions/arm_fir_f32.c **** *
  98:Drivers/CMSIS/DSP/Source/FilteringFunctions/arm_fir_f32.c **** * where <code>numTaps</code> is the number of filter coefficients in the filter; <code>pState</code
  99:Drivers/CMSIS/DSP/Source/FilteringFunctions/arm_fir_f32.c **** * <code>pCoeffs</code> is the address of the coefficient buffer.
 100:Drivers/CMSIS/DSP/Source/FilteringFunctions/arm_fir_f32.c **** *
 101:Drivers/CMSIS/DSP/Source/FilteringFunctions/arm_fir_f32.c **** * \par Fixed-Point Behavior
 102:Drivers/CMSIS/DSP/Source/FilteringFunctions/arm_fir_f32.c **** * Care must be taken when using the fixed-point versions of the FIR filter functions.
 103:Drivers/CMSIS/DSP/Source/FilteringFunctions/arm_fir_f32.c **** * In particular, the overflow and saturation behavior of the accumulator used in each function must
 104:Drivers/CMSIS/DSP/Source/FilteringFunctions/arm_fir_f32.c **** * Refer to the function specific documentation below for usage guidelines.
 105:Drivers/CMSIS/DSP/Source/FilteringFunctions/arm_fir_f32.c **** */
 106:Drivers/CMSIS/DSP/Source/FilteringFunctions/arm_fir_f32.c **** 
 107:Drivers/CMSIS/DSP/Source/FilteringFunctions/arm_fir_f32.c **** /**
 108:Drivers/CMSIS/DSP/Source/FilteringFunctions/arm_fir_f32.c **** * @addtogroup FIR
 109:Drivers/CMSIS/DSP/Source/FilteringFunctions/arm_fir_f32.c **** * @{
 110:Drivers/CMSIS/DSP/Source/FilteringFunctions/arm_fir_f32.c **** */
 111:Drivers/CMSIS/DSP/Source/FilteringFunctions/arm_fir_f32.c **** 
 112:Drivers/CMSIS/DSP/Source/FilteringFunctions/arm_fir_f32.c **** /**
 113:Drivers/CMSIS/DSP/Source/FilteringFunctions/arm_fir_f32.c **** *
 114:Drivers/CMSIS/DSP/Source/FilteringFunctions/arm_fir_f32.c **** * @param[in]  *S points to an instance of the floating-point FIR filter structure.
 115:Drivers/CMSIS/DSP/Source/FilteringFunctions/arm_fir_f32.c **** * @param[in]  *pSrc points to the block of input data.
 116:Drivers/CMSIS/DSP/Source/FilteringFunctions/arm_fir_f32.c **** * @param[out] *pDst points to the block of output data.
 117:Drivers/CMSIS/DSP/Source/FilteringFunctions/arm_fir_f32.c **** * @param[in]  blockSize number of samples to process per call.
 118:Drivers/CMSIS/DSP/Source/FilteringFunctions/arm_fir_f32.c **** * @return     none.
 119:Drivers/CMSIS/DSP/Source/FilteringFunctions/arm_fir_f32.c **** *
 120:Drivers/CMSIS/DSP/Source/FilteringFunctions/arm_fir_f32.c **** */
 121:Drivers/CMSIS/DSP/Source/FilteringFunctions/arm_fir_f32.c **** 
 122:Drivers/CMSIS/DSP/Source/FilteringFunctions/arm_fir_f32.c **** #if defined(ARM_MATH_CM7)
 123:Drivers/CMSIS/DSP/Source/FilteringFunctions/arm_fir_f32.c **** 
 124:Drivers/CMSIS/DSP/Source/FilteringFunctions/arm_fir_f32.c **** void arm_fir_f32(
 125:Drivers/CMSIS/DSP/Source/FilteringFunctions/arm_fir_f32.c **** const arm_fir_instance_f32 * S,
 126:Drivers/CMSIS/DSP/Source/FilteringFunctions/arm_fir_f32.c **** float32_t * pSrc,
 127:Drivers/CMSIS/DSP/Source/FilteringFunctions/arm_fir_f32.c **** float32_t * pDst,
 128:Drivers/CMSIS/DSP/Source/FilteringFunctions/arm_fir_f32.c **** uint32_t blockSize)
 129:Drivers/CMSIS/DSP/Source/FilteringFunctions/arm_fir_f32.c **** {
  29              		.loc 1 129 1 view -0
  30              		.cfi_startproc
  31              		@ args = 0, pretend = 0, frame = 0
  32              		@ frame_needed = 0, uses_anonymous_args = 0
  33              		.loc 1 129 1 is_stmt 0 view .LVU1
  34 0000 2DE9F047 		push	{r4, r5, r6, r7, r8, r9, r10, lr}
  35              		.cfi_def_cfa_offset 32
  36              		.cfi_offset 4, -32
  37              		.cfi_offset 5, -28
  38              		.cfi_offset 6, -24
  39              		.cfi_offset 7, -20
  40              		.cfi_offset 8, -16
  41              		.cfi_offset 9, -12
  42              		.cfi_offset 10, -8
  43              		.cfi_offset 14, -4
ARM GAS  /var/folders/n6/c271nzx11xl4r4_m7sqjlt0m0000gn/T//ccA39Knf.s 			page 4


  44 0004 2DED028B 		vpush.64	{d8}
  45              		.cfi_def_cfa_offset 40
  46              		.cfi_offset 80, -40
  47              		.cfi_offset 81, -36
  48 0008 8846     		mov	r8, r1
  49 000a 1446     		mov	r4, r2
  50 000c 9A46     		mov	r10, r3
 130:Drivers/CMSIS/DSP/Source/FilteringFunctions/arm_fir_f32.c ****    float32_t *pState = S->pState;                 /* State pointer */
  51              		.loc 1 130 4 is_stmt 1 view .LVU2
  52              		.loc 1 130 15 is_stmt 0 view .LVU3
  53 000e 4268     		ldr	r2, [r0, #4]
  54              	.LVL1:
 131:Drivers/CMSIS/DSP/Source/FilteringFunctions/arm_fir_f32.c ****    float32_t *pCoeffs = S->pCoeffs;               /* Coefficient pointer */
  55              		.loc 1 131 4 is_stmt 1 view .LVU4
  56              		.loc 1 131 15 is_stmt 0 view .LVU5
  57 0010 8668     		ldr	r6, [r0, #8]
  58              	.LVL2:
 132:Drivers/CMSIS/DSP/Source/FilteringFunctions/arm_fir_f32.c ****    float32_t *pStateCurnt;                        /* Points to the current sample of the state */
  59              		.loc 1 132 4 is_stmt 1 view .LVU6
 133:Drivers/CMSIS/DSP/Source/FilteringFunctions/arm_fir_f32.c ****    float32_t *px, *pb;                            /* Temporary pointers for state and coefficient b
  60              		.loc 1 133 4 view .LVU7
 134:Drivers/CMSIS/DSP/Source/FilteringFunctions/arm_fir_f32.c ****    float32_t acc0, acc1, acc2, acc3, acc4, acc5, acc6, acc7;     /* Accumulators */
  61              		.loc 1 134 4 view .LVU8
 135:Drivers/CMSIS/DSP/Source/FilteringFunctions/arm_fir_f32.c ****    float32_t x0, x1, x2, x3, x4, x5, x6, x7, c0;  /* Temporary variables to hold state and coeffici
  62              		.loc 1 135 4 view .LVU9
 136:Drivers/CMSIS/DSP/Source/FilteringFunctions/arm_fir_f32.c ****    uint32_t numTaps = S->numTaps;                 /* Number of filter coefficients in the filter */
  63              		.loc 1 136 4 view .LVU10
  64              		.loc 1 136 24 is_stmt 0 view .LVU11
  65 0012 0588     		ldrh	r5, [r0]
  66              	.LVL3:
 137:Drivers/CMSIS/DSP/Source/FilteringFunctions/arm_fir_f32.c ****    uint32_t i, tapCnt, blkCnt;                    /* Loop counters */
  67              		.loc 1 137 4 is_stmt 1 view .LVU12
 138:Drivers/CMSIS/DSP/Source/FilteringFunctions/arm_fir_f32.c **** 
 139:Drivers/CMSIS/DSP/Source/FilteringFunctions/arm_fir_f32.c ****    /* S->pState points to state array which contains previous frame (numTaps - 1) samples */
 140:Drivers/CMSIS/DSP/Source/FilteringFunctions/arm_fir_f32.c ****    /* pStateCurnt points to the location where the new input data should be written */
 141:Drivers/CMSIS/DSP/Source/FilteringFunctions/arm_fir_f32.c ****    pStateCurnt = &(S->pState[(numTaps - 1U)]);
  68              		.loc 1 141 4 view .LVU13
  69              		.loc 1 141 29 is_stmt 0 view .LVU14
  70 0014 6FF04047 		mvn	r7, #-1073741824
  71 0018 2F44     		add	r7, r7, r5
  72              		.loc 1 141 16 view .LVU15
  73 001a 02EB8707 		add	r7, r2, r7, lsl #2
  74              	.LVL4:
 142:Drivers/CMSIS/DSP/Source/FilteringFunctions/arm_fir_f32.c **** 
 143:Drivers/CMSIS/DSP/Source/FilteringFunctions/arm_fir_f32.c ****    /* Apply loop unrolling and compute 8 output values simultaneously.
 144:Drivers/CMSIS/DSP/Source/FilteringFunctions/arm_fir_f32.c ****     * The variables acc0 ... acc7 hold output values that are being computed:
 145:Drivers/CMSIS/DSP/Source/FilteringFunctions/arm_fir_f32.c ****     *
 146:Drivers/CMSIS/DSP/Source/FilteringFunctions/arm_fir_f32.c ****     *    acc0 =  b[numTaps-1] * x[n-numTaps-1] + b[numTaps-2] * x[n-numTaps-2] + b[numTaps-3] * x[n
 147:Drivers/CMSIS/DSP/Source/FilteringFunctions/arm_fir_f32.c ****     *    acc1 =  b[numTaps-1] * x[n-numTaps] +   b[numTaps-2] * x[n-numTaps-1] + b[numTaps-3] * x[n
 148:Drivers/CMSIS/DSP/Source/FilteringFunctions/arm_fir_f32.c ****     *    acc2 =  b[numTaps-1] * x[n-numTaps+1] + b[numTaps-2] * x[n-numTaps] +   b[numTaps-3] * x[n
 149:Drivers/CMSIS/DSP/Source/FilteringFunctions/arm_fir_f32.c ****     *    acc3 =  b[numTaps-1] * x[n-numTaps+2] + b[numTaps-2] * x[n-numTaps+1] + b[numTaps-3] * x[n
 150:Drivers/CMSIS/DSP/Source/FilteringFunctions/arm_fir_f32.c ****     */
 151:Drivers/CMSIS/DSP/Source/FilteringFunctions/arm_fir_f32.c ****    blkCnt = blockSize >> 3;
  75              		.loc 1 151 4 is_stmt 1 view .LVU16
  76              		.loc 1 151 11 is_stmt 0 view .LVU17
  77 001e DB08     		lsrs	r3, r3, #3
  78              	.LVL5:
ARM GAS  /var/folders/n6/c271nzx11xl4r4_m7sqjlt0m0000gn/T//ccA39Knf.s 			page 5


 152:Drivers/CMSIS/DSP/Source/FilteringFunctions/arm_fir_f32.c **** 
 153:Drivers/CMSIS/DSP/Source/FilteringFunctions/arm_fir_f32.c ****    /* First part of the processing with loop unrolling.  Compute 8 outputs at a time.
 154:Drivers/CMSIS/DSP/Source/FilteringFunctions/arm_fir_f32.c ****    ** a second loop below computes the remaining 1 to 7 samples. */
 155:Drivers/CMSIS/DSP/Source/FilteringFunctions/arm_fir_f32.c ****    while (blkCnt > 0U)
  79              		.loc 1 155 4 is_stmt 1 view .LVU18
  80              		.loc 1 155 10 is_stmt 0 view .LVU19
  81 0020 73E1     		b	.L2
  82              	.LVL6:
  83              	.L4:
 156:Drivers/CMSIS/DSP/Source/FilteringFunctions/arm_fir_f32.c ****    {
 157:Drivers/CMSIS/DSP/Source/FilteringFunctions/arm_fir_f32.c ****       /* Copy four new input samples into the state buffer */
 158:Drivers/CMSIS/DSP/Source/FilteringFunctions/arm_fir_f32.c ****       *pStateCurnt++ = *pSrc++;
 159:Drivers/CMSIS/DSP/Source/FilteringFunctions/arm_fir_f32.c ****       *pStateCurnt++ = *pSrc++;
 160:Drivers/CMSIS/DSP/Source/FilteringFunctions/arm_fir_f32.c ****       *pStateCurnt++ = *pSrc++;
 161:Drivers/CMSIS/DSP/Source/FilteringFunctions/arm_fir_f32.c ****       *pStateCurnt++ = *pSrc++;
 162:Drivers/CMSIS/DSP/Source/FilteringFunctions/arm_fir_f32.c **** 
 163:Drivers/CMSIS/DSP/Source/FilteringFunctions/arm_fir_f32.c ****       /* Set all accumulators to zero */
 164:Drivers/CMSIS/DSP/Source/FilteringFunctions/arm_fir_f32.c ****       acc0 = 0.0f;
 165:Drivers/CMSIS/DSP/Source/FilteringFunctions/arm_fir_f32.c ****       acc1 = 0.0f;
 166:Drivers/CMSIS/DSP/Source/FilteringFunctions/arm_fir_f32.c ****       acc2 = 0.0f;
 167:Drivers/CMSIS/DSP/Source/FilteringFunctions/arm_fir_f32.c ****       acc3 = 0.0f;
 168:Drivers/CMSIS/DSP/Source/FilteringFunctions/arm_fir_f32.c ****       acc4 = 0.0f;
 169:Drivers/CMSIS/DSP/Source/FilteringFunctions/arm_fir_f32.c ****       acc5 = 0.0f;
 170:Drivers/CMSIS/DSP/Source/FilteringFunctions/arm_fir_f32.c ****       acc6 = 0.0f;
 171:Drivers/CMSIS/DSP/Source/FilteringFunctions/arm_fir_f32.c ****       acc7 = 0.0f;
 172:Drivers/CMSIS/DSP/Source/FilteringFunctions/arm_fir_f32.c **** 
 173:Drivers/CMSIS/DSP/Source/FilteringFunctions/arm_fir_f32.c ****       /* Initialize state pointer */
 174:Drivers/CMSIS/DSP/Source/FilteringFunctions/arm_fir_f32.c ****       px = pState;
 175:Drivers/CMSIS/DSP/Source/FilteringFunctions/arm_fir_f32.c **** 
 176:Drivers/CMSIS/DSP/Source/FilteringFunctions/arm_fir_f32.c ****       /* Initialize coeff pointer */
 177:Drivers/CMSIS/DSP/Source/FilteringFunctions/arm_fir_f32.c ****       pb = (pCoeffs);
 178:Drivers/CMSIS/DSP/Source/FilteringFunctions/arm_fir_f32.c **** 
 179:Drivers/CMSIS/DSP/Source/FilteringFunctions/arm_fir_f32.c ****       /* This is separated from the others to avoid
 180:Drivers/CMSIS/DSP/Source/FilteringFunctions/arm_fir_f32.c ****        * a call to __aeabi_memmove which would be slower
 181:Drivers/CMSIS/DSP/Source/FilteringFunctions/arm_fir_f32.c ****        */
 182:Drivers/CMSIS/DSP/Source/FilteringFunctions/arm_fir_f32.c ****       *pStateCurnt++ = *pSrc++;
 183:Drivers/CMSIS/DSP/Source/FilteringFunctions/arm_fir_f32.c ****       *pStateCurnt++ = *pSrc++;
 184:Drivers/CMSIS/DSP/Source/FilteringFunctions/arm_fir_f32.c ****       *pStateCurnt++ = *pSrc++;
 185:Drivers/CMSIS/DSP/Source/FilteringFunctions/arm_fir_f32.c ****       *pStateCurnt++ = *pSrc++;
 186:Drivers/CMSIS/DSP/Source/FilteringFunctions/arm_fir_f32.c **** 
 187:Drivers/CMSIS/DSP/Source/FilteringFunctions/arm_fir_f32.c ****       /* Read the first seven samples from the state buffer:  x[n-numTaps], x[n-numTaps-1], x[n-num
 188:Drivers/CMSIS/DSP/Source/FilteringFunctions/arm_fir_f32.c ****       x0 = *px++;
 189:Drivers/CMSIS/DSP/Source/FilteringFunctions/arm_fir_f32.c ****       x1 = *px++;
 190:Drivers/CMSIS/DSP/Source/FilteringFunctions/arm_fir_f32.c ****       x2 = *px++;
 191:Drivers/CMSIS/DSP/Source/FilteringFunctions/arm_fir_f32.c ****       x3 = *px++;
 192:Drivers/CMSIS/DSP/Source/FilteringFunctions/arm_fir_f32.c ****       x4 = *px++;
 193:Drivers/CMSIS/DSP/Source/FilteringFunctions/arm_fir_f32.c ****       x5 = *px++;
 194:Drivers/CMSIS/DSP/Source/FilteringFunctions/arm_fir_f32.c ****       x6 = *px++;
 195:Drivers/CMSIS/DSP/Source/FilteringFunctions/arm_fir_f32.c **** 
 196:Drivers/CMSIS/DSP/Source/FilteringFunctions/arm_fir_f32.c ****       /* Loop unrolling.  Process 8 taps at a time. */
 197:Drivers/CMSIS/DSP/Source/FilteringFunctions/arm_fir_f32.c ****       tapCnt = numTaps >> 3U;
 198:Drivers/CMSIS/DSP/Source/FilteringFunctions/arm_fir_f32.c **** 
 199:Drivers/CMSIS/DSP/Source/FilteringFunctions/arm_fir_f32.c ****       /* Loop over the number of taps.  Unroll by a factor of 8.
 200:Drivers/CMSIS/DSP/Source/FilteringFunctions/arm_fir_f32.c ****        ** Repeat until we've computed numTaps-8 coefficients. */
 201:Drivers/CMSIS/DSP/Source/FilteringFunctions/arm_fir_f32.c ****       while (tapCnt > 0U)
 202:Drivers/CMSIS/DSP/Source/FilteringFunctions/arm_fir_f32.c ****       {
 203:Drivers/CMSIS/DSP/Source/FilteringFunctions/arm_fir_f32.c ****          /* Read the b[numTaps-1] coefficient */
ARM GAS  /var/folders/n6/c271nzx11xl4r4_m7sqjlt0m0000gn/T//ccA39Knf.s 			page 6


 204:Drivers/CMSIS/DSP/Source/FilteringFunctions/arm_fir_f32.c ****          c0 = *(pb++);
  84              		.loc 1 204 10 is_stmt 1 view .LVU20
  85              		.loc 1 204 13 is_stmt 0 view .LVU21
  86 0022 DCED007A 		vldr.32	s15, [ip]
  87              	.LVL7:
 205:Drivers/CMSIS/DSP/Source/FilteringFunctions/arm_fir_f32.c **** 
 206:Drivers/CMSIS/DSP/Source/FilteringFunctions/arm_fir_f32.c ****          /* Read x[n-numTaps-3] sample */
 207:Drivers/CMSIS/DSP/Source/FilteringFunctions/arm_fir_f32.c ****          x7 = *(px++);
  88              		.loc 1 207 10 is_stmt 1 view .LVU22
  89              		.loc 1 207 13 is_stmt 0 view .LVU23
  90 0026 91ED003A 		vldr.32	s6, [r1]
  91              	.LVL8:
 208:Drivers/CMSIS/DSP/Source/FilteringFunctions/arm_fir_f32.c **** 
 209:Drivers/CMSIS/DSP/Source/FilteringFunctions/arm_fir_f32.c ****          /* acc0 +=  b[numTaps-1] * x[n-numTaps] */
 210:Drivers/CMSIS/DSP/Source/FilteringFunctions/arm_fir_f32.c ****          acc0 += x0 * c0;
  92              		.loc 1 210 10 is_stmt 1 view .LVU24
  93              		.loc 1 210 21 is_stmt 0 view .LVU25
  94 002a 66EEA78A 		vmul.f32	s17, s13, s15
  95              		.loc 1 210 15 view .LVU26
  96 002e 78EEA28A 		vadd.f32	s17, s17, s5
  97              	.LVL9:
 211:Drivers/CMSIS/DSP/Source/FilteringFunctions/arm_fir_f32.c **** 
 212:Drivers/CMSIS/DSP/Source/FilteringFunctions/arm_fir_f32.c ****          /* acc1 +=  b[numTaps-1] * x[n-numTaps-1] */
 213:Drivers/CMSIS/DSP/Source/FilteringFunctions/arm_fir_f32.c ****          acc1 += x1 * c0;
  98              		.loc 1 213 10 is_stmt 1 view .LVU27
  99              		.loc 1 213 21 is_stmt 0 view .LVU28
 100 0032 66EE276A 		vmul.f32	s13, s12, s15
 101              	.LVL10:
 102              		.loc 1 213 15 view .LVU29
 103 0036 36EE888A 		vadd.f32	s16, s13, s16
 104              	.LVL11:
 214:Drivers/CMSIS/DSP/Source/FilteringFunctions/arm_fir_f32.c **** 
 215:Drivers/CMSIS/DSP/Source/FilteringFunctions/arm_fir_f32.c ****          /* acc2 +=  b[numTaps-1] * x[n-numTaps-2] */
 216:Drivers/CMSIS/DSP/Source/FilteringFunctions/arm_fir_f32.c ****          acc2 += x2 * c0;
 105              		.loc 1 216 10 is_stmt 1 view .LVU30
 106              		.loc 1 216 21 is_stmt 0 view .LVU31
 107 003a 65EEA72A 		vmul.f32	s5, s11, s15
 108              		.loc 1 216 15 view .LVU32
 109 003e 72EE802A 		vadd.f32	s5, s5, s0
 110              	.LVL12:
 217:Drivers/CMSIS/DSP/Source/FilteringFunctions/arm_fir_f32.c **** 
 218:Drivers/CMSIS/DSP/Source/FilteringFunctions/arm_fir_f32.c ****          /* acc3 +=  b[numTaps-1] * x[n-numTaps-3] */
 219:Drivers/CMSIS/DSP/Source/FilteringFunctions/arm_fir_f32.c ****          acc3 += x3 * c0;
 111              		.loc 1 219 10 is_stmt 1 view .LVU33
 112              		.loc 1 219 21 is_stmt 0 view .LVU34
 113 0042 25EE270A 		vmul.f32	s0, s10, s15
 114              		.loc 1 219 15 view .LVU35
 115 0046 30EE200A 		vadd.f32	s0, s0, s1
 116              	.LVL13:
 220:Drivers/CMSIS/DSP/Source/FilteringFunctions/arm_fir_f32.c **** 
 221:Drivers/CMSIS/DSP/Source/FilteringFunctions/arm_fir_f32.c ****          /* acc4 +=  b[numTaps-1] * x[n-numTaps-4] */
 222:Drivers/CMSIS/DSP/Source/FilteringFunctions/arm_fir_f32.c ****          acc4 += x4 * c0;
 117              		.loc 1 222 10 is_stmt 1 view .LVU36
 118              		.loc 1 222 21 is_stmt 0 view .LVU37
 119 004a 64EEA70A 		vmul.f32	s1, s9, s15
 120              		.loc 1 222 15 view .LVU38
 121 004e 70EE810A 		vadd.f32	s1, s1, s2
ARM GAS  /var/folders/n6/c271nzx11xl4r4_m7sqjlt0m0000gn/T//ccA39Knf.s 			page 7


 122              	.LVL14:
 223:Drivers/CMSIS/DSP/Source/FilteringFunctions/arm_fir_f32.c **** 
 224:Drivers/CMSIS/DSP/Source/FilteringFunctions/arm_fir_f32.c ****          /* acc1 +=  b[numTaps-1] * x[n-numTaps-5] */
 225:Drivers/CMSIS/DSP/Source/FilteringFunctions/arm_fir_f32.c ****          acc5 += x5 * c0;
 123              		.loc 1 225 10 is_stmt 1 view .LVU39
 124              		.loc 1 225 21 is_stmt 0 view .LVU40
 125 0052 24EE271A 		vmul.f32	s2, s8, s15
 126              		.loc 1 225 15 view .LVU41
 127 0056 31EE211A 		vadd.f32	s2, s2, s3
 128              	.LVL15:
 226:Drivers/CMSIS/DSP/Source/FilteringFunctions/arm_fir_f32.c **** 
 227:Drivers/CMSIS/DSP/Source/FilteringFunctions/arm_fir_f32.c ****          /* acc2 +=  b[numTaps-1] * x[n-numTaps-6] */
 228:Drivers/CMSIS/DSP/Source/FilteringFunctions/arm_fir_f32.c ****          acc6 += x6 * c0;
 129              		.loc 1 228 10 is_stmt 1 view .LVU42
 130              		.loc 1 228 21 is_stmt 0 view .LVU43
 131 005a 63EEA71A 		vmul.f32	s3, s7, s15
 132              		.loc 1 228 15 view .LVU44
 133 005e 71EE821A 		vadd.f32	s3, s3, s4
 134              	.LVL16:
 229:Drivers/CMSIS/DSP/Source/FilteringFunctions/arm_fir_f32.c **** 
 230:Drivers/CMSIS/DSP/Source/FilteringFunctions/arm_fir_f32.c ****          /* acc3 +=  b[numTaps-1] * x[n-numTaps-7] */
 231:Drivers/CMSIS/DSP/Source/FilteringFunctions/arm_fir_f32.c ****          acc7 += x7 * c0;
 135              		.loc 1 231 10 is_stmt 1 view .LVU45
 136              		.loc 1 231 21 is_stmt 0 view .LVU46
 137 0062 67EE837A 		vmul.f32	s15, s15, s6
 138              	.LVL17:
 139              		.loc 1 231 15 view .LVU47
 140 0066 37EE877A 		vadd.f32	s14, s15, s14
 141              	.LVL18:
 232:Drivers/CMSIS/DSP/Source/FilteringFunctions/arm_fir_f32.c **** 
 233:Drivers/CMSIS/DSP/Source/FilteringFunctions/arm_fir_f32.c ****          /* Read the b[numTaps-2] coefficient */
 234:Drivers/CMSIS/DSP/Source/FilteringFunctions/arm_fir_f32.c ****          c0 = *(pb++);
 142              		.loc 1 234 10 is_stmt 1 view .LVU48
 143              		.loc 1 234 13 is_stmt 0 view .LVU49
 144 006a DCED017A 		vldr.32	s15, [ip, #4]
 145              	.LVL19:
 235:Drivers/CMSIS/DSP/Source/FilteringFunctions/arm_fir_f32.c **** 
 236:Drivers/CMSIS/DSP/Source/FilteringFunctions/arm_fir_f32.c ****          /* Read x[n-numTaps-4] sample */
 237:Drivers/CMSIS/DSP/Source/FilteringFunctions/arm_fir_f32.c ****          x0 = *(px++);
 146              		.loc 1 237 10 is_stmt 1 view .LVU50
 147              		.loc 1 237 13 is_stmt 0 view .LVU51
 148 006e D1ED016A 		vldr.32	s13, [r1, #4]
 149              	.LVL20:
 238:Drivers/CMSIS/DSP/Source/FilteringFunctions/arm_fir_f32.c **** 
 239:Drivers/CMSIS/DSP/Source/FilteringFunctions/arm_fir_f32.c ****          /* Perform the multiply-accumulate */
 240:Drivers/CMSIS/DSP/Source/FilteringFunctions/arm_fir_f32.c ****          acc0 += x1 * c0;
 150              		.loc 1 240 10 is_stmt 1 view .LVU52
 151              		.loc 1 240 21 is_stmt 0 view .LVU53
 152 0072 26EE272A 		vmul.f32	s4, s12, s15
 153              		.loc 1 240 15 view .LVU54
 154 0076 32EE282A 		vadd.f32	s4, s4, s17
 155              	.LVL21:
 241:Drivers/CMSIS/DSP/Source/FilteringFunctions/arm_fir_f32.c ****          acc1 += x2 * c0;
 156              		.loc 1 241 10 is_stmt 1 view .LVU55
 157              		.loc 1 241 21 is_stmt 0 view .LVU56
 158 007a 65EEA78A 		vmul.f32	s17, s11, s15
 159              		.loc 1 241 15 view .LVU57
ARM GAS  /var/folders/n6/c271nzx11xl4r4_m7sqjlt0m0000gn/T//ccA39Knf.s 			page 8


 160 007e 78EE888A 		vadd.f32	s17, s17, s16
 161              	.LVL22:
 242:Drivers/CMSIS/DSP/Source/FilteringFunctions/arm_fir_f32.c ****          acc2 += x3 * c0;
 162              		.loc 1 242 10 is_stmt 1 view .LVU58
 163              		.loc 1 242 21 is_stmt 0 view .LVU59
 164 0082 25EE278A 		vmul.f32	s16, s10, s15
 165              		.loc 1 242 15 view .LVU60
 166 0086 38EE228A 		vadd.f32	s16, s16, s5
 167              	.LVL23:
 243:Drivers/CMSIS/DSP/Source/FilteringFunctions/arm_fir_f32.c ****          acc3 += x4 * c0;
 168              		.loc 1 243 10 is_stmt 1 view .LVU61
 169              		.loc 1 243 21 is_stmt 0 view .LVU62
 170 008a 64EEA72A 		vmul.f32	s5, s9, s15
 171              		.loc 1 243 15 view .LVU63
 172 008e 72EE802A 		vadd.f32	s5, s5, s0
 173              	.LVL24:
 244:Drivers/CMSIS/DSP/Source/FilteringFunctions/arm_fir_f32.c ****          acc4 += x5 * c0;
 174              		.loc 1 244 10 is_stmt 1 view .LVU64
 175              		.loc 1 244 21 is_stmt 0 view .LVU65
 176 0092 24EE270A 		vmul.f32	s0, s8, s15
 177              		.loc 1 244 15 view .LVU66
 178 0096 30EE200A 		vadd.f32	s0, s0, s1
 179              	.LVL25:
 245:Drivers/CMSIS/DSP/Source/FilteringFunctions/arm_fir_f32.c ****          acc5 += x6 * c0;
 180              		.loc 1 245 10 is_stmt 1 view .LVU67
 181              		.loc 1 245 21 is_stmt 0 view .LVU68
 182 009a 63EEA70A 		vmul.f32	s1, s7, s15
 183              		.loc 1 245 15 view .LVU69
 184 009e 70EE810A 		vadd.f32	s1, s1, s2
 185              	.LVL26:
 246:Drivers/CMSIS/DSP/Source/FilteringFunctions/arm_fir_f32.c ****          acc6 += x7 * c0;
 186              		.loc 1 246 10 is_stmt 1 view .LVU70
 187              		.loc 1 246 21 is_stmt 0 view .LVU71
 188 00a2 23EE271A 		vmul.f32	s2, s6, s15
 189              		.loc 1 246 15 view .LVU72
 190 00a6 31EE211A 		vadd.f32	s2, s2, s3
 191              	.LVL27:
 247:Drivers/CMSIS/DSP/Source/FilteringFunctions/arm_fir_f32.c ****          acc7 += x0 * c0;
 192              		.loc 1 247 10 is_stmt 1 view .LVU73
 193              		.loc 1 247 21 is_stmt 0 view .LVU74
 194 00aa 67EEA67A 		vmul.f32	s15, s15, s13
 195              	.LVL28:
 196              		.loc 1 247 15 view .LVU75
 197 00ae 37EE877A 		vadd.f32	s14, s15, s14
 198              	.LVL29:
 248:Drivers/CMSIS/DSP/Source/FilteringFunctions/arm_fir_f32.c **** 
 249:Drivers/CMSIS/DSP/Source/FilteringFunctions/arm_fir_f32.c ****          /* Read the b[numTaps-3] coefficient */
 250:Drivers/CMSIS/DSP/Source/FilteringFunctions/arm_fir_f32.c ****          c0 = *(pb++);
 199              		.loc 1 250 10 is_stmt 1 view .LVU76
 200              		.loc 1 250 13 is_stmt 0 view .LVU77
 201 00b2 DCED027A 		vldr.32	s15, [ip, #8]
 202              	.LVL30:
 251:Drivers/CMSIS/DSP/Source/FilteringFunctions/arm_fir_f32.c **** 
 252:Drivers/CMSIS/DSP/Source/FilteringFunctions/arm_fir_f32.c ****          /* Read x[n-numTaps-5] sample */
 253:Drivers/CMSIS/DSP/Source/FilteringFunctions/arm_fir_f32.c ****          x1 = *(px++);
 203              		.loc 1 253 10 is_stmt 1 view .LVU78
 204              		.loc 1 253 13 is_stmt 0 view .LVU79
ARM GAS  /var/folders/n6/c271nzx11xl4r4_m7sqjlt0m0000gn/T//ccA39Knf.s 			page 9


 205 00b6 91ED026A 		vldr.32	s12, [r1, #8]
 206              	.LVL31:
 254:Drivers/CMSIS/DSP/Source/FilteringFunctions/arm_fir_f32.c **** 
 255:Drivers/CMSIS/DSP/Source/FilteringFunctions/arm_fir_f32.c ****          /* Perform the multiply-accumulates */
 256:Drivers/CMSIS/DSP/Source/FilteringFunctions/arm_fir_f32.c ****          acc0 += x2 * c0;
 207              		.loc 1 256 10 is_stmt 1 view .LVU80
 208              		.loc 1 256 21 is_stmt 0 view .LVU81
 209 00ba 65EEA71A 		vmul.f32	s3, s11, s15
 210              		.loc 1 256 15 view .LVU82
 211 00be 71EE821A 		vadd.f32	s3, s3, s4
 212              	.LVL32:
 257:Drivers/CMSIS/DSP/Source/FilteringFunctions/arm_fir_f32.c ****          acc1 += x3 * c0;
 213              		.loc 1 257 10 is_stmt 1 view .LVU83
 214              		.loc 1 257 21 is_stmt 0 view .LVU84
 215 00c2 25EE272A 		vmul.f32	s4, s10, s15
 216              		.loc 1 257 15 view .LVU85
 217 00c6 32EE282A 		vadd.f32	s4, s4, s17
 218              	.LVL33:
 258:Drivers/CMSIS/DSP/Source/FilteringFunctions/arm_fir_f32.c ****          acc2 += x4 * c0;
 219              		.loc 1 258 10 is_stmt 1 view .LVU86
 220              		.loc 1 258 21 is_stmt 0 view .LVU87
 221 00ca 64EEA78A 		vmul.f32	s17, s9, s15
 222              		.loc 1 258 15 view .LVU88
 223 00ce 78EE888A 		vadd.f32	s17, s17, s16
 224              	.LVL34:
 259:Drivers/CMSIS/DSP/Source/FilteringFunctions/arm_fir_f32.c ****          acc3 += x5 * c0;
 225              		.loc 1 259 10 is_stmt 1 view .LVU89
 226              		.loc 1 259 21 is_stmt 0 view .LVU90
 227 00d2 24EE278A 		vmul.f32	s16, s8, s15
 228              		.loc 1 259 15 view .LVU91
 229 00d6 38EE228A 		vadd.f32	s16, s16, s5
 230              	.LVL35:
 260:Drivers/CMSIS/DSP/Source/FilteringFunctions/arm_fir_f32.c ****          acc4 += x6 * c0;
 231              		.loc 1 260 10 is_stmt 1 view .LVU92
 232              		.loc 1 260 21 is_stmt 0 view .LVU93
 233 00da 63EEA72A 		vmul.f32	s5, s7, s15
 234              		.loc 1 260 15 view .LVU94
 235 00de 72EE802A 		vadd.f32	s5, s5, s0
 236              	.LVL36:
 261:Drivers/CMSIS/DSP/Source/FilteringFunctions/arm_fir_f32.c ****          acc5 += x7 * c0;
 237              		.loc 1 261 10 is_stmt 1 view .LVU95
 238              		.loc 1 261 21 is_stmt 0 view .LVU96
 239 00e2 23EE270A 		vmul.f32	s0, s6, s15
 240              		.loc 1 261 15 view .LVU97
 241 00e6 30EE200A 		vadd.f32	s0, s0, s1
 242              	.LVL37:
 262:Drivers/CMSIS/DSP/Source/FilteringFunctions/arm_fir_f32.c ****          acc6 += x0 * c0;
 243              		.loc 1 262 10 is_stmt 1 view .LVU98
 244              		.loc 1 262 21 is_stmt 0 view .LVU99
 245 00ea 66EEA70A 		vmul.f32	s1, s13, s15
 246              		.loc 1 262 15 view .LVU100
 247 00ee 70EE810A 		vadd.f32	s1, s1, s2
 248              	.LVL38:
 263:Drivers/CMSIS/DSP/Source/FilteringFunctions/arm_fir_f32.c ****          acc7 += x1 * c0;
 249              		.loc 1 263 10 is_stmt 1 view .LVU101
 250              		.loc 1 263 21 is_stmt 0 view .LVU102
 251 00f2 67EE867A 		vmul.f32	s15, s15, s12
ARM GAS  /var/folders/n6/c271nzx11xl4r4_m7sqjlt0m0000gn/T//ccA39Knf.s 			page 10


 252              	.LVL39:
 253              		.loc 1 263 15 view .LVU103
 254 00f6 37EE877A 		vadd.f32	s14, s15, s14
 255              	.LVL40:
 264:Drivers/CMSIS/DSP/Source/FilteringFunctions/arm_fir_f32.c **** 
 265:Drivers/CMSIS/DSP/Source/FilteringFunctions/arm_fir_f32.c ****          /* Read the b[numTaps-4] coefficient */
 266:Drivers/CMSIS/DSP/Source/FilteringFunctions/arm_fir_f32.c ****          c0 = *(pb++);
 256              		.loc 1 266 10 is_stmt 1 view .LVU104
 257              		.loc 1 266 13 is_stmt 0 view .LVU105
 258 00fa DCED037A 		vldr.32	s15, [ip, #12]
 259              	.LVL41:
 267:Drivers/CMSIS/DSP/Source/FilteringFunctions/arm_fir_f32.c **** 
 268:Drivers/CMSIS/DSP/Source/FilteringFunctions/arm_fir_f32.c ****          /* Read x[n-numTaps-6] sample */
 269:Drivers/CMSIS/DSP/Source/FilteringFunctions/arm_fir_f32.c ****          x2 = *(px++);
 260              		.loc 1 269 10 is_stmt 1 view .LVU106
 261              		.loc 1 269 13 is_stmt 0 view .LVU107
 262 00fe D1ED035A 		vldr.32	s11, [r1, #12]
 263              	.LVL42:
 270:Drivers/CMSIS/DSP/Source/FilteringFunctions/arm_fir_f32.c **** 
 271:Drivers/CMSIS/DSP/Source/FilteringFunctions/arm_fir_f32.c ****          /* Perform the multiply-accumulates */
 272:Drivers/CMSIS/DSP/Source/FilteringFunctions/arm_fir_f32.c ****          acc0 += x3 * c0;
 264              		.loc 1 272 10 is_stmt 1 view .LVU108
 265              		.loc 1 272 21 is_stmt 0 view .LVU109
 266 0102 25EE271A 		vmul.f32	s2, s10, s15
 267              		.loc 1 272 15 view .LVU110
 268 0106 31EE211A 		vadd.f32	s2, s2, s3
 269              	.LVL43:
 273:Drivers/CMSIS/DSP/Source/FilteringFunctions/arm_fir_f32.c ****          acc1 += x4 * c0;
 270              		.loc 1 273 10 is_stmt 1 view .LVU111
 271              		.loc 1 273 21 is_stmt 0 view .LVU112
 272 010a 64EEA71A 		vmul.f32	s3, s9, s15
 273              		.loc 1 273 15 view .LVU113
 274 010e 71EE821A 		vadd.f32	s3, s3, s4
 275              	.LVL44:
 274:Drivers/CMSIS/DSP/Source/FilteringFunctions/arm_fir_f32.c ****          acc2 += x5 * c0;
 276              		.loc 1 274 10 is_stmt 1 view .LVU114
 277              		.loc 1 274 21 is_stmt 0 view .LVU115
 278 0112 24EE272A 		vmul.f32	s4, s8, s15
 279              		.loc 1 274 15 view .LVU116
 280 0116 32EE282A 		vadd.f32	s4, s4, s17
 281              	.LVL45:
 275:Drivers/CMSIS/DSP/Source/FilteringFunctions/arm_fir_f32.c ****          acc3 += x6 * c0;
 282              		.loc 1 275 10 is_stmt 1 view .LVU117
 283              		.loc 1 275 21 is_stmt 0 view .LVU118
 284 011a 63EEA78A 		vmul.f32	s17, s7, s15
 285              		.loc 1 275 15 view .LVU119
 286 011e 78EE888A 		vadd.f32	s17, s17, s16
 287              	.LVL46:
 276:Drivers/CMSIS/DSP/Source/FilteringFunctions/arm_fir_f32.c ****          acc4 += x7 * c0;
 288              		.loc 1 276 10 is_stmt 1 view .LVU120
 289              		.loc 1 276 21 is_stmt 0 view .LVU121
 290 0122 23EE278A 		vmul.f32	s16, s6, s15
 291              		.loc 1 276 15 view .LVU122
 292 0126 38EE228A 		vadd.f32	s16, s16, s5
 293              	.LVL47:
 277:Drivers/CMSIS/DSP/Source/FilteringFunctions/arm_fir_f32.c ****          acc5 += x0 * c0;
 294              		.loc 1 277 10 is_stmt 1 view .LVU123
ARM GAS  /var/folders/n6/c271nzx11xl4r4_m7sqjlt0m0000gn/T//ccA39Knf.s 			page 11


 295              		.loc 1 277 21 is_stmt 0 view .LVU124
 296 012a 66EEA72A 		vmul.f32	s5, s13, s15
 297              		.loc 1 277 15 view .LVU125
 298 012e 72EE802A 		vadd.f32	s5, s5, s0
 299              	.LVL48:
 278:Drivers/CMSIS/DSP/Source/FilteringFunctions/arm_fir_f32.c ****          acc6 += x1 * c0;
 300              		.loc 1 278 10 is_stmt 1 view .LVU126
 301              		.loc 1 278 21 is_stmt 0 view .LVU127
 302 0132 26EE270A 		vmul.f32	s0, s12, s15
 303              		.loc 1 278 15 view .LVU128
 304 0136 30EE200A 		vadd.f32	s0, s0, s1
 305              	.LVL49:
 279:Drivers/CMSIS/DSP/Source/FilteringFunctions/arm_fir_f32.c ****          acc7 += x2 * c0;
 306              		.loc 1 279 10 is_stmt 1 view .LVU129
 307              		.loc 1 279 21 is_stmt 0 view .LVU130
 308 013a 67EEA57A 		vmul.f32	s15, s15, s11
 309              	.LVL50:
 310              		.loc 1 279 15 view .LVU131
 311 013e 37EE877A 		vadd.f32	s14, s15, s14
 312              	.LVL51:
 280:Drivers/CMSIS/DSP/Source/FilteringFunctions/arm_fir_f32.c **** 
 281:Drivers/CMSIS/DSP/Source/FilteringFunctions/arm_fir_f32.c ****          /* Read the b[numTaps-4] coefficient */
 282:Drivers/CMSIS/DSP/Source/FilteringFunctions/arm_fir_f32.c ****          c0 = *(pb++);
 313              		.loc 1 282 10 is_stmt 1 view .LVU132
 314              		.loc 1 282 13 is_stmt 0 view .LVU133
 315 0142 DCED047A 		vldr.32	s15, [ip, #16]
 316              	.LVL52:
 283:Drivers/CMSIS/DSP/Source/FilteringFunctions/arm_fir_f32.c **** 
 284:Drivers/CMSIS/DSP/Source/FilteringFunctions/arm_fir_f32.c ****          /* Read x[n-numTaps-6] sample */
 285:Drivers/CMSIS/DSP/Source/FilteringFunctions/arm_fir_f32.c ****          x3 = *(px++);
 317              		.loc 1 285 10 is_stmt 1 view .LVU134
 318              		.loc 1 285 13 is_stmt 0 view .LVU135
 319 0146 91ED045A 		vldr.32	s10, [r1, #16]
 320              	.LVL53:
 286:Drivers/CMSIS/DSP/Source/FilteringFunctions/arm_fir_f32.c ****          /* Perform the multiply-accumulates */
 287:Drivers/CMSIS/DSP/Source/FilteringFunctions/arm_fir_f32.c ****          acc0 += x4 * c0;
 321              		.loc 1 287 10 is_stmt 1 view .LVU136
 322              		.loc 1 287 21 is_stmt 0 view .LVU137
 323 014a 64EEA70A 		vmul.f32	s1, s9, s15
 324              		.loc 1 287 15 view .LVU138
 325 014e 70EE810A 		vadd.f32	s1, s1, s2
 326              	.LVL54:
 288:Drivers/CMSIS/DSP/Source/FilteringFunctions/arm_fir_f32.c ****          acc1 += x5 * c0;
 327              		.loc 1 288 10 is_stmt 1 view .LVU139
 328              		.loc 1 288 21 is_stmt 0 view .LVU140
 329 0152 24EE271A 		vmul.f32	s2, s8, s15
 330              		.loc 1 288 15 view .LVU141
 331 0156 31EE211A 		vadd.f32	s2, s2, s3
 332              	.LVL55:
 289:Drivers/CMSIS/DSP/Source/FilteringFunctions/arm_fir_f32.c ****          acc2 += x6 * c0;
 333              		.loc 1 289 10 is_stmt 1 view .LVU142
 334              		.loc 1 289 21 is_stmt 0 view .LVU143
 335 015a 63EEA71A 		vmul.f32	s3, s7, s15
 336              		.loc 1 289 15 view .LVU144
 337 015e 71EE821A 		vadd.f32	s3, s3, s4
 338              	.LVL56:
 290:Drivers/CMSIS/DSP/Source/FilteringFunctions/arm_fir_f32.c ****          acc3 += x7 * c0;
ARM GAS  /var/folders/n6/c271nzx11xl4r4_m7sqjlt0m0000gn/T//ccA39Knf.s 			page 12


 339              		.loc 1 290 10 is_stmt 1 view .LVU145
 340              		.loc 1 290 21 is_stmt 0 view .LVU146
 341 0162 23EE272A 		vmul.f32	s4, s6, s15
 342              		.loc 1 290 15 view .LVU147
 343 0166 32EE282A 		vadd.f32	s4, s4, s17
 344              	.LVL57:
 291:Drivers/CMSIS/DSP/Source/FilteringFunctions/arm_fir_f32.c ****          acc4 += x0 * c0;
 345              		.loc 1 291 10 is_stmt 1 view .LVU148
 346              		.loc 1 291 21 is_stmt 0 view .LVU149
 347 016a 66EEA78A 		vmul.f32	s17, s13, s15
 348              		.loc 1 291 15 view .LVU150
 349 016e 78EE888A 		vadd.f32	s17, s17, s16
 350              	.LVL58:
 292:Drivers/CMSIS/DSP/Source/FilteringFunctions/arm_fir_f32.c ****          acc5 += x1 * c0;
 351              		.loc 1 292 10 is_stmt 1 view .LVU151
 352              		.loc 1 292 21 is_stmt 0 view .LVU152
 353 0172 26EE278A 		vmul.f32	s16, s12, s15
 354              		.loc 1 292 15 view .LVU153
 355 0176 38EE228A 		vadd.f32	s16, s16, s5
 356              	.LVL59:
 293:Drivers/CMSIS/DSP/Source/FilteringFunctions/arm_fir_f32.c ****          acc6 += x2 * c0;
 357              		.loc 1 293 10 is_stmt 1 view .LVU154
 358              		.loc 1 293 21 is_stmt 0 view .LVU155
 359 017a 65EEA72A 		vmul.f32	s5, s11, s15
 360              		.loc 1 293 15 view .LVU156
 361 017e 72EE802A 		vadd.f32	s5, s5, s0
 362              	.LVL60:
 294:Drivers/CMSIS/DSP/Source/FilteringFunctions/arm_fir_f32.c ****          acc7 += x3 * c0;
 363              		.loc 1 294 10 is_stmt 1 view .LVU157
 364              		.loc 1 294 21 is_stmt 0 view .LVU158
 365 0182 67EE857A 		vmul.f32	s15, s15, s10
 366              	.LVL61:
 367              		.loc 1 294 15 view .LVU159
 368 0186 37EE877A 		vadd.f32	s14, s15, s14
 369              	.LVL62:
 295:Drivers/CMSIS/DSP/Source/FilteringFunctions/arm_fir_f32.c **** 
 296:Drivers/CMSIS/DSP/Source/FilteringFunctions/arm_fir_f32.c ****          /* Read the b[numTaps-4] coefficient */
 297:Drivers/CMSIS/DSP/Source/FilteringFunctions/arm_fir_f32.c ****          c0 = *(pb++);
 370              		.loc 1 297 10 is_stmt 1 view .LVU160
 371              		.loc 1 297 13 is_stmt 0 view .LVU161
 372 018a DCED057A 		vldr.32	s15, [ip, #20]
 373              	.LVL63:
 298:Drivers/CMSIS/DSP/Source/FilteringFunctions/arm_fir_f32.c **** 
 299:Drivers/CMSIS/DSP/Source/FilteringFunctions/arm_fir_f32.c ****          /* Read x[n-numTaps-6] sample */
 300:Drivers/CMSIS/DSP/Source/FilteringFunctions/arm_fir_f32.c ****          x4 = *(px++);
 374              		.loc 1 300 10 is_stmt 1 view .LVU162
 375              		.loc 1 300 13 is_stmt 0 view .LVU163
 376 018e D1ED054A 		vldr.32	s9, [r1, #20]
 377              	.LVL64:
 301:Drivers/CMSIS/DSP/Source/FilteringFunctions/arm_fir_f32.c **** 
 302:Drivers/CMSIS/DSP/Source/FilteringFunctions/arm_fir_f32.c ****          /* Perform the multiply-accumulates */
 303:Drivers/CMSIS/DSP/Source/FilteringFunctions/arm_fir_f32.c ****          acc0 += x5 * c0;
 378              		.loc 1 303 10 is_stmt 1 view .LVU164
 379              		.loc 1 303 21 is_stmt 0 view .LVU165
 380 0192 24EE270A 		vmul.f32	s0, s8, s15
 381              		.loc 1 303 15 view .LVU166
 382 0196 30EE200A 		vadd.f32	s0, s0, s1
ARM GAS  /var/folders/n6/c271nzx11xl4r4_m7sqjlt0m0000gn/T//ccA39Knf.s 			page 13


 383              	.LVL65:
 304:Drivers/CMSIS/DSP/Source/FilteringFunctions/arm_fir_f32.c ****          acc1 += x6 * c0;
 384              		.loc 1 304 10 is_stmt 1 view .LVU167
 385              		.loc 1 304 21 is_stmt 0 view .LVU168
 386 019a 63EEA70A 		vmul.f32	s1, s7, s15
 387              		.loc 1 304 15 view .LVU169
 388 019e 70EE810A 		vadd.f32	s1, s1, s2
 389              	.LVL66:
 305:Drivers/CMSIS/DSP/Source/FilteringFunctions/arm_fir_f32.c ****          acc2 += x7 * c0;
 390              		.loc 1 305 10 is_stmt 1 view .LVU170
 391              		.loc 1 305 21 is_stmt 0 view .LVU171
 392 01a2 23EE271A 		vmul.f32	s2, s6, s15
 393              		.loc 1 305 15 view .LVU172
 394 01a6 31EE211A 		vadd.f32	s2, s2, s3
 395              	.LVL67:
 306:Drivers/CMSIS/DSP/Source/FilteringFunctions/arm_fir_f32.c ****          acc3 += x0 * c0;
 396              		.loc 1 306 10 is_stmt 1 view .LVU173
 397              		.loc 1 306 21 is_stmt 0 view .LVU174
 398 01aa 66EEA71A 		vmul.f32	s3, s13, s15
 399              		.loc 1 306 15 view .LVU175
 400 01ae 71EE821A 		vadd.f32	s3, s3, s4
 401              	.LVL68:
 307:Drivers/CMSIS/DSP/Source/FilteringFunctions/arm_fir_f32.c ****          acc4 += x1 * c0;
 402              		.loc 1 307 10 is_stmt 1 view .LVU176
 403              		.loc 1 307 21 is_stmt 0 view .LVU177
 404 01b2 26EE272A 		vmul.f32	s4, s12, s15
 405              		.loc 1 307 15 view .LVU178
 406 01b6 32EE282A 		vadd.f32	s4, s4, s17
 407              	.LVL69:
 308:Drivers/CMSIS/DSP/Source/FilteringFunctions/arm_fir_f32.c ****          acc5 += x2 * c0;
 408              		.loc 1 308 10 is_stmt 1 view .LVU179
 409              		.loc 1 308 21 is_stmt 0 view .LVU180
 410 01ba 65EEA78A 		vmul.f32	s17, s11, s15
 411              		.loc 1 308 15 view .LVU181
 412 01be 78EE888A 		vadd.f32	s17, s17, s16
 413              	.LVL70:
 309:Drivers/CMSIS/DSP/Source/FilteringFunctions/arm_fir_f32.c ****          acc6 += x3 * c0;
 414              		.loc 1 309 10 is_stmt 1 view .LVU182
 415              		.loc 1 309 21 is_stmt 0 view .LVU183
 416 01c2 25EE278A 		vmul.f32	s16, s10, s15
 417              		.loc 1 309 15 view .LVU184
 418 01c6 38EE228A 		vadd.f32	s16, s16, s5
 419              	.LVL71:
 310:Drivers/CMSIS/DSP/Source/FilteringFunctions/arm_fir_f32.c ****          acc7 += x4 * c0;
 420              		.loc 1 310 10 is_stmt 1 view .LVU185
 421              		.loc 1 310 21 is_stmt 0 view .LVU186
 422 01ca 67EEA47A 		vmul.f32	s15, s15, s9
 423              	.LVL72:
 424              		.loc 1 310 15 view .LVU187
 425 01ce 37EE877A 		vadd.f32	s14, s15, s14
 426              	.LVL73:
 311:Drivers/CMSIS/DSP/Source/FilteringFunctions/arm_fir_f32.c **** 
 312:Drivers/CMSIS/DSP/Source/FilteringFunctions/arm_fir_f32.c ****          /* Read the b[numTaps-4] coefficient */
 313:Drivers/CMSIS/DSP/Source/FilteringFunctions/arm_fir_f32.c ****          c0 = *(pb++);
 427              		.loc 1 313 10 is_stmt 1 view .LVU188
 428              		.loc 1 313 13 is_stmt 0 view .LVU189
 429 01d2 DCED067A 		vldr.32	s15, [ip, #24]
ARM GAS  /var/folders/n6/c271nzx11xl4r4_m7sqjlt0m0000gn/T//ccA39Knf.s 			page 14


 430              	.LVL74:
 314:Drivers/CMSIS/DSP/Source/FilteringFunctions/arm_fir_f32.c **** 
 315:Drivers/CMSIS/DSP/Source/FilteringFunctions/arm_fir_f32.c ****          /* Read x[n-numTaps-6] sample */
 316:Drivers/CMSIS/DSP/Source/FilteringFunctions/arm_fir_f32.c ****          x5 = *(px++);
 431              		.loc 1 316 10 is_stmt 1 view .LVU190
 432              		.loc 1 316 13 is_stmt 0 view .LVU191
 433 01d6 91ED064A 		vldr.32	s8, [r1, #24]
 434              	.LVL75:
 317:Drivers/CMSIS/DSP/Source/FilteringFunctions/arm_fir_f32.c **** 
 318:Drivers/CMSIS/DSP/Source/FilteringFunctions/arm_fir_f32.c ****          /* Perform the multiply-accumulates */
 319:Drivers/CMSIS/DSP/Source/FilteringFunctions/arm_fir_f32.c ****          acc0 += x6 * c0;
 435              		.loc 1 319 10 is_stmt 1 view .LVU192
 436              		.loc 1 319 21 is_stmt 0 view .LVU193
 437 01da 63EEA72A 		vmul.f32	s5, s7, s15
 438              		.loc 1 319 15 view .LVU194
 439 01de 72EE802A 		vadd.f32	s5, s5, s0
 440              	.LVL76:
 320:Drivers/CMSIS/DSP/Source/FilteringFunctions/arm_fir_f32.c ****          acc1 += x7 * c0;
 441              		.loc 1 320 10 is_stmt 1 view .LVU195
 442              		.loc 1 320 21 is_stmt 0 view .LVU196
 443 01e2 23EE270A 		vmul.f32	s0, s6, s15
 444              		.loc 1 320 15 view .LVU197
 445 01e6 30EE200A 		vadd.f32	s0, s0, s1
 446              	.LVL77:
 321:Drivers/CMSIS/DSP/Source/FilteringFunctions/arm_fir_f32.c ****          acc2 += x0 * c0;
 447              		.loc 1 321 10 is_stmt 1 view .LVU198
 448              		.loc 1 321 21 is_stmt 0 view .LVU199
 449 01ea 66EEA70A 		vmul.f32	s1, s13, s15
 450              		.loc 1 321 15 view .LVU200
 451 01ee 70EE810A 		vadd.f32	s1, s1, s2
 452              	.LVL78:
 322:Drivers/CMSIS/DSP/Source/FilteringFunctions/arm_fir_f32.c ****          acc3 += x1 * c0;
 453              		.loc 1 322 10 is_stmt 1 view .LVU201
 454              		.loc 1 322 21 is_stmt 0 view .LVU202
 455 01f2 26EE271A 		vmul.f32	s2, s12, s15
 456              		.loc 1 322 15 view .LVU203
 457 01f6 31EE211A 		vadd.f32	s2, s2, s3
 458              	.LVL79:
 323:Drivers/CMSIS/DSP/Source/FilteringFunctions/arm_fir_f32.c ****          acc4 += x2 * c0;
 459              		.loc 1 323 10 is_stmt 1 view .LVU204
 460              		.loc 1 323 21 is_stmt 0 view .LVU205
 461 01fa 65EEA71A 		vmul.f32	s3, s11, s15
 462              		.loc 1 323 15 view .LVU206
 463 01fe 71EE821A 		vadd.f32	s3, s3, s4
 464              	.LVL80:
 324:Drivers/CMSIS/DSP/Source/FilteringFunctions/arm_fir_f32.c ****          acc5 += x3 * c0;
 465              		.loc 1 324 10 is_stmt 1 view .LVU207
 466              		.loc 1 324 21 is_stmt 0 view .LVU208
 467 0202 25EE272A 		vmul.f32	s4, s10, s15
 468              		.loc 1 324 15 view .LVU209
 469 0206 32EE282A 		vadd.f32	s4, s4, s17
 470              	.LVL81:
 325:Drivers/CMSIS/DSP/Source/FilteringFunctions/arm_fir_f32.c ****          acc6 += x4 * c0;
 471              		.loc 1 325 10 is_stmt 1 view .LVU210
 472              		.loc 1 325 21 is_stmt 0 view .LVU211
 473 020a 64EEA78A 		vmul.f32	s17, s9, s15
 474              		.loc 1 325 15 view .LVU212
ARM GAS  /var/folders/n6/c271nzx11xl4r4_m7sqjlt0m0000gn/T//ccA39Knf.s 			page 15


 475 020e 78EE888A 		vadd.f32	s17, s17, s16
 476              	.LVL82:
 326:Drivers/CMSIS/DSP/Source/FilteringFunctions/arm_fir_f32.c ****          acc7 += x5 * c0;
 477              		.loc 1 326 10 is_stmt 1 view .LVU213
 478              		.loc 1 326 21 is_stmt 0 view .LVU214
 479 0212 67EE847A 		vmul.f32	s15, s15, s8
 480              	.LVL83:
 481              		.loc 1 326 15 view .LVU215
 482 0216 77EE877A 		vadd.f32	s15, s15, s14
 483              	.LVL84:
 327:Drivers/CMSIS/DSP/Source/FilteringFunctions/arm_fir_f32.c **** 
 328:Drivers/CMSIS/DSP/Source/FilteringFunctions/arm_fir_f32.c ****          /* Read the b[numTaps-4] coefficient */
 329:Drivers/CMSIS/DSP/Source/FilteringFunctions/arm_fir_f32.c ****          c0 = *(pb++);
 484              		.loc 1 329 10 is_stmt 1 view .LVU216
 485              		.loc 1 329 13 is_stmt 0 view .LVU217
 486 021a 9CED077A 		vldr.32	s14, [ip, #28]
 487              	.LVL85:
 330:Drivers/CMSIS/DSP/Source/FilteringFunctions/arm_fir_f32.c **** 
 331:Drivers/CMSIS/DSP/Source/FilteringFunctions/arm_fir_f32.c ****          /* Read x[n-numTaps-6] sample */
 332:Drivers/CMSIS/DSP/Source/FilteringFunctions/arm_fir_f32.c ****          x6 = *(px++);
 488              		.loc 1 332 10 is_stmt 1 view .LVU218
 489              		.loc 1 332 13 is_stmt 0 view .LVU219
 490 021e D1ED073A 		vldr.32	s7, [r1, #28]
 491              	.LVL86:
 333:Drivers/CMSIS/DSP/Source/FilteringFunctions/arm_fir_f32.c **** 
 334:Drivers/CMSIS/DSP/Source/FilteringFunctions/arm_fir_f32.c ****          /* Perform the multiply-accumulates */
 335:Drivers/CMSIS/DSP/Source/FilteringFunctions/arm_fir_f32.c ****          acc0 += x7 * c0;
 492              		.loc 1 335 10 is_stmt 1 view .LVU220
 493              		.loc 1 335 21 is_stmt 0 view .LVU221
 494 0222 23EE073A 		vmul.f32	s6, s6, s14
 495              	.LVL87:
 496              		.loc 1 335 15 view .LVU222
 497 0226 73EE222A 		vadd.f32	s5, s6, s5
 498              	.LVL88:
 336:Drivers/CMSIS/DSP/Source/FilteringFunctions/arm_fir_f32.c ****          acc1 += x0 * c0;
 499              		.loc 1 336 10 is_stmt 1 view .LVU223
 500              		.loc 1 336 21 is_stmt 0 view .LVU224
 501 022a 26EE878A 		vmul.f32	s16, s13, s14
 502              		.loc 1 336 15 view .LVU225
 503 022e 38EE008A 		vadd.f32	s16, s16, s0
 504              	.LVL89:
 337:Drivers/CMSIS/DSP/Source/FilteringFunctions/arm_fir_f32.c ****          acc2 += x1 * c0;
 505              		.loc 1 337 10 is_stmt 1 view .LVU226
 506              		.loc 1 337 21 is_stmt 0 view .LVU227
 507 0232 26EE070A 		vmul.f32	s0, s12, s14
 508              		.loc 1 337 15 view .LVU228
 509 0236 30EE200A 		vadd.f32	s0, s0, s1
 510              	.LVL90:
 338:Drivers/CMSIS/DSP/Source/FilteringFunctions/arm_fir_f32.c ****          acc3 += x2 * c0;
 511              		.loc 1 338 10 is_stmt 1 view .LVU229
 512              		.loc 1 338 21 is_stmt 0 view .LVU230
 513 023a 65EE870A 		vmul.f32	s1, s11, s14
 514              		.loc 1 338 15 view .LVU231
 515 023e 70EE810A 		vadd.f32	s1, s1, s2
 516              	.LVL91:
 339:Drivers/CMSIS/DSP/Source/FilteringFunctions/arm_fir_f32.c ****          acc4 += x3 * c0;
 517              		.loc 1 339 10 is_stmt 1 view .LVU232
ARM GAS  /var/folders/n6/c271nzx11xl4r4_m7sqjlt0m0000gn/T//ccA39Knf.s 			page 16


 518              		.loc 1 339 21 is_stmt 0 view .LVU233
 519 0242 25EE071A 		vmul.f32	s2, s10, s14
 520              		.loc 1 339 15 view .LVU234
 521 0246 31EE211A 		vadd.f32	s2, s2, s3
 522              	.LVL92:
 340:Drivers/CMSIS/DSP/Source/FilteringFunctions/arm_fir_f32.c ****          acc5 += x4 * c0;
 523              		.loc 1 340 10 is_stmt 1 view .LVU235
 524              		.loc 1 340 21 is_stmt 0 view .LVU236
 525 024a 64EE871A 		vmul.f32	s3, s9, s14
 526              		.loc 1 340 15 view .LVU237
 527 024e 71EE821A 		vadd.f32	s3, s3, s4
 528              	.LVL93:
 341:Drivers/CMSIS/DSP/Source/FilteringFunctions/arm_fir_f32.c ****          acc6 += x5 * c0;
 529              		.loc 1 341 10 is_stmt 1 view .LVU238
 530              		.loc 1 341 21 is_stmt 0 view .LVU239
 531 0252 24EE072A 		vmul.f32	s4, s8, s14
 532              		.loc 1 341 15 view .LVU240
 533 0256 32EE282A 		vadd.f32	s4, s4, s17
 534              	.LVL94:
 342:Drivers/CMSIS/DSP/Source/FilteringFunctions/arm_fir_f32.c ****          acc7 += x6 * c0;
 535              		.loc 1 342 10 is_stmt 1 view .LVU241
 536              		.loc 1 342 21 is_stmt 0 view .LVU242
 537 025a 27EE237A 		vmul.f32	s14, s14, s7
 538              	.LVL95:
 539              		.loc 1 342 15 view .LVU243
 540 025e 37EE277A 		vadd.f32	s14, s14, s15
 541              	.LVL96:
 343:Drivers/CMSIS/DSP/Source/FilteringFunctions/arm_fir_f32.c **** 
 344:Drivers/CMSIS/DSP/Source/FilteringFunctions/arm_fir_f32.c ****          tapCnt--;
 542              		.loc 1 344 10 is_stmt 1 view .LVU244
 543              		.loc 1 344 16 is_stmt 0 view .LVU245
 544 0262 013F     		subs	r7, r7, #1
 545              	.LVL97:
 329:Drivers/CMSIS/DSP/Source/FilteringFunctions/arm_fir_f32.c **** 
 546              		.loc 1 329 19 view .LVU246
 547 0264 0CF1200C 		add	ip, ip, #32
 548              	.LVL98:
 332:Drivers/CMSIS/DSP/Source/FilteringFunctions/arm_fir_f32.c **** 
 549              		.loc 1 332 19 view .LVU247
 550 0268 2031     		adds	r1, r1, #32
 551              	.LVL99:
 552              	.L3:
 201:Drivers/CMSIS/DSP/Source/FilteringFunctions/arm_fir_f32.c ****       {
 553              		.loc 1 201 21 is_stmt 1 view .LVU248
 554 026a 002F     		cmp	r7, #0
 555 026c 7FF4D9AE 		bne	.L4
 345:Drivers/CMSIS/DSP/Source/FilteringFunctions/arm_fir_f32.c ****       }
 346:Drivers/CMSIS/DSP/Source/FilteringFunctions/arm_fir_f32.c **** 
 347:Drivers/CMSIS/DSP/Source/FilteringFunctions/arm_fir_f32.c ****       /* If the filter length is not a multiple of 8, compute the remaining filter taps */
 348:Drivers/CMSIS/DSP/Source/FilteringFunctions/arm_fir_f32.c ****       tapCnt = numTaps % 0x8U;
 556              		.loc 1 348 7 view .LVU249
 557              		.loc 1 348 14 is_stmt 0 view .LVU250
 558 0270 05F00707 		and	r7, r5, #7
 559              	.LVL100:
 349:Drivers/CMSIS/DSP/Source/FilteringFunctions/arm_fir_f32.c **** 
 350:Drivers/CMSIS/DSP/Source/FilteringFunctions/arm_fir_f32.c ****       while (tapCnt > 0U)
 560              		.loc 1 350 7 is_stmt 1 view .LVU251
ARM GAS  /var/folders/n6/c271nzx11xl4r4_m7sqjlt0m0000gn/T//ccA39Knf.s 			page 17


 561              		.loc 1 350 13 is_stmt 0 view .LVU252
 562 0274 32E0     		b	.L5
 563              	.L6:
 351:Drivers/CMSIS/DSP/Source/FilteringFunctions/arm_fir_f32.c ****       {
 352:Drivers/CMSIS/DSP/Source/FilteringFunctions/arm_fir_f32.c ****          /* Read coefficients */
 353:Drivers/CMSIS/DSP/Source/FilteringFunctions/arm_fir_f32.c ****          c0 = *(pb++);
 564              		.loc 1 353 10 is_stmt 1 view .LVU253
 565              	.LVL101:
 566              		.loc 1 353 13 is_stmt 0 view .LVU254
 567 0276 FCEC017A 		vldmia.32	ip!, {s15}
 568              	.LVL102:
 354:Drivers/CMSIS/DSP/Source/FilteringFunctions/arm_fir_f32.c **** 
 355:Drivers/CMSIS/DSP/Source/FilteringFunctions/arm_fir_f32.c ****          /* Fetch 1 state variable */
 356:Drivers/CMSIS/DSP/Source/FilteringFunctions/arm_fir_f32.c ****          x7 = *(px++);
 569              		.loc 1 356 10 is_stmt 1 view .LVU255
 570              		.loc 1 356 13 is_stmt 0 view .LVU256
 571 027a B1EC013A 		vldmia.32	r1!, {s6}
 572              	.LVL103:
 357:Drivers/CMSIS/DSP/Source/FilteringFunctions/arm_fir_f32.c **** 
 358:Drivers/CMSIS/DSP/Source/FilteringFunctions/arm_fir_f32.c ****          /* Perform the multiply-accumulates */
 359:Drivers/CMSIS/DSP/Source/FilteringFunctions/arm_fir_f32.c ****          acc0 += x0 * c0;
 573              		.loc 1 359 10 is_stmt 1 view .LVU257
 574              		.loc 1 359 21 is_stmt 0 view .LVU258
 575 027e 66EEA76A 		vmul.f32	s13, s13, s15
 576              	.LVL104:
 577              		.loc 1 359 15 view .LVU259
 578 0282 72EEA62A 		vadd.f32	s5, s5, s13
 579              	.LVL105:
 360:Drivers/CMSIS/DSP/Source/FilteringFunctions/arm_fir_f32.c ****          acc1 += x1 * c0;
 580              		.loc 1 360 10 is_stmt 1 view .LVU260
 581              		.loc 1 360 21 is_stmt 0 view .LVU261
 582 0286 66EE276A 		vmul.f32	s13, s12, s15
 583              		.loc 1 360 15 view .LVU262
 584 028a 38EE268A 		vadd.f32	s16, s16, s13
 585              	.LVL106:
 361:Drivers/CMSIS/DSP/Source/FilteringFunctions/arm_fir_f32.c ****          acc2 += x2 * c0;
 586              		.loc 1 361 10 is_stmt 1 view .LVU263
 587              		.loc 1 361 21 is_stmt 0 view .LVU264
 588 028e 65EEA76A 		vmul.f32	s13, s11, s15
 589              		.loc 1 361 15 view .LVU265
 590 0292 30EE260A 		vadd.f32	s0, s0, s13
 591              	.LVL107:
 362:Drivers/CMSIS/DSP/Source/FilteringFunctions/arm_fir_f32.c ****          acc3 += x3 * c0;
 592              		.loc 1 362 10 is_stmt 1 view .LVU266
 593              		.loc 1 362 21 is_stmt 0 view .LVU267
 594 0296 65EE276A 		vmul.f32	s13, s10, s15
 595              		.loc 1 362 15 view .LVU268
 596 029a 70EEA60A 		vadd.f32	s1, s1, s13
 597              	.LVL108:
 363:Drivers/CMSIS/DSP/Source/FilteringFunctions/arm_fir_f32.c ****          acc4 += x4 * c0;
 598              		.loc 1 363 10 is_stmt 1 view .LVU269
 599              		.loc 1 363 21 is_stmt 0 view .LVU270
 600 029e 64EEA76A 		vmul.f32	s13, s9, s15
 601              		.loc 1 363 15 view .LVU271
 602 02a2 31EE261A 		vadd.f32	s2, s2, s13
 603              	.LVL109:
 364:Drivers/CMSIS/DSP/Source/FilteringFunctions/arm_fir_f32.c ****          acc5 += x5 * c0;
ARM GAS  /var/folders/n6/c271nzx11xl4r4_m7sqjlt0m0000gn/T//ccA39Knf.s 			page 18


 604              		.loc 1 364 10 is_stmt 1 view .LVU272
 605              		.loc 1 364 21 is_stmt 0 view .LVU273
 606 02a6 64EE276A 		vmul.f32	s13, s8, s15
 607              		.loc 1 364 15 view .LVU274
 608 02aa 71EEA61A 		vadd.f32	s3, s3, s13
 609              	.LVL110:
 365:Drivers/CMSIS/DSP/Source/FilteringFunctions/arm_fir_f32.c ****          acc6 += x6 * c0;
 610              		.loc 1 365 10 is_stmt 1 view .LVU275
 611              		.loc 1 365 21 is_stmt 0 view .LVU276
 612 02ae 63EEA76A 		vmul.f32	s13, s7, s15
 613              		.loc 1 365 15 view .LVU277
 614 02b2 32EE262A 		vadd.f32	s4, s4, s13
 615              	.LVL111:
 366:Drivers/CMSIS/DSP/Source/FilteringFunctions/arm_fir_f32.c ****          acc7 += x7 * c0;
 616              		.loc 1 366 10 is_stmt 1 view .LVU278
 617              		.loc 1 366 21 is_stmt 0 view .LVU279
 618 02b6 67EE837A 		vmul.f32	s15, s15, s6
 619              	.LVL112:
 620              		.loc 1 366 15 view .LVU280
 621 02ba 37EE277A 		vadd.f32	s14, s14, s15
 622              	.LVL113:
 367:Drivers/CMSIS/DSP/Source/FilteringFunctions/arm_fir_f32.c **** 
 368:Drivers/CMSIS/DSP/Source/FilteringFunctions/arm_fir_f32.c ****          /* Reuse the present sample states for next sample */
 369:Drivers/CMSIS/DSP/Source/FilteringFunctions/arm_fir_f32.c ****          x0 = x1;
 623              		.loc 1 369 10 is_stmt 1 view .LVU281
 370:Drivers/CMSIS/DSP/Source/FilteringFunctions/arm_fir_f32.c ****          x1 = x2;
 624              		.loc 1 370 10 view .LVU282
 371:Drivers/CMSIS/DSP/Source/FilteringFunctions/arm_fir_f32.c ****          x2 = x3;
 625              		.loc 1 371 10 view .LVU283
 372:Drivers/CMSIS/DSP/Source/FilteringFunctions/arm_fir_f32.c ****          x3 = x4;
 626              		.loc 1 372 10 view .LVU284
 373:Drivers/CMSIS/DSP/Source/FilteringFunctions/arm_fir_f32.c ****          x4 = x5;
 627              		.loc 1 373 10 view .LVU285
 374:Drivers/CMSIS/DSP/Source/FilteringFunctions/arm_fir_f32.c ****          x5 = x6;
 628              		.loc 1 374 10 view .LVU286
 375:Drivers/CMSIS/DSP/Source/FilteringFunctions/arm_fir_f32.c ****          x6 = x7;
 629              		.loc 1 375 10 view .LVU287
 376:Drivers/CMSIS/DSP/Source/FilteringFunctions/arm_fir_f32.c **** 
 377:Drivers/CMSIS/DSP/Source/FilteringFunctions/arm_fir_f32.c ****          /* Decrement the loop counter */
 378:Drivers/CMSIS/DSP/Source/FilteringFunctions/arm_fir_f32.c ****          tapCnt--;
 630              		.loc 1 378 10 view .LVU288
 631              		.loc 1 378 16 is_stmt 0 view .LVU289
 632 02be 013F     		subs	r7, r7, #1
 633              	.LVL114:
 369:Drivers/CMSIS/DSP/Source/FilteringFunctions/arm_fir_f32.c ****          x1 = x2;
 634              		.loc 1 369 13 view .LVU290
 635 02c0 F0EE466A 		vmov.f32	s13, s12
 370:Drivers/CMSIS/DSP/Source/FilteringFunctions/arm_fir_f32.c ****          x2 = x3;
 636              		.loc 1 370 13 view .LVU291
 637 02c4 B0EE656A 		vmov.f32	s12, s11
 638              	.LVL115:
 371:Drivers/CMSIS/DSP/Source/FilteringFunctions/arm_fir_f32.c ****          x3 = x4;
 639              		.loc 1 371 13 view .LVU292
 640 02c8 F0EE455A 		vmov.f32	s11, s10
 641              	.LVL116:
 372:Drivers/CMSIS/DSP/Source/FilteringFunctions/arm_fir_f32.c ****          x4 = x5;
 642              		.loc 1 372 13 view .LVU293
ARM GAS  /var/folders/n6/c271nzx11xl4r4_m7sqjlt0m0000gn/T//ccA39Knf.s 			page 19


 643 02cc B0EE645A 		vmov.f32	s10, s9
 644              	.LVL117:
 373:Drivers/CMSIS/DSP/Source/FilteringFunctions/arm_fir_f32.c ****          x5 = x6;
 645              		.loc 1 373 13 view .LVU294
 646 02d0 F0EE444A 		vmov.f32	s9, s8
 647              	.LVL118:
 374:Drivers/CMSIS/DSP/Source/FilteringFunctions/arm_fir_f32.c ****          x6 = x7;
 648              		.loc 1 374 13 view .LVU295
 649 02d4 B0EE634A 		vmov.f32	s8, s7
 650              	.LVL119:
 375:Drivers/CMSIS/DSP/Source/FilteringFunctions/arm_fir_f32.c **** 
 651              		.loc 1 375 13 view .LVU296
 652 02d8 F0EE433A 		vmov.f32	s7, s6
 653              	.LVL120:
 654              	.L5:
 350:Drivers/CMSIS/DSP/Source/FilteringFunctions/arm_fir_f32.c ****       {
 655              		.loc 1 350 21 is_stmt 1 view .LVU297
 656 02dc 002F     		cmp	r7, #0
 657 02de CAD1     		bne	.L6
 379:Drivers/CMSIS/DSP/Source/FilteringFunctions/arm_fir_f32.c ****       }
 380:Drivers/CMSIS/DSP/Source/FilteringFunctions/arm_fir_f32.c **** 
 381:Drivers/CMSIS/DSP/Source/FilteringFunctions/arm_fir_f32.c ****       /* Advance the state pointer by 8 to process the next group of 8 samples */
 382:Drivers/CMSIS/DSP/Source/FilteringFunctions/arm_fir_f32.c ****       pState = pState + 8;
 658              		.loc 1 382 7 view .LVU298
 659              		.loc 1 382 14 is_stmt 0 view .LVU299
 660 02e0 2032     		adds	r2, r2, #32
 661              	.LVL121:
 383:Drivers/CMSIS/DSP/Source/FilteringFunctions/arm_fir_f32.c **** 
 384:Drivers/CMSIS/DSP/Source/FilteringFunctions/arm_fir_f32.c ****       /* The results in the 8 accumulators, store in the destination buffer. */
 385:Drivers/CMSIS/DSP/Source/FilteringFunctions/arm_fir_f32.c ****       *pDst++ = acc0;
 662              		.loc 1 385 7 is_stmt 1 view .LVU300
 663              		.loc 1 385 15 is_stmt 0 view .LVU301
 664 02e2 C4ED002A 		vstr.32	s5, [r4]
 386:Drivers/CMSIS/DSP/Source/FilteringFunctions/arm_fir_f32.c ****       *pDst++ = acc1;
 665              		.loc 1 386 7 is_stmt 1 view .LVU302
 666              	.LVL122:
 667              		.loc 1 386 15 is_stmt 0 view .LVU303
 668 02e6 84ED018A 		vstr.32	s16, [r4, #4]
 387:Drivers/CMSIS/DSP/Source/FilteringFunctions/arm_fir_f32.c ****       *pDst++ = acc2;
 669              		.loc 1 387 7 is_stmt 1 view .LVU304
 670              	.LVL123:
 671              		.loc 1 387 15 is_stmt 0 view .LVU305
 672 02ea 84ED020A 		vstr.32	s0, [r4, #8]
 388:Drivers/CMSIS/DSP/Source/FilteringFunctions/arm_fir_f32.c ****       *pDst++ = acc3;
 673              		.loc 1 388 7 is_stmt 1 view .LVU306
 674              	.LVL124:
 675              		.loc 1 388 15 is_stmt 0 view .LVU307
 676 02ee C4ED030A 		vstr.32	s1, [r4, #12]
 389:Drivers/CMSIS/DSP/Source/FilteringFunctions/arm_fir_f32.c ****       *pDst++ = acc4;
 677              		.loc 1 389 7 is_stmt 1 view .LVU308
 678              	.LVL125:
 679              		.loc 1 389 15 is_stmt 0 view .LVU309
 680 02f2 84ED041A 		vstr.32	s2, [r4, #16]
 390:Drivers/CMSIS/DSP/Source/FilteringFunctions/arm_fir_f32.c ****       *pDst++ = acc5;
 681              		.loc 1 390 7 is_stmt 1 view .LVU310
 682              	.LVL126:
 683              		.loc 1 390 15 is_stmt 0 view .LVU311
ARM GAS  /var/folders/n6/c271nzx11xl4r4_m7sqjlt0m0000gn/T//ccA39Knf.s 			page 20


 684 02f6 C4ED051A 		vstr.32	s3, [r4, #20]
 391:Drivers/CMSIS/DSP/Source/FilteringFunctions/arm_fir_f32.c ****       *pDst++ = acc6;
 685              		.loc 1 391 7 is_stmt 1 view .LVU312
 686              	.LVL127:
 687              		.loc 1 391 15 is_stmt 0 view .LVU313
 688 02fa 84ED062A 		vstr.32	s4, [r4, #24]
 392:Drivers/CMSIS/DSP/Source/FilteringFunctions/arm_fir_f32.c ****       *pDst++ = acc7;
 689              		.loc 1 392 7 is_stmt 1 view .LVU314
 690              	.LVL128:
 691              		.loc 1 392 15 is_stmt 0 view .LVU315
 692 02fe 84ED077A 		vstr.32	s14, [r4, #28]
 393:Drivers/CMSIS/DSP/Source/FilteringFunctions/arm_fir_f32.c **** 
 394:Drivers/CMSIS/DSP/Source/FilteringFunctions/arm_fir_f32.c ****       blkCnt--;
 693              		.loc 1 394 7 is_stmt 1 view .LVU316
 694              		.loc 1 394 13 is_stmt 0 view .LVU317
 695 0302 013B     		subs	r3, r3, #1
 696              	.LVL129:
 185:Drivers/CMSIS/DSP/Source/FilteringFunctions/arm_fir_f32.c **** 
 697              		.loc 1 185 19 view .LVU318
 698 0304 4F46     		mov	r7, r9
 699              	.LVL130:
 392:Drivers/CMSIS/DSP/Source/FilteringFunctions/arm_fir_f32.c ****       *pDst++ = acc7;
 700              		.loc 1 392 12 view .LVU319
 701 0306 2034     		adds	r4, r4, #32
 702              	.LVL131:
 185:Drivers/CMSIS/DSP/Source/FilteringFunctions/arm_fir_f32.c **** 
 703              		.loc 1 185 29 view .LVU320
 704 0308 F046     		mov	r8, lr
 705              	.LVL132:
 706              	.L2:
 155:Drivers/CMSIS/DSP/Source/FilteringFunctions/arm_fir_f32.c ****    {
 707              		.loc 1 155 18 is_stmt 1 view .LVU321
 708 030a 002B     		cmp	r3, #0
 709 030c 3ED0     		beq	.L16
 158:Drivers/CMSIS/DSP/Source/FilteringFunctions/arm_fir_f32.c ****       *pStateCurnt++ = *pSrc++;
 710              		.loc 1 158 7 view .LVU322
 711              	.LVL133:
 158:Drivers/CMSIS/DSP/Source/FilteringFunctions/arm_fir_f32.c ****       *pStateCurnt++ = *pSrc++;
 712              		.loc 1 158 24 is_stmt 0 view .LVU323
 713 030e D8F80010 		ldr	r1, [r8]	@ float
 158:Drivers/CMSIS/DSP/Source/FilteringFunctions/arm_fir_f32.c ****       *pStateCurnt++ = *pSrc++;
 714              		.loc 1 158 22 view .LVU324
 715 0312 3960     		str	r1, [r7]	@ float
 159:Drivers/CMSIS/DSP/Source/FilteringFunctions/arm_fir_f32.c ****       *pStateCurnt++ = *pSrc++;
 716              		.loc 1 159 7 is_stmt 1 view .LVU325
 717              	.LVL134:
 159:Drivers/CMSIS/DSP/Source/FilteringFunctions/arm_fir_f32.c ****       *pStateCurnt++ = *pSrc++;
 718              		.loc 1 159 24 is_stmt 0 view .LVU326
 719 0314 D8F80410 		ldr	r1, [r8, #4]	@ float
 159:Drivers/CMSIS/DSP/Source/FilteringFunctions/arm_fir_f32.c ****       *pStateCurnt++ = *pSrc++;
 720              		.loc 1 159 22 view .LVU327
 721 0318 7960     		str	r1, [r7, #4]	@ float
 160:Drivers/CMSIS/DSP/Source/FilteringFunctions/arm_fir_f32.c ****       *pStateCurnt++ = *pSrc++;
 722              		.loc 1 160 7 is_stmt 1 view .LVU328
 723              	.LVL135:
 160:Drivers/CMSIS/DSP/Source/FilteringFunctions/arm_fir_f32.c ****       *pStateCurnt++ = *pSrc++;
 724              		.loc 1 160 24 is_stmt 0 view .LVU329
ARM GAS  /var/folders/n6/c271nzx11xl4r4_m7sqjlt0m0000gn/T//ccA39Knf.s 			page 21


 725 031a D8F80810 		ldr	r1, [r8, #8]	@ float
 160:Drivers/CMSIS/DSP/Source/FilteringFunctions/arm_fir_f32.c ****       *pStateCurnt++ = *pSrc++;
 726              		.loc 1 160 22 view .LVU330
 727 031e B960     		str	r1, [r7, #8]	@ float
 161:Drivers/CMSIS/DSP/Source/FilteringFunctions/arm_fir_f32.c **** 
 728              		.loc 1 161 7 is_stmt 1 view .LVU331
 729              	.LVL136:
 161:Drivers/CMSIS/DSP/Source/FilteringFunctions/arm_fir_f32.c **** 
 730              		.loc 1 161 24 is_stmt 0 view .LVU332
 731 0320 D8F80C10 		ldr	r1, [r8, #12]	@ float
 161:Drivers/CMSIS/DSP/Source/FilteringFunctions/arm_fir_f32.c **** 
 732              		.loc 1 161 22 view .LVU333
 733 0324 F960     		str	r1, [r7, #12]	@ float
 164:Drivers/CMSIS/DSP/Source/FilteringFunctions/arm_fir_f32.c ****       acc1 = 0.0f;
 734              		.loc 1 164 7 is_stmt 1 view .LVU334
 735              	.LVL137:
 165:Drivers/CMSIS/DSP/Source/FilteringFunctions/arm_fir_f32.c ****       acc2 = 0.0f;
 736              		.loc 1 165 7 view .LVU335
 166:Drivers/CMSIS/DSP/Source/FilteringFunctions/arm_fir_f32.c ****       acc3 = 0.0f;
 737              		.loc 1 166 7 view .LVU336
 167:Drivers/CMSIS/DSP/Source/FilteringFunctions/arm_fir_f32.c ****       acc4 = 0.0f;
 738              		.loc 1 167 7 view .LVU337
 168:Drivers/CMSIS/DSP/Source/FilteringFunctions/arm_fir_f32.c ****       acc5 = 0.0f;
 739              		.loc 1 168 7 view .LVU338
 169:Drivers/CMSIS/DSP/Source/FilteringFunctions/arm_fir_f32.c ****       acc6 = 0.0f;
 740              		.loc 1 169 7 view .LVU339
 170:Drivers/CMSIS/DSP/Source/FilteringFunctions/arm_fir_f32.c ****       acc7 = 0.0f;
 741              		.loc 1 170 7 view .LVU340
 171:Drivers/CMSIS/DSP/Source/FilteringFunctions/arm_fir_f32.c **** 
 742              		.loc 1 171 7 view .LVU341
 174:Drivers/CMSIS/DSP/Source/FilteringFunctions/arm_fir_f32.c **** 
 743              		.loc 1 174 7 view .LVU342
 177:Drivers/CMSIS/DSP/Source/FilteringFunctions/arm_fir_f32.c **** 
 744              		.loc 1 177 7 view .LVU343
 182:Drivers/CMSIS/DSP/Source/FilteringFunctions/arm_fir_f32.c ****       *pStateCurnt++ = *pSrc++;
 745              		.loc 1 182 7 view .LVU344
 182:Drivers/CMSIS/DSP/Source/FilteringFunctions/arm_fir_f32.c ****       *pStateCurnt++ = *pSrc++;
 746              		.loc 1 182 24 is_stmt 0 view .LVU345
 747 0326 D8F81010 		ldr	r1, [r8, #16]	@ float
 182:Drivers/CMSIS/DSP/Source/FilteringFunctions/arm_fir_f32.c ****       *pStateCurnt++ = *pSrc++;
 748              		.loc 1 182 22 view .LVU346
 749 032a 3961     		str	r1, [r7, #16]	@ float
 183:Drivers/CMSIS/DSP/Source/FilteringFunctions/arm_fir_f32.c ****       *pStateCurnt++ = *pSrc++;
 750              		.loc 1 183 7 is_stmt 1 view .LVU347
 751              	.LVL138:
 183:Drivers/CMSIS/DSP/Source/FilteringFunctions/arm_fir_f32.c ****       *pStateCurnt++ = *pSrc++;
 752              		.loc 1 183 24 is_stmt 0 view .LVU348
 753 032c D8F81410 		ldr	r1, [r8, #20]	@ float
 183:Drivers/CMSIS/DSP/Source/FilteringFunctions/arm_fir_f32.c ****       *pStateCurnt++ = *pSrc++;
 754              		.loc 1 183 22 view .LVU349
 755 0330 7961     		str	r1, [r7, #20]	@ float
 184:Drivers/CMSIS/DSP/Source/FilteringFunctions/arm_fir_f32.c ****       *pStateCurnt++ = *pSrc++;
 756              		.loc 1 184 7 is_stmt 1 view .LVU350
 757              	.LVL139:
 184:Drivers/CMSIS/DSP/Source/FilteringFunctions/arm_fir_f32.c ****       *pStateCurnt++ = *pSrc++;
 758              		.loc 1 184 24 is_stmt 0 view .LVU351
 759 0332 D8F81810 		ldr	r1, [r8, #24]	@ float
ARM GAS  /var/folders/n6/c271nzx11xl4r4_m7sqjlt0m0000gn/T//ccA39Knf.s 			page 22


 184:Drivers/CMSIS/DSP/Source/FilteringFunctions/arm_fir_f32.c ****       *pStateCurnt++ = *pSrc++;
 760              		.loc 1 184 22 view .LVU352
 761 0336 B961     		str	r1, [r7, #24]	@ float
 185:Drivers/CMSIS/DSP/Source/FilteringFunctions/arm_fir_f32.c **** 
 762              		.loc 1 185 7 is_stmt 1 view .LVU353
 185:Drivers/CMSIS/DSP/Source/FilteringFunctions/arm_fir_f32.c **** 
 763              		.loc 1 185 29 is_stmt 0 view .LVU354
 764 0338 08F1200E 		add	lr, r8, #32
 765              	.LVL140:
 185:Drivers/CMSIS/DSP/Source/FilteringFunctions/arm_fir_f32.c **** 
 766              		.loc 1 185 19 view .LVU355
 767 033c 07F12009 		add	r9, r7, #32
 768              	.LVL141:
 185:Drivers/CMSIS/DSP/Source/FilteringFunctions/arm_fir_f32.c **** 
 769              		.loc 1 185 24 view .LVU356
 770 0340 D8F81C10 		ldr	r1, [r8, #28]	@ float
 185:Drivers/CMSIS/DSP/Source/FilteringFunctions/arm_fir_f32.c **** 
 771              		.loc 1 185 22 view .LVU357
 772 0344 F961     		str	r1, [r7, #28]	@ float
 188:Drivers/CMSIS/DSP/Source/FilteringFunctions/arm_fir_f32.c ****       x1 = *px++;
 773              		.loc 1 188 7 is_stmt 1 view .LVU358
 774              	.LVL142:
 188:Drivers/CMSIS/DSP/Source/FilteringFunctions/arm_fir_f32.c ****       x1 = *px++;
 775              		.loc 1 188 10 is_stmt 0 view .LVU359
 776 0346 D2ED006A 		vldr.32	s13, [r2]
 777              	.LVL143:
 189:Drivers/CMSIS/DSP/Source/FilteringFunctions/arm_fir_f32.c ****       x2 = *px++;
 778              		.loc 1 189 7 is_stmt 1 view .LVU360
 189:Drivers/CMSIS/DSP/Source/FilteringFunctions/arm_fir_f32.c ****       x2 = *px++;
 779              		.loc 1 189 10 is_stmt 0 view .LVU361
 780 034a 92ED016A 		vldr.32	s12, [r2, #4]
 781              	.LVL144:
 190:Drivers/CMSIS/DSP/Source/FilteringFunctions/arm_fir_f32.c ****       x3 = *px++;
 782              		.loc 1 190 7 is_stmt 1 view .LVU362
 190:Drivers/CMSIS/DSP/Source/FilteringFunctions/arm_fir_f32.c ****       x3 = *px++;
 783              		.loc 1 190 10 is_stmt 0 view .LVU363
 784 034e D2ED025A 		vldr.32	s11, [r2, #8]
 785              	.LVL145:
 191:Drivers/CMSIS/DSP/Source/FilteringFunctions/arm_fir_f32.c ****       x4 = *px++;
 786              		.loc 1 191 7 is_stmt 1 view .LVU364
 191:Drivers/CMSIS/DSP/Source/FilteringFunctions/arm_fir_f32.c ****       x4 = *px++;
 787              		.loc 1 191 10 is_stmt 0 view .LVU365
 788 0352 92ED035A 		vldr.32	s10, [r2, #12]
 789              	.LVL146:
 192:Drivers/CMSIS/DSP/Source/FilteringFunctions/arm_fir_f32.c ****       x5 = *px++;
 790              		.loc 1 192 7 is_stmt 1 view .LVU366
 192:Drivers/CMSIS/DSP/Source/FilteringFunctions/arm_fir_f32.c ****       x5 = *px++;
 791              		.loc 1 192 10 is_stmt 0 view .LVU367
 792 0356 D2ED044A 		vldr.32	s9, [r2, #16]
 793              	.LVL147:
 193:Drivers/CMSIS/DSP/Source/FilteringFunctions/arm_fir_f32.c ****       x6 = *px++;
 794              		.loc 1 193 7 is_stmt 1 view .LVU368
 193:Drivers/CMSIS/DSP/Source/FilteringFunctions/arm_fir_f32.c ****       x6 = *px++;
 795              		.loc 1 193 10 is_stmt 0 view .LVU369
 796 035a 92ED054A 		vldr.32	s8, [r2, #20]
 797              	.LVL148:
 194:Drivers/CMSIS/DSP/Source/FilteringFunctions/arm_fir_f32.c **** 
ARM GAS  /var/folders/n6/c271nzx11xl4r4_m7sqjlt0m0000gn/T//ccA39Knf.s 			page 23


 798              		.loc 1 194 7 is_stmt 1 view .LVU370
 194:Drivers/CMSIS/DSP/Source/FilteringFunctions/arm_fir_f32.c **** 
 799              		.loc 1 194 15 is_stmt 0 view .LVU371
 800 035e 02F11C01 		add	r1, r2, #28
 801              	.LVL149:
 194:Drivers/CMSIS/DSP/Source/FilteringFunctions/arm_fir_f32.c **** 
 802              		.loc 1 194 10 view .LVU372
 803 0362 D2ED063A 		vldr.32	s7, [r2, #24]
 804              	.LVL150:
 197:Drivers/CMSIS/DSP/Source/FilteringFunctions/arm_fir_f32.c **** 
 805              		.loc 1 197 7 is_stmt 1 view .LVU373
 197:Drivers/CMSIS/DSP/Source/FilteringFunctions/arm_fir_f32.c **** 
 806              		.loc 1 197 14 is_stmt 0 view .LVU374
 807 0366 EF08     		lsrs	r7, r5, #3
 808              	.LVL151:
 201:Drivers/CMSIS/DSP/Source/FilteringFunctions/arm_fir_f32.c ****       {
 809              		.loc 1 201 7 is_stmt 1 view .LVU375
 177:Drivers/CMSIS/DSP/Source/FilteringFunctions/arm_fir_f32.c **** 
 810              		.loc 1 177 10 is_stmt 0 view .LVU376
 811 0368 B446     		mov	ip, r6
 171:Drivers/CMSIS/DSP/Source/FilteringFunctions/arm_fir_f32.c **** 
 812              		.loc 1 171 12 view .LVU377
 813 036a 9FED287A 		vldr.32	s14, .L17
 170:Drivers/CMSIS/DSP/Source/FilteringFunctions/arm_fir_f32.c ****       acc7 = 0.0f;
 814              		.loc 1 170 12 view .LVU378
 815 036e B0EE472A 		vmov.f32	s4, s14
 169:Drivers/CMSIS/DSP/Source/FilteringFunctions/arm_fir_f32.c ****       acc6 = 0.0f;
 816              		.loc 1 169 12 view .LVU379
 817 0372 F0EE471A 		vmov.f32	s3, s14
 168:Drivers/CMSIS/DSP/Source/FilteringFunctions/arm_fir_f32.c ****       acc5 = 0.0f;
 818              		.loc 1 168 12 view .LVU380
 819 0376 B0EE471A 		vmov.f32	s2, s14
 167:Drivers/CMSIS/DSP/Source/FilteringFunctions/arm_fir_f32.c ****       acc4 = 0.0f;
 820              		.loc 1 167 12 view .LVU381
 821 037a F0EE470A 		vmov.f32	s1, s14
 166:Drivers/CMSIS/DSP/Source/FilteringFunctions/arm_fir_f32.c ****       acc3 = 0.0f;
 822              		.loc 1 166 12 view .LVU382
 823 037e B0EE470A 		vmov.f32	s0, s14
 165:Drivers/CMSIS/DSP/Source/FilteringFunctions/arm_fir_f32.c ****       acc2 = 0.0f;
 824              		.loc 1 165 12 view .LVU383
 825 0382 B0EE478A 		vmov.f32	s16, s14
 164:Drivers/CMSIS/DSP/Source/FilteringFunctions/arm_fir_f32.c ****       acc1 = 0.0f;
 826              		.loc 1 164 12 view .LVU384
 827 0386 F0EE472A 		vmov.f32	s5, s14
 201:Drivers/CMSIS/DSP/Source/FilteringFunctions/arm_fir_f32.c ****       {
 828              		.loc 1 201 13 view .LVU385
 829 038a 6EE7     		b	.L3
 830              	.LVL152:
 831              	.L16:
 395:Drivers/CMSIS/DSP/Source/FilteringFunctions/arm_fir_f32.c ****    }
 396:Drivers/CMSIS/DSP/Source/FilteringFunctions/arm_fir_f32.c **** 
 397:Drivers/CMSIS/DSP/Source/FilteringFunctions/arm_fir_f32.c ****    /* If the blockSize is not a multiple of 8, compute any remaining output samples here.
 398:Drivers/CMSIS/DSP/Source/FilteringFunctions/arm_fir_f32.c ****    ** No loop unrolling is used. */
 399:Drivers/CMSIS/DSP/Source/FilteringFunctions/arm_fir_f32.c ****    blkCnt = blockSize % 0x8U;
 832              		.loc 1 399 4 is_stmt 1 view .LVU386
 833              		.loc 1 399 11 is_stmt 0 view .LVU387
 834 038c 0AF0070A 		and	r10, r10, #7
ARM GAS  /var/folders/n6/c271nzx11xl4r4_m7sqjlt0m0000gn/T//ccA39Knf.s 			page 24


 835              	.LVL153:
 400:Drivers/CMSIS/DSP/Source/FilteringFunctions/arm_fir_f32.c **** 
 401:Drivers/CMSIS/DSP/Source/FilteringFunctions/arm_fir_f32.c ****    while (blkCnt > 0U)
 836              		.loc 1 401 4 is_stmt 1 view .LVU388
 837              		.loc 1 401 10 is_stmt 0 view .LVU389
 838 0390 1AE0     		b	.L8
 839              	.L10:
 402:Drivers/CMSIS/DSP/Source/FilteringFunctions/arm_fir_f32.c ****    {
 403:Drivers/CMSIS/DSP/Source/FilteringFunctions/arm_fir_f32.c ****       /* Copy one sample at a time into state buffer */
 404:Drivers/CMSIS/DSP/Source/FilteringFunctions/arm_fir_f32.c ****       *pStateCurnt++ = *pSrc++;
 840              		.loc 1 404 7 is_stmt 1 view .LVU390
 841              	.LVL154:
 842              		.loc 1 404 24 is_stmt 0 view .LVU391
 843 0392 58F8043B 		ldr	r3, [r8], #4	@ float
 844              	.LVL155:
 845              		.loc 1 404 22 view .LVU392
 846 0396 47F8043B 		str	r3, [r7], #4	@ float
 847              	.LVL156:
 405:Drivers/CMSIS/DSP/Source/FilteringFunctions/arm_fir_f32.c **** 
 406:Drivers/CMSIS/DSP/Source/FilteringFunctions/arm_fir_f32.c ****       /* Set the accumulator to zero */
 407:Drivers/CMSIS/DSP/Source/FilteringFunctions/arm_fir_f32.c ****       acc0 = 0.0f;
 848              		.loc 1 407 7 is_stmt 1 view .LVU393
 408:Drivers/CMSIS/DSP/Source/FilteringFunctions/arm_fir_f32.c **** 
 409:Drivers/CMSIS/DSP/Source/FilteringFunctions/arm_fir_f32.c ****       /* Initialize state pointer */
 410:Drivers/CMSIS/DSP/Source/FilteringFunctions/arm_fir_f32.c ****       px = pState;
 849              		.loc 1 410 7 view .LVU394
 411:Drivers/CMSIS/DSP/Source/FilteringFunctions/arm_fir_f32.c **** 
 412:Drivers/CMSIS/DSP/Source/FilteringFunctions/arm_fir_f32.c ****       /* Initialize Coefficient pointer */
 413:Drivers/CMSIS/DSP/Source/FilteringFunctions/arm_fir_f32.c ****       pb = (pCoeffs);
 850              		.loc 1 413 7 view .LVU395
 414:Drivers/CMSIS/DSP/Source/FilteringFunctions/arm_fir_f32.c **** 
 415:Drivers/CMSIS/DSP/Source/FilteringFunctions/arm_fir_f32.c ****       i = numTaps;
 851              		.loc 1 415 7 view .LVU396
 852              		.loc 1 415 9 is_stmt 0 view .LVU397
 853 039a 2946     		mov	r1, r5
 413:Drivers/CMSIS/DSP/Source/FilteringFunctions/arm_fir_f32.c **** 
 854              		.loc 1 413 10 view .LVU398
 855 039c 3346     		mov	r3, r6
 410:Drivers/CMSIS/DSP/Source/FilteringFunctions/arm_fir_f32.c **** 
 856              		.loc 1 410 10 view .LVU399
 857 039e 9646     		mov	lr, r2
 407:Drivers/CMSIS/DSP/Source/FilteringFunctions/arm_fir_f32.c **** 
 858              		.loc 1 407 12 view .LVU400
 859 03a0 9FED1A7A 		vldr.32	s14, .L17
 860              	.LVL157:
 861              	.L9:
 416:Drivers/CMSIS/DSP/Source/FilteringFunctions/arm_fir_f32.c **** 
 417:Drivers/CMSIS/DSP/Source/FilteringFunctions/arm_fir_f32.c ****       /* Perform the multiply-accumulates */
 418:Drivers/CMSIS/DSP/Source/FilteringFunctions/arm_fir_f32.c ****       do
 862              		.loc 1 418 7 is_stmt 1 view .LVU401
 419:Drivers/CMSIS/DSP/Source/FilteringFunctions/arm_fir_f32.c ****       {
 420:Drivers/CMSIS/DSP/Source/FilteringFunctions/arm_fir_f32.c ****          acc0 += *px++ * *pb++;
 863              		.loc 1 420 10 view .LVU402
 864              		.loc 1 420 18 is_stmt 0 view .LVU403
 865 03a4 DEED007A 		vldr.32	s15, [lr]
 866 03a8 0EF1040E 		add	lr, lr, #4
 867              	.LVL158:
ARM GAS  /var/folders/n6/c271nzx11xl4r4_m7sqjlt0m0000gn/T//ccA39Knf.s 			page 25


 868              		.loc 1 420 26 view .LVU404
 869 03ac D3ED006A 		vldr.32	s13, [r3]
 870 03b0 0433     		adds	r3, r3, #4
 871              	.LVL159:
 872              		.loc 1 420 24 view .LVU405
 873 03b2 67EEA67A 		vmul.f32	s15, s15, s13
 874              		.loc 1 420 15 view .LVU406
 875 03b6 37EE277A 		vadd.f32	s14, s14, s15
 876              	.LVL160:
 421:Drivers/CMSIS/DSP/Source/FilteringFunctions/arm_fir_f32.c ****          i--;
 877              		.loc 1 421 10 is_stmt 1 view .LVU407
 422:Drivers/CMSIS/DSP/Source/FilteringFunctions/arm_fir_f32.c **** 
 423:Drivers/CMSIS/DSP/Source/FilteringFunctions/arm_fir_f32.c ****       } while (i > 0U);
 878              		.loc 1 423 18 discriminator 1 view .LVU408
 879 03ba 0139     		subs	r1, r1, #1
 880              	.LVL161:
 881              		.loc 1 423 18 is_stmt 0 discriminator 1 view .LVU409
 882 03bc F2D1     		bne	.L9
 424:Drivers/CMSIS/DSP/Source/FilteringFunctions/arm_fir_f32.c **** 
 425:Drivers/CMSIS/DSP/Source/FilteringFunctions/arm_fir_f32.c ****       /* The result is store in the destination buffer. */
 426:Drivers/CMSIS/DSP/Source/FilteringFunctions/arm_fir_f32.c ****       *pDst++ = acc0;
 883              		.loc 1 426 7 is_stmt 1 view .LVU410
 884              	.LVL162:
 885              		.loc 1 426 15 is_stmt 0 view .LVU411
 886 03be A4EC017A 		vstmia.32	r4!, {s14}
 887              	.LVL163:
 427:Drivers/CMSIS/DSP/Source/FilteringFunctions/arm_fir_f32.c **** 
 428:Drivers/CMSIS/DSP/Source/FilteringFunctions/arm_fir_f32.c ****       /* Advance state pointer by 1 for the next sample */
 429:Drivers/CMSIS/DSP/Source/FilteringFunctions/arm_fir_f32.c ****       pState = pState + 1;
 888              		.loc 1 429 7 is_stmt 1 view .LVU412
 889              		.loc 1 429 14 is_stmt 0 view .LVU413
 890 03c2 0432     		adds	r2, r2, #4
 891              	.LVL164:
 430:Drivers/CMSIS/DSP/Source/FilteringFunctions/arm_fir_f32.c **** 
 431:Drivers/CMSIS/DSP/Source/FilteringFunctions/arm_fir_f32.c ****       blkCnt--;
 892              		.loc 1 431 7 is_stmt 1 view .LVU414
 893              		.loc 1 431 13 is_stmt 0 view .LVU415
 894 03c4 0AF1FF3A 		add	r10, r10, #-1
 895              	.LVL165:
 896              	.L8:
 401:Drivers/CMSIS/DSP/Source/FilteringFunctions/arm_fir_f32.c ****    {
 897              		.loc 1 401 18 is_stmt 1 view .LVU416
 898 03c8 BAF1000F 		cmp	r10, #0
 899 03cc E1D1     		bne	.L10
 432:Drivers/CMSIS/DSP/Source/FilteringFunctions/arm_fir_f32.c ****    }
 433:Drivers/CMSIS/DSP/Source/FilteringFunctions/arm_fir_f32.c **** 
 434:Drivers/CMSIS/DSP/Source/FilteringFunctions/arm_fir_f32.c ****    /* Processing is complete.
 435:Drivers/CMSIS/DSP/Source/FilteringFunctions/arm_fir_f32.c ****    ** Now copy the last numTaps - 1 samples to the start of the state buffer.
 436:Drivers/CMSIS/DSP/Source/FilteringFunctions/arm_fir_f32.c ****    ** This prepares the state buffer for the next function call. */
 437:Drivers/CMSIS/DSP/Source/FilteringFunctions/arm_fir_f32.c **** 
 438:Drivers/CMSIS/DSP/Source/FilteringFunctions/arm_fir_f32.c ****    /* Points to the start of the state buffer */
 439:Drivers/CMSIS/DSP/Source/FilteringFunctions/arm_fir_f32.c ****    pStateCurnt = S->pState;
 900              		.loc 1 439 4 view .LVU417
 901              		.loc 1 439 16 is_stmt 0 view .LVU418
 902 03ce 4368     		ldr	r3, [r0, #4]
 903              	.LVL166:
 440:Drivers/CMSIS/DSP/Source/FilteringFunctions/arm_fir_f32.c **** 
ARM GAS  /var/folders/n6/c271nzx11xl4r4_m7sqjlt0m0000gn/T//ccA39Knf.s 			page 26


 441:Drivers/CMSIS/DSP/Source/FilteringFunctions/arm_fir_f32.c ****    tapCnt = (numTaps - 1U) >> 2U;
 904              		.loc 1 441 4 is_stmt 1 view .LVU419
 905              		.loc 1 441 22 is_stmt 0 view .LVU420
 906 03d0 691E     		subs	r1, r5, #1
 907              		.loc 1 441 11 view .LVU421
 908 03d2 8808     		lsrs	r0, r1, #2
 909              	.LVL167:
 442:Drivers/CMSIS/DSP/Source/FilteringFunctions/arm_fir_f32.c **** 
 443:Drivers/CMSIS/DSP/Source/FilteringFunctions/arm_fir_f32.c ****    /* copy data */
 444:Drivers/CMSIS/DSP/Source/FilteringFunctions/arm_fir_f32.c ****    while (tapCnt > 0U)
 910              		.loc 1 444 4 is_stmt 1 view .LVU422
 911              		.loc 1 444 10 is_stmt 0 view .LVU423
 912 03d4 0AE0     		b	.L11
 913              	.LVL168:
 914              	.L12:
 445:Drivers/CMSIS/DSP/Source/FilteringFunctions/arm_fir_f32.c ****    {
 446:Drivers/CMSIS/DSP/Source/FilteringFunctions/arm_fir_f32.c ****       *pStateCurnt++ = *pState++;
 915              		.loc 1 446 7 is_stmt 1 view .LVU424
 916              		.loc 1 446 24 is_stmt 0 view .LVU425
 917 03d6 1468     		ldr	r4, [r2]	@ float
 918              		.loc 1 446 22 view .LVU426
 919 03d8 1C60     		str	r4, [r3]	@ float
 447:Drivers/CMSIS/DSP/Source/FilteringFunctions/arm_fir_f32.c ****       *pStateCurnt++ = *pState++;
 920              		.loc 1 447 7 is_stmt 1 view .LVU427
 921              	.LVL169:
 922              		.loc 1 447 24 is_stmt 0 view .LVU428
 923 03da 5468     		ldr	r4, [r2, #4]	@ float
 924              		.loc 1 447 22 view .LVU429
 925 03dc 5C60     		str	r4, [r3, #4]	@ float
 448:Drivers/CMSIS/DSP/Source/FilteringFunctions/arm_fir_f32.c ****       *pStateCurnt++ = *pState++;
 926              		.loc 1 448 7 is_stmt 1 view .LVU430
 927              	.LVL170:
 928              		.loc 1 448 24 is_stmt 0 view .LVU431
 929 03de 9468     		ldr	r4, [r2, #8]	@ float
 930              		.loc 1 448 22 view .LVU432
 931 03e0 9C60     		str	r4, [r3, #8]	@ float
 449:Drivers/CMSIS/DSP/Source/FilteringFunctions/arm_fir_f32.c ****       *pStateCurnt++ = *pState++;
 932              		.loc 1 449 7 is_stmt 1 view .LVU433
 933              	.LVL171:
 934              		.loc 1 449 24 is_stmt 0 view .LVU434
 935 03e2 D468     		ldr	r4, [r2, #12]	@ float
 936              		.loc 1 449 22 view .LVU435
 937 03e4 DC60     		str	r4, [r3, #12]	@ float
 450:Drivers/CMSIS/DSP/Source/FilteringFunctions/arm_fir_f32.c **** 
 451:Drivers/CMSIS/DSP/Source/FilteringFunctions/arm_fir_f32.c ****       /* Decrement the loop counter */
 452:Drivers/CMSIS/DSP/Source/FilteringFunctions/arm_fir_f32.c ****       tapCnt--;
 938              		.loc 1 452 7 is_stmt 1 view .LVU436
 939              		.loc 1 452 13 is_stmt 0 view .LVU437
 940 03e6 0138     		subs	r0, r0, #1
 941              	.LVL172:
 449:Drivers/CMSIS/DSP/Source/FilteringFunctions/arm_fir_f32.c ****       *pStateCurnt++ = *pState++;
 942              		.loc 1 449 19 view .LVU438
 943 03e8 1033     		adds	r3, r3, #16
 944              	.LVL173:
 449:Drivers/CMSIS/DSP/Source/FilteringFunctions/arm_fir_f32.c ****       *pStateCurnt++ = *pState++;
 945              		.loc 1 449 31 view .LVU439
 946 03ea 1032     		adds	r2, r2, #16
ARM GAS  /var/folders/n6/c271nzx11xl4r4_m7sqjlt0m0000gn/T//ccA39Knf.s 			page 27


 947              	.LVL174:
 948              	.L11:
 444:Drivers/CMSIS/DSP/Source/FilteringFunctions/arm_fir_f32.c ****    {
 949              		.loc 1 444 18 is_stmt 1 view .LVU440
 950 03ec 0028     		cmp	r0, #0
 951 03ee F2D1     		bne	.L12
 453:Drivers/CMSIS/DSP/Source/FilteringFunctions/arm_fir_f32.c ****    }
 454:Drivers/CMSIS/DSP/Source/FilteringFunctions/arm_fir_f32.c **** 
 455:Drivers/CMSIS/DSP/Source/FilteringFunctions/arm_fir_f32.c ****    /* Calculate remaining number of copies */
 456:Drivers/CMSIS/DSP/Source/FilteringFunctions/arm_fir_f32.c ****    tapCnt = (numTaps - 1U) % 0x4U;
 952              		.loc 1 456 4 view .LVU441
 953              		.loc 1 456 11 is_stmt 0 view .LVU442
 954 03f0 01F00301 		and	r1, r1, #3
 955              	.LVL175:
 457:Drivers/CMSIS/DSP/Source/FilteringFunctions/arm_fir_f32.c **** 
 458:Drivers/CMSIS/DSP/Source/FilteringFunctions/arm_fir_f32.c ****    /* Copy the remaining q31_t data */
 459:Drivers/CMSIS/DSP/Source/FilteringFunctions/arm_fir_f32.c ****    while (tapCnt > 0U)
 956              		.loc 1 459 4 is_stmt 1 view .LVU443
 957              		.loc 1 459 10 is_stmt 0 view .LVU444
 958 03f4 04E0     		b	.L13
 959              	.L14:
 460:Drivers/CMSIS/DSP/Source/FilteringFunctions/arm_fir_f32.c ****    {
 461:Drivers/CMSIS/DSP/Source/FilteringFunctions/arm_fir_f32.c ****       *pStateCurnt++ = *pState++;
 960              		.loc 1 461 7 is_stmt 1 view .LVU445
 961              	.LVL176:
 962              		.loc 1 461 24 is_stmt 0 view .LVU446
 963 03f6 52F8040B 		ldr	r0, [r2], #4	@ float
 964              	.LVL177:
 965              		.loc 1 461 22 view .LVU447
 966 03fa 43F8040B 		str	r0, [r3], #4	@ float
 967              	.LVL178:
 462:Drivers/CMSIS/DSP/Source/FilteringFunctions/arm_fir_f32.c **** 
 463:Drivers/CMSIS/DSP/Source/FilteringFunctions/arm_fir_f32.c ****       /* Decrement the loop counter */
 464:Drivers/CMSIS/DSP/Source/FilteringFunctions/arm_fir_f32.c ****       tapCnt--;
 968              		.loc 1 464 7 is_stmt 1 view .LVU448
 969              		.loc 1 464 13 is_stmt 0 view .LVU449
 970 03fe 0139     		subs	r1, r1, #1
 971              	.LVL179:
 972              	.L13:
 459:Drivers/CMSIS/DSP/Source/FilteringFunctions/arm_fir_f32.c ****    {
 973              		.loc 1 459 18 is_stmt 1 view .LVU450
 974 0400 0029     		cmp	r1, #0
 975 0402 F8D1     		bne	.L14
 465:Drivers/CMSIS/DSP/Source/FilteringFunctions/arm_fir_f32.c ****    }
 466:Drivers/CMSIS/DSP/Source/FilteringFunctions/arm_fir_f32.c **** }
 976              		.loc 1 466 1 is_stmt 0 view .LVU451
 977 0404 BDEC028B 		vldm	sp!, {d8}
 978              		.cfi_restore 80
 979              		.cfi_restore 81
 980              		.cfi_def_cfa_offset 32
 981 0408 BDE8F087 		pop	{r4, r5, r6, r7, r8, r9, r10, pc}
 982              	.LVL180:
 983              	.L18:
 984              		.loc 1 466 1 view .LVU452
 985              		.align	2
 986              	.L17:
 987 040c 00000000 		.word	0
ARM GAS  /var/folders/n6/c271nzx11xl4r4_m7sqjlt0m0000gn/T//ccA39Knf.s 			page 28


 988              		.cfi_endproc
 989              	.LFE135:
 991              		.text
 992              	.Letext0:
 993              		.file 2 "/Users/killian/Library/Application Support/Code/User/globalStorage/bmd.stm32-for-vscode/@
 994              		.file 3 "/Users/killian/Library/Application Support/Code/User/globalStorage/bmd.stm32-for-vscode/@
 995              		.file 4 "Drivers/CMSIS/DSP/Include/arm_math.h"
ARM GAS  /var/folders/n6/c271nzx11xl4r4_m7sqjlt0m0000gn/T//ccA39Knf.s 			page 29

