ARM GAS  /var/folders/n6/c271nzx11xl4r4_m7sqjlt0m0000gn/T//ccgGix5q.s 			page 1


   1              		.cpu cortex-m7
   2              		.arch armv7e-m
   3              		.fpu fpv5-d16
   4              		.eabi_attribute 28, 1
   5              		.eabi_attribute 20, 1
   6              		.eabi_attribute 21, 1
   7              		.eabi_attribute 23, 3
   8              		.eabi_attribute 24, 1
   9              		.eabi_attribute 25, 1
  10              		.eabi_attribute 26, 1
  11              		.eabi_attribute 30, 1
  12              		.eabi_attribute 34, 1
  13              		.eabi_attribute 18, 4
  14              		.file	"arm_mult_q31.c"
  15              		.text
  16              	.Ltext0:
  17              		.cfi_sections	.debug_frame
  18              		.file 1 "Drivers/CMSIS/DSP/Source/BasicMathFunctions/arm_mult_q31.c"
  19              		.section	.text.arm_mult_q31,"ax",%progbits
  20              		.align	1
  21              		.global	arm_mult_q31
  22              		.syntax unified
  23              		.thumb
  24              		.thumb_func
  26              	arm_mult_q31:
  27              	.LVL0:
  28              	.LFB135:
   1:Drivers/CMSIS/DSP/Source/BasicMathFunctions/arm_mult_q31.c **** /* ----------------------------------------------------------------------
   2:Drivers/CMSIS/DSP/Source/BasicMathFunctions/arm_mult_q31.c ****  * Project:      CMSIS DSP Library
   3:Drivers/CMSIS/DSP/Source/BasicMathFunctions/arm_mult_q31.c ****  * Title:        arm_mult_q31.c
   4:Drivers/CMSIS/DSP/Source/BasicMathFunctions/arm_mult_q31.c ****  * Description:  Q31 vector multiplication
   5:Drivers/CMSIS/DSP/Source/BasicMathFunctions/arm_mult_q31.c ****  *
   6:Drivers/CMSIS/DSP/Source/BasicMathFunctions/arm_mult_q31.c ****  * $Date:        27. January 2017
   7:Drivers/CMSIS/DSP/Source/BasicMathFunctions/arm_mult_q31.c ****  * $Revision:    V.1.5.1
   8:Drivers/CMSIS/DSP/Source/BasicMathFunctions/arm_mult_q31.c ****  *
   9:Drivers/CMSIS/DSP/Source/BasicMathFunctions/arm_mult_q31.c ****  * Target Processor: Cortex-M cores
  10:Drivers/CMSIS/DSP/Source/BasicMathFunctions/arm_mult_q31.c ****  * -------------------------------------------------------------------- */
  11:Drivers/CMSIS/DSP/Source/BasicMathFunctions/arm_mult_q31.c **** /*
  12:Drivers/CMSIS/DSP/Source/BasicMathFunctions/arm_mult_q31.c ****  * Copyright (C) 2010-2017 ARM Limited or its affiliates. All rights reserved.
  13:Drivers/CMSIS/DSP/Source/BasicMathFunctions/arm_mult_q31.c ****  *
  14:Drivers/CMSIS/DSP/Source/BasicMathFunctions/arm_mult_q31.c ****  * SPDX-License-Identifier: Apache-2.0
  15:Drivers/CMSIS/DSP/Source/BasicMathFunctions/arm_mult_q31.c ****  *
  16:Drivers/CMSIS/DSP/Source/BasicMathFunctions/arm_mult_q31.c ****  * Licensed under the Apache License, Version 2.0 (the License); you may
  17:Drivers/CMSIS/DSP/Source/BasicMathFunctions/arm_mult_q31.c ****  * not use this file except in compliance with the License.
  18:Drivers/CMSIS/DSP/Source/BasicMathFunctions/arm_mult_q31.c ****  * You may obtain a copy of the License at
  19:Drivers/CMSIS/DSP/Source/BasicMathFunctions/arm_mult_q31.c ****  *
  20:Drivers/CMSIS/DSP/Source/BasicMathFunctions/arm_mult_q31.c ****  * www.apache.org/licenses/LICENSE-2.0
  21:Drivers/CMSIS/DSP/Source/BasicMathFunctions/arm_mult_q31.c ****  *
  22:Drivers/CMSIS/DSP/Source/BasicMathFunctions/arm_mult_q31.c ****  * Unless required by applicable law or agreed to in writing, software
  23:Drivers/CMSIS/DSP/Source/BasicMathFunctions/arm_mult_q31.c ****  * distributed under the License is distributed on an AS IS BASIS, WITHOUT
  24:Drivers/CMSIS/DSP/Source/BasicMathFunctions/arm_mult_q31.c ****  * WARRANTIES OR CONDITIONS OF ANY KIND, either express or implied.
  25:Drivers/CMSIS/DSP/Source/BasicMathFunctions/arm_mult_q31.c ****  * See the License for the specific language governing permissions and
  26:Drivers/CMSIS/DSP/Source/BasicMathFunctions/arm_mult_q31.c ****  * limitations under the License.
  27:Drivers/CMSIS/DSP/Source/BasicMathFunctions/arm_mult_q31.c ****  */
  28:Drivers/CMSIS/DSP/Source/BasicMathFunctions/arm_mult_q31.c **** 
  29:Drivers/CMSIS/DSP/Source/BasicMathFunctions/arm_mult_q31.c **** #include "arm_math.h"
  30:Drivers/CMSIS/DSP/Source/BasicMathFunctions/arm_mult_q31.c **** 
ARM GAS  /var/folders/n6/c271nzx11xl4r4_m7sqjlt0m0000gn/T//ccgGix5q.s 			page 2


  31:Drivers/CMSIS/DSP/Source/BasicMathFunctions/arm_mult_q31.c **** /**
  32:Drivers/CMSIS/DSP/Source/BasicMathFunctions/arm_mult_q31.c ****  * @ingroup groupMath
  33:Drivers/CMSIS/DSP/Source/BasicMathFunctions/arm_mult_q31.c ****  */
  34:Drivers/CMSIS/DSP/Source/BasicMathFunctions/arm_mult_q31.c **** 
  35:Drivers/CMSIS/DSP/Source/BasicMathFunctions/arm_mult_q31.c **** /**
  36:Drivers/CMSIS/DSP/Source/BasicMathFunctions/arm_mult_q31.c ****  * @addtogroup BasicMult
  37:Drivers/CMSIS/DSP/Source/BasicMathFunctions/arm_mult_q31.c ****  * @{
  38:Drivers/CMSIS/DSP/Source/BasicMathFunctions/arm_mult_q31.c ****  */
  39:Drivers/CMSIS/DSP/Source/BasicMathFunctions/arm_mult_q31.c **** 
  40:Drivers/CMSIS/DSP/Source/BasicMathFunctions/arm_mult_q31.c **** /**
  41:Drivers/CMSIS/DSP/Source/BasicMathFunctions/arm_mult_q31.c ****  * @brief Q31 vector multiplication.
  42:Drivers/CMSIS/DSP/Source/BasicMathFunctions/arm_mult_q31.c ****  * @param[in]       *pSrcA points to the first input vector
  43:Drivers/CMSIS/DSP/Source/BasicMathFunctions/arm_mult_q31.c ****  * @param[in]       *pSrcB points to the second input vector
  44:Drivers/CMSIS/DSP/Source/BasicMathFunctions/arm_mult_q31.c ****  * @param[out]      *pDst points to the output vector
  45:Drivers/CMSIS/DSP/Source/BasicMathFunctions/arm_mult_q31.c ****  * @param[in]       blockSize number of samples in each vector
  46:Drivers/CMSIS/DSP/Source/BasicMathFunctions/arm_mult_q31.c ****  * @return none.
  47:Drivers/CMSIS/DSP/Source/BasicMathFunctions/arm_mult_q31.c ****  *
  48:Drivers/CMSIS/DSP/Source/BasicMathFunctions/arm_mult_q31.c ****  * <b>Scaling and Overflow Behavior:</b>
  49:Drivers/CMSIS/DSP/Source/BasicMathFunctions/arm_mult_q31.c ****  * \par
  50:Drivers/CMSIS/DSP/Source/BasicMathFunctions/arm_mult_q31.c ****  * The function uses saturating arithmetic.
  51:Drivers/CMSIS/DSP/Source/BasicMathFunctions/arm_mult_q31.c ****  * Results outside of the allowable Q31 range[0x80000000 0x7FFFFFFF] will be saturated.
  52:Drivers/CMSIS/DSP/Source/BasicMathFunctions/arm_mult_q31.c ****  */
  53:Drivers/CMSIS/DSP/Source/BasicMathFunctions/arm_mult_q31.c **** 
  54:Drivers/CMSIS/DSP/Source/BasicMathFunctions/arm_mult_q31.c **** void arm_mult_q31(
  55:Drivers/CMSIS/DSP/Source/BasicMathFunctions/arm_mult_q31.c ****   q31_t * pSrcA,
  56:Drivers/CMSIS/DSP/Source/BasicMathFunctions/arm_mult_q31.c ****   q31_t * pSrcB,
  57:Drivers/CMSIS/DSP/Source/BasicMathFunctions/arm_mult_q31.c ****   q31_t * pDst,
  58:Drivers/CMSIS/DSP/Source/BasicMathFunctions/arm_mult_q31.c ****   uint32_t blockSize)
  59:Drivers/CMSIS/DSP/Source/BasicMathFunctions/arm_mult_q31.c **** {
  29              		.loc 1 59 1 view -0
  30              		.cfi_startproc
  31              		@ args = 0, pretend = 0, frame = 8
  32              		@ frame_needed = 0, uses_anonymous_args = 0
  33              		.loc 1 59 1 is_stmt 0 view .LVU1
  34 0000 2DE9F04F 		push	{r4, r5, r6, r7, r8, r9, r10, fp, lr}
  35              		.cfi_def_cfa_offset 36
  36              		.cfi_offset 4, -36
  37              		.cfi_offset 5, -32
  38              		.cfi_offset 6, -28
  39              		.cfi_offset 7, -24
  40              		.cfi_offset 8, -20
  41              		.cfi_offset 9, -16
  42              		.cfi_offset 10, -12
  43              		.cfi_offset 11, -8
  44              		.cfi_offset 14, -4
  45 0004 83B0     		sub	sp, sp, #12
  46              		.cfi_def_cfa_offset 48
  60:Drivers/CMSIS/DSP/Source/BasicMathFunctions/arm_mult_q31.c ****   uint32_t blkCnt;                               /* loop counters */
  47              		.loc 1 60 3 is_stmt 1 view .LVU2
  61:Drivers/CMSIS/DSP/Source/BasicMathFunctions/arm_mult_q31.c **** 
  62:Drivers/CMSIS/DSP/Source/BasicMathFunctions/arm_mult_q31.c **** #if defined (ARM_MATH_DSP)
  63:Drivers/CMSIS/DSP/Source/BasicMathFunctions/arm_mult_q31.c **** 
  64:Drivers/CMSIS/DSP/Source/BasicMathFunctions/arm_mult_q31.c **** /* Run the below code for Cortex-M4 and Cortex-M3 */
  65:Drivers/CMSIS/DSP/Source/BasicMathFunctions/arm_mult_q31.c ****   q31_t inA1, inA2, inA3, inA4;                  /* temporary input variables */
  48              		.loc 1 65 3 view .LVU3
  66:Drivers/CMSIS/DSP/Source/BasicMathFunctions/arm_mult_q31.c ****   q31_t inB1, inB2, inB3, inB4;                  /* temporary input variables */
  49              		.loc 1 66 3 view .LVU4
ARM GAS  /var/folders/n6/c271nzx11xl4r4_m7sqjlt0m0000gn/T//ccgGix5q.s 			page 3


  67:Drivers/CMSIS/DSP/Source/BasicMathFunctions/arm_mult_q31.c ****   q31_t out1, out2, out3, out4;                  /* temporary output variables */
  50              		.loc 1 67 3 view .LVU5
  68:Drivers/CMSIS/DSP/Source/BasicMathFunctions/arm_mult_q31.c **** 
  69:Drivers/CMSIS/DSP/Source/BasicMathFunctions/arm_mult_q31.c ****   /* loop Unrolling */
  70:Drivers/CMSIS/DSP/Source/BasicMathFunctions/arm_mult_q31.c ****   blkCnt = blockSize >> 2U;
  51              		.loc 1 70 3 view .LVU6
  52              		.loc 1 70 10 is_stmt 0 view .LVU7
  53 0006 4FEA930A 		lsr	r10, r3, #2
  54              	.LVL1:
  71:Drivers/CMSIS/DSP/Source/BasicMathFunctions/arm_mult_q31.c **** 
  72:Drivers/CMSIS/DSP/Source/BasicMathFunctions/arm_mult_q31.c ****   /* First part of the processing with loop unrolling.  Compute 4 outputs at a time.
  73:Drivers/CMSIS/DSP/Source/BasicMathFunctions/arm_mult_q31.c ****    ** a second loop below computes the remaining 1 to 3 samples. */
  74:Drivers/CMSIS/DSP/Source/BasicMathFunctions/arm_mult_q31.c ****   while (blkCnt > 0U)
  55              		.loc 1 74 3 is_stmt 1 view .LVU8
  56 000a 0193     		str	r3, [sp, #4]
  57              		.loc 1 74 9 is_stmt 0 view .LVU9
  58 000c 4CE0     		b	.L2
  59              	.LVL2:
  60              	.L3:
  75:Drivers/CMSIS/DSP/Source/BasicMathFunctions/arm_mult_q31.c ****   {
  76:Drivers/CMSIS/DSP/Source/BasicMathFunctions/arm_mult_q31.c ****     /* C = A * B */
  77:Drivers/CMSIS/DSP/Source/BasicMathFunctions/arm_mult_q31.c ****     /* Multiply the inputs and then store the results in the destination buffer. */
  78:Drivers/CMSIS/DSP/Source/BasicMathFunctions/arm_mult_q31.c ****     inA1 = *pSrcA++;
  61              		.loc 1 78 5 is_stmt 1 view .LVU10
  62              		.loc 1 78 10 is_stmt 0 view .LVU11
  63 000e 0768     		ldr	r7, [r0]
  64              	.LVL3:
  79:Drivers/CMSIS/DSP/Source/BasicMathFunctions/arm_mult_q31.c ****     inA2 = *pSrcA++;
  65              		.loc 1 79 5 is_stmt 1 view .LVU12
  66              		.loc 1 79 10 is_stmt 0 view .LVU13
  67 0010 4668     		ldr	r6, [r0, #4]
  68              	.LVL4:
  80:Drivers/CMSIS/DSP/Source/BasicMathFunctions/arm_mult_q31.c ****     inA3 = *pSrcA++;
  69              		.loc 1 80 5 is_stmt 1 view .LVU14
  70              		.loc 1 80 10 is_stmt 0 view .LVU15
  71 0012 8568     		ldr	r5, [r0, #8]
  72              	.LVL5:
  81:Drivers/CMSIS/DSP/Source/BasicMathFunctions/arm_mult_q31.c ****     inA4 = *pSrcA++;
  73              		.loc 1 81 5 is_stmt 1 view .LVU16
  74              		.loc 1 81 10 is_stmt 0 view .LVU17
  75 0014 C468     		ldr	r4, [r0, #12]
  76              	.LVL6:
  82:Drivers/CMSIS/DSP/Source/BasicMathFunctions/arm_mult_q31.c ****     inB1 = *pSrcB++;
  77              		.loc 1 82 5 is_stmt 1 view .LVU18
  78              		.loc 1 82 10 is_stmt 0 view .LVU19
  79 0016 D1F80090 		ldr	r9, [r1]
  80              	.LVL7:
  83:Drivers/CMSIS/DSP/Source/BasicMathFunctions/arm_mult_q31.c ****     inB2 = *pSrcB++;
  81              		.loc 1 83 5 is_stmt 1 view .LVU20
  82              		.loc 1 83 10 is_stmt 0 view .LVU21
  83 001a D1F80480 		ldr	r8, [r1, #4]
  84              	.LVL8:
  84:Drivers/CMSIS/DSP/Source/BasicMathFunctions/arm_mult_q31.c ****     inB3 = *pSrcB++;
  85              		.loc 1 84 5 is_stmt 1 view .LVU22
  86              		.loc 1 84 10 is_stmt 0 view .LVU23
  87 001e D1F808E0 		ldr	lr, [r1, #8]
  88              	.LVL9:
ARM GAS  /var/folders/n6/c271nzx11xl4r4_m7sqjlt0m0000gn/T//ccgGix5q.s 			page 4


  85:Drivers/CMSIS/DSP/Source/BasicMathFunctions/arm_mult_q31.c ****     inB4 = *pSrcB++;
  89              		.loc 1 85 5 is_stmt 1 view .LVU24
  90              		.loc 1 85 10 is_stmt 0 view .LVU25
  91 0022 D1F80CC0 		ldr	ip, [r1, #12]
  92              	.LVL10:
  86:Drivers/CMSIS/DSP/Source/BasicMathFunctions/arm_mult_q31.c **** 
  87:Drivers/CMSIS/DSP/Source/BasicMathFunctions/arm_mult_q31.c ****     out1 = ((q63_t) inA1 * inB1) >> 32;
  93              		.loc 1 87 5 is_stmt 1 view .LVU26
  94              		.loc 1 87 13 is_stmt 0 view .LVU27
  95 0026 FB17     		asrs	r3, r7, #31
  96              		.loc 1 87 26 view .LVU28
  97 0028 4FEAE97B 		asr	fp, r9, #31
  98 002c 09FB03F3 		mul	r3, r9, r3
  99 0030 07FB0B33 		mla	r3, r7, fp, r3
 100 0034 A9FB0797 		umull	r9, r7, r9, r7
 101              	.LVL11:
 102              		.loc 1 87 26 view .LVU29
 103 0038 1F44     		add	r7, r7, r3
 104              	.LVL12:
  88:Drivers/CMSIS/DSP/Source/BasicMathFunctions/arm_mult_q31.c ****     out2 = ((q63_t) inA2 * inB2) >> 32;
 105              		.loc 1 88 5 is_stmt 1 view .LVU30
 106              		.loc 1 88 13 is_stmt 0 view .LVU31
 107 003a 4FEAE679 		asr	r9, r6, #31
 108              		.loc 1 88 26 view .LVU32
 109 003e 4FEAE873 		asr	r3, r8, #31
 110 0042 08FB09F9 		mul	r9, r8, r9
 111 0046 06FB0399 		mla	r9, r6, r3, r9
 112 004a A8FB0683 		umull	r8, r3, r8, r6
 113              	.LVL13:
 114              		.loc 1 88 26 view .LVU33
 115 004e 09EB0306 		add	r6, r9, r3
 116              	.LVL14:
  89:Drivers/CMSIS/DSP/Source/BasicMathFunctions/arm_mult_q31.c ****     out3 = ((q63_t) inA3 * inB3) >> 32;
 117              		.loc 1 89 5 is_stmt 1 view .LVU34
 118              		.loc 1 89 13 is_stmt 0 view .LVU35
 119 0052 4FEAE578 		asr	r8, r5, #31
 120              		.loc 1 89 26 view .LVU36
 121 0056 4FEAEE73 		asr	r3, lr, #31
 122 005a 0EFB08F8 		mul	r8, lr, r8
 123 005e 05FB0388 		mla	r8, r5, r3, r8
 124 0062 AEFB05E3 		umull	lr, r3, lr, r5
 125              	.LVL15:
 126              		.loc 1 89 26 view .LVU37
 127 0066 08EB0305 		add	r5, r8, r3
 128              	.LVL16:
  90:Drivers/CMSIS/DSP/Source/BasicMathFunctions/arm_mult_q31.c ****     out4 = ((q63_t) inA4 * inB4) >> 32;
 129              		.loc 1 90 5 is_stmt 1 view .LVU38
 130              		.loc 1 90 13 is_stmt 0 view .LVU39
 131 006a E317     		asrs	r3, r4, #31
 132              		.loc 1 90 26 view .LVU40
 133 006c 4FEAEC7E 		asr	lr, ip, #31
 134 0070 0CFB03F3 		mul	r3, ip, r3
 135 0074 04FB0E33 		mla	r3, r4, lr, r3
 136 0078 ACFB04C4 		umull	ip, r4, ip, r4
 137              	.LVL17:
 138              		.loc 1 90 26 view .LVU41
 139 007c 2344     		add	r3, r3, r4
ARM GAS  /var/folders/n6/c271nzx11xl4r4_m7sqjlt0m0000gn/T//ccgGix5q.s 			page 5


 140              	.LVL18:
  91:Drivers/CMSIS/DSP/Source/BasicMathFunctions/arm_mult_q31.c **** 
  92:Drivers/CMSIS/DSP/Source/BasicMathFunctions/arm_mult_q31.c ****     out1 = __SSAT(out1, 31);
 141              		.loc 1 92 5 is_stmt 1 view .LVU42
 142              	.LBB2:
 143              		.loc 1 92 12 view .LVU43
 144              		.loc 1 92 12 view .LVU44
 145              		.syntax unified
 146              	@ 92 "Drivers/CMSIS/DSP/Source/BasicMathFunctions/arm_mult_q31.c" 1
 147 007e 07F31E07 		ssat r7, #31, r7
 148              	@ 0 "" 2
 149              	.LVL19:
 150              		.loc 1 92 12 view .LVU45
 151              		.loc 1 92 12 is_stmt 0 view .LVU46
 152              		.thumb
 153              		.syntax unified
 154              	.LBE2:
  93:Drivers/CMSIS/DSP/Source/BasicMathFunctions/arm_mult_q31.c ****     out2 = __SSAT(out2, 31);
 155              		.loc 1 93 5 is_stmt 1 view .LVU47
 156              	.LBB3:
 157              		.loc 1 93 12 view .LVU48
 158              		.loc 1 93 12 view .LVU49
 159              		.syntax unified
 160              	@ 93 "Drivers/CMSIS/DSP/Source/BasicMathFunctions/arm_mult_q31.c" 1
 161 0082 06F31E06 		ssat r6, #31, r6
 162              	@ 0 "" 2
 163              	.LVL20:
 164              		.loc 1 93 12 view .LVU50
 165              		.loc 1 93 12 is_stmt 0 view .LVU51
 166              		.thumb
 167              		.syntax unified
 168              	.LBE3:
  94:Drivers/CMSIS/DSP/Source/BasicMathFunctions/arm_mult_q31.c ****     out3 = __SSAT(out3, 31);
 169              		.loc 1 94 5 is_stmt 1 view .LVU52
 170              	.LBB4:
 171              		.loc 1 94 12 view .LVU53
 172              		.loc 1 94 12 view .LVU54
 173              		.syntax unified
 174              	@ 94 "Drivers/CMSIS/DSP/Source/BasicMathFunctions/arm_mult_q31.c" 1
 175 0086 05F31E05 		ssat r5, #31, r5
 176              	@ 0 "" 2
 177              	.LVL21:
 178              		.loc 1 94 12 view .LVU55
 179              		.loc 1 94 12 is_stmt 0 view .LVU56
 180              		.thumb
 181              		.syntax unified
 182              	.LBE4:
  95:Drivers/CMSIS/DSP/Source/BasicMathFunctions/arm_mult_q31.c ****     out4 = __SSAT(out4, 31);
 183              		.loc 1 95 5 is_stmt 1 view .LVU57
 184              	.LBB5:
 185              		.loc 1 95 12 view .LVU58
 186              		.loc 1 95 12 view .LVU59
 187              		.syntax unified
 188              	@ 95 "Drivers/CMSIS/DSP/Source/BasicMathFunctions/arm_mult_q31.c" 1
 189 008a 03F31E03 		ssat r3, #31, r3
 190              	@ 0 "" 2
 191              	.LVL22:
ARM GAS  /var/folders/n6/c271nzx11xl4r4_m7sqjlt0m0000gn/T//ccgGix5q.s 			page 6


 192              		.loc 1 95 12 view .LVU60
 193              		.loc 1 95 12 is_stmt 0 view .LVU61
 194              		.thumb
 195              		.syntax unified
 196              	.LBE5:
  96:Drivers/CMSIS/DSP/Source/BasicMathFunctions/arm_mult_q31.c **** 
  97:Drivers/CMSIS/DSP/Source/BasicMathFunctions/arm_mult_q31.c ****     *pDst++ = out1 << 1U;
 197              		.loc 1 97 5 is_stmt 1 view .LVU62
 198              		.loc 1 97 20 is_stmt 0 view .LVU63
 199 008e 7F00     		lsls	r7, r7, #1
 200              	.LVL23:
 201              		.loc 1 97 13 view .LVU64
 202 0090 1760     		str	r7, [r2]
 203              	.LVL24:
  98:Drivers/CMSIS/DSP/Source/BasicMathFunctions/arm_mult_q31.c ****     *pDst++ = out2 << 1U;
 204              		.loc 1 98 5 is_stmt 1 view .LVU65
 205              		.loc 1 98 20 is_stmt 0 view .LVU66
 206 0092 7600     		lsls	r6, r6, #1
 207              	.LVL25:
 208              		.loc 1 98 13 view .LVU67
 209 0094 5660     		str	r6, [r2, #4]
  99:Drivers/CMSIS/DSP/Source/BasicMathFunctions/arm_mult_q31.c ****     *pDst++ = out3 << 1U;
 210              		.loc 1 99 5 is_stmt 1 view .LVU68
 211              	.LVL26:
 212              		.loc 1 99 20 is_stmt 0 view .LVU69
 213 0096 6D00     		lsls	r5, r5, #1
 214              	.LVL27:
 215              		.loc 1 99 13 view .LVU70
 216 0098 9560     		str	r5, [r2, #8]
 100:Drivers/CMSIS/DSP/Source/BasicMathFunctions/arm_mult_q31.c ****     *pDst++ = out4 << 1U;
 217              		.loc 1 100 5 is_stmt 1 view .LVU71
 218              	.LVL28:
 219              		.loc 1 100 20 is_stmt 0 view .LVU72
 220 009a 5B00     		lsls	r3, r3, #1
 221              	.LVL29:
 222              		.loc 1 100 13 view .LVU73
 223 009c D360     		str	r3, [r2, #12]
 101:Drivers/CMSIS/DSP/Source/BasicMathFunctions/arm_mult_q31.c **** 
 102:Drivers/CMSIS/DSP/Source/BasicMathFunctions/arm_mult_q31.c ****     /* Decrement the blockSize loop counter */
 103:Drivers/CMSIS/DSP/Source/BasicMathFunctions/arm_mult_q31.c ****     blkCnt--;
 224              		.loc 1 103 5 is_stmt 1 view .LVU74
 225              		.loc 1 103 11 is_stmt 0 view .LVU75
 226 009e 0AF1FF3A 		add	r10, r10, #-1
 227              	.LVL30:
 100:Drivers/CMSIS/DSP/Source/BasicMathFunctions/arm_mult_q31.c ****     *pDst++ = out4 << 1U;
 228              		.loc 1 100 10 view .LVU76
 229 00a2 1032     		adds	r2, r2, #16
 230              	.LVL31:
  85:Drivers/CMSIS/DSP/Source/BasicMathFunctions/arm_mult_q31.c **** 
 231              		.loc 1 85 18 view .LVU77
 232 00a4 1031     		adds	r1, r1, #16
 233              	.LVL32:
  81:Drivers/CMSIS/DSP/Source/BasicMathFunctions/arm_mult_q31.c ****     inB1 = *pSrcB++;
 234              		.loc 1 81 18 view .LVU78
 235 00a6 1030     		adds	r0, r0, #16
 236              	.LVL33:
 237              	.L2:
ARM GAS  /var/folders/n6/c271nzx11xl4r4_m7sqjlt0m0000gn/T//ccgGix5q.s 			page 7


  74:Drivers/CMSIS/DSP/Source/BasicMathFunctions/arm_mult_q31.c ****   {
 238              		.loc 1 74 17 is_stmt 1 view .LVU79
 239 00a8 BAF1000F 		cmp	r10, #0
 240 00ac AFD1     		bne	.L3
 104:Drivers/CMSIS/DSP/Source/BasicMathFunctions/arm_mult_q31.c ****   }
 105:Drivers/CMSIS/DSP/Source/BasicMathFunctions/arm_mult_q31.c **** 
 106:Drivers/CMSIS/DSP/Source/BasicMathFunctions/arm_mult_q31.c ****   /* If the blockSize is not a multiple of 4, compute any remaining output samples here.
 107:Drivers/CMSIS/DSP/Source/BasicMathFunctions/arm_mult_q31.c ****    ** No loop unrolling is used. */
 108:Drivers/CMSIS/DSP/Source/BasicMathFunctions/arm_mult_q31.c ****   blkCnt = blockSize % 0x4U;
 241              		.loc 1 108 10 is_stmt 0 view .LVU80
 242 00ae DDF804B0 		ldr	fp, [sp, #4]
 243              		.loc 1 108 3 is_stmt 1 view .LVU81
 244              		.loc 1 108 10 is_stmt 0 view .LVU82
 245 00b2 0BF00306 		and	r6, fp, #3
 246              	.LVL34:
 109:Drivers/CMSIS/DSP/Source/BasicMathFunctions/arm_mult_q31.c **** 
 110:Drivers/CMSIS/DSP/Source/BasicMathFunctions/arm_mult_q31.c ****   while (blkCnt > 0U)
 247              		.loc 1 110 3 is_stmt 1 view .LVU83
 248              		.loc 1 110 9 is_stmt 0 view .LVU84
 249 00b6 12E0     		b	.L4
 250              	.L5:
 111:Drivers/CMSIS/DSP/Source/BasicMathFunctions/arm_mult_q31.c ****   {
 112:Drivers/CMSIS/DSP/Source/BasicMathFunctions/arm_mult_q31.c ****     /* C = A * B */
 113:Drivers/CMSIS/DSP/Source/BasicMathFunctions/arm_mult_q31.c ****     /* Multiply the inputs and then store the results in the destination buffer. */
 114:Drivers/CMSIS/DSP/Source/BasicMathFunctions/arm_mult_q31.c ****     inA1 = *pSrcA++;
 251              		.loc 1 114 5 is_stmt 1 view .LVU85
 252              	.LVL35:
 253              		.loc 1 114 10 is_stmt 0 view .LVU86
 254 00b8 50F8044B 		ldr	r4, [r0], #4
 255              	.LVL36:
 115:Drivers/CMSIS/DSP/Source/BasicMathFunctions/arm_mult_q31.c ****     inB1 = *pSrcB++;
 256              		.loc 1 115 5 is_stmt 1 view .LVU87
 257              		.loc 1 115 10 is_stmt 0 view .LVU88
 258 00bc 51F8045B 		ldr	r5, [r1], #4
 259              	.LVL37:
 116:Drivers/CMSIS/DSP/Source/BasicMathFunctions/arm_mult_q31.c ****     out1 = ((q63_t) inA1 * inB1) >> 32;
 260              		.loc 1 116 5 is_stmt 1 view .LVU89
 261              		.loc 1 116 13 is_stmt 0 view .LVU90
 262 00c0 E317     		asrs	r3, r4, #31
 263              		.loc 1 116 26 view .LVU91
 264 00c2 EF17     		asrs	r7, r5, #31
 265 00c4 05FB03F3 		mul	r3, r5, r3
 266 00c8 04FB0733 		mla	r3, r4, r7, r3
 267 00cc A5FB0454 		umull	r5, r4, r5, r4
 268              	.LVL38:
 269              		.loc 1 116 26 view .LVU92
 270 00d0 2344     		add	r3, r3, r4
 271              	.LVL39:
 117:Drivers/CMSIS/DSP/Source/BasicMathFunctions/arm_mult_q31.c ****     out1 = __SSAT(out1, 31);
 272              		.loc 1 117 5 is_stmt 1 view .LVU93
 273              	.LBB6:
 274              		.loc 1 117 12 view .LVU94
 275              		.loc 1 117 12 view .LVU95
 276              		.syntax unified
 277              	@ 117 "Drivers/CMSIS/DSP/Source/BasicMathFunctions/arm_mult_q31.c" 1
 278 00d2 03F31E03 		ssat r3, #31, r3
 279              	@ 0 "" 2
ARM GAS  /var/folders/n6/c271nzx11xl4r4_m7sqjlt0m0000gn/T//ccgGix5q.s 			page 8


 280              	.LVL40:
 281              		.loc 1 117 12 view .LVU96
 282              		.loc 1 117 12 is_stmt 0 view .LVU97
 283              		.thumb
 284              		.syntax unified
 285              	.LBE6:
 118:Drivers/CMSIS/DSP/Source/BasicMathFunctions/arm_mult_q31.c ****     *pDst++ = out1 << 1U;
 286              		.loc 1 118 5 is_stmt 1 view .LVU98
 287              		.loc 1 118 20 is_stmt 0 view .LVU99
 288 00d6 5B00     		lsls	r3, r3, #1
 289              	.LVL41:
 290              		.loc 1 118 13 view .LVU100
 291 00d8 42F8043B 		str	r3, [r2], #4
 292              	.LVL42:
 119:Drivers/CMSIS/DSP/Source/BasicMathFunctions/arm_mult_q31.c **** 
 120:Drivers/CMSIS/DSP/Source/BasicMathFunctions/arm_mult_q31.c ****     /* Decrement the blockSize loop counter */
 121:Drivers/CMSIS/DSP/Source/BasicMathFunctions/arm_mult_q31.c ****     blkCnt--;
 293              		.loc 1 121 5 is_stmt 1 view .LVU101
 294              		.loc 1 121 11 is_stmt 0 view .LVU102
 295 00dc 013E     		subs	r6, r6, #1
 296              	.LVL43:
 297              	.L4:
 110:Drivers/CMSIS/DSP/Source/BasicMathFunctions/arm_mult_q31.c ****   {
 298              		.loc 1 110 17 is_stmt 1 view .LVU103
 299 00de 002E     		cmp	r6, #0
 300 00e0 EAD1     		bne	.L5
 122:Drivers/CMSIS/DSP/Source/BasicMathFunctions/arm_mult_q31.c ****   }
 123:Drivers/CMSIS/DSP/Source/BasicMathFunctions/arm_mult_q31.c **** 
 124:Drivers/CMSIS/DSP/Source/BasicMathFunctions/arm_mult_q31.c **** #else
 125:Drivers/CMSIS/DSP/Source/BasicMathFunctions/arm_mult_q31.c **** 
 126:Drivers/CMSIS/DSP/Source/BasicMathFunctions/arm_mult_q31.c ****   /* Run the below code for Cortex-M0 */
 127:Drivers/CMSIS/DSP/Source/BasicMathFunctions/arm_mult_q31.c **** 
 128:Drivers/CMSIS/DSP/Source/BasicMathFunctions/arm_mult_q31.c ****   /* Initialize blkCnt with number of samples */
 129:Drivers/CMSIS/DSP/Source/BasicMathFunctions/arm_mult_q31.c ****   blkCnt = blockSize;
 130:Drivers/CMSIS/DSP/Source/BasicMathFunctions/arm_mult_q31.c **** 
 131:Drivers/CMSIS/DSP/Source/BasicMathFunctions/arm_mult_q31.c **** 
 132:Drivers/CMSIS/DSP/Source/BasicMathFunctions/arm_mult_q31.c ****   while (blkCnt > 0U)
 133:Drivers/CMSIS/DSP/Source/BasicMathFunctions/arm_mult_q31.c ****   {
 134:Drivers/CMSIS/DSP/Source/BasicMathFunctions/arm_mult_q31.c ****     /* C = A * B */
 135:Drivers/CMSIS/DSP/Source/BasicMathFunctions/arm_mult_q31.c ****     /* Multiply the inputs and then store the results in the destination buffer. */
 136:Drivers/CMSIS/DSP/Source/BasicMathFunctions/arm_mult_q31.c ****     *pDst++ =
 137:Drivers/CMSIS/DSP/Source/BasicMathFunctions/arm_mult_q31.c ****       (q31_t) clip_q63_to_q31(((q63_t) (*pSrcA++) * (*pSrcB++)) >> 31);
 138:Drivers/CMSIS/DSP/Source/BasicMathFunctions/arm_mult_q31.c **** 
 139:Drivers/CMSIS/DSP/Source/BasicMathFunctions/arm_mult_q31.c ****     /* Decrement the blockSize loop counter */
 140:Drivers/CMSIS/DSP/Source/BasicMathFunctions/arm_mult_q31.c ****     blkCnt--;
 141:Drivers/CMSIS/DSP/Source/BasicMathFunctions/arm_mult_q31.c ****   }
 142:Drivers/CMSIS/DSP/Source/BasicMathFunctions/arm_mult_q31.c **** 
 143:Drivers/CMSIS/DSP/Source/BasicMathFunctions/arm_mult_q31.c **** #endif /* #if defined (ARM_MATH_DSP) */
 144:Drivers/CMSIS/DSP/Source/BasicMathFunctions/arm_mult_q31.c **** }
 301              		.loc 1 144 1 is_stmt 0 view .LVU104
 302 00e2 03B0     		add	sp, sp, #12
 303              		.cfi_def_cfa_offset 36
 304              		@ sp needed
 305 00e4 BDE8F08F 		pop	{r4, r5, r6, r7, r8, r9, r10, fp, pc}
 306              		.loc 1 144 1 view .LVU105
 307              		.cfi_endproc
 308              	.LFE135:
ARM GAS  /var/folders/n6/c271nzx11xl4r4_m7sqjlt0m0000gn/T//ccgGix5q.s 			page 9


 310              		.text
 311              	.Letext0:
 312              		.file 2 "/Users/killian/Library/Application Support/Code/User/globalStorage/bmd.stm32-for-vscode/@
 313              		.file 3 "/Users/killian/Library/Application Support/Code/User/globalStorage/bmd.stm32-for-vscode/@
 314              		.file 4 "Drivers/CMSIS/DSP/Include/arm_math.h"
ARM GAS  /var/folders/n6/c271nzx11xl4r4_m7sqjlt0m0000gn/T//ccgGix5q.s 			page 10

