ARM GAS  /var/folders/n6/c271nzx11xl4r4_m7sqjlt0m0000gn/T//ccTrXOoX.s 			page 1


   1              		.cpu cortex-m7
   2              		.arch armv7e-m
   3              		.fpu fpv5-d16
   4              		.eabi_attribute 28, 1
   5              		.eabi_attribute 20, 1
   6              		.eabi_attribute 21, 1
   7              		.eabi_attribute 23, 3
   8              		.eabi_attribute 24, 1
   9              		.eabi_attribute 25, 1
  10              		.eabi_attribute 26, 1
  11              		.eabi_attribute 30, 1
  12              		.eabi_attribute 34, 1
  13              		.eabi_attribute 18, 4
  14              		.file	"arm_q31_to_q15.c"
  15              		.text
  16              	.Ltext0:
  17              		.cfi_sections	.debug_frame
  18              		.file 1 "Drivers/CMSIS/DSP/Source/SupportFunctions/arm_q31_to_q15.c"
  19              		.section	.text.arm_q31_to_q15,"ax",%progbits
  20              		.align	1
  21              		.global	arm_q31_to_q15
  22              		.syntax unified
  23              		.thumb
  24              		.thumb_func
  26              	arm_q31_to_q15:
  27              	.LVL0:
  28              	.LFB135:
   1:Drivers/CMSIS/DSP/Source/SupportFunctions/arm_q31_to_q15.c **** /* ----------------------------------------------------------------------
   2:Drivers/CMSIS/DSP/Source/SupportFunctions/arm_q31_to_q15.c ****  * Project:      CMSIS DSP Library
   3:Drivers/CMSIS/DSP/Source/SupportFunctions/arm_q31_to_q15.c ****  * Title:        arm_q31_to_q15.c
   4:Drivers/CMSIS/DSP/Source/SupportFunctions/arm_q31_to_q15.c ****  * Description:  Converts the elements of the Q31 vector to Q15 vector
   5:Drivers/CMSIS/DSP/Source/SupportFunctions/arm_q31_to_q15.c ****  *
   6:Drivers/CMSIS/DSP/Source/SupportFunctions/arm_q31_to_q15.c ****  * $Date:        27. January 2017
   7:Drivers/CMSIS/DSP/Source/SupportFunctions/arm_q31_to_q15.c ****  * $Revision:    V.1.5.1
   8:Drivers/CMSIS/DSP/Source/SupportFunctions/arm_q31_to_q15.c ****  *
   9:Drivers/CMSIS/DSP/Source/SupportFunctions/arm_q31_to_q15.c ****  * Target Processor: Cortex-M cores
  10:Drivers/CMSIS/DSP/Source/SupportFunctions/arm_q31_to_q15.c ****  * -------------------------------------------------------------------- */
  11:Drivers/CMSIS/DSP/Source/SupportFunctions/arm_q31_to_q15.c **** /*
  12:Drivers/CMSIS/DSP/Source/SupportFunctions/arm_q31_to_q15.c ****  * Copyright (C) 2010-2017 ARM Limited or its affiliates. All rights reserved.
  13:Drivers/CMSIS/DSP/Source/SupportFunctions/arm_q31_to_q15.c ****  *
  14:Drivers/CMSIS/DSP/Source/SupportFunctions/arm_q31_to_q15.c ****  * SPDX-License-Identifier: Apache-2.0
  15:Drivers/CMSIS/DSP/Source/SupportFunctions/arm_q31_to_q15.c ****  *
  16:Drivers/CMSIS/DSP/Source/SupportFunctions/arm_q31_to_q15.c ****  * Licensed under the Apache License, Version 2.0 (the License); you may
  17:Drivers/CMSIS/DSP/Source/SupportFunctions/arm_q31_to_q15.c ****  * not use this file except in compliance with the License.
  18:Drivers/CMSIS/DSP/Source/SupportFunctions/arm_q31_to_q15.c ****  * You may obtain a copy of the License at
  19:Drivers/CMSIS/DSP/Source/SupportFunctions/arm_q31_to_q15.c ****  *
  20:Drivers/CMSIS/DSP/Source/SupportFunctions/arm_q31_to_q15.c ****  * www.apache.org/licenses/LICENSE-2.0
  21:Drivers/CMSIS/DSP/Source/SupportFunctions/arm_q31_to_q15.c ****  *
  22:Drivers/CMSIS/DSP/Source/SupportFunctions/arm_q31_to_q15.c ****  * Unless required by applicable law or agreed to in writing, software
  23:Drivers/CMSIS/DSP/Source/SupportFunctions/arm_q31_to_q15.c ****  * distributed under the License is distributed on an AS IS BASIS, WITHOUT
  24:Drivers/CMSIS/DSP/Source/SupportFunctions/arm_q31_to_q15.c ****  * WARRANTIES OR CONDITIONS OF ANY KIND, either express or implied.
  25:Drivers/CMSIS/DSP/Source/SupportFunctions/arm_q31_to_q15.c ****  * See the License for the specific language governing permissions and
  26:Drivers/CMSIS/DSP/Source/SupportFunctions/arm_q31_to_q15.c ****  * limitations under the License.
  27:Drivers/CMSIS/DSP/Source/SupportFunctions/arm_q31_to_q15.c ****  */
  28:Drivers/CMSIS/DSP/Source/SupportFunctions/arm_q31_to_q15.c **** 
  29:Drivers/CMSIS/DSP/Source/SupportFunctions/arm_q31_to_q15.c **** #include "arm_math.h"
  30:Drivers/CMSIS/DSP/Source/SupportFunctions/arm_q31_to_q15.c **** 
ARM GAS  /var/folders/n6/c271nzx11xl4r4_m7sqjlt0m0000gn/T//ccTrXOoX.s 			page 2


  31:Drivers/CMSIS/DSP/Source/SupportFunctions/arm_q31_to_q15.c **** /**
  32:Drivers/CMSIS/DSP/Source/SupportFunctions/arm_q31_to_q15.c ****  * @ingroup groupSupport
  33:Drivers/CMSIS/DSP/Source/SupportFunctions/arm_q31_to_q15.c ****  */
  34:Drivers/CMSIS/DSP/Source/SupportFunctions/arm_q31_to_q15.c **** 
  35:Drivers/CMSIS/DSP/Source/SupportFunctions/arm_q31_to_q15.c **** /**
  36:Drivers/CMSIS/DSP/Source/SupportFunctions/arm_q31_to_q15.c ****  * @addtogroup q31_to_x
  37:Drivers/CMSIS/DSP/Source/SupportFunctions/arm_q31_to_q15.c ****  * @{
  38:Drivers/CMSIS/DSP/Source/SupportFunctions/arm_q31_to_q15.c ****  */
  39:Drivers/CMSIS/DSP/Source/SupportFunctions/arm_q31_to_q15.c **** 
  40:Drivers/CMSIS/DSP/Source/SupportFunctions/arm_q31_to_q15.c **** /**
  41:Drivers/CMSIS/DSP/Source/SupportFunctions/arm_q31_to_q15.c ****  * @brief Converts the elements of the Q31 vector to Q15 vector.
  42:Drivers/CMSIS/DSP/Source/SupportFunctions/arm_q31_to_q15.c ****  * @param[in]       *pSrc points to the Q31 input vector
  43:Drivers/CMSIS/DSP/Source/SupportFunctions/arm_q31_to_q15.c ****  * @param[out]      *pDst points to the Q15 output vector
  44:Drivers/CMSIS/DSP/Source/SupportFunctions/arm_q31_to_q15.c ****  * @param[in]       blockSize length of the input vector
  45:Drivers/CMSIS/DSP/Source/SupportFunctions/arm_q31_to_q15.c ****  * @return none.
  46:Drivers/CMSIS/DSP/Source/SupportFunctions/arm_q31_to_q15.c ****  *
  47:Drivers/CMSIS/DSP/Source/SupportFunctions/arm_q31_to_q15.c ****  * \par Description:
  48:Drivers/CMSIS/DSP/Source/SupportFunctions/arm_q31_to_q15.c ****  *
  49:Drivers/CMSIS/DSP/Source/SupportFunctions/arm_q31_to_q15.c ****  * The equation used for the conversion process is:
  50:Drivers/CMSIS/DSP/Source/SupportFunctions/arm_q31_to_q15.c ****  *
  51:Drivers/CMSIS/DSP/Source/SupportFunctions/arm_q31_to_q15.c ****  * <pre>
  52:Drivers/CMSIS/DSP/Source/SupportFunctions/arm_q31_to_q15.c ****  * 	pDst[n] = (q15_t) pSrc[n] >> 16;   0 <= n < blockSize.
  53:Drivers/CMSIS/DSP/Source/SupportFunctions/arm_q31_to_q15.c ****  * </pre>
  54:Drivers/CMSIS/DSP/Source/SupportFunctions/arm_q31_to_q15.c ****  *
  55:Drivers/CMSIS/DSP/Source/SupportFunctions/arm_q31_to_q15.c ****  */
  56:Drivers/CMSIS/DSP/Source/SupportFunctions/arm_q31_to_q15.c **** 
  57:Drivers/CMSIS/DSP/Source/SupportFunctions/arm_q31_to_q15.c **** 
  58:Drivers/CMSIS/DSP/Source/SupportFunctions/arm_q31_to_q15.c **** void arm_q31_to_q15(
  59:Drivers/CMSIS/DSP/Source/SupportFunctions/arm_q31_to_q15.c ****   q31_t * pSrc,
  60:Drivers/CMSIS/DSP/Source/SupportFunctions/arm_q31_to_q15.c ****   q15_t * pDst,
  61:Drivers/CMSIS/DSP/Source/SupportFunctions/arm_q31_to_q15.c ****   uint32_t blockSize)
  62:Drivers/CMSIS/DSP/Source/SupportFunctions/arm_q31_to_q15.c **** {
  29              		.loc 1 62 1 view -0
  30              		.cfi_startproc
  31              		@ args = 0, pretend = 0, frame = 0
  32              		@ frame_needed = 0, uses_anonymous_args = 0
  33              		@ link register save eliminated.
  34              		.loc 1 62 1 is_stmt 0 view .LVU1
  35 0000 70B4     		push	{r4, r5, r6}
  36              		.cfi_def_cfa_offset 12
  37              		.cfi_offset 4, -12
  38              		.cfi_offset 5, -8
  39              		.cfi_offset 6, -4
  63:Drivers/CMSIS/DSP/Source/SupportFunctions/arm_q31_to_q15.c ****   q31_t *pIn = pSrc;                             /* Src pointer */
  40              		.loc 1 63 3 is_stmt 1 view .LVU2
  41              	.LVL1:
  64:Drivers/CMSIS/DSP/Source/SupportFunctions/arm_q31_to_q15.c ****   uint32_t blkCnt;                               /* loop counter */
  42              		.loc 1 64 3 view .LVU3
  65:Drivers/CMSIS/DSP/Source/SupportFunctions/arm_q31_to_q15.c **** 
  66:Drivers/CMSIS/DSP/Source/SupportFunctions/arm_q31_to_q15.c **** #if defined (ARM_MATH_DSP)
  67:Drivers/CMSIS/DSP/Source/SupportFunctions/arm_q31_to_q15.c **** 
  68:Drivers/CMSIS/DSP/Source/SupportFunctions/arm_q31_to_q15.c ****   /* Run the below code for Cortex-M4 and Cortex-M3 */
  69:Drivers/CMSIS/DSP/Source/SupportFunctions/arm_q31_to_q15.c ****   q31_t in1, in2, in3, in4;
  43              		.loc 1 69 3 view .LVU4
  70:Drivers/CMSIS/DSP/Source/SupportFunctions/arm_q31_to_q15.c ****   q31_t out1, out2;
  44              		.loc 1 70 3 view .LVU5
  71:Drivers/CMSIS/DSP/Source/SupportFunctions/arm_q31_to_q15.c **** 
ARM GAS  /var/folders/n6/c271nzx11xl4r4_m7sqjlt0m0000gn/T//ccTrXOoX.s 			page 3


  72:Drivers/CMSIS/DSP/Source/SupportFunctions/arm_q31_to_q15.c ****   /*loop Unrolling */
  73:Drivers/CMSIS/DSP/Source/SupportFunctions/arm_q31_to_q15.c ****   blkCnt = blockSize >> 2U;
  45              		.loc 1 73 3 view .LVU6
  46              		.loc 1 73 10 is_stmt 0 view .LVU7
  47 0002 9508     		lsrs	r5, r2, #2
  48              	.LVL2:
  74:Drivers/CMSIS/DSP/Source/SupportFunctions/arm_q31_to_q15.c **** 
  75:Drivers/CMSIS/DSP/Source/SupportFunctions/arm_q31_to_q15.c ****   /* First part of the processing with loop unrolling.  Compute 4 outputs at a time.
  76:Drivers/CMSIS/DSP/Source/SupportFunctions/arm_q31_to_q15.c ****    ** a second loop below computes the remaining 1 to 3 samples. */
  77:Drivers/CMSIS/DSP/Source/SupportFunctions/arm_q31_to_q15.c ****   while (blkCnt > 0U)
  49              		.loc 1 77 3 is_stmt 1 view .LVU8
  50              		.loc 1 77 9 is_stmt 0 view .LVU9
  51 0004 13E0     		b	.L2
  52              	.LVL3:
  53              	.L3:
  78:Drivers/CMSIS/DSP/Source/SupportFunctions/arm_q31_to_q15.c ****   {
  79:Drivers/CMSIS/DSP/Source/SupportFunctions/arm_q31_to_q15.c ****     /* C = (q15_t) A >> 16 */
  80:Drivers/CMSIS/DSP/Source/SupportFunctions/arm_q31_to_q15.c ****     /* convert from q31 to q15 and then store the results in the destination buffer */
  81:Drivers/CMSIS/DSP/Source/SupportFunctions/arm_q31_to_q15.c ****     in1 = *pIn++;
  54              		.loc 1 81 5 is_stmt 1 view .LVU10
  82:Drivers/CMSIS/DSP/Source/SupportFunctions/arm_q31_to_q15.c ****     in2 = *pIn++;
  55              		.loc 1 82 5 view .LVU11
  56              		.loc 1 82 9 is_stmt 0 view .LVU12
  57 0006 4468     		ldr	r4, [r0, #4]
  58              	.LVL4:
  83:Drivers/CMSIS/DSP/Source/SupportFunctions/arm_q31_to_q15.c ****     in3 = *pIn++;
  59              		.loc 1 83 5 is_stmt 1 view .LVU13
  84:Drivers/CMSIS/DSP/Source/SupportFunctions/arm_q31_to_q15.c ****     in4 = *pIn++;
  60              		.loc 1 84 5 view .LVU14
  61              		.loc 1 84 9 is_stmt 0 view .LVU15
  62 0008 C368     		ldr	r3, [r0, #12]
  63              	.LVL5:
  85:Drivers/CMSIS/DSP/Source/SupportFunctions/arm_q31_to_q15.c **** 
  86:Drivers/CMSIS/DSP/Source/SupportFunctions/arm_q31_to_q15.c ****     /* pack two higher 16-bit values from two 32-bit values */
  87:Drivers/CMSIS/DSP/Source/SupportFunctions/arm_q31_to_q15.c **** #ifndef ARM_MATH_BIG_ENDIAN
  88:Drivers/CMSIS/DSP/Source/SupportFunctions/arm_q31_to_q15.c **** 
  89:Drivers/CMSIS/DSP/Source/SupportFunctions/arm_q31_to_q15.c ****     out1 = __PKHTB(in2, in1, 16);
  64              		.loc 1 89 5 is_stmt 1 view .LVU16
  65              		.loc 1 89 12 is_stmt 0 view .LVU17
  66 000a B0F802C0 		ldrh	ip, [r0, #2]
  67              		.loc 1 89 10 view .LVU18
  68 000e 0F4E     		ldr	r6, .L7
  69 0010 3440     		ands	r4, r4, r6
  70              	.LVL6:
  71              		.loc 1 89 10 view .LVU19
  72 0012 44EA0C04 		orr	r4, r4, ip
  73              	.LVL7:
  90:Drivers/CMSIS/DSP/Source/SupportFunctions/arm_q31_to_q15.c ****     out2 = __PKHTB(in4, in3, 16);
  74              		.loc 1 90 5 is_stmt 1 view .LVU20
  75              		.loc 1 90 12 is_stmt 0 view .LVU21
  76 0016 B0F80AC0 		ldrh	ip, [r0, #10]
  77              		.loc 1 90 10 view .LVU22
  78 001a 3340     		ands	r3, r3, r6
  79              	.LVL8:
  80              		.loc 1 90 10 view .LVU23
  81 001c 43EA0C03 		orr	r3, r3, ip
  82              	.LVL9:
ARM GAS  /var/folders/n6/c271nzx11xl4r4_m7sqjlt0m0000gn/T//ccTrXOoX.s 			page 4


  91:Drivers/CMSIS/DSP/Source/SupportFunctions/arm_q31_to_q15.c **** 
  92:Drivers/CMSIS/DSP/Source/SupportFunctions/arm_q31_to_q15.c **** #else
  93:Drivers/CMSIS/DSP/Source/SupportFunctions/arm_q31_to_q15.c **** 
  94:Drivers/CMSIS/DSP/Source/SupportFunctions/arm_q31_to_q15.c ****     out1 = __PKHTB(in1, in2, 16);
  95:Drivers/CMSIS/DSP/Source/SupportFunctions/arm_q31_to_q15.c ****     out2 = __PKHTB(in3, in4, 16);
  96:Drivers/CMSIS/DSP/Source/SupportFunctions/arm_q31_to_q15.c **** 
  97:Drivers/CMSIS/DSP/Source/SupportFunctions/arm_q31_to_q15.c **** #endif //      #ifdef ARM_MATH_BIG_ENDIAN
  98:Drivers/CMSIS/DSP/Source/SupportFunctions/arm_q31_to_q15.c **** 
  99:Drivers/CMSIS/DSP/Source/SupportFunctions/arm_q31_to_q15.c ****     *__SIMD32(pDst)++ = out1;
  83              		.loc 1 99 5 is_stmt 1 view .LVU24
  84              		.loc 1 99 23 is_stmt 0 view .LVU25
  85 0020 8C46     		mov	ip, r1
  86 0022 4CF8084B 		str	r4, [ip], #8
  87              	.LVL10:
 100:Drivers/CMSIS/DSP/Source/SupportFunctions/arm_q31_to_q15.c ****     *__SIMD32(pDst)++ = out2;
  88              		.loc 1 100 5 is_stmt 1 view .LVU26
  89              		.loc 1 100 23 is_stmt 0 view .LVU27
  90 0026 4B60     		str	r3, [r1, #4]
 101:Drivers/CMSIS/DSP/Source/SupportFunctions/arm_q31_to_q15.c **** 
 102:Drivers/CMSIS/DSP/Source/SupportFunctions/arm_q31_to_q15.c ****     /* Decrement the loop counter */
 103:Drivers/CMSIS/DSP/Source/SupportFunctions/arm_q31_to_q15.c ****     blkCnt--;
  91              		.loc 1 103 5 is_stmt 1 view .LVU28
  92              		.loc 1 103 11 is_stmt 0 view .LVU29
  93 0028 013D     		subs	r5, r5, #1
  94              	.LVL11:
 100:Drivers/CMSIS/DSP/Source/SupportFunctions/arm_q31_to_q15.c ****     *__SIMD32(pDst)++ = out2;
  95              		.loc 1 100 20 view .LVU30
  96 002a 6146     		mov	r1, ip
  84:Drivers/CMSIS/DSP/Source/SupportFunctions/arm_q31_to_q15.c **** 
  97              		.loc 1 84 15 view .LVU31
  98 002c 1030     		adds	r0, r0, #16
  99              	.LVL12:
 100              	.L2:
  77:Drivers/CMSIS/DSP/Source/SupportFunctions/arm_q31_to_q15.c ****   {
 101              		.loc 1 77 17 is_stmt 1 view .LVU32
 102 002e 002D     		cmp	r5, #0
 103 0030 E9D1     		bne	.L3
 104:Drivers/CMSIS/DSP/Source/SupportFunctions/arm_q31_to_q15.c ****   }
 105:Drivers/CMSIS/DSP/Source/SupportFunctions/arm_q31_to_q15.c **** 
 106:Drivers/CMSIS/DSP/Source/SupportFunctions/arm_q31_to_q15.c ****   /* If the blockSize is not a multiple of 4, compute any remaining output samples here.
 107:Drivers/CMSIS/DSP/Source/SupportFunctions/arm_q31_to_q15.c ****    ** No loop unrolling is used. */
 108:Drivers/CMSIS/DSP/Source/SupportFunctions/arm_q31_to_q15.c ****   blkCnt = blockSize % 0x4U;
 104              		.loc 1 108 3 view .LVU33
 105              		.loc 1 108 10 is_stmt 0 view .LVU34
 106 0032 02F00302 		and	r2, r2, #3
 107              	.LVL13:
 109:Drivers/CMSIS/DSP/Source/SupportFunctions/arm_q31_to_q15.c **** 
 110:Drivers/CMSIS/DSP/Source/SupportFunctions/arm_q31_to_q15.c **** #else
 111:Drivers/CMSIS/DSP/Source/SupportFunctions/arm_q31_to_q15.c **** 
 112:Drivers/CMSIS/DSP/Source/SupportFunctions/arm_q31_to_q15.c ****   /* Run the below code for Cortex-M0 */
 113:Drivers/CMSIS/DSP/Source/SupportFunctions/arm_q31_to_q15.c **** 
 114:Drivers/CMSIS/DSP/Source/SupportFunctions/arm_q31_to_q15.c ****   /* Loop over blockSize number of values */
 115:Drivers/CMSIS/DSP/Source/SupportFunctions/arm_q31_to_q15.c ****   blkCnt = blockSize;
 116:Drivers/CMSIS/DSP/Source/SupportFunctions/arm_q31_to_q15.c **** 
 117:Drivers/CMSIS/DSP/Source/SupportFunctions/arm_q31_to_q15.c **** #endif /* #if defined (ARM_MATH_DSP) */
 118:Drivers/CMSIS/DSP/Source/SupportFunctions/arm_q31_to_q15.c **** 
 119:Drivers/CMSIS/DSP/Source/SupportFunctions/arm_q31_to_q15.c ****   while (blkCnt > 0U)
ARM GAS  /var/folders/n6/c271nzx11xl4r4_m7sqjlt0m0000gn/T//ccTrXOoX.s 			page 5


 108              		.loc 1 119 3 is_stmt 1 view .LVU35
 109              		.loc 1 119 9 is_stmt 0 view .LVU36
 110 0036 05E0     		b	.L4
 111              	.L5:
 120:Drivers/CMSIS/DSP/Source/SupportFunctions/arm_q31_to_q15.c ****   {
 121:Drivers/CMSIS/DSP/Source/SupportFunctions/arm_q31_to_q15.c ****     /* C = (q15_t) A >> 16 */
 122:Drivers/CMSIS/DSP/Source/SupportFunctions/arm_q31_to_q15.c ****     /* convert from q31 to q15 and then store the results in the destination buffer */
 123:Drivers/CMSIS/DSP/Source/SupportFunctions/arm_q31_to_q15.c ****     *pDst++ = (q15_t) (*pIn++ >> 16);
 112              		.loc 1 123 5 is_stmt 1 view .LVU37
 113              	.LVL14:
 114              		.loc 1 123 24 is_stmt 0 view .LVU38
 115 0038 50F8043B 		ldr	r3, [r0], #4
 116              	.LVL15:
 117              		.loc 1 123 15 view .LVU39
 118 003c 1B14     		asrs	r3, r3, #16
 119              		.loc 1 123 13 view .LVU40
 120 003e 21F8023B 		strh	r3, [r1], #2	@ movhi
 121              	.LVL16:
 124:Drivers/CMSIS/DSP/Source/SupportFunctions/arm_q31_to_q15.c **** 
 125:Drivers/CMSIS/DSP/Source/SupportFunctions/arm_q31_to_q15.c ****     /* Decrement the loop counter */
 126:Drivers/CMSIS/DSP/Source/SupportFunctions/arm_q31_to_q15.c ****     blkCnt--;
 122              		.loc 1 126 5 is_stmt 1 view .LVU41
 123              		.loc 1 126 11 is_stmt 0 view .LVU42
 124 0042 013A     		subs	r2, r2, #1
 125              	.LVL17:
 126              	.L4:
 119:Drivers/CMSIS/DSP/Source/SupportFunctions/arm_q31_to_q15.c ****   {
 127              		.loc 1 119 17 is_stmt 1 view .LVU43
 128 0044 002A     		cmp	r2, #0
 129 0046 F7D1     		bne	.L5
 127:Drivers/CMSIS/DSP/Source/SupportFunctions/arm_q31_to_q15.c ****   }
 128:Drivers/CMSIS/DSP/Source/SupportFunctions/arm_q31_to_q15.c **** 
 129:Drivers/CMSIS/DSP/Source/SupportFunctions/arm_q31_to_q15.c **** }
 130              		.loc 1 129 1 is_stmt 0 view .LVU44
 131 0048 70BC     		pop	{r4, r5, r6}
 132              		.cfi_restore 6
 133              		.cfi_restore 5
 134              		.cfi_restore 4
 135              		.cfi_def_cfa_offset 0
 136 004a 7047     		bx	lr
 137              	.L8:
 138              		.align	2
 139              	.L7:
 140 004c 0000FFFF 		.word	-65536
 141              		.cfi_endproc
 142              	.LFE135:
 144              		.text
 145              	.Letext0:
 146              		.file 2 "/Users/killian/Library/Application Support/Code/User/globalStorage/bmd.stm32-for-vscode/@
 147              		.file 3 "/Users/killian/Library/Application Support/Code/User/globalStorage/bmd.stm32-for-vscode/@
 148              		.file 4 "Drivers/CMSIS/DSP/Include/arm_math.h"
ARM GAS  /var/folders/n6/c271nzx11xl4r4_m7sqjlt0m0000gn/T//ccTrXOoX.s 			page 6

