ARM GAS  /var/folders/n6/c271nzx11xl4r4_m7sqjlt0m0000gn/T//ccwyo7BG.s 			page 1


   1              		.cpu cortex-m7
   2              		.arch armv7e-m
   3              		.fpu fpv5-d16
   4              		.eabi_attribute 28, 1
   5              		.eabi_attribute 20, 1
   6              		.eabi_attribute 21, 1
   7              		.eabi_attribute 23, 3
   8              		.eabi_attribute 24, 1
   9              		.eabi_attribute 25, 1
  10              		.eabi_attribute 26, 1
  11              		.eabi_attribute 30, 1
  12              		.eabi_attribute 34, 1
  13              		.eabi_attribute 18, 4
  14              		.file	"arm_biquad_cascade_df1_fast_q31.c"
  15              		.text
  16              	.Ltext0:
  17              		.cfi_sections	.debug_frame
  18              		.file 1 "Drivers/CMSIS/DSP/Source/FilteringFunctions/arm_biquad_cascade_df1_fast_q31.c"
  19              		.section	.text.arm_biquad_cascade_df1_fast_q31,"ax",%progbits
  20              		.align	1
  21              		.global	arm_biquad_cascade_df1_fast_q31
  22              		.syntax unified
  23              		.thumb
  24              		.thumb_func
  26              	arm_biquad_cascade_df1_fast_q31:
  27              	.LVL0:
  28              	.LFB135:
   1:Drivers/CMSIS/DSP/Source/FilteringFunctions/arm_biquad_cascade_df1_fast_q31.c **** /* ----------------------------------------------------------------------
   2:Drivers/CMSIS/DSP/Source/FilteringFunctions/arm_biquad_cascade_df1_fast_q31.c ****  * Project:      CMSIS DSP Library
   3:Drivers/CMSIS/DSP/Source/FilteringFunctions/arm_biquad_cascade_df1_fast_q31.c ****  * Title:        arm_biquad_cascade_df1_fast_q31.c
   4:Drivers/CMSIS/DSP/Source/FilteringFunctions/arm_biquad_cascade_df1_fast_q31.c ****  * Description:  Processing function for the Q31 Fast Biquad cascade DirectFormI(DF1) filter
   5:Drivers/CMSIS/DSP/Source/FilteringFunctions/arm_biquad_cascade_df1_fast_q31.c ****  *
   6:Drivers/CMSIS/DSP/Source/FilteringFunctions/arm_biquad_cascade_df1_fast_q31.c ****  * $Date:        27. January 2017
   7:Drivers/CMSIS/DSP/Source/FilteringFunctions/arm_biquad_cascade_df1_fast_q31.c ****  * $Revision:    V.1.5.1
   8:Drivers/CMSIS/DSP/Source/FilteringFunctions/arm_biquad_cascade_df1_fast_q31.c ****  *
   9:Drivers/CMSIS/DSP/Source/FilteringFunctions/arm_biquad_cascade_df1_fast_q31.c ****  * Target Processor: Cortex-M cores
  10:Drivers/CMSIS/DSP/Source/FilteringFunctions/arm_biquad_cascade_df1_fast_q31.c ****  * -------------------------------------------------------------------- */
  11:Drivers/CMSIS/DSP/Source/FilteringFunctions/arm_biquad_cascade_df1_fast_q31.c **** /*
  12:Drivers/CMSIS/DSP/Source/FilteringFunctions/arm_biquad_cascade_df1_fast_q31.c ****  * Copyright (C) 2010-2017 ARM Limited or its affiliates. All rights reserved.
  13:Drivers/CMSIS/DSP/Source/FilteringFunctions/arm_biquad_cascade_df1_fast_q31.c ****  *
  14:Drivers/CMSIS/DSP/Source/FilteringFunctions/arm_biquad_cascade_df1_fast_q31.c ****  * SPDX-License-Identifier: Apache-2.0
  15:Drivers/CMSIS/DSP/Source/FilteringFunctions/arm_biquad_cascade_df1_fast_q31.c ****  *
  16:Drivers/CMSIS/DSP/Source/FilteringFunctions/arm_biquad_cascade_df1_fast_q31.c ****  * Licensed under the Apache License, Version 2.0 (the License); you may
  17:Drivers/CMSIS/DSP/Source/FilteringFunctions/arm_biquad_cascade_df1_fast_q31.c ****  * not use this file except in compliance with the License.
  18:Drivers/CMSIS/DSP/Source/FilteringFunctions/arm_biquad_cascade_df1_fast_q31.c ****  * You may obtain a copy of the License at
  19:Drivers/CMSIS/DSP/Source/FilteringFunctions/arm_biquad_cascade_df1_fast_q31.c ****  *
  20:Drivers/CMSIS/DSP/Source/FilteringFunctions/arm_biquad_cascade_df1_fast_q31.c ****  * www.apache.org/licenses/LICENSE-2.0
  21:Drivers/CMSIS/DSP/Source/FilteringFunctions/arm_biquad_cascade_df1_fast_q31.c ****  *
  22:Drivers/CMSIS/DSP/Source/FilteringFunctions/arm_biquad_cascade_df1_fast_q31.c ****  * Unless required by applicable law or agreed to in writing, software
  23:Drivers/CMSIS/DSP/Source/FilteringFunctions/arm_biquad_cascade_df1_fast_q31.c ****  * distributed under the License is distributed on an AS IS BASIS, WITHOUT
  24:Drivers/CMSIS/DSP/Source/FilteringFunctions/arm_biquad_cascade_df1_fast_q31.c ****  * WARRANTIES OR CONDITIONS OF ANY KIND, either express or implied.
  25:Drivers/CMSIS/DSP/Source/FilteringFunctions/arm_biquad_cascade_df1_fast_q31.c ****  * See the License for the specific language governing permissions and
  26:Drivers/CMSIS/DSP/Source/FilteringFunctions/arm_biquad_cascade_df1_fast_q31.c ****  * limitations under the License.
  27:Drivers/CMSIS/DSP/Source/FilteringFunctions/arm_biquad_cascade_df1_fast_q31.c ****  */
  28:Drivers/CMSIS/DSP/Source/FilteringFunctions/arm_biquad_cascade_df1_fast_q31.c **** 
  29:Drivers/CMSIS/DSP/Source/FilteringFunctions/arm_biquad_cascade_df1_fast_q31.c **** #include "arm_math.h"
  30:Drivers/CMSIS/DSP/Source/FilteringFunctions/arm_biquad_cascade_df1_fast_q31.c **** 
ARM GAS  /var/folders/n6/c271nzx11xl4r4_m7sqjlt0m0000gn/T//ccwyo7BG.s 			page 2


  31:Drivers/CMSIS/DSP/Source/FilteringFunctions/arm_biquad_cascade_df1_fast_q31.c **** /**
  32:Drivers/CMSIS/DSP/Source/FilteringFunctions/arm_biquad_cascade_df1_fast_q31.c ****  * @ingroup groupFilters
  33:Drivers/CMSIS/DSP/Source/FilteringFunctions/arm_biquad_cascade_df1_fast_q31.c ****  */
  34:Drivers/CMSIS/DSP/Source/FilteringFunctions/arm_biquad_cascade_df1_fast_q31.c **** 
  35:Drivers/CMSIS/DSP/Source/FilteringFunctions/arm_biquad_cascade_df1_fast_q31.c **** /**
  36:Drivers/CMSIS/DSP/Source/FilteringFunctions/arm_biquad_cascade_df1_fast_q31.c ****  * @addtogroup BiquadCascadeDF1
  37:Drivers/CMSIS/DSP/Source/FilteringFunctions/arm_biquad_cascade_df1_fast_q31.c ****  * @{
  38:Drivers/CMSIS/DSP/Source/FilteringFunctions/arm_biquad_cascade_df1_fast_q31.c ****  */
  39:Drivers/CMSIS/DSP/Source/FilteringFunctions/arm_biquad_cascade_df1_fast_q31.c **** 
  40:Drivers/CMSIS/DSP/Source/FilteringFunctions/arm_biquad_cascade_df1_fast_q31.c **** /**
  41:Drivers/CMSIS/DSP/Source/FilteringFunctions/arm_biquad_cascade_df1_fast_q31.c ****  * @details
  42:Drivers/CMSIS/DSP/Source/FilteringFunctions/arm_biquad_cascade_df1_fast_q31.c ****  *
  43:Drivers/CMSIS/DSP/Source/FilteringFunctions/arm_biquad_cascade_df1_fast_q31.c ****  * @param[in]  *S        points to an instance of the Q31 Biquad cascade structure.
  44:Drivers/CMSIS/DSP/Source/FilteringFunctions/arm_biquad_cascade_df1_fast_q31.c ****  * @param[in]  *pSrc     points to the block of input data.
  45:Drivers/CMSIS/DSP/Source/FilteringFunctions/arm_biquad_cascade_df1_fast_q31.c ****  * @param[out] *pDst     points to the block of output data.
  46:Drivers/CMSIS/DSP/Source/FilteringFunctions/arm_biquad_cascade_df1_fast_q31.c ****  * @param[in]  blockSize number of samples to process per call.
  47:Drivers/CMSIS/DSP/Source/FilteringFunctions/arm_biquad_cascade_df1_fast_q31.c ****  * @return     none.
  48:Drivers/CMSIS/DSP/Source/FilteringFunctions/arm_biquad_cascade_df1_fast_q31.c ****  *
  49:Drivers/CMSIS/DSP/Source/FilteringFunctions/arm_biquad_cascade_df1_fast_q31.c ****  * <b>Scaling and Overflow Behavior:</b>
  50:Drivers/CMSIS/DSP/Source/FilteringFunctions/arm_biquad_cascade_df1_fast_q31.c ****  * \par
  51:Drivers/CMSIS/DSP/Source/FilteringFunctions/arm_biquad_cascade_df1_fast_q31.c ****  * This function is optimized for speed at the expense of fixed-point precision and overflow protec
  52:Drivers/CMSIS/DSP/Source/FilteringFunctions/arm_biquad_cascade_df1_fast_q31.c ****  * The result of each 1.31 x 1.31 multiplication is truncated to 2.30 format.
  53:Drivers/CMSIS/DSP/Source/FilteringFunctions/arm_biquad_cascade_df1_fast_q31.c ****  * These intermediate results are added to a 2.30 accumulator.
  54:Drivers/CMSIS/DSP/Source/FilteringFunctions/arm_biquad_cascade_df1_fast_q31.c ****  * Finally, the accumulator is saturated and converted to a 1.31 result.
  55:Drivers/CMSIS/DSP/Source/FilteringFunctions/arm_biquad_cascade_df1_fast_q31.c ****  * The fast version has the same overflow behavior as the standard version and provides less precis
  56:Drivers/CMSIS/DSP/Source/FilteringFunctions/arm_biquad_cascade_df1_fast_q31.c ****  * In order to avoid overflows completely the input signal must be scaled down by two bits and lie 
  57:Drivers/CMSIS/DSP/Source/FilteringFunctions/arm_biquad_cascade_df1_fast_q31.c ****  * arm_biquad_cascade_df1_init_q31() to initialize filter structure.
  58:Drivers/CMSIS/DSP/Source/FilteringFunctions/arm_biquad_cascade_df1_fast_q31.c ****  *
  59:Drivers/CMSIS/DSP/Source/FilteringFunctions/arm_biquad_cascade_df1_fast_q31.c ****  * \par
  60:Drivers/CMSIS/DSP/Source/FilteringFunctions/arm_biquad_cascade_df1_fast_q31.c ****  * Refer to the function <code>arm_biquad_cascade_df1_q31()</code> for a slower implementation of t
  61:Drivers/CMSIS/DSP/Source/FilteringFunctions/arm_biquad_cascade_df1_fast_q31.c ****  * Use the function <code>arm_biquad_cascade_df1_init_q31()</code> to initialize the filter structu
  62:Drivers/CMSIS/DSP/Source/FilteringFunctions/arm_biquad_cascade_df1_fast_q31.c ****  */
  63:Drivers/CMSIS/DSP/Source/FilteringFunctions/arm_biquad_cascade_df1_fast_q31.c **** 
  64:Drivers/CMSIS/DSP/Source/FilteringFunctions/arm_biquad_cascade_df1_fast_q31.c **** void arm_biquad_cascade_df1_fast_q31(
  65:Drivers/CMSIS/DSP/Source/FilteringFunctions/arm_biquad_cascade_df1_fast_q31.c ****   const arm_biquad_casd_df1_inst_q31 * S,
  66:Drivers/CMSIS/DSP/Source/FilteringFunctions/arm_biquad_cascade_df1_fast_q31.c ****   q31_t * pSrc,
  67:Drivers/CMSIS/DSP/Source/FilteringFunctions/arm_biquad_cascade_df1_fast_q31.c ****   q31_t * pDst,
  68:Drivers/CMSIS/DSP/Source/FilteringFunctions/arm_biquad_cascade_df1_fast_q31.c ****   uint32_t blockSize)
  69:Drivers/CMSIS/DSP/Source/FilteringFunctions/arm_biquad_cascade_df1_fast_q31.c **** {
  29              		.loc 1 69 1 view -0
  30              		.cfi_startproc
  31              		@ args = 0, pretend = 0, frame = 88
  32              		@ frame_needed = 0, uses_anonymous_args = 0
  33              		.loc 1 69 1 is_stmt 0 view .LVU1
  34 0000 2DE9F04F 		push	{r4, r5, r6, r7, r8, r9, r10, fp, lr}
  35              		.cfi_def_cfa_offset 36
  36              		.cfi_offset 4, -36
  37              		.cfi_offset 5, -32
  38              		.cfi_offset 6, -28
  39              		.cfi_offset 7, -24
  40              		.cfi_offset 8, -20
  41              		.cfi_offset 9, -16
  42              		.cfi_offset 10, -12
  43              		.cfi_offset 11, -8
  44              		.cfi_offset 14, -4
  45 0004 97B0     		sub	sp, sp, #92
  46              		.cfi_def_cfa_offset 128
ARM GAS  /var/folders/n6/c271nzx11xl4r4_m7sqjlt0m0000gn/T//ccwyo7BG.s 			page 3


  47 0006 0591     		str	r1, [sp, #20]
  48 0008 1592     		str	r2, [sp, #84]
  49 000a 9946     		mov	r9, r3
  70:Drivers/CMSIS/DSP/Source/FilteringFunctions/arm_biquad_cascade_df1_fast_q31.c ****   q31_t acc = 0;                                 /*  accumulator                   */
  50              		.loc 1 70 3 is_stmt 1 view .LVU2
  51              	.LVL1:
  71:Drivers/CMSIS/DSP/Source/FilteringFunctions/arm_biquad_cascade_df1_fast_q31.c ****   q31_t Xn1, Xn2, Yn1, Yn2;                      /*  Filter state variables        */
  52              		.loc 1 71 3 view .LVU3
  72:Drivers/CMSIS/DSP/Source/FilteringFunctions/arm_biquad_cascade_df1_fast_q31.c ****   q31_t b0, b1, b2, a1, a2;                      /*  Filter coefficients           */
  53              		.loc 1 72 3 view .LVU4
  73:Drivers/CMSIS/DSP/Source/FilteringFunctions/arm_biquad_cascade_df1_fast_q31.c ****   q31_t *pIn = pSrc;                             /*  input pointer initialization  */
  54              		.loc 1 73 3 view .LVU5
  74:Drivers/CMSIS/DSP/Source/FilteringFunctions/arm_biquad_cascade_df1_fast_q31.c ****   q31_t *pOut = pDst;                            /*  output pointer initialization */
  55              		.loc 1 74 3 view .LVU6
  75:Drivers/CMSIS/DSP/Source/FilteringFunctions/arm_biquad_cascade_df1_fast_q31.c ****   q31_t *pState = S->pState;                     /*  pState pointer initialization */
  56              		.loc 1 75 3 view .LVU7
  57              		.loc 1 75 10 is_stmt 0 view .LVU8
  58 000c 4368     		ldr	r3, [r0, #4]
  59              	.LVL2:
  76:Drivers/CMSIS/DSP/Source/FilteringFunctions/arm_biquad_cascade_df1_fast_q31.c ****   q31_t *pCoeffs = S->pCoeffs;                   /*  coeff pointer initialization  */
  60              		.loc 1 76 3 is_stmt 1 view .LVU9
  61              		.loc 1 76 10 is_stmt 0 view .LVU10
  62 000e D0F808B0 		ldr	fp, [r0, #8]
  63              	.LVL3:
  77:Drivers/CMSIS/DSP/Source/FilteringFunctions/arm_biquad_cascade_df1_fast_q31.c ****   q31_t Xn;                                      /*  temporary input               */
  64              		.loc 1 77 3 is_stmt 1 view .LVU11
  78:Drivers/CMSIS/DSP/Source/FilteringFunctions/arm_biquad_cascade_df1_fast_q31.c ****   int32_t shift = (int32_t) S->postShift + 1;    /*  Shift to be applied to the output */
  65              		.loc 1 78 3 view .LVU12
  66              		.loc 1 78 30 is_stmt 0 view .LVU13
  67 0012 027B     		ldrb	r2, [r0, #12]	@ zero_extendqisi2
  68              	.LVL4:
  69              		.loc 1 78 11 view .LVU14
  70 0014 0132     		adds	r2, r2, #1
  71 0016 0692     		str	r2, [sp, #24]
  72              	.LVL5:
  79:Drivers/CMSIS/DSP/Source/FilteringFunctions/arm_biquad_cascade_df1_fast_q31.c ****   uint32_t sample, stage = S->numStages;         /*  loop counters                     */
  73              		.loc 1 79 3 is_stmt 1 view .LVU15
  74              		.loc 1 79 20 is_stmt 0 view .LVU16
  75 0018 D0F80080 		ldr	r8, [r0]
  76              	.LVL6:
  77              		.loc 1 79 20 view .LVU17
  78 001c 5A46     		mov	r2, fp
  79              	.LVL7:
  80              		.loc 1 79 20 view .LVU18
  81 001e CDF84480 		str	r8, [sp, #68]
  82 0022 CDF84890 		str	r9, [sp, #72]
  83 0026 DBE1     		b	.L6
  84              	.LVL8:
  85              	.L3:
  80:Drivers/CMSIS/DSP/Source/FilteringFunctions/arm_biquad_cascade_df1_fast_q31.c **** 
  81:Drivers/CMSIS/DSP/Source/FilteringFunctions/arm_biquad_cascade_df1_fast_q31.c **** 
  82:Drivers/CMSIS/DSP/Source/FilteringFunctions/arm_biquad_cascade_df1_fast_q31.c ****   do
  83:Drivers/CMSIS/DSP/Source/FilteringFunctions/arm_biquad_cascade_df1_fast_q31.c ****   {
  84:Drivers/CMSIS/DSP/Source/FilteringFunctions/arm_biquad_cascade_df1_fast_q31.c ****     /* Reading the coefficients */
  85:Drivers/CMSIS/DSP/Source/FilteringFunctions/arm_biquad_cascade_df1_fast_q31.c ****     b0 = *pCoeffs++;
  86:Drivers/CMSIS/DSP/Source/FilteringFunctions/arm_biquad_cascade_df1_fast_q31.c ****     b1 = *pCoeffs++;
  87:Drivers/CMSIS/DSP/Source/FilteringFunctions/arm_biquad_cascade_df1_fast_q31.c ****     b2 = *pCoeffs++;
ARM GAS  /var/folders/n6/c271nzx11xl4r4_m7sqjlt0m0000gn/T//ccwyo7BG.s 			page 4


  88:Drivers/CMSIS/DSP/Source/FilteringFunctions/arm_biquad_cascade_df1_fast_q31.c ****     a1 = *pCoeffs++;
  89:Drivers/CMSIS/DSP/Source/FilteringFunctions/arm_biquad_cascade_df1_fast_q31.c ****     a2 = *pCoeffs++;
  90:Drivers/CMSIS/DSP/Source/FilteringFunctions/arm_biquad_cascade_df1_fast_q31.c **** 
  91:Drivers/CMSIS/DSP/Source/FilteringFunctions/arm_biquad_cascade_df1_fast_q31.c ****     /* Reading the state values */
  92:Drivers/CMSIS/DSP/Source/FilteringFunctions/arm_biquad_cascade_df1_fast_q31.c ****     Xn1 = pState[0];
  93:Drivers/CMSIS/DSP/Source/FilteringFunctions/arm_biquad_cascade_df1_fast_q31.c ****     Xn2 = pState[1];
  94:Drivers/CMSIS/DSP/Source/FilteringFunctions/arm_biquad_cascade_df1_fast_q31.c ****     Yn1 = pState[2];
  95:Drivers/CMSIS/DSP/Source/FilteringFunctions/arm_biquad_cascade_df1_fast_q31.c ****     Yn2 = pState[3];
  96:Drivers/CMSIS/DSP/Source/FilteringFunctions/arm_biquad_cascade_df1_fast_q31.c **** 
  97:Drivers/CMSIS/DSP/Source/FilteringFunctions/arm_biquad_cascade_df1_fast_q31.c ****     /* Apply loop unrolling and compute 4 output values simultaneously. */
  98:Drivers/CMSIS/DSP/Source/FilteringFunctions/arm_biquad_cascade_df1_fast_q31.c ****     /*      The variables acc ... acc3 hold output values that are being computed:
  99:Drivers/CMSIS/DSP/Source/FilteringFunctions/arm_biquad_cascade_df1_fast_q31.c ****      *
 100:Drivers/CMSIS/DSP/Source/FilteringFunctions/arm_biquad_cascade_df1_fast_q31.c ****      *    acc =  b0 * x[n] + b1 * x[n-1] + b2 * x[n-2] + a1 * y[n-1] + a2 * y[n-2]
 101:Drivers/CMSIS/DSP/Source/FilteringFunctions/arm_biquad_cascade_df1_fast_q31.c ****      */
 102:Drivers/CMSIS/DSP/Source/FilteringFunctions/arm_biquad_cascade_df1_fast_q31.c **** 
 103:Drivers/CMSIS/DSP/Source/FilteringFunctions/arm_biquad_cascade_df1_fast_q31.c ****     sample = blockSize >> 2U;
 104:Drivers/CMSIS/DSP/Source/FilteringFunctions/arm_biquad_cascade_df1_fast_q31.c **** 
 105:Drivers/CMSIS/DSP/Source/FilteringFunctions/arm_biquad_cascade_df1_fast_q31.c ****     /* First part of the processing with loop unrolling.  Compute 4 outputs at a time.
 106:Drivers/CMSIS/DSP/Source/FilteringFunctions/arm_biquad_cascade_df1_fast_q31.c ****      ** a second loop below computes the remaining 1 to 3 samples. */
 107:Drivers/CMSIS/DSP/Source/FilteringFunctions/arm_biquad_cascade_df1_fast_q31.c ****     while (sample > 0U)
 108:Drivers/CMSIS/DSP/Source/FilteringFunctions/arm_biquad_cascade_df1_fast_q31.c ****     {
 109:Drivers/CMSIS/DSP/Source/FilteringFunctions/arm_biquad_cascade_df1_fast_q31.c ****       /* Read the input */
 110:Drivers/CMSIS/DSP/Source/FilteringFunctions/arm_biquad_cascade_df1_fast_q31.c ****       Xn = *pIn;
  86              		.loc 1 110 7 is_stmt 1 view .LVU19
  87              		.loc 1 110 10 is_stmt 0 view .LVU20
  88 0028 059B     		ldr	r3, [sp, #20]
  89              	.LVL9:
  90              		.loc 1 110 10 view .LVU21
  91 002a 1D68     		ldr	r5, [r3]
  92              	.LVL10:
 111:Drivers/CMSIS/DSP/Source/FilteringFunctions/arm_biquad_cascade_df1_fast_q31.c **** 
 112:Drivers/CMSIS/DSP/Source/FilteringFunctions/arm_biquad_cascade_df1_fast_q31.c ****       /* acc =  b0 * x[n] + b1 * x[n-1] + b2 * x[n-2] + a1 * y[n-1] + a2 * y[n-2] */
 113:Drivers/CMSIS/DSP/Source/FilteringFunctions/arm_biquad_cascade_df1_fast_q31.c ****       /* acc =  b0 * x[n] */
 114:Drivers/CMSIS/DSP/Source/FilteringFunctions/arm_biquad_cascade_df1_fast_q31.c ****       /*acc = (q31_t) (((q63_t) b1 * Xn1) >> 32);*/
 115:Drivers/CMSIS/DSP/Source/FilteringFunctions/arm_biquad_cascade_df1_fast_q31.c ****       mult_32x32_keep32_R(acc, b1, Xn1);
  93              		.loc 1 115 7 is_stmt 1 view .LVU22
  94 002c 4FEAEC73 		asr	r3, ip, #31
  95 0030 4FEAE87B 		asr	fp, r8, #31
  96 0034 0CFB0BF7 		mul	r7, ip, fp
  97 0038 0993     		str	r3, [sp, #36]
  98 003a 08FB0377 		mla	r7, r8, r3, r7
  99 003e ACFB0834 		umull	r3, r4, ip, r8
 100 0042 13F10043 		adds	r3, r3, #-2147483648
 101 0046 47EB0407 		adc	r7, r7, r4
 102              	.LVL11:
 116:Drivers/CMSIS/DSP/Source/FilteringFunctions/arm_biquad_cascade_df1_fast_q31.c ****       /* acc +=  b1 * x[n-1] */
 117:Drivers/CMSIS/DSP/Source/FilteringFunctions/arm_biquad_cascade_df1_fast_q31.c ****       /*acc = (q31_t) ((((q63_t) acc << 32) + ((q63_t) b0 * (Xn))) >> 32);*/
 118:Drivers/CMSIS/DSP/Source/FilteringFunctions/arm_biquad_cascade_df1_fast_q31.c ****       multAcc_32x32_keep32_R(acc, b0, Xn);
 103              		.loc 1 118 7 view .LVU23
 104 004a 0023     		movs	r3, #0
 105 004c 4FEAEE74 		asr	r4, lr, #31
 106 0050 EA17     		asrs	r2, r5, #31
 107 0052 0F92     		str	r2, [sp, #60]
 108 0054 0EFB02F9 		mul	r9, lr, r2
 109 0058 A246     		mov	r10, r4
 110 005a 05FB0499 		mla	r9, r5, r4, r9
 111 005e 0795     		str	r5, [sp, #28]
ARM GAS  /var/folders/n6/c271nzx11xl4r4_m7sqjlt0m0000gn/T//ccwyo7BG.s 			page 5


 112 0060 AEFB0545 		umull	r4, r5, lr, r5
 113              	.LVL12:
 114              		.loc 1 118 7 is_stmt 0 view .LVU24
 115 0064 4D44     		add	r5, r5, r9
 116 0066 1C19     		adds	r4, r3, r4
 117 0068 14F10044 		adds	r4, r4, #-2147483648
 118 006c 45EB0705 		adc	r5, r5, r7
 119:Drivers/CMSIS/DSP/Source/FilteringFunctions/arm_biquad_cascade_df1_fast_q31.c ****       /* acc +=  b[2] * x[n-2] */
 120:Drivers/CMSIS/DSP/Source/FilteringFunctions/arm_biquad_cascade_df1_fast_q31.c ****       /*acc = (q31_t) ((((q63_t) acc << 32) + ((q63_t) b2 * (Xn2))) >> 32);*/
 121:Drivers/CMSIS/DSP/Source/FilteringFunctions/arm_biquad_cascade_df1_fast_q31.c ****       multAcc_32x32_keep32_R(acc, b2, Xn2);
 119              		.loc 1 121 7 is_stmt 1 view .LVU25
 120 0070 019C     		ldr	r4, [sp, #4]
 121 0072 E417     		asrs	r4, r4, #31
 122 0074 C717     		asrs	r7, r0, #31
 123 0076 0A94     		str	r4, [sp, #40]
 124 0078 00FB04F4 		mul	r4, r0, r4
 125 007c 019A     		ldr	r2, [sp, #4]
 126 007e 02FB0744 		mla	r4, r2, r7, r4
 127 0082 A0FB0207 		umull	r0, r7, r0, r2
 128              	.LVL13:
 129              		.loc 1 121 7 is_stmt 0 view .LVU26
 130 0086 2744     		add	r7, r7, r4
 131 0088 1818     		adds	r0, r3, r0
 132 008a 10F10040 		adds	r0, r0, #-2147483648
 133 008e 47EB0505 		adc	r5, r7, r5
 122:Drivers/CMSIS/DSP/Source/FilteringFunctions/arm_biquad_cascade_df1_fast_q31.c ****       /* acc +=  a1 * y[n-1] */
 123:Drivers/CMSIS/DSP/Source/FilteringFunctions/arm_biquad_cascade_df1_fast_q31.c ****       /*acc = (q31_t) ((((q63_t) acc << 32) + ((q63_t) a1 * (Yn1))) >> 32);*/
 124:Drivers/CMSIS/DSP/Source/FilteringFunctions/arm_biquad_cascade_df1_fast_q31.c ****       multAcc_32x32_keep32_R(acc, a1, Yn1);
 134              		.loc 1 124 7 is_stmt 1 view .LVU27
 135 0092 029C     		ldr	r4, [sp, #8]
 136 0094 E017     		asrs	r0, r4, #31
 137 0096 F717     		asrs	r7, r6, #31
 138 0098 04FB07F9 		mul	r9, r4, r7
 139 009c 0B90     		str	r0, [sp, #44]
 140 009e 06FB0099 		mla	r9, r6, r0, r9
 141 00a2 A4FB0604 		umull	r0, r4, r4, r6
 142 00a6 4C44     		add	r4, r4, r9
 143 00a8 1818     		adds	r0, r3, r0
 144 00aa 10F10040 		adds	r0, r0, #-2147483648
 145 00ae 44EB0504 		adc	r4, r4, r5
 125:Drivers/CMSIS/DSP/Source/FilteringFunctions/arm_biquad_cascade_df1_fast_q31.c ****       /* acc +=  a2 * y[n-2] */
 126:Drivers/CMSIS/DSP/Source/FilteringFunctions/arm_biquad_cascade_df1_fast_q31.c ****       /*acc = (q31_t) ((((q63_t) acc << 32) + ((q63_t) a2 * (Yn2))) >> 32);*/
 127:Drivers/CMSIS/DSP/Source/FilteringFunctions/arm_biquad_cascade_df1_fast_q31.c ****       multAcc_32x32_keep32_R(acc, a2, Yn2);
 146              		.loc 1 127 7 view .LVU28
 147 00b2 049A     		ldr	r2, [sp, #16]
 148 00b4 D017     		asrs	r0, r2, #31
 149 00b6 CD17     		asrs	r5, r1, #31
 150 00b8 0C90     		str	r0, [sp, #48]
 151 00ba 01FB00F0 		mul	r0, r1, r0
 152 00be 02FB0500 		mla	r0, r2, r5, r0
 153 00c2 A1FB0215 		umull	r1, r5, r1, r2
 154              	.LVL14:
 155              		.loc 1 127 7 is_stmt 0 view .LVU29
 156 00c6 0544     		add	r5, r5, r0
 157 00c8 5918     		adds	r1, r3, r1
 158 00ca 11F10041 		adds	r1, r1, #-2147483648
 159 00ce 45EB0405 		adc	r5, r5, r4
ARM GAS  /var/folders/n6/c271nzx11xl4r4_m7sqjlt0m0000gn/T//ccwyo7BG.s 			page 6


 160              	.LVL15:
 128:Drivers/CMSIS/DSP/Source/FilteringFunctions/arm_biquad_cascade_df1_fast_q31.c **** 
 129:Drivers/CMSIS/DSP/Source/FilteringFunctions/arm_biquad_cascade_df1_fast_q31.c ****       /* The result is converted to 1.31 , Yn2 variable is reused */
 130:Drivers/CMSIS/DSP/Source/FilteringFunctions/arm_biquad_cascade_df1_fast_q31.c ****       Yn2 = acc << shift;
 161              		.loc 1 130 7 is_stmt 1 view .LVU30
 162              		.loc 1 130 11 is_stmt 0 view .LVU31
 163 00d2 0699     		ldr	r1, [sp, #24]
 164 00d4 05FA01F1 		lsl	r1, r5, r1
 165              	.LVL16:
 131:Drivers/CMSIS/DSP/Source/FilteringFunctions/arm_biquad_cascade_df1_fast_q31.c **** 
 132:Drivers/CMSIS/DSP/Source/FilteringFunctions/arm_biquad_cascade_df1_fast_q31.c ****       /* Read the second input */
 133:Drivers/CMSIS/DSP/Source/FilteringFunctions/arm_biquad_cascade_df1_fast_q31.c ****       Xn2 = *(pIn + 1U);
 166              		.loc 1 133 7 is_stmt 1 view .LVU32
 167              		.loc 1 133 11 is_stmt 0 view .LVU33
 168 00d8 059D     		ldr	r5, [sp, #20]
 169              	.LVL17:
 170              		.loc 1 133 11 view .LVU34
 171 00da 6C68     		ldr	r4, [r5, #4]
 172              	.LVL18:
 134:Drivers/CMSIS/DSP/Source/FilteringFunctions/arm_biquad_cascade_df1_fast_q31.c **** 
 135:Drivers/CMSIS/DSP/Source/FilteringFunctions/arm_biquad_cascade_df1_fast_q31.c ****       /* Store the output in the destination buffer. */
 136:Drivers/CMSIS/DSP/Source/FilteringFunctions/arm_biquad_cascade_df1_fast_q31.c ****       *pOut = Yn2;
 173              		.loc 1 136 7 is_stmt 1 view .LVU35
 174              		.loc 1 136 13 is_stmt 0 view .LVU36
 175 00dc 0398     		ldr	r0, [sp, #12]
 176 00de 0160     		str	r1, [r0]
 177              	.LVL19:
 137:Drivers/CMSIS/DSP/Source/FilteringFunctions/arm_biquad_cascade_df1_fast_q31.c **** 
 138:Drivers/CMSIS/DSP/Source/FilteringFunctions/arm_biquad_cascade_df1_fast_q31.c ****       /* acc =  b0 * x[n] + b1 * x[n-1] + b2 * x[n-2] + a1 * y[n-1] + a2 * y[n-2] */
 139:Drivers/CMSIS/DSP/Source/FilteringFunctions/arm_biquad_cascade_df1_fast_q31.c ****       /* acc =  b0 * x[n] */
 140:Drivers/CMSIS/DSP/Source/FilteringFunctions/arm_biquad_cascade_df1_fast_q31.c ****       /*acc = (q31_t) (((q63_t) b0 * (Xn2)) >> 32);*/
 141:Drivers/CMSIS/DSP/Source/FilteringFunctions/arm_biquad_cascade_df1_fast_q31.c ****       mult_32x32_keep32_R(acc, b0, Xn2);
 178              		.loc 1 141 7 is_stmt 1 view .LVU37
 179 00e0 E517     		asrs	r5, r4, #31
 180 00e2 1095     		str	r5, [sp, #64]
 181 00e4 0EFB05F9 		mul	r9, lr, r5
 182 00e8 CDF838A0 		str	r10, [sp, #56]
 183 00ec 04FB0A99 		mla	r9, r4, r10, r9
 184 00f0 AEFB0405 		umull	r0, r5, lr, r4
 185 00f4 10F10040 		adds	r0, r0, #-2147483648
 186              		.loc 1 141 7 is_stmt 0 view .LVU38
 187 00f8 49EB0509 		adc	r9, r9, r5
 142:Drivers/CMSIS/DSP/Source/FilteringFunctions/arm_biquad_cascade_df1_fast_q31.c ****       /* acc +=  b1 * x[n-1] */
 143:Drivers/CMSIS/DSP/Source/FilteringFunctions/arm_biquad_cascade_df1_fast_q31.c ****       /*acc = (q31_t) ((((q63_t) acc << 32) + ((q63_t) b1 * (Xn))) >> 32);*/
 144:Drivers/CMSIS/DSP/Source/FilteringFunctions/arm_biquad_cascade_df1_fast_q31.c ****       multAcc_32x32_keep32_R(acc, b1, Xn);
 188              		.loc 1 144 7 is_stmt 1 view .LVU39
 189 00fc 0F9D     		ldr	r5, [sp, #60]
 190 00fe 0CFB05FA 		mul	r10, ip, r5
 191 0102 099D     		ldr	r5, [sp, #36]
 192 0104 079A     		ldr	r2, [sp, #28]
 193 0106 02FB05AA 		mla	r10, r2, r5, r10
 194 010a ACFB0205 		umull	r0, r5, ip, r2
 195 010e 5544     		add	r5, r5, r10
 196 0110 1818     		adds	r0, r3, r0
 197 0112 10F10040 		adds	r0, r0, #-2147483648
 198 0116 45EB0905 		adc	r5, r5, r9
 145:Drivers/CMSIS/DSP/Source/FilteringFunctions/arm_biquad_cascade_df1_fast_q31.c ****       /* acc +=  b[2] * x[n-2] */
ARM GAS  /var/folders/n6/c271nzx11xl4r4_m7sqjlt0m0000gn/T//ccwyo7BG.s 			page 7


 146:Drivers/CMSIS/DSP/Source/FilteringFunctions/arm_biquad_cascade_df1_fast_q31.c ****       /*acc = (q31_t) ((((q63_t) acc << 32) + ((q63_t) b2 * (Xn1))) >> 32);*/
 147:Drivers/CMSIS/DSP/Source/FilteringFunctions/arm_biquad_cascade_df1_fast_q31.c ****       multAcc_32x32_keep32_R(acc, b2, Xn1);
 199              		.loc 1 147 7 view .LVU40
 200 011a 0A98     		ldr	r0, [sp, #40]
 201 011c 08FB00F0 		mul	r0, r8, r0
 202 0120 019A     		ldr	r2, [sp, #4]
 203 0122 02FB0B00 		mla	r0, r2, fp, r0
 204 0126 A8FB0289 		umull	r8, r9, r8, r2
 205              	.LVL20:
 206              		.loc 1 147 7 is_stmt 0 view .LVU41
 207 012a 8144     		add	r9, r9, r0
 208 012c 13EB0808 		adds	r8, r3, r8
 209 0130 18F10048 		adds	r8, r8, #-2147483648
 210 0134 49EB0509 		adc	r9, r9, r5
 148:Drivers/CMSIS/DSP/Source/FilteringFunctions/arm_biquad_cascade_df1_fast_q31.c ****       /* acc +=  a1 * y[n-1] */
 149:Drivers/CMSIS/DSP/Source/FilteringFunctions/arm_biquad_cascade_df1_fast_q31.c ****       /*acc = (q31_t) ((((q63_t) acc << 32) + ((q63_t) a1 * (Yn2))) >> 32);*/
 150:Drivers/CMSIS/DSP/Source/FilteringFunctions/arm_biquad_cascade_df1_fast_q31.c ****       multAcc_32x32_keep32_R(acc, a1, Yn2);
 211              		.loc 1 150 7 is_stmt 1 view .LVU42
 212 0138 4FEAE178 		asr	r8, r1, #31
 213 013c 0298     		ldr	r0, [sp, #8]
 214 013e 00FB08FA 		mul	r10, r0, r8
 215 0142 0B9D     		ldr	r5, [sp, #44]
 216 0144 01FB05AA 		mla	r10, r1, r5, r10
 217 0148 A0FB0105 		umull	r0, r5, r0, r1
 218 014c 5544     		add	r5, r5, r10
 219 014e 1818     		adds	r0, r3, r0
 220 0150 10F10040 		adds	r0, r0, #-2147483648
 221 0154 45EB0905 		adc	r5, r5, r9
 151:Drivers/CMSIS/DSP/Source/FilteringFunctions/arm_biquad_cascade_df1_fast_q31.c ****       /* acc +=  a2 * y[n-2] */
 152:Drivers/CMSIS/DSP/Source/FilteringFunctions/arm_biquad_cascade_df1_fast_q31.c ****       /*acc = (q31_t) ((((q63_t) acc << 32) + ((q63_t) a2 * (Yn1))) >> 32);*/
 153:Drivers/CMSIS/DSP/Source/FilteringFunctions/arm_biquad_cascade_df1_fast_q31.c ****       multAcc_32x32_keep32_R(acc, a2, Yn1);
 222              		.loc 1 153 7 view .LVU43
 223 0158 0C98     		ldr	r0, [sp, #48]
 224 015a 06FB00F0 		mul	r0, r6, r0
 225 015e 049A     		ldr	r2, [sp, #16]
 226 0160 02FB0700 		mla	r0, r2, r7, r0
 227 0164 A6FB0267 		umull	r6, r7, r6, r2
 228              	.LVL21:
 229              		.loc 1 153 7 is_stmt 0 view .LVU44
 230 0168 0744     		add	r7, r7, r0
 231 016a 9E19     		adds	r6, r3, r6
 232 016c 16F10046 		adds	r6, r6, #-2147483648
 233 0170 47EB0507 		adc	r7, r7, r5
 234              	.LVL22:
 154:Drivers/CMSIS/DSP/Source/FilteringFunctions/arm_biquad_cascade_df1_fast_q31.c **** 
 155:Drivers/CMSIS/DSP/Source/FilteringFunctions/arm_biquad_cascade_df1_fast_q31.c ****       /* The result is converted to 1.31, Yn1 variable is reused  */
 156:Drivers/CMSIS/DSP/Source/FilteringFunctions/arm_biquad_cascade_df1_fast_q31.c ****       Yn1 = acc << shift;
 235              		.loc 1 156 7 is_stmt 1 view .LVU45
 236              		.loc 1 156 11 is_stmt 0 view .LVU46
 237 0174 069E     		ldr	r6, [sp, #24]
 238 0176 07FA06F6 		lsl	r6, r7, r6
 239              	.LVL23:
 157:Drivers/CMSIS/DSP/Source/FilteringFunctions/arm_biquad_cascade_df1_fast_q31.c **** 
 158:Drivers/CMSIS/DSP/Source/FilteringFunctions/arm_biquad_cascade_df1_fast_q31.c ****       /* Read the third input  */
 159:Drivers/CMSIS/DSP/Source/FilteringFunctions/arm_biquad_cascade_df1_fast_q31.c ****       Xn1 = *(pIn + 2U);
 240              		.loc 1 159 7 is_stmt 1 view .LVU47
 241              		.loc 1 159 11 is_stmt 0 view .LVU48
ARM GAS  /var/folders/n6/c271nzx11xl4r4_m7sqjlt0m0000gn/T//ccwyo7BG.s 			page 8


 242 017a 059F     		ldr	r7, [sp, #20]
 243              	.LVL24:
 244              		.loc 1 159 11 view .LVU49
 245 017c B868     		ldr	r0, [r7, #8]
 246              	.LVL25:
 160:Drivers/CMSIS/DSP/Source/FilteringFunctions/arm_biquad_cascade_df1_fast_q31.c **** 
 161:Drivers/CMSIS/DSP/Source/FilteringFunctions/arm_biquad_cascade_df1_fast_q31.c ****       /* Store the output in the destination buffer. */
 162:Drivers/CMSIS/DSP/Source/FilteringFunctions/arm_biquad_cascade_df1_fast_q31.c ****       *(pOut + 1U) = Yn1;
 247              		.loc 1 162 7 is_stmt 1 view .LVU50
 248              		.loc 1 162 20 is_stmt 0 view .LVU51
 249 017e 039F     		ldr	r7, [sp, #12]
 250 0180 0896     		str	r6, [sp, #32]
 251 0182 7E60     		str	r6, [r7, #4]
 163:Drivers/CMSIS/DSP/Source/FilteringFunctions/arm_biquad_cascade_df1_fast_q31.c **** 
 164:Drivers/CMSIS/DSP/Source/FilteringFunctions/arm_biquad_cascade_df1_fast_q31.c ****       /* acc =  b0 * x[n] + b1 * x[n-1] + b2 * x[n-2] + a1 * y[n-1] + a2 * y[n-2] */
 165:Drivers/CMSIS/DSP/Source/FilteringFunctions/arm_biquad_cascade_df1_fast_q31.c ****       /* acc =  b0 * x[n] */
 166:Drivers/CMSIS/DSP/Source/FilteringFunctions/arm_biquad_cascade_df1_fast_q31.c ****       /*acc = (q31_t) (((q63_t) b0 * (Xn1)) >> 32);*/
 167:Drivers/CMSIS/DSP/Source/FilteringFunctions/arm_biquad_cascade_df1_fast_q31.c ****       mult_32x32_keep32_R(acc, b0, Xn1);
 252              		.loc 1 167 7 is_stmt 1 view .LVU52
 253 0184 C717     		asrs	r7, r0, #31
 254 0186 0EFB07FA 		mul	r10, lr, r7
 255 018a 0E9D     		ldr	r5, [sp, #56]
 256 018c 00FB05AA 		mla	r10, r0, r5, r10
 257 0190 AEFB0069 		umull	r6, r9, lr, r0
 258              	.LVL26:
 259              		.loc 1 167 7 is_stmt 0 view .LVU53
 260 0194 16F10046 		adds	r6, r6, #-2147483648
 261              		.loc 1 167 7 view .LVU54
 262 0198 4AEB090A 		adc	r10, r10, r9
 168:Drivers/CMSIS/DSP/Source/FilteringFunctions/arm_biquad_cascade_df1_fast_q31.c ****       /* acc +=  b1 * x[n-1] */
 169:Drivers/CMSIS/DSP/Source/FilteringFunctions/arm_biquad_cascade_df1_fast_q31.c ****       /*acc = (q31_t) ((((q63_t) acc << 32) + ((q63_t) b1 * (Xn2))) >> 32);*/
 170:Drivers/CMSIS/DSP/Source/FilteringFunctions/arm_biquad_cascade_df1_fast_q31.c ****       multAcc_32x32_keep32_R(acc, b1, Xn2);
 263              		.loc 1 170 7 is_stmt 1 view .LVU55
 264 019c 109E     		ldr	r6, [sp, #64]
 265 019e 0CFB06FB 		mul	fp, ip, r6
 266 01a2 099D     		ldr	r5, [sp, #36]
 267 01a4 04FB05BB 		mla	fp, r4, r5, fp
 268 01a8 ACFB0469 		umull	r6, r9, ip, r4
 269 01ac D944     		add	r9, r9, fp
 270 01ae 9E19     		adds	r6, r3, r6
 271 01b0 16F10046 		adds	r6, r6, #-2147483648
 272 01b4 49EB0A09 		adc	r9, r9, r10
 171:Drivers/CMSIS/DSP/Source/FilteringFunctions/arm_biquad_cascade_df1_fast_q31.c ****       /* acc +=  b[2] * x[n-2] */
 172:Drivers/CMSIS/DSP/Source/FilteringFunctions/arm_biquad_cascade_df1_fast_q31.c ****       /*acc = (q31_t) ((((q63_t) acc << 32) + ((q63_t) b2 * (Xn))) >> 32);*/
 173:Drivers/CMSIS/DSP/Source/FilteringFunctions/arm_biquad_cascade_df1_fast_q31.c ****       multAcc_32x32_keep32_R(acc, b2, Xn);
 273              		.loc 1 173 7 view .LVU56
 274 01b8 0A9A     		ldr	r2, [sp, #40]
 275 01ba 079D     		ldr	r5, [sp, #28]
 276 01bc 05FB02F6 		mul	r6, r5, r2
 277 01c0 0F9D     		ldr	r5, [sp, #60]
 278 01c2 019A     		ldr	r2, [sp, #4]
 279 01c4 02FB0566 		mla	r6, r2, r5, r6
 280 01c8 079D     		ldr	r5, [sp, #28]
 281 01ca A5FB022A 		umull	r2, r10, r5, r2
 282 01ce B244     		add	r10, r10, r6
 283 01d0 9A18     		adds	r2, r3, r2
 284 01d2 12F10042 		adds	r2, r2, #-2147483648
ARM GAS  /var/folders/n6/c271nzx11xl4r4_m7sqjlt0m0000gn/T//ccwyo7BG.s 			page 9


 285 01d6 4AEB090A 		adc	r10, r10, r9
 174:Drivers/CMSIS/DSP/Source/FilteringFunctions/arm_biquad_cascade_df1_fast_q31.c ****       /* acc +=  a1 * y[n-1] */
 175:Drivers/CMSIS/DSP/Source/FilteringFunctions/arm_biquad_cascade_df1_fast_q31.c ****       /*acc = (q31_t) ((((q63_t) acc << 32) + ((q63_t) a1 * (Yn1))) >> 32);*/
 176:Drivers/CMSIS/DSP/Source/FilteringFunctions/arm_biquad_cascade_df1_fast_q31.c ****       multAcc_32x32_keep32_R(acc, a1, Yn1);
 286              		.loc 1 176 7 view .LVU57
 287 01da 089A     		ldr	r2, [sp, #32]
 288 01dc D517     		asrs	r5, r2, #31
 289 01de 0795     		str	r5, [sp, #28]
 290              	.LVL27:
 291              		.loc 1 176 7 is_stmt 0 view .LVU58
 292 01e0 029E     		ldr	r6, [sp, #8]
 293 01e2 06FB05FB 		mul	fp, r6, r5
 294 01e6 0B9D     		ldr	r5, [sp, #44]
 295 01e8 02FB05BB 		mla	fp, r2, r5, fp
 296 01ec A6FB0269 		umull	r6, r9, r6, r2
 297 01f0 D944     		add	r9, r9, fp
 298 01f2 9E19     		adds	r6, r3, r6
 299 01f4 16F10046 		adds	r6, r6, #-2147483648
 300 01f8 49EB0A09 		adc	r9, r9, r10
 177:Drivers/CMSIS/DSP/Source/FilteringFunctions/arm_biquad_cascade_df1_fast_q31.c ****       /* acc +=  a2 * y[n-2] */
 178:Drivers/CMSIS/DSP/Source/FilteringFunctions/arm_biquad_cascade_df1_fast_q31.c ****       /*acc = (q31_t) ((((q63_t) acc << 32) + ((q63_t) a2 * (Yn2))) >> 32);*/
 179:Drivers/CMSIS/DSP/Source/FilteringFunctions/arm_biquad_cascade_df1_fast_q31.c ****       multAcc_32x32_keep32_R(acc, a2, Yn2);
 301              		.loc 1 179 7 is_stmt 1 view .LVU59
 302 01fc 049A     		ldr	r2, [sp, #16]
 303 01fe 02FB08F8 		mul	r8, r2, r8
 304 0202 0C9D     		ldr	r5, [sp, #48]
 305 0204 01FB0588 		mla	r8, r1, r5, r8
 306 0208 A2FB0116 		umull	r1, r6, r2, r1
 307              	.LVL28:
 308              		.loc 1 179 7 is_stmt 0 view .LVU60
 309 020c 4644     		add	r6, r6, r8
 310 020e 5918     		adds	r1, r3, r1
 311 0210 11F10041 		adds	r1, r1, #-2147483648
 312 0214 46EB0906 		adc	r6, r6, r9
 313              	.LVL29:
 180:Drivers/CMSIS/DSP/Source/FilteringFunctions/arm_biquad_cascade_df1_fast_q31.c **** 
 181:Drivers/CMSIS/DSP/Source/FilteringFunctions/arm_biquad_cascade_df1_fast_q31.c ****       /* The result is converted to 1.31, Yn2 variable is reused  */
 182:Drivers/CMSIS/DSP/Source/FilteringFunctions/arm_biquad_cascade_df1_fast_q31.c ****       Yn2 = acc << shift;
 314              		.loc 1 182 7 is_stmt 1 view .LVU61
 315              		.loc 1 182 11 is_stmt 0 view .LVU62
 316 0218 0699     		ldr	r1, [sp, #24]
 317 021a 06FA01F1 		lsl	r1, r6, r1
 318              	.LVL30:
 183:Drivers/CMSIS/DSP/Source/FilteringFunctions/arm_biquad_cascade_df1_fast_q31.c **** 
 184:Drivers/CMSIS/DSP/Source/FilteringFunctions/arm_biquad_cascade_df1_fast_q31.c ****       /* Read the forth input */
 185:Drivers/CMSIS/DSP/Source/FilteringFunctions/arm_biquad_cascade_df1_fast_q31.c ****       Xn = *(pIn + 3U);
 319              		.loc 1 185 7 is_stmt 1 view .LVU63
 320              		.loc 1 185 10 is_stmt 0 view .LVU64
 321 021e 059E     		ldr	r6, [sp, #20]
 322              	.LVL31:
 323              		.loc 1 185 10 view .LVU65
 324 0220 D6F80C80 		ldr	r8, [r6, #12]
 325              	.LVL32:
 186:Drivers/CMSIS/DSP/Source/FilteringFunctions/arm_biquad_cascade_df1_fast_q31.c **** 
 187:Drivers/CMSIS/DSP/Source/FilteringFunctions/arm_biquad_cascade_df1_fast_q31.c ****       /* Store the output in the destination buffer. */
 188:Drivers/CMSIS/DSP/Source/FilteringFunctions/arm_biquad_cascade_df1_fast_q31.c ****       *(pOut + 2U) = Yn2;
 326              		.loc 1 188 7 is_stmt 1 view .LVU66
ARM GAS  /var/folders/n6/c271nzx11xl4r4_m7sqjlt0m0000gn/T//ccwyo7BG.s 			page 10


 327              		.loc 1 188 20 is_stmt 0 view .LVU67
 328 0224 039D     		ldr	r5, [sp, #12]
 329              	.LVL33:
 330              		.loc 1 188 20 view .LVU68
 331 0226 A960     		str	r1, [r5, #8]
 189:Drivers/CMSIS/DSP/Source/FilteringFunctions/arm_biquad_cascade_df1_fast_q31.c ****       pIn += 4U;
 332              		.loc 1 189 7 is_stmt 1 view .LVU69
 333              		.loc 1 189 11 is_stmt 0 view .LVU70
 334 0228 06F11009 		add	r9, r6, #16
 335              	.LVL34:
 336              		.loc 1 189 11 view .LVU71
 337 022c CDF81490 		str	r9, [sp, #20]
 338              	.LVL35:
 190:Drivers/CMSIS/DSP/Source/FilteringFunctions/arm_biquad_cascade_df1_fast_q31.c **** 
 191:Drivers/CMSIS/DSP/Source/FilteringFunctions/arm_biquad_cascade_df1_fast_q31.c ****       /* acc =  b0 * x[n] + b1 * x[n-1] + b2 * x[n-2] + a1 * y[n-1] + a2 * y[n-2] */
 192:Drivers/CMSIS/DSP/Source/FilteringFunctions/arm_biquad_cascade_df1_fast_q31.c ****       /* acc =  b0 * x[n] */
 193:Drivers/CMSIS/DSP/Source/FilteringFunctions/arm_biquad_cascade_df1_fast_q31.c ****       /*acc = (q31_t) (((q63_t) b0 * (Xn)) >> 32);*/
 194:Drivers/CMSIS/DSP/Source/FilteringFunctions/arm_biquad_cascade_df1_fast_q31.c ****       mult_32x32_keep32_R(acc, b0, Xn);
 339              		.loc 1 194 7 is_stmt 1 view .LVU72
 340 0230 4FEAE879 		asr	r9, r8, #31
 341              	.LVL36:
 342              		.loc 1 194 7 is_stmt 0 view .LVU73
 343 0234 0E9E     		ldr	r6, [sp, #56]
 344 0236 08FB06F6 		mul	r6, r8, r6
 345 023a 0EFB0966 		mla	r6, lr, r9, r6
 346 023e A8FB0E9A 		umull	r9, r10, r8, lr
 347              	.LVL37:
 348              		.loc 1 194 7 view .LVU74
 349 0242 19F10049 		adds	r9, r9, #-2147483648
 350              		.loc 1 194 7 view .LVU75
 351 0246 46EB0A06 		adc	r6, r6, r10
 195:Drivers/CMSIS/DSP/Source/FilteringFunctions/arm_biquad_cascade_df1_fast_q31.c ****       /* acc +=  b1 * x[n-1] */
 196:Drivers/CMSIS/DSP/Source/FilteringFunctions/arm_biquad_cascade_df1_fast_q31.c ****       /*acc = (q31_t) ((((q63_t) acc << 32) + ((q63_t) b1 * (Xn1))) >> 32);*/
 197:Drivers/CMSIS/DSP/Source/FilteringFunctions/arm_biquad_cascade_df1_fast_q31.c ****       multAcc_32x32_keep32_R(acc, b1, Xn1);
 352              		.loc 1 197 7 is_stmt 1 view .LVU76
 353 024a 0CFB07F7 		mul	r7, ip, r7
 354 024e 099D     		ldr	r5, [sp, #36]
 355 0250 00FB0577 		mla	r7, r0, r5, r7
 356 0254 ACFB009A 		umull	r9, r10, ip, r0
 357 0258 BA44     		add	r10, r10, r7
 358 025a 13EB0909 		adds	r9, r3, r9
 359 025e 19F10049 		adds	r9, r9, #-2147483648
 360 0262 4AEB060A 		adc	r10, r10, r6
 198:Drivers/CMSIS/DSP/Source/FilteringFunctions/arm_biquad_cascade_df1_fast_q31.c ****       /* acc +=  b[2] * x[n-2] */
 199:Drivers/CMSIS/DSP/Source/FilteringFunctions/arm_biquad_cascade_df1_fast_q31.c ****       /*acc = (q31_t) ((((q63_t) acc << 32) + ((q63_t) b2 * (Xn2))) >> 32);*/
 200:Drivers/CMSIS/DSP/Source/FilteringFunctions/arm_biquad_cascade_df1_fast_q31.c ****       multAcc_32x32_keep32_R(acc, b2, Xn2);
 361              		.loc 1 200 7 view .LVU77
 362 0266 109D     		ldr	r5, [sp, #64]
 363 0268 019F     		ldr	r7, [sp, #4]
 364 026a 07FB05F6 		mul	r6, r7, r5
 365 026e 0A9D     		ldr	r5, [sp, #40]
 366 0270 04FB0566 		mla	r6, r4, r5, r6
 367 0274 A7FB0447 		umull	r4, r7, r7, r4
 368              	.LVL38:
 369              		.loc 1 200 7 is_stmt 0 view .LVU78
 370 0278 3744     		add	r7, r7, r6
 371 027a 1C19     		adds	r4, r3, r4
ARM GAS  /var/folders/n6/c271nzx11xl4r4_m7sqjlt0m0000gn/T//ccwyo7BG.s 			page 11


 372 027c 14F10044 		adds	r4, r4, #-2147483648
 373 0280 47EB0A0A 		adc	r10, r7, r10
 201:Drivers/CMSIS/DSP/Source/FilteringFunctions/arm_biquad_cascade_df1_fast_q31.c ****       /* acc +=  a1 * y[n-1] */
 202:Drivers/CMSIS/DSP/Source/FilteringFunctions/arm_biquad_cascade_df1_fast_q31.c ****       /*acc = (q31_t) ((((q63_t) acc << 32) + ((q63_t) a1 * (Yn2))) >> 32);*/
 203:Drivers/CMSIS/DSP/Source/FilteringFunctions/arm_biquad_cascade_df1_fast_q31.c ****       multAcc_32x32_keep32_R(acc, a1, Yn2);
 374              		.loc 1 203 7 is_stmt 1 view .LVU79
 375 0284 CE17     		asrs	r6, r1, #31
 376 0286 0B9C     		ldr	r4, [sp, #44]
 377 0288 01FB04F4 		mul	r4, r1, r4
 378 028c 029F     		ldr	r7, [sp, #8]
 379 028e 07FB0644 		mla	r4, r7, r6, r4
 380 0292 A1FB0767 		umull	r6, r7, r1, r7
 381 0296 2744     		add	r7, r7, r4
 382 0298 9E19     		adds	r6, r3, r6
 383 029a 16F10046 		adds	r6, r6, #-2147483648
 384 029e 47EB0A07 		adc	r7, r7, r10
 204:Drivers/CMSIS/DSP/Source/FilteringFunctions/arm_biquad_cascade_df1_fast_q31.c ****       /* acc +=  a2 * y[n-2] */
 205:Drivers/CMSIS/DSP/Source/FilteringFunctions/arm_biquad_cascade_df1_fast_q31.c ****       /*acc = (q31_t) ((((q63_t) acc << 32) + ((q63_t) a2 * (Yn1))) >> 32);*/
 206:Drivers/CMSIS/DSP/Source/FilteringFunctions/arm_biquad_cascade_df1_fast_q31.c ****       multAcc_32x32_keep32_R(acc, a2, Yn1);
 385              		.loc 1 206 7 view .LVU80
 386 02a2 1446     		mov	r4, r2
 387 02a4 079A     		ldr	r2, [sp, #28]
 388 02a6 04FB02F2 		mul	r2, r4, r2
 389 02aa 0C9E     		ldr	r6, [sp, #48]
 390 02ac 089D     		ldr	r5, [sp, #32]
 391 02ae 05FB0622 		mla	r2, r5, r6, r2
 392 02b2 A4FB0556 		umull	r5, r6, r4, r5
 393 02b6 3244     		add	r2, r2, r6
 394 02b8 5B19     		adds	r3, r3, r5
 395 02ba 13F10043 		adds	r3, r3, #-2147483648
 396 02be 42EB0702 		adc	r2, r2, r7
 397              	.LVL39:
 207:Drivers/CMSIS/DSP/Source/FilteringFunctions/arm_biquad_cascade_df1_fast_q31.c **** 
 208:Drivers/CMSIS/DSP/Source/FilteringFunctions/arm_biquad_cascade_df1_fast_q31.c ****       /* Every time after the output is computed state should be updated. */
 209:Drivers/CMSIS/DSP/Source/FilteringFunctions/arm_biquad_cascade_df1_fast_q31.c ****       /* The states should be updated as:  */
 210:Drivers/CMSIS/DSP/Source/FilteringFunctions/arm_biquad_cascade_df1_fast_q31.c ****       /* Xn2 = Xn1    */
 211:Drivers/CMSIS/DSP/Source/FilteringFunctions/arm_biquad_cascade_df1_fast_q31.c ****       Xn2 = Xn1;
 398              		.loc 1 211 7 view .LVU81
 212:Drivers/CMSIS/DSP/Source/FilteringFunctions/arm_biquad_cascade_df1_fast_q31.c **** 
 213:Drivers/CMSIS/DSP/Source/FilteringFunctions/arm_biquad_cascade_df1_fast_q31.c ****       /* The result is converted to 1.31, Yn1 variable is reused  */
 214:Drivers/CMSIS/DSP/Source/FilteringFunctions/arm_biquad_cascade_df1_fast_q31.c ****       Yn1 = acc << shift;
 399              		.loc 1 214 7 view .LVU82
 400              		.loc 1 214 11 is_stmt 0 view .LVU83
 401 02c2 069E     		ldr	r6, [sp, #24]
 402 02c4 02FA06F6 		lsl	r6, r2, r6
 403              	.LVL40:
 215:Drivers/CMSIS/DSP/Source/FilteringFunctions/arm_biquad_cascade_df1_fast_q31.c **** 
 216:Drivers/CMSIS/DSP/Source/FilteringFunctions/arm_biquad_cascade_df1_fast_q31.c ****       /* Xn1 = Xn     */
 217:Drivers/CMSIS/DSP/Source/FilteringFunctions/arm_biquad_cascade_df1_fast_q31.c ****       Xn1 = Xn;
 404              		.loc 1 217 7 is_stmt 1 view .LVU84
 218:Drivers/CMSIS/DSP/Source/FilteringFunctions/arm_biquad_cascade_df1_fast_q31.c **** 
 219:Drivers/CMSIS/DSP/Source/FilteringFunctions/arm_biquad_cascade_df1_fast_q31.c ****       /* Store the output in the destination buffer. */
 220:Drivers/CMSIS/DSP/Source/FilteringFunctions/arm_biquad_cascade_df1_fast_q31.c ****       *(pOut + 3U) = Yn1;
 405              		.loc 1 220 7 view .LVU85
 406              		.loc 1 220 20 is_stmt 0 view .LVU86
 407 02c8 039D     		ldr	r5, [sp, #12]
 408 02ca EE60     		str	r6, [r5, #12]
ARM GAS  /var/folders/n6/c271nzx11xl4r4_m7sqjlt0m0000gn/T//ccwyo7BG.s 			page 12


 221:Drivers/CMSIS/DSP/Source/FilteringFunctions/arm_biquad_cascade_df1_fast_q31.c ****       pOut += 4U;
 409              		.loc 1 221 7 is_stmt 1 view .LVU87
 410              		.loc 1 221 12 is_stmt 0 view .LVU88
 411 02cc 05F11003 		add	r3, r5, #16
 412 02d0 0393     		str	r3, [sp, #12]
 413              	.LVL41:
 222:Drivers/CMSIS/DSP/Source/FilteringFunctions/arm_biquad_cascade_df1_fast_q31.c **** 
 223:Drivers/CMSIS/DSP/Source/FilteringFunctions/arm_biquad_cascade_df1_fast_q31.c ****       /* decrement the loop counter */
 224:Drivers/CMSIS/DSP/Source/FilteringFunctions/arm_biquad_cascade_df1_fast_q31.c ****       sample--;
 414              		.loc 1 224 7 is_stmt 1 view .LVU89
 415              		.loc 1 224 13 is_stmt 0 view .LVU90
 416 02d2 0D9B     		ldr	r3, [sp, #52]
 417              	.LVL42:
 418              		.loc 1 224 13 view .LVU91
 419 02d4 013B     		subs	r3, r3, #1
 420 02d6 0D93     		str	r3, [sp, #52]
 421              	.LVL43:
 422              	.L2:
 107:Drivers/CMSIS/DSP/Source/FilteringFunctions/arm_biquad_cascade_df1_fast_q31.c ****     {
 423              		.loc 1 107 19 is_stmt 1 view .LVU92
 424 02d8 0D9B     		ldr	r3, [sp, #52]
 425 02da 002B     		cmp	r3, #0
 426 02dc 7FF4A4AE 		bne	.L3
 225:Drivers/CMSIS/DSP/Source/FilteringFunctions/arm_biquad_cascade_df1_fast_q31.c ****     }
 226:Drivers/CMSIS/DSP/Source/FilteringFunctions/arm_biquad_cascade_df1_fast_q31.c **** 
 227:Drivers/CMSIS/DSP/Source/FilteringFunctions/arm_biquad_cascade_df1_fast_q31.c ****     /* If the blockSize is not a multiple of 4, compute any remaining output samples here.
 228:Drivers/CMSIS/DSP/Source/FilteringFunctions/arm_biquad_cascade_df1_fast_q31.c ****      ** No loop unrolling is used. */
 229:Drivers/CMSIS/DSP/Source/FilteringFunctions/arm_biquad_cascade_df1_fast_q31.c ****     sample = (blockSize & 0x3U);
 427              		.loc 1 229 12 is_stmt 0 view .LVU93
 428 02e0 8B46     		mov	fp, r1
 429 02e2 139B     		ldr	r3, [sp, #76]
 430 02e4 149A     		ldr	r2, [sp, #80]
 431              		.loc 1 229 5 is_stmt 1 view .LVU94
 432              		.loc 1 229 12 is_stmt 0 view .LVU95
 433 02e6 1299     		ldr	r1, [sp, #72]
 434              	.LVL44:
 435              		.loc 1 229 12 view .LVU96
 436 02e8 01F00307 		and	r7, r1, #3
 437              	.LVL45:
 230:Drivers/CMSIS/DSP/Source/FilteringFunctions/arm_biquad_cascade_df1_fast_q31.c **** 
 231:Drivers/CMSIS/DSP/Source/FilteringFunctions/arm_biquad_cascade_df1_fast_q31.c ****    while (sample > 0U)
 438              		.loc 1 231 4 is_stmt 1 view .LVU97
 439 02ec B146     		mov	r9, r6
 440 02ee 0793     		str	r3, [sp, #28]
 441 02f0 0892     		str	r2, [sp, #32]
 442 02f2 0246     		mov	r2, r0
 443 02f4 DDF810A0 		ldr	r10, [sp, #16]
 444 02f8 059B     		ldr	r3, [sp, #20]
 445              		.loc 1 231 10 is_stmt 0 view .LVU98
 446 02fa 5CE0     		b	.L4
 447              	.LVL46:
 448              	.L5:
 232:Drivers/CMSIS/DSP/Source/FilteringFunctions/arm_biquad_cascade_df1_fast_q31.c ****    {
 233:Drivers/CMSIS/DSP/Source/FilteringFunctions/arm_biquad_cascade_df1_fast_q31.c ****       /* Read the input */
 234:Drivers/CMSIS/DSP/Source/FilteringFunctions/arm_biquad_cascade_df1_fast_q31.c ****       Xn = *pIn++;
 449              		.loc 1 234 7 is_stmt 1 view .LVU99
 450              		.loc 1 234 10 is_stmt 0 view .LVU100
ARM GAS  /var/folders/n6/c271nzx11xl4r4_m7sqjlt0m0000gn/T//ccwyo7BG.s 			page 13


 451 02fc 53F8045B 		ldr	r5, [r3], #4
 452              	.LVL47:
 453              		.loc 1 234 10 view .LVU101
 454 0300 0493     		str	r3, [sp, #16]
 455              	.LVL48:
 235:Drivers/CMSIS/DSP/Source/FilteringFunctions/arm_biquad_cascade_df1_fast_q31.c **** 
 236:Drivers/CMSIS/DSP/Source/FilteringFunctions/arm_biquad_cascade_df1_fast_q31.c ****       /* acc =  b0 * x[n] + b1 * x[n-1] + b2 * x[n-2] + a1 * y[n-1] + a2 * y[n-2] */
 237:Drivers/CMSIS/DSP/Source/FilteringFunctions/arm_biquad_cascade_df1_fast_q31.c ****       /* acc =  b0 * x[n] */
 238:Drivers/CMSIS/DSP/Source/FilteringFunctions/arm_biquad_cascade_df1_fast_q31.c ****       /*acc = (q31_t) (((q63_t) b0 * (Xn)) >> 32);*/
 239:Drivers/CMSIS/DSP/Source/FilteringFunctions/arm_biquad_cascade_df1_fast_q31.c ****       mult_32x32_keep32_R(acc, b0, Xn);
 456              		.loc 1 239 7 is_stmt 1 view .LVU102
 457 0302 4FEAEE71 		asr	r1, lr, #31
 458 0306 EB17     		asrs	r3, r5, #31
 459              	.LVL49:
 460              		.loc 1 239 7 is_stmt 0 view .LVU103
 461 0308 05FB01F1 		mul	r1, r5, r1
 462 030c 0EFB0311 		mla	r1, lr, r3, r1
 463 0310 A5FB0E30 		umull	r3, r0, r5, lr
 464 0314 13F10043 		adds	r3, r3, #-2147483648
 465 0318 41EB0001 		adc	r1, r1, r0
 466              	.LVL50:
 240:Drivers/CMSIS/DSP/Source/FilteringFunctions/arm_biquad_cascade_df1_fast_q31.c ****       /* acc +=  b1 * x[n-1] */
 241:Drivers/CMSIS/DSP/Source/FilteringFunctions/arm_biquad_cascade_df1_fast_q31.c ****       /*acc = (q31_t) ((((q63_t) acc << 32) + ((q63_t) b1 * (Xn1))) >> 32);*/
 242:Drivers/CMSIS/DSP/Source/FilteringFunctions/arm_biquad_cascade_df1_fast_q31.c ****       multAcc_32x32_keep32_R(acc, b1, Xn1);
 467              		.loc 1 242 7 is_stmt 1 view .LVU104
 468 031c 0023     		movs	r3, #0
 469 031e 4FEAEC74 		asr	r4, ip, #31
 470 0322 4FEAE870 		asr	r0, r8, #31
 471 0326 08FB04F4 		mul	r4, r8, r4
 472 032a 0CFB0044 		mla	r4, ip, r0, r4
 473 032e A8FB0C06 		umull	r0, r6, r8, ip
 474 0332 2644     		add	r6, r6, r4
 475 0334 1818     		adds	r0, r3, r0
 476 0336 10F10040 		adds	r0, r0, #-2147483648
 477 033a 46EB0106 		adc	r6, r6, r1
 243:Drivers/CMSIS/DSP/Source/FilteringFunctions/arm_biquad_cascade_df1_fast_q31.c ****       /* acc +=  b[2] * x[n-2] */
 244:Drivers/CMSIS/DSP/Source/FilteringFunctions/arm_biquad_cascade_df1_fast_q31.c ****       /*acc = (q31_t) ((((q63_t) acc << 32) + ((q63_t) b2 * (Xn2))) >> 32);*/
 245:Drivers/CMSIS/DSP/Source/FilteringFunctions/arm_biquad_cascade_df1_fast_q31.c ****       multAcc_32x32_keep32_R(acc, b2, Xn2);
 478              		.loc 1 245 7 view .LVU105
 479 033e 019C     		ldr	r4, [sp, #4]
 480 0340 E117     		asrs	r1, r4, #31
 481 0342 D017     		asrs	r0, r2, #31
 482 0344 02FB01F1 		mul	r1, r2, r1
 483 0348 04FB0011 		mla	r1, r4, r0, r1
 484 034c A2FB0420 		umull	r2, r0, r2, r4
 485              	.LVL51:
 486              		.loc 1 245 7 is_stmt 0 view .LVU106
 487 0350 0844     		add	r0, r0, r1
 488 0352 9A18     		adds	r2, r3, r2
 489 0354 12F10042 		adds	r2, r2, #-2147483648
 490 0358 40EB0606 		adc	r6, r0, r6
 246:Drivers/CMSIS/DSP/Source/FilteringFunctions/arm_biquad_cascade_df1_fast_q31.c ****       /* acc +=  a1 * y[n-1] */
 247:Drivers/CMSIS/DSP/Source/FilteringFunctions/arm_biquad_cascade_df1_fast_q31.c ****       /*acc = (q31_t) ((((q63_t) acc << 32) + ((q63_t) a1 * (Yn1))) >> 32);*/
 248:Drivers/CMSIS/DSP/Source/FilteringFunctions/arm_biquad_cascade_df1_fast_q31.c ****       multAcc_32x32_keep32_R(acc, a1, Yn1);
 491              		.loc 1 248 7 is_stmt 1 view .LVU107
 492 035c 0298     		ldr	r0, [sp, #8]
 493 035e C117     		asrs	r1, r0, #31
ARM GAS  /var/folders/n6/c271nzx11xl4r4_m7sqjlt0m0000gn/T//ccwyo7BG.s 			page 14


 494 0360 4FEAE972 		asr	r2, r9, #31
 495 0364 09FB01F1 		mul	r1, r9, r1
 496 0368 00FB0211 		mla	r1, r0, r2, r1
 497 036c A9FB0020 		umull	r2, r0, r9, r0
 498 0370 0844     		add	r0, r0, r1
 499 0372 9A18     		adds	r2, r3, r2
 500 0374 12F10042 		adds	r2, r2, #-2147483648
 501 0378 40EB0600 		adc	r0, r0, r6
 249:Drivers/CMSIS/DSP/Source/FilteringFunctions/arm_biquad_cascade_df1_fast_q31.c ****       /* acc +=  a2 * y[n-2] */
 250:Drivers/CMSIS/DSP/Source/FilteringFunctions/arm_biquad_cascade_df1_fast_q31.c ****       /*acc = (q31_t) ((((q63_t) acc << 32) + ((q63_t) a2 * (Yn2))) >> 32);*/
 251:Drivers/CMSIS/DSP/Source/FilteringFunctions/arm_biquad_cascade_df1_fast_q31.c ****       multAcc_32x32_keep32_R(acc, a2, Yn2);
 502              		.loc 1 251 7 view .LVU108
 503 037c 4FEAEA72 		asr	r2, r10, #31
 504 0380 4FEAEB71 		asr	r1, fp, #31
 505 0384 0BFB02F2 		mul	r2, fp, r2
 506 0388 0AFB0122 		mla	r2, r10, r1, r2
 507 038c ABFB0AB1 		umull	fp, r1, fp, r10
 508              	.LVL52:
 509              		.loc 1 251 7 is_stmt 0 view .LVU109
 510 0390 0A44     		add	r2, r2, r1
 511 0392 13EB0B03 		adds	r3, r3, fp
 512 0396 13F10043 		adds	r3, r3, #-2147483648
 513 039a 42EB0002 		adc	r2, r2, r0
 514              	.LVL53:
 252:Drivers/CMSIS/DSP/Source/FilteringFunctions/arm_biquad_cascade_df1_fast_q31.c **** 
 253:Drivers/CMSIS/DSP/Source/FilteringFunctions/arm_biquad_cascade_df1_fast_q31.c ****       /* The result is converted to 1.31  */
 254:Drivers/CMSIS/DSP/Source/FilteringFunctions/arm_biquad_cascade_df1_fast_q31.c ****       acc = acc << shift;
 515              		.loc 1 254 7 is_stmt 1 view .LVU110
 516              		.loc 1 254 11 is_stmt 0 view .LVU111
 517 039e 0699     		ldr	r1, [sp, #24]
 518 03a0 8A40     		lsls	r2, r2, r1
 519              	.LVL54:
 255:Drivers/CMSIS/DSP/Source/FilteringFunctions/arm_biquad_cascade_df1_fast_q31.c **** 
 256:Drivers/CMSIS/DSP/Source/FilteringFunctions/arm_biquad_cascade_df1_fast_q31.c ****       /* Every time after the output is computed state should be updated. */
 257:Drivers/CMSIS/DSP/Source/FilteringFunctions/arm_biquad_cascade_df1_fast_q31.c ****       /* The states should be updated as:  */
 258:Drivers/CMSIS/DSP/Source/FilteringFunctions/arm_biquad_cascade_df1_fast_q31.c ****       /* Xn2 = Xn1    */
 259:Drivers/CMSIS/DSP/Source/FilteringFunctions/arm_biquad_cascade_df1_fast_q31.c ****       /* Xn1 = Xn     */
 260:Drivers/CMSIS/DSP/Source/FilteringFunctions/arm_biquad_cascade_df1_fast_q31.c ****       /* Yn2 = Yn1    */
 261:Drivers/CMSIS/DSP/Source/FilteringFunctions/arm_biquad_cascade_df1_fast_q31.c ****       /* Yn1 = acc    */
 262:Drivers/CMSIS/DSP/Source/FilteringFunctions/arm_biquad_cascade_df1_fast_q31.c ****       Xn2 = Xn1;
 520              		.loc 1 262 7 is_stmt 1 view .LVU112
 263:Drivers/CMSIS/DSP/Source/FilteringFunctions/arm_biquad_cascade_df1_fast_q31.c ****       Xn1 = Xn;
 521              		.loc 1 263 7 view .LVU113
 264:Drivers/CMSIS/DSP/Source/FilteringFunctions/arm_biquad_cascade_df1_fast_q31.c ****       Yn2 = Yn1;
 522              		.loc 1 264 7 view .LVU114
 265:Drivers/CMSIS/DSP/Source/FilteringFunctions/arm_biquad_cascade_df1_fast_q31.c ****       Yn1 = acc;
 523              		.loc 1 265 7 view .LVU115
 266:Drivers/CMSIS/DSP/Source/FilteringFunctions/arm_biquad_cascade_df1_fast_q31.c **** 
 267:Drivers/CMSIS/DSP/Source/FilteringFunctions/arm_biquad_cascade_df1_fast_q31.c ****       /* Store the output in the destination buffer. */
 268:Drivers/CMSIS/DSP/Source/FilteringFunctions/arm_biquad_cascade_df1_fast_q31.c ****       *pOut++ = acc;
 524              		.loc 1 268 7 view .LVU116
 525              		.loc 1 268 12 is_stmt 0 view .LVU117
 526 03a2 039B     		ldr	r3, [sp, #12]
 527              	.LVL55:
 528              		.loc 1 268 15 view .LVU118
 529 03a4 43F8042B 		str	r2, [r3], #4
 530              	.LVL56:
ARM GAS  /var/folders/n6/c271nzx11xl4r4_m7sqjlt0m0000gn/T//ccwyo7BG.s 			page 15


 269:Drivers/CMSIS/DSP/Source/FilteringFunctions/arm_biquad_cascade_df1_fast_q31.c **** 
 270:Drivers/CMSIS/DSP/Source/FilteringFunctions/arm_biquad_cascade_df1_fast_q31.c ****       /* decrement the loop counter */
 271:Drivers/CMSIS/DSP/Source/FilteringFunctions/arm_biquad_cascade_df1_fast_q31.c ****       sample--;
 531              		.loc 1 271 7 is_stmt 1 view .LVU119
 532              		.loc 1 271 13 is_stmt 0 view .LVU120
 533 03a8 013F     		subs	r7, r7, #1
 534              	.LVL57:
 268:Drivers/CMSIS/DSP/Source/FilteringFunctions/arm_biquad_cascade_df1_fast_q31.c **** 
 535              		.loc 1 268 12 view .LVU121
 536 03aa 0393     		str	r3, [sp, #12]
 234:Drivers/CMSIS/DSP/Source/FilteringFunctions/arm_biquad_cascade_df1_fast_q31.c **** 
 537              		.loc 1 234 16 view .LVU122
 538 03ac 049B     		ldr	r3, [sp, #16]
 539              	.LVL58:
 264:Drivers/CMSIS/DSP/Source/FilteringFunctions/arm_biquad_cascade_df1_fast_q31.c ****       Yn1 = acc;
 540              		.loc 1 264 11 view .LVU123
 541 03ae CB46     		mov	fp, r9
 265:Drivers/CMSIS/DSP/Source/FilteringFunctions/arm_biquad_cascade_df1_fast_q31.c **** 
 542              		.loc 1 265 11 view .LVU124
 543 03b0 9146     		mov	r9, r2
 544              	.LVL59:
 262:Drivers/CMSIS/DSP/Source/FilteringFunctions/arm_biquad_cascade_df1_fast_q31.c ****       Xn1 = Xn;
 545              		.loc 1 262 11 view .LVU125
 546 03b2 4246     		mov	r2, r8
 547              	.LVL60:
 263:Drivers/CMSIS/DSP/Source/FilteringFunctions/arm_biquad_cascade_df1_fast_q31.c ****       Yn2 = Yn1;
 548              		.loc 1 263 11 view .LVU126
 549 03b4 A846     		mov	r8, r5
 550              	.LVL61:
 551              	.L4:
 231:Drivers/CMSIS/DSP/Source/FilteringFunctions/arm_biquad_cascade_df1_fast_q31.c ****    {
 552              		.loc 1 231 18 is_stmt 1 view .LVU127
 553 03b6 002F     		cmp	r7, #0
 554 03b8 A0D1     		bne	.L5
 272:Drivers/CMSIS/DSP/Source/FilteringFunctions/arm_biquad_cascade_df1_fast_q31.c ****    }
 273:Drivers/CMSIS/DSP/Source/FilteringFunctions/arm_biquad_cascade_df1_fast_q31.c **** 
 274:Drivers/CMSIS/DSP/Source/FilteringFunctions/arm_biquad_cascade_df1_fast_q31.c ****     /*  The first stage goes from the input buffer to the output buffer. */
 275:Drivers/CMSIS/DSP/Source/FilteringFunctions/arm_biquad_cascade_df1_fast_q31.c ****     /*  Subsequent stages occur in-place in the output buffer */
 276:Drivers/CMSIS/DSP/Source/FilteringFunctions/arm_biquad_cascade_df1_fast_q31.c ****     pIn = pDst;
 277:Drivers/CMSIS/DSP/Source/FilteringFunctions/arm_biquad_cascade_df1_fast_q31.c **** 
 278:Drivers/CMSIS/DSP/Source/FilteringFunctions/arm_biquad_cascade_df1_fast_q31.c ****     /* Reset to destination pointer */
 279:Drivers/CMSIS/DSP/Source/FilteringFunctions/arm_biquad_cascade_df1_fast_q31.c ****     pOut = pDst;
 280:Drivers/CMSIS/DSP/Source/FilteringFunctions/arm_biquad_cascade_df1_fast_q31.c **** 
 281:Drivers/CMSIS/DSP/Source/FilteringFunctions/arm_biquad_cascade_df1_fast_q31.c ****     /*  Store the updated state variables back into the pState array */
 282:Drivers/CMSIS/DSP/Source/FilteringFunctions/arm_biquad_cascade_df1_fast_q31.c ****     *pState++ = Xn1;
 555              		.loc 1 282 15 is_stmt 0 view .LVU128
 556 03ba 1146     		mov	r1, r2
 557 03bc 079B     		ldr	r3, [sp, #28]
 558              	.LVL62:
 559              		.loc 1 282 15 view .LVU129
 560 03be 089A     		ldr	r2, [sp, #32]
 561              	.LVL63:
 276:Drivers/CMSIS/DSP/Source/FilteringFunctions/arm_biquad_cascade_df1_fast_q31.c **** 
 562              		.loc 1 276 5 is_stmt 1 view .LVU130
 279:Drivers/CMSIS/DSP/Source/FilteringFunctions/arm_biquad_cascade_df1_fast_q31.c **** 
 563              		.loc 1 279 5 view .LVU131
 564              		.loc 1 282 5 view .LVU132
ARM GAS  /var/folders/n6/c271nzx11xl4r4_m7sqjlt0m0000gn/T//ccwyo7BG.s 			page 16


 565              		.loc 1 282 15 is_stmt 0 view .LVU133
 566 03c0 C3F80080 		str	r8, [r3]
 283:Drivers/CMSIS/DSP/Source/FilteringFunctions/arm_biquad_cascade_df1_fast_q31.c ****     *pState++ = Xn2;
 567              		.loc 1 283 5 is_stmt 1 view .LVU134
 568              	.LVL64:
 569              		.loc 1 283 15 is_stmt 0 view .LVU135
 570 03c4 5960     		str	r1, [r3, #4]
 284:Drivers/CMSIS/DSP/Source/FilteringFunctions/arm_biquad_cascade_df1_fast_q31.c ****     *pState++ = Yn1;
 571              		.loc 1 284 5 is_stmt 1 view .LVU136
 572              	.LVL65:
 573              		.loc 1 284 15 is_stmt 0 view .LVU137
 574 03c6 C3F80890 		str	r9, [r3, #8]
 285:Drivers/CMSIS/DSP/Source/FilteringFunctions/arm_biquad_cascade_df1_fast_q31.c ****     *pState++ = Yn2;
 575              		.loc 1 285 5 is_stmt 1 view .LVU138
 576              		.loc 1 285 12 is_stmt 0 view .LVU139
 577 03ca 03F11000 		add	r0, r3, #16
 578              	.LVL66:
 579              		.loc 1 285 15 view .LVU140
 580 03ce C3F80CB0 		str	fp, [r3, #12]
 286:Drivers/CMSIS/DSP/Source/FilteringFunctions/arm_biquad_cascade_df1_fast_q31.c **** 
 287:Drivers/CMSIS/DSP/Source/FilteringFunctions/arm_biquad_cascade_df1_fast_q31.c ****   } while (--stage);
 581              		.loc 1 287 12 is_stmt 1 view .LVU141
 582              	.LVL67:
 583              		.loc 1 287 12 is_stmt 0 view .LVU142
 584 03d2 119B     		ldr	r3, [sp, #68]
 585 03d4 013B     		subs	r3, r3, #1
 586              	.LVL68:
 587              		.loc 1 287 12 view .LVU143
 588 03d6 1193     		str	r3, [sp, #68]
 589 03d8 1CD0     		beq	.L9
 285:Drivers/CMSIS/DSP/Source/FilteringFunctions/arm_biquad_cascade_df1_fast_q31.c ****     *pState++ = Yn2;
 590              		.loc 1 285 12 view .LVU144
 591 03da 0346     		mov	r3, r0
 592              	.LVL69:
 276:Drivers/CMSIS/DSP/Source/FilteringFunctions/arm_biquad_cascade_df1_fast_q31.c **** 
 593              		.loc 1 276 9 view .LVU145
 594 03dc 1599     		ldr	r1, [sp, #84]
 595              	.LVL70:
 276:Drivers/CMSIS/DSP/Source/FilteringFunctions/arm_biquad_cascade_df1_fast_q31.c **** 
 596              		.loc 1 276 9 view .LVU146
 597 03de 0591     		str	r1, [sp, #20]
 598              	.LVL71:
 599              	.L6:
  82:Drivers/CMSIS/DSP/Source/FilteringFunctions/arm_biquad_cascade_df1_fast_q31.c ****   {
 600              		.loc 1 82 3 is_stmt 1 view .LVU147
  85:Drivers/CMSIS/DSP/Source/FilteringFunctions/arm_biquad_cascade_df1_fast_q31.c ****     b1 = *pCoeffs++;
 601              		.loc 1 85 5 view .LVU148
  85:Drivers/CMSIS/DSP/Source/FilteringFunctions/arm_biquad_cascade_df1_fast_q31.c ****     b1 = *pCoeffs++;
 602              		.loc 1 85 8 is_stmt 0 view .LVU149
 603 03e0 D2F800E0 		ldr	lr, [r2]
 604              	.LVL72:
  86:Drivers/CMSIS/DSP/Source/FilteringFunctions/arm_biquad_cascade_df1_fast_q31.c ****     b2 = *pCoeffs++;
 605              		.loc 1 86 5 is_stmt 1 view .LVU150
  86:Drivers/CMSIS/DSP/Source/FilteringFunctions/arm_biquad_cascade_df1_fast_q31.c ****     b2 = *pCoeffs++;
 606              		.loc 1 86 8 is_stmt 0 view .LVU151
 607 03e4 D2F804C0 		ldr	ip, [r2, #4]
 608              	.LVL73:
ARM GAS  /var/folders/n6/c271nzx11xl4r4_m7sqjlt0m0000gn/T//ccwyo7BG.s 			page 17


  87:Drivers/CMSIS/DSP/Source/FilteringFunctions/arm_biquad_cascade_df1_fast_q31.c ****     a1 = *pCoeffs++;
 609              		.loc 1 87 5 is_stmt 1 view .LVU152
  87:Drivers/CMSIS/DSP/Source/FilteringFunctions/arm_biquad_cascade_df1_fast_q31.c ****     a1 = *pCoeffs++;
 610              		.loc 1 87 8 is_stmt 0 view .LVU153
 611 03e8 9168     		ldr	r1, [r2, #8]
 612 03ea 0191     		str	r1, [sp, #4]
 613              	.LVL74:
  88:Drivers/CMSIS/DSP/Source/FilteringFunctions/arm_biquad_cascade_df1_fast_q31.c ****     a2 = *pCoeffs++;
 614              		.loc 1 88 5 is_stmt 1 view .LVU154
  88:Drivers/CMSIS/DSP/Source/FilteringFunctions/arm_biquad_cascade_df1_fast_q31.c ****     a2 = *pCoeffs++;
 615              		.loc 1 88 8 is_stmt 0 view .LVU155
 616 03ec D168     		ldr	r1, [r2, #12]
 617              	.LVL75:
  88:Drivers/CMSIS/DSP/Source/FilteringFunctions/arm_biquad_cascade_df1_fast_q31.c ****     a2 = *pCoeffs++;
 618              		.loc 1 88 8 view .LVU156
 619 03ee 0291     		str	r1, [sp, #8]
 620              	.LVL76:
  89:Drivers/CMSIS/DSP/Source/FilteringFunctions/arm_biquad_cascade_df1_fast_q31.c **** 
 621              		.loc 1 89 5 is_stmt 1 view .LVU157
  89:Drivers/CMSIS/DSP/Source/FilteringFunctions/arm_biquad_cascade_df1_fast_q31.c **** 
 622              		.loc 1 89 8 is_stmt 0 view .LVU158
 623 03f0 1169     		ldr	r1, [r2, #16]
 624              	.LVL77:
  89:Drivers/CMSIS/DSP/Source/FilteringFunctions/arm_biquad_cascade_df1_fast_q31.c **** 
 625              		.loc 1 89 8 view .LVU159
 626 03f2 0491     		str	r1, [sp, #16]
 627 03f4 1432     		adds	r2, r2, #20
 628              	.LVL78:
  92:Drivers/CMSIS/DSP/Source/FilteringFunctions/arm_biquad_cascade_df1_fast_q31.c ****     Xn2 = pState[1];
 629              		.loc 1 92 5 is_stmt 1 view .LVU160
  92:Drivers/CMSIS/DSP/Source/FilteringFunctions/arm_biquad_cascade_df1_fast_q31.c ****     Xn2 = pState[1];
 630              		.loc 1 92 9 is_stmt 0 view .LVU161
 631 03f6 D3F80080 		ldr	r8, [r3]
 632              	.LVL79:
  93:Drivers/CMSIS/DSP/Source/FilteringFunctions/arm_biquad_cascade_df1_fast_q31.c ****     Yn1 = pState[2];
 633              		.loc 1 93 5 is_stmt 1 view .LVU162
  93:Drivers/CMSIS/DSP/Source/FilteringFunctions/arm_biquad_cascade_df1_fast_q31.c ****     Yn1 = pState[2];
 634              		.loc 1 93 9 is_stmt 0 view .LVU163
 635 03fa 5868     		ldr	r0, [r3, #4]
 636              	.LVL80:
  94:Drivers/CMSIS/DSP/Source/FilteringFunctions/arm_biquad_cascade_df1_fast_q31.c ****     Yn2 = pState[3];
 637              		.loc 1 94 5 is_stmt 1 view .LVU164
  94:Drivers/CMSIS/DSP/Source/FilteringFunctions/arm_biquad_cascade_df1_fast_q31.c ****     Yn2 = pState[3];
 638              		.loc 1 94 9 is_stmt 0 view .LVU165
 639 03fc 9E68     		ldr	r6, [r3, #8]
 640              	.LVL81:
  95:Drivers/CMSIS/DSP/Source/FilteringFunctions/arm_biquad_cascade_df1_fast_q31.c **** 
 641              		.loc 1 95 5 is_stmt 1 view .LVU166
  95:Drivers/CMSIS/DSP/Source/FilteringFunctions/arm_biquad_cascade_df1_fast_q31.c **** 
 642              		.loc 1 95 9 is_stmt 0 view .LVU167
 643 03fe D3F80CB0 		ldr	fp, [r3, #12]
 644              	.LVL82:
 103:Drivers/CMSIS/DSP/Source/FilteringFunctions/arm_biquad_cascade_df1_fast_q31.c **** 
 645              		.loc 1 103 5 is_stmt 1 view .LVU168
 103:Drivers/CMSIS/DSP/Source/FilteringFunctions/arm_biquad_cascade_df1_fast_q31.c **** 
 646              		.loc 1 103 12 is_stmt 0 view .LVU169
 647 0402 1299     		ldr	r1, [sp, #72]
ARM GAS  /var/folders/n6/c271nzx11xl4r4_m7sqjlt0m0000gn/T//ccwyo7BG.s 			page 18


 648              	.LVL83:
 103:Drivers/CMSIS/DSP/Source/FilteringFunctions/arm_biquad_cascade_df1_fast_q31.c **** 
 649              		.loc 1 103 12 view .LVU170
 650 0404 8908     		lsrs	r1, r1, #2
 651 0406 0D91     		str	r1, [sp, #52]
 652              	.LVL84:
 107:Drivers/CMSIS/DSP/Source/FilteringFunctions/arm_biquad_cascade_df1_fast_q31.c ****     {
 653              		.loc 1 107 5 is_stmt 1 view .LVU171
 107:Drivers/CMSIS/DSP/Source/FilteringFunctions/arm_biquad_cascade_df1_fast_q31.c ****     {
 654              		.loc 1 107 11 is_stmt 0 view .LVU172
 655 0408 1599     		ldr	r1, [sp, #84]
 656              	.LVL85:
 107:Drivers/CMSIS/DSP/Source/FilteringFunctions/arm_biquad_cascade_df1_fast_q31.c ****     {
 657              		.loc 1 107 11 view .LVU173
 658 040a 0391     		str	r1, [sp, #12]
 659 040c 5946     		mov	r1, fp
 660 040e 1393     		str	r3, [sp, #76]
 661 0410 1492     		str	r2, [sp, #80]
 662 0412 61E7     		b	.L2
 663              	.LVL86:
 664              	.L9:
 288:Drivers/CMSIS/DSP/Source/FilteringFunctions/arm_biquad_cascade_df1_fast_q31.c **** }
 665              		.loc 1 288 1 view .LVU174
 666 0414 17B0     		add	sp, sp, #92
 667              		.cfi_def_cfa_offset 36
 668              		@ sp needed
 669 0416 BDE8F08F 		pop	{r4, r5, r6, r7, r8, r9, r10, fp, pc}
 670              		.loc 1 288 1 view .LVU175
 671              		.cfi_endproc
 672              	.LFE135:
 674              		.text
 675              	.Letext0:
 676              		.file 2 "/Users/killian/Library/Application Support/Code/User/globalStorage/bmd.stm32-for-vscode/@
 677              		.file 3 "/Users/killian/Library/Application Support/Code/User/globalStorage/bmd.stm32-for-vscode/@
 678              		.file 4 "Drivers/CMSIS/DSP/Include/arm_math.h"
ARM GAS  /var/folders/n6/c271nzx11xl4r4_m7sqjlt0m0000gn/T//ccwyo7BG.s 			page 19

