ARM GAS  /var/folders/n6/c271nzx11xl4r4_m7sqjlt0m0000gn/T//cc06efO3.s 			page 1


   1              		.cpu cortex-m7
   2              		.arch armv7e-m
   3              		.fpu fpv5-d16
   4              		.eabi_attribute 28, 1
   5              		.eabi_attribute 20, 1
   6              		.eabi_attribute 21, 1
   7              		.eabi_attribute 23, 3
   8              		.eabi_attribute 24, 1
   9              		.eabi_attribute 25, 1
  10              		.eabi_attribute 26, 1
  11              		.eabi_attribute 30, 1
  12              		.eabi_attribute 34, 1
  13              		.eabi_attribute 18, 4
  14              		.file	"arm_var_f32.c"
  15              		.text
  16              	.Ltext0:
  17              		.cfi_sections	.debug_frame
  18              		.file 1 "Drivers/CMSIS/DSP/Source/StatisticsFunctions/arm_var_f32.c"
  19              		.section	.text.arm_var_f32,"ax",%progbits
  20              		.align	1
  21              		.global	arm_var_f32
  22              		.syntax unified
  23              		.thumb
  24              		.thumb_func
  26              	arm_var_f32:
  27              	.LVL0:
  28              	.LFB135:
   1:Drivers/CMSIS/DSP/Source/StatisticsFunctions/arm_var_f32.c **** /* ----------------------------------------------------------------------
   2:Drivers/CMSIS/DSP/Source/StatisticsFunctions/arm_var_f32.c ****  * Project:      CMSIS DSP Library
   3:Drivers/CMSIS/DSP/Source/StatisticsFunctions/arm_var_f32.c ****  * Title:        arm_var_f32.c
   4:Drivers/CMSIS/DSP/Source/StatisticsFunctions/arm_var_f32.c ****  * Description:  Variance of the elements of a floating-point vector
   5:Drivers/CMSIS/DSP/Source/StatisticsFunctions/arm_var_f32.c ****  *
   6:Drivers/CMSIS/DSP/Source/StatisticsFunctions/arm_var_f32.c ****  * $Date:        27. January 2017
   7:Drivers/CMSIS/DSP/Source/StatisticsFunctions/arm_var_f32.c ****  * $Revision:    V.1.5.1
   8:Drivers/CMSIS/DSP/Source/StatisticsFunctions/arm_var_f32.c ****  *
   9:Drivers/CMSIS/DSP/Source/StatisticsFunctions/arm_var_f32.c ****  * Target Processor: Cortex-M cores
  10:Drivers/CMSIS/DSP/Source/StatisticsFunctions/arm_var_f32.c ****  * -------------------------------------------------------------------- */
  11:Drivers/CMSIS/DSP/Source/StatisticsFunctions/arm_var_f32.c **** /*
  12:Drivers/CMSIS/DSP/Source/StatisticsFunctions/arm_var_f32.c ****  * Copyright (C) 2010-2017 ARM Limited or its affiliates. All rights reserved.
  13:Drivers/CMSIS/DSP/Source/StatisticsFunctions/arm_var_f32.c ****  *
  14:Drivers/CMSIS/DSP/Source/StatisticsFunctions/arm_var_f32.c ****  * SPDX-License-Identifier: Apache-2.0
  15:Drivers/CMSIS/DSP/Source/StatisticsFunctions/arm_var_f32.c ****  *
  16:Drivers/CMSIS/DSP/Source/StatisticsFunctions/arm_var_f32.c ****  * Licensed under the Apache License, Version 2.0 (the License); you may
  17:Drivers/CMSIS/DSP/Source/StatisticsFunctions/arm_var_f32.c ****  * not use this file except in compliance with the License.
  18:Drivers/CMSIS/DSP/Source/StatisticsFunctions/arm_var_f32.c ****  * You may obtain a copy of the License at
  19:Drivers/CMSIS/DSP/Source/StatisticsFunctions/arm_var_f32.c ****  *
  20:Drivers/CMSIS/DSP/Source/StatisticsFunctions/arm_var_f32.c ****  * www.apache.org/licenses/LICENSE-2.0
  21:Drivers/CMSIS/DSP/Source/StatisticsFunctions/arm_var_f32.c ****  *
  22:Drivers/CMSIS/DSP/Source/StatisticsFunctions/arm_var_f32.c ****  * Unless required by applicable law or agreed to in writing, software
  23:Drivers/CMSIS/DSP/Source/StatisticsFunctions/arm_var_f32.c ****  * distributed under the License is distributed on an AS IS BASIS, WITHOUT
  24:Drivers/CMSIS/DSP/Source/StatisticsFunctions/arm_var_f32.c ****  * WARRANTIES OR CONDITIONS OF ANY KIND, either express or implied.
  25:Drivers/CMSIS/DSP/Source/StatisticsFunctions/arm_var_f32.c ****  * See the License for the specific language governing permissions and
  26:Drivers/CMSIS/DSP/Source/StatisticsFunctions/arm_var_f32.c ****  * limitations under the License.
  27:Drivers/CMSIS/DSP/Source/StatisticsFunctions/arm_var_f32.c ****  */
  28:Drivers/CMSIS/DSP/Source/StatisticsFunctions/arm_var_f32.c **** 
  29:Drivers/CMSIS/DSP/Source/StatisticsFunctions/arm_var_f32.c **** #include "arm_math.h"
  30:Drivers/CMSIS/DSP/Source/StatisticsFunctions/arm_var_f32.c **** 
ARM GAS  /var/folders/n6/c271nzx11xl4r4_m7sqjlt0m0000gn/T//cc06efO3.s 			page 2


  31:Drivers/CMSIS/DSP/Source/StatisticsFunctions/arm_var_f32.c **** /**
  32:Drivers/CMSIS/DSP/Source/StatisticsFunctions/arm_var_f32.c ****  * @ingroup groupStats
  33:Drivers/CMSIS/DSP/Source/StatisticsFunctions/arm_var_f32.c ****  */
  34:Drivers/CMSIS/DSP/Source/StatisticsFunctions/arm_var_f32.c **** 
  35:Drivers/CMSIS/DSP/Source/StatisticsFunctions/arm_var_f32.c **** /**
  36:Drivers/CMSIS/DSP/Source/StatisticsFunctions/arm_var_f32.c ****  * @defgroup variance  Variance
  37:Drivers/CMSIS/DSP/Source/StatisticsFunctions/arm_var_f32.c ****  *
  38:Drivers/CMSIS/DSP/Source/StatisticsFunctions/arm_var_f32.c ****  * Calculates the variance of the elements in the input vector.
  39:Drivers/CMSIS/DSP/Source/StatisticsFunctions/arm_var_f32.c ****  * The underlying algorithm used is the direct method sometimes referred to as the two-pass method:
  40:Drivers/CMSIS/DSP/Source/StatisticsFunctions/arm_var_f32.c ****  *
  41:Drivers/CMSIS/DSP/Source/StatisticsFunctions/arm_var_f32.c ****  * <pre>
  42:Drivers/CMSIS/DSP/Source/StatisticsFunctions/arm_var_f32.c ****  *   Result = sum(element - meanOfElements)^2) / numElement - 1
  43:Drivers/CMSIS/DSP/Source/StatisticsFunctions/arm_var_f32.c ****  *
  44:Drivers/CMSIS/DSP/Source/StatisticsFunctions/arm_var_f32.c ****  *     where, meanOfElements = ( pSrc[0] * pSrc[0] + pSrc[1] * pSrc[1] + ... + pSrc[blockSize-1] ) 
  45:Drivers/CMSIS/DSP/Source/StatisticsFunctions/arm_var_f32.c ****  *
  46:Drivers/CMSIS/DSP/Source/StatisticsFunctions/arm_var_f32.c ****  * </pre>
  47:Drivers/CMSIS/DSP/Source/StatisticsFunctions/arm_var_f32.c ****  *
  48:Drivers/CMSIS/DSP/Source/StatisticsFunctions/arm_var_f32.c ****  * There are separate functions for floating point, Q31, and Q15 data types.
  49:Drivers/CMSIS/DSP/Source/StatisticsFunctions/arm_var_f32.c ****  */
  50:Drivers/CMSIS/DSP/Source/StatisticsFunctions/arm_var_f32.c **** 
  51:Drivers/CMSIS/DSP/Source/StatisticsFunctions/arm_var_f32.c **** /**
  52:Drivers/CMSIS/DSP/Source/StatisticsFunctions/arm_var_f32.c ****  * @addtogroup variance
  53:Drivers/CMSIS/DSP/Source/StatisticsFunctions/arm_var_f32.c ****  * @{
  54:Drivers/CMSIS/DSP/Source/StatisticsFunctions/arm_var_f32.c ****  */
  55:Drivers/CMSIS/DSP/Source/StatisticsFunctions/arm_var_f32.c **** 
  56:Drivers/CMSIS/DSP/Source/StatisticsFunctions/arm_var_f32.c **** 
  57:Drivers/CMSIS/DSP/Source/StatisticsFunctions/arm_var_f32.c **** /**
  58:Drivers/CMSIS/DSP/Source/StatisticsFunctions/arm_var_f32.c ****  * @brief Variance of the elements of a floating-point vector.
  59:Drivers/CMSIS/DSP/Source/StatisticsFunctions/arm_var_f32.c ****  * @param[in]       *pSrc points to the input vector
  60:Drivers/CMSIS/DSP/Source/StatisticsFunctions/arm_var_f32.c ****  * @param[in]       blockSize length of the input vector
  61:Drivers/CMSIS/DSP/Source/StatisticsFunctions/arm_var_f32.c ****  * @param[out]      *pResult variance value returned here
  62:Drivers/CMSIS/DSP/Source/StatisticsFunctions/arm_var_f32.c ****  * @return none.
  63:Drivers/CMSIS/DSP/Source/StatisticsFunctions/arm_var_f32.c ****  */
  64:Drivers/CMSIS/DSP/Source/StatisticsFunctions/arm_var_f32.c **** 
  65:Drivers/CMSIS/DSP/Source/StatisticsFunctions/arm_var_f32.c **** void arm_var_f32(
  66:Drivers/CMSIS/DSP/Source/StatisticsFunctions/arm_var_f32.c ****                  float32_t * pSrc,
  67:Drivers/CMSIS/DSP/Source/StatisticsFunctions/arm_var_f32.c ****                  uint32_t blockSize,
  68:Drivers/CMSIS/DSP/Source/StatisticsFunctions/arm_var_f32.c ****                  float32_t * pResult)
  69:Drivers/CMSIS/DSP/Source/StatisticsFunctions/arm_var_f32.c **** {
  29              		.loc 1 69 1 view -0
  30              		.cfi_startproc
  31              		@ args = 0, pretend = 0, frame = 0
  32              		@ frame_needed = 0, uses_anonymous_args = 0
  33              		@ link register save eliminated.
  70:Drivers/CMSIS/DSP/Source/StatisticsFunctions/arm_var_f32.c ****     float32_t fMean, fValue;
  34              		.loc 1 70 5 view .LVU1
  71:Drivers/CMSIS/DSP/Source/StatisticsFunctions/arm_var_f32.c ****     uint32_t blkCnt;            /* loop counter */
  35              		.loc 1 71 5 view .LVU2
  72:Drivers/CMSIS/DSP/Source/StatisticsFunctions/arm_var_f32.c ****     float32_t * pInput = pSrc;
  36              		.loc 1 72 5 view .LVU3
  73:Drivers/CMSIS/DSP/Source/StatisticsFunctions/arm_var_f32.c ****     float32_t sum = 0.0f;
  37              		.loc 1 73 5 view .LVU4
  74:Drivers/CMSIS/DSP/Source/StatisticsFunctions/arm_var_f32.c ****     float32_t fSum = 0.0f;
  38              		.loc 1 74 5 view .LVU5
  75:Drivers/CMSIS/DSP/Source/StatisticsFunctions/arm_var_f32.c ****     #if defined(ARM_MATH_DSP)
  76:Drivers/CMSIS/DSP/Source/StatisticsFunctions/arm_var_f32.c ****     float32_t in1, in2, in3, in4;
  39              		.loc 1 76 5 view .LVU6
ARM GAS  /var/folders/n6/c271nzx11xl4r4_m7sqjlt0m0000gn/T//cc06efO3.s 			page 3


  77:Drivers/CMSIS/DSP/Source/StatisticsFunctions/arm_var_f32.c ****     #endif
  78:Drivers/CMSIS/DSP/Source/StatisticsFunctions/arm_var_f32.c **** 
  79:Drivers/CMSIS/DSP/Source/StatisticsFunctions/arm_var_f32.c ****     if (blockSize <= 1U)
  40              		.loc 1 79 5 view .LVU7
  41              		.loc 1 79 8 is_stmt 0 view .LVU8
  42 0000 0129     		cmp	r1, #1
  43 0002 06D9     		bls	.L15
  69:Drivers/CMSIS/DSP/Source/StatisticsFunctions/arm_var_f32.c ****     float32_t fMean, fValue;
  44              		.loc 1 69 1 view .LVU9
  45 0004 70B4     		push	{r4, r5, r6}
  46              		.cfi_def_cfa_offset 12
  47              		.cfi_offset 4, -12
  48              		.cfi_offset 5, -8
  49              		.cfi_offset 6, -4
  80:Drivers/CMSIS/DSP/Source/StatisticsFunctions/arm_var_f32.c ****     {
  81:Drivers/CMSIS/DSP/Source/StatisticsFunctions/arm_var_f32.c ****         *pResult = 0;
  82:Drivers/CMSIS/DSP/Source/StatisticsFunctions/arm_var_f32.c ****         return;
  83:Drivers/CMSIS/DSP/Source/StatisticsFunctions/arm_var_f32.c ****     }
  84:Drivers/CMSIS/DSP/Source/StatisticsFunctions/arm_var_f32.c **** 
  85:Drivers/CMSIS/DSP/Source/StatisticsFunctions/arm_var_f32.c ****     #if defined(ARM_MATH_DSP)
  86:Drivers/CMSIS/DSP/Source/StatisticsFunctions/arm_var_f32.c ****         /* Run the below code for Cortex-M4 and Cortex-M7 */
  87:Drivers/CMSIS/DSP/Source/StatisticsFunctions/arm_var_f32.c **** 
  88:Drivers/CMSIS/DSP/Source/StatisticsFunctions/arm_var_f32.c ****         /*loop Unrolling */
  89:Drivers/CMSIS/DSP/Source/StatisticsFunctions/arm_var_f32.c ****         blkCnt = blockSize >> 2U;
  50              		.loc 1 89 9 is_stmt 1 view .LVU10
  51              		.loc 1 89 16 is_stmt 0 view .LVU11
  52 0006 8D08     		lsrs	r5, r1, #2
  53              	.LVL1:
  90:Drivers/CMSIS/DSP/Source/StatisticsFunctions/arm_var_f32.c **** 
  91:Drivers/CMSIS/DSP/Source/StatisticsFunctions/arm_var_f32.c ****         /* First part of the processing with loop unrolling.  Compute 4 outputs at a time.
  92:Drivers/CMSIS/DSP/Source/StatisticsFunctions/arm_var_f32.c ****         ** a second loop below computes the remaining 1 to 3 samples. */
  93:Drivers/CMSIS/DSP/Source/StatisticsFunctions/arm_var_f32.c ****         while (blkCnt > 0U)
  54              		.loc 1 93 9 is_stmt 1 view .LVU12
  72:Drivers/CMSIS/DSP/Source/StatisticsFunctions/arm_var_f32.c ****     float32_t sum = 0.0f;
  55              		.loc 1 72 17 is_stmt 0 view .LVU13
  56 0008 0346     		mov	r3, r0
  89:Drivers/CMSIS/DSP/Source/StatisticsFunctions/arm_var_f32.c **** 
  57              		.loc 1 89 16 view .LVU14
  58 000a 2C46     		mov	r4, r5
  73:Drivers/CMSIS/DSP/Source/StatisticsFunctions/arm_var_f32.c ****     float32_t fSum = 0.0f;
  59              		.loc 1 73 15 view .LVU15
  60 000c DFED337A 		vldr.32	s15, .L16
  61              		.loc 1 93 15 view .LVU16
  62 0010 14E0     		b	.L4
  63              	.LVL2:
  64              	.L15:
  65              		.cfi_def_cfa_offset 0
  66              		.cfi_restore 4
  67              		.cfi_restore 5
  68              		.cfi_restore 6
  81:Drivers/CMSIS/DSP/Source/StatisticsFunctions/arm_var_f32.c ****         return;
  69              		.loc 1 81 9 is_stmt 1 view .LVU17
  81:Drivers/CMSIS/DSP/Source/StatisticsFunctions/arm_var_f32.c ****         return;
  70              		.loc 1 81 18 is_stmt 0 view .LVU18
  71 0012 0023     		movs	r3, #0
  72 0014 1360     		str	r3, [r2]	@ float
  82:Drivers/CMSIS/DSP/Source/StatisticsFunctions/arm_var_f32.c ****     }
ARM GAS  /var/folders/n6/c271nzx11xl4r4_m7sqjlt0m0000gn/T//cc06efO3.s 			page 4


  73              		.loc 1 82 9 is_stmt 1 view .LVU19
  74 0016 7047     		bx	lr
  75              	.LVL3:
  76              	.L5:
  77              		.cfi_def_cfa_offset 12
  78              		.cfi_offset 4, -12
  79              		.cfi_offset 5, -8
  80              		.cfi_offset 6, -4
  94:Drivers/CMSIS/DSP/Source/StatisticsFunctions/arm_var_f32.c ****         {
  95:Drivers/CMSIS/DSP/Source/StatisticsFunctions/arm_var_f32.c ****             /* C = (A[0] + A[1] + A[2] + ... + A[blockSize-1]) */
  96:Drivers/CMSIS/DSP/Source/StatisticsFunctions/arm_var_f32.c ****             in1 = *pInput++;
  81              		.loc 1 96 13 view .LVU20
  82              		.loc 1 96 17 is_stmt 0 view .LVU21
  83 0018 D3ED005A 		vldr.32	s11, [r3]
  84              	.LVL4:
  97:Drivers/CMSIS/DSP/Source/StatisticsFunctions/arm_var_f32.c ****             in2 = *pInput++;
  85              		.loc 1 97 13 is_stmt 1 view .LVU22
  86              		.loc 1 97 17 is_stmt 0 view .LVU23
  87 001c D3ED016A 		vldr.32	s13, [r3, #4]
  88              	.LVL5:
  98:Drivers/CMSIS/DSP/Source/StatisticsFunctions/arm_var_f32.c ****             in3 = *pInput++;
  89              		.loc 1 98 13 is_stmt 1 view .LVU24
  90              		.loc 1 98 17 is_stmt 0 view .LVU25
  91 0020 93ED027A 		vldr.32	s14, [r3, #8]
  92              	.LVL6:
  99:Drivers/CMSIS/DSP/Source/StatisticsFunctions/arm_var_f32.c ****             in4 = *pInput++;
  93              		.loc 1 99 13 is_stmt 1 view .LVU26
  94              		.loc 1 99 17 is_stmt 0 view .LVU27
  95 0024 93ED036A 		vldr.32	s12, [r3, #12]
  96              	.LVL7:
 100:Drivers/CMSIS/DSP/Source/StatisticsFunctions/arm_var_f32.c **** 
 101:Drivers/CMSIS/DSP/Source/StatisticsFunctions/arm_var_f32.c ****             sum += in1;
  97              		.loc 1 101 13 is_stmt 1 view .LVU28
  98              		.loc 1 101 17 is_stmt 0 view .LVU29
  99 0028 77EEA57A 		vadd.f32	s15, s15, s11
 100              	.LVL8:
 102:Drivers/CMSIS/DSP/Source/StatisticsFunctions/arm_var_f32.c ****             sum += in2;
 101              		.loc 1 102 13 is_stmt 1 view .LVU30
 102              		.loc 1 102 17 is_stmt 0 view .LVU31
 103 002c 76EEA77A 		vadd.f32	s15, s13, s15
 104              	.LVL9:
 103:Drivers/CMSIS/DSP/Source/StatisticsFunctions/arm_var_f32.c ****             sum += in3;
 105              		.loc 1 103 13 is_stmt 1 view .LVU32
 106              		.loc 1 103 17 is_stmt 0 view .LVU33
 107 0030 77EE277A 		vadd.f32	s15, s14, s15
 108              	.LVL10:
 104:Drivers/CMSIS/DSP/Source/StatisticsFunctions/arm_var_f32.c ****             sum += in4;
 109              		.loc 1 104 13 is_stmt 1 view .LVU34
 110              		.loc 1 104 17 is_stmt 0 view .LVU35
 111 0034 76EE277A 		vadd.f32	s15, s12, s15
 112              	.LVL11:
 105:Drivers/CMSIS/DSP/Source/StatisticsFunctions/arm_var_f32.c **** 
 106:Drivers/CMSIS/DSP/Source/StatisticsFunctions/arm_var_f32.c ****             /* Decrement the loop counter */
 107:Drivers/CMSIS/DSP/Source/StatisticsFunctions/arm_var_f32.c ****             blkCnt--;
 113              		.loc 1 107 13 is_stmt 1 view .LVU36
 114              		.loc 1 107 19 is_stmt 0 view .LVU37
 115 0038 013C     		subs	r4, r4, #1
ARM GAS  /var/folders/n6/c271nzx11xl4r4_m7sqjlt0m0000gn/T//cc06efO3.s 			page 5


 116              	.LVL12:
  99:Drivers/CMSIS/DSP/Source/StatisticsFunctions/arm_var_f32.c **** 
 117              		.loc 1 99 26 view .LVU38
 118 003a 1033     		adds	r3, r3, #16
 119              	.LVL13:
 120              	.L4:
  93:Drivers/CMSIS/DSP/Source/StatisticsFunctions/arm_var_f32.c ****         {
 121              		.loc 1 93 23 is_stmt 1 view .LVU39
 122 003c 002C     		cmp	r4, #0
 123 003e EBD1     		bne	.L5
 108:Drivers/CMSIS/DSP/Source/StatisticsFunctions/arm_var_f32.c ****         }
 109:Drivers/CMSIS/DSP/Source/StatisticsFunctions/arm_var_f32.c **** 
 110:Drivers/CMSIS/DSP/Source/StatisticsFunctions/arm_var_f32.c ****         /* If the blockSize is not a multiple of 4, compute any remaining output samples here.
 111:Drivers/CMSIS/DSP/Source/StatisticsFunctions/arm_var_f32.c ****         ** No loop unrolling is used. */
 112:Drivers/CMSIS/DSP/Source/StatisticsFunctions/arm_var_f32.c ****         blkCnt = blockSize % 0x4U;
 124              		.loc 1 112 9 view .LVU40
 125              		.loc 1 112 16 is_stmt 0 view .LVU41
 126 0040 01F00304 		and	r4, r1, #3
 127              	.LVL14:
 113:Drivers/CMSIS/DSP/Source/StatisticsFunctions/arm_var_f32.c **** 
 114:Drivers/CMSIS/DSP/Source/StatisticsFunctions/arm_var_f32.c ****     #else
 115:Drivers/CMSIS/DSP/Source/StatisticsFunctions/arm_var_f32.c ****         /* Run the below code for Cortex-M0 or Cortex-M3 */
 116:Drivers/CMSIS/DSP/Source/StatisticsFunctions/arm_var_f32.c **** 
 117:Drivers/CMSIS/DSP/Source/StatisticsFunctions/arm_var_f32.c ****         /* Loop over blockSize number of values */
 118:Drivers/CMSIS/DSP/Source/StatisticsFunctions/arm_var_f32.c ****         blkCnt = blockSize;
 119:Drivers/CMSIS/DSP/Source/StatisticsFunctions/arm_var_f32.c **** 
 120:Drivers/CMSIS/DSP/Source/StatisticsFunctions/arm_var_f32.c ****     #endif
 121:Drivers/CMSIS/DSP/Source/StatisticsFunctions/arm_var_f32.c **** 
 122:Drivers/CMSIS/DSP/Source/StatisticsFunctions/arm_var_f32.c ****     while (blkCnt > 0U)
 128              		.loc 1 122 5 is_stmt 1 view .LVU42
 112:Drivers/CMSIS/DSP/Source/StatisticsFunctions/arm_var_f32.c **** 
 129              		.loc 1 112 16 is_stmt 0 view .LVU43
 130 0044 2646     		mov	r6, r4
 131              		.loc 1 122 11 view .LVU44
 132 0046 04E0     		b	.L6
 133              	.LVL15:
 134              	.L7:
 123:Drivers/CMSIS/DSP/Source/StatisticsFunctions/arm_var_f32.c ****     {
 124:Drivers/CMSIS/DSP/Source/StatisticsFunctions/arm_var_f32.c ****         /* C = (A[0] + A[1] + A[2] + ... + A[blockSize-1]) */
 125:Drivers/CMSIS/DSP/Source/StatisticsFunctions/arm_var_f32.c ****         sum += *pInput++;
 135              		.loc 1 125 9 is_stmt 1 view .LVU45
 136              		.loc 1 125 16 is_stmt 0 view .LVU46
 137 0048 B3EC017A 		vldmia.32	r3!, {s14}
 138              	.LVL16:
 139              		.loc 1 125 13 view .LVU47
 140 004c 77EE877A 		vadd.f32	s15, s15, s14
 141              	.LVL17:
 126:Drivers/CMSIS/DSP/Source/StatisticsFunctions/arm_var_f32.c **** 
 127:Drivers/CMSIS/DSP/Source/StatisticsFunctions/arm_var_f32.c ****         /* Decrement the loop counter */
 128:Drivers/CMSIS/DSP/Source/StatisticsFunctions/arm_var_f32.c ****         blkCnt--;
 142              		.loc 1 128 9 is_stmt 1 view .LVU48
 143              		.loc 1 128 15 is_stmt 0 view .LVU49
 144 0050 013E     		subs	r6, r6, #1
 145              	.LVL18:
 146              	.L6:
 122:Drivers/CMSIS/DSP/Source/StatisticsFunctions/arm_var_f32.c ****     {
 147              		.loc 1 122 19 is_stmt 1 view .LVU50
ARM GAS  /var/folders/n6/c271nzx11xl4r4_m7sqjlt0m0000gn/T//cc06efO3.s 			page 6


 148 0052 002E     		cmp	r6, #0
 149 0054 F8D1     		bne	.L7
 129:Drivers/CMSIS/DSP/Source/StatisticsFunctions/arm_var_f32.c ****     }
 130:Drivers/CMSIS/DSP/Source/StatisticsFunctions/arm_var_f32.c **** 
 131:Drivers/CMSIS/DSP/Source/StatisticsFunctions/arm_var_f32.c ****     /* C = (A[0] + A[1] + A[2] + ... + A[blockSize-1]) / blockSize  */
 132:Drivers/CMSIS/DSP/Source/StatisticsFunctions/arm_var_f32.c ****     fMean = sum / (float32_t) blockSize;
 150              		.loc 1 132 5 view .LVU51
 151              		.loc 1 132 19 is_stmt 0 view .LVU52
 152 0056 07EE101A 		vmov	s14, r1	@ int
 153 005a B8EE476A 		vcvt.f32.u32	s12, s14
 154              		.loc 1 132 11 view .LVU53
 155 005e C7EE866A 		vdiv.f32	s13, s15, s12
 156              	.LVL19:
 133:Drivers/CMSIS/DSP/Source/StatisticsFunctions/arm_var_f32.c **** 
 134:Drivers/CMSIS/DSP/Source/StatisticsFunctions/arm_var_f32.c ****     pInput = pSrc;
 157              		.loc 1 134 5 is_stmt 1 view .LVU54
 135:Drivers/CMSIS/DSP/Source/StatisticsFunctions/arm_var_f32.c **** 
 136:Drivers/CMSIS/DSP/Source/StatisticsFunctions/arm_var_f32.c ****     #if defined(ARM_MATH_DSP)
 137:Drivers/CMSIS/DSP/Source/StatisticsFunctions/arm_var_f32.c **** 
 138:Drivers/CMSIS/DSP/Source/StatisticsFunctions/arm_var_f32.c ****         /*loop Unrolling */
 139:Drivers/CMSIS/DSP/Source/StatisticsFunctions/arm_var_f32.c ****         blkCnt = blockSize >> 2U;
 158              		.loc 1 139 9 view .LVU55
 140:Drivers/CMSIS/DSP/Source/StatisticsFunctions/arm_var_f32.c **** 
 141:Drivers/CMSIS/DSP/Source/StatisticsFunctions/arm_var_f32.c ****         /* First part of the processing with loop unrolling.  Compute 4 outputs at a time.
 142:Drivers/CMSIS/DSP/Source/StatisticsFunctions/arm_var_f32.c ****         ** a second loop below computes the remaining 1 to 3 samples. */
 143:Drivers/CMSIS/DSP/Source/StatisticsFunctions/arm_var_f32.c ****         while (blkCnt > 0U)
 159              		.loc 1 143 9 view .LVU56
  74:Drivers/CMSIS/DSP/Source/StatisticsFunctions/arm_var_f32.c ****     #if defined(ARM_MATH_DSP)
 160              		.loc 1 74 15 is_stmt 0 view .LVU57
 161 0062 DFED1E7A 		vldr.32	s15, .L16
 162              	.LVL20:
 163              		.loc 1 143 15 view .LVU58
 164 0066 21E0     		b	.L8
 165              	.LVL21:
 166              	.L9:
 144:Drivers/CMSIS/DSP/Source/StatisticsFunctions/arm_var_f32.c ****         {
 145:Drivers/CMSIS/DSP/Source/StatisticsFunctions/arm_var_f32.c ****             fValue = *pInput++ - fMean;
 167              		.loc 1 145 13 is_stmt 1 view .LVU59
 168              		.loc 1 145 22 is_stmt 0 view .LVU60
 169 0068 90ED007A 		vldr.32	s14, [r0]
 170              		.loc 1 145 20 view .LVU61
 171 006c 37EE667A 		vsub.f32	s14, s14, s13
 172              	.LVL22:
 146:Drivers/CMSIS/DSP/Source/StatisticsFunctions/arm_var_f32.c ****             fSum += fValue * fValue;
 173              		.loc 1 146 13 is_stmt 1 view .LVU62
 174              		.loc 1 146 28 is_stmt 0 view .LVU63
 175 0070 27EE077A 		vmul.f32	s14, s14, s14
 176              	.LVL23:
 177              		.loc 1 146 18 view .LVU64
 178 0074 37EE277A 		vadd.f32	s14, s14, s15
 179              	.LVL24:
 147:Drivers/CMSIS/DSP/Source/StatisticsFunctions/arm_var_f32.c ****             fValue = *pInput++ - fMean;
 180              		.loc 1 147 13 is_stmt 1 view .LVU65
 181              		.loc 1 147 22 is_stmt 0 view .LVU66
 182 0078 D0ED017A 		vldr.32	s15, [r0, #4]
 183              		.loc 1 147 20 view .LVU67
 184 007c 77EEE67A 		vsub.f32	s15, s15, s13
ARM GAS  /var/folders/n6/c271nzx11xl4r4_m7sqjlt0m0000gn/T//cc06efO3.s 			page 7


 185              	.LVL25:
 148:Drivers/CMSIS/DSP/Source/StatisticsFunctions/arm_var_f32.c ****             fSum += fValue * fValue;
 186              		.loc 1 148 13 is_stmt 1 view .LVU68
 187              		.loc 1 148 28 is_stmt 0 view .LVU69
 188 0080 67EEA77A 		vmul.f32	s15, s15, s15
 189              	.LVL26:
 190              		.loc 1 148 18 view .LVU70
 191 0084 37EE877A 		vadd.f32	s14, s15, s14
 192              	.LVL27:
 149:Drivers/CMSIS/DSP/Source/StatisticsFunctions/arm_var_f32.c ****             fValue = *pInput++ - fMean;
 193              		.loc 1 149 13 is_stmt 1 view .LVU71
 194              		.loc 1 149 22 is_stmt 0 view .LVU72
 195 0088 D0ED027A 		vldr.32	s15, [r0, #8]
 196              		.loc 1 149 20 view .LVU73
 197 008c 77EEE67A 		vsub.f32	s15, s15, s13
 198              	.LVL28:
 150:Drivers/CMSIS/DSP/Source/StatisticsFunctions/arm_var_f32.c ****             fSum += fValue * fValue;
 199              		.loc 1 150 13 is_stmt 1 view .LVU74
 200              		.loc 1 150 28 is_stmt 0 view .LVU75
 201 0090 67EEA77A 		vmul.f32	s15, s15, s15
 202              	.LVL29:
 203              		.loc 1 150 18 view .LVU76
 204 0094 37EE877A 		vadd.f32	s14, s15, s14
 205              	.LVL30:
 151:Drivers/CMSIS/DSP/Source/StatisticsFunctions/arm_var_f32.c ****             fValue = *pInput++ - fMean;
 206              		.loc 1 151 13 is_stmt 1 view .LVU77
 207              		.loc 1 151 22 is_stmt 0 view .LVU78
 208 0098 D0ED037A 		vldr.32	s15, [r0, #12]
 209              		.loc 1 151 20 view .LVU79
 210 009c 77EEE67A 		vsub.f32	s15, s15, s13
 211              	.LVL31:
 152:Drivers/CMSIS/DSP/Source/StatisticsFunctions/arm_var_f32.c ****             fSum += fValue * fValue;
 212              		.loc 1 152 13 is_stmt 1 view .LVU80
 213              		.loc 1 152 28 is_stmt 0 view .LVU81
 214 00a0 67EEA77A 		vmul.f32	s15, s15, s15
 215              	.LVL32:
 216              		.loc 1 152 18 view .LVU82
 217 00a4 77EE877A 		vadd.f32	s15, s15, s14
 218              	.LVL33:
 153:Drivers/CMSIS/DSP/Source/StatisticsFunctions/arm_var_f32.c **** 
 154:Drivers/CMSIS/DSP/Source/StatisticsFunctions/arm_var_f32.c ****             /* Decrement the loop counter */
 155:Drivers/CMSIS/DSP/Source/StatisticsFunctions/arm_var_f32.c ****             blkCnt--;
 219              		.loc 1 155 13 is_stmt 1 view .LVU83
 220              		.loc 1 155 19 is_stmt 0 view .LVU84
 221 00a8 013D     		subs	r5, r5, #1
 222              	.LVL34:
 151:Drivers/CMSIS/DSP/Source/StatisticsFunctions/arm_var_f32.c ****             fSum += fValue * fValue;
 223              		.loc 1 151 29 view .LVU85
 224 00aa 1030     		adds	r0, r0, #16
 225              	.LVL35:
 226              	.L8:
 143:Drivers/CMSIS/DSP/Source/StatisticsFunctions/arm_var_f32.c ****         {
 227              		.loc 1 143 23 is_stmt 1 view .LVU86
 228 00ac 002D     		cmp	r5, #0
 229 00ae DBD1     		bne	.L9
 143:Drivers/CMSIS/DSP/Source/StatisticsFunctions/arm_var_f32.c ****         {
 230              		.loc 1 143 23 is_stmt 0 view .LVU87
ARM GAS  /var/folders/n6/c271nzx11xl4r4_m7sqjlt0m0000gn/T//cc06efO3.s 			page 8


 231 00b0 08E0     		b	.L10
 232              	.LVL36:
 233              	.L11:
 156:Drivers/CMSIS/DSP/Source/StatisticsFunctions/arm_var_f32.c ****         }
 157:Drivers/CMSIS/DSP/Source/StatisticsFunctions/arm_var_f32.c **** 
 158:Drivers/CMSIS/DSP/Source/StatisticsFunctions/arm_var_f32.c ****         blkCnt = blockSize % 0x4U;
 159:Drivers/CMSIS/DSP/Source/StatisticsFunctions/arm_var_f32.c ****     #else
 160:Drivers/CMSIS/DSP/Source/StatisticsFunctions/arm_var_f32.c ****         /* Run the below code for Cortex-M0 or Cortex-M3 */
 161:Drivers/CMSIS/DSP/Source/StatisticsFunctions/arm_var_f32.c **** 
 162:Drivers/CMSIS/DSP/Source/StatisticsFunctions/arm_var_f32.c ****         /* Loop over blockSize number of values */
 163:Drivers/CMSIS/DSP/Source/StatisticsFunctions/arm_var_f32.c ****         blkCnt = blockSize;
 164:Drivers/CMSIS/DSP/Source/StatisticsFunctions/arm_var_f32.c ****     #endif
 165:Drivers/CMSIS/DSP/Source/StatisticsFunctions/arm_var_f32.c **** 
 166:Drivers/CMSIS/DSP/Source/StatisticsFunctions/arm_var_f32.c ****     while (blkCnt > 0U)
 167:Drivers/CMSIS/DSP/Source/StatisticsFunctions/arm_var_f32.c ****     {
 168:Drivers/CMSIS/DSP/Source/StatisticsFunctions/arm_var_f32.c ****         fValue = *pInput++ - fMean;
 234              		.loc 1 168 9 is_stmt 1 view .LVU88
 235              		.loc 1 168 18 is_stmt 0 view .LVU89
 236 00b2 B0EC017A 		vldmia.32	r0!, {s14}
 237              	.LVL37:
 238              		.loc 1 168 16 view .LVU90
 239 00b6 37EE667A 		vsub.f32	s14, s14, s13
 240              	.LVL38:
 169:Drivers/CMSIS/DSP/Source/StatisticsFunctions/arm_var_f32.c ****         fSum += fValue * fValue;
 241              		.loc 1 169 9 is_stmt 1 view .LVU91
 242              		.loc 1 169 24 is_stmt 0 view .LVU92
 243 00ba 27EE077A 		vmul.f32	s14, s14, s14
 244              	.LVL39:
 245              		.loc 1 169 14 view .LVU93
 246 00be 77EE877A 		vadd.f32	s15, s15, s14
 247              	.LVL40:
 170:Drivers/CMSIS/DSP/Source/StatisticsFunctions/arm_var_f32.c **** 
 171:Drivers/CMSIS/DSP/Source/StatisticsFunctions/arm_var_f32.c ****         /* Decrement the loop counter */
 172:Drivers/CMSIS/DSP/Source/StatisticsFunctions/arm_var_f32.c ****         blkCnt--;
 248              		.loc 1 172 9 is_stmt 1 view .LVU94
 249              		.loc 1 172 15 is_stmt 0 view .LVU95
 250 00c2 013C     		subs	r4, r4, #1
 251              	.LVL41:
 252              	.L10:
 166:Drivers/CMSIS/DSP/Source/StatisticsFunctions/arm_var_f32.c ****     {
 253              		.loc 1 166 19 is_stmt 1 view .LVU96
 254 00c4 002C     		cmp	r4, #0
 255 00c6 F4D1     		bne	.L11
 173:Drivers/CMSIS/DSP/Source/StatisticsFunctions/arm_var_f32.c ****     }
 174:Drivers/CMSIS/DSP/Source/StatisticsFunctions/arm_var_f32.c **** 
 175:Drivers/CMSIS/DSP/Source/StatisticsFunctions/arm_var_f32.c ****     /* Variance */
 176:Drivers/CMSIS/DSP/Source/StatisticsFunctions/arm_var_f32.c ****     *pResult = fSum / (float32_t)(blockSize - 1.0f);
 256              		.loc 1 176 5 view .LVU97
 257              		.loc 1 176 23 is_stmt 0 view .LVU98
 258 00c8 B7EE007A 		vmov.f32	s14, #1.0e+0
 259 00cc 36EE476A 		vsub.f32	s12, s12, s14
 260              		.loc 1 176 21 view .LVU99
 261 00d0 87EE867A 		vdiv.f32	s14, s15, s12
 262              		.loc 1 176 14 view .LVU100
 263 00d4 82ED007A 		vstr.32	s14, [r2]
 177:Drivers/CMSIS/DSP/Source/StatisticsFunctions/arm_var_f32.c **** }
 264              		.loc 1 177 1 view .LVU101
ARM GAS  /var/folders/n6/c271nzx11xl4r4_m7sqjlt0m0000gn/T//cc06efO3.s 			page 9


 265 00d8 70BC     		pop	{r4, r5, r6}
 266              		.cfi_restore 6
 267              		.cfi_restore 5
 268              		.cfi_restore 4
 269              		.cfi_def_cfa_offset 0
 270              	.LVL42:
 271              		.loc 1 177 1 view .LVU102
 272 00da 7047     		bx	lr
 273              	.L17:
 274              		.align	2
 275              	.L16:
 276 00dc 00000000 		.word	0
 277              		.cfi_endproc
 278              	.LFE135:
 280              		.text
 281              	.Letext0:
 282              		.file 2 "/Users/killian/Library/Application Support/Code/User/globalStorage/bmd.stm32-for-vscode/@
 283              		.file 3 "/Users/killian/Library/Application Support/Code/User/globalStorage/bmd.stm32-for-vscode/@
 284              		.file 4 "Drivers/CMSIS/DSP/Include/arm_math.h"
ARM GAS  /var/folders/n6/c271nzx11xl4r4_m7sqjlt0m0000gn/T//cc06efO3.s 			page 10

