ARM GAS  /var/folders/n6/c271nzx11xl4r4_m7sqjlt0m0000gn/T//ccSf2n8T.s 			page 1


   1              		.cpu cortex-m7
   2              		.arch armv7e-m
   3              		.fpu fpv5-d16
   4              		.eabi_attribute 28, 1
   5              		.eabi_attribute 20, 1
   6              		.eabi_attribute 21, 1
   7              		.eabi_attribute 23, 3
   8              		.eabi_attribute 24, 1
   9              		.eabi_attribute 25, 1
  10              		.eabi_attribute 26, 1
  11              		.eabi_attribute 30, 1
  12              		.eabi_attribute 34, 1
  13              		.eabi_attribute 18, 4
  14              		.file	"arm_rfft_f32.c"
  15              		.text
  16              	.Ltext0:
  17              		.cfi_sections	.debug_frame
  18              		.file 1 "Drivers/CMSIS/DSP/Source/TransformFunctions/arm_rfft_f32.c"
  19              		.section	.text.arm_split_rfft_f32,"ax",%progbits
  20              		.align	1
  21              		.global	arm_split_rfft_f32
  22              		.syntax unified
  23              		.thumb
  24              		.thumb_func
  26              	arm_split_rfft_f32:
  27              	.LVL0:
  28              	.LFB136:
   1:Drivers/CMSIS/DSP/Source/TransformFunctions/arm_rfft_f32.c **** /* ----------------------------------------------------------------------
   2:Drivers/CMSIS/DSP/Source/TransformFunctions/arm_rfft_f32.c ****  * Project:      CMSIS DSP Library
   3:Drivers/CMSIS/DSP/Source/TransformFunctions/arm_rfft_f32.c ****  * Title:        arm_rfft_f32.c
   4:Drivers/CMSIS/DSP/Source/TransformFunctions/arm_rfft_f32.c ****  * Description:  RFFT & RIFFT Floating point process function
   5:Drivers/CMSIS/DSP/Source/TransformFunctions/arm_rfft_f32.c ****  *
   6:Drivers/CMSIS/DSP/Source/TransformFunctions/arm_rfft_f32.c ****  * $Date:        27. January 2017
   7:Drivers/CMSIS/DSP/Source/TransformFunctions/arm_rfft_f32.c ****  * $Revision:    V.1.5.1
   8:Drivers/CMSIS/DSP/Source/TransformFunctions/arm_rfft_f32.c ****  *
   9:Drivers/CMSIS/DSP/Source/TransformFunctions/arm_rfft_f32.c ****  * Target Processor: Cortex-M cores
  10:Drivers/CMSIS/DSP/Source/TransformFunctions/arm_rfft_f32.c ****  * -------------------------------------------------------------------- */
  11:Drivers/CMSIS/DSP/Source/TransformFunctions/arm_rfft_f32.c **** /*
  12:Drivers/CMSIS/DSP/Source/TransformFunctions/arm_rfft_f32.c ****  * Copyright (C) 2010-2017 ARM Limited or its affiliates. All rights reserved.
  13:Drivers/CMSIS/DSP/Source/TransformFunctions/arm_rfft_f32.c ****  *
  14:Drivers/CMSIS/DSP/Source/TransformFunctions/arm_rfft_f32.c ****  * SPDX-License-Identifier: Apache-2.0
  15:Drivers/CMSIS/DSP/Source/TransformFunctions/arm_rfft_f32.c ****  *
  16:Drivers/CMSIS/DSP/Source/TransformFunctions/arm_rfft_f32.c ****  * Licensed under the Apache License, Version 2.0 (the License); you may
  17:Drivers/CMSIS/DSP/Source/TransformFunctions/arm_rfft_f32.c ****  * not use this file except in compliance with the License.
  18:Drivers/CMSIS/DSP/Source/TransformFunctions/arm_rfft_f32.c ****  * You may obtain a copy of the License at
  19:Drivers/CMSIS/DSP/Source/TransformFunctions/arm_rfft_f32.c ****  *
  20:Drivers/CMSIS/DSP/Source/TransformFunctions/arm_rfft_f32.c ****  * www.apache.org/licenses/LICENSE-2.0
  21:Drivers/CMSIS/DSP/Source/TransformFunctions/arm_rfft_f32.c ****  *
  22:Drivers/CMSIS/DSP/Source/TransformFunctions/arm_rfft_f32.c ****  * Unless required by applicable law or agreed to in writing, software
  23:Drivers/CMSIS/DSP/Source/TransformFunctions/arm_rfft_f32.c ****  * distributed under the License is distributed on an AS IS BASIS, WITHOUT
  24:Drivers/CMSIS/DSP/Source/TransformFunctions/arm_rfft_f32.c ****  * WARRANTIES OR CONDITIONS OF ANY KIND, either express or implied.
  25:Drivers/CMSIS/DSP/Source/TransformFunctions/arm_rfft_f32.c ****  * See the License for the specific language governing permissions and
  26:Drivers/CMSIS/DSP/Source/TransformFunctions/arm_rfft_f32.c ****  * limitations under the License.
  27:Drivers/CMSIS/DSP/Source/TransformFunctions/arm_rfft_f32.c ****  */
  28:Drivers/CMSIS/DSP/Source/TransformFunctions/arm_rfft_f32.c **** 
  29:Drivers/CMSIS/DSP/Source/TransformFunctions/arm_rfft_f32.c **** #include "arm_math.h"
  30:Drivers/CMSIS/DSP/Source/TransformFunctions/arm_rfft_f32.c **** 
ARM GAS  /var/folders/n6/c271nzx11xl4r4_m7sqjlt0m0000gn/T//ccSf2n8T.s 			page 2


  31:Drivers/CMSIS/DSP/Source/TransformFunctions/arm_rfft_f32.c **** /* ----------------------------------------------------------------------
  32:Drivers/CMSIS/DSP/Source/TransformFunctions/arm_rfft_f32.c ****  * Internal functions prototypes
  33:Drivers/CMSIS/DSP/Source/TransformFunctions/arm_rfft_f32.c ****  * -------------------------------------------------------------------- */
  34:Drivers/CMSIS/DSP/Source/TransformFunctions/arm_rfft_f32.c **** 
  35:Drivers/CMSIS/DSP/Source/TransformFunctions/arm_rfft_f32.c **** extern void arm_radix4_butterfly_f32(
  36:Drivers/CMSIS/DSP/Source/TransformFunctions/arm_rfft_f32.c ****     float32_t * pSrc,
  37:Drivers/CMSIS/DSP/Source/TransformFunctions/arm_rfft_f32.c ****     uint16_t fftLen,
  38:Drivers/CMSIS/DSP/Source/TransformFunctions/arm_rfft_f32.c ****     float32_t * pCoef,
  39:Drivers/CMSIS/DSP/Source/TransformFunctions/arm_rfft_f32.c ****     uint16_t twidCoefModifier);
  40:Drivers/CMSIS/DSP/Source/TransformFunctions/arm_rfft_f32.c **** 
  41:Drivers/CMSIS/DSP/Source/TransformFunctions/arm_rfft_f32.c **** extern void arm_radix4_butterfly_inverse_f32(
  42:Drivers/CMSIS/DSP/Source/TransformFunctions/arm_rfft_f32.c ****     float32_t * pSrc,
  43:Drivers/CMSIS/DSP/Source/TransformFunctions/arm_rfft_f32.c ****     uint16_t fftLen,
  44:Drivers/CMSIS/DSP/Source/TransformFunctions/arm_rfft_f32.c ****     float32_t * pCoef,
  45:Drivers/CMSIS/DSP/Source/TransformFunctions/arm_rfft_f32.c ****     uint16_t twidCoefModifier,
  46:Drivers/CMSIS/DSP/Source/TransformFunctions/arm_rfft_f32.c ****     float32_t onebyfftLen);
  47:Drivers/CMSIS/DSP/Source/TransformFunctions/arm_rfft_f32.c **** 
  48:Drivers/CMSIS/DSP/Source/TransformFunctions/arm_rfft_f32.c **** extern void arm_bitreversal_f32(
  49:Drivers/CMSIS/DSP/Source/TransformFunctions/arm_rfft_f32.c ****     float32_t * pSrc,
  50:Drivers/CMSIS/DSP/Source/TransformFunctions/arm_rfft_f32.c ****     uint16_t fftSize,
  51:Drivers/CMSIS/DSP/Source/TransformFunctions/arm_rfft_f32.c ****     uint16_t bitRevFactor,
  52:Drivers/CMSIS/DSP/Source/TransformFunctions/arm_rfft_f32.c ****     uint16_t * pBitRevTab);
  53:Drivers/CMSIS/DSP/Source/TransformFunctions/arm_rfft_f32.c **** 
  54:Drivers/CMSIS/DSP/Source/TransformFunctions/arm_rfft_f32.c **** void arm_split_rfft_f32(
  55:Drivers/CMSIS/DSP/Source/TransformFunctions/arm_rfft_f32.c ****   float32_t * pSrc,
  56:Drivers/CMSIS/DSP/Source/TransformFunctions/arm_rfft_f32.c ****   uint32_t fftLen,
  57:Drivers/CMSIS/DSP/Source/TransformFunctions/arm_rfft_f32.c ****   float32_t * pATable,
  58:Drivers/CMSIS/DSP/Source/TransformFunctions/arm_rfft_f32.c ****   float32_t * pBTable,
  59:Drivers/CMSIS/DSP/Source/TransformFunctions/arm_rfft_f32.c ****   float32_t * pDst,
  60:Drivers/CMSIS/DSP/Source/TransformFunctions/arm_rfft_f32.c ****   uint32_t modifier);
  61:Drivers/CMSIS/DSP/Source/TransformFunctions/arm_rfft_f32.c **** 
  62:Drivers/CMSIS/DSP/Source/TransformFunctions/arm_rfft_f32.c **** void arm_split_rifft_f32(
  63:Drivers/CMSIS/DSP/Source/TransformFunctions/arm_rfft_f32.c ****   float32_t * pSrc,
  64:Drivers/CMSIS/DSP/Source/TransformFunctions/arm_rfft_f32.c ****   uint32_t fftLen,
  65:Drivers/CMSIS/DSP/Source/TransformFunctions/arm_rfft_f32.c ****   float32_t * pATable,
  66:Drivers/CMSIS/DSP/Source/TransformFunctions/arm_rfft_f32.c ****   float32_t * pBTable,
  67:Drivers/CMSIS/DSP/Source/TransformFunctions/arm_rfft_f32.c ****   float32_t * pDst,
  68:Drivers/CMSIS/DSP/Source/TransformFunctions/arm_rfft_f32.c ****   uint32_t modifier);
  69:Drivers/CMSIS/DSP/Source/TransformFunctions/arm_rfft_f32.c **** 
  70:Drivers/CMSIS/DSP/Source/TransformFunctions/arm_rfft_f32.c **** /**
  71:Drivers/CMSIS/DSP/Source/TransformFunctions/arm_rfft_f32.c **** * @ingroup groupTransforms
  72:Drivers/CMSIS/DSP/Source/TransformFunctions/arm_rfft_f32.c **** */
  73:Drivers/CMSIS/DSP/Source/TransformFunctions/arm_rfft_f32.c **** 
  74:Drivers/CMSIS/DSP/Source/TransformFunctions/arm_rfft_f32.c **** /**
  75:Drivers/CMSIS/DSP/Source/TransformFunctions/arm_rfft_f32.c ****  * @addtogroup RealFFT
  76:Drivers/CMSIS/DSP/Source/TransformFunctions/arm_rfft_f32.c ****  * @{
  77:Drivers/CMSIS/DSP/Source/TransformFunctions/arm_rfft_f32.c ****  */
  78:Drivers/CMSIS/DSP/Source/TransformFunctions/arm_rfft_f32.c **** 
  79:Drivers/CMSIS/DSP/Source/TransformFunctions/arm_rfft_f32.c **** /**
  80:Drivers/CMSIS/DSP/Source/TransformFunctions/arm_rfft_f32.c ****  * @brief Processing function for the floating-point RFFT/RIFFT.
  81:Drivers/CMSIS/DSP/Source/TransformFunctions/arm_rfft_f32.c ****  * @deprecated Do not use this function.  It has been superceded by \ref arm_rfft_fast_f32 and will
  82:Drivers/CMSIS/DSP/Source/TransformFunctions/arm_rfft_f32.c ****  * in the future.
  83:Drivers/CMSIS/DSP/Source/TransformFunctions/arm_rfft_f32.c ****  * @param[in]  *S    points to an instance of the floating-point RFFT/RIFFT structure.
  84:Drivers/CMSIS/DSP/Source/TransformFunctions/arm_rfft_f32.c ****  * @param[in]  *pSrc points to the input buffer.
  85:Drivers/CMSIS/DSP/Source/TransformFunctions/arm_rfft_f32.c ****  * @param[out] *pDst points to the output buffer.
  86:Drivers/CMSIS/DSP/Source/TransformFunctions/arm_rfft_f32.c ****  * @return none.
  87:Drivers/CMSIS/DSP/Source/TransformFunctions/arm_rfft_f32.c ****  */
ARM GAS  /var/folders/n6/c271nzx11xl4r4_m7sqjlt0m0000gn/T//ccSf2n8T.s 			page 3


  88:Drivers/CMSIS/DSP/Source/TransformFunctions/arm_rfft_f32.c **** 
  89:Drivers/CMSIS/DSP/Source/TransformFunctions/arm_rfft_f32.c **** void arm_rfft_f32(
  90:Drivers/CMSIS/DSP/Source/TransformFunctions/arm_rfft_f32.c ****   const arm_rfft_instance_f32 * S,
  91:Drivers/CMSIS/DSP/Source/TransformFunctions/arm_rfft_f32.c ****   float32_t * pSrc,
  92:Drivers/CMSIS/DSP/Source/TransformFunctions/arm_rfft_f32.c ****   float32_t * pDst)
  93:Drivers/CMSIS/DSP/Source/TransformFunctions/arm_rfft_f32.c **** {
  94:Drivers/CMSIS/DSP/Source/TransformFunctions/arm_rfft_f32.c ****   const arm_cfft_radix4_instance_f32 *S_CFFT = S->pCfft;
  95:Drivers/CMSIS/DSP/Source/TransformFunctions/arm_rfft_f32.c **** 
  96:Drivers/CMSIS/DSP/Source/TransformFunctions/arm_rfft_f32.c **** 
  97:Drivers/CMSIS/DSP/Source/TransformFunctions/arm_rfft_f32.c ****   /* Calculation of Real IFFT of input */
  98:Drivers/CMSIS/DSP/Source/TransformFunctions/arm_rfft_f32.c ****   if (S->ifftFlagR == 1U)
  99:Drivers/CMSIS/DSP/Source/TransformFunctions/arm_rfft_f32.c ****   {
 100:Drivers/CMSIS/DSP/Source/TransformFunctions/arm_rfft_f32.c ****     /*  Real IFFT core process */
 101:Drivers/CMSIS/DSP/Source/TransformFunctions/arm_rfft_f32.c ****     arm_split_rifft_f32(pSrc, S->fftLenBy2, S->pTwiddleAReal,
 102:Drivers/CMSIS/DSP/Source/TransformFunctions/arm_rfft_f32.c ****                         S->pTwiddleBReal, pDst, S->twidCoefRModifier);
 103:Drivers/CMSIS/DSP/Source/TransformFunctions/arm_rfft_f32.c **** 
 104:Drivers/CMSIS/DSP/Source/TransformFunctions/arm_rfft_f32.c **** 
 105:Drivers/CMSIS/DSP/Source/TransformFunctions/arm_rfft_f32.c ****     /* Complex radix-4 IFFT process */
 106:Drivers/CMSIS/DSP/Source/TransformFunctions/arm_rfft_f32.c ****     arm_radix4_butterfly_inverse_f32(pDst, S_CFFT->fftLen,
 107:Drivers/CMSIS/DSP/Source/TransformFunctions/arm_rfft_f32.c ****                                      S_CFFT->pTwiddle,
 108:Drivers/CMSIS/DSP/Source/TransformFunctions/arm_rfft_f32.c ****                                      S_CFFT->twidCoefModifier,
 109:Drivers/CMSIS/DSP/Source/TransformFunctions/arm_rfft_f32.c ****                                      S_CFFT->onebyfftLen);
 110:Drivers/CMSIS/DSP/Source/TransformFunctions/arm_rfft_f32.c **** 
 111:Drivers/CMSIS/DSP/Source/TransformFunctions/arm_rfft_f32.c ****     /* Bit reversal process */
 112:Drivers/CMSIS/DSP/Source/TransformFunctions/arm_rfft_f32.c ****     if (S->bitReverseFlagR == 1U)
 113:Drivers/CMSIS/DSP/Source/TransformFunctions/arm_rfft_f32.c ****     {
 114:Drivers/CMSIS/DSP/Source/TransformFunctions/arm_rfft_f32.c ****       arm_bitreversal_f32(pDst, S_CFFT->fftLen,
 115:Drivers/CMSIS/DSP/Source/TransformFunctions/arm_rfft_f32.c ****                           S_CFFT->bitRevFactor, S_CFFT->pBitRevTable);
 116:Drivers/CMSIS/DSP/Source/TransformFunctions/arm_rfft_f32.c ****     }
 117:Drivers/CMSIS/DSP/Source/TransformFunctions/arm_rfft_f32.c ****   }
 118:Drivers/CMSIS/DSP/Source/TransformFunctions/arm_rfft_f32.c ****   else
 119:Drivers/CMSIS/DSP/Source/TransformFunctions/arm_rfft_f32.c ****   {
 120:Drivers/CMSIS/DSP/Source/TransformFunctions/arm_rfft_f32.c **** 
 121:Drivers/CMSIS/DSP/Source/TransformFunctions/arm_rfft_f32.c ****     /* Calculation of RFFT of input */
 122:Drivers/CMSIS/DSP/Source/TransformFunctions/arm_rfft_f32.c **** 
 123:Drivers/CMSIS/DSP/Source/TransformFunctions/arm_rfft_f32.c ****     /* Complex radix-4 FFT process */
 124:Drivers/CMSIS/DSP/Source/TransformFunctions/arm_rfft_f32.c ****     arm_radix4_butterfly_f32(pSrc, S_CFFT->fftLen,
 125:Drivers/CMSIS/DSP/Source/TransformFunctions/arm_rfft_f32.c ****                              S_CFFT->pTwiddle, S_CFFT->twidCoefModifier);
 126:Drivers/CMSIS/DSP/Source/TransformFunctions/arm_rfft_f32.c **** 
 127:Drivers/CMSIS/DSP/Source/TransformFunctions/arm_rfft_f32.c ****     /* Bit reversal process */
 128:Drivers/CMSIS/DSP/Source/TransformFunctions/arm_rfft_f32.c ****     if (S->bitReverseFlagR == 1U)
 129:Drivers/CMSIS/DSP/Source/TransformFunctions/arm_rfft_f32.c ****     {
 130:Drivers/CMSIS/DSP/Source/TransformFunctions/arm_rfft_f32.c ****       arm_bitreversal_f32(pSrc, S_CFFT->fftLen,
 131:Drivers/CMSIS/DSP/Source/TransformFunctions/arm_rfft_f32.c ****                           S_CFFT->bitRevFactor, S_CFFT->pBitRevTable);
 132:Drivers/CMSIS/DSP/Source/TransformFunctions/arm_rfft_f32.c ****     }
 133:Drivers/CMSIS/DSP/Source/TransformFunctions/arm_rfft_f32.c **** 
 134:Drivers/CMSIS/DSP/Source/TransformFunctions/arm_rfft_f32.c **** 
 135:Drivers/CMSIS/DSP/Source/TransformFunctions/arm_rfft_f32.c ****     /*  Real FFT core process */
 136:Drivers/CMSIS/DSP/Source/TransformFunctions/arm_rfft_f32.c ****     arm_split_rfft_f32(pSrc, S->fftLenBy2, S->pTwiddleAReal,
 137:Drivers/CMSIS/DSP/Source/TransformFunctions/arm_rfft_f32.c ****                        S->pTwiddleBReal, pDst, S->twidCoefRModifier);
 138:Drivers/CMSIS/DSP/Source/TransformFunctions/arm_rfft_f32.c ****   }
 139:Drivers/CMSIS/DSP/Source/TransformFunctions/arm_rfft_f32.c **** 
 140:Drivers/CMSIS/DSP/Source/TransformFunctions/arm_rfft_f32.c **** }
 141:Drivers/CMSIS/DSP/Source/TransformFunctions/arm_rfft_f32.c **** 
 142:Drivers/CMSIS/DSP/Source/TransformFunctions/arm_rfft_f32.c **** /**
 143:Drivers/CMSIS/DSP/Source/TransformFunctions/arm_rfft_f32.c ****    * @} end of RealFFT group
 144:Drivers/CMSIS/DSP/Source/TransformFunctions/arm_rfft_f32.c ****    */
ARM GAS  /var/folders/n6/c271nzx11xl4r4_m7sqjlt0m0000gn/T//ccSf2n8T.s 			page 4


 145:Drivers/CMSIS/DSP/Source/TransformFunctions/arm_rfft_f32.c **** 
 146:Drivers/CMSIS/DSP/Source/TransformFunctions/arm_rfft_f32.c **** /**
 147:Drivers/CMSIS/DSP/Source/TransformFunctions/arm_rfft_f32.c ****  * @brief  Core Real FFT process
 148:Drivers/CMSIS/DSP/Source/TransformFunctions/arm_rfft_f32.c ****  * @param[in]   *pSrc 				points to the input buffer.
 149:Drivers/CMSIS/DSP/Source/TransformFunctions/arm_rfft_f32.c ****  * @param[in]   fftLen  			length of FFT.
 150:Drivers/CMSIS/DSP/Source/TransformFunctions/arm_rfft_f32.c ****  * @param[in]   *pATable 			points to the twiddle Coef A buffer.
 151:Drivers/CMSIS/DSP/Source/TransformFunctions/arm_rfft_f32.c ****  * @param[in]   *pBTable 			points to the twiddle Coef B buffer.
 152:Drivers/CMSIS/DSP/Source/TransformFunctions/arm_rfft_f32.c ****  * @param[out]  *pDst 				points to the output buffer.
 153:Drivers/CMSIS/DSP/Source/TransformFunctions/arm_rfft_f32.c ****  * @param[in]   modifier 	        twiddle coefficient modifier that supports different size FFTs wi
 154:Drivers/CMSIS/DSP/Source/TransformFunctions/arm_rfft_f32.c ****  * @return none.
 155:Drivers/CMSIS/DSP/Source/TransformFunctions/arm_rfft_f32.c ****  */
 156:Drivers/CMSIS/DSP/Source/TransformFunctions/arm_rfft_f32.c **** 
 157:Drivers/CMSIS/DSP/Source/TransformFunctions/arm_rfft_f32.c **** void arm_split_rfft_f32(
 158:Drivers/CMSIS/DSP/Source/TransformFunctions/arm_rfft_f32.c ****   float32_t * pSrc,
 159:Drivers/CMSIS/DSP/Source/TransformFunctions/arm_rfft_f32.c ****   uint32_t fftLen,
 160:Drivers/CMSIS/DSP/Source/TransformFunctions/arm_rfft_f32.c ****   float32_t * pATable,
 161:Drivers/CMSIS/DSP/Source/TransformFunctions/arm_rfft_f32.c ****   float32_t * pBTable,
 162:Drivers/CMSIS/DSP/Source/TransformFunctions/arm_rfft_f32.c ****   float32_t * pDst,
 163:Drivers/CMSIS/DSP/Source/TransformFunctions/arm_rfft_f32.c ****   uint32_t modifier)
 164:Drivers/CMSIS/DSP/Source/TransformFunctions/arm_rfft_f32.c **** {
  29              		.loc 1 164 1 view -0
  30              		.cfi_startproc
  31              		@ args = 8, pretend = 0, frame = 0
  32              		@ frame_needed = 0, uses_anonymous_args = 0
  33              		.loc 1 164 1 is_stmt 0 view .LVU1
  34 0000 2DE9F047 		push	{r4, r5, r6, r7, r8, r9, r10, lr}
  35              		.cfi_def_cfa_offset 32
  36              		.cfi_offset 4, -32
  37              		.cfi_offset 5, -28
  38              		.cfi_offset 6, -24
  39              		.cfi_offset 7, -20
  40              		.cfi_offset 8, -16
  41              		.cfi_offset 9, -12
  42              		.cfi_offset 10, -8
  43              		.cfi_offset 14, -4
  44 0004 DDF82090 		ldr	r9, [sp, #32]
  45 0008 099E     		ldr	r6, [sp, #36]
 165:Drivers/CMSIS/DSP/Source/TransformFunctions/arm_rfft_f32.c ****   uint32_t i;                                    /* Loop Counter */
  46              		.loc 1 165 3 is_stmt 1 view .LVU2
 166:Drivers/CMSIS/DSP/Source/TransformFunctions/arm_rfft_f32.c ****   float32_t outR, outI;                          /* Temporary variables for output */
  47              		.loc 1 166 3 view .LVU3
 167:Drivers/CMSIS/DSP/Source/TransformFunctions/arm_rfft_f32.c ****   float32_t *pCoefA, *pCoefB;                    /* Temporary pointers for twiddle factors */
  48              		.loc 1 167 3 view .LVU4
 168:Drivers/CMSIS/DSP/Source/TransformFunctions/arm_rfft_f32.c ****   float32_t CoefA1, CoefA2, CoefB1;              /* Temporary variables for twiddle coefficients */
  49              		.loc 1 168 3 view .LVU5
 169:Drivers/CMSIS/DSP/Source/TransformFunctions/arm_rfft_f32.c ****   float32_t *pDst1 = &pDst[2], *pDst2 = &pDst[(4U * fftLen) - 1U];      /* temp pointers for output
  50              		.loc 1 169 3 view .LVU6
  51              		.loc 1 169 14 is_stmt 0 view .LVU7
  52 000a 09F1080A 		add	r10, r9, #8
  53              	.LVL1:
  54              		.loc 1 169 46 view .LVU8
  55 000e 0D01     		lsls	r5, r1, #4
  56 0010 043D     		subs	r5, r5, #4
  57              		.loc 1 169 33 view .LVU9
  58 0012 4D44     		add	r5, r5, r9
  59              	.LVL2:
 170:Drivers/CMSIS/DSP/Source/TransformFunctions/arm_rfft_f32.c ****   float32_t *pSrc1 = &pSrc[2], *pSrc2 = &pSrc[(2U * fftLen) - 1U];      /* temp pointers for input 
ARM GAS  /var/folders/n6/c271nzx11xl4r4_m7sqjlt0m0000gn/T//ccSf2n8T.s 			page 5


  60              		.loc 1 170 3 is_stmt 1 view .LVU10
  61              		.loc 1 170 14 is_stmt 0 view .LVU11
  62 0014 00F1080E 		add	lr, r0, #8
  63              	.LVL3:
  64              		.loc 1 170 46 view .LVU12
  65 0018 4FEAC108 		lsl	r8, r1, #3
  66 001c A8F1040C 		sub	ip, r8, #4
  67              		.loc 1 170 33 view .LVU13
  68 0020 8444     		add	ip, ip, r0
  69              	.LVL4:
 171:Drivers/CMSIS/DSP/Source/TransformFunctions/arm_rfft_f32.c **** 
 172:Drivers/CMSIS/DSP/Source/TransformFunctions/arm_rfft_f32.c ****   /* Init coefficient pointers */
 173:Drivers/CMSIS/DSP/Source/TransformFunctions/arm_rfft_f32.c ****   pCoefA = &pATable[modifier * 2U];
  70              		.loc 1 173 3 is_stmt 1 view .LVU14
  71              		.loc 1 173 20 is_stmt 0 view .LVU15
  72 0022 F700     		lsls	r7, r6, #3
  73              		.loc 1 173 10 view .LVU16
  74 0024 02EBC602 		add	r2, r2, r6, lsl #3
  75              	.LVL5:
 174:Drivers/CMSIS/DSP/Source/TransformFunctions/arm_rfft_f32.c ****   pCoefB = &pBTable[modifier * 2U];
  76              		.loc 1 174 3 is_stmt 1 view .LVU17
  77              		.loc 1 174 10 is_stmt 0 view .LVU18
  78 0028 03EBC606 		add	r6, r3, r6, lsl #3
  79              	.LVL6:
 175:Drivers/CMSIS/DSP/Source/TransformFunctions/arm_rfft_f32.c **** 
 176:Drivers/CMSIS/DSP/Source/TransformFunctions/arm_rfft_f32.c ****   i = fftLen - 1U;
  80              		.loc 1 176 3 is_stmt 1 view .LVU19
  81              		.loc 1 176 5 is_stmt 0 view .LVU20
  82 002c 4C1E     		subs	r4, r1, #1
  83              	.LVL7:
 177:Drivers/CMSIS/DSP/Source/TransformFunctions/arm_rfft_f32.c **** 
 178:Drivers/CMSIS/DSP/Source/TransformFunctions/arm_rfft_f32.c ****   while (i > 0U)
  84              		.loc 1 178 3 is_stmt 1 view .LVU21
  85              		.loc 1 178 9 is_stmt 0 view .LVU22
  86 002e 3EE0     		b	.L2
  87              	.LVL8:
  88              	.L3:
 179:Drivers/CMSIS/DSP/Source/TransformFunctions/arm_rfft_f32.c ****   {
 180:Drivers/CMSIS/DSP/Source/TransformFunctions/arm_rfft_f32.c ****     /*
 181:Drivers/CMSIS/DSP/Source/TransformFunctions/arm_rfft_f32.c ****        outR = (pSrc[2 * i] * pATable[2 * i] - pSrc[2 * i + 1] * pATable[2 * i + 1]
 182:Drivers/CMSIS/DSP/Source/TransformFunctions/arm_rfft_f32.c ****        + pSrc[2 * n - 2 * i] * pBTable[2 * i] +
 183:Drivers/CMSIS/DSP/Source/TransformFunctions/arm_rfft_f32.c ****        pSrc[2 * n - 2 * i + 1] * pBTable[2 * i + 1]);
 184:Drivers/CMSIS/DSP/Source/TransformFunctions/arm_rfft_f32.c ****      */
 185:Drivers/CMSIS/DSP/Source/TransformFunctions/arm_rfft_f32.c **** 
 186:Drivers/CMSIS/DSP/Source/TransformFunctions/arm_rfft_f32.c ****     /* outI = (pIn[2 * i + 1] * pATable[2 * i] + pIn[2 * i] * pATable[2 * i + 1] +
 187:Drivers/CMSIS/DSP/Source/TransformFunctions/arm_rfft_f32.c ****        pIn[2 * n - 2 * i] * pBTable[2 * i + 1] -
 188:Drivers/CMSIS/DSP/Source/TransformFunctions/arm_rfft_f32.c ****        pIn[2 * n - 2 * i + 1] * pBTable[2 * i]); */
 189:Drivers/CMSIS/DSP/Source/TransformFunctions/arm_rfft_f32.c **** 
 190:Drivers/CMSIS/DSP/Source/TransformFunctions/arm_rfft_f32.c ****     /* read pATable[2 * i] */
 191:Drivers/CMSIS/DSP/Source/TransformFunctions/arm_rfft_f32.c ****     CoefA1 = *pCoefA++;
  89              		.loc 1 191 5 is_stmt 1 view .LVU23
  90              		.loc 1 191 12 is_stmt 0 view .LVU24
  91 0030 D2ED004A 		vldr.32	s9, [r2]
  92              	.LVL9:
 192:Drivers/CMSIS/DSP/Source/TransformFunctions/arm_rfft_f32.c ****     /* pATable[2 * i + 1] */
 193:Drivers/CMSIS/DSP/Source/TransformFunctions/arm_rfft_f32.c ****     CoefA2 = *pCoefA;
  93              		.loc 1 193 5 is_stmt 1 view .LVU25
ARM GAS  /var/folders/n6/c271nzx11xl4r4_m7sqjlt0m0000gn/T//ccSf2n8T.s 			page 6


  94              		.loc 1 193 12 is_stmt 0 view .LVU26
  95 0034 D2ED016A 		vldr.32	s13, [r2, #4]
  96              	.LVL10:
 194:Drivers/CMSIS/DSP/Source/TransformFunctions/arm_rfft_f32.c **** 
 195:Drivers/CMSIS/DSP/Source/TransformFunctions/arm_rfft_f32.c ****     /* pSrc[2 * i] * pATable[2 * i] */
 196:Drivers/CMSIS/DSP/Source/TransformFunctions/arm_rfft_f32.c ****     outR = *pSrc1 * CoefA1;
  97              		.loc 1 196 5 is_stmt 1 view .LVU27
  98              		.loc 1 196 12 is_stmt 0 view .LVU28
  99 0038 DEED007A 		vldr.32	s15, [lr]
 100              		.loc 1 196 10 view .LVU29
 101 003c 27EEA47A 		vmul.f32	s14, s15, s9
 102              	.LVL11:
 197:Drivers/CMSIS/DSP/Source/TransformFunctions/arm_rfft_f32.c ****     /* pSrc[2 * i] * CoefA2 */
 198:Drivers/CMSIS/DSP/Source/TransformFunctions/arm_rfft_f32.c ****     outI = *pSrc1++ * CoefA2;
 103              		.loc 1 198 5 is_stmt 1 view .LVU30
 104              		.loc 1 198 10 is_stmt 0 view .LVU31
 105 0040 67EEA67A 		vmul.f32	s15, s15, s13
 106              	.LVL12:
 199:Drivers/CMSIS/DSP/Source/TransformFunctions/arm_rfft_f32.c **** 
 200:Drivers/CMSIS/DSP/Source/TransformFunctions/arm_rfft_f32.c ****     /* (pSrc[2 * i + 1] + pSrc[2 * fftLen - 2 * i + 1]) * CoefA2 */
 201:Drivers/CMSIS/DSP/Source/TransformFunctions/arm_rfft_f32.c ****     outR -= (*pSrc1 + *pSrc2) * CoefA2;
 107              		.loc 1 201 5 is_stmt 1 view .LVU32
 108              		.loc 1 201 14 is_stmt 0 view .LVU33
 109 0044 DEED015A 		vldr.32	s11, [lr, #4]
 110              		.loc 1 201 23 view .LVU34
 111 0048 9CED006A 		vldr.32	s12, [ip]
 112              		.loc 1 201 21 view .LVU35
 113 004c 35EE865A 		vadd.f32	s10, s11, s12
 114              		.loc 1 201 31 view .LVU36
 115 0050 25EE265A 		vmul.f32	s10, s10, s13
 116              		.loc 1 201 10 view .LVU37
 117 0054 37EE457A 		vsub.f32	s14, s14, s10
 118              	.LVL13:
 202:Drivers/CMSIS/DSP/Source/TransformFunctions/arm_rfft_f32.c ****     /* pSrc[2 * i + 1] * CoefA1 */
 203:Drivers/CMSIS/DSP/Source/TransformFunctions/arm_rfft_f32.c ****     outI += *pSrc1++ * CoefA1;
 119              		.loc 1 203 5 is_stmt 1 view .LVU38
 120              		.loc 1 203 19 is_stmt 0 view .LVU39
 121 0058 0EF1080E 		add	lr, lr, #8
 122              	.LVL14:
 123              		.loc 1 203 22 view .LVU40
 124 005c 65EEA45A 		vmul.f32	s11, s11, s9
 125              		.loc 1 203 10 view .LVU41
 126 0060 77EEA57A 		vadd.f32	s15, s15, s11
 127              	.LVL15:
 204:Drivers/CMSIS/DSP/Source/TransformFunctions/arm_rfft_f32.c **** 
 205:Drivers/CMSIS/DSP/Source/TransformFunctions/arm_rfft_f32.c ****     CoefB1 = *pCoefB;
 128              		.loc 1 205 5 is_stmt 1 view .LVU42
 129              		.loc 1 205 12 is_stmt 0 view .LVU43
 130 0064 D6ED005A 		vldr.32	s11, [r6]
 131              	.LVL16:
 206:Drivers/CMSIS/DSP/Source/TransformFunctions/arm_rfft_f32.c **** 
 207:Drivers/CMSIS/DSP/Source/TransformFunctions/arm_rfft_f32.c ****     /* pSrc[2 * fftLen - 2 * i + 1] * CoefB1 */
 208:Drivers/CMSIS/DSP/Source/TransformFunctions/arm_rfft_f32.c ****     outI -= *pSrc2-- * CoefB1;
 132              		.loc 1 208 5 is_stmt 1 view .LVU44
 133              		.loc 1 208 22 is_stmt 0 view .LVU45
 134 0068 26EE256A 		vmul.f32	s12, s12, s11
 135              		.loc 1 208 10 view .LVU46
ARM GAS  /var/folders/n6/c271nzx11xl4r4_m7sqjlt0m0000gn/T//ccSf2n8T.s 			page 7


 136 006c 77EEC67A 		vsub.f32	s15, s15, s12
 137              	.LVL17:
 209:Drivers/CMSIS/DSP/Source/TransformFunctions/arm_rfft_f32.c ****     /* pSrc[2 * fftLen - 2 * i] * CoefA2 */
 210:Drivers/CMSIS/DSP/Source/TransformFunctions/arm_rfft_f32.c ****     outI -= *pSrc2 * CoefA2;
 138              		.loc 1 210 5 is_stmt 1 view .LVU47
 139              		.loc 1 210 13 is_stmt 0 view .LVU48
 140 0070 1CED016A 		vldr.32	s12, [ip, #-4]
 141              		.loc 1 210 20 view .LVU49
 142 0074 66EE266A 		vmul.f32	s13, s12, s13
 143              	.LVL18:
 144              		.loc 1 210 10 view .LVU50
 145 0078 77EEE67A 		vsub.f32	s15, s15, s13
 146              	.LVL19:
 211:Drivers/CMSIS/DSP/Source/TransformFunctions/arm_rfft_f32.c **** 
 212:Drivers/CMSIS/DSP/Source/TransformFunctions/arm_rfft_f32.c ****     /* pSrc[2 * fftLen - 2 * i] * CoefB1 */
 213:Drivers/CMSIS/DSP/Source/TransformFunctions/arm_rfft_f32.c ****     outR += *pSrc2-- * CoefB1;
 147              		.loc 1 213 5 is_stmt 1 view .LVU51
 148              		.loc 1 213 19 is_stmt 0 view .LVU52
 149 007c ACF1080C 		sub	ip, ip, #8
 150              	.LVL20:
 151              		.loc 1 213 22 view .LVU53
 152 0080 26EE256A 		vmul.f32	s12, s12, s11
 153              		.loc 1 213 10 view .LVU54
 154 0084 37EE067A 		vadd.f32	s14, s14, s12
 155              	.LVL21:
 214:Drivers/CMSIS/DSP/Source/TransformFunctions/arm_rfft_f32.c **** 
 215:Drivers/CMSIS/DSP/Source/TransformFunctions/arm_rfft_f32.c ****     /* write output */
 216:Drivers/CMSIS/DSP/Source/TransformFunctions/arm_rfft_f32.c ****     *pDst1++ = outR;
 156              		.loc 1 216 5 is_stmt 1 view .LVU55
 157              		.loc 1 216 14 is_stmt 0 view .LVU56
 158 0088 5346     		mov	r3, r10
 159 008a 0833     		adds	r3, r3, #8
 160 008c 8AED007A 		vstr.32	s14, [r10]
 161              	.LVL22:
 217:Drivers/CMSIS/DSP/Source/TransformFunctions/arm_rfft_f32.c ****     *pDst1++ = outI;
 162              		.loc 1 217 5 is_stmt 1 view .LVU57
 163              		.loc 1 217 14 is_stmt 0 view .LVU58
 164 0090 CAED017A 		vstr.32	s15, [r10, #4]
 218:Drivers/CMSIS/DSP/Source/TransformFunctions/arm_rfft_f32.c **** 
 219:Drivers/CMSIS/DSP/Source/TransformFunctions/arm_rfft_f32.c ****     /* write complex conjugate output */
 220:Drivers/CMSIS/DSP/Source/TransformFunctions/arm_rfft_f32.c ****     *pDst2-- = -outI;
 165              		.loc 1 220 5 is_stmt 1 view .LVU59
 166              	.LVL23:
 167              		.loc 1 220 16 is_stmt 0 view .LVU60
 168 0094 F1EE677A 		vneg.f32	s15, s15
 169              	.LVL24:
 170              		.loc 1 220 14 view .LVU61
 171 0098 A5F10801 		sub	r1, r5, #8
 172 009c C5ED007A 		vstr.32	s15, [r5]
 173              	.LVL25:
 221:Drivers/CMSIS/DSP/Source/TransformFunctions/arm_rfft_f32.c ****     *pDst2-- = outR;
 174              		.loc 1 221 5 is_stmt 1 view .LVU62
 175              		.loc 1 221 14 is_stmt 0 view .LVU63
 176 00a0 05ED017A 		vstr.32	s14, [r5, #-4]
 222:Drivers/CMSIS/DSP/Source/TransformFunctions/arm_rfft_f32.c **** 
 223:Drivers/CMSIS/DSP/Source/TransformFunctions/arm_rfft_f32.c ****     /* update coefficient pointer */
 224:Drivers/CMSIS/DSP/Source/TransformFunctions/arm_rfft_f32.c ****     pCoefB = pCoefB + (modifier * 2U);
ARM GAS  /var/folders/n6/c271nzx11xl4r4_m7sqjlt0m0000gn/T//ccSf2n8T.s 			page 8


 177              		.loc 1 224 5 is_stmt 1 view .LVU64
 178              		.loc 1 224 12 is_stmt 0 view .LVU65
 179 00a4 3E44     		add	r6, r6, r7
 180              	.LVL26:
 225:Drivers/CMSIS/DSP/Source/TransformFunctions/arm_rfft_f32.c ****     pCoefA = pCoefA + ((modifier * 2U) - 1U);
 181              		.loc 1 225 5 is_stmt 1 view .LVU66
 182              		.loc 1 225 12 is_stmt 0 view .LVU67
 183 00a6 3A44     		add	r2, r2, r7
 184              	.LVL27:
 226:Drivers/CMSIS/DSP/Source/TransformFunctions/arm_rfft_f32.c **** 
 227:Drivers/CMSIS/DSP/Source/TransformFunctions/arm_rfft_f32.c ****     i--;
 185              		.loc 1 227 5 is_stmt 1 view .LVU68
 186              		.loc 1 227 6 is_stmt 0 view .LVU69
 187 00a8 013C     		subs	r4, r4, #1
 188              	.LVL28:
 221:Drivers/CMSIS/DSP/Source/TransformFunctions/arm_rfft_f32.c **** 
 189              		.loc 1 221 11 view .LVU70
 190 00aa 0D46     		mov	r5, r1
 217:Drivers/CMSIS/DSP/Source/TransformFunctions/arm_rfft_f32.c **** 
 191              		.loc 1 217 11 view .LVU71
 192 00ac 9A46     		mov	r10, r3
 193              	.LVL29:
 194              	.L2:
 178:Drivers/CMSIS/DSP/Source/TransformFunctions/arm_rfft_f32.c ****   {
 195              		.loc 1 178 12 is_stmt 1 view .LVU72
 196 00ae 002C     		cmp	r4, #0
 197 00b0 BED1     		bne	.L3
 228:Drivers/CMSIS/DSP/Source/TransformFunctions/arm_rfft_f32.c **** 
 229:Drivers/CMSIS/DSP/Source/TransformFunctions/arm_rfft_f32.c ****   }
 230:Drivers/CMSIS/DSP/Source/TransformFunctions/arm_rfft_f32.c **** 
 231:Drivers/CMSIS/DSP/Source/TransformFunctions/arm_rfft_f32.c ****   pDst[2U * fftLen] = pSrc[0] - pSrc[1];
 198              		.loc 1 231 3 view .LVU73
 199              		.loc 1 231 27 is_stmt 0 view .LVU74
 200 00b2 D0ED007A 		vldr.32	s15, [r0]
 201              		.loc 1 231 37 view .LVU75
 202 00b6 90ED017A 		vldr.32	s14, [r0, #4]
 203              		.loc 1 231 7 view .LVU76
 204 00ba 09EB0803 		add	r3, r9, r8
 205              		.loc 1 231 31 view .LVU77
 206 00be 77EEC77A 		vsub.f32	s15, s15, s14
 207              		.loc 1 231 21 view .LVU78
 208 00c2 C3ED007A 		vstr.32	s15, [r3]
 232:Drivers/CMSIS/DSP/Source/TransformFunctions/arm_rfft_f32.c ****   pDst[(2U * fftLen) + 1U] = 0.0f;
 209              		.loc 1 232 3 is_stmt 1 view .LVU79
 210              		.loc 1 232 7 is_stmt 0 view .LVU80
 211 00c6 08F10408 		add	r8, r8, #4
 212 00ca C844     		add	r8, r8, r9
 213              		.loc 1 232 28 view .LVU81
 214 00cc 0023     		movs	r3, #0
 215 00ce C8F80030 		str	r3, [r8]	@ float
 233:Drivers/CMSIS/DSP/Source/TransformFunctions/arm_rfft_f32.c **** 
 234:Drivers/CMSIS/DSP/Source/TransformFunctions/arm_rfft_f32.c ****   pDst[0] = pSrc[0] + pSrc[1];
 216              		.loc 1 234 3 is_stmt 1 view .LVU82
 217              		.loc 1 234 17 is_stmt 0 view .LVU83
 218 00d2 D0ED007A 		vldr.32	s15, [r0]
 219              		.loc 1 234 27 view .LVU84
 220 00d6 90ED017A 		vldr.32	s14, [r0, #4]
ARM GAS  /var/folders/n6/c271nzx11xl4r4_m7sqjlt0m0000gn/T//ccSf2n8T.s 			page 9


 221              		.loc 1 234 21 view .LVU85
 222 00da 77EE877A 		vadd.f32	s15, s15, s14
 223              		.loc 1 234 11 view .LVU86
 224 00de C9ED007A 		vstr.32	s15, [r9]
 235:Drivers/CMSIS/DSP/Source/TransformFunctions/arm_rfft_f32.c ****   pDst[1] = 0.0f;
 225              		.loc 1 235 3 is_stmt 1 view .LVU87
 226              		.loc 1 235 11 is_stmt 0 view .LVU88
 227 00e2 C9F80430 		str	r3, [r9, #4]	@ float
 236:Drivers/CMSIS/DSP/Source/TransformFunctions/arm_rfft_f32.c **** 
 237:Drivers/CMSIS/DSP/Source/TransformFunctions/arm_rfft_f32.c **** }
 228              		.loc 1 237 1 view .LVU89
 229 00e6 BDE8F087 		pop	{r4, r5, r6, r7, r8, r9, r10, pc}
 230              		.loc 1 237 1 view .LVU90
 231              		.cfi_endproc
 232              	.LFE136:
 234              		.section	.text.arm_split_rifft_f32,"ax",%progbits
 235              		.align	1
 236              		.global	arm_split_rifft_f32
 237              		.syntax unified
 238              		.thumb
 239              		.thumb_func
 241              	arm_split_rifft_f32:
 242              	.LVL30:
 243              	.LFB137:
 238:Drivers/CMSIS/DSP/Source/TransformFunctions/arm_rfft_f32.c **** 
 239:Drivers/CMSIS/DSP/Source/TransformFunctions/arm_rfft_f32.c **** 
 240:Drivers/CMSIS/DSP/Source/TransformFunctions/arm_rfft_f32.c **** /**
 241:Drivers/CMSIS/DSP/Source/TransformFunctions/arm_rfft_f32.c ****  * @brief  Core Real IFFT process
 242:Drivers/CMSIS/DSP/Source/TransformFunctions/arm_rfft_f32.c ****  * @param[in]   *pSrc 				points to the input buffer.
 243:Drivers/CMSIS/DSP/Source/TransformFunctions/arm_rfft_f32.c ****  * @param[in]   fftLen  			length of FFT.
 244:Drivers/CMSIS/DSP/Source/TransformFunctions/arm_rfft_f32.c ****  * @param[in]   *pATable 			points to the twiddle Coef A buffer.
 245:Drivers/CMSIS/DSP/Source/TransformFunctions/arm_rfft_f32.c ****  * @param[in]   *pBTable 			points to the twiddle Coef B buffer.
 246:Drivers/CMSIS/DSP/Source/TransformFunctions/arm_rfft_f32.c ****  * @param[out]  *pDst 				points to the output buffer.
 247:Drivers/CMSIS/DSP/Source/TransformFunctions/arm_rfft_f32.c ****  * @param[in]   modifier 	        twiddle coefficient modifier that supports different size FFTs wi
 248:Drivers/CMSIS/DSP/Source/TransformFunctions/arm_rfft_f32.c ****  * @return none.
 249:Drivers/CMSIS/DSP/Source/TransformFunctions/arm_rfft_f32.c ****  */
 250:Drivers/CMSIS/DSP/Source/TransformFunctions/arm_rfft_f32.c **** 
 251:Drivers/CMSIS/DSP/Source/TransformFunctions/arm_rfft_f32.c **** void arm_split_rifft_f32(
 252:Drivers/CMSIS/DSP/Source/TransformFunctions/arm_rfft_f32.c ****   float32_t * pSrc,
 253:Drivers/CMSIS/DSP/Source/TransformFunctions/arm_rfft_f32.c ****   uint32_t fftLen,
 254:Drivers/CMSIS/DSP/Source/TransformFunctions/arm_rfft_f32.c ****   float32_t * pATable,
 255:Drivers/CMSIS/DSP/Source/TransformFunctions/arm_rfft_f32.c ****   float32_t * pBTable,
 256:Drivers/CMSIS/DSP/Source/TransformFunctions/arm_rfft_f32.c ****   float32_t * pDst,
 257:Drivers/CMSIS/DSP/Source/TransformFunctions/arm_rfft_f32.c ****   uint32_t modifier)
 258:Drivers/CMSIS/DSP/Source/TransformFunctions/arm_rfft_f32.c **** {
 244              		.loc 1 258 1 is_stmt 1 view -0
 245              		.cfi_startproc
 246              		@ args = 8, pretend = 0, frame = 0
 247              		@ frame_needed = 0, uses_anonymous_args = 0
 248              		.loc 1 258 1 is_stmt 0 view .LVU92
 249 0000 70B5     		push	{r4, r5, r6, lr}
 250              		.cfi_def_cfa_offset 16
 251              		.cfi_offset 4, -16
 252              		.cfi_offset 5, -12
 253              		.cfi_offset 6, -8
 254              		.cfi_offset 14, -4
 255 0002 049C     		ldr	r4, [sp, #16]
ARM GAS  /var/folders/n6/c271nzx11xl4r4_m7sqjlt0m0000gn/T//ccSf2n8T.s 			page 10


 256 0004 059D     		ldr	r5, [sp, #20]
 259:Drivers/CMSIS/DSP/Source/TransformFunctions/arm_rfft_f32.c ****   float32_t outR, outI;                          /* Temporary variables for output */
 257              		.loc 1 259 3 is_stmt 1 view .LVU93
 260:Drivers/CMSIS/DSP/Source/TransformFunctions/arm_rfft_f32.c ****   float32_t *pCoefA, *pCoefB;                    /* Temporary pointers for twiddle factors */
 258              		.loc 1 260 3 view .LVU94
 261:Drivers/CMSIS/DSP/Source/TransformFunctions/arm_rfft_f32.c ****   float32_t CoefA1, CoefA2, CoefB1;              /* Temporary variables for twiddle coefficients */
 259              		.loc 1 261 3 view .LVU95
 262:Drivers/CMSIS/DSP/Source/TransformFunctions/arm_rfft_f32.c ****   float32_t *pSrc1 = &pSrc[0], *pSrc2 = &pSrc[(2U * fftLen) + 1U];
 260              		.loc 1 262 3 view .LVU96
 261              	.LVL31:
 262              		.loc 1 262 46 is_stmt 0 view .LVU97
 263 0006 4FEAC10C 		lsl	ip, r1, #3
 264 000a 0CF1040C 		add	ip, ip, #4
 265              		.loc 1 262 33 view .LVU98
 266 000e 8444     		add	ip, ip, r0
 267              	.LVL32:
 263:Drivers/CMSIS/DSP/Source/TransformFunctions/arm_rfft_f32.c **** 
 264:Drivers/CMSIS/DSP/Source/TransformFunctions/arm_rfft_f32.c ****   pCoefA = &pATable[0];
 268              		.loc 1 264 3 is_stmt 1 view .LVU99
 265:Drivers/CMSIS/DSP/Source/TransformFunctions/arm_rfft_f32.c ****   pCoefB = &pBTable[0];
 269              		.loc 1 265 3 view .LVU100
 266:Drivers/CMSIS/DSP/Source/TransformFunctions/arm_rfft_f32.c **** 
 267:Drivers/CMSIS/DSP/Source/TransformFunctions/arm_rfft_f32.c ****   while (fftLen > 0U)
 270              		.loc 1 267 3 view .LVU101
 271              		.loc 1 267 9 is_stmt 0 view .LVU102
 272 0010 36E0     		b	.L6
 273              	.LVL33:
 274              	.L7:
 268:Drivers/CMSIS/DSP/Source/TransformFunctions/arm_rfft_f32.c ****   {
 269:Drivers/CMSIS/DSP/Source/TransformFunctions/arm_rfft_f32.c ****     /*
 270:Drivers/CMSIS/DSP/Source/TransformFunctions/arm_rfft_f32.c ****        outR = (pIn[2 * i] * pATable[2 * i] + pIn[2 * i + 1] * pATable[2 * i + 1] +
 271:Drivers/CMSIS/DSP/Source/TransformFunctions/arm_rfft_f32.c ****        pIn[2 * n - 2 * i] * pBTable[2 * i] -
 272:Drivers/CMSIS/DSP/Source/TransformFunctions/arm_rfft_f32.c ****        pIn[2 * n - 2 * i + 1] * pBTable[2 * i + 1]);
 273:Drivers/CMSIS/DSP/Source/TransformFunctions/arm_rfft_f32.c **** 
 274:Drivers/CMSIS/DSP/Source/TransformFunctions/arm_rfft_f32.c ****        outI = (pIn[2 * i + 1] * pATable[2 * i] - pIn[2 * i] * pATable[2 * i + 1] -
 275:Drivers/CMSIS/DSP/Source/TransformFunctions/arm_rfft_f32.c ****        pIn[2 * n - 2 * i] * pBTable[2 * i + 1] -
 276:Drivers/CMSIS/DSP/Source/TransformFunctions/arm_rfft_f32.c ****        pIn[2 * n - 2 * i + 1] * pBTable[2 * i]);
 277:Drivers/CMSIS/DSP/Source/TransformFunctions/arm_rfft_f32.c **** 
 278:Drivers/CMSIS/DSP/Source/TransformFunctions/arm_rfft_f32.c ****      */
 279:Drivers/CMSIS/DSP/Source/TransformFunctions/arm_rfft_f32.c **** 
 280:Drivers/CMSIS/DSP/Source/TransformFunctions/arm_rfft_f32.c ****     CoefA1 = *pCoefA++;
 275              		.loc 1 280 5 is_stmt 1 view .LVU103
 276              		.loc 1 280 12 is_stmt 0 view .LVU104
 277 0012 92ED005A 		vldr.32	s10, [r2]
 278              	.LVL34:
 281:Drivers/CMSIS/DSP/Source/TransformFunctions/arm_rfft_f32.c ****     CoefA2 = *pCoefA;
 279              		.loc 1 281 5 is_stmt 1 view .LVU105
 280              		.loc 1 281 12 is_stmt 0 view .LVU106
 281 0016 D2ED015A 		vldr.32	s11, [r2, #4]
 282              	.LVL35:
 282:Drivers/CMSIS/DSP/Source/TransformFunctions/arm_rfft_f32.c **** 
 283:Drivers/CMSIS/DSP/Source/TransformFunctions/arm_rfft_f32.c ****     /* outR = (pSrc[2 * i] * CoefA1 */
 284:Drivers/CMSIS/DSP/Source/TransformFunctions/arm_rfft_f32.c ****     outR = *pSrc1 * CoefA1;
 283              		.loc 1 284 5 is_stmt 1 view .LVU107
 284              		.loc 1 284 12 is_stmt 0 view .LVU108
 285 001a D0ED007A 		vldr.32	s15, [r0]
 286              		.loc 1 284 10 view .LVU109
ARM GAS  /var/folders/n6/c271nzx11xl4r4_m7sqjlt0m0000gn/T//ccSf2n8T.s 			page 11


 287 001e 67EE854A 		vmul.f32	s9, s15, s10
 288              	.LVL36:
 285:Drivers/CMSIS/DSP/Source/TransformFunctions/arm_rfft_f32.c **** 
 286:Drivers/CMSIS/DSP/Source/TransformFunctions/arm_rfft_f32.c ****     /* - pSrc[2 * i] * CoefA2 */
 287:Drivers/CMSIS/DSP/Source/TransformFunctions/arm_rfft_f32.c ****     outI = -(*pSrc1++) * CoefA2;
 289              		.loc 1 287 5 is_stmt 1 view .LVU110
 290              		.loc 1 287 10 is_stmt 0 view .LVU111
 291 0022 67EEE57A 		vnmul.f32	s15, s15, s11
 292              	.LVL37:
 288:Drivers/CMSIS/DSP/Source/TransformFunctions/arm_rfft_f32.c **** 
 289:Drivers/CMSIS/DSP/Source/TransformFunctions/arm_rfft_f32.c ****     /* (pSrc[2 * i + 1] + pSrc[2 * fftLen - 2 * i + 1]) * CoefA2 */
 290:Drivers/CMSIS/DSP/Source/TransformFunctions/arm_rfft_f32.c ****     outR += (*pSrc1 + *pSrc2) * CoefA2;
 293              		.loc 1 290 5 is_stmt 1 view .LVU112
 294              		.loc 1 290 14 is_stmt 0 view .LVU113
 295 0026 90ED017A 		vldr.32	s14, [r0, #4]
 296              		.loc 1 290 23 view .LVU114
 297 002a 9CED006A 		vldr.32	s12, [ip]
 298              		.loc 1 290 21 view .LVU115
 299 002e 77EE066A 		vadd.f32	s13, s14, s12
 300              		.loc 1 290 31 view .LVU116
 301 0032 66EEA56A 		vmul.f32	s13, s13, s11
 302              		.loc 1 290 10 view .LVU117
 303 0036 76EEA46A 		vadd.f32	s13, s13, s9
 304              	.LVL38:
 291:Drivers/CMSIS/DSP/Source/TransformFunctions/arm_rfft_f32.c **** 
 292:Drivers/CMSIS/DSP/Source/TransformFunctions/arm_rfft_f32.c ****     /* pSrc[2 * i + 1] * CoefA1 */
 293:Drivers/CMSIS/DSP/Source/TransformFunctions/arm_rfft_f32.c ****     outI += (*pSrc1++) * CoefA1;
 305              		.loc 1 293 5 is_stmt 1 view .LVU118
 306              		.loc 1 293 20 is_stmt 0 view .LVU119
 307 003a 0830     		adds	r0, r0, #8
 308              	.LVL39:
 309              		.loc 1 293 24 view .LVU120
 310 003c 27EE057A 		vmul.f32	s14, s14, s10
 311              		.loc 1 293 10 view .LVU121
 312 0040 77EE877A 		vadd.f32	s15, s15, s14
 313              	.LVL40:
 294:Drivers/CMSIS/DSP/Source/TransformFunctions/arm_rfft_f32.c **** 
 295:Drivers/CMSIS/DSP/Source/TransformFunctions/arm_rfft_f32.c ****     CoefB1 = *pCoefB;
 314              		.loc 1 295 5 is_stmt 1 view .LVU122
 315              		.loc 1 295 12 is_stmt 0 view .LVU123
 316 0044 93ED007A 		vldr.32	s14, [r3]
 317              	.LVL41:
 296:Drivers/CMSIS/DSP/Source/TransformFunctions/arm_rfft_f32.c **** 
 297:Drivers/CMSIS/DSP/Source/TransformFunctions/arm_rfft_f32.c ****     /* - pSrc[2 * fftLen - 2 * i + 1] * CoefB1 */
 298:Drivers/CMSIS/DSP/Source/TransformFunctions/arm_rfft_f32.c ****     outI -= *pSrc2-- * CoefB1;
 318              		.loc 1 298 5 is_stmt 1 view .LVU124
 319              		.loc 1 298 22 is_stmt 0 view .LVU125
 320 0048 26EE076A 		vmul.f32	s12, s12, s14
 321              		.loc 1 298 10 view .LVU126
 322 004c 77EEC67A 		vsub.f32	s15, s15, s12
 323              	.LVL42:
 299:Drivers/CMSIS/DSP/Source/TransformFunctions/arm_rfft_f32.c **** 
 300:Drivers/CMSIS/DSP/Source/TransformFunctions/arm_rfft_f32.c ****     /* pSrc[2 * fftLen - 2 * i] * CoefB1 */
 301:Drivers/CMSIS/DSP/Source/TransformFunctions/arm_rfft_f32.c ****     outR += *pSrc2 * CoefB1;
 324              		.loc 1 301 5 is_stmt 1 view .LVU127
 325              		.loc 1 301 13 is_stmt 0 view .LVU128
 326 0050 1CED016A 		vldr.32	s12, [ip, #-4]
ARM GAS  /var/folders/n6/c271nzx11xl4r4_m7sqjlt0m0000gn/T//ccSf2n8T.s 			page 12


 327              		.loc 1 301 20 view .LVU129
 328 0054 26EE077A 		vmul.f32	s14, s12, s14
 329              	.LVL43:
 330              		.loc 1 301 10 view .LVU130
 331 0058 37EE267A 		vadd.f32	s14, s14, s13
 332              	.LVL44:
 302:Drivers/CMSIS/DSP/Source/TransformFunctions/arm_rfft_f32.c **** 
 303:Drivers/CMSIS/DSP/Source/TransformFunctions/arm_rfft_f32.c ****     /* pSrc[2 * fftLen - 2 * i] * CoefA2 */
 304:Drivers/CMSIS/DSP/Source/TransformFunctions/arm_rfft_f32.c ****     outI += *pSrc2-- * CoefA2;
 333              		.loc 1 304 5 is_stmt 1 view .LVU131
 334              		.loc 1 304 19 is_stmt 0 view .LVU132
 335 005c ACF1080C 		sub	ip, ip, #8
 336              	.LVL45:
 337              		.loc 1 304 22 view .LVU133
 338 0060 26EE256A 		vmul.f32	s12, s12, s11
 339              		.loc 1 304 10 view .LVU134
 340 0064 77EE867A 		vadd.f32	s15, s15, s12
 341              	.LVL46:
 305:Drivers/CMSIS/DSP/Source/TransformFunctions/arm_rfft_f32.c **** 
 306:Drivers/CMSIS/DSP/Source/TransformFunctions/arm_rfft_f32.c ****     /* write output */
 307:Drivers/CMSIS/DSP/Source/TransformFunctions/arm_rfft_f32.c ****     *pDst++ = outR;
 342              		.loc 1 307 5 is_stmt 1 view .LVU135
 343              		.loc 1 307 13 is_stmt 0 view .LVU136
 344 0068 04F1080E 		add	lr, r4, #8
 345 006c 84ED007A 		vstr.32	s14, [r4]
 346              	.LVL47:
 308:Drivers/CMSIS/DSP/Source/TransformFunctions/arm_rfft_f32.c ****     *pDst++ = outI;
 347              		.loc 1 308 5 is_stmt 1 view .LVU137
 348              		.loc 1 308 13 is_stmt 0 view .LVU138
 349 0070 C4ED017A 		vstr.32	s15, [r4, #4]
 309:Drivers/CMSIS/DSP/Source/TransformFunctions/arm_rfft_f32.c **** 
 310:Drivers/CMSIS/DSP/Source/TransformFunctions/arm_rfft_f32.c ****     /* update coefficient pointer */
 311:Drivers/CMSIS/DSP/Source/TransformFunctions/arm_rfft_f32.c ****     pCoefB = pCoefB + (modifier * 2U);
 350              		.loc 1 311 5 is_stmt 1 view .LVU139
 351              		.loc 1 311 12 is_stmt 0 view .LVU140
 352 0074 03EBC503 		add	r3, r3, r5, lsl #3
 353              	.LVL48:
 312:Drivers/CMSIS/DSP/Source/TransformFunctions/arm_rfft_f32.c ****     pCoefA = pCoefA + ((modifier * 2U) - 1U);
 354              		.loc 1 312 5 is_stmt 1 view .LVU141
 355              		.loc 1 312 12 is_stmt 0 view .LVU142
 356 0078 02EBC502 		add	r2, r2, r5, lsl #3
 357              	.LVL49:
 313:Drivers/CMSIS/DSP/Source/TransformFunctions/arm_rfft_f32.c **** 
 314:Drivers/CMSIS/DSP/Source/TransformFunctions/arm_rfft_f32.c ****     /* Decrement loop count */
 315:Drivers/CMSIS/DSP/Source/TransformFunctions/arm_rfft_f32.c ****     fftLen--;
 358              		.loc 1 315 5 is_stmt 1 view .LVU143
 359              		.loc 1 315 11 is_stmt 0 view .LVU144
 360 007c 0139     		subs	r1, r1, #1
 361              	.LVL50:
 308:Drivers/CMSIS/DSP/Source/TransformFunctions/arm_rfft_f32.c **** 
 362              		.loc 1 308 10 view .LVU145
 363 007e 7446     		mov	r4, lr
 364              	.LVL51:
 365              	.L6:
 267:Drivers/CMSIS/DSP/Source/TransformFunctions/arm_rfft_f32.c ****   {
 366              		.loc 1 267 17 is_stmt 1 view .LVU146
 367 0080 0029     		cmp	r1, #0
ARM GAS  /var/folders/n6/c271nzx11xl4r4_m7sqjlt0m0000gn/T//ccSf2n8T.s 			page 13


 368 0082 C6D1     		bne	.L7
 316:Drivers/CMSIS/DSP/Source/TransformFunctions/arm_rfft_f32.c ****   }
 317:Drivers/CMSIS/DSP/Source/TransformFunctions/arm_rfft_f32.c **** 
 318:Drivers/CMSIS/DSP/Source/TransformFunctions/arm_rfft_f32.c **** }
 369              		.loc 1 318 1 is_stmt 0 view .LVU147
 370 0084 70BD     		pop	{r4, r5, r6, pc}
 371              		.loc 1 318 1 view .LVU148
 372              		.cfi_endproc
 373              	.LFE137:
 375              		.section	.text.arm_rfft_f32,"ax",%progbits
 376              		.align	1
 377              		.global	arm_rfft_f32
 378              		.syntax unified
 379              		.thumb
 380              		.thumb_func
 382              	arm_rfft_f32:
 383              	.LVL52:
 384              	.LFB135:
  93:Drivers/CMSIS/DSP/Source/TransformFunctions/arm_rfft_f32.c ****   const arm_cfft_radix4_instance_f32 *S_CFFT = S->pCfft;
 385              		.loc 1 93 1 is_stmt 1 view -0
 386              		.cfi_startproc
 387              		@ args = 0, pretend = 0, frame = 0
 388              		@ frame_needed = 0, uses_anonymous_args = 0
  93:Drivers/CMSIS/DSP/Source/TransformFunctions/arm_rfft_f32.c ****   const arm_cfft_radix4_instance_f32 *S_CFFT = S->pCfft;
 389              		.loc 1 93 1 is_stmt 0 view .LVU150
 390 0000 F0B5     		push	{r4, r5, r6, r7, lr}
 391              		.cfi_def_cfa_offset 20
 392              		.cfi_offset 4, -20
 393              		.cfi_offset 5, -16
 394              		.cfi_offset 6, -12
 395              		.cfi_offset 7, -8
 396              		.cfi_offset 14, -4
 397 0002 83B0     		sub	sp, sp, #12
 398              		.cfi_def_cfa_offset 32
 399 0004 0446     		mov	r4, r0
 400 0006 0E46     		mov	r6, r1
 401 0008 1746     		mov	r7, r2
  94:Drivers/CMSIS/DSP/Source/TransformFunctions/arm_rfft_f32.c **** 
 402              		.loc 1 94 3 is_stmt 1 view .LVU151
  94:Drivers/CMSIS/DSP/Source/TransformFunctions/arm_rfft_f32.c **** 
 403              		.loc 1 94 39 is_stmt 0 view .LVU152
 404 000a 4569     		ldr	r5, [r0, #20]
 405              	.LVL53:
  98:Drivers/CMSIS/DSP/Source/TransformFunctions/arm_rfft_f32.c ****   {
 406              		.loc 1 98 3 is_stmt 1 view .LVU153
  98:Drivers/CMSIS/DSP/Source/TransformFunctions/arm_rfft_f32.c ****   {
 407              		.loc 1 98 8 is_stmt 0 view .LVU154
 408 000c 8379     		ldrb	r3, [r0, #6]	@ zero_extendqisi2
  98:Drivers/CMSIS/DSP/Source/TransformFunctions/arm_rfft_f32.c ****   {
 409              		.loc 1 98 6 view .LVU155
 410 000e 012B     		cmp	r3, #1
 411 0010 13D0     		beq	.L14
 124:Drivers/CMSIS/DSP/Source/TransformFunctions/arm_rfft_f32.c ****                              S_CFFT->pTwiddle, S_CFFT->twidCoefModifier);
 412              		.loc 1 124 5 is_stmt 1 view .LVU156
 413 0012 AB89     		ldrh	r3, [r5, #12]
 414 0014 6A68     		ldr	r2, [r5, #4]
 415              	.LVL54:
ARM GAS  /var/folders/n6/c271nzx11xl4r4_m7sqjlt0m0000gn/T//ccSf2n8T.s 			page 14


 124:Drivers/CMSIS/DSP/Source/TransformFunctions/arm_rfft_f32.c ****                              S_CFFT->pTwiddle, S_CFFT->twidCoefModifier);
 416              		.loc 1 124 5 is_stmt 0 view .LVU157
 417 0016 2988     		ldrh	r1, [r5]
 418              	.LVL55:
 124:Drivers/CMSIS/DSP/Source/TransformFunctions/arm_rfft_f32.c ****                              S_CFFT->pTwiddle, S_CFFT->twidCoefModifier);
 419              		.loc 1 124 5 view .LVU158
 420 0018 3046     		mov	r0, r6
 421              	.LVL56:
 124:Drivers/CMSIS/DSP/Source/TransformFunctions/arm_rfft_f32.c ****                              S_CFFT->pTwiddle, S_CFFT->twidCoefModifier);
 422              		.loc 1 124 5 view .LVU159
 423 001a FFF7FEFF 		bl	arm_radix4_butterfly_f32
 424              	.LVL57:
 128:Drivers/CMSIS/DSP/Source/TransformFunctions/arm_rfft_f32.c ****     {
 425              		.loc 1 128 5 is_stmt 1 view .LVU160
 128:Drivers/CMSIS/DSP/Source/TransformFunctions/arm_rfft_f32.c ****     {
 426              		.loc 1 128 10 is_stmt 0 view .LVU161
 427 001e E379     		ldrb	r3, [r4, #7]	@ zero_extendqisi2
 128:Drivers/CMSIS/DSP/Source/TransformFunctions/arm_rfft_f32.c ****     {
 428              		.loc 1 128 8 view .LVU162
 429 0020 012B     		cmp	r3, #1
 430 0022 25D0     		beq	.L15
 431              	.L12:
 136:Drivers/CMSIS/DSP/Source/TransformFunctions/arm_rfft_f32.c ****                        S->pTwiddleBReal, pDst, S->twidCoefRModifier);
 432              		.loc 1 136 5 is_stmt 1 view .LVU163
 137:Drivers/CMSIS/DSP/Source/TransformFunctions/arm_rfft_f32.c ****   }
 433              		.loc 1 137 49 is_stmt 0 view .LVU164
 434 0024 A368     		ldr	r3, [r4, #8]
 136:Drivers/CMSIS/DSP/Source/TransformFunctions/arm_rfft_f32.c ****                        S->pTwiddleBReal, pDst, S->twidCoefRModifier);
 435              		.loc 1 136 5 view .LVU165
 436 0026 0193     		str	r3, [sp, #4]
 437 0028 0097     		str	r7, [sp]
 438 002a 2369     		ldr	r3, [r4, #16]
 439 002c E268     		ldr	r2, [r4, #12]
 440 002e A188     		ldrh	r1, [r4, #4]
 441 0030 3046     		mov	r0, r6
 442 0032 FFF7FEFF 		bl	arm_split_rfft_f32
 443              	.LVL58:
 444              	.L9:
 140:Drivers/CMSIS/DSP/Source/TransformFunctions/arm_rfft_f32.c **** 
 445              		.loc 1 140 1 view .LVU166
 446 0036 03B0     		add	sp, sp, #12
 447              		.cfi_remember_state
 448              		.cfi_def_cfa_offset 20
 449              		@ sp needed
 450 0038 F0BD     		pop	{r4, r5, r6, r7, pc}
 451              	.LVL59:
 452              	.L14:
 453              		.cfi_restore_state
 101:Drivers/CMSIS/DSP/Source/TransformFunctions/arm_rfft_f32.c ****                         S->pTwiddleBReal, pDst, S->twidCoefRModifier);
 454              		.loc 1 101 5 is_stmt 1 view .LVU167
 102:Drivers/CMSIS/DSP/Source/TransformFunctions/arm_rfft_f32.c **** 
 455              		.loc 1 102 50 is_stmt 0 view .LVU168
 456 003a 8368     		ldr	r3, [r0, #8]
 101:Drivers/CMSIS/DSP/Source/TransformFunctions/arm_rfft_f32.c ****                         S->pTwiddleBReal, pDst, S->twidCoefRModifier);
 457              		.loc 1 101 5 view .LVU169
 458 003c 0193     		str	r3, [sp, #4]
 459 003e 0092     		str	r2, [sp]
ARM GAS  /var/folders/n6/c271nzx11xl4r4_m7sqjlt0m0000gn/T//ccSf2n8T.s 			page 15


 460 0040 0369     		ldr	r3, [r0, #16]
 461 0042 C268     		ldr	r2, [r0, #12]
 462              	.LVL60:
 101:Drivers/CMSIS/DSP/Source/TransformFunctions/arm_rfft_f32.c ****                         S->pTwiddleBReal, pDst, S->twidCoefRModifier);
 463              		.loc 1 101 5 view .LVU170
 464 0044 8188     		ldrh	r1, [r0, #4]
 465              	.LVL61:
 101:Drivers/CMSIS/DSP/Source/TransformFunctions/arm_rfft_f32.c ****                         S->pTwiddleBReal, pDst, S->twidCoefRModifier);
 466              		.loc 1 101 5 view .LVU171
 467 0046 3046     		mov	r0, r6
 468              	.LVL62:
 101:Drivers/CMSIS/DSP/Source/TransformFunctions/arm_rfft_f32.c ****                         S->pTwiddleBReal, pDst, S->twidCoefRModifier);
 469              		.loc 1 101 5 view .LVU172
 470 0048 FFF7FEFF 		bl	arm_split_rifft_f32
 471              	.LVL63:
 106:Drivers/CMSIS/DSP/Source/TransformFunctions/arm_rfft_f32.c ****                                      S_CFFT->pTwiddle,
 472              		.loc 1 106 5 is_stmt 1 view .LVU173
 473 004c 95ED040A 		vldr.32	s0, [r5, #16]
 474 0050 AB89     		ldrh	r3, [r5, #12]
 475 0052 6A68     		ldr	r2, [r5, #4]
 476 0054 2988     		ldrh	r1, [r5]
 477 0056 3846     		mov	r0, r7
 478 0058 FFF7FEFF 		bl	arm_radix4_butterfly_inverse_f32
 479              	.LVL64:
 112:Drivers/CMSIS/DSP/Source/TransformFunctions/arm_rfft_f32.c ****     {
 480              		.loc 1 112 5 view .LVU174
 112:Drivers/CMSIS/DSP/Source/TransformFunctions/arm_rfft_f32.c ****     {
 481              		.loc 1 112 10 is_stmt 0 view .LVU175
 482 005c E379     		ldrb	r3, [r4, #7]	@ zero_extendqisi2
 112:Drivers/CMSIS/DSP/Source/TransformFunctions/arm_rfft_f32.c ****     {
 483              		.loc 1 112 8 view .LVU176
 484 005e 012B     		cmp	r3, #1
 485 0060 E9D1     		bne	.L9
 114:Drivers/CMSIS/DSP/Source/TransformFunctions/arm_rfft_f32.c ****                           S_CFFT->bitRevFactor, S_CFFT->pBitRevTable);
 486              		.loc 1 114 7 is_stmt 1 view .LVU177
 487 0062 AB68     		ldr	r3, [r5, #8]
 488 0064 EA89     		ldrh	r2, [r5, #14]
 489 0066 2988     		ldrh	r1, [r5]
 490 0068 3846     		mov	r0, r7
 491 006a FFF7FEFF 		bl	arm_bitreversal_f32
 492              	.LVL65:
 493 006e E2E7     		b	.L9
 494              	.L15:
 130:Drivers/CMSIS/DSP/Source/TransformFunctions/arm_rfft_f32.c ****                           S_CFFT->bitRevFactor, S_CFFT->pBitRevTable);
 495              		.loc 1 130 7 view .LVU178
 496 0070 AB68     		ldr	r3, [r5, #8]
 497 0072 EA89     		ldrh	r2, [r5, #14]
 498 0074 2988     		ldrh	r1, [r5]
 499 0076 3046     		mov	r0, r6
 500 0078 FFF7FEFF 		bl	arm_bitreversal_f32
 501              	.LVL66:
 502 007c D2E7     		b	.L12
 503              		.cfi_endproc
 504              	.LFE135:
 506              		.text
 507              	.Letext0:
 508              		.file 2 "/Users/killian/Library/Application Support/Code/User/globalStorage/bmd.stm32-for-vscode/@
ARM GAS  /var/folders/n6/c271nzx11xl4r4_m7sqjlt0m0000gn/T//ccSf2n8T.s 			page 16


 509              		.file 3 "/Users/killian/Library/Application Support/Code/User/globalStorage/bmd.stm32-for-vscode/@
 510              		.file 4 "Drivers/CMSIS/DSP/Include/arm_math.h"
ARM GAS  /var/folders/n6/c271nzx11xl4r4_m7sqjlt0m0000gn/T//ccSf2n8T.s 			page 17

