ARM GAS  /var/folders/n6/c271nzx11xl4r4_m7sqjlt0m0000gn/T//ccF5Ta2u.s 			page 1


   1              		.cpu cortex-m7
   2              		.arch armv7e-m
   3              		.fpu fpv5-d16
   4              		.eabi_attribute 28, 1
   5              		.eabi_attribute 20, 1
   6              		.eabi_attribute 21, 1
   7              		.eabi_attribute 23, 3
   8              		.eabi_attribute 24, 1
   9              		.eabi_attribute 25, 1
  10              		.eabi_attribute 26, 1
  11              		.eabi_attribute 30, 1
  12              		.eabi_attribute 34, 1
  13              		.eabi_attribute 18, 4
  14              		.file	"arm_mult_q7.c"
  15              		.text
  16              	.Ltext0:
  17              		.cfi_sections	.debug_frame
  18              		.file 1 "Drivers/CMSIS/DSP/Source/BasicMathFunctions/arm_mult_q7.c"
  19              		.section	.text.arm_mult_q7,"ax",%progbits
  20              		.align	1
  21              		.global	arm_mult_q7
  22              		.syntax unified
  23              		.thumb
  24              		.thumb_func
  26              	arm_mult_q7:
  27              	.LVL0:
  28              	.LFB135:
   1:Drivers/CMSIS/DSP/Source/BasicMathFunctions/arm_mult_q7.c **** /* ----------------------------------------------------------------------
   2:Drivers/CMSIS/DSP/Source/BasicMathFunctions/arm_mult_q7.c ****  * Project:      CMSIS DSP Library
   3:Drivers/CMSIS/DSP/Source/BasicMathFunctions/arm_mult_q7.c ****  * Title:        arm_mult_q7.c
   4:Drivers/CMSIS/DSP/Source/BasicMathFunctions/arm_mult_q7.c ****  * Description:  Q7 vector multiplication
   5:Drivers/CMSIS/DSP/Source/BasicMathFunctions/arm_mult_q7.c ****  *
   6:Drivers/CMSIS/DSP/Source/BasicMathFunctions/arm_mult_q7.c ****  * $Date:        27. January 2017
   7:Drivers/CMSIS/DSP/Source/BasicMathFunctions/arm_mult_q7.c ****  * $Revision:    V.1.5.1
   8:Drivers/CMSIS/DSP/Source/BasicMathFunctions/arm_mult_q7.c ****  *
   9:Drivers/CMSIS/DSP/Source/BasicMathFunctions/arm_mult_q7.c ****  * Target Processor: Cortex-M cores
  10:Drivers/CMSIS/DSP/Source/BasicMathFunctions/arm_mult_q7.c ****  * -------------------------------------------------------------------- */
  11:Drivers/CMSIS/DSP/Source/BasicMathFunctions/arm_mult_q7.c **** /*
  12:Drivers/CMSIS/DSP/Source/BasicMathFunctions/arm_mult_q7.c ****  * Copyright (C) 2010-2017 ARM Limited or its affiliates. All rights reserved.
  13:Drivers/CMSIS/DSP/Source/BasicMathFunctions/arm_mult_q7.c ****  *
  14:Drivers/CMSIS/DSP/Source/BasicMathFunctions/arm_mult_q7.c ****  * SPDX-License-Identifier: Apache-2.0
  15:Drivers/CMSIS/DSP/Source/BasicMathFunctions/arm_mult_q7.c ****  *
  16:Drivers/CMSIS/DSP/Source/BasicMathFunctions/arm_mult_q7.c ****  * Licensed under the Apache License, Version 2.0 (the License); you may
  17:Drivers/CMSIS/DSP/Source/BasicMathFunctions/arm_mult_q7.c ****  * not use this file except in compliance with the License.
  18:Drivers/CMSIS/DSP/Source/BasicMathFunctions/arm_mult_q7.c ****  * You may obtain a copy of the License at
  19:Drivers/CMSIS/DSP/Source/BasicMathFunctions/arm_mult_q7.c ****  *
  20:Drivers/CMSIS/DSP/Source/BasicMathFunctions/arm_mult_q7.c ****  * www.apache.org/licenses/LICENSE-2.0
  21:Drivers/CMSIS/DSP/Source/BasicMathFunctions/arm_mult_q7.c ****  *
  22:Drivers/CMSIS/DSP/Source/BasicMathFunctions/arm_mult_q7.c ****  * Unless required by applicable law or agreed to in writing, software
  23:Drivers/CMSIS/DSP/Source/BasicMathFunctions/arm_mult_q7.c ****  * distributed under the License is distributed on an AS IS BASIS, WITHOUT
  24:Drivers/CMSIS/DSP/Source/BasicMathFunctions/arm_mult_q7.c ****  * WARRANTIES OR CONDITIONS OF ANY KIND, either express or implied.
  25:Drivers/CMSIS/DSP/Source/BasicMathFunctions/arm_mult_q7.c ****  * See the License for the specific language governing permissions and
  26:Drivers/CMSIS/DSP/Source/BasicMathFunctions/arm_mult_q7.c ****  * limitations under the License.
  27:Drivers/CMSIS/DSP/Source/BasicMathFunctions/arm_mult_q7.c ****  */
  28:Drivers/CMSIS/DSP/Source/BasicMathFunctions/arm_mult_q7.c **** 
  29:Drivers/CMSIS/DSP/Source/BasicMathFunctions/arm_mult_q7.c **** #include "arm_math.h"
  30:Drivers/CMSIS/DSP/Source/BasicMathFunctions/arm_mult_q7.c **** 
ARM GAS  /var/folders/n6/c271nzx11xl4r4_m7sqjlt0m0000gn/T//ccF5Ta2u.s 			page 2


  31:Drivers/CMSIS/DSP/Source/BasicMathFunctions/arm_mult_q7.c **** /**
  32:Drivers/CMSIS/DSP/Source/BasicMathFunctions/arm_mult_q7.c ****  * @ingroup groupMath
  33:Drivers/CMSIS/DSP/Source/BasicMathFunctions/arm_mult_q7.c ****  */
  34:Drivers/CMSIS/DSP/Source/BasicMathFunctions/arm_mult_q7.c **** 
  35:Drivers/CMSIS/DSP/Source/BasicMathFunctions/arm_mult_q7.c **** /**
  36:Drivers/CMSIS/DSP/Source/BasicMathFunctions/arm_mult_q7.c ****  * @addtogroup BasicMult
  37:Drivers/CMSIS/DSP/Source/BasicMathFunctions/arm_mult_q7.c ****  * @{
  38:Drivers/CMSIS/DSP/Source/BasicMathFunctions/arm_mult_q7.c ****  */
  39:Drivers/CMSIS/DSP/Source/BasicMathFunctions/arm_mult_q7.c **** 
  40:Drivers/CMSIS/DSP/Source/BasicMathFunctions/arm_mult_q7.c **** /**
  41:Drivers/CMSIS/DSP/Source/BasicMathFunctions/arm_mult_q7.c ****  * @brief           Q7 vector multiplication
  42:Drivers/CMSIS/DSP/Source/BasicMathFunctions/arm_mult_q7.c ****  * @param[in]       *pSrcA points to the first input vector
  43:Drivers/CMSIS/DSP/Source/BasicMathFunctions/arm_mult_q7.c ****  * @param[in]       *pSrcB points to the second input vector
  44:Drivers/CMSIS/DSP/Source/BasicMathFunctions/arm_mult_q7.c ****  * @param[out]      *pDst points to the output vector
  45:Drivers/CMSIS/DSP/Source/BasicMathFunctions/arm_mult_q7.c ****  * @param[in]       blockSize number of samples in each vector
  46:Drivers/CMSIS/DSP/Source/BasicMathFunctions/arm_mult_q7.c ****  * @return none.
  47:Drivers/CMSIS/DSP/Source/BasicMathFunctions/arm_mult_q7.c ****  *
  48:Drivers/CMSIS/DSP/Source/BasicMathFunctions/arm_mult_q7.c ****  * <b>Scaling and Overflow Behavior:</b>
  49:Drivers/CMSIS/DSP/Source/BasicMathFunctions/arm_mult_q7.c ****  * \par
  50:Drivers/CMSIS/DSP/Source/BasicMathFunctions/arm_mult_q7.c ****  * The function uses saturating arithmetic.
  51:Drivers/CMSIS/DSP/Source/BasicMathFunctions/arm_mult_q7.c ****  * Results outside of the allowable Q7 range [0x80 0x7F] will be saturated.
  52:Drivers/CMSIS/DSP/Source/BasicMathFunctions/arm_mult_q7.c ****  */
  53:Drivers/CMSIS/DSP/Source/BasicMathFunctions/arm_mult_q7.c **** 
  54:Drivers/CMSIS/DSP/Source/BasicMathFunctions/arm_mult_q7.c **** void arm_mult_q7(
  55:Drivers/CMSIS/DSP/Source/BasicMathFunctions/arm_mult_q7.c ****   q7_t * pSrcA,
  56:Drivers/CMSIS/DSP/Source/BasicMathFunctions/arm_mult_q7.c ****   q7_t * pSrcB,
  57:Drivers/CMSIS/DSP/Source/BasicMathFunctions/arm_mult_q7.c ****   q7_t * pDst,
  58:Drivers/CMSIS/DSP/Source/BasicMathFunctions/arm_mult_q7.c ****   uint32_t blockSize)
  59:Drivers/CMSIS/DSP/Source/BasicMathFunctions/arm_mult_q7.c **** {
  29              		.loc 1 59 1 view -0
  30              		.cfi_startproc
  31              		@ args = 0, pretend = 0, frame = 0
  32              		@ frame_needed = 0, uses_anonymous_args = 0
  33              		.loc 1 59 1 is_stmt 0 view .LVU1
  34 0000 F0B5     		push	{r4, r5, r6, r7, lr}
  35              		.cfi_def_cfa_offset 20
  36              		.cfi_offset 4, -20
  37              		.cfi_offset 5, -16
  38              		.cfi_offset 6, -12
  39              		.cfi_offset 7, -8
  40              		.cfi_offset 14, -4
  41 0002 9646     		mov	lr, r2
  60:Drivers/CMSIS/DSP/Source/BasicMathFunctions/arm_mult_q7.c ****   uint32_t blkCnt;                               /* loop counters */
  42              		.loc 1 60 3 is_stmt 1 view .LVU2
  61:Drivers/CMSIS/DSP/Source/BasicMathFunctions/arm_mult_q7.c **** 
  62:Drivers/CMSIS/DSP/Source/BasicMathFunctions/arm_mult_q7.c **** #if defined (ARM_MATH_DSP)
  63:Drivers/CMSIS/DSP/Source/BasicMathFunctions/arm_mult_q7.c **** 
  64:Drivers/CMSIS/DSP/Source/BasicMathFunctions/arm_mult_q7.c **** /* Run the below code for Cortex-M4 and Cortex-M3 */
  65:Drivers/CMSIS/DSP/Source/BasicMathFunctions/arm_mult_q7.c ****   q7_t out1, out2, out3, out4;                   /* Temporary variables to store the product */
  43              		.loc 1 65 3 view .LVU3
  66:Drivers/CMSIS/DSP/Source/BasicMathFunctions/arm_mult_q7.c **** 
  67:Drivers/CMSIS/DSP/Source/BasicMathFunctions/arm_mult_q7.c ****   /* loop Unrolling */
  68:Drivers/CMSIS/DSP/Source/BasicMathFunctions/arm_mult_q7.c ****   blkCnt = blockSize >> 2U;
  44              		.loc 1 68 3 view .LVU4
  45              		.loc 1 68 10 is_stmt 0 view .LVU5
  46 0004 9C08     		lsrs	r4, r3, #2
  47              	.LVL1:
ARM GAS  /var/folders/n6/c271nzx11xl4r4_m7sqjlt0m0000gn/T//ccF5Ta2u.s 			page 3


  69:Drivers/CMSIS/DSP/Source/BasicMathFunctions/arm_mult_q7.c **** 
  70:Drivers/CMSIS/DSP/Source/BasicMathFunctions/arm_mult_q7.c ****   /* First part of the processing with loop unrolling.  Compute 4 outputs at a time.
  71:Drivers/CMSIS/DSP/Source/BasicMathFunctions/arm_mult_q7.c ****    ** a second loop below computes the remaining 1 to 3 samples. */
  72:Drivers/CMSIS/DSP/Source/BasicMathFunctions/arm_mult_q7.c ****   while (blkCnt > 0U)
  48              		.loc 1 72 3 is_stmt 1 view .LVU6
  49              		.loc 1 72 9 is_stmt 0 view .LVU7
  50 0006 3AE0     		b	.L2
  51              	.LVL2:
  52              	.L3:
  73:Drivers/CMSIS/DSP/Source/BasicMathFunctions/arm_mult_q7.c ****   {
  74:Drivers/CMSIS/DSP/Source/BasicMathFunctions/arm_mult_q7.c ****     /* C = A * B */
  75:Drivers/CMSIS/DSP/Source/BasicMathFunctions/arm_mult_q7.c ****     /* Multiply the inputs and store the results in temporary variables */
  76:Drivers/CMSIS/DSP/Source/BasicMathFunctions/arm_mult_q7.c ****     out1 = (q7_t) __SSAT((((q15_t) (*pSrcA++) * (*pSrcB++)) >> 7), 8);
  53              		.loc 1 76 5 is_stmt 1 view .LVU8
  54              	.LBB2:
  55              		.loc 1 76 19 view .LVU9
  56              		.loc 1 76 19 is_stmt 0 view .LVU10
  57 0008 90F90020 		ldrsb	r2, [r0]
  58              	.LVL3:
  59              		.loc 1 76 19 view .LVU11
  60 000c 91F90050 		ldrsb	r5, [r1]
  61 0010 05FB02F2 		mul	r2, r5, r2
  62 0014 D211     		asrs	r2, r2, #7
  63              	.LVL4:
  64              		.loc 1 76 19 is_stmt 1 view .LVU12
  65              		.syntax unified
  66              	@ 76 "Drivers/CMSIS/DSP/Source/BasicMathFunctions/arm_mult_q7.c" 1
  67 0016 02F30702 		ssat r2, #8, r2
  68              	@ 0 "" 2
  69              	.LVL5:
  70              		.loc 1 76 19 view .LVU13
  71              		.loc 1 76 19 is_stmt 0 view .LVU14
  72              		.thumb
  73              		.syntax unified
  74              	.LBE2:
  77:Drivers/CMSIS/DSP/Source/BasicMathFunctions/arm_mult_q7.c ****     out2 = (q7_t) __SSAT((((q15_t) (*pSrcA++) * (*pSrcB++)) >> 7), 8);
  75              		.loc 1 77 5 is_stmt 1 view .LVU15
  76              	.LBB3:
  77              		.loc 1 77 19 view .LVU16
  78              		.loc 1 77 19 is_stmt 0 view .LVU17
  79 001a 90F901C0 		ldrsb	ip, [r0, #1]
  80              	.LVL6:
  81              		.loc 1 77 19 view .LVU18
  82 001e 91F90150 		ldrsb	r5, [r1, #1]
  83              	.LVL7:
  84              		.loc 1 77 19 view .LVU19
  85 0022 05FB0CFC 		mul	ip, r5, ip
  86 0026 4FEAEC1C 		asr	ip, ip, #7
  87              	.LVL8:
  88              		.loc 1 77 19 is_stmt 1 view .LVU20
  89              		.syntax unified
  90              	@ 77 "Drivers/CMSIS/DSP/Source/BasicMathFunctions/arm_mult_q7.c" 1
  91 002a 0CF3070C 		ssat ip, #8, ip
  92              	@ 0 "" 2
  93              	.LVL9:
  94              		.loc 1 77 19 view .LVU21
  95              		.thumb
ARM GAS  /var/folders/n6/c271nzx11xl4r4_m7sqjlt0m0000gn/T//ccF5Ta2u.s 			page 4


  96              		.syntax unified
  97              	.LBE3:
  98              		.loc 1 77 10 is_stmt 0 view .LVU22
  99 002e 4FFA8CF5 		sxtb	r5, ip
 100              	.LVL10:
  78:Drivers/CMSIS/DSP/Source/BasicMathFunctions/arm_mult_q7.c ****     out3 = (q7_t) __SSAT((((q15_t) (*pSrcA++) * (*pSrcB++)) >> 7), 8);
 101              		.loc 1 78 5 is_stmt 1 view .LVU23
 102              	.LBB4:
 103              		.loc 1 78 19 view .LVU24
 104              		.loc 1 78 19 is_stmt 0 view .LVU25
 105 0032 90F902C0 		ldrsb	ip, [r0, #2]
 106              	.LVL11:
 107              		.loc 1 78 19 view .LVU26
 108 0036 91F90260 		ldrsb	r6, [r1, #2]
 109 003a 06FB0CFC 		mul	ip, r6, ip
 110 003e 4FEAEC1C 		asr	ip, ip, #7
 111              	.LVL12:
 112              		.loc 1 78 19 is_stmt 1 view .LVU27
 113              		.syntax unified
 114              	@ 78 "Drivers/CMSIS/DSP/Source/BasicMathFunctions/arm_mult_q7.c" 1
 115 0042 0CF3070C 		ssat ip, #8, ip
 116              	@ 0 "" 2
 117              	.LVL13:
 118              		.loc 1 78 19 view .LVU28
 119              		.thumb
 120              		.syntax unified
 121              	.LBE4:
 122              		.loc 1 78 10 is_stmt 0 view .LVU29
 123 0046 4FFA8CFC 		sxtb	ip, ip
 124              	.LVL14:
  79:Drivers/CMSIS/DSP/Source/BasicMathFunctions/arm_mult_q7.c ****     out4 = (q7_t) __SSAT((((q15_t) (*pSrcA++) * (*pSrcB++)) >> 7), 8);
 125              		.loc 1 79 5 is_stmt 1 view .LVU30
 126              	.LBB5:
 127              		.loc 1 79 19 view .LVU31
 128              		.loc 1 79 19 is_stmt 0 view .LVU32
 129 004a 90F90360 		ldrsb	r6, [r0, #3]
 130              	.LVL15:
 131              		.loc 1 79 19 view .LVU33
 132 004e 91F90370 		ldrsb	r7, [r1, #3]
 133 0052 07FB06F6 		mul	r6, r7, r6
 134 0056 F611     		asrs	r6, r6, #7
 135              	.LVL16:
 136              		.loc 1 79 19 is_stmt 1 view .LVU34
 137              		.syntax unified
 138              	@ 79 "Drivers/CMSIS/DSP/Source/BasicMathFunctions/arm_mult_q7.c" 1
 139 0058 06F30706 		ssat r6, #8, r6
 140              	@ 0 "" 2
 141              	.LVL17:
 142              		.loc 1 79 19 view .LVU35
 143              		.loc 1 79 19 is_stmt 0 view .LVU36
 144              		.thumb
 145              		.syntax unified
 146              	.LBE5:
  80:Drivers/CMSIS/DSP/Source/BasicMathFunctions/arm_mult_q7.c **** 
  81:Drivers/CMSIS/DSP/Source/BasicMathFunctions/arm_mult_q7.c ****     /* Store the results of 4 inputs in the destination buffer in single cycle by packing */
  82:Drivers/CMSIS/DSP/Source/BasicMathFunctions/arm_mult_q7.c ****     *__SIMD32(pDst)++ = __PACKq7(out1, out2, out3, out4);
 147              		.loc 1 82 5 is_stmt 1 view .LVU37
ARM GAS  /var/folders/n6/c271nzx11xl4r4_m7sqjlt0m0000gn/T//ccF5Ta2u.s 			page 5


 148              		.loc 1 82 25 is_stmt 0 view .LVU38
 149 005c D2B2     		uxtb	r2, r2
 150              	.LVL18:
 151              		.loc 1 82 25 view .LVU39
 152 005e 2D02     		lsls	r5, r5, #8
 153              	.LVL19:
 154              		.loc 1 82 25 view .LVU40
 155 0060 ADB2     		uxth	r5, r5
 156 0062 2A43     		orrs	r2, r2, r5
 157              	.LVL20:
 158              		.loc 1 82 25 view .LVU41
 159 0064 4FEA0C4C 		lsl	ip, ip, #16
 160              	.LVL21:
 161              		.loc 1 82 25 view .LVU42
 162 0068 0CF47F0C 		and	ip, ip, #16711680
 163 006c 42EA0C02 		orr	r2, r2, ip
 164              	.LVL22:
 165              		.loc 1 82 25 view .LVU43
 166 0070 42EA0662 		orr	r2, r2, r6, lsl #24
 167              		.loc 1 82 23 view .LVU44
 168 0074 4EF8042B 		str	r2, [lr], #4
 169              	.LVL23:
  83:Drivers/CMSIS/DSP/Source/BasicMathFunctions/arm_mult_q7.c **** 
  84:Drivers/CMSIS/DSP/Source/BasicMathFunctions/arm_mult_q7.c ****     /* Decrement the blockSize loop counter */
  85:Drivers/CMSIS/DSP/Source/BasicMathFunctions/arm_mult_q7.c ****     blkCnt--;
 170              		.loc 1 85 5 is_stmt 1 view .LVU45
 171              		.loc 1 85 11 is_stmt 0 view .LVU46
 172 0078 013C     		subs	r4, r4, #1
 173              	.LVL24:
 174              	.LBB6:
  79:Drivers/CMSIS/DSP/Source/BasicMathFunctions/arm_mult_q7.c **** 
 175              		.loc 1 79 19 view .LVU47
 176 007a 0431     		adds	r1, r1, #4
 177              	.LVL25:
  79:Drivers/CMSIS/DSP/Source/BasicMathFunctions/arm_mult_q7.c **** 
 178              		.loc 1 79 19 view .LVU48
 179 007c 0430     		adds	r0, r0, #4
 180              	.LVL26:
 181              	.L2:
  79:Drivers/CMSIS/DSP/Source/BasicMathFunctions/arm_mult_q7.c **** 
 182              		.loc 1 79 19 view .LVU49
 183              	.LBE6:
  72:Drivers/CMSIS/DSP/Source/BasicMathFunctions/arm_mult_q7.c ****   {
 184              		.loc 1 72 17 is_stmt 1 view .LVU50
 185 007e 002C     		cmp	r4, #0
 186 0080 C2D1     		bne	.L3
  86:Drivers/CMSIS/DSP/Source/BasicMathFunctions/arm_mult_q7.c ****   }
  87:Drivers/CMSIS/DSP/Source/BasicMathFunctions/arm_mult_q7.c **** 
  88:Drivers/CMSIS/DSP/Source/BasicMathFunctions/arm_mult_q7.c ****   /* If the blockSize is not a multiple of 4, compute any remaining output samples here.
  89:Drivers/CMSIS/DSP/Source/BasicMathFunctions/arm_mult_q7.c ****    ** No loop unrolling is used. */
  90:Drivers/CMSIS/DSP/Source/BasicMathFunctions/arm_mult_q7.c ****   blkCnt = blockSize % 0x4U;
 187              		.loc 1 90 3 view .LVU51
 188              		.loc 1 90 10 is_stmt 0 view .LVU52
 189 0082 03F00303 		and	r3, r3, #3
 190              	.LVL27:
  91:Drivers/CMSIS/DSP/Source/BasicMathFunctions/arm_mult_q7.c **** 
  92:Drivers/CMSIS/DSP/Source/BasicMathFunctions/arm_mult_q7.c **** #else
ARM GAS  /var/folders/n6/c271nzx11xl4r4_m7sqjlt0m0000gn/T//ccF5Ta2u.s 			page 6


  93:Drivers/CMSIS/DSP/Source/BasicMathFunctions/arm_mult_q7.c **** 
  94:Drivers/CMSIS/DSP/Source/BasicMathFunctions/arm_mult_q7.c ****   /* Run the below code for Cortex-M0 */
  95:Drivers/CMSIS/DSP/Source/BasicMathFunctions/arm_mult_q7.c **** 
  96:Drivers/CMSIS/DSP/Source/BasicMathFunctions/arm_mult_q7.c ****   /* Initialize blkCnt with number of samples */
  97:Drivers/CMSIS/DSP/Source/BasicMathFunctions/arm_mult_q7.c ****   blkCnt = blockSize;
  98:Drivers/CMSIS/DSP/Source/BasicMathFunctions/arm_mult_q7.c **** 
  99:Drivers/CMSIS/DSP/Source/BasicMathFunctions/arm_mult_q7.c **** #endif /* #if defined (ARM_MATH_DSP) */
 100:Drivers/CMSIS/DSP/Source/BasicMathFunctions/arm_mult_q7.c **** 
 101:Drivers/CMSIS/DSP/Source/BasicMathFunctions/arm_mult_q7.c **** 
 102:Drivers/CMSIS/DSP/Source/BasicMathFunctions/arm_mult_q7.c ****   while (blkCnt > 0U)
 191              		.loc 1 102 3 is_stmt 1 view .LVU53
 192              		.loc 1 102 9 is_stmt 0 view .LVU54
 193 0086 0CE0     		b	.L4
 194              	.L5:
 103:Drivers/CMSIS/DSP/Source/BasicMathFunctions/arm_mult_q7.c ****   {
 104:Drivers/CMSIS/DSP/Source/BasicMathFunctions/arm_mult_q7.c ****     /* C = A * B */
 105:Drivers/CMSIS/DSP/Source/BasicMathFunctions/arm_mult_q7.c ****     /* Multiply the inputs and store the result in the destination buffer */
 106:Drivers/CMSIS/DSP/Source/BasicMathFunctions/arm_mult_q7.c ****     *pDst++ = (q7_t) __SSAT((((q15_t) (*pSrcA++) * (*pSrcB++)) >> 7), 8);
 195              		.loc 1 106 5 is_stmt 1 view .LVU55
 196              	.LBB7:
 197              		.loc 1 106 22 view .LVU56
 198              	.LVL28:
 199              		.loc 1 106 22 is_stmt 0 view .LVU57
 200 0088 10F901CB 		ldrsb	ip, [r0], #1
 201              	.LVL29:
 202              		.loc 1 106 22 view .LVU58
 203 008c 11F9012B 		ldrsb	r2, [r1], #1
 204              	.LVL30:
 205              		.loc 1 106 22 view .LVU59
 206 0090 02FB0CFC 		mul	ip, r2, ip
 207 0094 4FEAEC1C 		asr	ip, ip, #7
 208              	.LVL31:
 209              		.loc 1 106 22 is_stmt 1 view .LVU60
 210              		.syntax unified
 211              	@ 106 "Drivers/CMSIS/DSP/Source/BasicMathFunctions/arm_mult_q7.c" 1
 212 0098 0CF3070C 		ssat ip, #8, ip
 213              	@ 0 "" 2
 214              	.LVL32:
 215              		.loc 1 106 22 view .LVU61
 216              		.loc 1 106 22 is_stmt 0 view .LVU62
 217              		.thumb
 218              		.syntax unified
 219              	.LBE7:
 220              		.loc 1 106 13 view .LVU63
 221 009c 0EF801CB 		strb	ip, [lr], #1
 222              	.LVL33:
 107:Drivers/CMSIS/DSP/Source/BasicMathFunctions/arm_mult_q7.c **** 
 108:Drivers/CMSIS/DSP/Source/BasicMathFunctions/arm_mult_q7.c ****     /* Decrement the blockSize loop counter */
 109:Drivers/CMSIS/DSP/Source/BasicMathFunctions/arm_mult_q7.c ****     blkCnt--;
 223              		.loc 1 109 5 is_stmt 1 view .LVU64
 224              		.loc 1 109 11 is_stmt 0 view .LVU65
 225 00a0 013B     		subs	r3, r3, #1
 226              	.LVL34:
 227              	.L4:
 102:Drivers/CMSIS/DSP/Source/BasicMathFunctions/arm_mult_q7.c ****   {
 228              		.loc 1 102 17 is_stmt 1 view .LVU66
 229 00a2 002B     		cmp	r3, #0
ARM GAS  /var/folders/n6/c271nzx11xl4r4_m7sqjlt0m0000gn/T//ccF5Ta2u.s 			page 7


 230 00a4 F0D1     		bne	.L5
 110:Drivers/CMSIS/DSP/Source/BasicMathFunctions/arm_mult_q7.c ****   }
 111:Drivers/CMSIS/DSP/Source/BasicMathFunctions/arm_mult_q7.c **** }
 231              		.loc 1 111 1 is_stmt 0 view .LVU67
 232 00a6 F0BD     		pop	{r4, r5, r6, r7, pc}
 233              		.cfi_endproc
 234              	.LFE135:
 236              		.text
 237              	.Letext0:
 238              		.file 2 "/Users/killian/Library/Application Support/Code/User/globalStorage/bmd.stm32-for-vscode/@
 239              		.file 3 "/Users/killian/Library/Application Support/Code/User/globalStorage/bmd.stm32-for-vscode/@
 240              		.file 4 "Drivers/CMSIS/DSP/Include/arm_math.h"
ARM GAS  /var/folders/n6/c271nzx11xl4r4_m7sqjlt0m0000gn/T//ccF5Ta2u.s 			page 8

