ARM GAS  /var/folders/n6/c271nzx11xl4r4_m7sqjlt0m0000gn/T//cclrOHrT.s 			page 1


   1              		.cpu cortex-m7
   2              		.arch armv7e-m
   3              		.fpu fpv5-d16
   4              		.eabi_attribute 28, 1
   5              		.eabi_attribute 20, 1
   6              		.eabi_attribute 21, 1
   7              		.eabi_attribute 23, 3
   8              		.eabi_attribute 24, 1
   9              		.eabi_attribute 25, 1
  10              		.eabi_attribute 26, 1
  11              		.eabi_attribute 30, 1
  12              		.eabi_attribute 34, 1
  13              		.eabi_attribute 18, 4
  14              		.file	"arm_cfft_radix2_init_q15.c"
  15              		.text
  16              	.Ltext0:
  17              		.cfi_sections	.debug_frame
  18              		.file 1 "Drivers/CMSIS/DSP/Source/TransformFunctions/arm_cfft_radix2_init_q15.c"
  19              		.section	.text.arm_cfft_radix2_init_q15,"ax",%progbits
  20              		.align	1
  21              		.global	arm_cfft_radix2_init_q15
  22              		.syntax unified
  23              		.thumb
  24              		.thumb_func
  26              	arm_cfft_radix2_init_q15:
  27              	.LVL0:
  28              	.LFB135:
   1:Drivers/CMSIS/DSP/Source/TransformFunctions/arm_cfft_radix2_init_q15.c **** /* ----------------------------------------------------------------------
   2:Drivers/CMSIS/DSP/Source/TransformFunctions/arm_cfft_radix2_init_q15.c ****  * Project:      CMSIS DSP Library
   3:Drivers/CMSIS/DSP/Source/TransformFunctions/arm_cfft_radix2_init_q15.c ****  * Title:        arm_cfft_radix2_init_q15.c
   4:Drivers/CMSIS/DSP/Source/TransformFunctions/arm_cfft_radix2_init_q15.c ****  * Description:  Radix-2 Decimation in Frequency Q15 FFT & IFFT initialization function
   5:Drivers/CMSIS/DSP/Source/TransformFunctions/arm_cfft_radix2_init_q15.c ****  *
   6:Drivers/CMSIS/DSP/Source/TransformFunctions/arm_cfft_radix2_init_q15.c ****  * $Date:        27. January 2017
   7:Drivers/CMSIS/DSP/Source/TransformFunctions/arm_cfft_radix2_init_q15.c ****  * $Revision:    V.1.5.1
   8:Drivers/CMSIS/DSP/Source/TransformFunctions/arm_cfft_radix2_init_q15.c ****  *
   9:Drivers/CMSIS/DSP/Source/TransformFunctions/arm_cfft_radix2_init_q15.c ****  * Target Processor: Cortex-M cores
  10:Drivers/CMSIS/DSP/Source/TransformFunctions/arm_cfft_radix2_init_q15.c ****  * -------------------------------------------------------------------- */
  11:Drivers/CMSIS/DSP/Source/TransformFunctions/arm_cfft_radix2_init_q15.c **** /*
  12:Drivers/CMSIS/DSP/Source/TransformFunctions/arm_cfft_radix2_init_q15.c ****  * Copyright (C) 2010-2017 ARM Limited or its affiliates. All rights reserved.
  13:Drivers/CMSIS/DSP/Source/TransformFunctions/arm_cfft_radix2_init_q15.c ****  *
  14:Drivers/CMSIS/DSP/Source/TransformFunctions/arm_cfft_radix2_init_q15.c ****  * SPDX-License-Identifier: Apache-2.0
  15:Drivers/CMSIS/DSP/Source/TransformFunctions/arm_cfft_radix2_init_q15.c ****  *
  16:Drivers/CMSIS/DSP/Source/TransformFunctions/arm_cfft_radix2_init_q15.c ****  * Licensed under the Apache License, Version 2.0 (the License); you may
  17:Drivers/CMSIS/DSP/Source/TransformFunctions/arm_cfft_radix2_init_q15.c ****  * not use this file except in compliance with the License.
  18:Drivers/CMSIS/DSP/Source/TransformFunctions/arm_cfft_radix2_init_q15.c ****  * You may obtain a copy of the License at
  19:Drivers/CMSIS/DSP/Source/TransformFunctions/arm_cfft_radix2_init_q15.c ****  *
  20:Drivers/CMSIS/DSP/Source/TransformFunctions/arm_cfft_radix2_init_q15.c ****  * www.apache.org/licenses/LICENSE-2.0
  21:Drivers/CMSIS/DSP/Source/TransformFunctions/arm_cfft_radix2_init_q15.c ****  *
  22:Drivers/CMSIS/DSP/Source/TransformFunctions/arm_cfft_radix2_init_q15.c ****  * Unless required by applicable law or agreed to in writing, software
  23:Drivers/CMSIS/DSP/Source/TransformFunctions/arm_cfft_radix2_init_q15.c ****  * distributed under the License is distributed on an AS IS BASIS, WITHOUT
  24:Drivers/CMSIS/DSP/Source/TransformFunctions/arm_cfft_radix2_init_q15.c ****  * WARRANTIES OR CONDITIONS OF ANY KIND, either express or implied.
  25:Drivers/CMSIS/DSP/Source/TransformFunctions/arm_cfft_radix2_init_q15.c ****  * See the License for the specific language governing permissions and
  26:Drivers/CMSIS/DSP/Source/TransformFunctions/arm_cfft_radix2_init_q15.c ****  * limitations under the License.
  27:Drivers/CMSIS/DSP/Source/TransformFunctions/arm_cfft_radix2_init_q15.c ****  */
  28:Drivers/CMSIS/DSP/Source/TransformFunctions/arm_cfft_radix2_init_q15.c **** 
  29:Drivers/CMSIS/DSP/Source/TransformFunctions/arm_cfft_radix2_init_q15.c **** #include "arm_math.h"
  30:Drivers/CMSIS/DSP/Source/TransformFunctions/arm_cfft_radix2_init_q15.c **** #include "arm_common_tables.h"
ARM GAS  /var/folders/n6/c271nzx11xl4r4_m7sqjlt0m0000gn/T//cclrOHrT.s 			page 2


  31:Drivers/CMSIS/DSP/Source/TransformFunctions/arm_cfft_radix2_init_q15.c **** 
  32:Drivers/CMSIS/DSP/Source/TransformFunctions/arm_cfft_radix2_init_q15.c **** /**
  33:Drivers/CMSIS/DSP/Source/TransformFunctions/arm_cfft_radix2_init_q15.c ****  * @ingroup groupTransforms
  34:Drivers/CMSIS/DSP/Source/TransformFunctions/arm_cfft_radix2_init_q15.c ****  */
  35:Drivers/CMSIS/DSP/Source/TransformFunctions/arm_cfft_radix2_init_q15.c **** 
  36:Drivers/CMSIS/DSP/Source/TransformFunctions/arm_cfft_radix2_init_q15.c **** 
  37:Drivers/CMSIS/DSP/Source/TransformFunctions/arm_cfft_radix2_init_q15.c **** /**
  38:Drivers/CMSIS/DSP/Source/TransformFunctions/arm_cfft_radix2_init_q15.c ****  * @addtogroup ComplexFFT
  39:Drivers/CMSIS/DSP/Source/TransformFunctions/arm_cfft_radix2_init_q15.c ****  * @{
  40:Drivers/CMSIS/DSP/Source/TransformFunctions/arm_cfft_radix2_init_q15.c ****  */
  41:Drivers/CMSIS/DSP/Source/TransformFunctions/arm_cfft_radix2_init_q15.c **** 
  42:Drivers/CMSIS/DSP/Source/TransformFunctions/arm_cfft_radix2_init_q15.c **** /**
  43:Drivers/CMSIS/DSP/Source/TransformFunctions/arm_cfft_radix2_init_q15.c **** * @brief Initialization function for the Q15 CFFT/CIFFT.
  44:Drivers/CMSIS/DSP/Source/TransformFunctions/arm_cfft_radix2_init_q15.c **** * @deprecated Do not use this function.  It has been superseded by \ref arm_cfft_q15 and will be re
  45:Drivers/CMSIS/DSP/Source/TransformFunctions/arm_cfft_radix2_init_q15.c **** * @param[in,out] *S             points to an instance of the Q15 CFFT/CIFFT structure.
  46:Drivers/CMSIS/DSP/Source/TransformFunctions/arm_cfft_radix2_init_q15.c **** * @param[in]     fftLen         length of the FFT.
  47:Drivers/CMSIS/DSP/Source/TransformFunctions/arm_cfft_radix2_init_q15.c **** * @param[in]     ifftFlag       flag that selects forward (ifftFlag=0) or inverse (ifftFlag=1) tran
  48:Drivers/CMSIS/DSP/Source/TransformFunctions/arm_cfft_radix2_init_q15.c **** * @param[in]     bitReverseFlag flag that enables (bitReverseFlag=1) or disables (bitReverseFlag=0)
  49:Drivers/CMSIS/DSP/Source/TransformFunctions/arm_cfft_radix2_init_q15.c **** * @return        The function returns ARM_MATH_SUCCESS if initialization is successful or ARM_MATH_
  50:Drivers/CMSIS/DSP/Source/TransformFunctions/arm_cfft_radix2_init_q15.c **** *
  51:Drivers/CMSIS/DSP/Source/TransformFunctions/arm_cfft_radix2_init_q15.c **** * \par Description:
  52:Drivers/CMSIS/DSP/Source/TransformFunctions/arm_cfft_radix2_init_q15.c **** * \par
  53:Drivers/CMSIS/DSP/Source/TransformFunctions/arm_cfft_radix2_init_q15.c **** * The parameter <code>ifftFlag</code> controls whether a forward or inverse transform is computed.
  54:Drivers/CMSIS/DSP/Source/TransformFunctions/arm_cfft_radix2_init_q15.c **** * Set(=1) ifftFlag for calculation of CIFFT otherwise  CFFT is calculated
  55:Drivers/CMSIS/DSP/Source/TransformFunctions/arm_cfft_radix2_init_q15.c **** * \par
  56:Drivers/CMSIS/DSP/Source/TransformFunctions/arm_cfft_radix2_init_q15.c **** * The parameter <code>bitReverseFlag</code> controls whether output is in normal order or bit rever
  57:Drivers/CMSIS/DSP/Source/TransformFunctions/arm_cfft_radix2_init_q15.c **** * Set(=1) bitReverseFlag for output to be in normal order otherwise output is in bit reversed order
  58:Drivers/CMSIS/DSP/Source/TransformFunctions/arm_cfft_radix2_init_q15.c **** * \par
  59:Drivers/CMSIS/DSP/Source/TransformFunctions/arm_cfft_radix2_init_q15.c **** * The parameter <code>fftLen</code>	Specifies length of CFFT/CIFFT process. Supported FFT Lengths a
  60:Drivers/CMSIS/DSP/Source/TransformFunctions/arm_cfft_radix2_init_q15.c **** * \par
  61:Drivers/CMSIS/DSP/Source/TransformFunctions/arm_cfft_radix2_init_q15.c **** * This Function also initializes Twiddle factor table pointer and Bit reversal table pointer.
  62:Drivers/CMSIS/DSP/Source/TransformFunctions/arm_cfft_radix2_init_q15.c **** */
  63:Drivers/CMSIS/DSP/Source/TransformFunctions/arm_cfft_radix2_init_q15.c **** 
  64:Drivers/CMSIS/DSP/Source/TransformFunctions/arm_cfft_radix2_init_q15.c **** arm_status arm_cfft_radix2_init_q15(
  65:Drivers/CMSIS/DSP/Source/TransformFunctions/arm_cfft_radix2_init_q15.c ****   arm_cfft_radix2_instance_q15 * S,
  66:Drivers/CMSIS/DSP/Source/TransformFunctions/arm_cfft_radix2_init_q15.c ****   uint16_t fftLen,
  67:Drivers/CMSIS/DSP/Source/TransformFunctions/arm_cfft_radix2_init_q15.c ****   uint8_t ifftFlag,
  68:Drivers/CMSIS/DSP/Source/TransformFunctions/arm_cfft_radix2_init_q15.c ****   uint8_t bitReverseFlag)
  69:Drivers/CMSIS/DSP/Source/TransformFunctions/arm_cfft_radix2_init_q15.c **** {
  29              		.loc 1 69 1 view -0
  30              		.cfi_startproc
  31              		@ args = 0, pretend = 0, frame = 0
  32              		@ frame_needed = 0, uses_anonymous_args = 0
  33              		@ link register save eliminated.
  34              		.loc 1 69 1 is_stmt 0 view .LVU1
  35 0000 10B4     		push	{r4}
  36              		.cfi_def_cfa_offset 4
  37              		.cfi_offset 4, -4
  70:Drivers/CMSIS/DSP/Source/TransformFunctions/arm_cfft_radix2_init_q15.c ****   /*  Initialise the default arm status */
  71:Drivers/CMSIS/DSP/Source/TransformFunctions/arm_cfft_radix2_init_q15.c ****   arm_status status = ARM_MATH_SUCCESS;
  38              		.loc 1 71 3 is_stmt 1 view .LVU2
  39              	.LVL1:
  72:Drivers/CMSIS/DSP/Source/TransformFunctions/arm_cfft_radix2_init_q15.c **** 
  73:Drivers/CMSIS/DSP/Source/TransformFunctions/arm_cfft_radix2_init_q15.c ****   /*  Initialise the FFT length */
  74:Drivers/CMSIS/DSP/Source/TransformFunctions/arm_cfft_radix2_init_q15.c ****   S->fftLen = fftLen;
  40              		.loc 1 74 3 view .LVU3
  41              		.loc 1 74 13 is_stmt 0 view .LVU4
ARM GAS  /var/folders/n6/c271nzx11xl4r4_m7sqjlt0m0000gn/T//cclrOHrT.s 			page 3


  42 0002 0180     		strh	r1, [r0]	@ movhi
  75:Drivers/CMSIS/DSP/Source/TransformFunctions/arm_cfft_radix2_init_q15.c **** 
  76:Drivers/CMSIS/DSP/Source/TransformFunctions/arm_cfft_radix2_init_q15.c ****   /*  Initialise the Twiddle coefficient pointer */
  77:Drivers/CMSIS/DSP/Source/TransformFunctions/arm_cfft_radix2_init_q15.c ****   S->pTwiddle = (q15_t *) twiddleCoef_4096_q15;
  43              		.loc 1 77 3 is_stmt 1 view .LVU5
  44              		.loc 1 77 15 is_stmt 0 view .LVU6
  45 0004 354C     		ldr	r4, .L20
  46 0006 4460     		str	r4, [r0, #4]
  78:Drivers/CMSIS/DSP/Source/TransformFunctions/arm_cfft_radix2_init_q15.c ****   /*  Initialise the Flag for selection of CFFT or CIFFT */
  79:Drivers/CMSIS/DSP/Source/TransformFunctions/arm_cfft_radix2_init_q15.c ****   S->ifftFlag = ifftFlag;
  47              		.loc 1 79 3 is_stmt 1 view .LVU7
  48              		.loc 1 79 15 is_stmt 0 view .LVU8
  49 0008 8270     		strb	r2, [r0, #2]
  80:Drivers/CMSIS/DSP/Source/TransformFunctions/arm_cfft_radix2_init_q15.c ****   /*  Initialise the Flag for calculation Bit reversal or not */
  81:Drivers/CMSIS/DSP/Source/TransformFunctions/arm_cfft_radix2_init_q15.c ****   S->bitReverseFlag = bitReverseFlag;
  50              		.loc 1 81 3 is_stmt 1 view .LVU9
  51              		.loc 1 81 21 is_stmt 0 view .LVU10
  52 000a C370     		strb	r3, [r0, #3]
  82:Drivers/CMSIS/DSP/Source/TransformFunctions/arm_cfft_radix2_init_q15.c **** 
  83:Drivers/CMSIS/DSP/Source/TransformFunctions/arm_cfft_radix2_init_q15.c ****   /*  Initializations of structure parameters depending on the FFT length */
  84:Drivers/CMSIS/DSP/Source/TransformFunctions/arm_cfft_radix2_init_q15.c ****   switch (S->fftLen)
  53              		.loc 1 84 3 is_stmt 1 view .LVU11
  54 000c B1F5807F 		cmp	r1, #256
  55 0010 4BD0     		beq	.L2
  56 0012 10D9     		bls	.L16
  57 0014 B1F5006F 		cmp	r1, #2048
  58 0018 39D0     		beq	.L10
  59 001a 2CD8     		bhi	.L11
  60 001c B1F5007F 		cmp	r1, #512
  61 0020 3CD0     		beq	.L12
  62 0022 B1F5806F 		cmp	r1, #1024
  63 0026 23D1     		bne	.L17
  85:Drivers/CMSIS/DSP/Source/TransformFunctions/arm_cfft_radix2_init_q15.c ****   {
  86:Drivers/CMSIS/DSP/Source/TransformFunctions/arm_cfft_radix2_init_q15.c ****   case 4096U:
  87:Drivers/CMSIS/DSP/Source/TransformFunctions/arm_cfft_radix2_init_q15.c ****     /*  Initializations of structure parameters for 4096 point FFT */
  88:Drivers/CMSIS/DSP/Source/TransformFunctions/arm_cfft_radix2_init_q15.c **** 
  89:Drivers/CMSIS/DSP/Source/TransformFunctions/arm_cfft_radix2_init_q15.c ****     /*  Initialise the twiddle coef modifier value */
  90:Drivers/CMSIS/DSP/Source/TransformFunctions/arm_cfft_radix2_init_q15.c ****     S->twidCoefModifier = 1U;
  91:Drivers/CMSIS/DSP/Source/TransformFunctions/arm_cfft_radix2_init_q15.c ****     /*  Initialise the bit reversal table modifier */
  92:Drivers/CMSIS/DSP/Source/TransformFunctions/arm_cfft_radix2_init_q15.c ****     S->bitRevFactor = 1U;
  93:Drivers/CMSIS/DSP/Source/TransformFunctions/arm_cfft_radix2_init_q15.c ****     /*  Initialise the bit reversal table pointer */
  94:Drivers/CMSIS/DSP/Source/TransformFunctions/arm_cfft_radix2_init_q15.c ****     S->pBitRevTable = (uint16_t *) armBitRevTable;
  95:Drivers/CMSIS/DSP/Source/TransformFunctions/arm_cfft_radix2_init_q15.c **** 
  96:Drivers/CMSIS/DSP/Source/TransformFunctions/arm_cfft_radix2_init_q15.c ****     break;
  97:Drivers/CMSIS/DSP/Source/TransformFunctions/arm_cfft_radix2_init_q15.c **** 
  98:Drivers/CMSIS/DSP/Source/TransformFunctions/arm_cfft_radix2_init_q15.c ****   case 2048U:
  99:Drivers/CMSIS/DSP/Source/TransformFunctions/arm_cfft_radix2_init_q15.c ****     /*  Initializations of structure parameters for 2048 point FFT */
 100:Drivers/CMSIS/DSP/Source/TransformFunctions/arm_cfft_radix2_init_q15.c **** 
 101:Drivers/CMSIS/DSP/Source/TransformFunctions/arm_cfft_radix2_init_q15.c ****     /*  Initialise the twiddle coef modifier value */
 102:Drivers/CMSIS/DSP/Source/TransformFunctions/arm_cfft_radix2_init_q15.c ****     S->twidCoefModifier = 2U;
 103:Drivers/CMSIS/DSP/Source/TransformFunctions/arm_cfft_radix2_init_q15.c ****     /*  Initialise the bit reversal table modifier */
 104:Drivers/CMSIS/DSP/Source/TransformFunctions/arm_cfft_radix2_init_q15.c ****     S->bitRevFactor = 2U;
 105:Drivers/CMSIS/DSP/Source/TransformFunctions/arm_cfft_radix2_init_q15.c ****     /*  Initialise the bit reversal table pointer */
 106:Drivers/CMSIS/DSP/Source/TransformFunctions/arm_cfft_radix2_init_q15.c ****     S->pBitRevTable = (uint16_t *) & armBitRevTable[1];
 107:Drivers/CMSIS/DSP/Source/TransformFunctions/arm_cfft_radix2_init_q15.c **** 
 108:Drivers/CMSIS/DSP/Source/TransformFunctions/arm_cfft_radix2_init_q15.c ****     break;
 109:Drivers/CMSIS/DSP/Source/TransformFunctions/arm_cfft_radix2_init_q15.c **** 
ARM GAS  /var/folders/n6/c271nzx11xl4r4_m7sqjlt0m0000gn/T//cclrOHrT.s 			page 4


 110:Drivers/CMSIS/DSP/Source/TransformFunctions/arm_cfft_radix2_init_q15.c ****   case 1024U:
 111:Drivers/CMSIS/DSP/Source/TransformFunctions/arm_cfft_radix2_init_q15.c ****     /*  Initializations of structure parameters for 1024 point FFT */
 112:Drivers/CMSIS/DSP/Source/TransformFunctions/arm_cfft_radix2_init_q15.c ****     S->twidCoefModifier = 4U;
  64              		.loc 1 112 5 view .LVU12
  65              		.loc 1 112 25 is_stmt 0 view .LVU13
  66 0028 0423     		movs	r3, #4
  67              	.LVL2:
  68              		.loc 1 112 25 view .LVU14
  69 002a 8381     		strh	r3, [r0, #12]	@ movhi
 113:Drivers/CMSIS/DSP/Source/TransformFunctions/arm_cfft_radix2_init_q15.c ****     S->bitRevFactor = 4U;
  70              		.loc 1 113 5 is_stmt 1 view .LVU15
  71              		.loc 1 113 21 is_stmt 0 view .LVU16
  72 002c C381     		strh	r3, [r0, #14]	@ movhi
 114:Drivers/CMSIS/DSP/Source/TransformFunctions/arm_cfft_radix2_init_q15.c ****     S->pBitRevTable = (uint16_t *) & armBitRevTable[3];
  73              		.loc 1 114 5 is_stmt 1 view .LVU17
  74              		.loc 1 114 21 is_stmt 0 view .LVU18
  75 002e 2C4B     		ldr	r3, .L20+4
  76 0030 8360     		str	r3, [r0, #8]
 115:Drivers/CMSIS/DSP/Source/TransformFunctions/arm_cfft_radix2_init_q15.c **** 
 116:Drivers/CMSIS/DSP/Source/TransformFunctions/arm_cfft_radix2_init_q15.c ****     break;
  77              		.loc 1 116 5 is_stmt 1 view .LVU19
  71:Drivers/CMSIS/DSP/Source/TransformFunctions/arm_cfft_radix2_init_q15.c **** 
  78              		.loc 1 71 14 is_stmt 0 view .LVU20
  79 0032 0020     		movs	r0, #0
  80              	.LVL3:
  81              		.loc 1 116 5 view .LVU21
  82 0034 28E0     		b	.L8
  83              	.LVL4:
  84              	.L16:
  84:Drivers/CMSIS/DSP/Source/TransformFunctions/arm_cfft_radix2_init_q15.c ****   {
  85              		.loc 1 84 3 view .LVU22
  86 0036 4029     		cmp	r1, #64
  87 0038 3ED0     		beq	.L4
  88 003a 0DD8     		bhi	.L5
  89 003c 1029     		cmp	r1, #16
  90 003e 42D0     		beq	.L6
  91 0040 2029     		cmp	r1, #32
  92 0042 06D1     		bne	.L18
 117:Drivers/CMSIS/DSP/Source/TransformFunctions/arm_cfft_radix2_init_q15.c **** 
 118:Drivers/CMSIS/DSP/Source/TransformFunctions/arm_cfft_radix2_init_q15.c ****   case 512U:
 119:Drivers/CMSIS/DSP/Source/TransformFunctions/arm_cfft_radix2_init_q15.c ****     /*  Initializations of structure parameters for 512 point FFT */
 120:Drivers/CMSIS/DSP/Source/TransformFunctions/arm_cfft_radix2_init_q15.c ****     S->twidCoefModifier = 8U;
 121:Drivers/CMSIS/DSP/Source/TransformFunctions/arm_cfft_radix2_init_q15.c ****     S->bitRevFactor = 8U;
 122:Drivers/CMSIS/DSP/Source/TransformFunctions/arm_cfft_radix2_init_q15.c ****     S->pBitRevTable = (uint16_t *) & armBitRevTable[7];
 123:Drivers/CMSIS/DSP/Source/TransformFunctions/arm_cfft_radix2_init_q15.c **** 
 124:Drivers/CMSIS/DSP/Source/TransformFunctions/arm_cfft_radix2_init_q15.c ****     break;
 125:Drivers/CMSIS/DSP/Source/TransformFunctions/arm_cfft_radix2_init_q15.c **** 
 126:Drivers/CMSIS/DSP/Source/TransformFunctions/arm_cfft_radix2_init_q15.c ****   case 256U:
 127:Drivers/CMSIS/DSP/Source/TransformFunctions/arm_cfft_radix2_init_q15.c ****     /*  Initializations of structure parameters for 256 point FFT */
 128:Drivers/CMSIS/DSP/Source/TransformFunctions/arm_cfft_radix2_init_q15.c ****     S->twidCoefModifier = 16U;
 129:Drivers/CMSIS/DSP/Source/TransformFunctions/arm_cfft_radix2_init_q15.c ****     S->bitRevFactor = 16U;
 130:Drivers/CMSIS/DSP/Source/TransformFunctions/arm_cfft_radix2_init_q15.c ****     S->pBitRevTable = (uint16_t *) & armBitRevTable[15];
 131:Drivers/CMSIS/DSP/Source/TransformFunctions/arm_cfft_radix2_init_q15.c **** 
 132:Drivers/CMSIS/DSP/Source/TransformFunctions/arm_cfft_radix2_init_q15.c ****     break;
 133:Drivers/CMSIS/DSP/Source/TransformFunctions/arm_cfft_radix2_init_q15.c **** 
 134:Drivers/CMSIS/DSP/Source/TransformFunctions/arm_cfft_radix2_init_q15.c ****   case 128U:
 135:Drivers/CMSIS/DSP/Source/TransformFunctions/arm_cfft_radix2_init_q15.c ****     /*  Initializations of structure parameters for 128 point FFT */
ARM GAS  /var/folders/n6/c271nzx11xl4r4_m7sqjlt0m0000gn/T//cclrOHrT.s 			page 5


 136:Drivers/CMSIS/DSP/Source/TransformFunctions/arm_cfft_radix2_init_q15.c ****     S->twidCoefModifier = 32U;
 137:Drivers/CMSIS/DSP/Source/TransformFunctions/arm_cfft_radix2_init_q15.c ****     S->bitRevFactor = 32U;
 138:Drivers/CMSIS/DSP/Source/TransformFunctions/arm_cfft_radix2_init_q15.c ****     S->pBitRevTable = (uint16_t *) & armBitRevTable[31];
 139:Drivers/CMSIS/DSP/Source/TransformFunctions/arm_cfft_radix2_init_q15.c **** 
 140:Drivers/CMSIS/DSP/Source/TransformFunctions/arm_cfft_radix2_init_q15.c ****     break;
 141:Drivers/CMSIS/DSP/Source/TransformFunctions/arm_cfft_radix2_init_q15.c **** 
 142:Drivers/CMSIS/DSP/Source/TransformFunctions/arm_cfft_radix2_init_q15.c ****   case 64U:
 143:Drivers/CMSIS/DSP/Source/TransformFunctions/arm_cfft_radix2_init_q15.c ****     /*  Initializations of structure parameters for 64 point FFT */
 144:Drivers/CMSIS/DSP/Source/TransformFunctions/arm_cfft_radix2_init_q15.c ****     S->twidCoefModifier = 64U;
 145:Drivers/CMSIS/DSP/Source/TransformFunctions/arm_cfft_radix2_init_q15.c ****     S->bitRevFactor = 64U;
 146:Drivers/CMSIS/DSP/Source/TransformFunctions/arm_cfft_radix2_init_q15.c ****     S->pBitRevTable = (uint16_t *) & armBitRevTable[63];
 147:Drivers/CMSIS/DSP/Source/TransformFunctions/arm_cfft_radix2_init_q15.c **** 
 148:Drivers/CMSIS/DSP/Source/TransformFunctions/arm_cfft_radix2_init_q15.c ****     break;
 149:Drivers/CMSIS/DSP/Source/TransformFunctions/arm_cfft_radix2_init_q15.c **** 
 150:Drivers/CMSIS/DSP/Source/TransformFunctions/arm_cfft_radix2_init_q15.c ****   case 32U:
 151:Drivers/CMSIS/DSP/Source/TransformFunctions/arm_cfft_radix2_init_q15.c ****     /*  Initializations of structure parameters for 32 point FFT */
 152:Drivers/CMSIS/DSP/Source/TransformFunctions/arm_cfft_radix2_init_q15.c ****     S->twidCoefModifier = 128U;
  93              		.loc 1 152 5 is_stmt 1 view .LVU23
  94              		.loc 1 152 25 is_stmt 0 view .LVU24
  95 0044 8023     		movs	r3, #128
  96              	.LVL5:
  97              		.loc 1 152 25 view .LVU25
  98 0046 8381     		strh	r3, [r0, #12]	@ movhi
 153:Drivers/CMSIS/DSP/Source/TransformFunctions/arm_cfft_radix2_init_q15.c ****     S->bitRevFactor = 128U;
  99              		.loc 1 153 5 is_stmt 1 view .LVU26
 100              		.loc 1 153 21 is_stmt 0 view .LVU27
 101 0048 C381     		strh	r3, [r0, #14]	@ movhi
 154:Drivers/CMSIS/DSP/Source/TransformFunctions/arm_cfft_radix2_init_q15.c ****     S->pBitRevTable = (uint16_t *) & armBitRevTable[127];
 102              		.loc 1 154 5 is_stmt 1 view .LVU28
 103              		.loc 1 154 21 is_stmt 0 view .LVU29
 104 004a 264B     		ldr	r3, .L20+8
 105 004c 8360     		str	r3, [r0, #8]
 155:Drivers/CMSIS/DSP/Source/TransformFunctions/arm_cfft_radix2_init_q15.c **** 
 156:Drivers/CMSIS/DSP/Source/TransformFunctions/arm_cfft_radix2_init_q15.c ****     break;
 106              		.loc 1 156 5 is_stmt 1 view .LVU30
  71:Drivers/CMSIS/DSP/Source/TransformFunctions/arm_cfft_radix2_init_q15.c **** 
 107              		.loc 1 71 14 is_stmt 0 view .LVU31
 108 004e 0020     		movs	r0, #0
 109              	.LVL6:
 110              		.loc 1 156 5 view .LVU32
 111 0050 1AE0     		b	.L8
 112              	.LVL7:
 113              	.L18:
  84:Drivers/CMSIS/DSP/Source/TransformFunctions/arm_cfft_radix2_init_q15.c ****   {
 114              		.loc 1 84 3 view .LVU33
 115 0052 4FF0FF30 		mov	r0, #-1
 116              	.LVL8:
  84:Drivers/CMSIS/DSP/Source/TransformFunctions/arm_cfft_radix2_init_q15.c ****   {
 117              		.loc 1 84 3 view .LVU34
 118 0056 17E0     		b	.L8
 119              	.LVL9:
 120              	.L5:
  84:Drivers/CMSIS/DSP/Source/TransformFunctions/arm_cfft_radix2_init_q15.c ****   {
 121              		.loc 1 84 3 view .LVU35
 122 0058 8029     		cmp	r1, #128
 123 005a 06D1     		bne	.L19
 136:Drivers/CMSIS/DSP/Source/TransformFunctions/arm_cfft_radix2_init_q15.c ****     S->bitRevFactor = 32U;
ARM GAS  /var/folders/n6/c271nzx11xl4r4_m7sqjlt0m0000gn/T//cclrOHrT.s 			page 6


 124              		.loc 1 136 5 is_stmt 1 view .LVU36
 136:Drivers/CMSIS/DSP/Source/TransformFunctions/arm_cfft_radix2_init_q15.c ****     S->bitRevFactor = 32U;
 125              		.loc 1 136 25 is_stmt 0 view .LVU37
 126 005c 2023     		movs	r3, #32
 127              	.LVL10:
 136:Drivers/CMSIS/DSP/Source/TransformFunctions/arm_cfft_radix2_init_q15.c ****     S->bitRevFactor = 32U;
 128              		.loc 1 136 25 view .LVU38
 129 005e 8381     		strh	r3, [r0, #12]	@ movhi
 137:Drivers/CMSIS/DSP/Source/TransformFunctions/arm_cfft_radix2_init_q15.c ****     S->pBitRevTable = (uint16_t *) & armBitRevTable[31];
 130              		.loc 1 137 5 is_stmt 1 view .LVU39
 137:Drivers/CMSIS/DSP/Source/TransformFunctions/arm_cfft_radix2_init_q15.c ****     S->pBitRevTable = (uint16_t *) & armBitRevTable[31];
 131              		.loc 1 137 21 is_stmt 0 view .LVU40
 132 0060 C381     		strh	r3, [r0, #14]	@ movhi
 138:Drivers/CMSIS/DSP/Source/TransformFunctions/arm_cfft_radix2_init_q15.c **** 
 133              		.loc 1 138 5 is_stmt 1 view .LVU41
 138:Drivers/CMSIS/DSP/Source/TransformFunctions/arm_cfft_radix2_init_q15.c **** 
 134              		.loc 1 138 21 is_stmt 0 view .LVU42
 135 0062 214B     		ldr	r3, .L20+12
 136 0064 8360     		str	r3, [r0, #8]
 140:Drivers/CMSIS/DSP/Source/TransformFunctions/arm_cfft_radix2_init_q15.c **** 
 137              		.loc 1 140 5 is_stmt 1 view .LVU43
  71:Drivers/CMSIS/DSP/Source/TransformFunctions/arm_cfft_radix2_init_q15.c **** 
 138              		.loc 1 71 14 is_stmt 0 view .LVU44
 139 0066 0020     		movs	r0, #0
 140              	.LVL11:
 140:Drivers/CMSIS/DSP/Source/TransformFunctions/arm_cfft_radix2_init_q15.c **** 
 141              		.loc 1 140 5 view .LVU45
 142 0068 0EE0     		b	.L8
 143              	.LVL12:
 144              	.L19:
  84:Drivers/CMSIS/DSP/Source/TransformFunctions/arm_cfft_radix2_init_q15.c ****   {
 145              		.loc 1 84 3 view .LVU46
 146 006a 4FF0FF30 		mov	r0, #-1
 147              	.LVL13:
  84:Drivers/CMSIS/DSP/Source/TransformFunctions/arm_cfft_radix2_init_q15.c ****   {
 148              		.loc 1 84 3 view .LVU47
 149 006e 0BE0     		b	.L8
 150              	.LVL14:
 151              	.L17:
  84:Drivers/CMSIS/DSP/Source/TransformFunctions/arm_cfft_radix2_init_q15.c ****   {
 152              		.loc 1 84 3 view .LVU48
 153 0070 4FF0FF30 		mov	r0, #-1
 154              	.LVL15:
  84:Drivers/CMSIS/DSP/Source/TransformFunctions/arm_cfft_radix2_init_q15.c ****   {
 155              		.loc 1 84 3 view .LVU49
 156 0074 08E0     		b	.L8
 157              	.LVL16:
 158              	.L11:
  84:Drivers/CMSIS/DSP/Source/TransformFunctions/arm_cfft_radix2_init_q15.c ****   {
 159              		.loc 1 84 3 view .LVU50
 160 0076 B1F5805F 		cmp	r1, #4096
 161 007a 2CD1     		bne	.L14
  90:Drivers/CMSIS/DSP/Source/TransformFunctions/arm_cfft_radix2_init_q15.c ****     /*  Initialise the bit reversal table modifier */
 162              		.loc 1 90 5 is_stmt 1 view .LVU51
  90:Drivers/CMSIS/DSP/Source/TransformFunctions/arm_cfft_radix2_init_q15.c ****     /*  Initialise the bit reversal table modifier */
 163              		.loc 1 90 25 is_stmt 0 view .LVU52
 164 007c 0123     		movs	r3, #1
ARM GAS  /var/folders/n6/c271nzx11xl4r4_m7sqjlt0m0000gn/T//cclrOHrT.s 			page 7


 165              	.LVL17:
  90:Drivers/CMSIS/DSP/Source/TransformFunctions/arm_cfft_radix2_init_q15.c ****     /*  Initialise the bit reversal table modifier */
 166              		.loc 1 90 25 view .LVU53
 167 007e 8381     		strh	r3, [r0, #12]	@ movhi
  92:Drivers/CMSIS/DSP/Source/TransformFunctions/arm_cfft_radix2_init_q15.c ****     /*  Initialise the bit reversal table pointer */
 168              		.loc 1 92 5 is_stmt 1 view .LVU54
  92:Drivers/CMSIS/DSP/Source/TransformFunctions/arm_cfft_radix2_init_q15.c ****     /*  Initialise the bit reversal table pointer */
 169              		.loc 1 92 21 is_stmt 0 view .LVU55
 170 0080 C381     		strh	r3, [r0, #14]	@ movhi
  94:Drivers/CMSIS/DSP/Source/TransformFunctions/arm_cfft_radix2_init_q15.c **** 
 171              		.loc 1 94 5 is_stmt 1 view .LVU56
  94:Drivers/CMSIS/DSP/Source/TransformFunctions/arm_cfft_radix2_init_q15.c **** 
 172              		.loc 1 94 21 is_stmt 0 view .LVU57
 173 0082 1A4B     		ldr	r3, .L20+16
 174 0084 8360     		str	r3, [r0, #8]
  96:Drivers/CMSIS/DSP/Source/TransformFunctions/arm_cfft_radix2_init_q15.c **** 
 175              		.loc 1 96 5 is_stmt 1 view .LVU58
  71:Drivers/CMSIS/DSP/Source/TransformFunctions/arm_cfft_radix2_init_q15.c **** 
 176              		.loc 1 71 14 is_stmt 0 view .LVU59
 177 0086 0020     		movs	r0, #0
 178              	.LVL18:
 179              	.L8:
 157:Drivers/CMSIS/DSP/Source/TransformFunctions/arm_cfft_radix2_init_q15.c **** 
 158:Drivers/CMSIS/DSP/Source/TransformFunctions/arm_cfft_radix2_init_q15.c ****   case 16U:
 159:Drivers/CMSIS/DSP/Source/TransformFunctions/arm_cfft_radix2_init_q15.c ****     /*  Initializations of structure parameters for 16 point FFT */
 160:Drivers/CMSIS/DSP/Source/TransformFunctions/arm_cfft_radix2_init_q15.c ****     S->twidCoefModifier = 256U;
 161:Drivers/CMSIS/DSP/Source/TransformFunctions/arm_cfft_radix2_init_q15.c ****     S->bitRevFactor = 256U;
 162:Drivers/CMSIS/DSP/Source/TransformFunctions/arm_cfft_radix2_init_q15.c ****     S->pBitRevTable = (uint16_t *) & armBitRevTable[255];
 163:Drivers/CMSIS/DSP/Source/TransformFunctions/arm_cfft_radix2_init_q15.c **** 
 164:Drivers/CMSIS/DSP/Source/TransformFunctions/arm_cfft_radix2_init_q15.c ****     break;
 165:Drivers/CMSIS/DSP/Source/TransformFunctions/arm_cfft_radix2_init_q15.c **** 
 166:Drivers/CMSIS/DSP/Source/TransformFunctions/arm_cfft_radix2_init_q15.c ****   default:
 167:Drivers/CMSIS/DSP/Source/TransformFunctions/arm_cfft_radix2_init_q15.c ****     /*  Reporting argument error if fftSize is not valid value */
 168:Drivers/CMSIS/DSP/Source/TransformFunctions/arm_cfft_radix2_init_q15.c ****     status = ARM_MATH_ARGUMENT_ERROR;
 169:Drivers/CMSIS/DSP/Source/TransformFunctions/arm_cfft_radix2_init_q15.c ****     break;
 170:Drivers/CMSIS/DSP/Source/TransformFunctions/arm_cfft_radix2_init_q15.c ****   }
 171:Drivers/CMSIS/DSP/Source/TransformFunctions/arm_cfft_radix2_init_q15.c **** 
 172:Drivers/CMSIS/DSP/Source/TransformFunctions/arm_cfft_radix2_init_q15.c ****   return (status);
 180              		.loc 1 172 3 is_stmt 1 view .LVU60
 173:Drivers/CMSIS/DSP/Source/TransformFunctions/arm_cfft_radix2_init_q15.c **** }
 181              		.loc 1 173 1 is_stmt 0 view .LVU61
 182 0088 5DF8044B 		ldr	r4, [sp], #4
 183              		.cfi_remember_state
 184              		.cfi_restore 4
 185              		.cfi_def_cfa_offset 0
 186 008c 7047     		bx	lr
 187              	.LVL19:
 188              	.L10:
 189              		.cfi_restore_state
 102:Drivers/CMSIS/DSP/Source/TransformFunctions/arm_cfft_radix2_init_q15.c ****     /*  Initialise the bit reversal table modifier */
 190              		.loc 1 102 5 is_stmt 1 view .LVU62
 102:Drivers/CMSIS/DSP/Source/TransformFunctions/arm_cfft_radix2_init_q15.c ****     /*  Initialise the bit reversal table modifier */
 191              		.loc 1 102 25 is_stmt 0 view .LVU63
 192 008e 0223     		movs	r3, #2
 193              	.LVL20:
 102:Drivers/CMSIS/DSP/Source/TransformFunctions/arm_cfft_radix2_init_q15.c ****     /*  Initialise the bit reversal table modifier */
 194              		.loc 1 102 25 view .LVU64
ARM GAS  /var/folders/n6/c271nzx11xl4r4_m7sqjlt0m0000gn/T//cclrOHrT.s 			page 8


 195 0090 8381     		strh	r3, [r0, #12]	@ movhi
 104:Drivers/CMSIS/DSP/Source/TransformFunctions/arm_cfft_radix2_init_q15.c ****     /*  Initialise the bit reversal table pointer */
 196              		.loc 1 104 5 is_stmt 1 view .LVU65
 104:Drivers/CMSIS/DSP/Source/TransformFunctions/arm_cfft_radix2_init_q15.c ****     /*  Initialise the bit reversal table pointer */
 197              		.loc 1 104 21 is_stmt 0 view .LVU66
 198 0092 C381     		strh	r3, [r0, #14]	@ movhi
 106:Drivers/CMSIS/DSP/Source/TransformFunctions/arm_cfft_radix2_init_q15.c **** 
 199              		.loc 1 106 5 is_stmt 1 view .LVU67
 106:Drivers/CMSIS/DSP/Source/TransformFunctions/arm_cfft_radix2_init_q15.c **** 
 200              		.loc 1 106 21 is_stmt 0 view .LVU68
 201 0094 164B     		ldr	r3, .L20+20
 202 0096 8360     		str	r3, [r0, #8]
 108:Drivers/CMSIS/DSP/Source/TransformFunctions/arm_cfft_radix2_init_q15.c **** 
 203              		.loc 1 108 5 is_stmt 1 view .LVU69
  71:Drivers/CMSIS/DSP/Source/TransformFunctions/arm_cfft_radix2_init_q15.c **** 
 204              		.loc 1 71 14 is_stmt 0 view .LVU70
 205 0098 0020     		movs	r0, #0
 206              	.LVL21:
 108:Drivers/CMSIS/DSP/Source/TransformFunctions/arm_cfft_radix2_init_q15.c **** 
 207              		.loc 1 108 5 view .LVU71
 208 009a F5E7     		b	.L8
 209              	.LVL22:
 210              	.L12:
 120:Drivers/CMSIS/DSP/Source/TransformFunctions/arm_cfft_radix2_init_q15.c ****     S->bitRevFactor = 8U;
 211              		.loc 1 120 5 is_stmt 1 view .LVU72
 120:Drivers/CMSIS/DSP/Source/TransformFunctions/arm_cfft_radix2_init_q15.c ****     S->bitRevFactor = 8U;
 212              		.loc 1 120 25 is_stmt 0 view .LVU73
 213 009c 0823     		movs	r3, #8
 214              	.LVL23:
 120:Drivers/CMSIS/DSP/Source/TransformFunctions/arm_cfft_radix2_init_q15.c ****     S->bitRevFactor = 8U;
 215              		.loc 1 120 25 view .LVU74
 216 009e 8381     		strh	r3, [r0, #12]	@ movhi
 121:Drivers/CMSIS/DSP/Source/TransformFunctions/arm_cfft_radix2_init_q15.c ****     S->pBitRevTable = (uint16_t *) & armBitRevTable[7];
 217              		.loc 1 121 5 is_stmt 1 view .LVU75
 121:Drivers/CMSIS/DSP/Source/TransformFunctions/arm_cfft_radix2_init_q15.c ****     S->pBitRevTable = (uint16_t *) & armBitRevTable[7];
 218              		.loc 1 121 21 is_stmt 0 view .LVU76
 219 00a0 C381     		strh	r3, [r0, #14]	@ movhi
 122:Drivers/CMSIS/DSP/Source/TransformFunctions/arm_cfft_radix2_init_q15.c **** 
 220              		.loc 1 122 5 is_stmt 1 view .LVU77
 122:Drivers/CMSIS/DSP/Source/TransformFunctions/arm_cfft_radix2_init_q15.c **** 
 221              		.loc 1 122 21 is_stmt 0 view .LVU78
 222 00a2 144B     		ldr	r3, .L20+24
 223 00a4 8360     		str	r3, [r0, #8]
 124:Drivers/CMSIS/DSP/Source/TransformFunctions/arm_cfft_radix2_init_q15.c **** 
 224              		.loc 1 124 5 is_stmt 1 view .LVU79
  71:Drivers/CMSIS/DSP/Source/TransformFunctions/arm_cfft_radix2_init_q15.c **** 
 225              		.loc 1 71 14 is_stmt 0 view .LVU80
 226 00a6 0020     		movs	r0, #0
 227              	.LVL24:
 124:Drivers/CMSIS/DSP/Source/TransformFunctions/arm_cfft_radix2_init_q15.c **** 
 228              		.loc 1 124 5 view .LVU81
 229 00a8 EEE7     		b	.L8
 230              	.LVL25:
 231              	.L2:
 128:Drivers/CMSIS/DSP/Source/TransformFunctions/arm_cfft_radix2_init_q15.c ****     S->bitRevFactor = 16U;
 232              		.loc 1 128 5 is_stmt 1 view .LVU82
 128:Drivers/CMSIS/DSP/Source/TransformFunctions/arm_cfft_radix2_init_q15.c ****     S->bitRevFactor = 16U;
ARM GAS  /var/folders/n6/c271nzx11xl4r4_m7sqjlt0m0000gn/T//cclrOHrT.s 			page 9


 233              		.loc 1 128 25 is_stmt 0 view .LVU83
 234 00aa 1023     		movs	r3, #16
 235              	.LVL26:
 128:Drivers/CMSIS/DSP/Source/TransformFunctions/arm_cfft_radix2_init_q15.c ****     S->bitRevFactor = 16U;
 236              		.loc 1 128 25 view .LVU84
 237 00ac 8381     		strh	r3, [r0, #12]	@ movhi
 129:Drivers/CMSIS/DSP/Source/TransformFunctions/arm_cfft_radix2_init_q15.c ****     S->pBitRevTable = (uint16_t *) & armBitRevTable[15];
 238              		.loc 1 129 5 is_stmt 1 view .LVU85
 129:Drivers/CMSIS/DSP/Source/TransformFunctions/arm_cfft_radix2_init_q15.c ****     S->pBitRevTable = (uint16_t *) & armBitRevTable[15];
 239              		.loc 1 129 21 is_stmt 0 view .LVU86
 240 00ae C381     		strh	r3, [r0, #14]	@ movhi
 130:Drivers/CMSIS/DSP/Source/TransformFunctions/arm_cfft_radix2_init_q15.c **** 
 241              		.loc 1 130 5 is_stmt 1 view .LVU87
 130:Drivers/CMSIS/DSP/Source/TransformFunctions/arm_cfft_radix2_init_q15.c **** 
 242              		.loc 1 130 21 is_stmt 0 view .LVU88
 243 00b0 114B     		ldr	r3, .L20+28
 244 00b2 8360     		str	r3, [r0, #8]
 132:Drivers/CMSIS/DSP/Source/TransformFunctions/arm_cfft_radix2_init_q15.c **** 
 245              		.loc 1 132 5 is_stmt 1 view .LVU89
  71:Drivers/CMSIS/DSP/Source/TransformFunctions/arm_cfft_radix2_init_q15.c **** 
 246              		.loc 1 71 14 is_stmt 0 view .LVU90
 247 00b4 0020     		movs	r0, #0
 248              	.LVL27:
 132:Drivers/CMSIS/DSP/Source/TransformFunctions/arm_cfft_radix2_init_q15.c **** 
 249              		.loc 1 132 5 view .LVU91
 250 00b6 E7E7     		b	.L8
 251              	.LVL28:
 252              	.L4:
 144:Drivers/CMSIS/DSP/Source/TransformFunctions/arm_cfft_radix2_init_q15.c ****     S->bitRevFactor = 64U;
 253              		.loc 1 144 5 is_stmt 1 view .LVU92
 144:Drivers/CMSIS/DSP/Source/TransformFunctions/arm_cfft_radix2_init_q15.c ****     S->bitRevFactor = 64U;
 254              		.loc 1 144 25 is_stmt 0 view .LVU93
 255 00b8 4023     		movs	r3, #64
 256              	.LVL29:
 144:Drivers/CMSIS/DSP/Source/TransformFunctions/arm_cfft_radix2_init_q15.c ****     S->bitRevFactor = 64U;
 257              		.loc 1 144 25 view .LVU94
 258 00ba 8381     		strh	r3, [r0, #12]	@ movhi
 145:Drivers/CMSIS/DSP/Source/TransformFunctions/arm_cfft_radix2_init_q15.c ****     S->pBitRevTable = (uint16_t *) & armBitRevTable[63];
 259              		.loc 1 145 5 is_stmt 1 view .LVU95
 145:Drivers/CMSIS/DSP/Source/TransformFunctions/arm_cfft_radix2_init_q15.c ****     S->pBitRevTable = (uint16_t *) & armBitRevTable[63];
 260              		.loc 1 145 21 is_stmt 0 view .LVU96
 261 00bc C381     		strh	r3, [r0, #14]	@ movhi
 146:Drivers/CMSIS/DSP/Source/TransformFunctions/arm_cfft_radix2_init_q15.c **** 
 262              		.loc 1 146 5 is_stmt 1 view .LVU97
 146:Drivers/CMSIS/DSP/Source/TransformFunctions/arm_cfft_radix2_init_q15.c **** 
 263              		.loc 1 146 21 is_stmt 0 view .LVU98
 264 00be 0F4B     		ldr	r3, .L20+32
 265 00c0 8360     		str	r3, [r0, #8]
 148:Drivers/CMSIS/DSP/Source/TransformFunctions/arm_cfft_radix2_init_q15.c **** 
 266              		.loc 1 148 5 is_stmt 1 view .LVU99
  71:Drivers/CMSIS/DSP/Source/TransformFunctions/arm_cfft_radix2_init_q15.c **** 
 267              		.loc 1 71 14 is_stmt 0 view .LVU100
 268 00c2 0020     		movs	r0, #0
 269              	.LVL30:
 148:Drivers/CMSIS/DSP/Source/TransformFunctions/arm_cfft_radix2_init_q15.c **** 
 270              		.loc 1 148 5 view .LVU101
 271 00c4 E0E7     		b	.L8
ARM GAS  /var/folders/n6/c271nzx11xl4r4_m7sqjlt0m0000gn/T//cclrOHrT.s 			page 10


 272              	.LVL31:
 273              	.L6:
 160:Drivers/CMSIS/DSP/Source/TransformFunctions/arm_cfft_radix2_init_q15.c ****     S->bitRevFactor = 256U;
 274              		.loc 1 160 5 is_stmt 1 view .LVU102
 160:Drivers/CMSIS/DSP/Source/TransformFunctions/arm_cfft_radix2_init_q15.c ****     S->bitRevFactor = 256U;
 275              		.loc 1 160 25 is_stmt 0 view .LVU103
 276 00c6 4FF48073 		mov	r3, #256
 277              	.LVL32:
 160:Drivers/CMSIS/DSP/Source/TransformFunctions/arm_cfft_radix2_init_q15.c ****     S->bitRevFactor = 256U;
 278              		.loc 1 160 25 view .LVU104
 279 00ca 8381     		strh	r3, [r0, #12]	@ movhi
 161:Drivers/CMSIS/DSP/Source/TransformFunctions/arm_cfft_radix2_init_q15.c ****     S->pBitRevTable = (uint16_t *) & armBitRevTable[255];
 280              		.loc 1 161 5 is_stmt 1 view .LVU105
 161:Drivers/CMSIS/DSP/Source/TransformFunctions/arm_cfft_radix2_init_q15.c ****     S->pBitRevTable = (uint16_t *) & armBitRevTable[255];
 281              		.loc 1 161 21 is_stmt 0 view .LVU106
 282 00cc C381     		strh	r3, [r0, #14]	@ movhi
 162:Drivers/CMSIS/DSP/Source/TransformFunctions/arm_cfft_radix2_init_q15.c **** 
 283              		.loc 1 162 5 is_stmt 1 view .LVU107
 162:Drivers/CMSIS/DSP/Source/TransformFunctions/arm_cfft_radix2_init_q15.c **** 
 284              		.loc 1 162 21 is_stmt 0 view .LVU108
 285 00ce 0C4B     		ldr	r3, .L20+36
 286 00d0 8360     		str	r3, [r0, #8]
 164:Drivers/CMSIS/DSP/Source/TransformFunctions/arm_cfft_radix2_init_q15.c **** 
 287              		.loc 1 164 5 is_stmt 1 view .LVU109
  71:Drivers/CMSIS/DSP/Source/TransformFunctions/arm_cfft_radix2_init_q15.c **** 
 288              		.loc 1 71 14 is_stmt 0 view .LVU110
 289 00d2 0020     		movs	r0, #0
 290              	.LVL33:
 164:Drivers/CMSIS/DSP/Source/TransformFunctions/arm_cfft_radix2_init_q15.c **** 
 291              		.loc 1 164 5 view .LVU111
 292 00d4 D8E7     		b	.L8
 293              	.LVL34:
 294              	.L14:
  84:Drivers/CMSIS/DSP/Source/TransformFunctions/arm_cfft_radix2_init_q15.c ****   {
 295              		.loc 1 84 3 view .LVU112
 296 00d6 4FF0FF30 		mov	r0, #-1
 297              	.LVL35:
  84:Drivers/CMSIS/DSP/Source/TransformFunctions/arm_cfft_radix2_init_q15.c ****   {
 298              		.loc 1 84 3 view .LVU113
 299 00da D5E7     		b	.L8
 300              	.L21:
 301              		.align	2
 302              	.L20:
 303 00dc 00000000 		.word	twiddleCoef_4096_q15
 304 00e0 06000000 		.word	armBitRevTable+6
 305 00e4 FE000000 		.word	armBitRevTable+254
 306 00e8 3E000000 		.word	armBitRevTable+62
 307 00ec 00000000 		.word	armBitRevTable
 308 00f0 02000000 		.word	armBitRevTable+2
 309 00f4 0E000000 		.word	armBitRevTable+14
 310 00f8 1E000000 		.word	armBitRevTable+30
 311 00fc 7E000000 		.word	armBitRevTable+126
 312 0100 FE010000 		.word	armBitRevTable+510
 313              		.cfi_endproc
 314              	.LFE135:
 316              		.text
 317              	.Letext0:
ARM GAS  /var/folders/n6/c271nzx11xl4r4_m7sqjlt0m0000gn/T//cclrOHrT.s 			page 11


 318              		.file 2 "/Users/killian/Library/Application Support/Code/User/globalStorage/bmd.stm32-for-vscode/@
 319              		.file 3 "/Users/killian/Library/Application Support/Code/User/globalStorage/bmd.stm32-for-vscode/@
 320              		.file 4 "Drivers/CMSIS/DSP/Include/arm_math.h"
 321              		.file 5 "Drivers/CMSIS/DSP/Include/arm_common_tables.h"
ARM GAS  /var/folders/n6/c271nzx11xl4r4_m7sqjlt0m0000gn/T//cclrOHrT.s 			page 12

