ARM GAS  /var/folders/n6/c271nzx11xl4r4_m7sqjlt0m0000gn/T//ccoJhJ7k.s 			page 1


   1              		.cpu cortex-m7
   2              		.arch armv7e-m
   3              		.fpu fpv5-d16
   4              		.eabi_attribute 28, 1
   5              		.eabi_attribute 20, 1
   6              		.eabi_attribute 21, 1
   7              		.eabi_attribute 23, 3
   8              		.eabi_attribute 24, 1
   9              		.eabi_attribute 25, 1
  10              		.eabi_attribute 26, 1
  11              		.eabi_attribute 30, 1
  12              		.eabi_attribute 34, 1
  13              		.eabi_attribute 18, 4
  14              		.file	"arm_rms_q31.c"
  15              		.text
  16              	.Ltext0:
  17              		.cfi_sections	.debug_frame
  18              		.file 1 "Drivers/CMSIS/DSP/Source/StatisticsFunctions/arm_rms_q31.c"
  19              		.global	__aeabi_ldivmod
  20              		.section	.text.arm_rms_q31,"ax",%progbits
  21              		.align	1
  22              		.global	arm_rms_q31
  23              		.syntax unified
  24              		.thumb
  25              		.thumb_func
  27              	arm_rms_q31:
  28              	.LVL0:
  29              	.LFB135:
   1:Drivers/CMSIS/DSP/Source/StatisticsFunctions/arm_rms_q31.c **** /* ----------------------------------------------------------------------
   2:Drivers/CMSIS/DSP/Source/StatisticsFunctions/arm_rms_q31.c ****  * Project:      CMSIS DSP Library
   3:Drivers/CMSIS/DSP/Source/StatisticsFunctions/arm_rms_q31.c ****  * Title:        arm_rms_q31.c
   4:Drivers/CMSIS/DSP/Source/StatisticsFunctions/arm_rms_q31.c ****  * Description:  Root Mean Square of the elements of a Q31 vector
   5:Drivers/CMSIS/DSP/Source/StatisticsFunctions/arm_rms_q31.c ****  *
   6:Drivers/CMSIS/DSP/Source/StatisticsFunctions/arm_rms_q31.c ****  * $Date:        27. January 2017
   7:Drivers/CMSIS/DSP/Source/StatisticsFunctions/arm_rms_q31.c ****  * $Revision:    V.1.5.1
   8:Drivers/CMSIS/DSP/Source/StatisticsFunctions/arm_rms_q31.c ****  *
   9:Drivers/CMSIS/DSP/Source/StatisticsFunctions/arm_rms_q31.c ****  * Target Processor: Cortex-M cores
  10:Drivers/CMSIS/DSP/Source/StatisticsFunctions/arm_rms_q31.c ****  * -------------------------------------------------------------------- */
  11:Drivers/CMSIS/DSP/Source/StatisticsFunctions/arm_rms_q31.c **** /*
  12:Drivers/CMSIS/DSP/Source/StatisticsFunctions/arm_rms_q31.c ****  * Copyright (C) 2010-2017 ARM Limited or its affiliates. All rights reserved.
  13:Drivers/CMSIS/DSP/Source/StatisticsFunctions/arm_rms_q31.c ****  *
  14:Drivers/CMSIS/DSP/Source/StatisticsFunctions/arm_rms_q31.c ****  * SPDX-License-Identifier: Apache-2.0
  15:Drivers/CMSIS/DSP/Source/StatisticsFunctions/arm_rms_q31.c ****  *
  16:Drivers/CMSIS/DSP/Source/StatisticsFunctions/arm_rms_q31.c ****  * Licensed under the Apache License, Version 2.0 (the License); you may
  17:Drivers/CMSIS/DSP/Source/StatisticsFunctions/arm_rms_q31.c ****  * not use this file except in compliance with the License.
  18:Drivers/CMSIS/DSP/Source/StatisticsFunctions/arm_rms_q31.c ****  * You may obtain a copy of the License at
  19:Drivers/CMSIS/DSP/Source/StatisticsFunctions/arm_rms_q31.c ****  *
  20:Drivers/CMSIS/DSP/Source/StatisticsFunctions/arm_rms_q31.c ****  * www.apache.org/licenses/LICENSE-2.0
  21:Drivers/CMSIS/DSP/Source/StatisticsFunctions/arm_rms_q31.c ****  *
  22:Drivers/CMSIS/DSP/Source/StatisticsFunctions/arm_rms_q31.c ****  * Unless required by applicable law or agreed to in writing, software
  23:Drivers/CMSIS/DSP/Source/StatisticsFunctions/arm_rms_q31.c ****  * distributed under the License is distributed on an AS IS BASIS, WITHOUT
  24:Drivers/CMSIS/DSP/Source/StatisticsFunctions/arm_rms_q31.c ****  * WARRANTIES OR CONDITIONS OF ANY KIND, either express or implied.
  25:Drivers/CMSIS/DSP/Source/StatisticsFunctions/arm_rms_q31.c ****  * See the License for the specific language governing permissions and
  26:Drivers/CMSIS/DSP/Source/StatisticsFunctions/arm_rms_q31.c ****  * limitations under the License.
  27:Drivers/CMSIS/DSP/Source/StatisticsFunctions/arm_rms_q31.c ****  */
  28:Drivers/CMSIS/DSP/Source/StatisticsFunctions/arm_rms_q31.c **** 
  29:Drivers/CMSIS/DSP/Source/StatisticsFunctions/arm_rms_q31.c **** #include "arm_math.h"
ARM GAS  /var/folders/n6/c271nzx11xl4r4_m7sqjlt0m0000gn/T//ccoJhJ7k.s 			page 2


  30:Drivers/CMSIS/DSP/Source/StatisticsFunctions/arm_rms_q31.c **** 
  31:Drivers/CMSIS/DSP/Source/StatisticsFunctions/arm_rms_q31.c **** /**
  32:Drivers/CMSIS/DSP/Source/StatisticsFunctions/arm_rms_q31.c ****  * @addtogroup RMS
  33:Drivers/CMSIS/DSP/Source/StatisticsFunctions/arm_rms_q31.c ****  * @{
  34:Drivers/CMSIS/DSP/Source/StatisticsFunctions/arm_rms_q31.c ****  */
  35:Drivers/CMSIS/DSP/Source/StatisticsFunctions/arm_rms_q31.c **** 
  36:Drivers/CMSIS/DSP/Source/StatisticsFunctions/arm_rms_q31.c **** 
  37:Drivers/CMSIS/DSP/Source/StatisticsFunctions/arm_rms_q31.c **** /**
  38:Drivers/CMSIS/DSP/Source/StatisticsFunctions/arm_rms_q31.c ****  * @brief Root Mean Square of the elements of a Q31 vector.
  39:Drivers/CMSIS/DSP/Source/StatisticsFunctions/arm_rms_q31.c ****  * @param[in]       *pSrc points to the input vector
  40:Drivers/CMSIS/DSP/Source/StatisticsFunctions/arm_rms_q31.c ****  * @param[in]       blockSize length of the input vector
  41:Drivers/CMSIS/DSP/Source/StatisticsFunctions/arm_rms_q31.c ****  * @param[out]      *pResult rms value returned here
  42:Drivers/CMSIS/DSP/Source/StatisticsFunctions/arm_rms_q31.c ****  * @return none.
  43:Drivers/CMSIS/DSP/Source/StatisticsFunctions/arm_rms_q31.c ****  *
  44:Drivers/CMSIS/DSP/Source/StatisticsFunctions/arm_rms_q31.c ****  * @details
  45:Drivers/CMSIS/DSP/Source/StatisticsFunctions/arm_rms_q31.c ****  * <b>Scaling and Overflow Behavior:</b>
  46:Drivers/CMSIS/DSP/Source/StatisticsFunctions/arm_rms_q31.c ****  *
  47:Drivers/CMSIS/DSP/Source/StatisticsFunctions/arm_rms_q31.c ****  *\par
  48:Drivers/CMSIS/DSP/Source/StatisticsFunctions/arm_rms_q31.c ****  * The function is implemented using an internal 64-bit accumulator.
  49:Drivers/CMSIS/DSP/Source/StatisticsFunctions/arm_rms_q31.c ****  * The input is represented in 1.31 format, and intermediate multiplication
  50:Drivers/CMSIS/DSP/Source/StatisticsFunctions/arm_rms_q31.c ****  * yields a 2.62 format.
  51:Drivers/CMSIS/DSP/Source/StatisticsFunctions/arm_rms_q31.c ****  * The accumulator maintains full precision of the intermediate multiplication results,
  52:Drivers/CMSIS/DSP/Source/StatisticsFunctions/arm_rms_q31.c ****  * but provides only a single guard bit.
  53:Drivers/CMSIS/DSP/Source/StatisticsFunctions/arm_rms_q31.c ****  * There is no saturation on intermediate additions.
  54:Drivers/CMSIS/DSP/Source/StatisticsFunctions/arm_rms_q31.c ****  * If the accumulator overflows, it wraps around and distorts the result.
  55:Drivers/CMSIS/DSP/Source/StatisticsFunctions/arm_rms_q31.c ****  * In order to avoid overflows completely, the input signal must be scaled down by
  56:Drivers/CMSIS/DSP/Source/StatisticsFunctions/arm_rms_q31.c ****  * log2(blockSize) bits, as a total of blockSize additions are performed internally.
  57:Drivers/CMSIS/DSP/Source/StatisticsFunctions/arm_rms_q31.c ****  * Finally, the 2.62 accumulator is right shifted by 31 bits to yield a 1.31 format value.
  58:Drivers/CMSIS/DSP/Source/StatisticsFunctions/arm_rms_q31.c ****  *
  59:Drivers/CMSIS/DSP/Source/StatisticsFunctions/arm_rms_q31.c ****  */
  60:Drivers/CMSIS/DSP/Source/StatisticsFunctions/arm_rms_q31.c **** 
  61:Drivers/CMSIS/DSP/Source/StatisticsFunctions/arm_rms_q31.c **** void arm_rms_q31(
  62:Drivers/CMSIS/DSP/Source/StatisticsFunctions/arm_rms_q31.c ****   q31_t * pSrc,
  63:Drivers/CMSIS/DSP/Source/StatisticsFunctions/arm_rms_q31.c ****   uint32_t blockSize,
  64:Drivers/CMSIS/DSP/Source/StatisticsFunctions/arm_rms_q31.c ****   q31_t * pResult)
  65:Drivers/CMSIS/DSP/Source/StatisticsFunctions/arm_rms_q31.c **** {
  30              		.loc 1 65 1 view -0
  31              		.cfi_startproc
  32              		@ args = 0, pretend = 0, frame = 0
  33              		@ frame_needed = 0, uses_anonymous_args = 0
  34              		.loc 1 65 1 is_stmt 0 view .LVU1
  35 0000 F8B5     		push	{r3, r4, r5, r6, r7, lr}
  36              		.cfi_def_cfa_offset 24
  37              		.cfi_offset 3, -24
  38              		.cfi_offset 4, -20
  39              		.cfi_offset 5, -16
  40              		.cfi_offset 6, -12
  41              		.cfi_offset 7, -8
  42              		.cfi_offset 14, -4
  43 0002 0546     		mov	r5, r0
  44 0004 8E46     		mov	lr, r1
  45 0006 1446     		mov	r4, r2
  66:Drivers/CMSIS/DSP/Source/StatisticsFunctions/arm_rms_q31.c ****   q63_t sum = 0;                                 /* accumulator */
  46              		.loc 1 66 3 is_stmt 1 view .LVU2
  47              	.LVL1:
  67:Drivers/CMSIS/DSP/Source/StatisticsFunctions/arm_rms_q31.c ****   q31_t in;                                      /* Temporary variable to store the input */
  48              		.loc 1 67 3 view .LVU3
ARM GAS  /var/folders/n6/c271nzx11xl4r4_m7sqjlt0m0000gn/T//ccoJhJ7k.s 			page 3


  68:Drivers/CMSIS/DSP/Source/StatisticsFunctions/arm_rms_q31.c ****   uint32_t blkCnt;                               /* loop counter */
  49              		.loc 1 68 3 view .LVU4
  69:Drivers/CMSIS/DSP/Source/StatisticsFunctions/arm_rms_q31.c **** 
  70:Drivers/CMSIS/DSP/Source/StatisticsFunctions/arm_rms_q31.c **** #if defined (ARM_MATH_DSP)
  71:Drivers/CMSIS/DSP/Source/StatisticsFunctions/arm_rms_q31.c ****   /* Run the below code for Cortex-M4 and Cortex-M3 */
  72:Drivers/CMSIS/DSP/Source/StatisticsFunctions/arm_rms_q31.c **** 
  73:Drivers/CMSIS/DSP/Source/StatisticsFunctions/arm_rms_q31.c ****   q31_t in1, in2, in3, in4;                      /* Temporary input variables */
  50              		.loc 1 73 3 view .LVU5
  74:Drivers/CMSIS/DSP/Source/StatisticsFunctions/arm_rms_q31.c **** 
  75:Drivers/CMSIS/DSP/Source/StatisticsFunctions/arm_rms_q31.c ****   /*loop Unrolling */
  76:Drivers/CMSIS/DSP/Source/StatisticsFunctions/arm_rms_q31.c ****   blkCnt = blockSize >> 2U;
  51              		.loc 1 76 3 view .LVU6
  52              		.loc 1 76 10 is_stmt 0 view .LVU7
  53 0008 8E08     		lsrs	r6, r1, #2
  54              	.LVL2:
  77:Drivers/CMSIS/DSP/Source/StatisticsFunctions/arm_rms_q31.c **** 
  78:Drivers/CMSIS/DSP/Source/StatisticsFunctions/arm_rms_q31.c ****   /* First part of the processing with loop unrolling.  Compute 8 outputs at a time.
  79:Drivers/CMSIS/DSP/Source/StatisticsFunctions/arm_rms_q31.c ****    ** a second loop below computes the remaining 1 to 7 samples. */
  80:Drivers/CMSIS/DSP/Source/StatisticsFunctions/arm_rms_q31.c ****   while (blkCnt > 0U)
  55              		.loc 1 80 3 is_stmt 1 view .LVU8
  66:Drivers/CMSIS/DSP/Source/StatisticsFunctions/arm_rms_q31.c ****   q31_t in;                                      /* Temporary variable to store the input */
  56              		.loc 1 66 9 is_stmt 0 view .LVU9
  57 000a 0020     		movs	r0, #0
  58              	.LVL3:
  66:Drivers/CMSIS/DSP/Source/StatisticsFunctions/arm_rms_q31.c ****   q31_t in;                                      /* Temporary variable to store the input */
  59              		.loc 1 66 9 view .LVU10
  60 000c 0146     		mov	r1, r0
  61              	.LVL4:
  62              		.loc 1 80 9 view .LVU11
  63 000e 2EE0     		b	.L2
  64              	.LVL5:
  65              	.L3:
  81:Drivers/CMSIS/DSP/Source/StatisticsFunctions/arm_rms_q31.c ****   {
  82:Drivers/CMSIS/DSP/Source/StatisticsFunctions/arm_rms_q31.c ****     /* C = A[0] * A[0] + A[1] * A[1] + A[2] * A[2] + ... + A[blockSize-1] * A[blockSize-1] */
  83:Drivers/CMSIS/DSP/Source/StatisticsFunctions/arm_rms_q31.c ****     /* Compute sum of the squares and then store the result in a temporary variable, sum */
  84:Drivers/CMSIS/DSP/Source/StatisticsFunctions/arm_rms_q31.c ****     /* read two samples from source buffer */
  85:Drivers/CMSIS/DSP/Source/StatisticsFunctions/arm_rms_q31.c ****     in1 = pSrc[0];
  66              		.loc 1 85 5 is_stmt 1 view .LVU12
  67              		.loc 1 85 9 is_stmt 0 view .LVU13
  68 0010 2B68     		ldr	r3, [r5]
  69              	.LVL6:
  86:Drivers/CMSIS/DSP/Source/StatisticsFunctions/arm_rms_q31.c ****     in2 = pSrc[1];
  70              		.loc 1 86 5 is_stmt 1 view .LVU14
  71              		.loc 1 86 9 is_stmt 0 view .LVU15
  72 0012 6A68     		ldr	r2, [r5, #4]
  73              	.LVL7:
  87:Drivers/CMSIS/DSP/Source/StatisticsFunctions/arm_rms_q31.c **** 
  88:Drivers/CMSIS/DSP/Source/StatisticsFunctions/arm_rms_q31.c ****     /* calculate power and accumulate to accumulator */
  89:Drivers/CMSIS/DSP/Source/StatisticsFunctions/arm_rms_q31.c ****     sum += (q63_t) in1 *in1;
  74              		.loc 1 89 5 is_stmt 1 view .LVU16
  75              		.loc 1 89 12 is_stmt 0 view .LVU17
  76 0014 DF17     		asrs	r7, r3, #31
  77              		.loc 1 89 24 view .LVU18
  78 0016 03FB07F7 		mul	r7, r3, r7
  79 001a A3FB033C 		umull	r3, ip, r3, r3
  80              	.LVL8:
  81              		.loc 1 89 24 view .LVU19
ARM GAS  /var/folders/n6/c271nzx11xl4r4_m7sqjlt0m0000gn/T//ccoJhJ7k.s 			page 4


  82 001e 0CEB470C 		add	ip, ip, r7, lsl #1
  83              		.loc 1 89 9 view .LVU20
  84 0022 1B18     		adds	r3, r3, r0
  85 0024 4CEB0101 		adc	r1, ip, r1
  86              	.LVL9:
  90:Drivers/CMSIS/DSP/Source/StatisticsFunctions/arm_rms_q31.c ****     sum += (q63_t) in2 *in2;
  87              		.loc 1 90 5 is_stmt 1 view .LVU21
  88              		.loc 1 90 12 is_stmt 0 view .LVU22
  89 0028 D017     		asrs	r0, r2, #31
  90              		.loc 1 90 24 view .LVU23
  91 002a 02FB00F0 		mul	r0, r2, r0
  92 002e A2FB022C 		umull	r2, ip, r2, r2
  93              	.LVL10:
  94              		.loc 1 90 24 view .LVU24
  95 0032 0CEB400C 		add	ip, ip, r0, lsl #1
  96              		.loc 1 90 9 view .LVU25
  97 0036 D218     		adds	r2, r2, r3
  98 0038 4CEB010C 		adc	ip, ip, r1
  99              	.LVL11:
  91:Drivers/CMSIS/DSP/Source/StatisticsFunctions/arm_rms_q31.c **** 
  92:Drivers/CMSIS/DSP/Source/StatisticsFunctions/arm_rms_q31.c ****     /* read two samples from source buffer */
  93:Drivers/CMSIS/DSP/Source/StatisticsFunctions/arm_rms_q31.c ****     in3 = pSrc[2];
 100              		.loc 1 93 5 is_stmt 1 view .LVU26
 101              		.loc 1 93 9 is_stmt 0 view .LVU27
 102 003c AB68     		ldr	r3, [r5, #8]
 103              	.LVL12:
  94:Drivers/CMSIS/DSP/Source/StatisticsFunctions/arm_rms_q31.c ****     in4 = pSrc[3];
 104              		.loc 1 94 5 is_stmt 1 view .LVU28
 105              		.loc 1 94 9 is_stmt 0 view .LVU29
 106 003e E868     		ldr	r0, [r5, #12]
 107              	.LVL13:
  95:Drivers/CMSIS/DSP/Source/StatisticsFunctions/arm_rms_q31.c **** 
  96:Drivers/CMSIS/DSP/Source/StatisticsFunctions/arm_rms_q31.c ****     /* calculate power and accumulate to accumulator */
  97:Drivers/CMSIS/DSP/Source/StatisticsFunctions/arm_rms_q31.c ****     sum += (q63_t) in3 *in3;
 108              		.loc 1 97 5 is_stmt 1 view .LVU30
 109              		.loc 1 97 12 is_stmt 0 view .LVU31
 110 0040 DF17     		asrs	r7, r3, #31
 111              		.loc 1 97 24 view .LVU32
 112 0042 03FB07F7 		mul	r7, r3, r7
 113 0046 A3FB0331 		umull	r3, r1, r3, r3
 114              	.LVL14:
 115              		.loc 1 97 24 view .LVU33
 116 004a 01EB4701 		add	r1, r1, r7, lsl #1
 117              		.loc 1 97 9 view .LVU34
 118 004e 9B18     		adds	r3, r3, r2
 119 0050 41EB0C02 		adc	r2, r1, ip
 120              	.LVL15:
  98:Drivers/CMSIS/DSP/Source/StatisticsFunctions/arm_rms_q31.c ****     sum += (q63_t) in4 *in4;
 121              		.loc 1 98 5 is_stmt 1 view .LVU35
 122              		.loc 1 98 12 is_stmt 0 view .LVU36
 123 0054 C717     		asrs	r7, r0, #31
 124              		.loc 1 98 24 view .LVU37
 125 0056 00FB07F7 		mul	r7, r0, r7
 126 005a A0FB00C1 		umull	ip, r1, r0, r0
 127 005e 01EB4701 		add	r1, r1, r7, lsl #1
 128              		.loc 1 98 9 view .LVU38
 129 0062 1CEB0300 		adds	r0, ip, r3
ARM GAS  /var/folders/n6/c271nzx11xl4r4_m7sqjlt0m0000gn/T//ccoJhJ7k.s 			page 5


 130              	.LVL16:
 131              		.loc 1 98 9 view .LVU39
 132 0066 41EB0201 		adc	r1, r1, r2
 133              	.LVL17:
  99:Drivers/CMSIS/DSP/Source/StatisticsFunctions/arm_rms_q31.c **** 
 100:Drivers/CMSIS/DSP/Source/StatisticsFunctions/arm_rms_q31.c **** 
 101:Drivers/CMSIS/DSP/Source/StatisticsFunctions/arm_rms_q31.c ****     /* update source buffer to process next samples */
 102:Drivers/CMSIS/DSP/Source/StatisticsFunctions/arm_rms_q31.c ****     pSrc += 4U;
 134              		.loc 1 102 5 is_stmt 1 view .LVU40
 135              		.loc 1 102 10 is_stmt 0 view .LVU41
 136 006a 1035     		adds	r5, r5, #16
 137              	.LVL18:
 103:Drivers/CMSIS/DSP/Source/StatisticsFunctions/arm_rms_q31.c **** 
 104:Drivers/CMSIS/DSP/Source/StatisticsFunctions/arm_rms_q31.c ****     /* Decrement the loop counter */
 105:Drivers/CMSIS/DSP/Source/StatisticsFunctions/arm_rms_q31.c ****     blkCnt--;
 138              		.loc 1 105 5 is_stmt 1 view .LVU42
 139              		.loc 1 105 11 is_stmt 0 view .LVU43
 140 006c 013E     		subs	r6, r6, #1
 141              	.LVL19:
 142              	.L2:
  80:Drivers/CMSIS/DSP/Source/StatisticsFunctions/arm_rms_q31.c ****   {
 143              		.loc 1 80 17 is_stmt 1 view .LVU44
 144 006e 002E     		cmp	r6, #0
 145 0070 CED1     		bne	.L3
 106:Drivers/CMSIS/DSP/Source/StatisticsFunctions/arm_rms_q31.c ****   }
 107:Drivers/CMSIS/DSP/Source/StatisticsFunctions/arm_rms_q31.c **** 
 108:Drivers/CMSIS/DSP/Source/StatisticsFunctions/arm_rms_q31.c ****   /* If the blockSize is not a multiple of 8, compute any remaining output samples here.
 109:Drivers/CMSIS/DSP/Source/StatisticsFunctions/arm_rms_q31.c ****    ** No loop unrolling is used. */
 110:Drivers/CMSIS/DSP/Source/StatisticsFunctions/arm_rms_q31.c ****   blkCnt = blockSize % 0x4U;
 146              		.loc 1 110 3 view .LVU45
 147              		.loc 1 110 10 is_stmt 0 view .LVU46
 148 0072 0EF00307 		and	r7, lr, #3
 149              	.LVL20:
 111:Drivers/CMSIS/DSP/Source/StatisticsFunctions/arm_rms_q31.c **** 
 112:Drivers/CMSIS/DSP/Source/StatisticsFunctions/arm_rms_q31.c **** #else
 113:Drivers/CMSIS/DSP/Source/StatisticsFunctions/arm_rms_q31.c ****   /* Run the below code for Cortex-M0 */
 114:Drivers/CMSIS/DSP/Source/StatisticsFunctions/arm_rms_q31.c **** 
 115:Drivers/CMSIS/DSP/Source/StatisticsFunctions/arm_rms_q31.c ****   blkCnt = blockSize;
 116:Drivers/CMSIS/DSP/Source/StatisticsFunctions/arm_rms_q31.c **** 
 117:Drivers/CMSIS/DSP/Source/StatisticsFunctions/arm_rms_q31.c **** #endif /* #if defined (ARM_MATH_DSP) */
 118:Drivers/CMSIS/DSP/Source/StatisticsFunctions/arm_rms_q31.c **** 
 119:Drivers/CMSIS/DSP/Source/StatisticsFunctions/arm_rms_q31.c ****   while (blkCnt > 0U)
 150              		.loc 1 119 3 is_stmt 1 view .LVU47
 151              		.loc 1 119 9 is_stmt 0 view .LVU48
 152 0076 0DE0     		b	.L4
 153              	.L5:
 120:Drivers/CMSIS/DSP/Source/StatisticsFunctions/arm_rms_q31.c ****   {
 121:Drivers/CMSIS/DSP/Source/StatisticsFunctions/arm_rms_q31.c ****     /* C = A[0] * A[0] + A[1] * A[1] + A[2] * A[2] + ... + A[blockSize-1] * A[blockSize-1] */
 122:Drivers/CMSIS/DSP/Source/StatisticsFunctions/arm_rms_q31.c ****     /* Compute sum of the squares and then store the results in a temporary variable, sum */
 123:Drivers/CMSIS/DSP/Source/StatisticsFunctions/arm_rms_q31.c ****     in = *pSrc++;
 154              		.loc 1 123 5 is_stmt 1 view .LVU49
 155              	.LVL21:
 156              		.loc 1 123 8 is_stmt 0 view .LVU50
 157 0078 55F8043B 		ldr	r3, [r5], #4
 158              	.LVL22:
 124:Drivers/CMSIS/DSP/Source/StatisticsFunctions/arm_rms_q31.c ****     sum += (q63_t) in *in;
 159              		.loc 1 124 5 is_stmt 1 view .LVU51
ARM GAS  /var/folders/n6/c271nzx11xl4r4_m7sqjlt0m0000gn/T//ccoJhJ7k.s 			page 6


 160              		.loc 1 124 12 is_stmt 0 view .LVU52
 161 007c DE17     		asrs	r6, r3, #31
 162              		.loc 1 124 23 view .LVU53
 163 007e 03FB06F6 		mul	r6, r3, r6
 164 0082 A3FB0332 		umull	r3, r2, r3, r3
 165              	.LVL23:
 166              		.loc 1 124 23 view .LVU54
 167 0086 02EB4602 		add	r2, r2, r6, lsl #1
 168              		.loc 1 124 9 view .LVU55
 169 008a 1B18     		adds	r3, r3, r0
 170 008c 1846     		mov	r0, r3
 171              	.LVL24:
 172              		.loc 1 124 9 view .LVU56
 173 008e 42EB0101 		adc	r1, r2, r1
 174              	.LVL25:
 125:Drivers/CMSIS/DSP/Source/StatisticsFunctions/arm_rms_q31.c **** 
 126:Drivers/CMSIS/DSP/Source/StatisticsFunctions/arm_rms_q31.c ****     /* Decrement the loop counter */
 127:Drivers/CMSIS/DSP/Source/StatisticsFunctions/arm_rms_q31.c ****     blkCnt--;
 175              		.loc 1 127 5 is_stmt 1 view .LVU57
 176              		.loc 1 127 11 is_stmt 0 view .LVU58
 177 0092 013F     		subs	r7, r7, #1
 178              	.LVL26:
 179              	.L4:
 119:Drivers/CMSIS/DSP/Source/StatisticsFunctions/arm_rms_q31.c ****   {
 180              		.loc 1 119 17 is_stmt 1 view .LVU59
 181 0094 002F     		cmp	r7, #0
 182 0096 EFD1     		bne	.L5
 128:Drivers/CMSIS/DSP/Source/StatisticsFunctions/arm_rms_q31.c ****   }
 129:Drivers/CMSIS/DSP/Source/StatisticsFunctions/arm_rms_q31.c **** 
 130:Drivers/CMSIS/DSP/Source/StatisticsFunctions/arm_rms_q31.c ****   /* Convert data in 2.62 to 1.31 by 31 right shifts and saturate */
 131:Drivers/CMSIS/DSP/Source/StatisticsFunctions/arm_rms_q31.c ****   /* Compute Rms and store the result in the destination vector */
 132:Drivers/CMSIS/DSP/Source/StatisticsFunctions/arm_rms_q31.c ****   arm_sqrt_q31(clip_q63_to_q31((sum / (q63_t) blockSize) >> 31), pResult);
 183              		.loc 1 132 3 view .LVU60
 184              		.loc 1 132 37 is_stmt 0 view .LVU61
 185 0098 7246     		mov	r2, lr
 186 009a 0023     		movs	r3, #0
 187 009c FFF7FEFF 		bl	__aeabi_ldivmod
 188              	.LVL27:
 189              		.loc 1 132 3 view .LVU62
 190 00a0 C30F     		lsrs	r3, r0, #31
 191 00a2 43EA4103 		orr	r3, r3, r1, lsl #1
 192              	.LVL28:
 193              	.LBB4:
 194              	.LBI4:
 195              		.file 2 "Drivers/CMSIS/DSP/Include/arm_math.h"
   1:Drivers/CMSIS/DSP/Include/arm_math.h **** /******************************************************************************
   2:Drivers/CMSIS/DSP/Include/arm_math.h ****  * @file     arm_math.h
   3:Drivers/CMSIS/DSP/Include/arm_math.h ****  * @brief    Public header file for CMSIS DSP LibraryU
   4:Drivers/CMSIS/DSP/Include/arm_math.h ****  * @version  V1.5.3
   5:Drivers/CMSIS/DSP/Include/arm_math.h ****  * @date     10. January 2018
   6:Drivers/CMSIS/DSP/Include/arm_math.h ****  ******************************************************************************/
   7:Drivers/CMSIS/DSP/Include/arm_math.h **** /*
   8:Drivers/CMSIS/DSP/Include/arm_math.h ****  * Copyright (c) 2010-2018 Arm Limited or its affiliates. All rights reserved.
   9:Drivers/CMSIS/DSP/Include/arm_math.h ****  *
  10:Drivers/CMSIS/DSP/Include/arm_math.h ****  * SPDX-License-Identifier: Apache-2.0
  11:Drivers/CMSIS/DSP/Include/arm_math.h ****  *
  12:Drivers/CMSIS/DSP/Include/arm_math.h ****  * Licensed under the Apache License, Version 2.0 (the License); you may
ARM GAS  /var/folders/n6/c271nzx11xl4r4_m7sqjlt0m0000gn/T//ccoJhJ7k.s 			page 7


  13:Drivers/CMSIS/DSP/Include/arm_math.h ****  * not use this file except in compliance with the License.
  14:Drivers/CMSIS/DSP/Include/arm_math.h ****  * You may obtain a copy of the License at
  15:Drivers/CMSIS/DSP/Include/arm_math.h ****  *
  16:Drivers/CMSIS/DSP/Include/arm_math.h ****  * www.apache.org/licenses/LICENSE-2.0
  17:Drivers/CMSIS/DSP/Include/arm_math.h ****  *
  18:Drivers/CMSIS/DSP/Include/arm_math.h ****  * Unless required by applicable law or agreed to in writing, software
  19:Drivers/CMSIS/DSP/Include/arm_math.h ****  * distributed under the License is distributed on an AS IS BASIS, WITHOUT
  20:Drivers/CMSIS/DSP/Include/arm_math.h ****  * WARRANTIES OR CONDITIONS OF ANY KIND, either express or implied.
  21:Drivers/CMSIS/DSP/Include/arm_math.h ****  * See the License for the specific language governing permissions and
  22:Drivers/CMSIS/DSP/Include/arm_math.h ****  * limitations under the License.
  23:Drivers/CMSIS/DSP/Include/arm_math.h ****  */
  24:Drivers/CMSIS/DSP/Include/arm_math.h **** 
  25:Drivers/CMSIS/DSP/Include/arm_math.h **** /**
  26:Drivers/CMSIS/DSP/Include/arm_math.h ****    \mainpage CMSIS DSP Software Library
  27:Drivers/CMSIS/DSP/Include/arm_math.h ****    *
  28:Drivers/CMSIS/DSP/Include/arm_math.h ****    * Introduction
  29:Drivers/CMSIS/DSP/Include/arm_math.h ****    * ------------
  30:Drivers/CMSIS/DSP/Include/arm_math.h ****    *
  31:Drivers/CMSIS/DSP/Include/arm_math.h ****    * This user manual describes the CMSIS DSP software library,
  32:Drivers/CMSIS/DSP/Include/arm_math.h ****    * a suite of common signal processing functions for use on Cortex-M processor based devices.
  33:Drivers/CMSIS/DSP/Include/arm_math.h ****    *
  34:Drivers/CMSIS/DSP/Include/arm_math.h ****    * The library is divided into a number of functions each covering a specific category:
  35:Drivers/CMSIS/DSP/Include/arm_math.h ****    * - Basic math functions
  36:Drivers/CMSIS/DSP/Include/arm_math.h ****    * - Fast math functions
  37:Drivers/CMSIS/DSP/Include/arm_math.h ****    * - Complex math functions
  38:Drivers/CMSIS/DSP/Include/arm_math.h ****    * - Filters
  39:Drivers/CMSIS/DSP/Include/arm_math.h ****    * - Matrix functions
  40:Drivers/CMSIS/DSP/Include/arm_math.h ****    * - Transforms
  41:Drivers/CMSIS/DSP/Include/arm_math.h ****    * - Motor control functions
  42:Drivers/CMSIS/DSP/Include/arm_math.h ****    * - Statistical functions
  43:Drivers/CMSIS/DSP/Include/arm_math.h ****    * - Support functions
  44:Drivers/CMSIS/DSP/Include/arm_math.h ****    * - Interpolation functions
  45:Drivers/CMSIS/DSP/Include/arm_math.h ****    *
  46:Drivers/CMSIS/DSP/Include/arm_math.h ****    * The library has separate functions for operating on 8-bit integers, 16-bit integers,
  47:Drivers/CMSIS/DSP/Include/arm_math.h ****    * 32-bit integer and 32-bit floating-point values.
  48:Drivers/CMSIS/DSP/Include/arm_math.h ****    *
  49:Drivers/CMSIS/DSP/Include/arm_math.h ****    * Using the Library
  50:Drivers/CMSIS/DSP/Include/arm_math.h ****    * ------------
  51:Drivers/CMSIS/DSP/Include/arm_math.h ****    *
  52:Drivers/CMSIS/DSP/Include/arm_math.h ****    * The library installer contains prebuilt versions of the libraries in the <code>Lib</code> fold
  53:Drivers/CMSIS/DSP/Include/arm_math.h ****    * - arm_cortexM7lfdp_math.lib (Cortex-M7, Little endian, Double Precision Floating Point Unit)
  54:Drivers/CMSIS/DSP/Include/arm_math.h ****    * - arm_cortexM7bfdp_math.lib (Cortex-M7, Big endian, Double Precision Floating Point Unit)
  55:Drivers/CMSIS/DSP/Include/arm_math.h ****    * - arm_cortexM7lfsp_math.lib (Cortex-M7, Little endian, Single Precision Floating Point Unit)
  56:Drivers/CMSIS/DSP/Include/arm_math.h ****    * - arm_cortexM7bfsp_math.lib (Cortex-M7, Big endian and Single Precision Floating Point Unit on
  57:Drivers/CMSIS/DSP/Include/arm_math.h ****    * - arm_cortexM7l_math.lib (Cortex-M7, Little endian)
  58:Drivers/CMSIS/DSP/Include/arm_math.h ****    * - arm_cortexM7b_math.lib (Cortex-M7, Big endian)
  59:Drivers/CMSIS/DSP/Include/arm_math.h ****    * - arm_cortexM4lf_math.lib (Cortex-M4, Little endian, Floating Point Unit)
  60:Drivers/CMSIS/DSP/Include/arm_math.h ****    * - arm_cortexM4bf_math.lib (Cortex-M4, Big endian, Floating Point Unit)
  61:Drivers/CMSIS/DSP/Include/arm_math.h ****    * - arm_cortexM4l_math.lib (Cortex-M4, Little endian)
  62:Drivers/CMSIS/DSP/Include/arm_math.h ****    * - arm_cortexM4b_math.lib (Cortex-M4, Big endian)
  63:Drivers/CMSIS/DSP/Include/arm_math.h ****    * - arm_cortexM3l_math.lib (Cortex-M3, Little endian)
  64:Drivers/CMSIS/DSP/Include/arm_math.h ****    * - arm_cortexM3b_math.lib (Cortex-M3, Big endian)
  65:Drivers/CMSIS/DSP/Include/arm_math.h ****    * - arm_cortexM0l_math.lib (Cortex-M0 / Cortex-M0+, Little endian)
  66:Drivers/CMSIS/DSP/Include/arm_math.h ****    * - arm_cortexM0b_math.lib (Cortex-M0 / Cortex-M0+, Big endian)
  67:Drivers/CMSIS/DSP/Include/arm_math.h ****    * - arm_ARMv8MBLl_math.lib (Armv8-M Baseline, Little endian)
  68:Drivers/CMSIS/DSP/Include/arm_math.h ****    * - arm_ARMv8MMLl_math.lib (Armv8-M Mainline, Little endian)
  69:Drivers/CMSIS/DSP/Include/arm_math.h ****    * - arm_ARMv8MMLlfsp_math.lib (Armv8-M Mainline, Little endian, Single Precision Floating Point 
ARM GAS  /var/folders/n6/c271nzx11xl4r4_m7sqjlt0m0000gn/T//ccoJhJ7k.s 			page 8


  70:Drivers/CMSIS/DSP/Include/arm_math.h ****    * - arm_ARMv8MMLld_math.lib (Armv8-M Mainline, Little endian, DSP instructions)
  71:Drivers/CMSIS/DSP/Include/arm_math.h ****    * - arm_ARMv8MMLldfsp_math.lib (Armv8-M Mainline, Little endian, DSP instructions, Single Precis
  72:Drivers/CMSIS/DSP/Include/arm_math.h ****    *
  73:Drivers/CMSIS/DSP/Include/arm_math.h ****    * The library functions are declared in the public file <code>arm_math.h</code> which is placed 
  74:Drivers/CMSIS/DSP/Include/arm_math.h ****    * Simply include this file and link the appropriate library in the application and begin calling
  75:Drivers/CMSIS/DSP/Include/arm_math.h ****    * public header file <code> arm_math.h</code> for Cortex-M cores with little endian and big endi
  76:Drivers/CMSIS/DSP/Include/arm_math.h ****    * Define the appropriate preprocessor macro ARM_MATH_CM7 or ARM_MATH_CM4 or ARM_MATH_CM3 or
  77:Drivers/CMSIS/DSP/Include/arm_math.h ****    * ARM_MATH_CM0 or ARM_MATH_CM0PLUS depending on the target processor in the application.
  78:Drivers/CMSIS/DSP/Include/arm_math.h ****    * For Armv8-M cores define preprocessor macro ARM_MATH_ARMV8MBL or ARM_MATH_ARMV8MML.
  79:Drivers/CMSIS/DSP/Include/arm_math.h ****    * Set preprocessor macro __DSP_PRESENT if Armv8-M Mainline core supports DSP instructions.
  80:Drivers/CMSIS/DSP/Include/arm_math.h ****    *
  81:Drivers/CMSIS/DSP/Include/arm_math.h ****    *
  82:Drivers/CMSIS/DSP/Include/arm_math.h ****    * Examples
  83:Drivers/CMSIS/DSP/Include/arm_math.h ****    * --------
  84:Drivers/CMSIS/DSP/Include/arm_math.h ****    *
  85:Drivers/CMSIS/DSP/Include/arm_math.h ****    * The library ships with a number of examples which demonstrate how to use the library functions
  86:Drivers/CMSIS/DSP/Include/arm_math.h ****    *
  87:Drivers/CMSIS/DSP/Include/arm_math.h ****    * Toolchain Support
  88:Drivers/CMSIS/DSP/Include/arm_math.h ****    * ------------
  89:Drivers/CMSIS/DSP/Include/arm_math.h ****    *
  90:Drivers/CMSIS/DSP/Include/arm_math.h ****    * The library has been developed and tested with MDK version 5.14.0.0
  91:Drivers/CMSIS/DSP/Include/arm_math.h ****    * The library is being tested in GCC and IAR toolchains and updates on this activity will be mad
  92:Drivers/CMSIS/DSP/Include/arm_math.h ****    *
  93:Drivers/CMSIS/DSP/Include/arm_math.h ****    * Building the Library
  94:Drivers/CMSIS/DSP/Include/arm_math.h ****    * ------------
  95:Drivers/CMSIS/DSP/Include/arm_math.h ****    *
  96:Drivers/CMSIS/DSP/Include/arm_math.h ****    * The library installer contains a project file to rebuild libraries on MDK toolchain in the <co
  97:Drivers/CMSIS/DSP/Include/arm_math.h ****    * - arm_cortexM_math.uvprojx
  98:Drivers/CMSIS/DSP/Include/arm_math.h ****    *
  99:Drivers/CMSIS/DSP/Include/arm_math.h ****    *
 100:Drivers/CMSIS/DSP/Include/arm_math.h ****    * The libraries can be built by opening the arm_cortexM_math.uvprojx project in MDK-ARM, selecti
 101:Drivers/CMSIS/DSP/Include/arm_math.h ****    *
 102:Drivers/CMSIS/DSP/Include/arm_math.h ****    * Preprocessor Macros
 103:Drivers/CMSIS/DSP/Include/arm_math.h ****    * ------------
 104:Drivers/CMSIS/DSP/Include/arm_math.h ****    *
 105:Drivers/CMSIS/DSP/Include/arm_math.h ****    * Each library project have different preprocessor macros.
 106:Drivers/CMSIS/DSP/Include/arm_math.h ****    *
 107:Drivers/CMSIS/DSP/Include/arm_math.h ****    * - UNALIGNED_SUPPORT_DISABLE:
 108:Drivers/CMSIS/DSP/Include/arm_math.h ****    *
 109:Drivers/CMSIS/DSP/Include/arm_math.h ****    * Define macro UNALIGNED_SUPPORT_DISABLE, If the silicon does not support unaligned memory acces
 110:Drivers/CMSIS/DSP/Include/arm_math.h ****    *
 111:Drivers/CMSIS/DSP/Include/arm_math.h ****    * - ARM_MATH_BIG_ENDIAN:
 112:Drivers/CMSIS/DSP/Include/arm_math.h ****    *
 113:Drivers/CMSIS/DSP/Include/arm_math.h ****    * Define macro ARM_MATH_BIG_ENDIAN to build the library for big endian targets. By default libra
 114:Drivers/CMSIS/DSP/Include/arm_math.h ****    *
 115:Drivers/CMSIS/DSP/Include/arm_math.h ****    * - ARM_MATH_MATRIX_CHECK:
 116:Drivers/CMSIS/DSP/Include/arm_math.h ****    *
 117:Drivers/CMSIS/DSP/Include/arm_math.h ****    * Define macro ARM_MATH_MATRIX_CHECK for checking on the input and output sizes of matrices
 118:Drivers/CMSIS/DSP/Include/arm_math.h ****    *
 119:Drivers/CMSIS/DSP/Include/arm_math.h ****    * - ARM_MATH_ROUNDING:
 120:Drivers/CMSIS/DSP/Include/arm_math.h ****    *
 121:Drivers/CMSIS/DSP/Include/arm_math.h ****    * Define macro ARM_MATH_ROUNDING for rounding on support functions
 122:Drivers/CMSIS/DSP/Include/arm_math.h ****    *
 123:Drivers/CMSIS/DSP/Include/arm_math.h ****    * - ARM_MATH_CMx:
 124:Drivers/CMSIS/DSP/Include/arm_math.h ****    *
 125:Drivers/CMSIS/DSP/Include/arm_math.h ****    * Define macro ARM_MATH_CM4 for building the library on Cortex-M4 target, ARM_MATH_CM3 for build
 126:Drivers/CMSIS/DSP/Include/arm_math.h ****    * and ARM_MATH_CM0 for building library on Cortex-M0 target, ARM_MATH_CM0PLUS for building libra
ARM GAS  /var/folders/n6/c271nzx11xl4r4_m7sqjlt0m0000gn/T//ccoJhJ7k.s 			page 9


 127:Drivers/CMSIS/DSP/Include/arm_math.h ****    * ARM_MATH_CM7 for building the library on cortex-M7.
 128:Drivers/CMSIS/DSP/Include/arm_math.h ****    *
 129:Drivers/CMSIS/DSP/Include/arm_math.h ****    * - ARM_MATH_ARMV8MxL:
 130:Drivers/CMSIS/DSP/Include/arm_math.h ****    *
 131:Drivers/CMSIS/DSP/Include/arm_math.h ****    * Define macro ARM_MATH_ARMV8MBL for building the library on Armv8-M Baseline target, ARM_MATH_A
 132:Drivers/CMSIS/DSP/Include/arm_math.h ****    * on Armv8-M Mainline target.
 133:Drivers/CMSIS/DSP/Include/arm_math.h ****    *
 134:Drivers/CMSIS/DSP/Include/arm_math.h ****    * - __FPU_PRESENT:
 135:Drivers/CMSIS/DSP/Include/arm_math.h ****    *
 136:Drivers/CMSIS/DSP/Include/arm_math.h ****    * Initialize macro __FPU_PRESENT = 1 when building on FPU supported Targets. Enable this macro f
 137:Drivers/CMSIS/DSP/Include/arm_math.h ****    *
 138:Drivers/CMSIS/DSP/Include/arm_math.h ****    * - __DSP_PRESENT:
 139:Drivers/CMSIS/DSP/Include/arm_math.h ****    *
 140:Drivers/CMSIS/DSP/Include/arm_math.h ****    * Initialize macro __DSP_PRESENT = 1 when Armv8-M Mainline core supports DSP instructions.
 141:Drivers/CMSIS/DSP/Include/arm_math.h ****    *
 142:Drivers/CMSIS/DSP/Include/arm_math.h ****    * <hr>
 143:Drivers/CMSIS/DSP/Include/arm_math.h ****    * CMSIS-DSP in ARM::CMSIS Pack
 144:Drivers/CMSIS/DSP/Include/arm_math.h ****    * -----------------------------
 145:Drivers/CMSIS/DSP/Include/arm_math.h ****    *
 146:Drivers/CMSIS/DSP/Include/arm_math.h ****    * The following files relevant to CMSIS-DSP are present in the <b>ARM::CMSIS</b> Pack directorie
 147:Drivers/CMSIS/DSP/Include/arm_math.h ****    * |File/Folder                   |Content                                                       
 148:Drivers/CMSIS/DSP/Include/arm_math.h ****    * |------------------------------|--------------------------------------------------------------
 149:Drivers/CMSIS/DSP/Include/arm_math.h ****    * |\b CMSIS\\Documentation\\DSP  | This documentation                                           
 150:Drivers/CMSIS/DSP/Include/arm_math.h ****    * |\b CMSIS\\DSP_Lib             | Software license agreement (license.txt)                     
 151:Drivers/CMSIS/DSP/Include/arm_math.h ****    * |\b CMSIS\\DSP_Lib\\Examples   | Example projects demonstrating the usage of the library funct
 152:Drivers/CMSIS/DSP/Include/arm_math.h ****    * |\b CMSIS\\DSP_Lib\\Source     | Source files for rebuilding the library                      
 153:Drivers/CMSIS/DSP/Include/arm_math.h ****    *
 154:Drivers/CMSIS/DSP/Include/arm_math.h ****    * <hr>
 155:Drivers/CMSIS/DSP/Include/arm_math.h ****    * Revision History of CMSIS-DSP
 156:Drivers/CMSIS/DSP/Include/arm_math.h ****    * ------------
 157:Drivers/CMSIS/DSP/Include/arm_math.h ****    * Please refer to \ref ChangeLog_pg.
 158:Drivers/CMSIS/DSP/Include/arm_math.h ****    *
 159:Drivers/CMSIS/DSP/Include/arm_math.h ****    * Copyright Notice
 160:Drivers/CMSIS/DSP/Include/arm_math.h ****    * ------------
 161:Drivers/CMSIS/DSP/Include/arm_math.h ****    *
 162:Drivers/CMSIS/DSP/Include/arm_math.h ****    * Copyright (C) 2010-2015 Arm Limited. All rights reserved.
 163:Drivers/CMSIS/DSP/Include/arm_math.h ****    */
 164:Drivers/CMSIS/DSP/Include/arm_math.h **** 
 165:Drivers/CMSIS/DSP/Include/arm_math.h **** /**
 166:Drivers/CMSIS/DSP/Include/arm_math.h ****  * @defgroup groupMath Basic Math Functions
 167:Drivers/CMSIS/DSP/Include/arm_math.h ****  */
 168:Drivers/CMSIS/DSP/Include/arm_math.h **** 
 169:Drivers/CMSIS/DSP/Include/arm_math.h **** /**
 170:Drivers/CMSIS/DSP/Include/arm_math.h ****  * @defgroup groupFastMath Fast Math Functions
 171:Drivers/CMSIS/DSP/Include/arm_math.h ****  * This set of functions provides a fast approximation to sine, cosine, and square root.
 172:Drivers/CMSIS/DSP/Include/arm_math.h ****  * As compared to most of the other functions in the CMSIS math library, the fast math functions
 173:Drivers/CMSIS/DSP/Include/arm_math.h ****  * operate on individual values and not arrays.
 174:Drivers/CMSIS/DSP/Include/arm_math.h ****  * There are separate functions for Q15, Q31, and floating-point data.
 175:Drivers/CMSIS/DSP/Include/arm_math.h ****  *
 176:Drivers/CMSIS/DSP/Include/arm_math.h ****  */
 177:Drivers/CMSIS/DSP/Include/arm_math.h **** 
 178:Drivers/CMSIS/DSP/Include/arm_math.h **** /**
 179:Drivers/CMSIS/DSP/Include/arm_math.h ****  * @defgroup groupCmplxMath Complex Math Functions
 180:Drivers/CMSIS/DSP/Include/arm_math.h ****  * This set of functions operates on complex data vectors.
 181:Drivers/CMSIS/DSP/Include/arm_math.h ****  * The data in the complex arrays is stored in an interleaved fashion
 182:Drivers/CMSIS/DSP/Include/arm_math.h ****  * (real, imag, real, imag, ...).
 183:Drivers/CMSIS/DSP/Include/arm_math.h ****  * In the API functions, the number of samples in a complex array refers
ARM GAS  /var/folders/n6/c271nzx11xl4r4_m7sqjlt0m0000gn/T//ccoJhJ7k.s 			page 10


 184:Drivers/CMSIS/DSP/Include/arm_math.h ****  * to the number of complex values; the array contains twice this number of
 185:Drivers/CMSIS/DSP/Include/arm_math.h ****  * real values.
 186:Drivers/CMSIS/DSP/Include/arm_math.h ****  */
 187:Drivers/CMSIS/DSP/Include/arm_math.h **** 
 188:Drivers/CMSIS/DSP/Include/arm_math.h **** /**
 189:Drivers/CMSIS/DSP/Include/arm_math.h ****  * @defgroup groupFilters Filtering Functions
 190:Drivers/CMSIS/DSP/Include/arm_math.h ****  */
 191:Drivers/CMSIS/DSP/Include/arm_math.h **** 
 192:Drivers/CMSIS/DSP/Include/arm_math.h **** /**
 193:Drivers/CMSIS/DSP/Include/arm_math.h ****  * @defgroup groupMatrix Matrix Functions
 194:Drivers/CMSIS/DSP/Include/arm_math.h ****  *
 195:Drivers/CMSIS/DSP/Include/arm_math.h ****  * This set of functions provides basic matrix math operations.
 196:Drivers/CMSIS/DSP/Include/arm_math.h ****  * The functions operate on matrix data structures.  For example,
 197:Drivers/CMSIS/DSP/Include/arm_math.h ****  * the type
 198:Drivers/CMSIS/DSP/Include/arm_math.h ****  * definition for the floating-point matrix structure is shown
 199:Drivers/CMSIS/DSP/Include/arm_math.h ****  * below:
 200:Drivers/CMSIS/DSP/Include/arm_math.h ****  * <pre>
 201:Drivers/CMSIS/DSP/Include/arm_math.h ****  *     typedef struct
 202:Drivers/CMSIS/DSP/Include/arm_math.h ****  *     {
 203:Drivers/CMSIS/DSP/Include/arm_math.h ****  *       uint16_t numRows;     // number of rows of the matrix.
 204:Drivers/CMSIS/DSP/Include/arm_math.h ****  *       uint16_t numCols;     // number of columns of the matrix.
 205:Drivers/CMSIS/DSP/Include/arm_math.h ****  *       float32_t *pData;     // points to the data of the matrix.
 206:Drivers/CMSIS/DSP/Include/arm_math.h ****  *     } arm_matrix_instance_f32;
 207:Drivers/CMSIS/DSP/Include/arm_math.h ****  * </pre>
 208:Drivers/CMSIS/DSP/Include/arm_math.h ****  * There are similar definitions for Q15 and Q31 data types.
 209:Drivers/CMSIS/DSP/Include/arm_math.h ****  *
 210:Drivers/CMSIS/DSP/Include/arm_math.h ****  * The structure specifies the size of the matrix and then points to
 211:Drivers/CMSIS/DSP/Include/arm_math.h ****  * an array of data.  The array is of size <code>numRows X numCols</code>
 212:Drivers/CMSIS/DSP/Include/arm_math.h ****  * and the values are arranged in row order.  That is, the
 213:Drivers/CMSIS/DSP/Include/arm_math.h ****  * matrix element (i, j) is stored at:
 214:Drivers/CMSIS/DSP/Include/arm_math.h ****  * <pre>
 215:Drivers/CMSIS/DSP/Include/arm_math.h ****  *     pData[i*numCols + j]
 216:Drivers/CMSIS/DSP/Include/arm_math.h ****  * </pre>
 217:Drivers/CMSIS/DSP/Include/arm_math.h ****  *
 218:Drivers/CMSIS/DSP/Include/arm_math.h ****  * \par Init Functions
 219:Drivers/CMSIS/DSP/Include/arm_math.h ****  * There is an associated initialization function for each type of matrix
 220:Drivers/CMSIS/DSP/Include/arm_math.h ****  * data structure.
 221:Drivers/CMSIS/DSP/Include/arm_math.h ****  * The initialization function sets the values of the internal structure fields.
 222:Drivers/CMSIS/DSP/Include/arm_math.h ****  * Refer to the function <code>arm_mat_init_f32()</code>, <code>arm_mat_init_q31()</code>
 223:Drivers/CMSIS/DSP/Include/arm_math.h ****  * and <code>arm_mat_init_q15()</code> for floating-point, Q31 and Q15 types,  respectively.
 224:Drivers/CMSIS/DSP/Include/arm_math.h ****  *
 225:Drivers/CMSIS/DSP/Include/arm_math.h ****  * \par
 226:Drivers/CMSIS/DSP/Include/arm_math.h ****  * Use of the initialization function is optional. However, if initialization function is used
 227:Drivers/CMSIS/DSP/Include/arm_math.h ****  * then the instance structure cannot be placed into a const data section.
 228:Drivers/CMSIS/DSP/Include/arm_math.h ****  * To place the instance structure in a const data
 229:Drivers/CMSIS/DSP/Include/arm_math.h ****  * section, manually initialize the data structure.  For example:
 230:Drivers/CMSIS/DSP/Include/arm_math.h ****  * <pre>
 231:Drivers/CMSIS/DSP/Include/arm_math.h ****  * <code>arm_matrix_instance_f32 S = {nRows, nColumns, pData};</code>
 232:Drivers/CMSIS/DSP/Include/arm_math.h ****  * <code>arm_matrix_instance_q31 S = {nRows, nColumns, pData};</code>
 233:Drivers/CMSIS/DSP/Include/arm_math.h ****  * <code>arm_matrix_instance_q15 S = {nRows, nColumns, pData};</code>
 234:Drivers/CMSIS/DSP/Include/arm_math.h ****  * </pre>
 235:Drivers/CMSIS/DSP/Include/arm_math.h ****  * where <code>nRows</code> specifies the number of rows, <code>nColumns</code>
 236:Drivers/CMSIS/DSP/Include/arm_math.h ****  * specifies the number of columns, and <code>pData</code> points to the
 237:Drivers/CMSIS/DSP/Include/arm_math.h ****  * data array.
 238:Drivers/CMSIS/DSP/Include/arm_math.h ****  *
 239:Drivers/CMSIS/DSP/Include/arm_math.h ****  * \par Size Checking
 240:Drivers/CMSIS/DSP/Include/arm_math.h ****  * By default all of the matrix functions perform size checking on the input and
ARM GAS  /var/folders/n6/c271nzx11xl4r4_m7sqjlt0m0000gn/T//ccoJhJ7k.s 			page 11


 241:Drivers/CMSIS/DSP/Include/arm_math.h ****  * output matrices. For example, the matrix addition function verifies that the
 242:Drivers/CMSIS/DSP/Include/arm_math.h ****  * two input matrices and the output matrix all have the same number of rows and
 243:Drivers/CMSIS/DSP/Include/arm_math.h ****  * columns. If the size check fails the functions return:
 244:Drivers/CMSIS/DSP/Include/arm_math.h ****  * <pre>
 245:Drivers/CMSIS/DSP/Include/arm_math.h ****  *     ARM_MATH_SIZE_MISMATCH
 246:Drivers/CMSIS/DSP/Include/arm_math.h ****  * </pre>
 247:Drivers/CMSIS/DSP/Include/arm_math.h ****  * Otherwise the functions return
 248:Drivers/CMSIS/DSP/Include/arm_math.h ****  * <pre>
 249:Drivers/CMSIS/DSP/Include/arm_math.h ****  *     ARM_MATH_SUCCESS
 250:Drivers/CMSIS/DSP/Include/arm_math.h ****  * </pre>
 251:Drivers/CMSIS/DSP/Include/arm_math.h ****  * There is some overhead associated with this matrix size checking.
 252:Drivers/CMSIS/DSP/Include/arm_math.h ****  * The matrix size checking is enabled via the \#define
 253:Drivers/CMSIS/DSP/Include/arm_math.h ****  * <pre>
 254:Drivers/CMSIS/DSP/Include/arm_math.h ****  *     ARM_MATH_MATRIX_CHECK
 255:Drivers/CMSIS/DSP/Include/arm_math.h ****  * </pre>
 256:Drivers/CMSIS/DSP/Include/arm_math.h ****  * within the library project settings.  By default this macro is defined
 257:Drivers/CMSIS/DSP/Include/arm_math.h ****  * and size checking is enabled. By changing the project settings and
 258:Drivers/CMSIS/DSP/Include/arm_math.h ****  * undefining this macro size checking is eliminated and the functions
 259:Drivers/CMSIS/DSP/Include/arm_math.h ****  * run a bit faster. With size checking disabled the functions always
 260:Drivers/CMSIS/DSP/Include/arm_math.h ****  * return <code>ARM_MATH_SUCCESS</code>.
 261:Drivers/CMSIS/DSP/Include/arm_math.h ****  */
 262:Drivers/CMSIS/DSP/Include/arm_math.h **** 
 263:Drivers/CMSIS/DSP/Include/arm_math.h **** /**
 264:Drivers/CMSIS/DSP/Include/arm_math.h ****  * @defgroup groupTransforms Transform Functions
 265:Drivers/CMSIS/DSP/Include/arm_math.h ****  */
 266:Drivers/CMSIS/DSP/Include/arm_math.h **** 
 267:Drivers/CMSIS/DSP/Include/arm_math.h **** /**
 268:Drivers/CMSIS/DSP/Include/arm_math.h ****  * @defgroup groupController Controller Functions
 269:Drivers/CMSIS/DSP/Include/arm_math.h ****  */
 270:Drivers/CMSIS/DSP/Include/arm_math.h **** 
 271:Drivers/CMSIS/DSP/Include/arm_math.h **** /**
 272:Drivers/CMSIS/DSP/Include/arm_math.h ****  * @defgroup groupStats Statistics Functions
 273:Drivers/CMSIS/DSP/Include/arm_math.h ****  */
 274:Drivers/CMSIS/DSP/Include/arm_math.h **** /**
 275:Drivers/CMSIS/DSP/Include/arm_math.h ****  * @defgroup groupSupport Support Functions
 276:Drivers/CMSIS/DSP/Include/arm_math.h ****  */
 277:Drivers/CMSIS/DSP/Include/arm_math.h **** 
 278:Drivers/CMSIS/DSP/Include/arm_math.h **** /**
 279:Drivers/CMSIS/DSP/Include/arm_math.h ****  * @defgroup groupInterpolation Interpolation Functions
 280:Drivers/CMSIS/DSP/Include/arm_math.h ****  * These functions perform 1- and 2-dimensional interpolation of data.
 281:Drivers/CMSIS/DSP/Include/arm_math.h ****  * Linear interpolation is used for 1-dimensional data and
 282:Drivers/CMSIS/DSP/Include/arm_math.h ****  * bilinear interpolation is used for 2-dimensional data.
 283:Drivers/CMSIS/DSP/Include/arm_math.h ****  */
 284:Drivers/CMSIS/DSP/Include/arm_math.h **** 
 285:Drivers/CMSIS/DSP/Include/arm_math.h **** /**
 286:Drivers/CMSIS/DSP/Include/arm_math.h ****  * @defgroup groupExamples Examples
 287:Drivers/CMSIS/DSP/Include/arm_math.h ****  */
 288:Drivers/CMSIS/DSP/Include/arm_math.h **** #ifndef _ARM_MATH_H
 289:Drivers/CMSIS/DSP/Include/arm_math.h **** #define _ARM_MATH_H
 290:Drivers/CMSIS/DSP/Include/arm_math.h **** 
 291:Drivers/CMSIS/DSP/Include/arm_math.h **** /* Compiler specific diagnostic adjustment */
 292:Drivers/CMSIS/DSP/Include/arm_math.h **** #if defined(__CC_ARM)
 293:Drivers/CMSIS/DSP/Include/arm_math.h **** 
 294:Drivers/CMSIS/DSP/Include/arm_math.h **** #elif defined(__ARMCC_VERSION) && (__ARMCC_VERSION >= 6010050)
 295:Drivers/CMSIS/DSP/Include/arm_math.h **** 
 296:Drivers/CMSIS/DSP/Include/arm_math.h **** #elif defined(__GNUC__)
 297:Drivers/CMSIS/DSP/Include/arm_math.h **** #pragma GCC diagnostic push
ARM GAS  /var/folders/n6/c271nzx11xl4r4_m7sqjlt0m0000gn/T//ccoJhJ7k.s 			page 12


 298:Drivers/CMSIS/DSP/Include/arm_math.h **** #pragma GCC diagnostic ignored "-Wsign-conversion"
 299:Drivers/CMSIS/DSP/Include/arm_math.h **** #pragma GCC diagnostic ignored "-Wconversion"
 300:Drivers/CMSIS/DSP/Include/arm_math.h **** #pragma GCC diagnostic ignored "-Wunused-parameter"
 301:Drivers/CMSIS/DSP/Include/arm_math.h **** 
 302:Drivers/CMSIS/DSP/Include/arm_math.h **** #elif defined(__ICCARM__)
 303:Drivers/CMSIS/DSP/Include/arm_math.h **** 
 304:Drivers/CMSIS/DSP/Include/arm_math.h **** #elif defined(__TI_ARM__)
 305:Drivers/CMSIS/DSP/Include/arm_math.h **** 
 306:Drivers/CMSIS/DSP/Include/arm_math.h **** #elif defined(__CSMC__)
 307:Drivers/CMSIS/DSP/Include/arm_math.h **** 
 308:Drivers/CMSIS/DSP/Include/arm_math.h **** #elif defined(__TASKING__)
 309:Drivers/CMSIS/DSP/Include/arm_math.h **** 
 310:Drivers/CMSIS/DSP/Include/arm_math.h **** #else
 311:Drivers/CMSIS/DSP/Include/arm_math.h **** #error Unknown compiler
 312:Drivers/CMSIS/DSP/Include/arm_math.h **** #endif
 313:Drivers/CMSIS/DSP/Include/arm_math.h **** #define ARM_MATH_CM7
 314:Drivers/CMSIS/DSP/Include/arm_math.h **** 
 315:Drivers/CMSIS/DSP/Include/arm_math.h **** #define __CMSIS_GENERIC /* disable NVIC and Systick functions */
 316:Drivers/CMSIS/DSP/Include/arm_math.h **** 
 317:Drivers/CMSIS/DSP/Include/arm_math.h **** #if defined(ARM_MATH_CM7)
 318:Drivers/CMSIS/DSP/Include/arm_math.h **** #include "core_cm7.h"
 319:Drivers/CMSIS/DSP/Include/arm_math.h **** #define ARM_MATH_DSP
 320:Drivers/CMSIS/DSP/Include/arm_math.h **** #elif defined(ARM_MATH_CM4)
 321:Drivers/CMSIS/DSP/Include/arm_math.h **** #include "core_cm4.h"
 322:Drivers/CMSIS/DSP/Include/arm_math.h **** #define ARM_MATH_DSP
 323:Drivers/CMSIS/DSP/Include/arm_math.h **** #elif defined(ARM_MATH_CM3)
 324:Drivers/CMSIS/DSP/Include/arm_math.h **** #include "core_cm3.h"
 325:Drivers/CMSIS/DSP/Include/arm_math.h **** #elif defined(ARM_MATH_CM0)
 326:Drivers/CMSIS/DSP/Include/arm_math.h **** #include "core_cm0.h"
 327:Drivers/CMSIS/DSP/Include/arm_math.h **** #define ARM_MATH_CM0_FAMILY
 328:Drivers/CMSIS/DSP/Include/arm_math.h **** #elif defined(ARM_MATH_CM0PLUS)
 329:Drivers/CMSIS/DSP/Include/arm_math.h **** #include "core_cm0plus.h"
 330:Drivers/CMSIS/DSP/Include/arm_math.h **** #define ARM_MATH_CM0_FAMILY
 331:Drivers/CMSIS/DSP/Include/arm_math.h **** #elif defined(ARM_MATH_ARMV8MBL)
 332:Drivers/CMSIS/DSP/Include/arm_math.h **** #include "core_armv8mbl.h"
 333:Drivers/CMSIS/DSP/Include/arm_math.h **** #define ARM_MATH_CM0_FAMILY
 334:Drivers/CMSIS/DSP/Include/arm_math.h **** #elif defined(ARM_MATH_ARMV8MML)
 335:Drivers/CMSIS/DSP/Include/arm_math.h **** #include "core_armv8mml.h"
 336:Drivers/CMSIS/DSP/Include/arm_math.h **** #if (defined(__DSP_PRESENT) && (__DSP_PRESENT == 1))
 337:Drivers/CMSIS/DSP/Include/arm_math.h **** #define ARM_MATH_DSP
 338:Drivers/CMSIS/DSP/Include/arm_math.h **** #endif
 339:Drivers/CMSIS/DSP/Include/arm_math.h **** #else
 340:Drivers/CMSIS/DSP/Include/arm_math.h **** #error "Define according the used Cortex core ARM_MATH_CM7, ARM_MATH_CM4, ARM_MATH_CM3, ARM_MATH_CM
 341:Drivers/CMSIS/DSP/Include/arm_math.h **** #endif
 342:Drivers/CMSIS/DSP/Include/arm_math.h **** 
 343:Drivers/CMSIS/DSP/Include/arm_math.h **** #undef __CMSIS_GENERIC /* enable NVIC and Systick functions */
 344:Drivers/CMSIS/DSP/Include/arm_math.h **** #include "string.h"
 345:Drivers/CMSIS/DSP/Include/arm_math.h **** #include "math.h"
 346:Drivers/CMSIS/DSP/Include/arm_math.h **** #ifdef __cplusplus
 347:Drivers/CMSIS/DSP/Include/arm_math.h **** extern "C"
 348:Drivers/CMSIS/DSP/Include/arm_math.h **** {
 349:Drivers/CMSIS/DSP/Include/arm_math.h **** #endif
 350:Drivers/CMSIS/DSP/Include/arm_math.h **** 
 351:Drivers/CMSIS/DSP/Include/arm_math.h ****   /**
 352:Drivers/CMSIS/DSP/Include/arm_math.h ****    * @brief Macros required for reciprocal calculation in Normalized LMS
 353:Drivers/CMSIS/DSP/Include/arm_math.h ****    */
 354:Drivers/CMSIS/DSP/Include/arm_math.h **** 
ARM GAS  /var/folders/n6/c271nzx11xl4r4_m7sqjlt0m0000gn/T//ccoJhJ7k.s 			page 13


 355:Drivers/CMSIS/DSP/Include/arm_math.h **** #define DELTA_Q31 (0x100)
 356:Drivers/CMSIS/DSP/Include/arm_math.h **** #define DELTA_Q15 0x5
 357:Drivers/CMSIS/DSP/Include/arm_math.h **** #define INDEX_MASK 0x0000003F
 358:Drivers/CMSIS/DSP/Include/arm_math.h **** #ifndef PI
 359:Drivers/CMSIS/DSP/Include/arm_math.h **** #define PI 3.14159265358979f
 360:Drivers/CMSIS/DSP/Include/arm_math.h **** #endif
 361:Drivers/CMSIS/DSP/Include/arm_math.h **** 
 362:Drivers/CMSIS/DSP/Include/arm_math.h ****   /**
 363:Drivers/CMSIS/DSP/Include/arm_math.h ****    * @brief Macros required for SINE and COSINE Fast math approximations
 364:Drivers/CMSIS/DSP/Include/arm_math.h ****    */
 365:Drivers/CMSIS/DSP/Include/arm_math.h **** 
 366:Drivers/CMSIS/DSP/Include/arm_math.h **** #define FAST_MATH_TABLE_SIZE 512
 367:Drivers/CMSIS/DSP/Include/arm_math.h **** #define FAST_MATH_Q31_SHIFT (32 - 10)
 368:Drivers/CMSIS/DSP/Include/arm_math.h **** #define FAST_MATH_Q15_SHIFT (16 - 10)
 369:Drivers/CMSIS/DSP/Include/arm_math.h **** #define CONTROLLER_Q31_SHIFT (32 - 9)
 370:Drivers/CMSIS/DSP/Include/arm_math.h **** #define TABLE_SPACING_Q31 0x400000
 371:Drivers/CMSIS/DSP/Include/arm_math.h **** #define TABLE_SPACING_Q15 0x80
 372:Drivers/CMSIS/DSP/Include/arm_math.h **** 
 373:Drivers/CMSIS/DSP/Include/arm_math.h ****   /**
 374:Drivers/CMSIS/DSP/Include/arm_math.h ****    * @brief Macros required for SINE and COSINE Controller functions
 375:Drivers/CMSIS/DSP/Include/arm_math.h ****    */
 376:Drivers/CMSIS/DSP/Include/arm_math.h ****   /* 1.31(q31) Fixed value of 2/360 */
 377:Drivers/CMSIS/DSP/Include/arm_math.h ****   /* -1 to +1 is divided into 360 values so total spacing is (2/360) */
 378:Drivers/CMSIS/DSP/Include/arm_math.h **** #define INPUT_SPACING 0xB60B61
 379:Drivers/CMSIS/DSP/Include/arm_math.h **** 
 380:Drivers/CMSIS/DSP/Include/arm_math.h ****   /**
 381:Drivers/CMSIS/DSP/Include/arm_math.h ****    * @brief Macro for Unaligned Support
 382:Drivers/CMSIS/DSP/Include/arm_math.h ****    */
 383:Drivers/CMSIS/DSP/Include/arm_math.h **** #ifndef UNALIGNED_SUPPORT_DISABLE
 384:Drivers/CMSIS/DSP/Include/arm_math.h **** #define ALIGN4
 385:Drivers/CMSIS/DSP/Include/arm_math.h **** #else
 386:Drivers/CMSIS/DSP/Include/arm_math.h **** #if defined(__GNUC__)
 387:Drivers/CMSIS/DSP/Include/arm_math.h **** #define ALIGN4 __attribute__((aligned(4)))
 388:Drivers/CMSIS/DSP/Include/arm_math.h **** #else
 389:Drivers/CMSIS/DSP/Include/arm_math.h **** #define ALIGN4 __align(4)
 390:Drivers/CMSIS/DSP/Include/arm_math.h **** #endif
 391:Drivers/CMSIS/DSP/Include/arm_math.h **** #endif /* #ifndef UNALIGNED_SUPPORT_DISABLE */
 392:Drivers/CMSIS/DSP/Include/arm_math.h **** 
 393:Drivers/CMSIS/DSP/Include/arm_math.h ****   /**
 394:Drivers/CMSIS/DSP/Include/arm_math.h ****    * @brief Error status returned by some functions in the library.
 395:Drivers/CMSIS/DSP/Include/arm_math.h ****    */
 396:Drivers/CMSIS/DSP/Include/arm_math.h **** 
 397:Drivers/CMSIS/DSP/Include/arm_math.h ****   typedef enum
 398:Drivers/CMSIS/DSP/Include/arm_math.h ****   {
 399:Drivers/CMSIS/DSP/Include/arm_math.h ****     ARM_MATH_SUCCESS = 0,         /**< No error */
 400:Drivers/CMSIS/DSP/Include/arm_math.h ****     ARM_MATH_ARGUMENT_ERROR = -1, /**< One or more arguments are incorrect */
 401:Drivers/CMSIS/DSP/Include/arm_math.h ****     ARM_MATH_LENGTH_ERROR = -2,   /**< Length of data buffer is incorrect */
 402:Drivers/CMSIS/DSP/Include/arm_math.h ****     ARM_MATH_SIZE_MISMATCH = -3,  /**< Size of matrices is not compatible with the operation. */
 403:Drivers/CMSIS/DSP/Include/arm_math.h ****     ARM_MATH_NANINF = -4,         /**< Not-a-number (NaN) or infinity is generated */
 404:Drivers/CMSIS/DSP/Include/arm_math.h ****     ARM_MATH_SINGULAR = -5,       /**< Generated by matrix inversion if the input matrix is singula
 405:Drivers/CMSIS/DSP/Include/arm_math.h ****     ARM_MATH_TEST_FAILURE = -6    /**< Test Failed  */
 406:Drivers/CMSIS/DSP/Include/arm_math.h ****   } arm_status;
 407:Drivers/CMSIS/DSP/Include/arm_math.h **** 
 408:Drivers/CMSIS/DSP/Include/arm_math.h ****   /**
 409:Drivers/CMSIS/DSP/Include/arm_math.h ****    * @brief 8-bit fractional data type in 1.7 format.
 410:Drivers/CMSIS/DSP/Include/arm_math.h ****    */
 411:Drivers/CMSIS/DSP/Include/arm_math.h ****   typedef int8_t q7_t;
ARM GAS  /var/folders/n6/c271nzx11xl4r4_m7sqjlt0m0000gn/T//ccoJhJ7k.s 			page 14


 412:Drivers/CMSIS/DSP/Include/arm_math.h **** 
 413:Drivers/CMSIS/DSP/Include/arm_math.h ****   /**
 414:Drivers/CMSIS/DSP/Include/arm_math.h ****    * @brief 16-bit fractional data type in 1.15 format.
 415:Drivers/CMSIS/DSP/Include/arm_math.h ****    */
 416:Drivers/CMSIS/DSP/Include/arm_math.h ****   typedef int16_t q15_t;
 417:Drivers/CMSIS/DSP/Include/arm_math.h **** 
 418:Drivers/CMSIS/DSP/Include/arm_math.h ****   /**
 419:Drivers/CMSIS/DSP/Include/arm_math.h ****    * @brief 32-bit fractional data type in 1.31 format.
 420:Drivers/CMSIS/DSP/Include/arm_math.h ****    */
 421:Drivers/CMSIS/DSP/Include/arm_math.h ****   typedef int32_t q31_t;
 422:Drivers/CMSIS/DSP/Include/arm_math.h **** 
 423:Drivers/CMSIS/DSP/Include/arm_math.h ****   /**
 424:Drivers/CMSIS/DSP/Include/arm_math.h ****    * @brief 64-bit fractional data type in 1.63 format.
 425:Drivers/CMSIS/DSP/Include/arm_math.h ****    */
 426:Drivers/CMSIS/DSP/Include/arm_math.h ****   typedef int64_t q63_t;
 427:Drivers/CMSIS/DSP/Include/arm_math.h **** 
 428:Drivers/CMSIS/DSP/Include/arm_math.h ****   /**
 429:Drivers/CMSIS/DSP/Include/arm_math.h ****    * @brief 32-bit floating-point type definition.
 430:Drivers/CMSIS/DSP/Include/arm_math.h ****    */
 431:Drivers/CMSIS/DSP/Include/arm_math.h ****   typedef float float32_t;
 432:Drivers/CMSIS/DSP/Include/arm_math.h **** 
 433:Drivers/CMSIS/DSP/Include/arm_math.h ****   /**
 434:Drivers/CMSIS/DSP/Include/arm_math.h ****    * @brief 64-bit floating-point type definition.
 435:Drivers/CMSIS/DSP/Include/arm_math.h ****    */
 436:Drivers/CMSIS/DSP/Include/arm_math.h ****   typedef double float64_t;
 437:Drivers/CMSIS/DSP/Include/arm_math.h **** 
 438:Drivers/CMSIS/DSP/Include/arm_math.h ****   /**
 439:Drivers/CMSIS/DSP/Include/arm_math.h ****    * @brief definition to read/write two 16 bit values.
 440:Drivers/CMSIS/DSP/Include/arm_math.h ****    */
 441:Drivers/CMSIS/DSP/Include/arm_math.h **** #if defined(__CC_ARM)
 442:Drivers/CMSIS/DSP/Include/arm_math.h **** #define __SIMD32_TYPE int32_t __packed
 443:Drivers/CMSIS/DSP/Include/arm_math.h **** #define CMSIS_UNUSED __attribute__((unused))
 444:Drivers/CMSIS/DSP/Include/arm_math.h **** #define CMSIS_INLINE __attribute__((always_inline))
 445:Drivers/CMSIS/DSP/Include/arm_math.h **** 
 446:Drivers/CMSIS/DSP/Include/arm_math.h **** #elif defined(__ARMCC_VERSION) && (__ARMCC_VERSION >= 6010050)
 447:Drivers/CMSIS/DSP/Include/arm_math.h **** #define __SIMD32_TYPE int32_t
 448:Drivers/CMSIS/DSP/Include/arm_math.h **** #define CMSIS_UNUSED __attribute__((unused))
 449:Drivers/CMSIS/DSP/Include/arm_math.h **** #define CMSIS_INLINE __attribute__((always_inline))
 450:Drivers/CMSIS/DSP/Include/arm_math.h **** 
 451:Drivers/CMSIS/DSP/Include/arm_math.h **** #elif defined(__GNUC__)
 452:Drivers/CMSIS/DSP/Include/arm_math.h **** #define __SIMD32_TYPE int32_t
 453:Drivers/CMSIS/DSP/Include/arm_math.h **** #define CMSIS_UNUSED __attribute__((unused))
 454:Drivers/CMSIS/DSP/Include/arm_math.h **** #define CMSIS_INLINE __attribute__((always_inline))
 455:Drivers/CMSIS/DSP/Include/arm_math.h **** 
 456:Drivers/CMSIS/DSP/Include/arm_math.h **** #elif defined(__ICCARM__)
 457:Drivers/CMSIS/DSP/Include/arm_math.h **** #define __SIMD32_TYPE int32_t __packed
 458:Drivers/CMSIS/DSP/Include/arm_math.h **** #define CMSIS_UNUSED
 459:Drivers/CMSIS/DSP/Include/arm_math.h **** #define CMSIS_INLINE
 460:Drivers/CMSIS/DSP/Include/arm_math.h **** 
 461:Drivers/CMSIS/DSP/Include/arm_math.h **** #elif defined(__TI_ARM__)
 462:Drivers/CMSIS/DSP/Include/arm_math.h **** #define __SIMD32_TYPE int32_t
 463:Drivers/CMSIS/DSP/Include/arm_math.h **** #define CMSIS_UNUSED __attribute__((unused))
 464:Drivers/CMSIS/DSP/Include/arm_math.h **** #define CMSIS_INLINE
 465:Drivers/CMSIS/DSP/Include/arm_math.h **** 
 466:Drivers/CMSIS/DSP/Include/arm_math.h **** #elif defined(__CSMC__)
 467:Drivers/CMSIS/DSP/Include/arm_math.h **** #define __SIMD32_TYPE int32_t
 468:Drivers/CMSIS/DSP/Include/arm_math.h **** #define CMSIS_UNUSED
ARM GAS  /var/folders/n6/c271nzx11xl4r4_m7sqjlt0m0000gn/T//ccoJhJ7k.s 			page 15


 469:Drivers/CMSIS/DSP/Include/arm_math.h **** #define CMSIS_INLINE
 470:Drivers/CMSIS/DSP/Include/arm_math.h **** 
 471:Drivers/CMSIS/DSP/Include/arm_math.h **** #elif defined(__TASKING__)
 472:Drivers/CMSIS/DSP/Include/arm_math.h **** #define __SIMD32_TYPE __unaligned int32_t
 473:Drivers/CMSIS/DSP/Include/arm_math.h **** #define CMSIS_UNUSED
 474:Drivers/CMSIS/DSP/Include/arm_math.h **** #define CMSIS_INLINE
 475:Drivers/CMSIS/DSP/Include/arm_math.h **** 
 476:Drivers/CMSIS/DSP/Include/arm_math.h **** #else
 477:Drivers/CMSIS/DSP/Include/arm_math.h **** #error Unknown compiler
 478:Drivers/CMSIS/DSP/Include/arm_math.h **** #endif
 479:Drivers/CMSIS/DSP/Include/arm_math.h **** 
 480:Drivers/CMSIS/DSP/Include/arm_math.h **** #define __SIMD32(addr) (*(__SIMD32_TYPE **)&(addr))
 481:Drivers/CMSIS/DSP/Include/arm_math.h **** #define __SIMD32_CONST(addr) ((__SIMD32_TYPE *)(addr))
 482:Drivers/CMSIS/DSP/Include/arm_math.h **** #define _SIMD32_OFFSET(addr) (*(__SIMD32_TYPE *)(addr))
 483:Drivers/CMSIS/DSP/Include/arm_math.h **** #define __SIMD64(addr) (*(int64_t **)&(addr))
 484:Drivers/CMSIS/DSP/Include/arm_math.h **** 
 485:Drivers/CMSIS/DSP/Include/arm_math.h **** #if !defined(ARM_MATH_DSP)
 486:Drivers/CMSIS/DSP/Include/arm_math.h ****   /**
 487:Drivers/CMSIS/DSP/Include/arm_math.h ****    * @brief definition to pack two 16 bit values.
 488:Drivers/CMSIS/DSP/Include/arm_math.h ****    */
 489:Drivers/CMSIS/DSP/Include/arm_math.h **** #define __PKHBT(ARG1, ARG2, ARG3) ((((int32_t)(ARG1) << 0) & (int32_t)0x0000FFFF) | \
 490:Drivers/CMSIS/DSP/Include/arm_math.h ****                                    (((int32_t)(ARG2) << ARG3) & (int32_t)0xFFFF0000))
 491:Drivers/CMSIS/DSP/Include/arm_math.h **** #define __PKHTB(ARG1, ARG2, ARG3) ((((int32_t)(ARG1) << 0) & (int32_t)0xFFFF0000) | \
 492:Drivers/CMSIS/DSP/Include/arm_math.h ****                                    (((int32_t)(ARG2) >> ARG3) & (int32_t)0x0000FFFF))
 493:Drivers/CMSIS/DSP/Include/arm_math.h **** 
 494:Drivers/CMSIS/DSP/Include/arm_math.h **** #endif /* !defined (ARM_MATH_DSP) */
 495:Drivers/CMSIS/DSP/Include/arm_math.h **** 
 496:Drivers/CMSIS/DSP/Include/arm_math.h ****   /**
 497:Drivers/CMSIS/DSP/Include/arm_math.h ****    * @brief definition to pack four 8 bit values.
 498:Drivers/CMSIS/DSP/Include/arm_math.h ****    */
 499:Drivers/CMSIS/DSP/Include/arm_math.h **** #ifndef ARM_MATH_BIG_ENDIAN
 500:Drivers/CMSIS/DSP/Include/arm_math.h **** 
 501:Drivers/CMSIS/DSP/Include/arm_math.h **** #define __PACKq7(v0, v1, v2, v3) ((((int32_t)(v0) << 0) & (int32_t)0x000000FF) |  \
 502:Drivers/CMSIS/DSP/Include/arm_math.h ****                                   (((int32_t)(v1) << 8) & (int32_t)0x0000FF00) |  \
 503:Drivers/CMSIS/DSP/Include/arm_math.h ****                                   (((int32_t)(v2) << 16) & (int32_t)0x00FF0000) | \
 504:Drivers/CMSIS/DSP/Include/arm_math.h ****                                   (((int32_t)(v3) << 24) & (int32_t)0xFF000000))
 505:Drivers/CMSIS/DSP/Include/arm_math.h **** #else
 506:Drivers/CMSIS/DSP/Include/arm_math.h **** 
 507:Drivers/CMSIS/DSP/Include/arm_math.h **** #define __PACKq7(v0, v1, v2, v3) ((((int32_t)(v3) << 0) & (int32_t)0x000000FF) |  \
 508:Drivers/CMSIS/DSP/Include/arm_math.h ****                                   (((int32_t)(v2) << 8) & (int32_t)0x0000FF00) |  \
 509:Drivers/CMSIS/DSP/Include/arm_math.h ****                                   (((int32_t)(v1) << 16) & (int32_t)0x00FF0000) | \
 510:Drivers/CMSIS/DSP/Include/arm_math.h ****                                   (((int32_t)(v0) << 24) & (int32_t)0xFF000000))
 511:Drivers/CMSIS/DSP/Include/arm_math.h **** 
 512:Drivers/CMSIS/DSP/Include/arm_math.h **** #endif
 513:Drivers/CMSIS/DSP/Include/arm_math.h **** 
 514:Drivers/CMSIS/DSP/Include/arm_math.h ****   /**
 515:Drivers/CMSIS/DSP/Include/arm_math.h ****    * @brief Clips Q63 to Q31 values.
 516:Drivers/CMSIS/DSP/Include/arm_math.h ****    */
 517:Drivers/CMSIS/DSP/Include/arm_math.h ****   CMSIS_INLINE __STATIC_INLINE q31_t clip_q63_to_q31(
 196              		.loc 2 517 38 is_stmt 1 view .LVU63
 197              	.LBB5:
 518:Drivers/CMSIS/DSP/Include/arm_math.h ****       q63_t x)
 519:Drivers/CMSIS/DSP/Include/arm_math.h ****   {
 520:Drivers/CMSIS/DSP/Include/arm_math.h ****     return ((q31_t)(x >> 32) != ((q31_t)x >> 31)) ? ((0x7FFFFFFF ^ ((q31_t)(x >> 63)))) : (q31_t)x;
 198              		.loc 2 520 5 view .LVU64
 199              		.loc 2 520 23 is_stmt 0 view .LVU65
 200 00a6 CA17     		asrs	r2, r1, #31
ARM GAS  /var/folders/n6/c271nzx11xl4r4_m7sqjlt0m0000gn/T//ccoJhJ7k.s 			page 16


 201              	.LVL29:
 202              		.loc 2 520 34 view .LVU66
 203 00a8 1846     		mov	r0, r3
 204              		.loc 2 520 43 view .LVU67
 205 00aa DB17     		asrs	r3, r3, #31
 206              	.LVL30:
 207              		.loc 2 520 89 view .LVU68
 208 00ac B3EBE17F 		cmp	r3, r1, asr #31
 209 00b0 02D0     		beq	.L6
 210              		.loc 2 520 89 discriminator 1 view .LVU69
 211 00b2 6FF00040 		mvn	r0, #-2147483648
 212              	.LVL31:
 213              		.loc 2 520 89 discriminator 1 view .LVU70
 214 00b6 5040     		eors	r0, r0, r2
 215              	.L6:
 216              	.LVL32:
 217              		.loc 2 520 89 discriminator 1 view .LVU71
 218              	.LBE5:
 219              	.LBE4:
 220              		.loc 1 132 3 discriminator 1 view .LVU72
 221 00b8 2146     		mov	r1, r4
 222 00ba FFF7FEFF 		bl	arm_sqrt_q31
 223              	.LVL33:
 133:Drivers/CMSIS/DSP/Source/StatisticsFunctions/arm_rms_q31.c **** }
 224              		.loc 1 133 1 view .LVU73
 225 00be F8BD     		pop	{r3, r4, r5, r6, r7, pc}
 226              		.loc 1 133 1 view .LVU74
 227              		.cfi_endproc
 228              	.LFE135:
 230              		.text
 231              	.Letext0:
 232              		.file 3 "/Users/killian/Library/Application Support/Code/User/globalStorage/bmd.stm32-for-vscode/@
 233              		.file 4 "/Users/killian/Library/Application Support/Code/User/globalStorage/bmd.stm32-for-vscode/@
ARM GAS  /var/folders/n6/c271nzx11xl4r4_m7sqjlt0m0000gn/T//ccoJhJ7k.s 			page 17

