ARM GAS  /var/folders/n6/c271nzx11xl4r4_m7sqjlt0m0000gn/T//cchFRbIp.s 			page 1


   1              		.cpu cortex-m7
   2              		.arch armv7e-m
   3              		.fpu fpv5-d16
   4              		.eabi_attribute 28, 1
   5              		.eabi_attribute 20, 1
   6              		.eabi_attribute 21, 1
   7              		.eabi_attribute 23, 3
   8              		.eabi_attribute 24, 1
   9              		.eabi_attribute 25, 1
  10              		.eabi_attribute 26, 1
  11              		.eabi_attribute 30, 1
  12              		.eabi_attribute 34, 1
  13              		.eabi_attribute 18, 4
  14              		.file	"arm_fill_q7.c"
  15              		.text
  16              	.Ltext0:
  17              		.cfi_sections	.debug_frame
  18              		.file 1 "Drivers/CMSIS/DSP/Source/SupportFunctions/arm_fill_q7.c"
  19              		.section	.text.arm_fill_q7,"ax",%progbits
  20              		.align	1
  21              		.global	arm_fill_q7
  22              		.syntax unified
  23              		.thumb
  24              		.thumb_func
  26              	arm_fill_q7:
  27              	.LVL0:
  28              	.LFB135:
   1:Drivers/CMSIS/DSP/Source/SupportFunctions/arm_fill_q7.c **** /* ----------------------------------------------------------------------
   2:Drivers/CMSIS/DSP/Source/SupportFunctions/arm_fill_q7.c ****  * Project:      CMSIS DSP Library
   3:Drivers/CMSIS/DSP/Source/SupportFunctions/arm_fill_q7.c ****  * Title:        arm_fill_q7.c
   4:Drivers/CMSIS/DSP/Source/SupportFunctions/arm_fill_q7.c ****  * Description:  Fills a constant value into a Q7 vector
   5:Drivers/CMSIS/DSP/Source/SupportFunctions/arm_fill_q7.c ****  *
   6:Drivers/CMSIS/DSP/Source/SupportFunctions/arm_fill_q7.c ****  * $Date:        27. January 2017
   7:Drivers/CMSIS/DSP/Source/SupportFunctions/arm_fill_q7.c ****  * $Revision:    V.1.5.1
   8:Drivers/CMSIS/DSP/Source/SupportFunctions/arm_fill_q7.c ****  *
   9:Drivers/CMSIS/DSP/Source/SupportFunctions/arm_fill_q7.c ****  * Target Processor: Cortex-M cores
  10:Drivers/CMSIS/DSP/Source/SupportFunctions/arm_fill_q7.c ****  * -------------------------------------------------------------------- */
  11:Drivers/CMSIS/DSP/Source/SupportFunctions/arm_fill_q7.c **** /*
  12:Drivers/CMSIS/DSP/Source/SupportFunctions/arm_fill_q7.c ****  * Copyright (C) 2010-2017 ARM Limited or its affiliates. All rights reserved.
  13:Drivers/CMSIS/DSP/Source/SupportFunctions/arm_fill_q7.c ****  *
  14:Drivers/CMSIS/DSP/Source/SupportFunctions/arm_fill_q7.c ****  * SPDX-License-Identifier: Apache-2.0
  15:Drivers/CMSIS/DSP/Source/SupportFunctions/arm_fill_q7.c ****  *
  16:Drivers/CMSIS/DSP/Source/SupportFunctions/arm_fill_q7.c ****  * Licensed under the Apache License, Version 2.0 (the License); you may
  17:Drivers/CMSIS/DSP/Source/SupportFunctions/arm_fill_q7.c ****  * not use this file except in compliance with the License.
  18:Drivers/CMSIS/DSP/Source/SupportFunctions/arm_fill_q7.c ****  * You may obtain a copy of the License at
  19:Drivers/CMSIS/DSP/Source/SupportFunctions/arm_fill_q7.c ****  *
  20:Drivers/CMSIS/DSP/Source/SupportFunctions/arm_fill_q7.c ****  * www.apache.org/licenses/LICENSE-2.0
  21:Drivers/CMSIS/DSP/Source/SupportFunctions/arm_fill_q7.c ****  *
  22:Drivers/CMSIS/DSP/Source/SupportFunctions/arm_fill_q7.c ****  * Unless required by applicable law or agreed to in writing, software
  23:Drivers/CMSIS/DSP/Source/SupportFunctions/arm_fill_q7.c ****  * distributed under the License is distributed on an AS IS BASIS, WITHOUT
  24:Drivers/CMSIS/DSP/Source/SupportFunctions/arm_fill_q7.c ****  * WARRANTIES OR CONDITIONS OF ANY KIND, either express or implied.
  25:Drivers/CMSIS/DSP/Source/SupportFunctions/arm_fill_q7.c ****  * See the License for the specific language governing permissions and
  26:Drivers/CMSIS/DSP/Source/SupportFunctions/arm_fill_q7.c ****  * limitations under the License.
  27:Drivers/CMSIS/DSP/Source/SupportFunctions/arm_fill_q7.c ****  */
  28:Drivers/CMSIS/DSP/Source/SupportFunctions/arm_fill_q7.c **** 
  29:Drivers/CMSIS/DSP/Source/SupportFunctions/arm_fill_q7.c **** #include "arm_math.h"
  30:Drivers/CMSIS/DSP/Source/SupportFunctions/arm_fill_q7.c **** 
ARM GAS  /var/folders/n6/c271nzx11xl4r4_m7sqjlt0m0000gn/T//cchFRbIp.s 			page 2


  31:Drivers/CMSIS/DSP/Source/SupportFunctions/arm_fill_q7.c **** /**
  32:Drivers/CMSIS/DSP/Source/SupportFunctions/arm_fill_q7.c ****  * @ingroup groupSupport
  33:Drivers/CMSIS/DSP/Source/SupportFunctions/arm_fill_q7.c ****  */
  34:Drivers/CMSIS/DSP/Source/SupportFunctions/arm_fill_q7.c **** 
  35:Drivers/CMSIS/DSP/Source/SupportFunctions/arm_fill_q7.c **** /**
  36:Drivers/CMSIS/DSP/Source/SupportFunctions/arm_fill_q7.c ****  * @addtogroup Fill
  37:Drivers/CMSIS/DSP/Source/SupportFunctions/arm_fill_q7.c ****  * @{
  38:Drivers/CMSIS/DSP/Source/SupportFunctions/arm_fill_q7.c ****  */
  39:Drivers/CMSIS/DSP/Source/SupportFunctions/arm_fill_q7.c **** 
  40:Drivers/CMSIS/DSP/Source/SupportFunctions/arm_fill_q7.c **** /**
  41:Drivers/CMSIS/DSP/Source/SupportFunctions/arm_fill_q7.c ****  * @brief Fills a constant value into a Q7 vector.
  42:Drivers/CMSIS/DSP/Source/SupportFunctions/arm_fill_q7.c ****  * @param[in]       value input value to be filled
  43:Drivers/CMSIS/DSP/Source/SupportFunctions/arm_fill_q7.c ****  * @param[out]      *pDst points to output vector
  44:Drivers/CMSIS/DSP/Source/SupportFunctions/arm_fill_q7.c ****  * @param[in]       blockSize length of the output vector
  45:Drivers/CMSIS/DSP/Source/SupportFunctions/arm_fill_q7.c ****  * @return none.
  46:Drivers/CMSIS/DSP/Source/SupportFunctions/arm_fill_q7.c ****  *
  47:Drivers/CMSIS/DSP/Source/SupportFunctions/arm_fill_q7.c ****  */
  48:Drivers/CMSIS/DSP/Source/SupportFunctions/arm_fill_q7.c **** 
  49:Drivers/CMSIS/DSP/Source/SupportFunctions/arm_fill_q7.c **** void arm_fill_q7(
  50:Drivers/CMSIS/DSP/Source/SupportFunctions/arm_fill_q7.c ****   q7_t value,
  51:Drivers/CMSIS/DSP/Source/SupportFunctions/arm_fill_q7.c ****   q7_t * pDst,
  52:Drivers/CMSIS/DSP/Source/SupportFunctions/arm_fill_q7.c ****   uint32_t blockSize)
  53:Drivers/CMSIS/DSP/Source/SupportFunctions/arm_fill_q7.c **** {
  29              		.loc 1 53 1 view -0
  30              		.cfi_startproc
  31              		@ args = 0, pretend = 0, frame = 0
  32              		@ frame_needed = 0, uses_anonymous_args = 0
  33              		@ link register save eliminated.
  34              		.loc 1 53 1 is_stmt 0 view .LVU1
  35 0000 10B4     		push	{r4}
  36              		.cfi_def_cfa_offset 4
  37              		.cfi_offset 4, -4
  54:Drivers/CMSIS/DSP/Source/SupportFunctions/arm_fill_q7.c ****   uint32_t blkCnt;                               /* loop counter */
  38              		.loc 1 54 3 is_stmt 1 view .LVU2
  55:Drivers/CMSIS/DSP/Source/SupportFunctions/arm_fill_q7.c **** 
  56:Drivers/CMSIS/DSP/Source/SupportFunctions/arm_fill_q7.c **** #if defined (ARM_MATH_DSP)
  57:Drivers/CMSIS/DSP/Source/SupportFunctions/arm_fill_q7.c **** 
  58:Drivers/CMSIS/DSP/Source/SupportFunctions/arm_fill_q7.c ****   /* Run the below code for Cortex-M4 and Cortex-M3 */
  59:Drivers/CMSIS/DSP/Source/SupportFunctions/arm_fill_q7.c **** 
  60:Drivers/CMSIS/DSP/Source/SupportFunctions/arm_fill_q7.c ****   q31_t packedValue;                             /* value packed to 32 bits */
  39              		.loc 1 60 3 view .LVU3
  61:Drivers/CMSIS/DSP/Source/SupportFunctions/arm_fill_q7.c **** 
  62:Drivers/CMSIS/DSP/Source/SupportFunctions/arm_fill_q7.c ****   /*loop Unrolling */
  63:Drivers/CMSIS/DSP/Source/SupportFunctions/arm_fill_q7.c ****   blkCnt = blockSize >> 2U;
  40              		.loc 1 63 3 view .LVU4
  41              		.loc 1 63 10 is_stmt 0 view .LVU5
  42 0002 9308     		lsrs	r3, r2, #2
  43              	.LVL1:
  64:Drivers/CMSIS/DSP/Source/SupportFunctions/arm_fill_q7.c **** 
  65:Drivers/CMSIS/DSP/Source/SupportFunctions/arm_fill_q7.c ****   /* Packing four 8 bit values to 32 bit value in order to use SIMD */
  66:Drivers/CMSIS/DSP/Source/SupportFunctions/arm_fill_q7.c ****   packedValue = __PACKq7(value, value, value, value);
  44              		.loc 1 66 3 is_stmt 1 view .LVU6
  45              		.loc 1 66 17 is_stmt 0 view .LVU7
  46 0004 C4B2     		uxtb	r4, r0
  47 0006 4FEA002C 		lsl	ip, r0, #8
  48 000a 1FFA8CFC 		uxth	ip, ip
  49 000e 44EA0C04 		orr	r4, r4, ip
ARM GAS  /var/folders/n6/c271nzx11xl4r4_m7sqjlt0m0000gn/T//cchFRbIp.s 			page 3


  50 0012 4FEA004C 		lsl	ip, r0, #16
  51 0016 0CF47F0C 		and	ip, ip, #16711680
  52 001a 44EA0C04 		orr	r4, r4, ip
  53              		.loc 1 66 15 view .LVU8
  54 001e 44EA0064 		orr	r4, r4, r0, lsl #24
  55              	.LVL2:
  67:Drivers/CMSIS/DSP/Source/SupportFunctions/arm_fill_q7.c **** 
  68:Drivers/CMSIS/DSP/Source/SupportFunctions/arm_fill_q7.c ****   /* First part of the processing with loop unrolling.  Compute 4 outputs at a time.
  69:Drivers/CMSIS/DSP/Source/SupportFunctions/arm_fill_q7.c ****    ** a second loop below computes the remaining 1 to 3 samples. */
  70:Drivers/CMSIS/DSP/Source/SupportFunctions/arm_fill_q7.c ****   while (blkCnt > 0U)
  56              		.loc 1 70 3 is_stmt 1 view .LVU9
  57              		.loc 1 70 9 is_stmt 0 view .LVU10
  58 0022 02E0     		b	.L2
  59              	.L3:
  71:Drivers/CMSIS/DSP/Source/SupportFunctions/arm_fill_q7.c ****   {
  72:Drivers/CMSIS/DSP/Source/SupportFunctions/arm_fill_q7.c ****     /* C = value */
  73:Drivers/CMSIS/DSP/Source/SupportFunctions/arm_fill_q7.c ****     /* Fill the value in the destination buffer */
  74:Drivers/CMSIS/DSP/Source/SupportFunctions/arm_fill_q7.c ****     *__SIMD32(pDst)++ = packedValue;
  60              		.loc 1 74 5 is_stmt 1 view .LVU11
  61              	.LVL3:
  62              		.loc 1 74 23 is_stmt 0 view .LVU12
  63 0024 41F8044B 		str	r4, [r1], #4
  64              	.LVL4:
  75:Drivers/CMSIS/DSP/Source/SupportFunctions/arm_fill_q7.c **** 
  76:Drivers/CMSIS/DSP/Source/SupportFunctions/arm_fill_q7.c ****     /* Decrement the loop counter */
  77:Drivers/CMSIS/DSP/Source/SupportFunctions/arm_fill_q7.c ****     blkCnt--;
  65              		.loc 1 77 5 is_stmt 1 view .LVU13
  66              		.loc 1 77 11 is_stmt 0 view .LVU14
  67 0028 013B     		subs	r3, r3, #1
  68              	.LVL5:
  69              	.L2:
  70:Drivers/CMSIS/DSP/Source/SupportFunctions/arm_fill_q7.c ****   {
  70              		.loc 1 70 17 is_stmt 1 view .LVU15
  71 002a 002B     		cmp	r3, #0
  72 002c FAD1     		bne	.L3
  78:Drivers/CMSIS/DSP/Source/SupportFunctions/arm_fill_q7.c ****   }
  79:Drivers/CMSIS/DSP/Source/SupportFunctions/arm_fill_q7.c **** 
  80:Drivers/CMSIS/DSP/Source/SupportFunctions/arm_fill_q7.c ****   /* If the blockSize is not a multiple of 4, compute any remaining output samples here.
  81:Drivers/CMSIS/DSP/Source/SupportFunctions/arm_fill_q7.c ****    ** No loop unrolling is used. */
  82:Drivers/CMSIS/DSP/Source/SupportFunctions/arm_fill_q7.c ****   blkCnt = blockSize % 0x4U;
  73              		.loc 1 82 3 view .LVU16
  74              		.loc 1 82 10 is_stmt 0 view .LVU17
  75 002e 02F00302 		and	r2, r2, #3
  76              	.LVL6:
  83:Drivers/CMSIS/DSP/Source/SupportFunctions/arm_fill_q7.c **** 
  84:Drivers/CMSIS/DSP/Source/SupportFunctions/arm_fill_q7.c **** #else
  85:Drivers/CMSIS/DSP/Source/SupportFunctions/arm_fill_q7.c **** 
  86:Drivers/CMSIS/DSP/Source/SupportFunctions/arm_fill_q7.c ****   /* Run the below code for Cortex-M0 */
  87:Drivers/CMSIS/DSP/Source/SupportFunctions/arm_fill_q7.c **** 
  88:Drivers/CMSIS/DSP/Source/SupportFunctions/arm_fill_q7.c ****   /* Loop over blockSize number of values */
  89:Drivers/CMSIS/DSP/Source/SupportFunctions/arm_fill_q7.c ****   blkCnt = blockSize;
  90:Drivers/CMSIS/DSP/Source/SupportFunctions/arm_fill_q7.c **** 
  91:Drivers/CMSIS/DSP/Source/SupportFunctions/arm_fill_q7.c **** #endif /* #if defined (ARM_MATH_DSP) */
  92:Drivers/CMSIS/DSP/Source/SupportFunctions/arm_fill_q7.c **** 
  93:Drivers/CMSIS/DSP/Source/SupportFunctions/arm_fill_q7.c ****   while (blkCnt > 0U)
  77              		.loc 1 93 3 is_stmt 1 view .LVU18
  78              		.loc 1 93 9 is_stmt 0 view .LVU19
ARM GAS  /var/folders/n6/c271nzx11xl4r4_m7sqjlt0m0000gn/T//cchFRbIp.s 			page 4


  79 0032 02E0     		b	.L4
  80              	.L5:
  94:Drivers/CMSIS/DSP/Source/SupportFunctions/arm_fill_q7.c ****   {
  95:Drivers/CMSIS/DSP/Source/SupportFunctions/arm_fill_q7.c ****     /* C = value */
  96:Drivers/CMSIS/DSP/Source/SupportFunctions/arm_fill_q7.c ****     /* Fill the value in the destination buffer */
  97:Drivers/CMSIS/DSP/Source/SupportFunctions/arm_fill_q7.c ****     *pDst++ = value;
  81              		.loc 1 97 5 is_stmt 1 view .LVU20
  82              	.LVL7:
  83              		.loc 1 97 13 is_stmt 0 view .LVU21
  84 0034 01F8010B 		strb	r0, [r1], #1
  85              	.LVL8:
  98:Drivers/CMSIS/DSP/Source/SupportFunctions/arm_fill_q7.c **** 
  99:Drivers/CMSIS/DSP/Source/SupportFunctions/arm_fill_q7.c ****     /* Decrement the loop counter */
 100:Drivers/CMSIS/DSP/Source/SupportFunctions/arm_fill_q7.c ****     blkCnt--;
  86              		.loc 1 100 5 is_stmt 1 view .LVU22
  87              		.loc 1 100 11 is_stmt 0 view .LVU23
  88 0038 013A     		subs	r2, r2, #1
  89              	.LVL9:
  90              	.L4:
  93:Drivers/CMSIS/DSP/Source/SupportFunctions/arm_fill_q7.c ****   {
  91              		.loc 1 93 17 is_stmt 1 view .LVU24
  92 003a 002A     		cmp	r2, #0
  93 003c FAD1     		bne	.L5
 101:Drivers/CMSIS/DSP/Source/SupportFunctions/arm_fill_q7.c ****   }
 102:Drivers/CMSIS/DSP/Source/SupportFunctions/arm_fill_q7.c **** }
  94              		.loc 1 102 1 is_stmt 0 view .LVU25
  95 003e 5DF8044B 		ldr	r4, [sp], #4
  96              		.cfi_restore 4
  97              		.cfi_def_cfa_offset 0
  98              	.LVL10:
  99              		.loc 1 102 1 view .LVU26
 100 0042 7047     		bx	lr
 101              		.cfi_endproc
 102              	.LFE135:
 104              		.text
 105              	.Letext0:
 106              		.file 2 "/Users/killian/Library/Application Support/Code/User/globalStorage/bmd.stm32-for-vscode/@
 107              		.file 3 "/Users/killian/Library/Application Support/Code/User/globalStorage/bmd.stm32-for-vscode/@
 108              		.file 4 "Drivers/CMSIS/DSP/Include/arm_math.h"
ARM GAS  /var/folders/n6/c271nzx11xl4r4_m7sqjlt0m0000gn/T//cchFRbIp.s 			page 5


DEFINED SYMBOLS
                            *ABS*:00000000 arm_fill_q7.c
/var/folders/n6/c271nzx11xl4r4_m7sqjlt0m0000gn/T//cchFRbIp.s:20     .text.arm_fill_q7:00000000 $t
/var/folders/n6/c271nzx11xl4r4_m7sqjlt0m0000gn/T//cchFRbIp.s:26     .text.arm_fill_q7:00000000 arm_fill_q7

NO UNDEFINED SYMBOLS
