ARM GAS  /var/folders/n6/c271nzx11xl4r4_m7sqjlt0m0000gn/T//ccdoOSzx.s 			page 1


   1              		.cpu cortex-m7
   2              		.arch armv7e-m
   3              		.fpu fpv5-d16
   4              		.eabi_attribute 28, 1
   5              		.eabi_attribute 20, 1
   6              		.eabi_attribute 21, 1
   7              		.eabi_attribute 23, 3
   8              		.eabi_attribute 24, 1
   9              		.eabi_attribute 25, 1
  10              		.eabi_attribute 26, 1
  11              		.eabi_attribute 30, 1
  12              		.eabi_attribute 34, 1
  13              		.eabi_attribute 18, 4
  14              		.file	"arm_mat_trans_q31.c"
  15              		.text
  16              	.Ltext0:
  17              		.cfi_sections	.debug_frame
  18              		.file 1 "Drivers/CMSIS/DSP/Source/MatrixFunctions/arm_mat_trans_q31.c"
  19              		.section	.text.arm_mat_trans_q31,"ax",%progbits
  20              		.align	1
  21              		.global	arm_mat_trans_q31
  22              		.syntax unified
  23              		.thumb
  24              		.thumb_func
  26              	arm_mat_trans_q31:
  27              	.LVL0:
  28              	.LFB135:
   1:Drivers/CMSIS/DSP/Source/MatrixFunctions/arm_mat_trans_q31.c **** /* ----------------------------------------------------------------------
   2:Drivers/CMSIS/DSP/Source/MatrixFunctions/arm_mat_trans_q31.c ****  * Project:      CMSIS DSP Library
   3:Drivers/CMSIS/DSP/Source/MatrixFunctions/arm_mat_trans_q31.c ****  * Title:        arm_mat_trans_q31.c
   4:Drivers/CMSIS/DSP/Source/MatrixFunctions/arm_mat_trans_q31.c ****  * Description:  Q31 matrix transpose
   5:Drivers/CMSIS/DSP/Source/MatrixFunctions/arm_mat_trans_q31.c ****  *
   6:Drivers/CMSIS/DSP/Source/MatrixFunctions/arm_mat_trans_q31.c ****  * $Date:        27. January 2017
   7:Drivers/CMSIS/DSP/Source/MatrixFunctions/arm_mat_trans_q31.c ****  * $Revision:    V.1.5.1
   8:Drivers/CMSIS/DSP/Source/MatrixFunctions/arm_mat_trans_q31.c ****  *
   9:Drivers/CMSIS/DSP/Source/MatrixFunctions/arm_mat_trans_q31.c ****  * Target Processor: Cortex-M cores
  10:Drivers/CMSIS/DSP/Source/MatrixFunctions/arm_mat_trans_q31.c ****  * -------------------------------------------------------------------- */
  11:Drivers/CMSIS/DSP/Source/MatrixFunctions/arm_mat_trans_q31.c **** /*
  12:Drivers/CMSIS/DSP/Source/MatrixFunctions/arm_mat_trans_q31.c ****  * Copyright (C) 2010-2017 ARM Limited or its affiliates. All rights reserved.
  13:Drivers/CMSIS/DSP/Source/MatrixFunctions/arm_mat_trans_q31.c ****  *
  14:Drivers/CMSIS/DSP/Source/MatrixFunctions/arm_mat_trans_q31.c ****  * SPDX-License-Identifier: Apache-2.0
  15:Drivers/CMSIS/DSP/Source/MatrixFunctions/arm_mat_trans_q31.c ****  *
  16:Drivers/CMSIS/DSP/Source/MatrixFunctions/arm_mat_trans_q31.c ****  * Licensed under the Apache License, Version 2.0 (the License); you may
  17:Drivers/CMSIS/DSP/Source/MatrixFunctions/arm_mat_trans_q31.c ****  * not use this file except in compliance with the License.
  18:Drivers/CMSIS/DSP/Source/MatrixFunctions/arm_mat_trans_q31.c ****  * You may obtain a copy of the License at
  19:Drivers/CMSIS/DSP/Source/MatrixFunctions/arm_mat_trans_q31.c ****  *
  20:Drivers/CMSIS/DSP/Source/MatrixFunctions/arm_mat_trans_q31.c ****  * www.apache.org/licenses/LICENSE-2.0
  21:Drivers/CMSIS/DSP/Source/MatrixFunctions/arm_mat_trans_q31.c ****  *
  22:Drivers/CMSIS/DSP/Source/MatrixFunctions/arm_mat_trans_q31.c ****  * Unless required by applicable law or agreed to in writing, software
  23:Drivers/CMSIS/DSP/Source/MatrixFunctions/arm_mat_trans_q31.c ****  * distributed under the License is distributed on an AS IS BASIS, WITHOUT
  24:Drivers/CMSIS/DSP/Source/MatrixFunctions/arm_mat_trans_q31.c ****  * WARRANTIES OR CONDITIONS OF ANY KIND, either express or implied.
  25:Drivers/CMSIS/DSP/Source/MatrixFunctions/arm_mat_trans_q31.c ****  * See the License for the specific language governing permissions and
  26:Drivers/CMSIS/DSP/Source/MatrixFunctions/arm_mat_trans_q31.c ****  * limitations under the License.
  27:Drivers/CMSIS/DSP/Source/MatrixFunctions/arm_mat_trans_q31.c ****  */
  28:Drivers/CMSIS/DSP/Source/MatrixFunctions/arm_mat_trans_q31.c **** 
  29:Drivers/CMSIS/DSP/Source/MatrixFunctions/arm_mat_trans_q31.c **** #include "arm_math.h"
  30:Drivers/CMSIS/DSP/Source/MatrixFunctions/arm_mat_trans_q31.c **** 
ARM GAS  /var/folders/n6/c271nzx11xl4r4_m7sqjlt0m0000gn/T//ccdoOSzx.s 			page 2


  31:Drivers/CMSIS/DSP/Source/MatrixFunctions/arm_mat_trans_q31.c **** /**
  32:Drivers/CMSIS/DSP/Source/MatrixFunctions/arm_mat_trans_q31.c ****  * @ingroup groupMatrix
  33:Drivers/CMSIS/DSP/Source/MatrixFunctions/arm_mat_trans_q31.c ****  */
  34:Drivers/CMSIS/DSP/Source/MatrixFunctions/arm_mat_trans_q31.c **** 
  35:Drivers/CMSIS/DSP/Source/MatrixFunctions/arm_mat_trans_q31.c **** /**
  36:Drivers/CMSIS/DSP/Source/MatrixFunctions/arm_mat_trans_q31.c ****  * @addtogroup MatrixTrans
  37:Drivers/CMSIS/DSP/Source/MatrixFunctions/arm_mat_trans_q31.c ****  * @{
  38:Drivers/CMSIS/DSP/Source/MatrixFunctions/arm_mat_trans_q31.c ****  */
  39:Drivers/CMSIS/DSP/Source/MatrixFunctions/arm_mat_trans_q31.c **** 
  40:Drivers/CMSIS/DSP/Source/MatrixFunctions/arm_mat_trans_q31.c **** /*
  41:Drivers/CMSIS/DSP/Source/MatrixFunctions/arm_mat_trans_q31.c ****   * @brief Q31 matrix transpose.
  42:Drivers/CMSIS/DSP/Source/MatrixFunctions/arm_mat_trans_q31.c ****   * @param[in]  *pSrc points to the input matrix
  43:Drivers/CMSIS/DSP/Source/MatrixFunctions/arm_mat_trans_q31.c ****   * @param[out] *pDst points to the output matrix
  44:Drivers/CMSIS/DSP/Source/MatrixFunctions/arm_mat_trans_q31.c ****   * @return 	The function returns either  <code>ARM_MATH_SIZE_MISMATCH</code>
  45:Drivers/CMSIS/DSP/Source/MatrixFunctions/arm_mat_trans_q31.c ****   * or <code>ARM_MATH_SUCCESS</code> based on the outcome of size checking.
  46:Drivers/CMSIS/DSP/Source/MatrixFunctions/arm_mat_trans_q31.c ****  */
  47:Drivers/CMSIS/DSP/Source/MatrixFunctions/arm_mat_trans_q31.c **** 
  48:Drivers/CMSIS/DSP/Source/MatrixFunctions/arm_mat_trans_q31.c **** arm_status arm_mat_trans_q31(
  49:Drivers/CMSIS/DSP/Source/MatrixFunctions/arm_mat_trans_q31.c ****   const arm_matrix_instance_q31 * pSrc,
  50:Drivers/CMSIS/DSP/Source/MatrixFunctions/arm_mat_trans_q31.c ****   arm_matrix_instance_q31 * pDst)
  51:Drivers/CMSIS/DSP/Source/MatrixFunctions/arm_mat_trans_q31.c **** {
  29              		.loc 1 51 1 view -0
  30              		.cfi_startproc
  31              		@ args = 0, pretend = 0, frame = 0
  32              		@ frame_needed = 0, uses_anonymous_args = 0
  33              		.loc 1 51 1 is_stmt 0 view .LVU1
  34 0000 F0B5     		push	{r4, r5, r6, r7, lr}
  35              		.cfi_def_cfa_offset 20
  36              		.cfi_offset 4, -20
  37              		.cfi_offset 5, -16
  38              		.cfi_offset 6, -12
  39              		.cfi_offset 7, -8
  40              		.cfi_offset 14, -4
  52:Drivers/CMSIS/DSP/Source/MatrixFunctions/arm_mat_trans_q31.c ****   q31_t *pIn = pSrc->pData;                      /* input data matrix pointer  */
  41              		.loc 1 52 3 is_stmt 1 view .LVU2
  42              		.loc 1 52 10 is_stmt 0 view .LVU3
  43 0002 4368     		ldr	r3, [r0, #4]
  44              	.LVL1:
  53:Drivers/CMSIS/DSP/Source/MatrixFunctions/arm_mat_trans_q31.c ****   q31_t *pOut = pDst->pData;                     /* output data matrix pointer  */
  45              		.loc 1 53 3 is_stmt 1 view .LVU4
  46              		.loc 1 53 10 is_stmt 0 view .LVU5
  47 0004 4D68     		ldr	r5, [r1, #4]
  48              	.LVL2:
  54:Drivers/CMSIS/DSP/Source/MatrixFunctions/arm_mat_trans_q31.c ****   q31_t *px;                                     /* Temporary output data matrix pointer */
  49              		.loc 1 54 3 is_stmt 1 view .LVU6
  55:Drivers/CMSIS/DSP/Source/MatrixFunctions/arm_mat_trans_q31.c ****   uint16_t nRows = pSrc->numRows;                /* number of nRows */
  50              		.loc 1 55 3 view .LVU7
  51              		.loc 1 55 12 is_stmt 0 view .LVU8
  52 0006 0188     		ldrh	r1, [r0]
  53              	.LVL3:
  56:Drivers/CMSIS/DSP/Source/MatrixFunctions/arm_mat_trans_q31.c ****   uint16_t nColumns = pSrc->numCols;             /* number of nColumns  */
  54              		.loc 1 56 3 is_stmt 1 view .LVU9
  55              		.loc 1 56 12 is_stmt 0 view .LVU10
  56 0008 B0F802E0 		ldrh	lr, [r0, #2]
  57              	.LVL4:
  57:Drivers/CMSIS/DSP/Source/MatrixFunctions/arm_mat_trans_q31.c **** 
  58:Drivers/CMSIS/DSP/Source/MatrixFunctions/arm_mat_trans_q31.c **** #if defined (ARM_MATH_DSP)
ARM GAS  /var/folders/n6/c271nzx11xl4r4_m7sqjlt0m0000gn/T//ccdoOSzx.s 			page 3


  59:Drivers/CMSIS/DSP/Source/MatrixFunctions/arm_mat_trans_q31.c **** 
  60:Drivers/CMSIS/DSP/Source/MatrixFunctions/arm_mat_trans_q31.c ****   /* Run the below code for Cortex-M4 and Cortex-M3 */
  61:Drivers/CMSIS/DSP/Source/MatrixFunctions/arm_mat_trans_q31.c **** 
  62:Drivers/CMSIS/DSP/Source/MatrixFunctions/arm_mat_trans_q31.c ****   uint16_t blkCnt, i = 0U, row = nRows;          /* loop counters */
  58              		.loc 1 62 3 is_stmt 1 view .LVU11
  59              		.loc 1 62 28 is_stmt 0 view .LVU12
  60 000c 0C46     		mov	r4, r1
  61              		.loc 1 62 20 view .LVU13
  62 000e 4FF0000C 		mov	ip, #0
  63 0012 26E0     		b	.L6
  64              	.LVL5:
  65              	.L3:
  63:Drivers/CMSIS/DSP/Source/MatrixFunctions/arm_mat_trans_q31.c ****   arm_status status;                             /* status of matrix transpose */
  64:Drivers/CMSIS/DSP/Source/MatrixFunctions/arm_mat_trans_q31.c **** 
  65:Drivers/CMSIS/DSP/Source/MatrixFunctions/arm_mat_trans_q31.c **** 
  66:Drivers/CMSIS/DSP/Source/MatrixFunctions/arm_mat_trans_q31.c **** #ifdef ARM_MATH_MATRIX_CHECK
  67:Drivers/CMSIS/DSP/Source/MatrixFunctions/arm_mat_trans_q31.c **** 
  68:Drivers/CMSIS/DSP/Source/MatrixFunctions/arm_mat_trans_q31.c **** 
  69:Drivers/CMSIS/DSP/Source/MatrixFunctions/arm_mat_trans_q31.c ****   /* Check for matrix mismatch condition */
  70:Drivers/CMSIS/DSP/Source/MatrixFunctions/arm_mat_trans_q31.c ****   if ((pSrc->numRows != pDst->numCols) || (pSrc->numCols != pDst->numRows))
  71:Drivers/CMSIS/DSP/Source/MatrixFunctions/arm_mat_trans_q31.c ****   {
  72:Drivers/CMSIS/DSP/Source/MatrixFunctions/arm_mat_trans_q31.c ****     /* Set status as ARM_MATH_SIZE_MISMATCH */
  73:Drivers/CMSIS/DSP/Source/MatrixFunctions/arm_mat_trans_q31.c ****     status = ARM_MATH_SIZE_MISMATCH;
  74:Drivers/CMSIS/DSP/Source/MatrixFunctions/arm_mat_trans_q31.c ****   }
  75:Drivers/CMSIS/DSP/Source/MatrixFunctions/arm_mat_trans_q31.c ****   else
  76:Drivers/CMSIS/DSP/Source/MatrixFunctions/arm_mat_trans_q31.c **** #endif /*    #ifdef ARM_MATH_MATRIX_CHECK    */
  77:Drivers/CMSIS/DSP/Source/MatrixFunctions/arm_mat_trans_q31.c **** 
  78:Drivers/CMSIS/DSP/Source/MatrixFunctions/arm_mat_trans_q31.c ****   {
  79:Drivers/CMSIS/DSP/Source/MatrixFunctions/arm_mat_trans_q31.c ****     /* Matrix transpose by exchanging the rows with columns */
  80:Drivers/CMSIS/DSP/Source/MatrixFunctions/arm_mat_trans_q31.c ****     /* row loop     */
  81:Drivers/CMSIS/DSP/Source/MatrixFunctions/arm_mat_trans_q31.c ****     do
  82:Drivers/CMSIS/DSP/Source/MatrixFunctions/arm_mat_trans_q31.c ****     {
  83:Drivers/CMSIS/DSP/Source/MatrixFunctions/arm_mat_trans_q31.c ****       /* Apply loop unrolling and exchange the columns with row elements */
  84:Drivers/CMSIS/DSP/Source/MatrixFunctions/arm_mat_trans_q31.c ****       blkCnt = nColumns >> 2U;
  85:Drivers/CMSIS/DSP/Source/MatrixFunctions/arm_mat_trans_q31.c **** 
  86:Drivers/CMSIS/DSP/Source/MatrixFunctions/arm_mat_trans_q31.c ****       /* The pointer px is set to starting address of the column being processed */
  87:Drivers/CMSIS/DSP/Source/MatrixFunctions/arm_mat_trans_q31.c ****       px = pOut + i;
  88:Drivers/CMSIS/DSP/Source/MatrixFunctions/arm_mat_trans_q31.c **** 
  89:Drivers/CMSIS/DSP/Source/MatrixFunctions/arm_mat_trans_q31.c ****       /* First part of the processing with loop unrolling.  Compute 4 outputs at a time.
  90:Drivers/CMSIS/DSP/Source/MatrixFunctions/arm_mat_trans_q31.c ****        ** a second loop below computes the remaining 1 to 3 samples. */
  91:Drivers/CMSIS/DSP/Source/MatrixFunctions/arm_mat_trans_q31.c ****       while (blkCnt > 0U)
  92:Drivers/CMSIS/DSP/Source/MatrixFunctions/arm_mat_trans_q31.c ****       {
  93:Drivers/CMSIS/DSP/Source/MatrixFunctions/arm_mat_trans_q31.c ****         /* Read and store the input element in the destination */
  94:Drivers/CMSIS/DSP/Source/MatrixFunctions/arm_mat_trans_q31.c ****         *px = *pIn++;
  66              		.loc 1 94 9 is_stmt 1 view .LVU14
  67              		.loc 1 94 13 is_stmt 0 view .LVU15
  68 0014 1E68     		ldr	r6, [r3]
  69 0016 1660     		str	r6, [r2]
  95:Drivers/CMSIS/DSP/Source/MatrixFunctions/arm_mat_trans_q31.c **** 
  96:Drivers/CMSIS/DSP/Source/MatrixFunctions/arm_mat_trans_q31.c ****         /* Update the pointer px to point to the next row of the transposed matrix */
  97:Drivers/CMSIS/DSP/Source/MatrixFunctions/arm_mat_trans_q31.c ****         px += nRows;
  70              		.loc 1 97 9 is_stmt 1 view .LVU16
  71              	.LVL6:
  98:Drivers/CMSIS/DSP/Source/MatrixFunctions/arm_mat_trans_q31.c **** 
  99:Drivers/CMSIS/DSP/Source/MatrixFunctions/arm_mat_trans_q31.c ****         /* Read and store the input element in the destination */
 100:Drivers/CMSIS/DSP/Source/MatrixFunctions/arm_mat_trans_q31.c ****         *px = *pIn++;
  72              		.loc 1 100 9 view .LVU17
ARM GAS  /var/folders/n6/c271nzx11xl4r4_m7sqjlt0m0000gn/T//ccdoOSzx.s 			page 4


  73              		.loc 1 100 13 is_stmt 0 view .LVU18
  74 0018 5E68     		ldr	r6, [r3, #4]
  75 001a 42F82160 		str	r6, [r2, r1, lsl #2]
 101:Drivers/CMSIS/DSP/Source/MatrixFunctions/arm_mat_trans_q31.c **** 
 102:Drivers/CMSIS/DSP/Source/MatrixFunctions/arm_mat_trans_q31.c ****         /* Update the pointer px to point to the next row of the transposed matrix */
 103:Drivers/CMSIS/DSP/Source/MatrixFunctions/arm_mat_trans_q31.c ****         px += nRows;
  76              		.loc 1 103 9 is_stmt 1 view .LVU19
  77              		.loc 1 103 12 is_stmt 0 view .LVU20
  78 001e 02EBC106 		add	r6, r2, r1, lsl #3
  79              	.LVL7:
 104:Drivers/CMSIS/DSP/Source/MatrixFunctions/arm_mat_trans_q31.c **** 
 105:Drivers/CMSIS/DSP/Source/MatrixFunctions/arm_mat_trans_q31.c ****         /* Read and store the input element in the destination */
 106:Drivers/CMSIS/DSP/Source/MatrixFunctions/arm_mat_trans_q31.c ****         *px = *pIn++;
  80              		.loc 1 106 9 is_stmt 1 view .LVU21
  81              		.loc 1 106 13 is_stmt 0 view .LVU22
  82 0022 9F68     		ldr	r7, [r3, #8]
  83 0024 42F83170 		str	r7, [r2, r1, lsl #3]
 107:Drivers/CMSIS/DSP/Source/MatrixFunctions/arm_mat_trans_q31.c **** 
 108:Drivers/CMSIS/DSP/Source/MatrixFunctions/arm_mat_trans_q31.c ****         /* Update the pointer px to point to the next row of the transposed matrix */
 109:Drivers/CMSIS/DSP/Source/MatrixFunctions/arm_mat_trans_q31.c ****         px += nRows;
  84              		.loc 1 109 9 is_stmt 1 view .LVU23
  85              	.LVL8:
 110:Drivers/CMSIS/DSP/Source/MatrixFunctions/arm_mat_trans_q31.c **** 
 111:Drivers/CMSIS/DSP/Source/MatrixFunctions/arm_mat_trans_q31.c ****         /* Read and store the input element in the destination */
 112:Drivers/CMSIS/DSP/Source/MatrixFunctions/arm_mat_trans_q31.c ****         *px = *pIn++;
  86              		.loc 1 112 9 view .LVU24
  87              		.loc 1 112 15 is_stmt 0 view .LVU25
  88 0028 DA68     		ldr	r2, [r3, #12]
  89              		.loc 1 112 13 view .LVU26
  90 002a 46F82120 		str	r2, [r6, r1, lsl #2]
 113:Drivers/CMSIS/DSP/Source/MatrixFunctions/arm_mat_trans_q31.c **** 
 114:Drivers/CMSIS/DSP/Source/MatrixFunctions/arm_mat_trans_q31.c ****         /* Update the pointer px to point to the next row of the transposed matrix */
 115:Drivers/CMSIS/DSP/Source/MatrixFunctions/arm_mat_trans_q31.c ****         px += nRows;
  91              		.loc 1 115 9 is_stmt 1 view .LVU27
  92              		.loc 1 115 12 is_stmt 0 view .LVU28
  93 002e 06EBC102 		add	r2, r6, r1, lsl #3
  94              	.LVL9:
 116:Drivers/CMSIS/DSP/Source/MatrixFunctions/arm_mat_trans_q31.c **** 
 117:Drivers/CMSIS/DSP/Source/MatrixFunctions/arm_mat_trans_q31.c ****         /* Decrement the column loop counter */
 118:Drivers/CMSIS/DSP/Source/MatrixFunctions/arm_mat_trans_q31.c ****         blkCnt--;
  95              		.loc 1 118 9 is_stmt 1 view .LVU29
  96              		.loc 1 118 15 is_stmt 0 view .LVU30
  97 0032 0138     		subs	r0, r0, #1
  98              	.LVL10:
  99              		.loc 1 118 15 view .LVU31
 100 0034 80B2     		uxth	r0, r0
 101              	.LVL11:
 112:Drivers/CMSIS/DSP/Source/MatrixFunctions/arm_mat_trans_q31.c **** 
 102              		.loc 1 112 19 view .LVU32
 103 0036 1033     		adds	r3, r3, #16
 104              	.LVL12:
 105              	.L2:
  91:Drivers/CMSIS/DSP/Source/MatrixFunctions/arm_mat_trans_q31.c ****       {
 106              		.loc 1 91 21 is_stmt 1 view .LVU33
 107 0038 0028     		cmp	r0, #0
 108 003a EBD1     		bne	.L3
 119:Drivers/CMSIS/DSP/Source/MatrixFunctions/arm_mat_trans_q31.c ****       }
ARM GAS  /var/folders/n6/c271nzx11xl4r4_m7sqjlt0m0000gn/T//ccdoOSzx.s 			page 5


 120:Drivers/CMSIS/DSP/Source/MatrixFunctions/arm_mat_trans_q31.c **** 
 121:Drivers/CMSIS/DSP/Source/MatrixFunctions/arm_mat_trans_q31.c ****       /* Perform matrix transpose for last 3 samples here. */
 122:Drivers/CMSIS/DSP/Source/MatrixFunctions/arm_mat_trans_q31.c ****       blkCnt = nColumns % 0x4U;
 109              		.loc 1 122 7 view .LVU34
 110              		.loc 1 122 14 is_stmt 0 view .LVU35
 111 003c 0EF00300 		and	r0, lr, #3
 112              	.LVL13:
 123:Drivers/CMSIS/DSP/Source/MatrixFunctions/arm_mat_trans_q31.c **** 
 124:Drivers/CMSIS/DSP/Source/MatrixFunctions/arm_mat_trans_q31.c ****       while (blkCnt > 0U)
 113              		.loc 1 124 7 is_stmt 1 view .LVU36
 114              		.loc 1 124 13 is_stmt 0 view .LVU37
 115 0040 06E0     		b	.L4
 116              	.L5:
 125:Drivers/CMSIS/DSP/Source/MatrixFunctions/arm_mat_trans_q31.c ****       {
 126:Drivers/CMSIS/DSP/Source/MatrixFunctions/arm_mat_trans_q31.c ****         /* Read and store the input element in the destination */
 127:Drivers/CMSIS/DSP/Source/MatrixFunctions/arm_mat_trans_q31.c ****         *px = *pIn++;
 117              		.loc 1 127 9 is_stmt 1 view .LVU38
 118              	.LVL14:
 119              		.loc 1 127 15 is_stmt 0 view .LVU39
 120 0042 53F8046B 		ldr	r6, [r3], #4
 121              	.LVL15:
 122              		.loc 1 127 13 view .LVU40
 123 0046 1660     		str	r6, [r2]
 128:Drivers/CMSIS/DSP/Source/MatrixFunctions/arm_mat_trans_q31.c **** 
 129:Drivers/CMSIS/DSP/Source/MatrixFunctions/arm_mat_trans_q31.c ****         /* Update the pointer px to point to the next row of the transposed matrix */
 130:Drivers/CMSIS/DSP/Source/MatrixFunctions/arm_mat_trans_q31.c ****         px += nRows;
 124              		.loc 1 130 9 is_stmt 1 view .LVU41
 125              		.loc 1 130 12 is_stmt 0 view .LVU42
 126 0048 02EB8102 		add	r2, r2, r1, lsl #2
 127              	.LVL16:
 131:Drivers/CMSIS/DSP/Source/MatrixFunctions/arm_mat_trans_q31.c **** 
 132:Drivers/CMSIS/DSP/Source/MatrixFunctions/arm_mat_trans_q31.c ****         /* Decrement the column loop counter */
 133:Drivers/CMSIS/DSP/Source/MatrixFunctions/arm_mat_trans_q31.c ****         blkCnt--;
 128              		.loc 1 133 9 is_stmt 1 view .LVU43
 129              		.loc 1 133 15 is_stmt 0 view .LVU44
 130 004c 0138     		subs	r0, r0, #1
 131              	.LVL17:
 132              		.loc 1 133 15 view .LVU45
 133 004e 80B2     		uxth	r0, r0
 134              	.LVL18:
 135              	.L4:
 124:Drivers/CMSIS/DSP/Source/MatrixFunctions/arm_mat_trans_q31.c ****       {
 136              		.loc 1 124 21 is_stmt 1 view .LVU46
 137 0050 0028     		cmp	r0, #0
 138 0052 F6D1     		bne	.L5
 134:Drivers/CMSIS/DSP/Source/MatrixFunctions/arm_mat_trans_q31.c ****       }
 135:Drivers/CMSIS/DSP/Source/MatrixFunctions/arm_mat_trans_q31.c **** 
 136:Drivers/CMSIS/DSP/Source/MatrixFunctions/arm_mat_trans_q31.c **** #else
 137:Drivers/CMSIS/DSP/Source/MatrixFunctions/arm_mat_trans_q31.c **** 
 138:Drivers/CMSIS/DSP/Source/MatrixFunctions/arm_mat_trans_q31.c ****   /* Run the below code for Cortex-M0 */
 139:Drivers/CMSIS/DSP/Source/MatrixFunctions/arm_mat_trans_q31.c **** 
 140:Drivers/CMSIS/DSP/Source/MatrixFunctions/arm_mat_trans_q31.c ****   uint16_t col, i = 0U, row = nRows;             /* loop counters */
 141:Drivers/CMSIS/DSP/Source/MatrixFunctions/arm_mat_trans_q31.c ****   arm_status status;                             /* status of matrix transpose */
 142:Drivers/CMSIS/DSP/Source/MatrixFunctions/arm_mat_trans_q31.c **** 
 143:Drivers/CMSIS/DSP/Source/MatrixFunctions/arm_mat_trans_q31.c **** 
 144:Drivers/CMSIS/DSP/Source/MatrixFunctions/arm_mat_trans_q31.c **** #ifdef ARM_MATH_MATRIX_CHECK
 145:Drivers/CMSIS/DSP/Source/MatrixFunctions/arm_mat_trans_q31.c **** 
ARM GAS  /var/folders/n6/c271nzx11xl4r4_m7sqjlt0m0000gn/T//ccdoOSzx.s 			page 6


 146:Drivers/CMSIS/DSP/Source/MatrixFunctions/arm_mat_trans_q31.c ****   /* Check for matrix mismatch condition */
 147:Drivers/CMSIS/DSP/Source/MatrixFunctions/arm_mat_trans_q31.c ****   if ((pSrc->numRows != pDst->numCols) || (pSrc->numCols != pDst->numRows))
 148:Drivers/CMSIS/DSP/Source/MatrixFunctions/arm_mat_trans_q31.c ****   {
 149:Drivers/CMSIS/DSP/Source/MatrixFunctions/arm_mat_trans_q31.c ****     /* Set status as ARM_MATH_SIZE_MISMATCH */
 150:Drivers/CMSIS/DSP/Source/MatrixFunctions/arm_mat_trans_q31.c ****     status = ARM_MATH_SIZE_MISMATCH;
 151:Drivers/CMSIS/DSP/Source/MatrixFunctions/arm_mat_trans_q31.c ****   }
 152:Drivers/CMSIS/DSP/Source/MatrixFunctions/arm_mat_trans_q31.c ****   else
 153:Drivers/CMSIS/DSP/Source/MatrixFunctions/arm_mat_trans_q31.c **** #endif /*    #ifdef ARM_MATH_MATRIX_CHECK    */
 154:Drivers/CMSIS/DSP/Source/MatrixFunctions/arm_mat_trans_q31.c **** 
 155:Drivers/CMSIS/DSP/Source/MatrixFunctions/arm_mat_trans_q31.c ****   {
 156:Drivers/CMSIS/DSP/Source/MatrixFunctions/arm_mat_trans_q31.c ****     /* Matrix transpose by exchanging the rows with columns */
 157:Drivers/CMSIS/DSP/Source/MatrixFunctions/arm_mat_trans_q31.c ****     /* row loop     */
 158:Drivers/CMSIS/DSP/Source/MatrixFunctions/arm_mat_trans_q31.c ****     do
 159:Drivers/CMSIS/DSP/Source/MatrixFunctions/arm_mat_trans_q31.c ****     {
 160:Drivers/CMSIS/DSP/Source/MatrixFunctions/arm_mat_trans_q31.c ****       /* The pointer px is set to starting address of the column being processed */
 161:Drivers/CMSIS/DSP/Source/MatrixFunctions/arm_mat_trans_q31.c ****       px = pOut + i;
 162:Drivers/CMSIS/DSP/Source/MatrixFunctions/arm_mat_trans_q31.c **** 
 163:Drivers/CMSIS/DSP/Source/MatrixFunctions/arm_mat_trans_q31.c ****       /* Initialize column loop counter */
 164:Drivers/CMSIS/DSP/Source/MatrixFunctions/arm_mat_trans_q31.c ****       col = nColumns;
 165:Drivers/CMSIS/DSP/Source/MatrixFunctions/arm_mat_trans_q31.c **** 
 166:Drivers/CMSIS/DSP/Source/MatrixFunctions/arm_mat_trans_q31.c ****       while (col > 0U)
 167:Drivers/CMSIS/DSP/Source/MatrixFunctions/arm_mat_trans_q31.c ****       {
 168:Drivers/CMSIS/DSP/Source/MatrixFunctions/arm_mat_trans_q31.c ****         /* Read and store the input element in the destination */
 169:Drivers/CMSIS/DSP/Source/MatrixFunctions/arm_mat_trans_q31.c ****         *px = *pIn++;
 170:Drivers/CMSIS/DSP/Source/MatrixFunctions/arm_mat_trans_q31.c **** 
 171:Drivers/CMSIS/DSP/Source/MatrixFunctions/arm_mat_trans_q31.c ****         /* Update the pointer px to point to the next row of the transposed matrix */
 172:Drivers/CMSIS/DSP/Source/MatrixFunctions/arm_mat_trans_q31.c ****         px += nRows;
 173:Drivers/CMSIS/DSP/Source/MatrixFunctions/arm_mat_trans_q31.c **** 
 174:Drivers/CMSIS/DSP/Source/MatrixFunctions/arm_mat_trans_q31.c ****         /* Decrement the column loop counter */
 175:Drivers/CMSIS/DSP/Source/MatrixFunctions/arm_mat_trans_q31.c ****         col--;
 176:Drivers/CMSIS/DSP/Source/MatrixFunctions/arm_mat_trans_q31.c ****       }
 177:Drivers/CMSIS/DSP/Source/MatrixFunctions/arm_mat_trans_q31.c **** 
 178:Drivers/CMSIS/DSP/Source/MatrixFunctions/arm_mat_trans_q31.c **** #endif /* #if defined (ARM_MATH_DSP) */
 179:Drivers/CMSIS/DSP/Source/MatrixFunctions/arm_mat_trans_q31.c **** 
 180:Drivers/CMSIS/DSP/Source/MatrixFunctions/arm_mat_trans_q31.c ****       i++;
 139              		.loc 1 180 7 view .LVU47
 140              		.loc 1 180 8 is_stmt 0 view .LVU48
 141 0054 0CF1010C 		add	ip, ip, #1
 142              	.LVL19:
 143              		.loc 1 180 8 view .LVU49
 144 0058 1FFA8CFC 		uxth	ip, ip
 145              	.LVL20:
 181:Drivers/CMSIS/DSP/Source/MatrixFunctions/arm_mat_trans_q31.c **** 
 182:Drivers/CMSIS/DSP/Source/MatrixFunctions/arm_mat_trans_q31.c ****       /* Decrement the row loop counter */
 183:Drivers/CMSIS/DSP/Source/MatrixFunctions/arm_mat_trans_q31.c ****       row--;
 146              		.loc 1 183 7 is_stmt 1 view .LVU50
 147              		.loc 1 183 10 is_stmt 0 view .LVU51
 148 005c 013C     		subs	r4, r4, #1
 149              	.LVL21:
 150              		.loc 1 183 10 view .LVU52
 151 005e A4B2     		uxth	r4, r4
 152              	.LVL22:
 184:Drivers/CMSIS/DSP/Source/MatrixFunctions/arm_mat_trans_q31.c **** 
 185:Drivers/CMSIS/DSP/Source/MatrixFunctions/arm_mat_trans_q31.c ****     }
 186:Drivers/CMSIS/DSP/Source/MatrixFunctions/arm_mat_trans_q31.c ****     while (row > 0U);            /* row loop end */
 153              		.loc 1 186 16 is_stmt 1 view .LVU53
 154 0060 24B1     		cbz	r4, .L8
ARM GAS  /var/folders/n6/c271nzx11xl4r4_m7sqjlt0m0000gn/T//ccdoOSzx.s 			page 7


 155              	.LVL23:
 156              	.L6:
  63:Drivers/CMSIS/DSP/Source/MatrixFunctions/arm_mat_trans_q31.c **** 
 157              		.loc 1 63 3 view .LVU54
  81:Drivers/CMSIS/DSP/Source/MatrixFunctions/arm_mat_trans_q31.c ****     {
 158              		.loc 1 81 5 view .LVU55
  84:Drivers/CMSIS/DSP/Source/MatrixFunctions/arm_mat_trans_q31.c **** 
 159              		.loc 1 84 7 view .LVU56
  84:Drivers/CMSIS/DSP/Source/MatrixFunctions/arm_mat_trans_q31.c **** 
 160              		.loc 1 84 14 is_stmt 0 view .LVU57
 161 0062 4FEA9E00 		lsr	r0, lr, #2
 162              	.LVL24:
  87:Drivers/CMSIS/DSP/Source/MatrixFunctions/arm_mat_trans_q31.c **** 
 163              		.loc 1 87 7 is_stmt 1 view .LVU58
  87:Drivers/CMSIS/DSP/Source/MatrixFunctions/arm_mat_trans_q31.c **** 
 164              		.loc 1 87 10 is_stmt 0 view .LVU59
 165 0066 05EB8C02 		add	r2, r5, ip, lsl #2
 166              	.LVL25:
  91:Drivers/CMSIS/DSP/Source/MatrixFunctions/arm_mat_trans_q31.c ****       {
 167              		.loc 1 91 7 is_stmt 1 view .LVU60
  91:Drivers/CMSIS/DSP/Source/MatrixFunctions/arm_mat_trans_q31.c ****       {
 168              		.loc 1 91 13 is_stmt 0 view .LVU61
 169 006a E5E7     		b	.L2
 170              	.L8:
 187:Drivers/CMSIS/DSP/Source/MatrixFunctions/arm_mat_trans_q31.c **** 
 188:Drivers/CMSIS/DSP/Source/MatrixFunctions/arm_mat_trans_q31.c ****     /* set status as ARM_MATH_SUCCESS */
 189:Drivers/CMSIS/DSP/Source/MatrixFunctions/arm_mat_trans_q31.c ****     status = ARM_MATH_SUCCESS;
 171              		.loc 1 189 5 is_stmt 1 view .LVU62
 172              	.LVL26:
 190:Drivers/CMSIS/DSP/Source/MatrixFunctions/arm_mat_trans_q31.c ****   }
 191:Drivers/CMSIS/DSP/Source/MatrixFunctions/arm_mat_trans_q31.c **** 
 192:Drivers/CMSIS/DSP/Source/MatrixFunctions/arm_mat_trans_q31.c ****   /* Return to application */
 193:Drivers/CMSIS/DSP/Source/MatrixFunctions/arm_mat_trans_q31.c ****   return (status);
 173              		.loc 1 193 3 view .LVU63
 194:Drivers/CMSIS/DSP/Source/MatrixFunctions/arm_mat_trans_q31.c **** }
 174              		.loc 1 194 1 is_stmt 0 view .LVU64
 175 006c F0BD     		pop	{r4, r5, r6, r7, pc}
 176              		.loc 1 194 1 view .LVU65
 177              		.cfi_endproc
 178              	.LFE135:
 180              		.text
 181              	.Letext0:
 182              		.file 2 "/Users/killian/Library/Application Support/Code/User/globalStorage/bmd.stm32-for-vscode/@
 183              		.file 3 "/Users/killian/Library/Application Support/Code/User/globalStorage/bmd.stm32-for-vscode/@
 184              		.file 4 "Drivers/CMSIS/DSP/Include/arm_math.h"
ARM GAS  /var/folders/n6/c271nzx11xl4r4_m7sqjlt0m0000gn/T//ccdoOSzx.s 			page 8

