ARM GAS  /var/folders/n6/c271nzx11xl4r4_m7sqjlt0m0000gn/T//ccXrJakI.s 			page 1


   1              		.cpu cortex-m7
   2              		.arch armv7e-m
   3              		.fpu fpv5-d16
   4              		.eabi_attribute 28, 1
   5              		.eabi_attribute 20, 1
   6              		.eabi_attribute 21, 1
   7              		.eabi_attribute 23, 3
   8              		.eabi_attribute 24, 1
   9              		.eabi_attribute 25, 1
  10              		.eabi_attribute 26, 1
  11              		.eabi_attribute 30, 1
  12              		.eabi_attribute 34, 1
  13              		.eabi_attribute 18, 4
  14              		.file	"arm_fir_lattice_q15.c"
  15              		.text
  16              	.Ltext0:
  17              		.cfi_sections	.debug_frame
  18              		.file 1 "Drivers/CMSIS/DSP/Source/FilteringFunctions/arm_fir_lattice_q15.c"
  19              		.section	.text.arm_fir_lattice_q15,"ax",%progbits
  20              		.align	1
  21              		.global	arm_fir_lattice_q15
  22              		.syntax unified
  23              		.thumb
  24              		.thumb_func
  26              	arm_fir_lattice_q15:
  27              	.LVL0:
  28              	.LFB135:
   1:Drivers/CMSIS/DSP/Source/FilteringFunctions/arm_fir_lattice_q15.c **** /* ----------------------------------------------------------------------
   2:Drivers/CMSIS/DSP/Source/FilteringFunctions/arm_fir_lattice_q15.c ****  * Project:      CMSIS DSP Library
   3:Drivers/CMSIS/DSP/Source/FilteringFunctions/arm_fir_lattice_q15.c ****  * Title:        arm_fir_lattice_q15.c
   4:Drivers/CMSIS/DSP/Source/FilteringFunctions/arm_fir_lattice_q15.c ****  * Description:  Q15 FIR lattice filter processing function
   5:Drivers/CMSIS/DSP/Source/FilteringFunctions/arm_fir_lattice_q15.c ****  *
   6:Drivers/CMSIS/DSP/Source/FilteringFunctions/arm_fir_lattice_q15.c ****  * $Date:        27. January 2017
   7:Drivers/CMSIS/DSP/Source/FilteringFunctions/arm_fir_lattice_q15.c ****  * $Revision:    V.1.5.1
   8:Drivers/CMSIS/DSP/Source/FilteringFunctions/arm_fir_lattice_q15.c ****  *
   9:Drivers/CMSIS/DSP/Source/FilteringFunctions/arm_fir_lattice_q15.c ****  * Target Processor: Cortex-M cores
  10:Drivers/CMSIS/DSP/Source/FilteringFunctions/arm_fir_lattice_q15.c ****  * -------------------------------------------------------------------- */
  11:Drivers/CMSIS/DSP/Source/FilteringFunctions/arm_fir_lattice_q15.c **** /*
  12:Drivers/CMSIS/DSP/Source/FilteringFunctions/arm_fir_lattice_q15.c ****  * Copyright (C) 2010-2017 ARM Limited or its affiliates. All rights reserved.
  13:Drivers/CMSIS/DSP/Source/FilteringFunctions/arm_fir_lattice_q15.c ****  *
  14:Drivers/CMSIS/DSP/Source/FilteringFunctions/arm_fir_lattice_q15.c ****  * SPDX-License-Identifier: Apache-2.0
  15:Drivers/CMSIS/DSP/Source/FilteringFunctions/arm_fir_lattice_q15.c ****  *
  16:Drivers/CMSIS/DSP/Source/FilteringFunctions/arm_fir_lattice_q15.c ****  * Licensed under the Apache License, Version 2.0 (the License); you may
  17:Drivers/CMSIS/DSP/Source/FilteringFunctions/arm_fir_lattice_q15.c ****  * not use this file except in compliance with the License.
  18:Drivers/CMSIS/DSP/Source/FilteringFunctions/arm_fir_lattice_q15.c ****  * You may obtain a copy of the License at
  19:Drivers/CMSIS/DSP/Source/FilteringFunctions/arm_fir_lattice_q15.c ****  *
  20:Drivers/CMSIS/DSP/Source/FilteringFunctions/arm_fir_lattice_q15.c ****  * www.apache.org/licenses/LICENSE-2.0
  21:Drivers/CMSIS/DSP/Source/FilteringFunctions/arm_fir_lattice_q15.c ****  *
  22:Drivers/CMSIS/DSP/Source/FilteringFunctions/arm_fir_lattice_q15.c ****  * Unless required by applicable law or agreed to in writing, software
  23:Drivers/CMSIS/DSP/Source/FilteringFunctions/arm_fir_lattice_q15.c ****  * distributed under the License is distributed on an AS IS BASIS, WITHOUT
  24:Drivers/CMSIS/DSP/Source/FilteringFunctions/arm_fir_lattice_q15.c ****  * WARRANTIES OR CONDITIONS OF ANY KIND, either express or implied.
  25:Drivers/CMSIS/DSP/Source/FilteringFunctions/arm_fir_lattice_q15.c ****  * See the License for the specific language governing permissions and
  26:Drivers/CMSIS/DSP/Source/FilteringFunctions/arm_fir_lattice_q15.c ****  * limitations under the License.
  27:Drivers/CMSIS/DSP/Source/FilteringFunctions/arm_fir_lattice_q15.c ****  */
  28:Drivers/CMSIS/DSP/Source/FilteringFunctions/arm_fir_lattice_q15.c **** 
  29:Drivers/CMSIS/DSP/Source/FilteringFunctions/arm_fir_lattice_q15.c **** #include "arm_math.h"
  30:Drivers/CMSIS/DSP/Source/FilteringFunctions/arm_fir_lattice_q15.c **** 
ARM GAS  /var/folders/n6/c271nzx11xl4r4_m7sqjlt0m0000gn/T//ccXrJakI.s 			page 2


  31:Drivers/CMSIS/DSP/Source/FilteringFunctions/arm_fir_lattice_q15.c **** /**
  32:Drivers/CMSIS/DSP/Source/FilteringFunctions/arm_fir_lattice_q15.c ****  * @ingroup groupFilters
  33:Drivers/CMSIS/DSP/Source/FilteringFunctions/arm_fir_lattice_q15.c ****  */
  34:Drivers/CMSIS/DSP/Source/FilteringFunctions/arm_fir_lattice_q15.c **** 
  35:Drivers/CMSIS/DSP/Source/FilteringFunctions/arm_fir_lattice_q15.c **** /**
  36:Drivers/CMSIS/DSP/Source/FilteringFunctions/arm_fir_lattice_q15.c ****  * @addtogroup FIR_Lattice
  37:Drivers/CMSIS/DSP/Source/FilteringFunctions/arm_fir_lattice_q15.c ****  * @{
  38:Drivers/CMSIS/DSP/Source/FilteringFunctions/arm_fir_lattice_q15.c ****  */
  39:Drivers/CMSIS/DSP/Source/FilteringFunctions/arm_fir_lattice_q15.c **** 
  40:Drivers/CMSIS/DSP/Source/FilteringFunctions/arm_fir_lattice_q15.c **** 
  41:Drivers/CMSIS/DSP/Source/FilteringFunctions/arm_fir_lattice_q15.c **** /**
  42:Drivers/CMSIS/DSP/Source/FilteringFunctions/arm_fir_lattice_q15.c ****  * @brief Processing function for the Q15 FIR lattice filter.
  43:Drivers/CMSIS/DSP/Source/FilteringFunctions/arm_fir_lattice_q15.c ****  * @param[in]  *S        points to an instance of the Q15 FIR lattice structure.
  44:Drivers/CMSIS/DSP/Source/FilteringFunctions/arm_fir_lattice_q15.c ****  * @param[in]  *pSrc     points to the block of input data.
  45:Drivers/CMSIS/DSP/Source/FilteringFunctions/arm_fir_lattice_q15.c ****  * @param[out] *pDst     points to the block of output data
  46:Drivers/CMSIS/DSP/Source/FilteringFunctions/arm_fir_lattice_q15.c ****  * @param[in]  blockSize number of samples to process.
  47:Drivers/CMSIS/DSP/Source/FilteringFunctions/arm_fir_lattice_q15.c ****  * @return none.
  48:Drivers/CMSIS/DSP/Source/FilteringFunctions/arm_fir_lattice_q15.c ****  */
  49:Drivers/CMSIS/DSP/Source/FilteringFunctions/arm_fir_lattice_q15.c **** 
  50:Drivers/CMSIS/DSP/Source/FilteringFunctions/arm_fir_lattice_q15.c **** void arm_fir_lattice_q15(
  51:Drivers/CMSIS/DSP/Source/FilteringFunctions/arm_fir_lattice_q15.c ****   const arm_fir_lattice_instance_q15 * S,
  52:Drivers/CMSIS/DSP/Source/FilteringFunctions/arm_fir_lattice_q15.c ****   q15_t * pSrc,
  53:Drivers/CMSIS/DSP/Source/FilteringFunctions/arm_fir_lattice_q15.c ****   q15_t * pDst,
  54:Drivers/CMSIS/DSP/Source/FilteringFunctions/arm_fir_lattice_q15.c ****   uint32_t blockSize)
  55:Drivers/CMSIS/DSP/Source/FilteringFunctions/arm_fir_lattice_q15.c **** {
  29              		.loc 1 55 1 view -0
  30              		.cfi_startproc
  31              		@ args = 0, pretend = 0, frame = 48
  32              		@ frame_needed = 0, uses_anonymous_args = 0
  33              		.loc 1 55 1 is_stmt 0 view .LVU1
  34 0000 2DE9F04F 		push	{r4, r5, r6, r7, r8, r9, r10, fp, lr}
  35              		.cfi_def_cfa_offset 36
  36              		.cfi_offset 4, -36
  37              		.cfi_offset 5, -32
  38              		.cfi_offset 6, -28
  39              		.cfi_offset 7, -24
  40              		.cfi_offset 8, -20
  41              		.cfi_offset 9, -16
  42              		.cfi_offset 10, -12
  43              		.cfi_offset 11, -8
  44              		.cfi_offset 14, -4
  45 0004 8DB0     		sub	sp, sp, #52
  46              		.cfi_def_cfa_offset 88
  47 0006 0692     		str	r2, [sp, #24]
  48 0008 1D46     		mov	r5, r3
  56:Drivers/CMSIS/DSP/Source/FilteringFunctions/arm_fir_lattice_q15.c ****   q15_t *pState;                                 /* State pointer */
  49              		.loc 1 56 3 is_stmt 1 view .LVU2
  57:Drivers/CMSIS/DSP/Source/FilteringFunctions/arm_fir_lattice_q15.c ****   q15_t *pCoeffs = S->pCoeffs;                   /* Coefficient pointer */
  50              		.loc 1 57 3 view .LVU3
  51              		.loc 1 57 10 is_stmt 0 view .LVU4
  52 000a 8368     		ldr	r3, [r0, #8]
  53              	.LVL1:
  54              		.loc 1 57 10 view .LVU5
  55 000c 0793     		str	r3, [sp, #28]
  56              	.LVL2:
  58:Drivers/CMSIS/DSP/Source/FilteringFunctions/arm_fir_lattice_q15.c ****   q15_t *px;                                     /* temporary state pointer */
  57              		.loc 1 58 3 is_stmt 1 view .LVU6
ARM GAS  /var/folders/n6/c271nzx11xl4r4_m7sqjlt0m0000gn/T//ccXrJakI.s 			page 3


  59:Drivers/CMSIS/DSP/Source/FilteringFunctions/arm_fir_lattice_q15.c ****   q15_t *pk;                                     /* temporary coefficient pointer */
  58              		.loc 1 59 3 view .LVU7
  60:Drivers/CMSIS/DSP/Source/FilteringFunctions/arm_fir_lattice_q15.c **** 
  61:Drivers/CMSIS/DSP/Source/FilteringFunctions/arm_fir_lattice_q15.c **** 
  62:Drivers/CMSIS/DSP/Source/FilteringFunctions/arm_fir_lattice_q15.c **** #if defined (ARM_MATH_DSP)
  63:Drivers/CMSIS/DSP/Source/FilteringFunctions/arm_fir_lattice_q15.c **** 
  64:Drivers/CMSIS/DSP/Source/FilteringFunctions/arm_fir_lattice_q15.c ****   /* Run the below code for Cortex-M4 and Cortex-M3 */
  65:Drivers/CMSIS/DSP/Source/FilteringFunctions/arm_fir_lattice_q15.c **** 
  66:Drivers/CMSIS/DSP/Source/FilteringFunctions/arm_fir_lattice_q15.c ****   q31_t fcurnt1, fnext1, gcurnt1 = 0, gnext1;    /* temporary variables for first sample in loop un
  59              		.loc 1 66 3 view .LVU8
  67:Drivers/CMSIS/DSP/Source/FilteringFunctions/arm_fir_lattice_q15.c ****   q31_t fcurnt2, fnext2, gnext2;                 /* temporary variables for second sample in loop u
  60              		.loc 1 67 3 view .LVU9
  68:Drivers/CMSIS/DSP/Source/FilteringFunctions/arm_fir_lattice_q15.c ****   q31_t fcurnt3, fnext3, gnext3;                 /* temporary variables for third sample in loop un
  61              		.loc 1 68 3 view .LVU10
  69:Drivers/CMSIS/DSP/Source/FilteringFunctions/arm_fir_lattice_q15.c ****   q31_t fcurnt4, fnext4, gnext4;                 /* temporary variables for fourth sample in loop u
  62              		.loc 1 69 3 view .LVU11
  70:Drivers/CMSIS/DSP/Source/FilteringFunctions/arm_fir_lattice_q15.c ****   uint32_t numStages = S->numStages;             /* Number of stages in the filter */
  63              		.loc 1 70 3 view .LVU12
  64              		.loc 1 70 25 is_stmt 0 view .LVU13
  65 000e 0388     		ldrh	r3, [r0]
  66              	.LVL3:
  67              		.loc 1 70 25 view .LVU14
  68 0010 0A93     		str	r3, [sp, #40]
  69              	.LVL4:
  71:Drivers/CMSIS/DSP/Source/FilteringFunctions/arm_fir_lattice_q15.c ****   uint32_t blkCnt, stageCnt;                     /* temporary variables for counts */
  70              		.loc 1 71 3 is_stmt 1 view .LVU15
  72:Drivers/CMSIS/DSP/Source/FilteringFunctions/arm_fir_lattice_q15.c **** 
  73:Drivers/CMSIS/DSP/Source/FilteringFunctions/arm_fir_lattice_q15.c ****   pState = &S->pState[0];
  71              		.loc 1 73 3 view .LVU16
  72              		.loc 1 73 10 is_stmt 0 view .LVU17
  73 0012 4368     		ldr	r3, [r0, #4]
  74              	.LVL5:
  75              		.loc 1 73 10 view .LVU18
  76 0014 0593     		str	r3, [sp, #20]
  77              	.LVL6:
  74:Drivers/CMSIS/DSP/Source/FilteringFunctions/arm_fir_lattice_q15.c **** 
  75:Drivers/CMSIS/DSP/Source/FilteringFunctions/arm_fir_lattice_q15.c ****   blkCnt = blockSize >> 2U;
  78              		.loc 1 75 3 is_stmt 1 view .LVU19
  79              		.loc 1 75 10 is_stmt 0 view .LVU20
  80 0016 AB08     		lsrs	r3, r5, #2
  81              	.LVL7:
  76:Drivers/CMSIS/DSP/Source/FilteringFunctions/arm_fir_lattice_q15.c **** 
  77:Drivers/CMSIS/DSP/Source/FilteringFunctions/arm_fir_lattice_q15.c ****   /* First part of the processing with loop unrolling.  Compute 4 outputs at a time.
  78:Drivers/CMSIS/DSP/Source/FilteringFunctions/arm_fir_lattice_q15.c ****    ** a second loop below computes the remaining 1 to 3 samples. */
  79:Drivers/CMSIS/DSP/Source/FilteringFunctions/arm_fir_lattice_q15.c ****   while (blkCnt > 0U)
  82              		.loc 1 79 3 is_stmt 1 view .LVU21
  83 0018 0493     		str	r3, [sp, #16]
  84 001a 0B95     		str	r5, [sp, #44]
  85              		.loc 1 79 9 is_stmt 0 view .LVU22
  86 001c 50E1     		b	.L2
  87              	.LVL8:
  88              	.L4:
  80:Drivers/CMSIS/DSP/Source/FilteringFunctions/arm_fir_lattice_q15.c ****   {
  81:Drivers/CMSIS/DSP/Source/FilteringFunctions/arm_fir_lattice_q15.c **** 
  82:Drivers/CMSIS/DSP/Source/FilteringFunctions/arm_fir_lattice_q15.c ****     /* Read two samples from input buffer */
  83:Drivers/CMSIS/DSP/Source/FilteringFunctions/arm_fir_lattice_q15.c ****     /* f0(n) = x(n) */
  84:Drivers/CMSIS/DSP/Source/FilteringFunctions/arm_fir_lattice_q15.c ****     fcurnt1 = *pSrc++;
ARM GAS  /var/folders/n6/c271nzx11xl4r4_m7sqjlt0m0000gn/T//ccXrJakI.s 			page 4


  85:Drivers/CMSIS/DSP/Source/FilteringFunctions/arm_fir_lattice_q15.c ****     fcurnt2 = *pSrc++;
  86:Drivers/CMSIS/DSP/Source/FilteringFunctions/arm_fir_lattice_q15.c **** 
  87:Drivers/CMSIS/DSP/Source/FilteringFunctions/arm_fir_lattice_q15.c ****     /* Initialize coeff pointer */
  88:Drivers/CMSIS/DSP/Source/FilteringFunctions/arm_fir_lattice_q15.c ****     pk = (pCoeffs);
  89:Drivers/CMSIS/DSP/Source/FilteringFunctions/arm_fir_lattice_q15.c **** 
  90:Drivers/CMSIS/DSP/Source/FilteringFunctions/arm_fir_lattice_q15.c ****     /* Initialize state pointer */
  91:Drivers/CMSIS/DSP/Source/FilteringFunctions/arm_fir_lattice_q15.c ****     px = pState;
  92:Drivers/CMSIS/DSP/Source/FilteringFunctions/arm_fir_lattice_q15.c **** 
  93:Drivers/CMSIS/DSP/Source/FilteringFunctions/arm_fir_lattice_q15.c ****     /* Read g0(n-1) from state */
  94:Drivers/CMSIS/DSP/Source/FilteringFunctions/arm_fir_lattice_q15.c ****     gcurnt1 = *px;
  95:Drivers/CMSIS/DSP/Source/FilteringFunctions/arm_fir_lattice_q15.c **** 
  96:Drivers/CMSIS/DSP/Source/FilteringFunctions/arm_fir_lattice_q15.c ****     /* Process first sample for first tap */
  97:Drivers/CMSIS/DSP/Source/FilteringFunctions/arm_fir_lattice_q15.c ****     /* f1(n) = f0(n) +  K1 * g0(n-1) */
  98:Drivers/CMSIS/DSP/Source/FilteringFunctions/arm_fir_lattice_q15.c ****     fnext1 = (q31_t) ((gcurnt1 * (*pk)) >> 15U) + fcurnt1;
  99:Drivers/CMSIS/DSP/Source/FilteringFunctions/arm_fir_lattice_q15.c ****     fnext1 = __SSAT(fnext1, 16);
 100:Drivers/CMSIS/DSP/Source/FilteringFunctions/arm_fir_lattice_q15.c **** 
 101:Drivers/CMSIS/DSP/Source/FilteringFunctions/arm_fir_lattice_q15.c ****     /* g1(n) = f0(n) * K1  +  g0(n-1) */
 102:Drivers/CMSIS/DSP/Source/FilteringFunctions/arm_fir_lattice_q15.c ****     gnext1 = (q31_t) ((fcurnt1 * (*pk)) >> 15U) + gcurnt1;
 103:Drivers/CMSIS/DSP/Source/FilteringFunctions/arm_fir_lattice_q15.c ****     gnext1 = __SSAT(gnext1, 16);
 104:Drivers/CMSIS/DSP/Source/FilteringFunctions/arm_fir_lattice_q15.c **** 
 105:Drivers/CMSIS/DSP/Source/FilteringFunctions/arm_fir_lattice_q15.c ****     /* Process second sample for first tap */
 106:Drivers/CMSIS/DSP/Source/FilteringFunctions/arm_fir_lattice_q15.c ****     /* for sample 2 processing */
 107:Drivers/CMSIS/DSP/Source/FilteringFunctions/arm_fir_lattice_q15.c ****     fnext2 = (q31_t) ((fcurnt1 * (*pk)) >> 15U) + fcurnt2;
 108:Drivers/CMSIS/DSP/Source/FilteringFunctions/arm_fir_lattice_q15.c ****     fnext2 = __SSAT(fnext2, 16);
 109:Drivers/CMSIS/DSP/Source/FilteringFunctions/arm_fir_lattice_q15.c **** 
 110:Drivers/CMSIS/DSP/Source/FilteringFunctions/arm_fir_lattice_q15.c ****     gnext2 = (q31_t) ((fcurnt2 * (*pk)) >> 15U) + fcurnt1;
 111:Drivers/CMSIS/DSP/Source/FilteringFunctions/arm_fir_lattice_q15.c ****     gnext2 = __SSAT(gnext2, 16);
 112:Drivers/CMSIS/DSP/Source/FilteringFunctions/arm_fir_lattice_q15.c **** 
 113:Drivers/CMSIS/DSP/Source/FilteringFunctions/arm_fir_lattice_q15.c **** 
 114:Drivers/CMSIS/DSP/Source/FilteringFunctions/arm_fir_lattice_q15.c ****     /* Read next two samples from input buffer */
 115:Drivers/CMSIS/DSP/Source/FilteringFunctions/arm_fir_lattice_q15.c ****     /* f0(n+2) = x(n+2) */
 116:Drivers/CMSIS/DSP/Source/FilteringFunctions/arm_fir_lattice_q15.c ****     fcurnt3 = *pSrc++;
 117:Drivers/CMSIS/DSP/Source/FilteringFunctions/arm_fir_lattice_q15.c ****     fcurnt4 = *pSrc++;
 118:Drivers/CMSIS/DSP/Source/FilteringFunctions/arm_fir_lattice_q15.c **** 
 119:Drivers/CMSIS/DSP/Source/FilteringFunctions/arm_fir_lattice_q15.c ****     /* Copy only last input samples into the state buffer
 120:Drivers/CMSIS/DSP/Source/FilteringFunctions/arm_fir_lattice_q15.c ****        which is used for next four samples processing */
 121:Drivers/CMSIS/DSP/Source/FilteringFunctions/arm_fir_lattice_q15.c ****     *px++ = (q15_t) fcurnt4;
 122:Drivers/CMSIS/DSP/Source/FilteringFunctions/arm_fir_lattice_q15.c **** 
 123:Drivers/CMSIS/DSP/Source/FilteringFunctions/arm_fir_lattice_q15.c ****     /* Process third sample for first tap */
 124:Drivers/CMSIS/DSP/Source/FilteringFunctions/arm_fir_lattice_q15.c ****     fnext3 = (q31_t) ((fcurnt2 * (*pk)) >> 15U) + fcurnt3;
 125:Drivers/CMSIS/DSP/Source/FilteringFunctions/arm_fir_lattice_q15.c ****     fnext3 = __SSAT(fnext3, 16);
 126:Drivers/CMSIS/DSP/Source/FilteringFunctions/arm_fir_lattice_q15.c ****     gnext3 = (q31_t) ((fcurnt3 * (*pk)) >> 15U) + fcurnt2;
 127:Drivers/CMSIS/DSP/Source/FilteringFunctions/arm_fir_lattice_q15.c ****     gnext3 = __SSAT(gnext3, 16);
 128:Drivers/CMSIS/DSP/Source/FilteringFunctions/arm_fir_lattice_q15.c **** 
 129:Drivers/CMSIS/DSP/Source/FilteringFunctions/arm_fir_lattice_q15.c ****     /* Process fourth sample for first tap */
 130:Drivers/CMSIS/DSP/Source/FilteringFunctions/arm_fir_lattice_q15.c ****     fnext4 = (q31_t) ((fcurnt3 * (*pk)) >> 15U) + fcurnt4;
 131:Drivers/CMSIS/DSP/Source/FilteringFunctions/arm_fir_lattice_q15.c ****     fnext4 = __SSAT(fnext4, 16);
 132:Drivers/CMSIS/DSP/Source/FilteringFunctions/arm_fir_lattice_q15.c ****     gnext4 = (q31_t) ((fcurnt4 * (*pk++)) >> 15U) + fcurnt3;
 133:Drivers/CMSIS/DSP/Source/FilteringFunctions/arm_fir_lattice_q15.c ****     gnext4 = __SSAT(gnext4, 16);
 134:Drivers/CMSIS/DSP/Source/FilteringFunctions/arm_fir_lattice_q15.c **** 
 135:Drivers/CMSIS/DSP/Source/FilteringFunctions/arm_fir_lattice_q15.c ****     /* Update of f values for next coefficient set processing */
 136:Drivers/CMSIS/DSP/Source/FilteringFunctions/arm_fir_lattice_q15.c ****     fcurnt1 = fnext1;
 137:Drivers/CMSIS/DSP/Source/FilteringFunctions/arm_fir_lattice_q15.c ****     fcurnt2 = fnext2;
 138:Drivers/CMSIS/DSP/Source/FilteringFunctions/arm_fir_lattice_q15.c ****     fcurnt3 = fnext3;
 139:Drivers/CMSIS/DSP/Source/FilteringFunctions/arm_fir_lattice_q15.c ****     fcurnt4 = fnext4;
 140:Drivers/CMSIS/DSP/Source/FilteringFunctions/arm_fir_lattice_q15.c **** 
 141:Drivers/CMSIS/DSP/Source/FilteringFunctions/arm_fir_lattice_q15.c **** 
ARM GAS  /var/folders/n6/c271nzx11xl4r4_m7sqjlt0m0000gn/T//ccXrJakI.s 			page 5


 142:Drivers/CMSIS/DSP/Source/FilteringFunctions/arm_fir_lattice_q15.c ****     /* Loop unrolling.  Process 4 taps at a time . */
 143:Drivers/CMSIS/DSP/Source/FilteringFunctions/arm_fir_lattice_q15.c ****     stageCnt = (numStages - 1U) >> 2;
 144:Drivers/CMSIS/DSP/Source/FilteringFunctions/arm_fir_lattice_q15.c **** 
 145:Drivers/CMSIS/DSP/Source/FilteringFunctions/arm_fir_lattice_q15.c **** 
 146:Drivers/CMSIS/DSP/Source/FilteringFunctions/arm_fir_lattice_q15.c ****     /* Loop over the number of taps.  Unroll by a factor of 4.
 147:Drivers/CMSIS/DSP/Source/FilteringFunctions/arm_fir_lattice_q15.c ****      ** Repeat until we've computed numStages-3 coefficients. */
 148:Drivers/CMSIS/DSP/Source/FilteringFunctions/arm_fir_lattice_q15.c **** 
 149:Drivers/CMSIS/DSP/Source/FilteringFunctions/arm_fir_lattice_q15.c ****     /* Process 2nd, 3rd, 4th and 5th taps ... here */
 150:Drivers/CMSIS/DSP/Source/FilteringFunctions/arm_fir_lattice_q15.c ****     while (stageCnt > 0U)
 151:Drivers/CMSIS/DSP/Source/FilteringFunctions/arm_fir_lattice_q15.c ****     {
 152:Drivers/CMSIS/DSP/Source/FilteringFunctions/arm_fir_lattice_q15.c ****       /* Read g1(n-1), g3(n-1) .... from state */
 153:Drivers/CMSIS/DSP/Source/FilteringFunctions/arm_fir_lattice_q15.c ****       gcurnt1 = *px;
  89              		.loc 1 153 7 is_stmt 1 view .LVU23
  90              		.loc 1 153 17 is_stmt 0 view .LVU24
  91 001e 0099     		ldr	r1, [sp]
  92              	.LVL9:
  93              		.loc 1 153 17 view .LVU25
  94 0020 B1F900E0 		ldrsh	lr, [r1]
  95              	.LVL10:
 154:Drivers/CMSIS/DSP/Source/FilteringFunctions/arm_fir_lattice_q15.c **** 
 155:Drivers/CMSIS/DSP/Source/FilteringFunctions/arm_fir_lattice_q15.c ****       /* save g1(n) in state buffer */
 156:Drivers/CMSIS/DSP/Source/FilteringFunctions/arm_fir_lattice_q15.c ****       *px++ = (q15_t) gnext4;
  96              		.loc 1 156 7 is_stmt 1 view .LVU26
  97              		.loc 1 156 13 is_stmt 0 view .LVU27
  98 0024 0A80     		strh	r2, [r1]	@ movhi
 157:Drivers/CMSIS/DSP/Source/FilteringFunctions/arm_fir_lattice_q15.c **** 
 158:Drivers/CMSIS/DSP/Source/FilteringFunctions/arm_fir_lattice_q15.c ****       /* Process first sample for 2nd, 6th .. tap */
 159:Drivers/CMSIS/DSP/Source/FilteringFunctions/arm_fir_lattice_q15.c ****       /* Sample processing for K2, K6.... */
 160:Drivers/CMSIS/DSP/Source/FilteringFunctions/arm_fir_lattice_q15.c ****       /* f1(n) = f0(n) +  K1 * g0(n-1) */
 161:Drivers/CMSIS/DSP/Source/FilteringFunctions/arm_fir_lattice_q15.c ****       fnext1 = (q31_t) ((gcurnt1 * (*pk)) >> 15U) + fcurnt1;
  99              		.loc 1 161 7 is_stmt 1 view .LVU28
 100              		.loc 1 161 37 is_stmt 0 view .LVU29
 101 0026 0199     		ldr	r1, [sp, #4]
 102              	.LVL11:
 103              		.loc 1 161 37 view .LVU30
 104 0028 B1F90020 		ldrsh	r2, [r1]
 105              	.LVL12:
 106              		.loc 1 161 34 view .LVU31
 107 002c 0EFB02F6 		mul	r6, lr, r2
 108              		.loc 1 161 14 view .LVU32
 109 0030 08EBE636 		add	r6, r8, r6, asr #15
 110              	.LVL13:
 162:Drivers/CMSIS/DSP/Source/FilteringFunctions/arm_fir_lattice_q15.c ****       fnext1 = __SSAT(fnext1, 16);
 111              		.loc 1 162 7 is_stmt 1 view .LVU33
 112              	.LBB2:
 113              		.loc 1 162 16 view .LVU34
 114              		.loc 1 162 16 view .LVU35
 115              		.syntax unified
 116              	@ 162 "Drivers/CMSIS/DSP/Source/FilteringFunctions/arm_fir_lattice_q15.c" 1
 117 0034 06F30F06 		ssat r6, #16, r6
 118              	@ 0 "" 2
 119              	.LVL14:
 120              		.loc 1 162 16 is_stmt 0 view .LVU36
 121              		.thumb
 122              		.syntax unified
 123 0038 0296     		str	r6, [sp, #8]
 124              	.LVL15:
ARM GAS  /var/folders/n6/c271nzx11xl4r4_m7sqjlt0m0000gn/T//ccXrJakI.s 			page 6


 125              		.loc 1 162 16 is_stmt 1 view .LVU37
 126              		.loc 1 162 16 is_stmt 0 view .LVU38
 127              	.LBE2:
 163:Drivers/CMSIS/DSP/Source/FilteringFunctions/arm_fir_lattice_q15.c **** 
 164:Drivers/CMSIS/DSP/Source/FilteringFunctions/arm_fir_lattice_q15.c **** 
 165:Drivers/CMSIS/DSP/Source/FilteringFunctions/arm_fir_lattice_q15.c ****       /* Process second sample for 2nd, 6th .. tap */
 166:Drivers/CMSIS/DSP/Source/FilteringFunctions/arm_fir_lattice_q15.c ****       /* for sample 2 processing */
 167:Drivers/CMSIS/DSP/Source/FilteringFunctions/arm_fir_lattice_q15.c ****       fnext2 = (q31_t) ((gnext1 * (*pk)) >> 15U) + fcurnt2;
 128              		.loc 1 167 7 is_stmt 1 view .LVU39
 129              		.loc 1 167 33 is_stmt 0 view .LVU40
 130 003a 00FB02F7 		mul	r7, r0, r2
 131              		.loc 1 167 14 view .LVU41
 132 003e 0BEBE737 		add	r7, fp, r7, asr #15
 133              	.LVL16:
 168:Drivers/CMSIS/DSP/Source/FilteringFunctions/arm_fir_lattice_q15.c ****       fnext2 = __SSAT(fnext2, 16);
 134              		.loc 1 168 7 is_stmt 1 view .LVU42
 135              	.LBB3:
 136              		.loc 1 168 16 view .LVU43
 137              		.loc 1 168 16 view .LVU44
 138              		.syntax unified
 139              	@ 168 "Drivers/CMSIS/DSP/Source/FilteringFunctions/arm_fir_lattice_q15.c" 1
 140 0042 07F30F07 		ssat r7, #16, r7
 141              	@ 0 "" 2
 142              	.LVL17:
 143              		.loc 1 168 16 view .LVU45
 144              		.loc 1 168 16 is_stmt 0 view .LVU46
 145              		.thumb
 146              		.syntax unified
 147              	.LBE3:
 169:Drivers/CMSIS/DSP/Source/FilteringFunctions/arm_fir_lattice_q15.c ****       /* Process third sample for 2nd, 6th .. tap */
 170:Drivers/CMSIS/DSP/Source/FilteringFunctions/arm_fir_lattice_q15.c ****       fnext3 = (q31_t) ((gnext2 * (*pk)) >> 15U) + fcurnt3;
 148              		.loc 1 170 7 is_stmt 1 view .LVU47
 149              		.loc 1 170 33 is_stmt 0 view .LVU48
 150 0046 03FB02FC 		mul	ip, r3, r2
 151              		.loc 1 170 14 view .LVU49
 152 004a 09EBEC3C 		add	ip, r9, ip, asr #15
 153              	.LVL18:
 171:Drivers/CMSIS/DSP/Source/FilteringFunctions/arm_fir_lattice_q15.c ****       fnext3 = __SSAT(fnext3, 16);
 154              		.loc 1 171 7 is_stmt 1 view .LVU50
 155              	.LBB4:
 156              		.loc 1 171 16 view .LVU51
 157              		.loc 1 171 16 view .LVU52
 158              		.syntax unified
 159              	@ 171 "Drivers/CMSIS/DSP/Source/FilteringFunctions/arm_fir_lattice_q15.c" 1
 160 004e 0CF30F0C 		ssat ip, #16, ip
 161              	@ 0 "" 2
 162              	.LVL19:
 163              		.loc 1 171 16 view .LVU53
 164              		.loc 1 171 16 is_stmt 0 view .LVU54
 165              		.thumb
 166              		.syntax unified
 167              	.LBE4:
 172:Drivers/CMSIS/DSP/Source/FilteringFunctions/arm_fir_lattice_q15.c ****       /* Process fourth sample for 2nd, 6th .. tap */
 173:Drivers/CMSIS/DSP/Source/FilteringFunctions/arm_fir_lattice_q15.c ****       /* fnext4 = fcurnt4 + (*pk) * gnext3; */
 174:Drivers/CMSIS/DSP/Source/FilteringFunctions/arm_fir_lattice_q15.c ****       fnext4 = (q31_t) ((gnext3 * (*pk)) >> 15U) + fcurnt4;
 168              		.loc 1 174 7 is_stmt 1 view .LVU55
 169              		.loc 1 174 33 is_stmt 0 view .LVU56
ARM GAS  /var/folders/n6/c271nzx11xl4r4_m7sqjlt0m0000gn/T//ccXrJakI.s 			page 7


 170 0052 04FB02FA 		mul	r10, r4, r2
 171              		.loc 1 174 14 view .LVU57
 172 0056 05EBEA3A 		add	r10, r5, r10, asr #15
 173              	.LVL20:
 175:Drivers/CMSIS/DSP/Source/FilteringFunctions/arm_fir_lattice_q15.c ****       fnext4 = __SSAT(fnext4, 16);
 174              		.loc 1 175 7 is_stmt 1 view .LVU58
 175              	.LBB5:
 176              		.loc 1 175 16 view .LVU59
 177              		.loc 1 175 16 view .LVU60
 178              		.syntax unified
 179              	@ 175 "Drivers/CMSIS/DSP/Source/FilteringFunctions/arm_fir_lattice_q15.c" 1
 180 005a 0AF30F0A 		ssat r10, #16, r10
 181              	@ 0 "" 2
 182              	.LVL21:
 183              		.loc 1 175 16 view .LVU61
 184              		.loc 1 175 16 is_stmt 0 view .LVU62
 185              		.thumb
 186              		.syntax unified
 187              	.LBE5:
 176:Drivers/CMSIS/DSP/Source/FilteringFunctions/arm_fir_lattice_q15.c **** 
 177:Drivers/CMSIS/DSP/Source/FilteringFunctions/arm_fir_lattice_q15.c ****       /* g1(n) = f0(n) * K1  +  g0(n-1) */
 178:Drivers/CMSIS/DSP/Source/FilteringFunctions/arm_fir_lattice_q15.c ****       /* Calculation of state values for next stage */
 179:Drivers/CMSIS/DSP/Source/FilteringFunctions/arm_fir_lattice_q15.c ****       gnext4 = (q31_t) ((fcurnt4 * (*pk)) >> 15U) + gnext3;
 188              		.loc 1 179 7 is_stmt 1 view .LVU63
 189              		.loc 1 179 34 is_stmt 0 view .LVU64
 190 005e 02FB05F5 		mul	r5, r2, r5
 191              	.LVL22:
 192              		.loc 1 179 14 view .LVU65
 193 0062 04EBE535 		add	r5, r4, r5, asr #15
 194              	.LVL23:
 180:Drivers/CMSIS/DSP/Source/FilteringFunctions/arm_fir_lattice_q15.c ****       gnext4 = __SSAT(gnext4, 16);
 195              		.loc 1 180 7 is_stmt 1 view .LVU66
 196              	.LBB6:
 197              		.loc 1 180 16 view .LVU67
 198              		.loc 1 180 16 view .LVU68
 199              		.syntax unified
 200              	@ 180 "Drivers/CMSIS/DSP/Source/FilteringFunctions/arm_fir_lattice_q15.c" 1
 201 0066 05F30F06 		ssat r6, #16, r5
 202              	@ 0 "" 2
 203              	.LVL24:
 204              		.loc 1 180 16 view .LVU69
 205              		.loc 1 180 16 is_stmt 0 view .LVU70
 206              		.thumb
 207              		.syntax unified
 208              	.LBE6:
 181:Drivers/CMSIS/DSP/Source/FilteringFunctions/arm_fir_lattice_q15.c ****       gnext3 = (q31_t) ((fcurnt3 * (*pk)) >> 15U) + gnext2;
 209              		.loc 1 181 7 is_stmt 1 view .LVU71
 210              		.loc 1 181 34 is_stmt 0 view .LVU72
 211 006a 09FB02F9 		mul	r9, r9, r2
 212              	.LVL25:
 213              		.loc 1 181 14 view .LVU73
 214 006e 03EBE939 		add	r9, r3, r9, asr #15
 215              	.LVL26:
 182:Drivers/CMSIS/DSP/Source/FilteringFunctions/arm_fir_lattice_q15.c ****       gnext3 = __SSAT(gnext3, 16);
 216              		.loc 1 182 7 is_stmt 1 view .LVU74
 217              	.LBB7:
 218              		.loc 1 182 16 view .LVU75
ARM GAS  /var/folders/n6/c271nzx11xl4r4_m7sqjlt0m0000gn/T//ccXrJakI.s 			page 8


 219              		.loc 1 182 16 view .LVU76
 220              		.syntax unified
 221              	@ 182 "Drivers/CMSIS/DSP/Source/FilteringFunctions/arm_fir_lattice_q15.c" 1
 222 0072 09F30F03 		ssat r3, #16, r9
 223              	@ 0 "" 2
 224              	.LVL27:
 225              		.loc 1 182 16 view .LVU77
 226              		.loc 1 182 16 is_stmt 0 view .LVU78
 227              		.thumb
 228              		.syntax unified
 229              	.LBE7:
 183:Drivers/CMSIS/DSP/Source/FilteringFunctions/arm_fir_lattice_q15.c **** 
 184:Drivers/CMSIS/DSP/Source/FilteringFunctions/arm_fir_lattice_q15.c ****       gnext2 = (q31_t) ((fcurnt2 * (*pk)) >> 15U) + gnext1;
 230              		.loc 1 184 7 is_stmt 1 view .LVU79
 231              		.loc 1 184 34 is_stmt 0 view .LVU80
 232 0076 0BFB02FB 		mul	fp, fp, r2
 233              	.LVL28:
 234              		.loc 1 184 14 view .LVU81
 235 007a 00EBEB3B 		add	fp, r0, fp, asr #15
 236              	.LVL29:
 185:Drivers/CMSIS/DSP/Source/FilteringFunctions/arm_fir_lattice_q15.c ****       gnext2 = __SSAT(gnext2, 16);
 237              		.loc 1 185 7 is_stmt 1 view .LVU82
 238              	.LBB8:
 239              		.loc 1 185 16 view .LVU83
 240              		.loc 1 185 16 view .LVU84
 241              		.syntax unified
 242              	@ 185 "Drivers/CMSIS/DSP/Source/FilteringFunctions/arm_fir_lattice_q15.c" 1
 243 007e 0BF30F05 		ssat r5, #16, fp
 244              	@ 0 "" 2
 245              	.LVL30:
 246              		.loc 1 185 16 view .LVU85
 247              		.loc 1 185 16 is_stmt 0 view .LVU86
 248              		.thumb
 249              		.syntax unified
 250              	.LBE8:
 186:Drivers/CMSIS/DSP/Source/FilteringFunctions/arm_fir_lattice_q15.c **** 
 187:Drivers/CMSIS/DSP/Source/FilteringFunctions/arm_fir_lattice_q15.c ****       gnext1 = (q31_t) ((fcurnt1 * (*pk++)) >> 15U) + gcurnt1;
 251              		.loc 1 187 7 is_stmt 1 view .LVU87
 252              		.loc 1 187 34 is_stmt 0 view .LVU88
 253 0082 08FB02F2 		mul	r2, r8, r2
 254              	.LVL31:
 255              		.loc 1 187 14 view .LVU89
 256 0086 0EEBE23E 		add	lr, lr, r2, asr #15
 257              	.LVL32:
 188:Drivers/CMSIS/DSP/Source/FilteringFunctions/arm_fir_lattice_q15.c ****       gnext1 = __SSAT(gnext1, 16);
 258              		.loc 1 188 7 is_stmt 1 view .LVU90
 259              	.LBB9:
 260              		.loc 1 188 16 view .LVU91
 261              		.loc 1 188 16 view .LVU92
 262              		.syntax unified
 263              	@ 188 "Drivers/CMSIS/DSP/Source/FilteringFunctions/arm_fir_lattice_q15.c" 1
 264 008a 0EF30F02 		ssat r2, #16, lr
 265              	@ 0 "" 2
 266              	.LVL33:
 267              		.loc 1 188 16 view .LVU93
 268              		.loc 1 188 16 is_stmt 0 view .LVU94
 269              		.thumb
ARM GAS  /var/folders/n6/c271nzx11xl4r4_m7sqjlt0m0000gn/T//ccXrJakI.s 			page 9


 270              		.syntax unified
 271              	.LBE9:
 189:Drivers/CMSIS/DSP/Source/FilteringFunctions/arm_fir_lattice_q15.c **** 
 190:Drivers/CMSIS/DSP/Source/FilteringFunctions/arm_fir_lattice_q15.c **** 
 191:Drivers/CMSIS/DSP/Source/FilteringFunctions/arm_fir_lattice_q15.c ****       /* Read g2(n-1), g4(n-1) .... from state */
 192:Drivers/CMSIS/DSP/Source/FilteringFunctions/arm_fir_lattice_q15.c ****       gcurnt1 = *px;
 272              		.loc 1 192 7 is_stmt 1 view .LVU95
 273              		.loc 1 192 17 is_stmt 0 view .LVU96
 274 008e 0098     		ldr	r0, [sp]
 275              		.loc 1 192 17 view .LVU97
 276 0090 B0F90240 		ldrsh	r4, [r0, #2]
 277              	.LVL34:
 193:Drivers/CMSIS/DSP/Source/FilteringFunctions/arm_fir_lattice_q15.c **** 
 194:Drivers/CMSIS/DSP/Source/FilteringFunctions/arm_fir_lattice_q15.c ****       /* save g1(n) in state buffer */
 195:Drivers/CMSIS/DSP/Source/FilteringFunctions/arm_fir_lattice_q15.c ****       *px++ = (q15_t) gnext4;
 278              		.loc 1 195 7 is_stmt 1 view .LVU98
 279              		.loc 1 195 13 is_stmt 0 view .LVU99
 280 0094 4680     		strh	r6, [r0, #2]	@ movhi
 196:Drivers/CMSIS/DSP/Source/FilteringFunctions/arm_fir_lattice_q15.c **** 
 197:Drivers/CMSIS/DSP/Source/FilteringFunctions/arm_fir_lattice_q15.c ****       /* Sample processing for K3, K7.... */
 198:Drivers/CMSIS/DSP/Source/FilteringFunctions/arm_fir_lattice_q15.c ****       /* Process first sample for 3rd, 7th .. tap */
 199:Drivers/CMSIS/DSP/Source/FilteringFunctions/arm_fir_lattice_q15.c ****       /* f3(n) = f2(n) +  K3 * g2(n-1) */
 200:Drivers/CMSIS/DSP/Source/FilteringFunctions/arm_fir_lattice_q15.c ****       fcurnt1 = (q31_t) ((gcurnt1 * (*pk)) >> 15U) + fnext1;
 281              		.loc 1 200 7 is_stmt 1 view .LVU100
 282              		.loc 1 200 38 is_stmt 0 view .LVU101
 283 0096 B1F90200 		ldrsh	r0, [r1, #2]
 284              		.loc 1 200 35 view .LVU102
 285 009a 04FB00F6 		mul	r6, r4, r0
 286              	.LVL35:
 287              		.loc 1 200 15 view .LVU103
 288 009e 0299     		ldr	r1, [sp, #8]
 289              	.LVL36:
 290              		.loc 1 200 15 view .LVU104
 291 00a0 01EBE636 		add	r6, r1, r6, asr #15
 292              	.LVL37:
 201:Drivers/CMSIS/DSP/Source/FilteringFunctions/arm_fir_lattice_q15.c ****       fcurnt1 = __SSAT(fcurnt1, 16);
 293              		.loc 1 201 7 is_stmt 1 view .LVU105
 294              	.LBB10:
 295              		.loc 1 201 17 view .LVU106
 296              		.loc 1 201 17 view .LVU107
 297              		.syntax unified
 298              	@ 201 "Drivers/CMSIS/DSP/Source/FilteringFunctions/arm_fir_lattice_q15.c" 1
 299 00a4 06F30F09 		ssat r9, #16, r6
 300              	@ 0 "" 2
 301              	.LVL38:
 302              		.loc 1 201 17 view .LVU108
 303              		.loc 1 201 17 is_stmt 0 view .LVU109
 304              		.thumb
 305              		.syntax unified
 306              	.LBE10:
 202:Drivers/CMSIS/DSP/Source/FilteringFunctions/arm_fir_lattice_q15.c **** 
 203:Drivers/CMSIS/DSP/Source/FilteringFunctions/arm_fir_lattice_q15.c ****       /* Process second sample for 3rd, 7th .. tap */
 204:Drivers/CMSIS/DSP/Source/FilteringFunctions/arm_fir_lattice_q15.c ****       fcurnt2 = (q31_t) ((gnext1 * (*pk)) >> 15U) + fnext2;
 307              		.loc 1 204 7 is_stmt 1 view .LVU110
 308              		.loc 1 204 34 is_stmt 0 view .LVU111
 309 00a8 02FB00F6 		mul	r6, r2, r0
 310              	.LVL39:
ARM GAS  /var/folders/n6/c271nzx11xl4r4_m7sqjlt0m0000gn/T//ccXrJakI.s 			page 10


 311              		.loc 1 204 15 view .LVU112
 312 00ac 07EBE636 		add	r6, r7, r6, asr #15
 313              	.LVL40:
 205:Drivers/CMSIS/DSP/Source/FilteringFunctions/arm_fir_lattice_q15.c ****       fcurnt2 = __SSAT(fcurnt2, 16);
 314              		.loc 1 205 7 is_stmt 1 view .LVU113
 315              	.LBB11:
 316              		.loc 1 205 17 view .LVU114
 317              		.loc 1 205 17 view .LVU115
 318              		.syntax unified
 319              	@ 205 "Drivers/CMSIS/DSP/Source/FilteringFunctions/arm_fir_lattice_q15.c" 1
 320 00b0 06F30F06 		ssat r6, #16, r6
 321              	@ 0 "" 2
 322              	.LVL41:
 323              		.loc 1 205 17 view .LVU116
 324              		.loc 1 205 17 is_stmt 0 view .LVU117
 325              		.thumb
 326              		.syntax unified
 327              	.LBE11:
 206:Drivers/CMSIS/DSP/Source/FilteringFunctions/arm_fir_lattice_q15.c **** 
 207:Drivers/CMSIS/DSP/Source/FilteringFunctions/arm_fir_lattice_q15.c ****       /* Process third sample for 3rd, 7th .. tap */
 208:Drivers/CMSIS/DSP/Source/FilteringFunctions/arm_fir_lattice_q15.c ****       fcurnt3 = (q31_t) ((gnext2 * (*pk)) >> 15U) + fnext3;
 328              		.loc 1 208 7 is_stmt 1 view .LVU118
 329              		.loc 1 208 34 is_stmt 0 view .LVU119
 330 00b4 05FB00FE 		mul	lr, r5, r0
 331              	.LVL42:
 332              		.loc 1 208 15 view .LVU120
 333 00b8 0CEBEE3E 		add	lr, ip, lr, asr #15
 334              	.LVL43:
 209:Drivers/CMSIS/DSP/Source/FilteringFunctions/arm_fir_lattice_q15.c ****       fcurnt3 = __SSAT(fcurnt3, 16);
 335              		.loc 1 209 7 is_stmt 1 view .LVU121
 336              	.LBB12:
 337              		.loc 1 209 17 view .LVU122
 338              		.loc 1 209 17 view .LVU123
 339              		.syntax unified
 340              	@ 209 "Drivers/CMSIS/DSP/Source/FilteringFunctions/arm_fir_lattice_q15.c" 1
 341 00bc 0EF30F0E 		ssat lr, #16, lr
 342              	@ 0 "" 2
 343              	.LVL44:
 344              		.loc 1 209 17 view .LVU124
 345              		.loc 1 209 17 is_stmt 0 view .LVU125
 346              		.thumb
 347              		.syntax unified
 348              	.LBE12:
 210:Drivers/CMSIS/DSP/Source/FilteringFunctions/arm_fir_lattice_q15.c **** 
 211:Drivers/CMSIS/DSP/Source/FilteringFunctions/arm_fir_lattice_q15.c ****       /* Process fourth sample for 3rd, 7th .. tap */
 212:Drivers/CMSIS/DSP/Source/FilteringFunctions/arm_fir_lattice_q15.c ****       fcurnt4 = (q31_t) ((gnext3 * (*pk)) >> 15U) + fnext4;
 349              		.loc 1 212 7 is_stmt 1 view .LVU126
 350              		.loc 1 212 34 is_stmt 0 view .LVU127
 351 00c0 03FB00F8 		mul	r8, r3, r0
 352              		.loc 1 212 15 view .LVU128
 353 00c4 0AEBE838 		add	r8, r10, r8, asr #15
 354              	.LVL45:
 213:Drivers/CMSIS/DSP/Source/FilteringFunctions/arm_fir_lattice_q15.c ****       fcurnt4 = __SSAT(fcurnt4, 16);
 355              		.loc 1 213 7 is_stmt 1 view .LVU129
 356              	.LBB13:
 357              		.loc 1 213 17 view .LVU130
 358              		.loc 1 213 17 view .LVU131
ARM GAS  /var/folders/n6/c271nzx11xl4r4_m7sqjlt0m0000gn/T//ccXrJakI.s 			page 11


 359              		.syntax unified
 360              	@ 213 "Drivers/CMSIS/DSP/Source/FilteringFunctions/arm_fir_lattice_q15.c" 1
 361 00c8 08F30F08 		ssat r8, #16, r8
 362              	@ 0 "" 2
 363              	.LVL46:
 364              		.loc 1 213 17 view .LVU132
 365              		.loc 1 213 17 is_stmt 0 view .LVU133
 366              		.thumb
 367              		.syntax unified
 368              	.LBE13:
 214:Drivers/CMSIS/DSP/Source/FilteringFunctions/arm_fir_lattice_q15.c **** 
 215:Drivers/CMSIS/DSP/Source/FilteringFunctions/arm_fir_lattice_q15.c ****       /* Calculation of state values for next stage */
 216:Drivers/CMSIS/DSP/Source/FilteringFunctions/arm_fir_lattice_q15.c ****       /* g3(n) = f2(n) * K3  +  g2(n-1) */
 217:Drivers/CMSIS/DSP/Source/FilteringFunctions/arm_fir_lattice_q15.c ****       gnext4 = (q31_t) ((fnext4 * (*pk)) >> 15U) + gnext3;
 369              		.loc 1 217 7 is_stmt 1 view .LVU134
 370              		.loc 1 217 33 is_stmt 0 view .LVU135
 371 00cc 0AFB00FA 		mul	r10, r10, r0
 372              	.LVL47:
 373              		.loc 1 217 14 view .LVU136
 374 00d0 03EBEA33 		add	r3, r3, r10, asr #15
 375              	.LVL48:
 218:Drivers/CMSIS/DSP/Source/FilteringFunctions/arm_fir_lattice_q15.c ****       gnext4 = __SSAT(gnext4, 16);
 376              		.loc 1 218 7 is_stmt 1 view .LVU137
 377              	.LBB14:
 378              		.loc 1 218 16 view .LVU138
 379              		.loc 1 218 16 view .LVU139
 380              		.syntax unified
 381              	@ 218 "Drivers/CMSIS/DSP/Source/FilteringFunctions/arm_fir_lattice_q15.c" 1
 382 00d4 03F30F03 		ssat r3, #16, r3
 383              	@ 0 "" 2
 384              	.LVL49:
 385              		.loc 1 218 16 view .LVU140
 386              		.loc 1 218 16 is_stmt 0 view .LVU141
 387              		.thumb
 388              		.syntax unified
 389              	.LBE14:
 219:Drivers/CMSIS/DSP/Source/FilteringFunctions/arm_fir_lattice_q15.c **** 
 220:Drivers/CMSIS/DSP/Source/FilteringFunctions/arm_fir_lattice_q15.c ****       gnext3 = (q31_t) ((fnext3 * (*pk)) >> 15U) + gnext2;
 390              		.loc 1 220 7 is_stmt 1 view .LVU142
 391              		.loc 1 220 33 is_stmt 0 view .LVU143
 392 00d8 0CFB00FC 		mul	ip, ip, r0
 393              	.LVL50:
 394              		.loc 1 220 14 view .LVU144
 395 00dc 05EBEC35 		add	r5, r5, ip, asr #15
 396              	.LVL51:
 221:Drivers/CMSIS/DSP/Source/FilteringFunctions/arm_fir_lattice_q15.c ****       gnext3 = __SSAT(gnext3, 16);
 397              		.loc 1 221 7 is_stmt 1 view .LVU145
 398              	.LBB15:
 399              		.loc 1 221 16 view .LVU146
 400              		.loc 1 221 16 view .LVU147
 401              		.syntax unified
 402              	@ 221 "Drivers/CMSIS/DSP/Source/FilteringFunctions/arm_fir_lattice_q15.c" 1
 403 00e0 05F30F05 		ssat r5, #16, r5
 404              	@ 0 "" 2
 405              	.LVL52:
 406              		.loc 1 221 16 view .LVU148
 407              		.loc 1 221 16 is_stmt 0 view .LVU149
ARM GAS  /var/folders/n6/c271nzx11xl4r4_m7sqjlt0m0000gn/T//ccXrJakI.s 			page 12


 408              		.thumb
 409              		.syntax unified
 410              	.LBE15:
 222:Drivers/CMSIS/DSP/Source/FilteringFunctions/arm_fir_lattice_q15.c **** 
 223:Drivers/CMSIS/DSP/Source/FilteringFunctions/arm_fir_lattice_q15.c ****       gnext2 = (q31_t) ((fnext2 * (*pk)) >> 15U) + gnext1;
 411              		.loc 1 223 7 is_stmt 1 view .LVU150
 412              		.loc 1 223 33 is_stmt 0 view .LVU151
 413 00e4 00FB07F7 		mul	r7, r0, r7
 414              	.LVL53:
 415              		.loc 1 223 14 view .LVU152
 416 00e8 02EBE732 		add	r2, r2, r7, asr #15
 417              	.LVL54:
 224:Drivers/CMSIS/DSP/Source/FilteringFunctions/arm_fir_lattice_q15.c ****       gnext2 = __SSAT(gnext2, 16);
 418              		.loc 1 224 7 is_stmt 1 view .LVU153
 419              	.LBB16:
 420              		.loc 1 224 16 view .LVU154
 421              		.loc 1 224 16 view .LVU155
 422              		.syntax unified
 423              	@ 224 "Drivers/CMSIS/DSP/Source/FilteringFunctions/arm_fir_lattice_q15.c" 1
 424 00ec 02F30F02 		ssat r2, #16, r2
 425              	@ 0 "" 2
 426              	.LVL55:
 427              		.loc 1 224 16 view .LVU156
 428              		.loc 1 224 16 is_stmt 0 view .LVU157
 429              		.thumb
 430              		.syntax unified
 431              	.LBE16:
 225:Drivers/CMSIS/DSP/Source/FilteringFunctions/arm_fir_lattice_q15.c **** 
 226:Drivers/CMSIS/DSP/Source/FilteringFunctions/arm_fir_lattice_q15.c ****       gnext1 = (q31_t) ((fnext1 * (*pk++)) >> 15U) + gcurnt1;
 432              		.loc 1 226 7 is_stmt 1 view .LVU158
 433              		.loc 1 226 33 is_stmt 0 view .LVU159
 434 00f0 01FB00F0 		mul	r0, r1, r0
 435              	.LVL56:
 436              		.loc 1 226 14 view .LVU160
 437 00f4 04EBE034 		add	r4, r4, r0, asr #15
 438              	.LVL57:
 227:Drivers/CMSIS/DSP/Source/FilteringFunctions/arm_fir_lattice_q15.c ****       gnext1 = __SSAT(gnext1, 16);
 439              		.loc 1 227 7 is_stmt 1 view .LVU161
 440              	.LBB17:
 441              		.loc 1 227 16 view .LVU162
 442              		.loc 1 227 16 view .LVU163
 443              		.syntax unified
 444              	@ 227 "Drivers/CMSIS/DSP/Source/FilteringFunctions/arm_fir_lattice_q15.c" 1
 445 00f8 04F30F04 		ssat r4, #16, r4
 446              	@ 0 "" 2
 447              	.LVL58:
 448              		.loc 1 227 16 view .LVU164
 449              		.loc 1 227 16 is_stmt 0 view .LVU165
 450              		.thumb
 451              		.syntax unified
 452              	.LBE17:
 228:Drivers/CMSIS/DSP/Source/FilteringFunctions/arm_fir_lattice_q15.c **** 
 229:Drivers/CMSIS/DSP/Source/FilteringFunctions/arm_fir_lattice_q15.c ****       /* Read g1(n-1), g3(n-1) .... from state */
 230:Drivers/CMSIS/DSP/Source/FilteringFunctions/arm_fir_lattice_q15.c ****       gcurnt1 = *px;
 453              		.loc 1 230 7 is_stmt 1 view .LVU166
 454              		.loc 1 230 17 is_stmt 0 view .LVU167
 455 00fc 0099     		ldr	r1, [sp]
ARM GAS  /var/folders/n6/c271nzx11xl4r4_m7sqjlt0m0000gn/T//ccXrJakI.s 			page 13


 456 00fe B1F90400 		ldrsh	r0, [r1, #4]
 457              	.LVL59:
 231:Drivers/CMSIS/DSP/Source/FilteringFunctions/arm_fir_lattice_q15.c **** 
 232:Drivers/CMSIS/DSP/Source/FilteringFunctions/arm_fir_lattice_q15.c ****       /* save g1(n) in state buffer */
 233:Drivers/CMSIS/DSP/Source/FilteringFunctions/arm_fir_lattice_q15.c ****       *px++ = (q15_t) gnext4;
 458              		.loc 1 233 7 is_stmt 1 view .LVU168
 459              		.loc 1 233 13 is_stmt 0 view .LVU169
 460 0102 8B80     		strh	r3, [r1, #4]	@ movhi
 234:Drivers/CMSIS/DSP/Source/FilteringFunctions/arm_fir_lattice_q15.c **** 
 235:Drivers/CMSIS/DSP/Source/FilteringFunctions/arm_fir_lattice_q15.c ****       /* Sample processing for K4, K8.... */
 236:Drivers/CMSIS/DSP/Source/FilteringFunctions/arm_fir_lattice_q15.c ****       /* Process first sample for 4th, 8th .. tap */
 237:Drivers/CMSIS/DSP/Source/FilteringFunctions/arm_fir_lattice_q15.c ****       /* f4(n) = f3(n) +  K4 * g3(n-1) */
 238:Drivers/CMSIS/DSP/Source/FilteringFunctions/arm_fir_lattice_q15.c ****       fnext1 = (q31_t) ((gcurnt1 * (*pk)) >> 15U) + fcurnt1;
 461              		.loc 1 238 7 is_stmt 1 view .LVU170
 462              		.loc 1 238 37 is_stmt 0 view .LVU171
 463 0104 019B     		ldr	r3, [sp, #4]
 464              	.LVL60:
 465              		.loc 1 238 37 view .LVU172
 466 0106 B3F90430 		ldrsh	r3, [r3, #4]
 467              		.loc 1 238 34 view .LVU173
 468 010a 00FB03F7 		mul	r7, r0, r3
 469              		.loc 1 238 14 view .LVU174
 470 010e 09EBE737 		add	r7, r9, r7, asr #15
 471              	.LVL61:
 239:Drivers/CMSIS/DSP/Source/FilteringFunctions/arm_fir_lattice_q15.c ****       fnext1 = __SSAT(fnext1, 16);
 472              		.loc 1 239 7 is_stmt 1 view .LVU175
 473              	.LBB18:
 474              		.loc 1 239 16 view .LVU176
 475              		.loc 1 239 16 view .LVU177
 476              		.syntax unified
 477              	@ 239 "Drivers/CMSIS/DSP/Source/FilteringFunctions/arm_fir_lattice_q15.c" 1
 478 0112 07F30F01 		ssat r1, #16, r7
 479              	@ 0 "" 2
 480              	.LVL62:
 481              		.loc 1 239 16 view .LVU178
 482              		.loc 1 239 16 is_stmt 0 view .LVU179
 483              		.thumb
 484              		.syntax unified
 485              	.LBE18:
 240:Drivers/CMSIS/DSP/Source/FilteringFunctions/arm_fir_lattice_q15.c **** 
 241:Drivers/CMSIS/DSP/Source/FilteringFunctions/arm_fir_lattice_q15.c ****       /* Process second sample for 4th, 8th .. tap */
 242:Drivers/CMSIS/DSP/Source/FilteringFunctions/arm_fir_lattice_q15.c ****       /* for sample 2 processing */
 243:Drivers/CMSIS/DSP/Source/FilteringFunctions/arm_fir_lattice_q15.c ****       fnext2 = (q31_t) ((gnext1 * (*pk)) >> 15U) + fcurnt2;
 486              		.loc 1 243 7 is_stmt 1 view .LVU180
 487              		.loc 1 243 33 is_stmt 0 view .LVU181
 488 0116 04FB03F7 		mul	r7, r4, r3
 489              	.LVL63:
 490              		.loc 1 243 14 view .LVU182
 491 011a 06EBE737 		add	r7, r6, r7, asr #15
 492              	.LVL64:
 244:Drivers/CMSIS/DSP/Source/FilteringFunctions/arm_fir_lattice_q15.c ****       fnext2 = __SSAT(fnext2, 16);
 493              		.loc 1 244 7 is_stmt 1 view .LVU183
 494              	.LBB19:
 495              		.loc 1 244 16 view .LVU184
 496              		.loc 1 244 16 view .LVU185
 497              		.syntax unified
 498              	@ 244 "Drivers/CMSIS/DSP/Source/FilteringFunctions/arm_fir_lattice_q15.c" 1
ARM GAS  /var/folders/n6/c271nzx11xl4r4_m7sqjlt0m0000gn/T//ccXrJakI.s 			page 14


 499 011e 07F30F0A 		ssat r10, #16, r7
 500              	@ 0 "" 2
 501              	.LVL65:
 502              		.loc 1 244 16 view .LVU186
 503              		.loc 1 244 16 is_stmt 0 view .LVU187
 504              		.thumb
 505              		.syntax unified
 506              	.LBE19:
 245:Drivers/CMSIS/DSP/Source/FilteringFunctions/arm_fir_lattice_q15.c **** 
 246:Drivers/CMSIS/DSP/Source/FilteringFunctions/arm_fir_lattice_q15.c ****       /* Process third sample for 4th, 8th .. tap */
 247:Drivers/CMSIS/DSP/Source/FilteringFunctions/arm_fir_lattice_q15.c ****       fnext3 = (q31_t) ((gnext2 * (*pk)) >> 15U) + fcurnt3;
 507              		.loc 1 247 7 is_stmt 1 view .LVU188
 508              		.loc 1 247 33 is_stmt 0 view .LVU189
 509 0122 02FB03F7 		mul	r7, r2, r3
 510              	.LVL66:
 511              		.loc 1 247 14 view .LVU190
 512 0126 0EEBE737 		add	r7, lr, r7, asr #15
 513              	.LVL67:
 248:Drivers/CMSIS/DSP/Source/FilteringFunctions/arm_fir_lattice_q15.c ****       fnext3 = __SSAT(fnext3, 16);
 514              		.loc 1 248 7 is_stmt 1 view .LVU191
 515              	.LBB20:
 516              		.loc 1 248 16 view .LVU192
 517              		.loc 1 248 16 view .LVU193
 518              		.syntax unified
 519              	@ 248 "Drivers/CMSIS/DSP/Source/FilteringFunctions/arm_fir_lattice_q15.c" 1
 520 012a 07F30F07 		ssat r7, #16, r7
 521              	@ 0 "" 2
 522              	.LVL68:
 523              		.loc 1 248 16 view .LVU194
 524              		.loc 1 248 16 is_stmt 0 view .LVU195
 525              		.thumb
 526              		.syntax unified
 527              	.LBE20:
 249:Drivers/CMSIS/DSP/Source/FilteringFunctions/arm_fir_lattice_q15.c **** 
 250:Drivers/CMSIS/DSP/Source/FilteringFunctions/arm_fir_lattice_q15.c ****       /* Process fourth sample for 4th, 8th .. tap */
 251:Drivers/CMSIS/DSP/Source/FilteringFunctions/arm_fir_lattice_q15.c ****       fnext4 = (q31_t) ((gnext3 * (*pk)) >> 15U) + fcurnt4;
 528              		.loc 1 251 7 is_stmt 1 view .LVU196
 529              		.loc 1 251 33 is_stmt 0 view .LVU197
 530 012e 05FB03FC 		mul	ip, r5, r3
 531              		.loc 1 251 14 view .LVU198
 532 0132 08EBEC3C 		add	ip, r8, ip, asr #15
 533              	.LVL69:
 252:Drivers/CMSIS/DSP/Source/FilteringFunctions/arm_fir_lattice_q15.c ****       fnext4 = __SSAT(fnext4, 16);
 534              		.loc 1 252 7 is_stmt 1 view .LVU199
 535              	.LBB21:
 536              		.loc 1 252 16 view .LVU200
 537              		.loc 1 252 16 view .LVU201
 538              		.syntax unified
 539              	@ 252 "Drivers/CMSIS/DSP/Source/FilteringFunctions/arm_fir_lattice_q15.c" 1
 540 0136 0CF30F0C 		ssat ip, #16, ip
 541              	@ 0 "" 2
 542              	.LVL70:
 543              		.loc 1 252 16 view .LVU202
 544              		.loc 1 252 16 is_stmt 0 view .LVU203
 545              		.thumb
 546              		.syntax unified
 547              	.LBE21:
ARM GAS  /var/folders/n6/c271nzx11xl4r4_m7sqjlt0m0000gn/T//ccXrJakI.s 			page 15


 253:Drivers/CMSIS/DSP/Source/FilteringFunctions/arm_fir_lattice_q15.c **** 
 254:Drivers/CMSIS/DSP/Source/FilteringFunctions/arm_fir_lattice_q15.c ****       /* g4(n) = f3(n) * K4  +  g3(n-1) */
 255:Drivers/CMSIS/DSP/Source/FilteringFunctions/arm_fir_lattice_q15.c ****       /* Calculation of state values for next stage */
 256:Drivers/CMSIS/DSP/Source/FilteringFunctions/arm_fir_lattice_q15.c ****       gnext4 = (q31_t) ((fcurnt4 * (*pk)) >> 15U) + gnext3;
 548              		.loc 1 256 7 is_stmt 1 view .LVU204
 549              		.loc 1 256 34 is_stmt 0 view .LVU205
 550 013a 08FB03F8 		mul	r8, r8, r3
 551              	.LVL71:
 552              		.loc 1 256 14 view .LVU206
 553 013e 05EBE835 		add	r5, r5, r8, asr #15
 554              	.LVL72:
 257:Drivers/CMSIS/DSP/Source/FilteringFunctions/arm_fir_lattice_q15.c ****       gnext4 = __SSAT(gnext4, 16);
 555              		.loc 1 257 7 is_stmt 1 view .LVU207
 556              	.LBB22:
 557              		.loc 1 257 16 view .LVU208
 558              		.loc 1 257 16 view .LVU209
 559              		.syntax unified
 560              	@ 257 "Drivers/CMSIS/DSP/Source/FilteringFunctions/arm_fir_lattice_q15.c" 1
 561 0142 05F30F05 		ssat r5, #16, r5
 562              	@ 0 "" 2
 563              	.LVL73:
 564              		.loc 1 257 16 view .LVU210
 565              		.loc 1 257 16 is_stmt 0 view .LVU211
 566              		.thumb
 567              		.syntax unified
 568              	.LBE22:
 258:Drivers/CMSIS/DSP/Source/FilteringFunctions/arm_fir_lattice_q15.c **** 
 259:Drivers/CMSIS/DSP/Source/FilteringFunctions/arm_fir_lattice_q15.c ****       gnext3 = (q31_t) ((fcurnt3 * (*pk)) >> 15U) + gnext2;
 569              		.loc 1 259 7 is_stmt 1 view .LVU212
 570              		.loc 1 259 34 is_stmt 0 view .LVU213
 571 0146 0EFB03FE 		mul	lr, lr, r3
 572              	.LVL74:
 573              		.loc 1 259 14 view .LVU214
 574 014a 02EBEE32 		add	r2, r2, lr, asr #15
 575              	.LVL75:
 260:Drivers/CMSIS/DSP/Source/FilteringFunctions/arm_fir_lattice_q15.c ****       gnext3 = __SSAT(gnext3, 16);
 576              		.loc 1 260 7 is_stmt 1 view .LVU215
 577              	.LBB23:
 578              		.loc 1 260 16 view .LVU216
 579              		.loc 1 260 16 view .LVU217
 580              		.syntax unified
 581              	@ 260 "Drivers/CMSIS/DSP/Source/FilteringFunctions/arm_fir_lattice_q15.c" 1
 582 014e 02F30F02 		ssat r2, #16, r2
 583              	@ 0 "" 2
 584              	.LVL76:
 585              		.loc 1 260 16 view .LVU218
 586              		.loc 1 260 16 is_stmt 0 view .LVU219
 587              		.thumb
 588              		.syntax unified
 589              	.LBE23:
 261:Drivers/CMSIS/DSP/Source/FilteringFunctions/arm_fir_lattice_q15.c **** 
 262:Drivers/CMSIS/DSP/Source/FilteringFunctions/arm_fir_lattice_q15.c ****       gnext2 = (q31_t) ((fcurnt2 * (*pk)) >> 15U) + gnext1;
 590              		.loc 1 262 7 is_stmt 1 view .LVU220
 591              		.loc 1 262 34 is_stmt 0 view .LVU221
 592 0152 03FB06F6 		mul	r6, r3, r6
 593              	.LVL77:
 594              		.loc 1 262 14 view .LVU222
ARM GAS  /var/folders/n6/c271nzx11xl4r4_m7sqjlt0m0000gn/T//ccXrJakI.s 			page 16


 595 0156 04EBE634 		add	r4, r4, r6, asr #15
 596              	.LVL78:
 263:Drivers/CMSIS/DSP/Source/FilteringFunctions/arm_fir_lattice_q15.c ****       gnext2 = __SSAT(gnext2, 16);
 597              		.loc 1 263 7 is_stmt 1 view .LVU223
 598              	.LBB24:
 599              		.loc 1 263 16 view .LVU224
 600              		.loc 1 263 16 view .LVU225
 601              		.syntax unified
 602              	@ 263 "Drivers/CMSIS/DSP/Source/FilteringFunctions/arm_fir_lattice_q15.c" 1
 603 015a 04F30F04 		ssat r4, #16, r4
 604              	@ 0 "" 2
 605              	.LVL79:
 606              		.loc 1 263 16 view .LVU226
 607              		.loc 1 263 16 is_stmt 0 view .LVU227
 608              		.thumb
 609              		.syntax unified
 610              	.LBE24:
 264:Drivers/CMSIS/DSP/Source/FilteringFunctions/arm_fir_lattice_q15.c ****       gnext1 = (q31_t) ((fcurnt1 * (*pk++)) >> 15U) + gcurnt1;
 611              		.loc 1 264 7 is_stmt 1 view .LVU228
 612              		.loc 1 264 34 is_stmt 0 view .LVU229
 613 015e 09FB03F3 		mul	r3, r9, r3
 614              	.LVL80:
 615              		.loc 1 264 14 view .LVU230
 616 0162 00EBE333 		add	r3, r0, r3, asr #15
 617              	.LVL81:
 265:Drivers/CMSIS/DSP/Source/FilteringFunctions/arm_fir_lattice_q15.c ****       gnext1 = __SSAT(gnext1, 16);
 618              		.loc 1 265 7 is_stmt 1 view .LVU231
 619              	.LBB25:
 620              		.loc 1 265 16 view .LVU232
 621              		.loc 1 265 16 view .LVU233
 622              		.syntax unified
 623              	@ 265 "Drivers/CMSIS/DSP/Source/FilteringFunctions/arm_fir_lattice_q15.c" 1
 624 0166 03F30F03 		ssat r3, #16, r3
 625              	@ 0 "" 2
 626              	.LVL82:
 627              		.loc 1 265 16 view .LVU234
 628              		.loc 1 265 16 is_stmt 0 view .LVU235
 629              		.thumb
 630              		.syntax unified
 631              	.LBE25:
 266:Drivers/CMSIS/DSP/Source/FilteringFunctions/arm_fir_lattice_q15.c **** 
 267:Drivers/CMSIS/DSP/Source/FilteringFunctions/arm_fir_lattice_q15.c **** 
 268:Drivers/CMSIS/DSP/Source/FilteringFunctions/arm_fir_lattice_q15.c ****       /* Read g2(n-1), g4(n-1) .... from state */
 269:Drivers/CMSIS/DSP/Source/FilteringFunctions/arm_fir_lattice_q15.c ****       gcurnt1 = *px;
 632              		.loc 1 269 7 is_stmt 1 view .LVU236
 633              		.loc 1 269 17 is_stmt 0 view .LVU237
 634 016a 009E     		ldr	r6, [sp]
 635              		.loc 1 269 17 view .LVU238
 636 016c B6F90600 		ldrsh	r0, [r6, #6]
 637              	.LVL83:
 270:Drivers/CMSIS/DSP/Source/FilteringFunctions/arm_fir_lattice_q15.c **** 
 271:Drivers/CMSIS/DSP/Source/FilteringFunctions/arm_fir_lattice_q15.c ****       /* save g4(n) in state buffer */
 272:Drivers/CMSIS/DSP/Source/FilteringFunctions/arm_fir_lattice_q15.c ****       *px++ = (q15_t) gnext4;
 638              		.loc 1 272 7 is_stmt 1 view .LVU239
 639              		.loc 1 272 13 is_stmt 0 view .LVU240
 640 0170 F580     		strh	r5, [r6, #6]	@ movhi
 273:Drivers/CMSIS/DSP/Source/FilteringFunctions/arm_fir_lattice_q15.c **** 
ARM GAS  /var/folders/n6/c271nzx11xl4r4_m7sqjlt0m0000gn/T//ccXrJakI.s 			page 17


 274:Drivers/CMSIS/DSP/Source/FilteringFunctions/arm_fir_lattice_q15.c ****       /* Sample processing for K5, K9.... */
 275:Drivers/CMSIS/DSP/Source/FilteringFunctions/arm_fir_lattice_q15.c ****       /* Process first sample for 5th, 9th .. tap */
 276:Drivers/CMSIS/DSP/Source/FilteringFunctions/arm_fir_lattice_q15.c ****       /* f5(n) = f4(n) +  K5 * g4(n-1) */
 277:Drivers/CMSIS/DSP/Source/FilteringFunctions/arm_fir_lattice_q15.c ****       fcurnt1 = (q31_t) ((gcurnt1 * (*pk)) >> 15U) + fnext1;
 641              		.loc 1 277 7 is_stmt 1 view .LVU241
 642              		.loc 1 277 38 is_stmt 0 view .LVU242
 643 0172 019D     		ldr	r5, [sp, #4]
 644              	.LVL84:
 645              		.loc 1 277 38 view .LVU243
 646 0174 B5F90660 		ldrsh	r6, [r5, #6]
 647              		.loc 1 277 35 view .LVU244
 648 0178 00FB06F5 		mul	r5, r0, r6
 649              		.loc 1 277 15 view .LVU245
 650 017c 01EBE535 		add	r5, r1, r5, asr #15
 651              	.LVL85:
 278:Drivers/CMSIS/DSP/Source/FilteringFunctions/arm_fir_lattice_q15.c ****       fcurnt1 = __SSAT(fcurnt1, 16);
 652              		.loc 1 278 7 is_stmt 1 view .LVU246
 653              	.LBB26:
 654              		.loc 1 278 17 view .LVU247
 655              		.loc 1 278 17 view .LVU248
 656              		.syntax unified
 657              	@ 278 "Drivers/CMSIS/DSP/Source/FilteringFunctions/arm_fir_lattice_q15.c" 1
 658 0180 05F30F08 		ssat r8, #16, r5
 659              	@ 0 "" 2
 660              	.LVL86:
 661              		.loc 1 278 17 view .LVU249
 662              		.loc 1 278 17 is_stmt 0 view .LVU250
 663              		.thumb
 664              		.syntax unified
 665              	.LBE26:
 279:Drivers/CMSIS/DSP/Source/FilteringFunctions/arm_fir_lattice_q15.c **** 
 280:Drivers/CMSIS/DSP/Source/FilteringFunctions/arm_fir_lattice_q15.c ****       /* Process second sample for 5th, 9th .. tap */
 281:Drivers/CMSIS/DSP/Source/FilteringFunctions/arm_fir_lattice_q15.c ****       fcurnt2 = (q31_t) ((gnext1 * (*pk)) >> 15U) + fnext2;
 666              		.loc 1 281 7 is_stmt 1 view .LVU251
 667              		.loc 1 281 34 is_stmt 0 view .LVU252
 668 0184 03FB06FB 		mul	fp, r3, r6
 669              	.LVL87:
 670              		.loc 1 281 15 view .LVU253
 671 0188 0AEBEB3B 		add	fp, r10, fp, asr #15
 672              	.LVL88:
 282:Drivers/CMSIS/DSP/Source/FilteringFunctions/arm_fir_lattice_q15.c ****       fcurnt2 = __SSAT(fcurnt2, 16);
 673              		.loc 1 282 7 is_stmt 1 view .LVU254
 674              	.LBB27:
 675              		.loc 1 282 17 view .LVU255
 676              		.loc 1 282 17 view .LVU256
 677              		.syntax unified
 678              	@ 282 "Drivers/CMSIS/DSP/Source/FilteringFunctions/arm_fir_lattice_q15.c" 1
 679 018c 0BF30F0B 		ssat fp, #16, fp
 680              	@ 0 "" 2
 681              	.LVL89:
 682              		.loc 1 282 17 view .LVU257
 683              		.loc 1 282 17 is_stmt 0 view .LVU258
 684              		.thumb
 685              		.syntax unified
 686              	.LBE27:
 283:Drivers/CMSIS/DSP/Source/FilteringFunctions/arm_fir_lattice_q15.c **** 
 284:Drivers/CMSIS/DSP/Source/FilteringFunctions/arm_fir_lattice_q15.c ****       /* Process third sample for 5th, 9th .. tap */
ARM GAS  /var/folders/n6/c271nzx11xl4r4_m7sqjlt0m0000gn/T//ccXrJakI.s 			page 18


 285:Drivers/CMSIS/DSP/Source/FilteringFunctions/arm_fir_lattice_q15.c ****       fcurnt3 = (q31_t) ((gnext2 * (*pk)) >> 15U) + fnext3;
 687              		.loc 1 285 7 is_stmt 1 view .LVU259
 688              		.loc 1 285 34 is_stmt 0 view .LVU260
 689 0190 04FB06F9 		mul	r9, r4, r6
 690              	.LVL90:
 691              		.loc 1 285 15 view .LVU261
 692 0194 07EBE939 		add	r9, r7, r9, asr #15
 693              	.LVL91:
 286:Drivers/CMSIS/DSP/Source/FilteringFunctions/arm_fir_lattice_q15.c ****       fcurnt3 = __SSAT(fcurnt3, 16);
 694              		.loc 1 286 7 is_stmt 1 view .LVU262
 695              	.LBB28:
 696              		.loc 1 286 17 view .LVU263
 697              		.loc 1 286 17 view .LVU264
 698              		.syntax unified
 699              	@ 286 "Drivers/CMSIS/DSP/Source/FilteringFunctions/arm_fir_lattice_q15.c" 1
 700 0198 09F30F09 		ssat r9, #16, r9
 701              	@ 0 "" 2
 702              	.LVL92:
 703              		.loc 1 286 17 view .LVU265
 704              		.loc 1 286 17 is_stmt 0 view .LVU266
 705              		.thumb
 706              		.syntax unified
 707              	.LBE28:
 287:Drivers/CMSIS/DSP/Source/FilteringFunctions/arm_fir_lattice_q15.c **** 
 288:Drivers/CMSIS/DSP/Source/FilteringFunctions/arm_fir_lattice_q15.c ****       /* Process fourth sample for 5th, 9th .. tap */
 289:Drivers/CMSIS/DSP/Source/FilteringFunctions/arm_fir_lattice_q15.c ****       fcurnt4 = (q31_t) ((gnext3 * (*pk)) >> 15U) + fnext4;
 708              		.loc 1 289 7 is_stmt 1 view .LVU267
 709              		.loc 1 289 34 is_stmt 0 view .LVU268
 710 019c 02FB06F5 		mul	r5, r2, r6
 711              	.LVL93:
 712              		.loc 1 289 15 view .LVU269
 713 01a0 0CEBE535 		add	r5, ip, r5, asr #15
 714              	.LVL94:
 290:Drivers/CMSIS/DSP/Source/FilteringFunctions/arm_fir_lattice_q15.c ****       fcurnt4 = __SSAT(fcurnt4, 16);
 715              		.loc 1 290 7 is_stmt 1 view .LVU270
 716              	.LBB29:
 717              		.loc 1 290 17 view .LVU271
 718              		.loc 1 290 17 view .LVU272
 719              		.syntax unified
 720              	@ 290 "Drivers/CMSIS/DSP/Source/FilteringFunctions/arm_fir_lattice_q15.c" 1
 721 01a4 05F30F05 		ssat r5, #16, r5
 722              	@ 0 "" 2
 723              	.LVL95:
 724              		.loc 1 290 17 view .LVU273
 725              		.loc 1 290 17 is_stmt 0 view .LVU274
 726              		.thumb
 727              		.syntax unified
 728              	.LBE29:
 291:Drivers/CMSIS/DSP/Source/FilteringFunctions/arm_fir_lattice_q15.c **** 
 292:Drivers/CMSIS/DSP/Source/FilteringFunctions/arm_fir_lattice_q15.c ****       /* Calculation of state values for next stage */
 293:Drivers/CMSIS/DSP/Source/FilteringFunctions/arm_fir_lattice_q15.c ****       /* g5(n) = f4(n) * K5  +  g4(n-1) */
 294:Drivers/CMSIS/DSP/Source/FilteringFunctions/arm_fir_lattice_q15.c ****       gnext4 = (q31_t) ((fnext4 * (*pk)) >> 15U) + gnext3;
 729              		.loc 1 294 7 is_stmt 1 view .LVU275
 730              		.loc 1 294 33 is_stmt 0 view .LVU276
 731 01a8 0CFB06FC 		mul	ip, ip, r6
 732              	.LVL96:
 733              		.loc 1 294 14 view .LVU277
ARM GAS  /var/folders/n6/c271nzx11xl4r4_m7sqjlt0m0000gn/T//ccXrJakI.s 			page 19


 734 01ac 02EBEC32 		add	r2, r2, ip, asr #15
 735              	.LVL97:
 295:Drivers/CMSIS/DSP/Source/FilteringFunctions/arm_fir_lattice_q15.c ****       gnext4 = __SSAT(gnext4, 16);
 736              		.loc 1 295 7 is_stmt 1 view .LVU278
 737              	.LBB30:
 738              		.loc 1 295 16 view .LVU279
 739              		.loc 1 295 16 view .LVU280
 740              		.syntax unified
 741              	@ 295 "Drivers/CMSIS/DSP/Source/FilteringFunctions/arm_fir_lattice_q15.c" 1
 742 01b0 02F30F02 		ssat r2, #16, r2
 743              	@ 0 "" 2
 744              	.LVL98:
 745              		.loc 1 295 16 view .LVU281
 746              		.loc 1 295 16 is_stmt 0 view .LVU282
 747              		.thumb
 748              		.syntax unified
 749              	.LBE30:
 296:Drivers/CMSIS/DSP/Source/FilteringFunctions/arm_fir_lattice_q15.c ****       gnext3 = (q31_t) ((fnext3 * (*pk)) >> 15U) + gnext2;
 750              		.loc 1 296 7 is_stmt 1 view .LVU283
 751              		.loc 1 296 33 is_stmt 0 view .LVU284
 752 01b4 06FB07F7 		mul	r7, r6, r7
 753              	.LVL99:
 754              		.loc 1 296 14 view .LVU285
 755 01b8 04EBE734 		add	r4, r4, r7, asr #15
 756              	.LVL100:
 297:Drivers/CMSIS/DSP/Source/FilteringFunctions/arm_fir_lattice_q15.c ****       gnext3 = __SSAT(gnext3, 16);
 757              		.loc 1 297 7 is_stmt 1 view .LVU286
 758              	.LBB31:
 759              		.loc 1 297 16 view .LVU287
 760              		.loc 1 297 16 view .LVU288
 761              		.syntax unified
 762              	@ 297 "Drivers/CMSIS/DSP/Source/FilteringFunctions/arm_fir_lattice_q15.c" 1
 763 01bc 04F30F04 		ssat r4, #16, r4
 764              	@ 0 "" 2
 765              	.LVL101:
 766              		.loc 1 297 16 view .LVU289
 767              		.loc 1 297 16 is_stmt 0 view .LVU290
 768              		.thumb
 769              		.syntax unified
 770              	.LBE31:
 298:Drivers/CMSIS/DSP/Source/FilteringFunctions/arm_fir_lattice_q15.c ****       gnext2 = (q31_t) ((fnext2 * (*pk)) >> 15U) + gnext1;
 771              		.loc 1 298 7 is_stmt 1 view .LVU291
 772              		.loc 1 298 33 is_stmt 0 view .LVU292
 773 01c0 0AFB06FA 		mul	r10, r10, r6
 774              	.LVL102:
 775              		.loc 1 298 14 view .LVU293
 776 01c4 03EBEA33 		add	r3, r3, r10, asr #15
 777              	.LVL103:
 299:Drivers/CMSIS/DSP/Source/FilteringFunctions/arm_fir_lattice_q15.c ****       gnext2 = __SSAT(gnext2, 16);
 778              		.loc 1 299 7 is_stmt 1 view .LVU294
 779              	.LBB32:
 780              		.loc 1 299 16 view .LVU295
 781              		.loc 1 299 16 view .LVU296
 782              		.syntax unified
 783              	@ 299 "Drivers/CMSIS/DSP/Source/FilteringFunctions/arm_fir_lattice_q15.c" 1
 784 01c8 03F30F03 		ssat r3, #16, r3
 785              	@ 0 "" 2
ARM GAS  /var/folders/n6/c271nzx11xl4r4_m7sqjlt0m0000gn/T//ccXrJakI.s 			page 20


 786              	.LVL104:
 787              		.loc 1 299 16 view .LVU297
 788              		.loc 1 299 16 is_stmt 0 view .LVU298
 789              		.thumb
 790              		.syntax unified
 791              	.LBE32:
 300:Drivers/CMSIS/DSP/Source/FilteringFunctions/arm_fir_lattice_q15.c ****       gnext1 = (q31_t) ((fnext1 * (*pk++)) >> 15U) + gcurnt1;
 792              		.loc 1 300 7 is_stmt 1 view .LVU299
 793              		.loc 1 300 39 is_stmt 0 view .LVU300
 794 01cc 019F     		ldr	r7, [sp, #4]
 795              		.loc 1 300 39 view .LVU301
 796 01ce 0837     		adds	r7, r7, #8
 797 01d0 0197     		str	r7, [sp, #4]
 798              	.LVL105:
 799              		.loc 1 300 33 view .LVU302
 800 01d2 01FB06F6 		mul	r6, r1, r6
 801              	.LVL106:
 802              		.loc 1 300 14 view .LVU303
 803 01d6 00EBE630 		add	r0, r0, r6, asr #15
 804              	.LVL107:
 301:Drivers/CMSIS/DSP/Source/FilteringFunctions/arm_fir_lattice_q15.c ****       gnext1 = __SSAT(gnext1, 16);
 805              		.loc 1 301 7 is_stmt 1 view .LVU304
 806              	.LBB33:
 807              		.loc 1 301 16 view .LVU305
 808              		.loc 1 301 16 view .LVU306
 809              		.syntax unified
 810              	@ 301 "Drivers/CMSIS/DSP/Source/FilteringFunctions/arm_fir_lattice_q15.c" 1
 811 01da 00F30F00 		ssat r0, #16, r0
 812              	@ 0 "" 2
 813              	.LVL108:
 814              		.loc 1 301 16 view .LVU307
 815              		.loc 1 301 16 is_stmt 0 view .LVU308
 816              		.thumb
 817              		.syntax unified
 818              	.LBE33:
 302:Drivers/CMSIS/DSP/Source/FilteringFunctions/arm_fir_lattice_q15.c **** 
 303:Drivers/CMSIS/DSP/Source/FilteringFunctions/arm_fir_lattice_q15.c ****       stageCnt--;
 819              		.loc 1 303 7 is_stmt 1 view .LVU309
 820              		.loc 1 303 15 is_stmt 0 view .LVU310
 821 01de 0399     		ldr	r1, [sp, #12]
 822              	.LVL109:
 823              		.loc 1 303 15 view .LVU311
 824 01e0 0139     		subs	r1, r1, #1
 825 01e2 0391     		str	r1, [sp, #12]
 826              	.LVL110:
 272:Drivers/CMSIS/DSP/Source/FilteringFunctions/arm_fir_lattice_q15.c **** 
 827              		.loc 1 272 10 view .LVU312
 828 01e4 009E     		ldr	r6, [sp]
 272:Drivers/CMSIS/DSP/Source/FilteringFunctions/arm_fir_lattice_q15.c **** 
 829              		.loc 1 272 10 view .LVU313
 830 01e6 0836     		adds	r6, r6, #8
 831              	.LVL111:
 272:Drivers/CMSIS/DSP/Source/FilteringFunctions/arm_fir_lattice_q15.c **** 
 832              		.loc 1 272 10 view .LVU314
 833 01e8 0096     		str	r6, [sp]
 834              	.LVL112:
 835              	.L3:
ARM GAS  /var/folders/n6/c271nzx11xl4r4_m7sqjlt0m0000gn/T//ccXrJakI.s 			page 21


 150:Drivers/CMSIS/DSP/Source/FilteringFunctions/arm_fir_lattice_q15.c ****     {
 836              		.loc 1 150 21 is_stmt 1 view .LVU315
 837 01ea 0399     		ldr	r1, [sp, #12]
 838 01ec 0029     		cmp	r1, #0
 839 01ee 7FF416AF 		bne	.L4
 304:Drivers/CMSIS/DSP/Source/FilteringFunctions/arm_fir_lattice_q15.c ****     }
 305:Drivers/CMSIS/DSP/Source/FilteringFunctions/arm_fir_lattice_q15.c **** 
 306:Drivers/CMSIS/DSP/Source/FilteringFunctions/arm_fir_lattice_q15.c ****     /* If the (filter length -1) is not a multiple of 4, compute the remaining filter taps */
 307:Drivers/CMSIS/DSP/Source/FilteringFunctions/arm_fir_lattice_q15.c ****     stageCnt = (numStages - 1U) % 0x4U;
 840              		.loc 1 307 14 is_stmt 0 view .LVU316
 841 01f2 DDF820C0 		ldr	ip, [sp, #32]
 842 01f6 0099     		ldr	r1, [sp]
 843 01f8 CDF80880 		str	r8, [sp, #8]
 844 01fc DDF82480 		ldr	r8, [sp, #36]
 845              	.LVL113:
 846              		.loc 1 307 5 is_stmt 1 view .LVU317
 847              		.loc 1 307 14 is_stmt 0 view .LVU318
 848 0200 0CF00306 		and	r6, ip, #3
 849              	.LVL114:
 308:Drivers/CMSIS/DSP/Source/FilteringFunctions/arm_fir_lattice_q15.c **** 
 309:Drivers/CMSIS/DSP/Source/FilteringFunctions/arm_fir_lattice_q15.c ****     while (stageCnt > 0U)
 850              		.loc 1 309 5 is_stmt 1 view .LVU319
 851 0204 9246     		mov	r10, r2
 852 0206 3246     		mov	r2, r6
 853              	.LVL115:
 854              		.loc 1 309 5 is_stmt 0 view .LVU320
 855 0208 CDF80C80 		str	r8, [sp, #12]
 856              		.loc 1 309 11 view .LVU321
 857 020c 42E0     		b	.L5
 858              	.LVL116:
 859              	.L6:
 310:Drivers/CMSIS/DSP/Source/FilteringFunctions/arm_fir_lattice_q15.c ****     {
 311:Drivers/CMSIS/DSP/Source/FilteringFunctions/arm_fir_lattice_q15.c ****       gcurnt1 = *px;
 860              		.loc 1 311 7 is_stmt 1 view .LVU322
 861              		.loc 1 311 17 is_stmt 0 view .LVU323
 862 020e B1F900E0 		ldrsh	lr, [r1]
 863              	.LVL117:
 312:Drivers/CMSIS/DSP/Source/FilteringFunctions/arm_fir_lattice_q15.c **** 
 313:Drivers/CMSIS/DSP/Source/FilteringFunctions/arm_fir_lattice_q15.c ****       /* save g value in state buffer */
 314:Drivers/CMSIS/DSP/Source/FilteringFunctions/arm_fir_lattice_q15.c ****       *px++ = (q15_t) gnext4;
 864              		.loc 1 314 7 is_stmt 1 view .LVU324
 865              		.loc 1 314 10 is_stmt 0 view .LVU325
 866 0212 8846     		mov	r8, r1
 867              	.LVL118:
 868              		.loc 1 314 13 view .LVU326
 869 0214 28F802AB 		strh	r10, [r8], #2	@ movhi
 870              	.LVL119:
 315:Drivers/CMSIS/DSP/Source/FilteringFunctions/arm_fir_lattice_q15.c **** 
 316:Drivers/CMSIS/DSP/Source/FilteringFunctions/arm_fir_lattice_q15.c ****       /* Process four samples for last three taps here */
 317:Drivers/CMSIS/DSP/Source/FilteringFunctions/arm_fir_lattice_q15.c ****       fnext1 = (q31_t) ((gcurnt1 * (*pk)) >> 15U) + fcurnt1;
 871              		.loc 1 317 7 is_stmt 1 view .LVU327
 872              		.loc 1 317 37 is_stmt 0 view .LVU328
 873 0218 019E     		ldr	r6, [sp, #4]
 874 021a 36F9021B 		ldrsh	r1, [r6], #2
 875 021e 0196     		str	r6, [sp, #4]
 876              	.LVL120:
 877              		.loc 1 317 34 view .LVU329
ARM GAS  /var/folders/n6/c271nzx11xl4r4_m7sqjlt0m0000gn/T//ccXrJakI.s 			page 22


 878 0220 0EFB01F6 		mul	r6, lr, r1
 879              		.loc 1 317 14 view .LVU330
 880 0224 029F     		ldr	r7, [sp, #8]
 881 0226 07EBE636 		add	r6, r7, r6, asr #15
 882              	.LVL121:
 318:Drivers/CMSIS/DSP/Source/FilteringFunctions/arm_fir_lattice_q15.c ****       fnext1 = __SSAT(fnext1, 16);
 883              		.loc 1 318 7 is_stmt 1 view .LVU331
 884              	.LBB34:
 885              		.loc 1 318 16 view .LVU332
 886              		.loc 1 318 16 view .LVU333
 887              		.syntax unified
 888              	@ 318 "Drivers/CMSIS/DSP/Source/FilteringFunctions/arm_fir_lattice_q15.c" 1
 889 022a 06F30F06 		ssat r6, #16, r6
 890              	@ 0 "" 2
 891              	.LVL122:
 892              		.loc 1 318 16 is_stmt 0 view .LVU334
 893              		.thumb
 894              		.syntax unified
 895 022e 0096     		str	r6, [sp]
 896              	.LVL123:
 897              		.loc 1 318 16 is_stmt 1 view .LVU335
 898              		.loc 1 318 16 is_stmt 0 view .LVU336
 899              	.LBE34:
 319:Drivers/CMSIS/DSP/Source/FilteringFunctions/arm_fir_lattice_q15.c ****       fnext2 = (q31_t) ((gnext1 * (*pk)) >> 15U) + fcurnt2;
 900              		.loc 1 319 7 is_stmt 1 view .LVU337
 901              		.loc 1 319 33 is_stmt 0 view .LVU338
 902 0230 00FB01F6 		mul	r6, r0, r1
 903              	.LVL124:
 904              		.loc 1 319 14 view .LVU339
 905 0234 0BEBE636 		add	r6, fp, r6, asr #15
 906              	.LVL125:
 320:Drivers/CMSIS/DSP/Source/FilteringFunctions/arm_fir_lattice_q15.c ****       fnext2 = __SSAT(fnext2, 16);
 907              		.loc 1 320 7 is_stmt 1 view .LVU340
 908              	.LBB35:
 909              		.loc 1 320 16 view .LVU341
 910              		.loc 1 320 16 view .LVU342
 911              		.syntax unified
 912              	@ 320 "Drivers/CMSIS/DSP/Source/FilteringFunctions/arm_fir_lattice_q15.c" 1
 913 0238 06F30F06 		ssat r6, #16, r6
 914              	@ 0 "" 2
 915              	.LVL126:
 916              		.loc 1 320 16 view .LVU343
 917              		.loc 1 320 16 is_stmt 0 view .LVU344
 918              		.thumb
 919              		.syntax unified
 920              	.LBE35:
 321:Drivers/CMSIS/DSP/Source/FilteringFunctions/arm_fir_lattice_q15.c **** 
 322:Drivers/CMSIS/DSP/Source/FilteringFunctions/arm_fir_lattice_q15.c ****       fnext3 = (q31_t) ((gnext2 * (*pk)) >> 15U) + fcurnt3;
 921              		.loc 1 322 7 is_stmt 1 view .LVU345
 922              		.loc 1 322 33 is_stmt 0 view .LVU346
 923 023c 03FB01F7 		mul	r7, r3, r1
 924              	.LVL127:
 925              		.loc 1 322 14 view .LVU347
 926 0240 09EBE737 		add	r7, r9, r7, asr #15
 927              	.LVL128:
 323:Drivers/CMSIS/DSP/Source/FilteringFunctions/arm_fir_lattice_q15.c ****       fnext3 = __SSAT(fnext3, 16);
 928              		.loc 1 323 7 is_stmt 1 view .LVU348
ARM GAS  /var/folders/n6/c271nzx11xl4r4_m7sqjlt0m0000gn/T//ccXrJakI.s 			page 23


 929              	.LBB36:
 930              		.loc 1 323 16 view .LVU349
 931              		.loc 1 323 16 view .LVU350
 932              		.syntax unified
 933              	@ 323 "Drivers/CMSIS/DSP/Source/FilteringFunctions/arm_fir_lattice_q15.c" 1
 934 0244 07F30F07 		ssat r7, #16, r7
 935              	@ 0 "" 2
 936              	.LVL129:
 937              		.loc 1 323 16 view .LVU351
 938              		.loc 1 323 16 is_stmt 0 view .LVU352
 939              		.thumb
 940              		.syntax unified
 941              	.LBE36:
 324:Drivers/CMSIS/DSP/Source/FilteringFunctions/arm_fir_lattice_q15.c **** 
 325:Drivers/CMSIS/DSP/Source/FilteringFunctions/arm_fir_lattice_q15.c ****       fnext4 = (q31_t) ((gnext3 * (*pk)) >> 15U) + fcurnt4;
 942              		.loc 1 325 7 is_stmt 1 view .LVU353
 943              		.loc 1 325 33 is_stmt 0 view .LVU354
 944 0248 04FB01FC 		mul	ip, r4, r1
 945              		.loc 1 325 14 view .LVU355
 946 024c 05EBEC3C 		add	ip, r5, ip, asr #15
 947              	.LVL130:
 326:Drivers/CMSIS/DSP/Source/FilteringFunctions/arm_fir_lattice_q15.c ****       fnext4 = __SSAT(fnext4, 16);
 948              		.loc 1 326 7 is_stmt 1 view .LVU356
 949              	.LBB37:
 950              		.loc 1 326 16 view .LVU357
 951              		.loc 1 326 16 view .LVU358
 952              		.syntax unified
 953              	@ 326 "Drivers/CMSIS/DSP/Source/FilteringFunctions/arm_fir_lattice_q15.c" 1
 954 0250 0CF30F0C 		ssat ip, #16, ip
 955              	@ 0 "" 2
 956              	.LVL131:
 957              		.loc 1 326 16 view .LVU359
 958              		.loc 1 326 16 is_stmt 0 view .LVU360
 959              		.thumb
 960              		.syntax unified
 961              	.LBE37:
 327:Drivers/CMSIS/DSP/Source/FilteringFunctions/arm_fir_lattice_q15.c **** 
 328:Drivers/CMSIS/DSP/Source/FilteringFunctions/arm_fir_lattice_q15.c ****       /* g1(n) = f0(n) * K1  +  g0(n-1) */
 329:Drivers/CMSIS/DSP/Source/FilteringFunctions/arm_fir_lattice_q15.c ****       gnext4 = (q31_t) ((fcurnt4 * (*pk)) >> 15U) + gnext3;
 962              		.loc 1 329 7 is_stmt 1 view .LVU361
 963              		.loc 1 329 34 is_stmt 0 view .LVU362
 964 0254 01FB05F5 		mul	r5, r1, r5
 965              	.LVL132:
 966              		.loc 1 329 14 view .LVU363
 967 0258 04EBE535 		add	r5, r4, r5, asr #15
 968              	.LVL133:
 330:Drivers/CMSIS/DSP/Source/FilteringFunctions/arm_fir_lattice_q15.c ****       gnext4 = __SSAT(gnext4, 16);
 969              		.loc 1 330 7 is_stmt 1 view .LVU364
 970              	.LBB38:
 971              		.loc 1 330 16 view .LVU365
 972              		.loc 1 330 16 view .LVU366
 973              		.syntax unified
 974              	@ 330 "Drivers/CMSIS/DSP/Source/FilteringFunctions/arm_fir_lattice_q15.c" 1
 975 025c 05F30F0A 		ssat r10, #16, r5
 976              	@ 0 "" 2
 977              	.LVL134:
 978              		.loc 1 330 16 view .LVU367
ARM GAS  /var/folders/n6/c271nzx11xl4r4_m7sqjlt0m0000gn/T//ccXrJakI.s 			page 24


 979              		.loc 1 330 16 is_stmt 0 view .LVU368
 980              		.thumb
 981              		.syntax unified
 982              	.LBE38:
 331:Drivers/CMSIS/DSP/Source/FilteringFunctions/arm_fir_lattice_q15.c ****       gnext3 = (q31_t) ((fcurnt3 * (*pk)) >> 15U) + gnext2;
 983              		.loc 1 331 7 is_stmt 1 view .LVU369
 984              		.loc 1 331 34 is_stmt 0 view .LVU370
 985 0260 09FB01F9 		mul	r9, r9, r1
 986              	.LVL135:
 987              		.loc 1 331 14 view .LVU371
 988 0264 03EBE939 		add	r9, r3, r9, asr #15
 989              	.LVL136:
 332:Drivers/CMSIS/DSP/Source/FilteringFunctions/arm_fir_lattice_q15.c ****       gnext3 = __SSAT(gnext3, 16);
 990              		.loc 1 332 7 is_stmt 1 view .LVU372
 991              	.LBB39:
 992              		.loc 1 332 16 view .LVU373
 993              		.loc 1 332 16 view .LVU374
 994              		.syntax unified
 995              	@ 332 "Drivers/CMSIS/DSP/Source/FilteringFunctions/arm_fir_lattice_q15.c" 1
 996 0268 09F30F04 		ssat r4, #16, r9
 997              	@ 0 "" 2
 998              	.LVL137:
 999              		.loc 1 332 16 view .LVU375
 1000              		.loc 1 332 16 is_stmt 0 view .LVU376
 1001              		.thumb
 1002              		.syntax unified
 1003              	.LBE39:
 333:Drivers/CMSIS/DSP/Source/FilteringFunctions/arm_fir_lattice_q15.c ****       gnext2 = (q31_t) ((fcurnt2 * (*pk)) >> 15U) + gnext1;
 1004              		.loc 1 333 7 is_stmt 1 view .LVU377
 1005              		.loc 1 333 34 is_stmt 0 view .LVU378
 1006 026c 0BFB01FB 		mul	fp, fp, r1
 1007              	.LVL138:
 1008              		.loc 1 333 14 view .LVU379
 1009 0270 00EBEB3B 		add	fp, r0, fp, asr #15
 1010              	.LVL139:
 334:Drivers/CMSIS/DSP/Source/FilteringFunctions/arm_fir_lattice_q15.c ****       gnext2 = __SSAT(gnext2, 16);
 1011              		.loc 1 334 7 is_stmt 1 view .LVU380
 1012              	.LBB40:
 1013              		.loc 1 334 16 view .LVU381
 1014              		.loc 1 334 16 view .LVU382
 1015              		.syntax unified
 1016              	@ 334 "Drivers/CMSIS/DSP/Source/FilteringFunctions/arm_fir_lattice_q15.c" 1
 1017 0274 0BF30F03 		ssat r3, #16, fp
 1018              	@ 0 "" 2
 1019              	.LVL140:
 1020              		.loc 1 334 16 view .LVU383
 1021              		.loc 1 334 16 is_stmt 0 view .LVU384
 1022              		.thumb
 1023              		.syntax unified
 1024              	.LBE40:
 335:Drivers/CMSIS/DSP/Source/FilteringFunctions/arm_fir_lattice_q15.c ****       gnext1 = (q31_t) ((fcurnt1 * (*pk++)) >> 15U) + gcurnt1;
 1025              		.loc 1 335 7 is_stmt 1 view .LVU385
 1026              		.loc 1 335 34 is_stmt 0 view .LVU386
 1027 0278 0298     		ldr	r0, [sp, #8]
 1028              	.LVL141:
 1029              		.loc 1 335 34 view .LVU387
 1030 027a 00FB01F1 		mul	r1, r0, r1
ARM GAS  /var/folders/n6/c271nzx11xl4r4_m7sqjlt0m0000gn/T//ccXrJakI.s 			page 25


 1031              	.LVL142:
 1032              		.loc 1 335 14 view .LVU388
 1033 027e 0EEBE13E 		add	lr, lr, r1, asr #15
 1034              	.LVL143:
 336:Drivers/CMSIS/DSP/Source/FilteringFunctions/arm_fir_lattice_q15.c ****       gnext1 = __SSAT(gnext1, 16);
 1035              		.loc 1 336 7 is_stmt 1 view .LVU389
 1036              	.LBB41:
 1037              		.loc 1 336 16 view .LVU390
 1038              		.loc 1 336 16 view .LVU391
 1039              		.syntax unified
 1040              	@ 336 "Drivers/CMSIS/DSP/Source/FilteringFunctions/arm_fir_lattice_q15.c" 1
 1041 0282 0EF30F00 		ssat r0, #16, lr
 1042              	@ 0 "" 2
 1043              	.LVL144:
 1044              		.loc 1 336 16 view .LVU392
 1045              		.loc 1 336 16 is_stmt 0 view .LVU393
 1046              		.thumb
 1047              		.syntax unified
 1048              	.LBE41:
 337:Drivers/CMSIS/DSP/Source/FilteringFunctions/arm_fir_lattice_q15.c **** 
 338:Drivers/CMSIS/DSP/Source/FilteringFunctions/arm_fir_lattice_q15.c ****       /* Update of f values for next coefficient set processing */
 339:Drivers/CMSIS/DSP/Source/FilteringFunctions/arm_fir_lattice_q15.c ****       fcurnt1 = fnext1;
 1049              		.loc 1 339 7 is_stmt 1 view .LVU394
 340:Drivers/CMSIS/DSP/Source/FilteringFunctions/arm_fir_lattice_q15.c ****       fcurnt2 = fnext2;
 1050              		.loc 1 340 7 view .LVU395
 341:Drivers/CMSIS/DSP/Source/FilteringFunctions/arm_fir_lattice_q15.c ****       fcurnt3 = fnext3;
 1051              		.loc 1 341 7 view .LVU396
 342:Drivers/CMSIS/DSP/Source/FilteringFunctions/arm_fir_lattice_q15.c ****       fcurnt4 = fnext4;
 1052              		.loc 1 342 7 view .LVU397
 343:Drivers/CMSIS/DSP/Source/FilteringFunctions/arm_fir_lattice_q15.c **** 
 344:Drivers/CMSIS/DSP/Source/FilteringFunctions/arm_fir_lattice_q15.c ****       stageCnt--;
 1053              		.loc 1 344 7 view .LVU398
 1054              		.loc 1 344 15 is_stmt 0 view .LVU399
 1055 0286 013A     		subs	r2, r2, #1
 1056              	.LVL145:
 342:Drivers/CMSIS/DSP/Source/FilteringFunctions/arm_fir_lattice_q15.c ****       fcurnt4 = fnext4;
 1057              		.loc 1 342 15 view .LVU400
 1058 0288 6546     		mov	r5, ip
 1059              	.LVL146:
 341:Drivers/CMSIS/DSP/Source/FilteringFunctions/arm_fir_lattice_q15.c ****       fcurnt4 = fnext4;
 1060              		.loc 1 341 15 view .LVU401
 1061 028a B946     		mov	r9, r7
 1062              	.LVL147:
 340:Drivers/CMSIS/DSP/Source/FilteringFunctions/arm_fir_lattice_q15.c ****       fcurnt3 = fnext3;
 1063              		.loc 1 340 15 view .LVU402
 1064 028c B346     		mov	fp, r6
 1065              	.LVL148:
 339:Drivers/CMSIS/DSP/Source/FilteringFunctions/arm_fir_lattice_q15.c ****       fcurnt2 = fnext2;
 1066              		.loc 1 339 15 view .LVU403
 1067 028e 009E     		ldr	r6, [sp]
 1068              	.LVL149:
 339:Drivers/CMSIS/DSP/Source/FilteringFunctions/arm_fir_lattice_q15.c ****       fcurnt2 = fnext2;
 1069              		.loc 1 339 15 view .LVU404
 1070 0290 0296     		str	r6, [sp, #8]
 314:Drivers/CMSIS/DSP/Source/FilteringFunctions/arm_fir_lattice_q15.c **** 
 1071              		.loc 1 314 10 view .LVU405
 1072 0292 4146     		mov	r1, r8
ARM GAS  /var/folders/n6/c271nzx11xl4r4_m7sqjlt0m0000gn/T//ccXrJakI.s 			page 26


 1073              	.LVL150:
 1074              	.L5:
 309:Drivers/CMSIS/DSP/Source/FilteringFunctions/arm_fir_lattice_q15.c ****     {
 1075              		.loc 1 309 21 is_stmt 1 view .LVU406
 1076 0294 002A     		cmp	r2, #0
 1077 0296 BAD1     		bne	.L6
 345:Drivers/CMSIS/DSP/Source/FilteringFunctions/arm_fir_lattice_q15.c **** 
 346:Drivers/CMSIS/DSP/Source/FilteringFunctions/arm_fir_lattice_q15.c ****     }
 347:Drivers/CMSIS/DSP/Source/FilteringFunctions/arm_fir_lattice_q15.c **** 
 348:Drivers/CMSIS/DSP/Source/FilteringFunctions/arm_fir_lattice_q15.c ****     /* The results in the 4 accumulators, store in the destination buffer. */
 349:Drivers/CMSIS/DSP/Source/FilteringFunctions/arm_fir_lattice_q15.c ****     /* y(n) = fN(n) */
 350:Drivers/CMSIS/DSP/Source/FilteringFunctions/arm_fir_lattice_q15.c **** 
 351:Drivers/CMSIS/DSP/Source/FilteringFunctions/arm_fir_lattice_q15.c **** #ifndef  ARM_MATH_BIG_ENDIAN
 352:Drivers/CMSIS/DSP/Source/FilteringFunctions/arm_fir_lattice_q15.c **** 
 353:Drivers/CMSIS/DSP/Source/FilteringFunctions/arm_fir_lattice_q15.c ****     *__SIMD32(pDst)++ = __PKHBT(fcurnt1, fcurnt2, 16);
 1078              		.loc 1 353 25 is_stmt 0 view .LVU407
 1079 0298 DDF80C80 		ldr	r8, [sp, #12]
 1080              		.loc 1 353 5 is_stmt 1 view .LVU408
 1081              	.LVL151:
 1082              		.loc 1 353 25 is_stmt 0 view .LVU409
 1083 029c BDF80830 		ldrh	r3, [sp, #8]
 1084              	.LVL152:
 1085              		.loc 1 353 25 view .LVU410
 1086 02a0 43EA0B43 		orr	r3, r3, fp, lsl #16
 1087              		.loc 1 353 23 view .LVU411
 1088 02a4 0699     		ldr	r1, [sp, #24]
 1089              	.LVL153:
 1090              		.loc 1 353 23 view .LVU412
 1091 02a6 0A46     		mov	r2, r1
 1092              	.LVL154:
 1093              		.loc 1 353 23 view .LVU413
 1094 02a8 42F8083B 		str	r3, [r2], #8
 354:Drivers/CMSIS/DSP/Source/FilteringFunctions/arm_fir_lattice_q15.c ****     *__SIMD32(pDst)++ = __PKHBT(fcurnt3, fcurnt4, 16);
 1095              		.loc 1 354 5 is_stmt 1 view .LVU414
 1096              	.LVL155:
 1097              		.loc 1 354 25 is_stmt 0 view .LVU415
 1098 02ac 1FFA89F9 		uxth	r9, r9
 1099              	.LVL156:
 1100              		.loc 1 354 25 view .LVU416
 1101 02b0 49EA0545 		orr	r5, r9, r5, lsl #16
 1102              	.LVL157:
 1103              		.loc 1 354 23 view .LVU417
 1104 02b4 4D60     		str	r5, [r1, #4]
 355:Drivers/CMSIS/DSP/Source/FilteringFunctions/arm_fir_lattice_q15.c **** 
 356:Drivers/CMSIS/DSP/Source/FilteringFunctions/arm_fir_lattice_q15.c **** #else
 357:Drivers/CMSIS/DSP/Source/FilteringFunctions/arm_fir_lattice_q15.c **** 
 358:Drivers/CMSIS/DSP/Source/FilteringFunctions/arm_fir_lattice_q15.c ****     *__SIMD32(pDst)++ = __PKHBT(fcurnt2, fcurnt1, 16);
 359:Drivers/CMSIS/DSP/Source/FilteringFunctions/arm_fir_lattice_q15.c ****     *__SIMD32(pDst)++ = __PKHBT(fcurnt4, fcurnt3, 16);
 360:Drivers/CMSIS/DSP/Source/FilteringFunctions/arm_fir_lattice_q15.c **** 
 361:Drivers/CMSIS/DSP/Source/FilteringFunctions/arm_fir_lattice_q15.c **** #endif /*      #ifndef  ARM_MATH_BIG_ENDIAN    */
 362:Drivers/CMSIS/DSP/Source/FilteringFunctions/arm_fir_lattice_q15.c **** 
 363:Drivers/CMSIS/DSP/Source/FilteringFunctions/arm_fir_lattice_q15.c ****     blkCnt--;
 1105              		.loc 1 363 5 is_stmt 1 view .LVU418
 1106              		.loc 1 363 11 is_stmt 0 view .LVU419
 1107 02b6 049B     		ldr	r3, [sp, #16]
 1108 02b8 013B     		subs	r3, r3, #1
 1109 02ba 0493     		str	r3, [sp, #16]
ARM GAS  /var/folders/n6/c271nzx11xl4r4_m7sqjlt0m0000gn/T//ccXrJakI.s 			page 27


 1110              	.LVL158:
 354:Drivers/CMSIS/DSP/Source/FilteringFunctions/arm_fir_lattice_q15.c ****     *__SIMD32(pDst)++ = __PKHBT(fcurnt3, fcurnt4, 16);
 1111              		.loc 1 354 20 view .LVU420
 1112 02bc 0692     		str	r2, [sp, #24]
 117:Drivers/CMSIS/DSP/Source/FilteringFunctions/arm_fir_lattice_q15.c **** 
 1113              		.loc 1 117 20 view .LVU421
 1114 02be 4146     		mov	r1, r8
 1115              	.LVL159:
 1116              	.L2:
  79:Drivers/CMSIS/DSP/Source/FilteringFunctions/arm_fir_lattice_q15.c ****   {
 1117              		.loc 1 79 17 is_stmt 1 view .LVU422
 1118 02c0 049B     		ldr	r3, [sp, #16]
 1119 02c2 002B     		cmp	r3, #0
 1120 02c4 51D0     		beq	.L13
  84:Drivers/CMSIS/DSP/Source/FilteringFunctions/arm_fir_lattice_q15.c ****     fcurnt2 = *pSrc++;
 1121              		.loc 1 84 5 view .LVU423
 1122              	.LVL160:
  84:Drivers/CMSIS/DSP/Source/FilteringFunctions/arm_fir_lattice_q15.c ****     fcurnt2 = *pSrc++;
 1123              		.loc 1 84 15 is_stmt 0 view .LVU424
 1124 02c6 B1F90030 		ldrsh	r3, [r1]
 1125              	.LVL161:
  85:Drivers/CMSIS/DSP/Source/FilteringFunctions/arm_fir_lattice_q15.c **** 
 1126              		.loc 1 85 5 is_stmt 1 view .LVU425
  85:Drivers/CMSIS/DSP/Source/FilteringFunctions/arm_fir_lattice_q15.c **** 
 1127              		.loc 1 85 15 is_stmt 0 view .LVU426
 1128 02ca B1F90240 		ldrsh	r4, [r1, #2]
 1129              	.LVL162:
  88:Drivers/CMSIS/DSP/Source/FilteringFunctions/arm_fir_lattice_q15.c **** 
 1130              		.loc 1 88 5 is_stmt 1 view .LVU427
  91:Drivers/CMSIS/DSP/Source/FilteringFunctions/arm_fir_lattice_q15.c **** 
 1131              		.loc 1 91 5 view .LVU428
  94:Drivers/CMSIS/DSP/Source/FilteringFunctions/arm_fir_lattice_q15.c **** 
 1132              		.loc 1 94 5 view .LVU429
  94:Drivers/CMSIS/DSP/Source/FilteringFunctions/arm_fir_lattice_q15.c **** 
 1133              		.loc 1 94 15 is_stmt 0 view .LVU430
 1134 02ce 059A     		ldr	r2, [sp, #20]
 1135 02d0 B2F90000 		ldrsh	r0, [r2]
 1136              	.LVL163:
  98:Drivers/CMSIS/DSP/Source/FilteringFunctions/arm_fir_lattice_q15.c ****     fnext1 = __SSAT(fnext1, 16);
 1137              		.loc 1 98 5 is_stmt 1 view .LVU431
  98:Drivers/CMSIS/DSP/Source/FilteringFunctions/arm_fir_lattice_q15.c ****     fnext1 = __SSAT(fnext1, 16);
 1138              		.loc 1 98 35 is_stmt 0 view .LVU432
 1139 02d4 079E     		ldr	r6, [sp, #28]
 1140 02d6 B6F90020 		ldrsh	r2, [r6]
  98:Drivers/CMSIS/DSP/Source/FilteringFunctions/arm_fir_lattice_q15.c ****     fnext1 = __SSAT(fnext1, 16);
 1141              		.loc 1 98 32 view .LVU433
 1142 02da 00FB02F5 		mul	r5, r0, r2
  98:Drivers/CMSIS/DSP/Source/FilteringFunctions/arm_fir_lattice_q15.c ****     fnext1 = __SSAT(fnext1, 16);
 1143              		.loc 1 98 12 view .LVU434
 1144 02de 03EBE535 		add	r5, r3, r5, asr #15
 1145              	.LVL164:
  99:Drivers/CMSIS/DSP/Source/FilteringFunctions/arm_fir_lattice_q15.c **** 
 1146              		.loc 1 99 5 is_stmt 1 view .LVU435
 1147              	.LBB42:
  99:Drivers/CMSIS/DSP/Source/FilteringFunctions/arm_fir_lattice_q15.c **** 
 1148              		.loc 1 99 14 view .LVU436
  99:Drivers/CMSIS/DSP/Source/FilteringFunctions/arm_fir_lattice_q15.c **** 
ARM GAS  /var/folders/n6/c271nzx11xl4r4_m7sqjlt0m0000gn/T//ccXrJakI.s 			page 28


 1149              		.loc 1 99 14 view .LVU437
 1150              		.syntax unified
 1151              	@ 99 "Drivers/CMSIS/DSP/Source/FilteringFunctions/arm_fir_lattice_q15.c" 1
 1152 02e2 05F30F05 		ssat r5, #16, r5
 1153              	@ 0 "" 2
 1154              	.LVL165:
  99:Drivers/CMSIS/DSP/Source/FilteringFunctions/arm_fir_lattice_q15.c **** 
 1155              		.loc 1 99 14 is_stmt 0 view .LVU438
 1156              		.thumb
 1157              		.syntax unified
 1158 02e6 0295     		str	r5, [sp, #8]
 1159              	.LVL166:
  99:Drivers/CMSIS/DSP/Source/FilteringFunctions/arm_fir_lattice_q15.c **** 
 1160              		.loc 1 99 14 is_stmt 1 view .LVU439
  99:Drivers/CMSIS/DSP/Source/FilteringFunctions/arm_fir_lattice_q15.c **** 
 1161              		.loc 1 99 14 is_stmt 0 view .LVU440
 1162              	.LBE42:
 102:Drivers/CMSIS/DSP/Source/FilteringFunctions/arm_fir_lattice_q15.c ****     gnext1 = __SSAT(gnext1, 16);
 1163              		.loc 1 102 5 is_stmt 1 view .LVU441
 102:Drivers/CMSIS/DSP/Source/FilteringFunctions/arm_fir_lattice_q15.c ****     gnext1 = __SSAT(gnext1, 16);
 1164              		.loc 1 102 32 is_stmt 0 view .LVU442
 1165 02e8 03FB02F5 		mul	r5, r3, r2
 1166              	.LVL167:
 102:Drivers/CMSIS/DSP/Source/FilteringFunctions/arm_fir_lattice_q15.c ****     gnext1 = __SSAT(gnext1, 16);
 1167              		.loc 1 102 12 view .LVU443
 1168 02ec 00EBE530 		add	r0, r0, r5, asr #15
 1169              	.LVL168:
 103:Drivers/CMSIS/DSP/Source/FilteringFunctions/arm_fir_lattice_q15.c **** 
 1170              		.loc 1 103 5 is_stmt 1 view .LVU444
 1171              	.LBB43:
 103:Drivers/CMSIS/DSP/Source/FilteringFunctions/arm_fir_lattice_q15.c **** 
 1172              		.loc 1 103 14 view .LVU445
 103:Drivers/CMSIS/DSP/Source/FilteringFunctions/arm_fir_lattice_q15.c **** 
 1173              		.loc 1 103 14 view .LVU446
 1174              		.syntax unified
 1175              	@ 103 "Drivers/CMSIS/DSP/Source/FilteringFunctions/arm_fir_lattice_q15.c" 1
 1176 02f0 00F30F00 		ssat r0, #16, r0
 1177              	@ 0 "" 2
 1178              	.LVL169:
 103:Drivers/CMSIS/DSP/Source/FilteringFunctions/arm_fir_lattice_q15.c **** 
 1179              		.loc 1 103 14 view .LVU447
 103:Drivers/CMSIS/DSP/Source/FilteringFunctions/arm_fir_lattice_q15.c **** 
 1180              		.loc 1 103 14 is_stmt 0 view .LVU448
 1181              		.thumb
 1182              		.syntax unified
 1183              	.LBE43:
 107:Drivers/CMSIS/DSP/Source/FilteringFunctions/arm_fir_lattice_q15.c ****     fnext2 = __SSAT(fnext2, 16);
 1184              		.loc 1 107 5 is_stmt 1 view .LVU449
 107:Drivers/CMSIS/DSP/Source/FilteringFunctions/arm_fir_lattice_q15.c ****     fnext2 = __SSAT(fnext2, 16);
 1185              		.loc 1 107 12 is_stmt 0 view .LVU450
 1186 02f4 04EBE535 		add	r5, r4, r5, asr #15
 1187              	.LVL170:
 108:Drivers/CMSIS/DSP/Source/FilteringFunctions/arm_fir_lattice_q15.c **** 
 1188              		.loc 1 108 5 is_stmt 1 view .LVU451
 1189              	.LBB44:
 108:Drivers/CMSIS/DSP/Source/FilteringFunctions/arm_fir_lattice_q15.c **** 
 1190              		.loc 1 108 14 view .LVU452
ARM GAS  /var/folders/n6/c271nzx11xl4r4_m7sqjlt0m0000gn/T//ccXrJakI.s 			page 29


 108:Drivers/CMSIS/DSP/Source/FilteringFunctions/arm_fir_lattice_q15.c **** 
 1191              		.loc 1 108 14 view .LVU453
 1192              		.syntax unified
 1193              	@ 108 "Drivers/CMSIS/DSP/Source/FilteringFunctions/arm_fir_lattice_q15.c" 1
 1194 02f8 05F30F0B 		ssat fp, #16, r5
 1195              	@ 0 "" 2
 1196              	.LVL171:
 108:Drivers/CMSIS/DSP/Source/FilteringFunctions/arm_fir_lattice_q15.c **** 
 1197              		.loc 1 108 14 view .LVU454
 108:Drivers/CMSIS/DSP/Source/FilteringFunctions/arm_fir_lattice_q15.c **** 
 1198              		.loc 1 108 14 is_stmt 0 view .LVU455
 1199              		.thumb
 1200              		.syntax unified
 1201              	.LBE44:
 110:Drivers/CMSIS/DSP/Source/FilteringFunctions/arm_fir_lattice_q15.c ****     gnext2 = __SSAT(gnext2, 16);
 1202              		.loc 1 110 5 is_stmt 1 view .LVU456
 110:Drivers/CMSIS/DSP/Source/FilteringFunctions/arm_fir_lattice_q15.c ****     gnext2 = __SSAT(gnext2, 16);
 1203              		.loc 1 110 32 is_stmt 0 view .LVU457
 1204 02fc 04FB02F2 		mul	r2, r4, r2
 1205              	.LVL172:
 110:Drivers/CMSIS/DSP/Source/FilteringFunctions/arm_fir_lattice_q15.c ****     gnext2 = __SSAT(gnext2, 16);
 1206              		.loc 1 110 12 view .LVU458
 1207 0300 03EBE233 		add	r3, r3, r2, asr #15
 1208              	.LVL173:
 111:Drivers/CMSIS/DSP/Source/FilteringFunctions/arm_fir_lattice_q15.c **** 
 1209              		.loc 1 111 5 is_stmt 1 view .LVU459
 1210              	.LBB45:
 111:Drivers/CMSIS/DSP/Source/FilteringFunctions/arm_fir_lattice_q15.c **** 
 1211              		.loc 1 111 14 view .LVU460
 111:Drivers/CMSIS/DSP/Source/FilteringFunctions/arm_fir_lattice_q15.c **** 
 1212              		.loc 1 111 14 view .LVU461
 1213              		.syntax unified
 1214              	@ 111 "Drivers/CMSIS/DSP/Source/FilteringFunctions/arm_fir_lattice_q15.c" 1
 1215 0304 03F30F03 		ssat r3, #16, r3
 1216              	@ 0 "" 2
 1217              	.LVL174:
 111:Drivers/CMSIS/DSP/Source/FilteringFunctions/arm_fir_lattice_q15.c **** 
 1218              		.loc 1 111 14 view .LVU462
 111:Drivers/CMSIS/DSP/Source/FilteringFunctions/arm_fir_lattice_q15.c **** 
 1219              		.loc 1 111 14 is_stmt 0 view .LVU463
 1220              		.thumb
 1221              		.syntax unified
 1222              	.LBE45:
 116:Drivers/CMSIS/DSP/Source/FilteringFunctions/arm_fir_lattice_q15.c ****     fcurnt4 = *pSrc++;
 1223              		.loc 1 116 5 is_stmt 1 view .LVU464
 116:Drivers/CMSIS/DSP/Source/FilteringFunctions/arm_fir_lattice_q15.c ****     fcurnt4 = *pSrc++;
 1224              		.loc 1 116 15 is_stmt 0 view .LVU465
 1225 0308 B1F90420 		ldrsh	r2, [r1, #4]
 1226              	.LVL175:
 117:Drivers/CMSIS/DSP/Source/FilteringFunctions/arm_fir_lattice_q15.c **** 
 1227              		.loc 1 117 5 is_stmt 1 view .LVU466
 117:Drivers/CMSIS/DSP/Source/FilteringFunctions/arm_fir_lattice_q15.c **** 
 1228              		.loc 1 117 20 is_stmt 0 view .LVU467
 1229 030c 01F10808 		add	r8, r1, #8
 1230              	.LVL176:
 117:Drivers/CMSIS/DSP/Source/FilteringFunctions/arm_fir_lattice_q15.c **** 
 1231              		.loc 1 117 15 view .LVU468
ARM GAS  /var/folders/n6/c271nzx11xl4r4_m7sqjlt0m0000gn/T//ccXrJakI.s 			page 30


 1232 0310 B1F90670 		ldrsh	r7, [r1, #6]
 1233              	.LVL177:
 121:Drivers/CMSIS/DSP/Source/FilteringFunctions/arm_fir_lattice_q15.c **** 
 1234              		.loc 1 121 5 is_stmt 1 view .LVU469
 121:Drivers/CMSIS/DSP/Source/FilteringFunctions/arm_fir_lattice_q15.c **** 
 1235              		.loc 1 121 8 is_stmt 0 view .LVU470
 1236 0314 0599     		ldr	r1, [sp, #20]
 1237              	.LVL178:
 121:Drivers/CMSIS/DSP/Source/FilteringFunctions/arm_fir_lattice_q15.c **** 
 1238              		.loc 1 121 11 view .LVU471
 1239 0316 21F8027B 		strh	r7, [r1], #2	@ movhi
 1240              	.LVL179:
 124:Drivers/CMSIS/DSP/Source/FilteringFunctions/arm_fir_lattice_q15.c ****     fnext3 = __SSAT(fnext3, 16);
 1241              		.loc 1 124 5 is_stmt 1 view .LVU472
 124:Drivers/CMSIS/DSP/Source/FilteringFunctions/arm_fir_lattice_q15.c ****     fnext3 = __SSAT(fnext3, 16);
 1242              		.loc 1 124 35 is_stmt 0 view .LVU473
 1243 031a 3546     		mov	r5, r6
 1244              	.LVL180:
 124:Drivers/CMSIS/DSP/Source/FilteringFunctions/arm_fir_lattice_q15.c ****     fnext3 = __SSAT(fnext3, 16);
 1245              		.loc 1 124 35 view .LVU474
 1246 031c 35F9026B 		ldrsh	r6, [r5], #2
 1247 0320 0195     		str	r5, [sp, #4]
 124:Drivers/CMSIS/DSP/Source/FilteringFunctions/arm_fir_lattice_q15.c ****     fnext3 = __SSAT(fnext3, 16);
 1248              		.loc 1 124 32 view .LVU475
 1249 0322 04FB06F5 		mul	r5, r4, r6
 124:Drivers/CMSIS/DSP/Source/FilteringFunctions/arm_fir_lattice_q15.c ****     fnext3 = __SSAT(fnext3, 16);
 1250              		.loc 1 124 12 view .LVU476
 1251 0326 02EBE535 		add	r5, r2, r5, asr #15
 1252              	.LVL181:
 125:Drivers/CMSIS/DSP/Source/FilteringFunctions/arm_fir_lattice_q15.c ****     gnext3 = (q31_t) ((fcurnt3 * (*pk)) >> 15U) + fcurnt2;
 1253              		.loc 1 125 5 is_stmt 1 view .LVU477
 1254              	.LBB46:
 125:Drivers/CMSIS/DSP/Source/FilteringFunctions/arm_fir_lattice_q15.c ****     gnext3 = (q31_t) ((fcurnt3 * (*pk)) >> 15U) + fcurnt2;
 1255              		.loc 1 125 14 view .LVU478
 125:Drivers/CMSIS/DSP/Source/FilteringFunctions/arm_fir_lattice_q15.c ****     gnext3 = (q31_t) ((fcurnt3 * (*pk)) >> 15U) + fcurnt2;
 1256              		.loc 1 125 14 view .LVU479
 1257              		.syntax unified
 1258              	@ 125 "Drivers/CMSIS/DSP/Source/FilteringFunctions/arm_fir_lattice_q15.c" 1
 1259 032a 05F30F09 		ssat r9, #16, r5
 1260              	@ 0 "" 2
 1261              	.LVL182:
 125:Drivers/CMSIS/DSP/Source/FilteringFunctions/arm_fir_lattice_q15.c ****     gnext3 = (q31_t) ((fcurnt3 * (*pk)) >> 15U) + fcurnt2;
 1262              		.loc 1 125 14 view .LVU480
 125:Drivers/CMSIS/DSP/Source/FilteringFunctions/arm_fir_lattice_q15.c ****     gnext3 = (q31_t) ((fcurnt3 * (*pk)) >> 15U) + fcurnt2;
 1263              		.loc 1 125 14 is_stmt 0 view .LVU481
 1264              		.thumb
 1265              		.syntax unified
 1266              	.LBE46:
 126:Drivers/CMSIS/DSP/Source/FilteringFunctions/arm_fir_lattice_q15.c ****     gnext3 = __SSAT(gnext3, 16);
 1267              		.loc 1 126 5 is_stmt 1 view .LVU482
 126:Drivers/CMSIS/DSP/Source/FilteringFunctions/arm_fir_lattice_q15.c ****     gnext3 = __SSAT(gnext3, 16);
 1268              		.loc 1 126 32 is_stmt 0 view .LVU483
 1269 032e 02FB06F5 		mul	r5, r2, r6
 1270              	.LVL183:
 126:Drivers/CMSIS/DSP/Source/FilteringFunctions/arm_fir_lattice_q15.c ****     gnext3 = __SSAT(gnext3, 16);
 1271              		.loc 1 126 12 view .LVU484
 1272 0332 04EBE534 		add	r4, r4, r5, asr #15
ARM GAS  /var/folders/n6/c271nzx11xl4r4_m7sqjlt0m0000gn/T//ccXrJakI.s 			page 31


 1273              	.LVL184:
 127:Drivers/CMSIS/DSP/Source/FilteringFunctions/arm_fir_lattice_q15.c **** 
 1274              		.loc 1 127 5 is_stmt 1 view .LVU485
 1275              	.LBB47:
 127:Drivers/CMSIS/DSP/Source/FilteringFunctions/arm_fir_lattice_q15.c **** 
 1276              		.loc 1 127 14 view .LVU486
 127:Drivers/CMSIS/DSP/Source/FilteringFunctions/arm_fir_lattice_q15.c **** 
 1277              		.loc 1 127 14 view .LVU487
 1278              		.syntax unified
 1279              	@ 127 "Drivers/CMSIS/DSP/Source/FilteringFunctions/arm_fir_lattice_q15.c" 1
 1280 0336 04F30F04 		ssat r4, #16, r4
 1281              	@ 0 "" 2
 1282              	.LVL185:
 127:Drivers/CMSIS/DSP/Source/FilteringFunctions/arm_fir_lattice_q15.c **** 
 1283              		.loc 1 127 14 view .LVU488
 127:Drivers/CMSIS/DSP/Source/FilteringFunctions/arm_fir_lattice_q15.c **** 
 1284              		.loc 1 127 14 is_stmt 0 view .LVU489
 1285              		.thumb
 1286              		.syntax unified
 1287              	.LBE47:
 130:Drivers/CMSIS/DSP/Source/FilteringFunctions/arm_fir_lattice_q15.c ****     fnext4 = __SSAT(fnext4, 16);
 1288              		.loc 1 130 5 is_stmt 1 view .LVU490
 130:Drivers/CMSIS/DSP/Source/FilteringFunctions/arm_fir_lattice_q15.c ****     fnext4 = __SSAT(fnext4, 16);
 1289              		.loc 1 130 12 is_stmt 0 view .LVU491
 1290 033a 07EBE535 		add	r5, r7, r5, asr #15
 1291              	.LVL186:
 131:Drivers/CMSIS/DSP/Source/FilteringFunctions/arm_fir_lattice_q15.c ****     gnext4 = (q31_t) ((fcurnt4 * (*pk++)) >> 15U) + fcurnt3;
 1292              		.loc 1 131 5 is_stmt 1 view .LVU492
 1293              	.LBB48:
 131:Drivers/CMSIS/DSP/Source/FilteringFunctions/arm_fir_lattice_q15.c ****     gnext4 = (q31_t) ((fcurnt4 * (*pk++)) >> 15U) + fcurnt3;
 1294              		.loc 1 131 14 view .LVU493
 131:Drivers/CMSIS/DSP/Source/FilteringFunctions/arm_fir_lattice_q15.c ****     gnext4 = (q31_t) ((fcurnt4 * (*pk++)) >> 15U) + fcurnt3;
 1295              		.loc 1 131 14 view .LVU494
 1296              		.syntax unified
 1297              	@ 131 "Drivers/CMSIS/DSP/Source/FilteringFunctions/arm_fir_lattice_q15.c" 1
 1298 033e 05F30F05 		ssat r5, #16, r5
 1299              	@ 0 "" 2
 1300              	.LVL187:
 131:Drivers/CMSIS/DSP/Source/FilteringFunctions/arm_fir_lattice_q15.c ****     gnext4 = (q31_t) ((fcurnt4 * (*pk++)) >> 15U) + fcurnt3;
 1301              		.loc 1 131 14 view .LVU495
 131:Drivers/CMSIS/DSP/Source/FilteringFunctions/arm_fir_lattice_q15.c ****     gnext4 = (q31_t) ((fcurnt4 * (*pk++)) >> 15U) + fcurnt3;
 1302              		.loc 1 131 14 is_stmt 0 view .LVU496
 1303              		.thumb
 1304              		.syntax unified
 1305              	.LBE48:
 132:Drivers/CMSIS/DSP/Source/FilteringFunctions/arm_fir_lattice_q15.c ****     gnext4 = __SSAT(gnext4, 16);
 1306              		.loc 1 132 5 is_stmt 1 view .LVU497
 132:Drivers/CMSIS/DSP/Source/FilteringFunctions/arm_fir_lattice_q15.c ****     gnext4 = __SSAT(gnext4, 16);
 1307              		.loc 1 132 32 is_stmt 0 view .LVU498
 1308 0342 07FB06F6 		mul	r6, r7, r6
 1309              	.LVL188:
 132:Drivers/CMSIS/DSP/Source/FilteringFunctions/arm_fir_lattice_q15.c ****     gnext4 = __SSAT(gnext4, 16);
 1310              		.loc 1 132 12 view .LVU499
 1311 0346 02EBE632 		add	r2, r2, r6, asr #15
 1312              	.LVL189:
 133:Drivers/CMSIS/DSP/Source/FilteringFunctions/arm_fir_lattice_q15.c **** 
 1313              		.loc 1 133 5 is_stmt 1 view .LVU500
ARM GAS  /var/folders/n6/c271nzx11xl4r4_m7sqjlt0m0000gn/T//ccXrJakI.s 			page 32


 1314              	.LBB49:
 133:Drivers/CMSIS/DSP/Source/FilteringFunctions/arm_fir_lattice_q15.c **** 
 1315              		.loc 1 133 14 view .LVU501
 133:Drivers/CMSIS/DSP/Source/FilteringFunctions/arm_fir_lattice_q15.c **** 
 1316              		.loc 1 133 14 view .LVU502
 1317              		.syntax unified
 1318              	@ 133 "Drivers/CMSIS/DSP/Source/FilteringFunctions/arm_fir_lattice_q15.c" 1
 1319 034a 02F30F02 		ssat r2, #16, r2
 1320              	@ 0 "" 2
 1321              	.LVL190:
 133:Drivers/CMSIS/DSP/Source/FilteringFunctions/arm_fir_lattice_q15.c **** 
 1322              		.loc 1 133 14 view .LVU503
 133:Drivers/CMSIS/DSP/Source/FilteringFunctions/arm_fir_lattice_q15.c **** 
 1323              		.loc 1 133 14 is_stmt 0 view .LVU504
 1324              		.thumb
 1325              		.syntax unified
 1326              	.LBE49:
 136:Drivers/CMSIS/DSP/Source/FilteringFunctions/arm_fir_lattice_q15.c ****     fcurnt2 = fnext2;
 1327              		.loc 1 136 5 is_stmt 1 view .LVU505
 137:Drivers/CMSIS/DSP/Source/FilteringFunctions/arm_fir_lattice_q15.c ****     fcurnt3 = fnext3;
 1328              		.loc 1 137 5 view .LVU506
 138:Drivers/CMSIS/DSP/Source/FilteringFunctions/arm_fir_lattice_q15.c ****     fcurnt4 = fnext4;
 1329              		.loc 1 138 5 view .LVU507
 139:Drivers/CMSIS/DSP/Source/FilteringFunctions/arm_fir_lattice_q15.c **** 
 1330              		.loc 1 139 5 view .LVU508
 143:Drivers/CMSIS/DSP/Source/FilteringFunctions/arm_fir_lattice_q15.c **** 
 1331              		.loc 1 143 5 view .LVU509
 143:Drivers/CMSIS/DSP/Source/FilteringFunctions/arm_fir_lattice_q15.c **** 
 1332              		.loc 1 143 27 is_stmt 0 view .LVU510
 1333 034e 0A9E     		ldr	r6, [sp, #40]
 143:Drivers/CMSIS/DSP/Source/FilteringFunctions/arm_fir_lattice_q15.c **** 
 1334              		.loc 1 143 27 view .LVU511
 1335 0350 06F1FF3C 		add	ip, r6, #-1
 143:Drivers/CMSIS/DSP/Source/FilteringFunctions/arm_fir_lattice_q15.c **** 
 1336              		.loc 1 143 14 view .LVU512
 1337 0354 4FEA9C06 		lsr	r6, ip, #2
 1338 0358 0396     		str	r6, [sp, #12]
 1339              	.LVL191:
 150:Drivers/CMSIS/DSP/Source/FilteringFunctions/arm_fir_lattice_q15.c ****     {
 1340              		.loc 1 150 5 is_stmt 1 view .LVU513
 1341 035a CDF820C0 		str	ip, [sp, #32]
 1342 035e 0091     		str	r1, [sp]
 1343 0360 CDF82480 		str	r8, [sp, #36]
 1344 0364 DDF80880 		ldr	r8, [sp, #8]
 1345              	.LVL192:
 150:Drivers/CMSIS/DSP/Source/FilteringFunctions/arm_fir_lattice_q15.c ****     {
 1346              		.loc 1 150 11 is_stmt 0 view .LVU514
 1347 0368 3FE7     		b	.L3
 1348              	.LVL193:
 1349              	.L13:
 364:Drivers/CMSIS/DSP/Source/FilteringFunctions/arm_fir_lattice_q15.c ****   }
 365:Drivers/CMSIS/DSP/Source/FilteringFunctions/arm_fir_lattice_q15.c **** 
 366:Drivers/CMSIS/DSP/Source/FilteringFunctions/arm_fir_lattice_q15.c ****   /* If the blockSize is not a multiple of 4, compute any remaining output samples here.
 367:Drivers/CMSIS/DSP/Source/FilteringFunctions/arm_fir_lattice_q15.c ****    ** No loop unrolling is used. */
 368:Drivers/CMSIS/DSP/Source/FilteringFunctions/arm_fir_lattice_q15.c ****   blkCnt = blockSize % 0x4U;
 1350              		.loc 1 368 10 view .LVU515
 1351 036a 0B9D     		ldr	r5, [sp, #44]
ARM GAS  /var/folders/n6/c271nzx11xl4r4_m7sqjlt0m0000gn/T//ccXrJakI.s 			page 33


 1352              		.loc 1 368 3 is_stmt 1 view .LVU516
 1353              		.loc 1 368 10 is_stmt 0 view .LVU517
 1354 036c 05F00307 		and	r7, r5, #3
 1355              	.LVL194:
 369:Drivers/CMSIS/DSP/Source/FilteringFunctions/arm_fir_lattice_q15.c **** 
 370:Drivers/CMSIS/DSP/Source/FilteringFunctions/arm_fir_lattice_q15.c ****   while (blkCnt > 0U)
 1356              		.loc 1 370 3 is_stmt 1 view .LVU518
 1357 0370 DDF82880 		ldr	r8, [sp, #40]
 1358 0374 DDF814E0 		ldr	lr, [sp, #20]
 1359 0378 DDF818C0 		ldr	ip, [sp, #24]
 1360              		.loc 1 370 9 is_stmt 0 view .LVU519
 1361 037c 1AE0     		b	.L8
 1362              	.LVL195:
 1363              	.L10:
 371:Drivers/CMSIS/DSP/Source/FilteringFunctions/arm_fir_lattice_q15.c ****   {
 372:Drivers/CMSIS/DSP/Source/FilteringFunctions/arm_fir_lattice_q15.c ****     /* f0(n) = x(n) */
 373:Drivers/CMSIS/DSP/Source/FilteringFunctions/arm_fir_lattice_q15.c ****     fcurnt1 = *pSrc++;
 374:Drivers/CMSIS/DSP/Source/FilteringFunctions/arm_fir_lattice_q15.c **** 
 375:Drivers/CMSIS/DSP/Source/FilteringFunctions/arm_fir_lattice_q15.c ****     /* Initialize coeff pointer */
 376:Drivers/CMSIS/DSP/Source/FilteringFunctions/arm_fir_lattice_q15.c ****     pk = (pCoeffs);
 377:Drivers/CMSIS/DSP/Source/FilteringFunctions/arm_fir_lattice_q15.c **** 
 378:Drivers/CMSIS/DSP/Source/FilteringFunctions/arm_fir_lattice_q15.c ****     /* Initialize state pointer */
 379:Drivers/CMSIS/DSP/Source/FilteringFunctions/arm_fir_lattice_q15.c ****     px = pState;
 380:Drivers/CMSIS/DSP/Source/FilteringFunctions/arm_fir_lattice_q15.c **** 
 381:Drivers/CMSIS/DSP/Source/FilteringFunctions/arm_fir_lattice_q15.c ****     /* read g2(n) from state buffer */
 382:Drivers/CMSIS/DSP/Source/FilteringFunctions/arm_fir_lattice_q15.c ****     gcurnt1 = *px;
 383:Drivers/CMSIS/DSP/Source/FilteringFunctions/arm_fir_lattice_q15.c **** 
 384:Drivers/CMSIS/DSP/Source/FilteringFunctions/arm_fir_lattice_q15.c ****     /* for sample 1 processing */
 385:Drivers/CMSIS/DSP/Source/FilteringFunctions/arm_fir_lattice_q15.c ****     /* f1(n) = f0(n) +  K1 * g0(n-1) */
 386:Drivers/CMSIS/DSP/Source/FilteringFunctions/arm_fir_lattice_q15.c ****     fnext1 = (((q31_t) gcurnt1 * (*pk)) >> 15U) + fcurnt1;
 387:Drivers/CMSIS/DSP/Source/FilteringFunctions/arm_fir_lattice_q15.c ****     fnext1 = __SSAT(fnext1, 16);
 388:Drivers/CMSIS/DSP/Source/FilteringFunctions/arm_fir_lattice_q15.c **** 
 389:Drivers/CMSIS/DSP/Source/FilteringFunctions/arm_fir_lattice_q15.c **** 
 390:Drivers/CMSIS/DSP/Source/FilteringFunctions/arm_fir_lattice_q15.c ****     /* g1(n) = f0(n) * K1  +  g0(n-1) */
 391:Drivers/CMSIS/DSP/Source/FilteringFunctions/arm_fir_lattice_q15.c ****     gnext1 = (((q31_t) fcurnt1 * (*pk++)) >> 15U) + gcurnt1;
 392:Drivers/CMSIS/DSP/Source/FilteringFunctions/arm_fir_lattice_q15.c ****     gnext1 = __SSAT(gnext1, 16);
 393:Drivers/CMSIS/DSP/Source/FilteringFunctions/arm_fir_lattice_q15.c **** 
 394:Drivers/CMSIS/DSP/Source/FilteringFunctions/arm_fir_lattice_q15.c ****     /* save g1(n) in state buffer */
 395:Drivers/CMSIS/DSP/Source/FilteringFunctions/arm_fir_lattice_q15.c ****     *px++ = (q15_t) fcurnt1;
 396:Drivers/CMSIS/DSP/Source/FilteringFunctions/arm_fir_lattice_q15.c **** 
 397:Drivers/CMSIS/DSP/Source/FilteringFunctions/arm_fir_lattice_q15.c ****     /* f1(n) is saved in fcurnt1
 398:Drivers/CMSIS/DSP/Source/FilteringFunctions/arm_fir_lattice_q15.c ****        for next stage processing */
 399:Drivers/CMSIS/DSP/Source/FilteringFunctions/arm_fir_lattice_q15.c ****     fcurnt1 = fnext1;
 400:Drivers/CMSIS/DSP/Source/FilteringFunctions/arm_fir_lattice_q15.c **** 
 401:Drivers/CMSIS/DSP/Source/FilteringFunctions/arm_fir_lattice_q15.c ****     stageCnt = (numStages - 1U);
 402:Drivers/CMSIS/DSP/Source/FilteringFunctions/arm_fir_lattice_q15.c **** 
 403:Drivers/CMSIS/DSP/Source/FilteringFunctions/arm_fir_lattice_q15.c ****     /* stage loop */
 404:Drivers/CMSIS/DSP/Source/FilteringFunctions/arm_fir_lattice_q15.c ****     while (stageCnt > 0U)
 405:Drivers/CMSIS/DSP/Source/FilteringFunctions/arm_fir_lattice_q15.c ****     {
 406:Drivers/CMSIS/DSP/Source/FilteringFunctions/arm_fir_lattice_q15.c ****       /* read g2(n) from state buffer */
 407:Drivers/CMSIS/DSP/Source/FilteringFunctions/arm_fir_lattice_q15.c ****       gcurnt1 = *px;
 1364              		.loc 1 407 7 is_stmt 1 view .LVU520
 1365              		.loc 1 407 17 is_stmt 0 view .LVU521
 1366 037e B3F90000 		ldrsh	r0, [r3]
 1367              	.LVL196:
 408:Drivers/CMSIS/DSP/Source/FilteringFunctions/arm_fir_lattice_q15.c **** 
 409:Drivers/CMSIS/DSP/Source/FilteringFunctions/arm_fir_lattice_q15.c ****       /* save g1(n) in state buffer */
ARM GAS  /var/folders/n6/c271nzx11xl4r4_m7sqjlt0m0000gn/T//ccXrJakI.s 			page 34


 410:Drivers/CMSIS/DSP/Source/FilteringFunctions/arm_fir_lattice_q15.c ****       *px++ = (q15_t) gnext1;
 1368              		.loc 1 410 7 is_stmt 1 view .LVU522
 1369              		.loc 1 410 13 is_stmt 0 view .LVU523
 1370 0382 23F8024B 		strh	r4, [r3], #2	@ movhi
 1371              	.LVL197:
 411:Drivers/CMSIS/DSP/Source/FilteringFunctions/arm_fir_lattice_q15.c **** 
 412:Drivers/CMSIS/DSP/Source/FilteringFunctions/arm_fir_lattice_q15.c ****       /* Sample processing for K2, K3.... */
 413:Drivers/CMSIS/DSP/Source/FilteringFunctions/arm_fir_lattice_q15.c ****       /* f2(n) = f1(n) +  K2 * g1(n-1) */
 414:Drivers/CMSIS/DSP/Source/FilteringFunctions/arm_fir_lattice_q15.c ****       fnext1 = (((q31_t) gcurnt1 * (*pk)) >> 15U) + fcurnt1;
 1372              		.loc 1 414 7 is_stmt 1 view .LVU524
 1373              		.loc 1 414 37 is_stmt 0 view .LVU525
 1374 0386 36F9024B 		ldrsh	r4, [r6], #2
 1375              	.LVL198:
 1376              		.loc 1 414 34 view .LVU526
 1377 038a 00FB04F2 		mul	r2, r0, r4
 1378              		.loc 1 414 14 view .LVU527
 1379 038e 09EBE232 		add	r2, r9, r2, asr #15
 1380              	.LVL199:
 415:Drivers/CMSIS/DSP/Source/FilteringFunctions/arm_fir_lattice_q15.c ****       fnext1 = __SSAT(fnext1, 16);
 1381              		.loc 1 415 7 is_stmt 1 view .LVU528
 1382              	.LBB50:
 1383              		.loc 1 415 16 view .LVU529
 1384              		.loc 1 415 16 view .LVU530
 1385              		.syntax unified
 1386              	@ 415 "Drivers/CMSIS/DSP/Source/FilteringFunctions/arm_fir_lattice_q15.c" 1
 1387 0392 02F30F02 		ssat r2, #16, r2
 1388              	@ 0 "" 2
 1389              	.LVL200:
 1390              		.loc 1 415 16 view .LVU531
 1391              		.loc 1 415 16 is_stmt 0 view .LVU532
 1392              		.thumb
 1393              		.syntax unified
 1394              	.LBE50:
 416:Drivers/CMSIS/DSP/Source/FilteringFunctions/arm_fir_lattice_q15.c **** 
 417:Drivers/CMSIS/DSP/Source/FilteringFunctions/arm_fir_lattice_q15.c ****       /* g2(n) = f1(n) * K2  +  g1(n-1) */
 418:Drivers/CMSIS/DSP/Source/FilteringFunctions/arm_fir_lattice_q15.c ****       gnext1 = (((q31_t) fcurnt1 * (*pk++)) >> 15U) + gcurnt1;
 1395              		.loc 1 418 7 is_stmt 1 view .LVU533
 1396              		.loc 1 418 34 is_stmt 0 view .LVU534
 1397 0396 09FB04F4 		mul	r4, r9, r4
 1398              	.LVL201:
 1399              		.loc 1 418 14 view .LVU535
 1400 039a 00EBE430 		add	r0, r0, r4, asr #15
 1401              	.LVL202:
 419:Drivers/CMSIS/DSP/Source/FilteringFunctions/arm_fir_lattice_q15.c ****       gnext1 = __SSAT(gnext1, 16);
 1402              		.loc 1 419 7 is_stmt 1 view .LVU536
 1403              	.LBB51:
 1404              		.loc 1 419 16 view .LVU537
 1405              		.loc 1 419 16 view .LVU538
 1406              		.syntax unified
 1407              	@ 419 "Drivers/CMSIS/DSP/Source/FilteringFunctions/arm_fir_lattice_q15.c" 1
 1408 039e 00F30F04 		ssat r4, #16, r0
 1409              	@ 0 "" 2
 1410              	.LVL203:
 1411              		.loc 1 419 16 view .LVU539
 1412              		.loc 1 419 16 is_stmt 0 view .LVU540
 1413              		.thumb
 1414              		.syntax unified
ARM GAS  /var/folders/n6/c271nzx11xl4r4_m7sqjlt0m0000gn/T//ccXrJakI.s 			page 35


 1415              	.LBE51:
 420:Drivers/CMSIS/DSP/Source/FilteringFunctions/arm_fir_lattice_q15.c **** 
 421:Drivers/CMSIS/DSP/Source/FilteringFunctions/arm_fir_lattice_q15.c **** 
 422:Drivers/CMSIS/DSP/Source/FilteringFunctions/arm_fir_lattice_q15.c ****       /* f1(n) is saved in fcurnt1
 423:Drivers/CMSIS/DSP/Source/FilteringFunctions/arm_fir_lattice_q15.c ****          for next stage processing */
 424:Drivers/CMSIS/DSP/Source/FilteringFunctions/arm_fir_lattice_q15.c ****       fcurnt1 = fnext1;
 1416              		.loc 1 424 7 is_stmt 1 view .LVU541
 425:Drivers/CMSIS/DSP/Source/FilteringFunctions/arm_fir_lattice_q15.c **** 
 426:Drivers/CMSIS/DSP/Source/FilteringFunctions/arm_fir_lattice_q15.c ****       stageCnt--;
 1417              		.loc 1 426 7 view .LVU542
 1418              		.loc 1 426 15 is_stmt 0 view .LVU543
 1419 03a2 013D     		subs	r5, r5, #1
 1420              	.LVL204:
 424:Drivers/CMSIS/DSP/Source/FilteringFunctions/arm_fir_lattice_q15.c **** 
 1421              		.loc 1 424 15 view .LVU544
 1422 03a4 9146     		mov	r9, r2
 1423              	.LVL205:
 1424              	.L9:
 404:Drivers/CMSIS/DSP/Source/FilteringFunctions/arm_fir_lattice_q15.c ****     {
 1425              		.loc 1 404 21 is_stmt 1 view .LVU545
 1426 03a6 002D     		cmp	r5, #0
 1427 03a8 E9D1     		bne	.L10
 427:Drivers/CMSIS/DSP/Source/FilteringFunctions/arm_fir_lattice_q15.c **** 
 428:Drivers/CMSIS/DSP/Source/FilteringFunctions/arm_fir_lattice_q15.c ****     }
 429:Drivers/CMSIS/DSP/Source/FilteringFunctions/arm_fir_lattice_q15.c **** 
 430:Drivers/CMSIS/DSP/Source/FilteringFunctions/arm_fir_lattice_q15.c ****     /* y(n) = fN(n) */
 431:Drivers/CMSIS/DSP/Source/FilteringFunctions/arm_fir_lattice_q15.c ****     *pDst++ = __SSAT(fcurnt1, 16);
 1428              		.loc 1 431 5 view .LVU546
 1429              	.LBB52:
 1430              		.loc 1 431 15 view .LVU547
 1431              	.LVL206:
 1432              		.loc 1 431 15 view .LVU548
 1433              		.syntax unified
 1434              	@ 431 "Drivers/CMSIS/DSP/Source/FilteringFunctions/arm_fir_lattice_q15.c" 1
 1435 03aa 09F30F09 		ssat r9, #16, r9
 1436              	@ 0 "" 2
 1437              	.LVL207:
 1438              		.loc 1 431 15 view .LVU549
 1439              		.loc 1 431 15 is_stmt 0 view .LVU550
 1440              		.thumb
 1441              		.syntax unified
 1442              	.LBE52:
 1443              		.loc 1 431 13 view .LVU551
 1444 03ae 2CF8029B 		strh	r9, [ip], #2	@ movhi
 1445              	.LVL208:
 432:Drivers/CMSIS/DSP/Source/FilteringFunctions/arm_fir_lattice_q15.c **** 
 433:Drivers/CMSIS/DSP/Source/FilteringFunctions/arm_fir_lattice_q15.c **** 
 434:Drivers/CMSIS/DSP/Source/FilteringFunctions/arm_fir_lattice_q15.c ****     blkCnt--;
 1446              		.loc 1 434 5 is_stmt 1 view .LVU552
 1447              		.loc 1 434 11 is_stmt 0 view .LVU553
 1448 03b2 013F     		subs	r7, r7, #1
 1449              	.LVL209:
 1450              	.L8:
 370:Drivers/CMSIS/DSP/Source/FilteringFunctions/arm_fir_lattice_q15.c ****   {
 1451              		.loc 1 370 17 is_stmt 1 view .LVU554
 1452 03b4 C7B1     		cbz	r7, .L14
 373:Drivers/CMSIS/DSP/Source/FilteringFunctions/arm_fir_lattice_q15.c **** 
ARM GAS  /var/folders/n6/c271nzx11xl4r4_m7sqjlt0m0000gn/T//ccXrJakI.s 			page 36


 1453              		.loc 1 373 5 view .LVU555
 1454              	.LVL210:
 373:Drivers/CMSIS/DSP/Source/FilteringFunctions/arm_fir_lattice_q15.c **** 
 1455              		.loc 1 373 15 is_stmt 0 view .LVU556
 1456 03b6 31F9022B 		ldrsh	r2, [r1], #2
 1457              	.LVL211:
 376:Drivers/CMSIS/DSP/Source/FilteringFunctions/arm_fir_lattice_q15.c **** 
 1458              		.loc 1 376 5 is_stmt 1 view .LVU557
 379:Drivers/CMSIS/DSP/Source/FilteringFunctions/arm_fir_lattice_q15.c **** 
 1459              		.loc 1 379 5 view .LVU558
 382:Drivers/CMSIS/DSP/Source/FilteringFunctions/arm_fir_lattice_q15.c **** 
 1460              		.loc 1 382 5 view .LVU559
 382:Drivers/CMSIS/DSP/Source/FilteringFunctions/arm_fir_lattice_q15.c **** 
 1461              		.loc 1 382 15 is_stmt 0 view .LVU560
 1462 03ba BEF90040 		ldrsh	r4, [lr]
 1463              	.LVL212:
 386:Drivers/CMSIS/DSP/Source/FilteringFunctions/arm_fir_lattice_q15.c ****     fnext1 = __SSAT(fnext1, 16);
 1464              		.loc 1 386 5 is_stmt 1 view .LVU561
 386:Drivers/CMSIS/DSP/Source/FilteringFunctions/arm_fir_lattice_q15.c ****     fnext1 = __SSAT(fnext1, 16);
 1465              		.loc 1 386 35 is_stmt 0 view .LVU562
 1466 03be 079E     		ldr	r6, [sp, #28]
 1467 03c0 36F9023B 		ldrsh	r3, [r6], #2
 386:Drivers/CMSIS/DSP/Source/FilteringFunctions/arm_fir_lattice_q15.c ****     fnext1 = __SSAT(fnext1, 16);
 1468              		.loc 1 386 32 view .LVU563
 1469 03c4 04FB03F9 		mul	r9, r4, r3
 386:Drivers/CMSIS/DSP/Source/FilteringFunctions/arm_fir_lattice_q15.c ****     fnext1 = __SSAT(fnext1, 16);
 1470              		.loc 1 386 12 view .LVU564
 1471 03c8 02EBE939 		add	r9, r2, r9, asr #15
 1472              	.LVL213:
 387:Drivers/CMSIS/DSP/Source/FilteringFunctions/arm_fir_lattice_q15.c **** 
 1473              		.loc 1 387 5 is_stmt 1 view .LVU565
 1474              	.LBB53:
 387:Drivers/CMSIS/DSP/Source/FilteringFunctions/arm_fir_lattice_q15.c **** 
 1475              		.loc 1 387 14 view .LVU566
 387:Drivers/CMSIS/DSP/Source/FilteringFunctions/arm_fir_lattice_q15.c **** 
 1476              		.loc 1 387 14 view .LVU567
 1477              		.syntax unified
 1478              	@ 387 "Drivers/CMSIS/DSP/Source/FilteringFunctions/arm_fir_lattice_q15.c" 1
 1479 03cc 09F30F09 		ssat r9, #16, r9
 1480              	@ 0 "" 2
 1481              	.LVL214:
 387:Drivers/CMSIS/DSP/Source/FilteringFunctions/arm_fir_lattice_q15.c **** 
 1482              		.loc 1 387 14 view .LVU568
 387:Drivers/CMSIS/DSP/Source/FilteringFunctions/arm_fir_lattice_q15.c **** 
 1483              		.loc 1 387 14 is_stmt 0 view .LVU569
 1484              		.thumb
 1485              		.syntax unified
 1486              	.LBE53:
 391:Drivers/CMSIS/DSP/Source/FilteringFunctions/arm_fir_lattice_q15.c ****     gnext1 = __SSAT(gnext1, 16);
 1487              		.loc 1 391 5 is_stmt 1 view .LVU570
 391:Drivers/CMSIS/DSP/Source/FilteringFunctions/arm_fir_lattice_q15.c ****     gnext1 = __SSAT(gnext1, 16);
 1488              		.loc 1 391 32 is_stmt 0 view .LVU571
 1489 03d0 02FB03F3 		mul	r3, r2, r3
 1490              	.LVL215:
 391:Drivers/CMSIS/DSP/Source/FilteringFunctions/arm_fir_lattice_q15.c ****     gnext1 = __SSAT(gnext1, 16);
 1491              		.loc 1 391 12 view .LVU572
 1492 03d4 04EBE334 		add	r4, r4, r3, asr #15
ARM GAS  /var/folders/n6/c271nzx11xl4r4_m7sqjlt0m0000gn/T//ccXrJakI.s 			page 37


 1493              	.LVL216:
 392:Drivers/CMSIS/DSP/Source/FilteringFunctions/arm_fir_lattice_q15.c **** 
 1494              		.loc 1 392 5 is_stmt 1 view .LVU573
 1495              	.LBB54:
 392:Drivers/CMSIS/DSP/Source/FilteringFunctions/arm_fir_lattice_q15.c **** 
 1496              		.loc 1 392 14 view .LVU574
 392:Drivers/CMSIS/DSP/Source/FilteringFunctions/arm_fir_lattice_q15.c **** 
 1497              		.loc 1 392 14 view .LVU575
 1498              		.syntax unified
 1499              	@ 392 "Drivers/CMSIS/DSP/Source/FilteringFunctions/arm_fir_lattice_q15.c" 1
 1500 03d8 04F30F04 		ssat r4, #16, r4
 1501              	@ 0 "" 2
 1502              	.LVL217:
 392:Drivers/CMSIS/DSP/Source/FilteringFunctions/arm_fir_lattice_q15.c **** 
 1503              		.loc 1 392 14 view .LVU576
 392:Drivers/CMSIS/DSP/Source/FilteringFunctions/arm_fir_lattice_q15.c **** 
 1504              		.loc 1 392 14 is_stmt 0 view .LVU577
 1505              		.thumb
 1506              		.syntax unified
 1507              	.LBE54:
 395:Drivers/CMSIS/DSP/Source/FilteringFunctions/arm_fir_lattice_q15.c **** 
 1508              		.loc 1 395 5 is_stmt 1 view .LVU578
 395:Drivers/CMSIS/DSP/Source/FilteringFunctions/arm_fir_lattice_q15.c **** 
 1509              		.loc 1 395 8 is_stmt 0 view .LVU579
 1510 03dc 7346     		mov	r3, lr
 1511              	.LVL218:
 395:Drivers/CMSIS/DSP/Source/FilteringFunctions/arm_fir_lattice_q15.c **** 
 1512              		.loc 1 395 11 view .LVU580
 1513 03de 23F8022B 		strh	r2, [r3], #2	@ movhi
 1514              	.LVL219:
 399:Drivers/CMSIS/DSP/Source/FilteringFunctions/arm_fir_lattice_q15.c **** 
 1515              		.loc 1 399 5 is_stmt 1 view .LVU581
 401:Drivers/CMSIS/DSP/Source/FilteringFunctions/arm_fir_lattice_q15.c **** 
 1516              		.loc 1 401 5 view .LVU582
 401:Drivers/CMSIS/DSP/Source/FilteringFunctions/arm_fir_lattice_q15.c **** 
 1517              		.loc 1 401 14 is_stmt 0 view .LVU583
 1518 03e2 08F1FF35 		add	r5, r8, #-1
 1519              	.LVL220:
 404:Drivers/CMSIS/DSP/Source/FilteringFunctions/arm_fir_lattice_q15.c ****     {
 1520              		.loc 1 404 5 is_stmt 1 view .LVU584
 404:Drivers/CMSIS/DSP/Source/FilteringFunctions/arm_fir_lattice_q15.c ****     {
 1521              		.loc 1 404 11 is_stmt 0 view .LVU585
 1522 03e6 DEE7     		b	.L9
 1523              	.LVL221:
 1524              	.L14:
 435:Drivers/CMSIS/DSP/Source/FilteringFunctions/arm_fir_lattice_q15.c **** 
 436:Drivers/CMSIS/DSP/Source/FilteringFunctions/arm_fir_lattice_q15.c ****   }
 437:Drivers/CMSIS/DSP/Source/FilteringFunctions/arm_fir_lattice_q15.c **** 
 438:Drivers/CMSIS/DSP/Source/FilteringFunctions/arm_fir_lattice_q15.c **** #else
 439:Drivers/CMSIS/DSP/Source/FilteringFunctions/arm_fir_lattice_q15.c **** 
 440:Drivers/CMSIS/DSP/Source/FilteringFunctions/arm_fir_lattice_q15.c ****   /* Run the below code for Cortex-M0 */
 441:Drivers/CMSIS/DSP/Source/FilteringFunctions/arm_fir_lattice_q15.c **** 
 442:Drivers/CMSIS/DSP/Source/FilteringFunctions/arm_fir_lattice_q15.c ****   q31_t fcurnt, fnext, gcurnt, gnext;            /* temporary variables */
 443:Drivers/CMSIS/DSP/Source/FilteringFunctions/arm_fir_lattice_q15.c ****   uint32_t numStages = S->numStages;             /* Length of the filter */
 444:Drivers/CMSIS/DSP/Source/FilteringFunctions/arm_fir_lattice_q15.c ****   uint32_t blkCnt, stageCnt;                     /* temporary variables for counts */
 445:Drivers/CMSIS/DSP/Source/FilteringFunctions/arm_fir_lattice_q15.c **** 
 446:Drivers/CMSIS/DSP/Source/FilteringFunctions/arm_fir_lattice_q15.c ****   pState = &S->pState[0];
ARM GAS  /var/folders/n6/c271nzx11xl4r4_m7sqjlt0m0000gn/T//ccXrJakI.s 			page 38


 447:Drivers/CMSIS/DSP/Source/FilteringFunctions/arm_fir_lattice_q15.c **** 
 448:Drivers/CMSIS/DSP/Source/FilteringFunctions/arm_fir_lattice_q15.c ****   blkCnt = blockSize;
 449:Drivers/CMSIS/DSP/Source/FilteringFunctions/arm_fir_lattice_q15.c **** 
 450:Drivers/CMSIS/DSP/Source/FilteringFunctions/arm_fir_lattice_q15.c ****   while (blkCnt > 0U)
 451:Drivers/CMSIS/DSP/Source/FilteringFunctions/arm_fir_lattice_q15.c ****   {
 452:Drivers/CMSIS/DSP/Source/FilteringFunctions/arm_fir_lattice_q15.c ****     /* f0(n) = x(n) */
 453:Drivers/CMSIS/DSP/Source/FilteringFunctions/arm_fir_lattice_q15.c ****     fcurnt = *pSrc++;
 454:Drivers/CMSIS/DSP/Source/FilteringFunctions/arm_fir_lattice_q15.c **** 
 455:Drivers/CMSIS/DSP/Source/FilteringFunctions/arm_fir_lattice_q15.c ****     /* Initialize coeff pointer */
 456:Drivers/CMSIS/DSP/Source/FilteringFunctions/arm_fir_lattice_q15.c ****     pk = (pCoeffs);
 457:Drivers/CMSIS/DSP/Source/FilteringFunctions/arm_fir_lattice_q15.c **** 
 458:Drivers/CMSIS/DSP/Source/FilteringFunctions/arm_fir_lattice_q15.c ****     /* Initialize state pointer */
 459:Drivers/CMSIS/DSP/Source/FilteringFunctions/arm_fir_lattice_q15.c ****     px = pState;
 460:Drivers/CMSIS/DSP/Source/FilteringFunctions/arm_fir_lattice_q15.c **** 
 461:Drivers/CMSIS/DSP/Source/FilteringFunctions/arm_fir_lattice_q15.c ****     /* read g0(n-1) from state buffer */
 462:Drivers/CMSIS/DSP/Source/FilteringFunctions/arm_fir_lattice_q15.c ****     gcurnt = *px;
 463:Drivers/CMSIS/DSP/Source/FilteringFunctions/arm_fir_lattice_q15.c **** 
 464:Drivers/CMSIS/DSP/Source/FilteringFunctions/arm_fir_lattice_q15.c ****     /* for sample 1 processing */
 465:Drivers/CMSIS/DSP/Source/FilteringFunctions/arm_fir_lattice_q15.c ****     /* f1(n) = f0(n) +  K1 * g0(n-1) */
 466:Drivers/CMSIS/DSP/Source/FilteringFunctions/arm_fir_lattice_q15.c ****     fnext = ((gcurnt * (*pk)) >> 15U) + fcurnt;
 467:Drivers/CMSIS/DSP/Source/FilteringFunctions/arm_fir_lattice_q15.c ****     fnext = __SSAT(fnext, 16);
 468:Drivers/CMSIS/DSP/Source/FilteringFunctions/arm_fir_lattice_q15.c **** 
 469:Drivers/CMSIS/DSP/Source/FilteringFunctions/arm_fir_lattice_q15.c **** 
 470:Drivers/CMSIS/DSP/Source/FilteringFunctions/arm_fir_lattice_q15.c ****     /* g1(n) = f0(n) * K1  +  g0(n-1) */
 471:Drivers/CMSIS/DSP/Source/FilteringFunctions/arm_fir_lattice_q15.c ****     gnext = ((fcurnt * (*pk++)) >> 15U) + gcurnt;
 472:Drivers/CMSIS/DSP/Source/FilteringFunctions/arm_fir_lattice_q15.c ****     gnext = __SSAT(gnext, 16);
 473:Drivers/CMSIS/DSP/Source/FilteringFunctions/arm_fir_lattice_q15.c **** 
 474:Drivers/CMSIS/DSP/Source/FilteringFunctions/arm_fir_lattice_q15.c ****     /* save f0(n) in state buffer */
 475:Drivers/CMSIS/DSP/Source/FilteringFunctions/arm_fir_lattice_q15.c ****     *px++ = (q15_t) fcurnt;
 476:Drivers/CMSIS/DSP/Source/FilteringFunctions/arm_fir_lattice_q15.c **** 
 477:Drivers/CMSIS/DSP/Source/FilteringFunctions/arm_fir_lattice_q15.c ****     /* f1(n) is saved in fcurnt
 478:Drivers/CMSIS/DSP/Source/FilteringFunctions/arm_fir_lattice_q15.c ****        for next stage processing */
 479:Drivers/CMSIS/DSP/Source/FilteringFunctions/arm_fir_lattice_q15.c ****     fcurnt = fnext;
 480:Drivers/CMSIS/DSP/Source/FilteringFunctions/arm_fir_lattice_q15.c **** 
 481:Drivers/CMSIS/DSP/Source/FilteringFunctions/arm_fir_lattice_q15.c ****     stageCnt = (numStages - 1U);
 482:Drivers/CMSIS/DSP/Source/FilteringFunctions/arm_fir_lattice_q15.c **** 
 483:Drivers/CMSIS/DSP/Source/FilteringFunctions/arm_fir_lattice_q15.c ****     /* stage loop */
 484:Drivers/CMSIS/DSP/Source/FilteringFunctions/arm_fir_lattice_q15.c ****     while (stageCnt > 0U)
 485:Drivers/CMSIS/DSP/Source/FilteringFunctions/arm_fir_lattice_q15.c ****     {
 486:Drivers/CMSIS/DSP/Source/FilteringFunctions/arm_fir_lattice_q15.c ****       /* read g1(n-1) from state buffer */
 487:Drivers/CMSIS/DSP/Source/FilteringFunctions/arm_fir_lattice_q15.c ****       gcurnt = *px;
 488:Drivers/CMSIS/DSP/Source/FilteringFunctions/arm_fir_lattice_q15.c **** 
 489:Drivers/CMSIS/DSP/Source/FilteringFunctions/arm_fir_lattice_q15.c ****       /* save g0(n-1) in state buffer */
 490:Drivers/CMSIS/DSP/Source/FilteringFunctions/arm_fir_lattice_q15.c ****       *px++ = (q15_t) gnext;
 491:Drivers/CMSIS/DSP/Source/FilteringFunctions/arm_fir_lattice_q15.c **** 
 492:Drivers/CMSIS/DSP/Source/FilteringFunctions/arm_fir_lattice_q15.c ****       /* Sample processing for K2, K3.... */
 493:Drivers/CMSIS/DSP/Source/FilteringFunctions/arm_fir_lattice_q15.c ****       /* f2(n) = f1(n) +  K2 * g1(n-1) */
 494:Drivers/CMSIS/DSP/Source/FilteringFunctions/arm_fir_lattice_q15.c ****       fnext = ((gcurnt * (*pk)) >> 15U) + fcurnt;
 495:Drivers/CMSIS/DSP/Source/FilteringFunctions/arm_fir_lattice_q15.c ****       fnext = __SSAT(fnext, 16);
 496:Drivers/CMSIS/DSP/Source/FilteringFunctions/arm_fir_lattice_q15.c **** 
 497:Drivers/CMSIS/DSP/Source/FilteringFunctions/arm_fir_lattice_q15.c ****       /* g2(n) = f1(n) * K2  +  g1(n-1) */
 498:Drivers/CMSIS/DSP/Source/FilteringFunctions/arm_fir_lattice_q15.c ****       gnext = ((fcurnt * (*pk++)) >> 15U) + gcurnt;
 499:Drivers/CMSIS/DSP/Source/FilteringFunctions/arm_fir_lattice_q15.c ****       gnext = __SSAT(gnext, 16);
 500:Drivers/CMSIS/DSP/Source/FilteringFunctions/arm_fir_lattice_q15.c **** 
 501:Drivers/CMSIS/DSP/Source/FilteringFunctions/arm_fir_lattice_q15.c **** 
 502:Drivers/CMSIS/DSP/Source/FilteringFunctions/arm_fir_lattice_q15.c ****       /* f1(n) is saved in fcurnt
 503:Drivers/CMSIS/DSP/Source/FilteringFunctions/arm_fir_lattice_q15.c ****          for next stage processing */
ARM GAS  /var/folders/n6/c271nzx11xl4r4_m7sqjlt0m0000gn/T//ccXrJakI.s 			page 39


 504:Drivers/CMSIS/DSP/Source/FilteringFunctions/arm_fir_lattice_q15.c ****       fcurnt = fnext;
 505:Drivers/CMSIS/DSP/Source/FilteringFunctions/arm_fir_lattice_q15.c **** 
 506:Drivers/CMSIS/DSP/Source/FilteringFunctions/arm_fir_lattice_q15.c ****       stageCnt--;
 507:Drivers/CMSIS/DSP/Source/FilteringFunctions/arm_fir_lattice_q15.c **** 
 508:Drivers/CMSIS/DSP/Source/FilteringFunctions/arm_fir_lattice_q15.c ****     }
 509:Drivers/CMSIS/DSP/Source/FilteringFunctions/arm_fir_lattice_q15.c **** 
 510:Drivers/CMSIS/DSP/Source/FilteringFunctions/arm_fir_lattice_q15.c ****     /* y(n) = fN(n) */
 511:Drivers/CMSIS/DSP/Source/FilteringFunctions/arm_fir_lattice_q15.c ****     *pDst++ = __SSAT(fcurnt, 16);
 512:Drivers/CMSIS/DSP/Source/FilteringFunctions/arm_fir_lattice_q15.c **** 
 513:Drivers/CMSIS/DSP/Source/FilteringFunctions/arm_fir_lattice_q15.c **** 
 514:Drivers/CMSIS/DSP/Source/FilteringFunctions/arm_fir_lattice_q15.c ****     blkCnt--;
 515:Drivers/CMSIS/DSP/Source/FilteringFunctions/arm_fir_lattice_q15.c **** 
 516:Drivers/CMSIS/DSP/Source/FilteringFunctions/arm_fir_lattice_q15.c ****   }
 517:Drivers/CMSIS/DSP/Source/FilteringFunctions/arm_fir_lattice_q15.c **** 
 518:Drivers/CMSIS/DSP/Source/FilteringFunctions/arm_fir_lattice_q15.c **** #endif /*   #if defined (ARM_MATH_DSP) */
 519:Drivers/CMSIS/DSP/Source/FilteringFunctions/arm_fir_lattice_q15.c **** 
 520:Drivers/CMSIS/DSP/Source/FilteringFunctions/arm_fir_lattice_q15.c **** }
 1525              		.loc 1 520 1 view .LVU586
 1526 03e8 0DB0     		add	sp, sp, #52
 1527              		.cfi_def_cfa_offset 36
 1528              		@ sp needed
 1529 03ea BDE8F08F 		pop	{r4, r5, r6, r7, r8, r9, r10, fp, pc}
 1530              		.loc 1 520 1 view .LVU587
 1531              		.cfi_endproc
 1532              	.LFE135:
 1534              		.text
 1535              	.Letext0:
 1536              		.file 2 "/Users/killian/Library/Application Support/Code/User/globalStorage/bmd.stm32-for-vscode/@
 1537              		.file 3 "/Users/killian/Library/Application Support/Code/User/globalStorage/bmd.stm32-for-vscode/@
 1538              		.file 4 "Drivers/CMSIS/DSP/Include/arm_math.h"
ARM GAS  /var/folders/n6/c271nzx11xl4r4_m7sqjlt0m0000gn/T//ccXrJakI.s 			page 40

