ARM GAS  /var/folders/n6/c271nzx11xl4r4_m7sqjlt0m0000gn/T//ccT0I2Qk.s 			page 1


   1              		.cpu cortex-m7
   2              		.arch armv7e-m
   3              		.fpu fpv5-d16
   4              		.eabi_attribute 28, 1
   5              		.eabi_attribute 20, 1
   6              		.eabi_attribute 21, 1
   7              		.eabi_attribute 23, 3
   8              		.eabi_attribute 24, 1
   9              		.eabi_attribute 25, 1
  10              		.eabi_attribute 26, 1
  11              		.eabi_attribute 30, 1
  12              		.eabi_attribute 34, 1
  13              		.eabi_attribute 18, 4
  14              		.file	"arm_biquad_cascade_df1_q31.c"
  15              		.text
  16              	.Ltext0:
  17              		.cfi_sections	.debug_frame
  18              		.file 1 "Drivers/CMSIS/DSP/Source/FilteringFunctions/arm_biquad_cascade_df1_q31.c"
  19              		.section	.text.arm_biquad_cascade_df1_q31,"ax",%progbits
  20              		.align	1
  21              		.global	arm_biquad_cascade_df1_q31
  22              		.syntax unified
  23              		.thumb
  24              		.thumb_func
  26              	arm_biquad_cascade_df1_q31:
  27              	.LVL0:
  28              	.LFB135:
   1:Drivers/CMSIS/DSP/Source/FilteringFunctions/arm_biquad_cascade_df1_q31.c **** /* ----------------------------------------------------------------------
   2:Drivers/CMSIS/DSP/Source/FilteringFunctions/arm_biquad_cascade_df1_q31.c ****  * Project:      CMSIS DSP Library
   3:Drivers/CMSIS/DSP/Source/FilteringFunctions/arm_biquad_cascade_df1_q31.c ****  * Title:        arm_biquad_cascade_df1_q31.c
   4:Drivers/CMSIS/DSP/Source/FilteringFunctions/arm_biquad_cascade_df1_q31.c ****  * Description:  Processing function for the Q31 Biquad cascade filter
   5:Drivers/CMSIS/DSP/Source/FilteringFunctions/arm_biquad_cascade_df1_q31.c ****  *
   6:Drivers/CMSIS/DSP/Source/FilteringFunctions/arm_biquad_cascade_df1_q31.c ****  * $Date:        27. January 2017
   7:Drivers/CMSIS/DSP/Source/FilteringFunctions/arm_biquad_cascade_df1_q31.c ****  * $Revision:    V.1.5.1
   8:Drivers/CMSIS/DSP/Source/FilteringFunctions/arm_biquad_cascade_df1_q31.c ****  *
   9:Drivers/CMSIS/DSP/Source/FilteringFunctions/arm_biquad_cascade_df1_q31.c ****  * Target Processor: Cortex-M cores
  10:Drivers/CMSIS/DSP/Source/FilteringFunctions/arm_biquad_cascade_df1_q31.c ****  * -------------------------------------------------------------------- */
  11:Drivers/CMSIS/DSP/Source/FilteringFunctions/arm_biquad_cascade_df1_q31.c **** /*
  12:Drivers/CMSIS/DSP/Source/FilteringFunctions/arm_biquad_cascade_df1_q31.c ****  * Copyright (C) 2010-2017 ARM Limited or its affiliates. All rights reserved.
  13:Drivers/CMSIS/DSP/Source/FilteringFunctions/arm_biquad_cascade_df1_q31.c ****  *
  14:Drivers/CMSIS/DSP/Source/FilteringFunctions/arm_biquad_cascade_df1_q31.c ****  * SPDX-License-Identifier: Apache-2.0
  15:Drivers/CMSIS/DSP/Source/FilteringFunctions/arm_biquad_cascade_df1_q31.c ****  *
  16:Drivers/CMSIS/DSP/Source/FilteringFunctions/arm_biquad_cascade_df1_q31.c ****  * Licensed under the Apache License, Version 2.0 (the License); you may
  17:Drivers/CMSIS/DSP/Source/FilteringFunctions/arm_biquad_cascade_df1_q31.c ****  * not use this file except in compliance with the License.
  18:Drivers/CMSIS/DSP/Source/FilteringFunctions/arm_biquad_cascade_df1_q31.c ****  * You may obtain a copy of the License at
  19:Drivers/CMSIS/DSP/Source/FilteringFunctions/arm_biquad_cascade_df1_q31.c ****  *
  20:Drivers/CMSIS/DSP/Source/FilteringFunctions/arm_biquad_cascade_df1_q31.c ****  * www.apache.org/licenses/LICENSE-2.0
  21:Drivers/CMSIS/DSP/Source/FilteringFunctions/arm_biquad_cascade_df1_q31.c ****  *
  22:Drivers/CMSIS/DSP/Source/FilteringFunctions/arm_biquad_cascade_df1_q31.c ****  * Unless required by applicable law or agreed to in writing, software
  23:Drivers/CMSIS/DSP/Source/FilteringFunctions/arm_biquad_cascade_df1_q31.c ****  * distributed under the License is distributed on an AS IS BASIS, WITHOUT
  24:Drivers/CMSIS/DSP/Source/FilteringFunctions/arm_biquad_cascade_df1_q31.c ****  * WARRANTIES OR CONDITIONS OF ANY KIND, either express or implied.
  25:Drivers/CMSIS/DSP/Source/FilteringFunctions/arm_biquad_cascade_df1_q31.c ****  * See the License for the specific language governing permissions and
  26:Drivers/CMSIS/DSP/Source/FilteringFunctions/arm_biquad_cascade_df1_q31.c ****  * limitations under the License.
  27:Drivers/CMSIS/DSP/Source/FilteringFunctions/arm_biquad_cascade_df1_q31.c ****  */
  28:Drivers/CMSIS/DSP/Source/FilteringFunctions/arm_biquad_cascade_df1_q31.c **** 
  29:Drivers/CMSIS/DSP/Source/FilteringFunctions/arm_biquad_cascade_df1_q31.c **** #include "arm_math.h"
  30:Drivers/CMSIS/DSP/Source/FilteringFunctions/arm_biquad_cascade_df1_q31.c **** 
ARM GAS  /var/folders/n6/c271nzx11xl4r4_m7sqjlt0m0000gn/T//ccT0I2Qk.s 			page 2


  31:Drivers/CMSIS/DSP/Source/FilteringFunctions/arm_biquad_cascade_df1_q31.c **** /**
  32:Drivers/CMSIS/DSP/Source/FilteringFunctions/arm_biquad_cascade_df1_q31.c ****  * @ingroup groupFilters
  33:Drivers/CMSIS/DSP/Source/FilteringFunctions/arm_biquad_cascade_df1_q31.c ****  */
  34:Drivers/CMSIS/DSP/Source/FilteringFunctions/arm_biquad_cascade_df1_q31.c **** 
  35:Drivers/CMSIS/DSP/Source/FilteringFunctions/arm_biquad_cascade_df1_q31.c **** /**
  36:Drivers/CMSIS/DSP/Source/FilteringFunctions/arm_biquad_cascade_df1_q31.c ****  * @addtogroup BiquadCascadeDF1
  37:Drivers/CMSIS/DSP/Source/FilteringFunctions/arm_biquad_cascade_df1_q31.c ****  * @{
  38:Drivers/CMSIS/DSP/Source/FilteringFunctions/arm_biquad_cascade_df1_q31.c ****  */
  39:Drivers/CMSIS/DSP/Source/FilteringFunctions/arm_biquad_cascade_df1_q31.c **** 
  40:Drivers/CMSIS/DSP/Source/FilteringFunctions/arm_biquad_cascade_df1_q31.c **** /**
  41:Drivers/CMSIS/DSP/Source/FilteringFunctions/arm_biquad_cascade_df1_q31.c ****  * @brief Processing function for the Q31 Biquad cascade filter.
  42:Drivers/CMSIS/DSP/Source/FilteringFunctions/arm_biquad_cascade_df1_q31.c ****  * @param[in]  *S         points to an instance of the Q31 Biquad cascade structure.
  43:Drivers/CMSIS/DSP/Source/FilteringFunctions/arm_biquad_cascade_df1_q31.c ****  * @param[in]  *pSrc      points to the block of input data.
  44:Drivers/CMSIS/DSP/Source/FilteringFunctions/arm_biquad_cascade_df1_q31.c ****  * @param[out] *pDst      points to the block of output data.
  45:Drivers/CMSIS/DSP/Source/FilteringFunctions/arm_biquad_cascade_df1_q31.c ****  * @param[in]  blockSize  number of samples to process per call.
  46:Drivers/CMSIS/DSP/Source/FilteringFunctions/arm_biquad_cascade_df1_q31.c ****  * @return none.
  47:Drivers/CMSIS/DSP/Source/FilteringFunctions/arm_biquad_cascade_df1_q31.c ****  *
  48:Drivers/CMSIS/DSP/Source/FilteringFunctions/arm_biquad_cascade_df1_q31.c ****  * <b>Scaling and Overflow Behavior:</b>
  49:Drivers/CMSIS/DSP/Source/FilteringFunctions/arm_biquad_cascade_df1_q31.c ****  * \par
  50:Drivers/CMSIS/DSP/Source/FilteringFunctions/arm_biquad_cascade_df1_q31.c ****  * The function is implemented using an internal 64-bit accumulator.
  51:Drivers/CMSIS/DSP/Source/FilteringFunctions/arm_biquad_cascade_df1_q31.c ****  * The accumulator has a 2.62 format and maintains full precision of the intermediate multiplicatio
  52:Drivers/CMSIS/DSP/Source/FilteringFunctions/arm_biquad_cascade_df1_q31.c ****  * Thus, if the accumulator result overflows it wraps around rather than clip.
  53:Drivers/CMSIS/DSP/Source/FilteringFunctions/arm_biquad_cascade_df1_q31.c ****  * In order to avoid overflows completely the input signal must be scaled down by 2 bits and lie in
  54:Drivers/CMSIS/DSP/Source/FilteringFunctions/arm_biquad_cascade_df1_q31.c ****  * After all 5 multiply-accumulates are performed, the 2.62 accumulator is shifted by <code>postShi
  55:Drivers/CMSIS/DSP/Source/FilteringFunctions/arm_biquad_cascade_df1_q31.c ****  * 1.31 format by discarding the low 32 bits.
  56:Drivers/CMSIS/DSP/Source/FilteringFunctions/arm_biquad_cascade_df1_q31.c ****  *
  57:Drivers/CMSIS/DSP/Source/FilteringFunctions/arm_biquad_cascade_df1_q31.c ****  * \par
  58:Drivers/CMSIS/DSP/Source/FilteringFunctions/arm_biquad_cascade_df1_q31.c ****  * Refer to the function <code>arm_biquad_cascade_df1_fast_q31()</code> for a faster but less preci
  59:Drivers/CMSIS/DSP/Source/FilteringFunctions/arm_biquad_cascade_df1_q31.c ****  */
  60:Drivers/CMSIS/DSP/Source/FilteringFunctions/arm_biquad_cascade_df1_q31.c **** 
  61:Drivers/CMSIS/DSP/Source/FilteringFunctions/arm_biquad_cascade_df1_q31.c **** void arm_biquad_cascade_df1_q31(
  62:Drivers/CMSIS/DSP/Source/FilteringFunctions/arm_biquad_cascade_df1_q31.c ****   const arm_biquad_casd_df1_inst_q31 * S,
  63:Drivers/CMSIS/DSP/Source/FilteringFunctions/arm_biquad_cascade_df1_q31.c ****   q31_t * pSrc,
  64:Drivers/CMSIS/DSP/Source/FilteringFunctions/arm_biquad_cascade_df1_q31.c ****   q31_t * pDst,
  65:Drivers/CMSIS/DSP/Source/FilteringFunctions/arm_biquad_cascade_df1_q31.c ****   uint32_t blockSize)
  66:Drivers/CMSIS/DSP/Source/FilteringFunctions/arm_biquad_cascade_df1_q31.c **** {
  29              		.loc 1 66 1 view -0
  30              		.cfi_startproc
  31              		@ args = 0, pretend = 0, frame = 88
  32              		@ frame_needed = 0, uses_anonymous_args = 0
  33              		.loc 1 66 1 is_stmt 0 view .LVU1
  34 0000 2DE9F04F 		push	{r4, r5, r6, r7, r8, r9, r10, fp, lr}
  35              		.cfi_def_cfa_offset 36
  36              		.cfi_offset 4, -36
  37              		.cfi_offset 5, -32
  38              		.cfi_offset 6, -28
  39              		.cfi_offset 7, -24
  40              		.cfi_offset 8, -20
  41              		.cfi_offset 9, -16
  42              		.cfi_offset 10, -12
  43              		.cfi_offset 11, -8
  44              		.cfi_offset 14, -4
  45 0004 97B0     		sub	sp, sp, #92
  46              		.cfi_def_cfa_offset 128
  47 0006 0391     		str	r1, [sp, #12]
  48 0008 1592     		str	r2, [sp, #84]
  49 000a 1093     		str	r3, [sp, #64]
ARM GAS  /var/folders/n6/c271nzx11xl4r4_m7sqjlt0m0000gn/T//ccT0I2Qk.s 			page 3


  67:Drivers/CMSIS/DSP/Source/FilteringFunctions/arm_biquad_cascade_df1_q31.c ****   q63_t acc;                                     /*  accumulator                   */
  50              		.loc 1 67 3 is_stmt 1 view .LVU2
  68:Drivers/CMSIS/DSP/Source/FilteringFunctions/arm_biquad_cascade_df1_q31.c ****   uint32_t uShift = ((uint32_t) S->postShift + 1U);
  51              		.loc 1 68 3 view .LVU3
  52              		.loc 1 68 34 is_stmt 0 view .LVU4
  53 000c 037B     		ldrb	r3, [r0, #12]	@ zero_extendqisi2
  54              	.LVL1:
  55              		.loc 1 68 12 view .LVU5
  56 000e 5A1C     		adds	r2, r3, #1
  57              	.LVL2:
  58              		.loc 1 68 12 view .LVU6
  59 0010 0692     		str	r2, [sp, #24]
  60              	.LVL3:
  69:Drivers/CMSIS/DSP/Source/FilteringFunctions/arm_biquad_cascade_df1_q31.c ****   uint32_t lShift = 32U - uShift;                /*  Shift to be applied to the output */
  61              		.loc 1 69 3 is_stmt 1 view .LVU7
  62              		.loc 1 69 12 is_stmt 0 view .LVU8
  63 0012 C3F11F03 		rsb	r3, r3, #31
  64 0016 0493     		str	r3, [sp, #16]
  65              	.LVL4:
  70:Drivers/CMSIS/DSP/Source/FilteringFunctions/arm_biquad_cascade_df1_q31.c ****   q31_t *pIn = pSrc;                             /*  input pointer initialization  */
  66              		.loc 1 70 3 is_stmt 1 view .LVU9
  71:Drivers/CMSIS/DSP/Source/FilteringFunctions/arm_biquad_cascade_df1_q31.c ****   q31_t *pOut = pDst;                            /*  output pointer initialization */
  67              		.loc 1 71 3 view .LVU10
  72:Drivers/CMSIS/DSP/Source/FilteringFunctions/arm_biquad_cascade_df1_q31.c ****   q31_t *pState = S->pState;                     /*  pState pointer initialization */
  68              		.loc 1 72 3 view .LVU11
  69              		.loc 1 72 10 is_stmt 0 view .LVU12
  70 0018 D0F804E0 		ldr	lr, [r0, #4]
  71              	.LVL5:
  73:Drivers/CMSIS/DSP/Source/FilteringFunctions/arm_biquad_cascade_df1_q31.c ****   q31_t *pCoeffs = S->pCoeffs;                   /*  coeff pointer initialization  */
  72              		.loc 1 73 3 is_stmt 1 view .LVU13
  73              		.loc 1 73 10 is_stmt 0 view .LVU14
  74 001c D0F808A0 		ldr	r10, [r0, #8]
  75              	.LVL6:
  74:Drivers/CMSIS/DSP/Source/FilteringFunctions/arm_biquad_cascade_df1_q31.c ****   q31_t Xn1, Xn2, Yn1, Yn2;                      /*  Filter state variables        */
  76              		.loc 1 74 3 is_stmt 1 view .LVU15
  75:Drivers/CMSIS/DSP/Source/FilteringFunctions/arm_biquad_cascade_df1_q31.c ****   q31_t b0, b1, b2, a1, a2;                      /*  Filter coefficients           */
  77              		.loc 1 75 3 view .LVU16
  76:Drivers/CMSIS/DSP/Source/FilteringFunctions/arm_biquad_cascade_df1_q31.c ****   q31_t Xn;                                      /*  temporary input               */
  78              		.loc 1 76 3 view .LVU17
  77:Drivers/CMSIS/DSP/Source/FilteringFunctions/arm_biquad_cascade_df1_q31.c ****   uint32_t sample, stage = S->numStages;         /*  loop counters                     */
  79              		.loc 1 77 3 view .LVU18
  80              		.loc 1 77 20 is_stmt 0 view .LVU19
  81 0020 D0F800B0 		ldr	fp, [r0]
  82              	.LVL7:
  83              		.loc 1 77 20 view .LVU20
  84 0024 7746     		mov	r7, lr
  85 0026 5646     		mov	r6, r10
  86 0028 CDF844B0 		str	fp, [sp, #68]
  87 002c BDE1     		b	.L7
  88              	.LVL8:
  89              	.L3:
  78:Drivers/CMSIS/DSP/Source/FilteringFunctions/arm_biquad_cascade_df1_q31.c **** 
  79:Drivers/CMSIS/DSP/Source/FilteringFunctions/arm_biquad_cascade_df1_q31.c **** 
  80:Drivers/CMSIS/DSP/Source/FilteringFunctions/arm_biquad_cascade_df1_q31.c **** #if defined (ARM_MATH_DSP)
  81:Drivers/CMSIS/DSP/Source/FilteringFunctions/arm_biquad_cascade_df1_q31.c **** 
  82:Drivers/CMSIS/DSP/Source/FilteringFunctions/arm_biquad_cascade_df1_q31.c ****   q31_t acc_l, acc_h;                            /*  temporary output variables    */
  83:Drivers/CMSIS/DSP/Source/FilteringFunctions/arm_biquad_cascade_df1_q31.c **** 
ARM GAS  /var/folders/n6/c271nzx11xl4r4_m7sqjlt0m0000gn/T//ccT0I2Qk.s 			page 4


  84:Drivers/CMSIS/DSP/Source/FilteringFunctions/arm_biquad_cascade_df1_q31.c ****   /* Run the below code for Cortex-M4 and Cortex-M3 */
  85:Drivers/CMSIS/DSP/Source/FilteringFunctions/arm_biquad_cascade_df1_q31.c **** 
  86:Drivers/CMSIS/DSP/Source/FilteringFunctions/arm_biquad_cascade_df1_q31.c ****   do
  87:Drivers/CMSIS/DSP/Source/FilteringFunctions/arm_biquad_cascade_df1_q31.c ****   {
  88:Drivers/CMSIS/DSP/Source/FilteringFunctions/arm_biquad_cascade_df1_q31.c ****     /* Reading the coefficients */
  89:Drivers/CMSIS/DSP/Source/FilteringFunctions/arm_biquad_cascade_df1_q31.c ****     b0 = *pCoeffs++;
  90:Drivers/CMSIS/DSP/Source/FilteringFunctions/arm_biquad_cascade_df1_q31.c ****     b1 = *pCoeffs++;
  91:Drivers/CMSIS/DSP/Source/FilteringFunctions/arm_biquad_cascade_df1_q31.c ****     b2 = *pCoeffs++;
  92:Drivers/CMSIS/DSP/Source/FilteringFunctions/arm_biquad_cascade_df1_q31.c ****     a1 = *pCoeffs++;
  93:Drivers/CMSIS/DSP/Source/FilteringFunctions/arm_biquad_cascade_df1_q31.c ****     a2 = *pCoeffs++;
  94:Drivers/CMSIS/DSP/Source/FilteringFunctions/arm_biquad_cascade_df1_q31.c **** 
  95:Drivers/CMSIS/DSP/Source/FilteringFunctions/arm_biquad_cascade_df1_q31.c ****     /* Reading the state values */
  96:Drivers/CMSIS/DSP/Source/FilteringFunctions/arm_biquad_cascade_df1_q31.c ****     Xn1 = pState[0];
  97:Drivers/CMSIS/DSP/Source/FilteringFunctions/arm_biquad_cascade_df1_q31.c ****     Xn2 = pState[1];
  98:Drivers/CMSIS/DSP/Source/FilteringFunctions/arm_biquad_cascade_df1_q31.c ****     Yn1 = pState[2];
  99:Drivers/CMSIS/DSP/Source/FilteringFunctions/arm_biquad_cascade_df1_q31.c ****     Yn2 = pState[3];
 100:Drivers/CMSIS/DSP/Source/FilteringFunctions/arm_biquad_cascade_df1_q31.c **** 
 101:Drivers/CMSIS/DSP/Source/FilteringFunctions/arm_biquad_cascade_df1_q31.c ****     /* Apply loop unrolling and compute 4 output values simultaneously. */
 102:Drivers/CMSIS/DSP/Source/FilteringFunctions/arm_biquad_cascade_df1_q31.c ****     /*      The variable acc hold output values that are being computed:
 103:Drivers/CMSIS/DSP/Source/FilteringFunctions/arm_biquad_cascade_df1_q31.c ****      *
 104:Drivers/CMSIS/DSP/Source/FilteringFunctions/arm_biquad_cascade_df1_q31.c ****      *    acc =  b0 * x[n] + b1 * x[n-1] + b2 * x[n-2] + a1 * y[n-1] + a2 * y[n-2]
 105:Drivers/CMSIS/DSP/Source/FilteringFunctions/arm_biquad_cascade_df1_q31.c ****      */
 106:Drivers/CMSIS/DSP/Source/FilteringFunctions/arm_biquad_cascade_df1_q31.c **** 
 107:Drivers/CMSIS/DSP/Source/FilteringFunctions/arm_biquad_cascade_df1_q31.c ****     sample = blockSize >> 2U;
 108:Drivers/CMSIS/DSP/Source/FilteringFunctions/arm_biquad_cascade_df1_q31.c **** 
 109:Drivers/CMSIS/DSP/Source/FilteringFunctions/arm_biquad_cascade_df1_q31.c ****     /* First part of the processing with loop unrolling.  Compute 4 outputs at a time.
 110:Drivers/CMSIS/DSP/Source/FilteringFunctions/arm_biquad_cascade_df1_q31.c ****      ** a second loop below computes the remaining 1 to 3 samples. */
 111:Drivers/CMSIS/DSP/Source/FilteringFunctions/arm_biquad_cascade_df1_q31.c ****     while (sample > 0U)
 112:Drivers/CMSIS/DSP/Source/FilteringFunctions/arm_biquad_cascade_df1_q31.c ****     {
 113:Drivers/CMSIS/DSP/Source/FilteringFunctions/arm_biquad_cascade_df1_q31.c ****       /* Read the input */
 114:Drivers/CMSIS/DSP/Source/FilteringFunctions/arm_biquad_cascade_df1_q31.c ****       Xn = *pIn++;
  90              		.loc 1 114 7 is_stmt 1 view .LVU21
  91              		.loc 1 114 10 is_stmt 0 view .LVU22
  92 002e 039B     		ldr	r3, [sp, #12]
  93              	.LVL9:
  94              		.loc 1 114 10 view .LVU23
  95 0030 1E68     		ldr	r6, [r3]
  96              	.LVL10:
 115:Drivers/CMSIS/DSP/Source/FilteringFunctions/arm_biquad_cascade_df1_q31.c **** 
 116:Drivers/CMSIS/DSP/Source/FilteringFunctions/arm_biquad_cascade_df1_q31.c ****       /* acc =  b0 * x[n] + b1 * x[n-1] + b2 * x[n-2] + a1 * y[n-1] + a2 * y[n-2] */
 117:Drivers/CMSIS/DSP/Source/FilteringFunctions/arm_biquad_cascade_df1_q31.c **** 
 118:Drivers/CMSIS/DSP/Source/FilteringFunctions/arm_biquad_cascade_df1_q31.c ****       /* acc =  b0 * x[n] */
 119:Drivers/CMSIS/DSP/Source/FilteringFunctions/arm_biquad_cascade_df1_q31.c ****       acc = (q63_t) b0 *Xn;
  97              		.loc 1 119 7 is_stmt 1 view .LVU24
  98              		.loc 1 119 13 is_stmt 0 view .LVU25
  99 0032 4FEAEE73 		asr	r3, lr, #31
 100              		.loc 1 119 24 view .LVU26
 101 0036 F017     		asrs	r0, r6, #31
 102              		.loc 1 119 11 view .LVU27
 103 0038 0E90     		str	r0, [sp, #56]
 104 003a 0EFB00F7 		mul	r7, lr, r0
 105 003e 0893     		str	r3, [sp, #32]
 106 0040 06FB0377 		mla	r7, r6, r3, r7
 107 0044 AEFB06A3 		umull	r10, r3, lr, r6
 108 0048 1F44     		add	r7, r7, r3
 109              	.LVL11:
 120:Drivers/CMSIS/DSP/Source/FilteringFunctions/arm_biquad_cascade_df1_q31.c ****       /* acc +=  b1 * x[n-1] */
ARM GAS  /var/folders/n6/c271nzx11xl4r4_m7sqjlt0m0000gn/T//ccT0I2Qk.s 			page 5


 121:Drivers/CMSIS/DSP/Source/FilteringFunctions/arm_biquad_cascade_df1_q31.c ****       acc += (q63_t) b1 *Xn1;
 110              		.loc 1 121 7 is_stmt 1 view .LVU28
 111              		.loc 1 121 14 is_stmt 0 view .LVU29
 112 004a 4FEAE873 		asr	r3, r8, #31
 113              		.loc 1 121 25 view .LVU30
 114 004e 0598     		ldr	r0, [sp, #20]
 115 0050 4FEAE079 		asr	r9, r0, #31
 116 0054 08FB09FC 		mul	ip, r8, r9
 117 0058 0993     		str	r3, [sp, #36]
 118 005a 00FB03CC 		mla	ip, r0, r3, ip
 119 005e A8FB0035 		umull	r3, r5, r8, r0
 120 0062 6544     		add	r5, r5, ip
 121              		.loc 1 121 11 view .LVU31
 122 0064 13EB0A03 		adds	r3, r3, r10
 123 0068 47EB0505 		adc	r5, r7, r5
 124              	.LVL12:
 122:Drivers/CMSIS/DSP/Source/FilteringFunctions/arm_biquad_cascade_df1_q31.c ****       /* acc +=  b[2] * x[n-2] */
 123:Drivers/CMSIS/DSP/Source/FilteringFunctions/arm_biquad_cascade_df1_q31.c ****       acc += (q63_t) b2 *Xn2;
 125              		.loc 1 123 7 is_stmt 1 view .LVU32
 126              		.loc 1 123 14 is_stmt 0 view .LVU33
 127 006c 4FEAEB7C 		asr	ip, fp, #31
 128              		.loc 1 123 25 view .LVU34
 129 0070 E717     		asrs	r7, r4, #31
 130 0072 CDF828C0 		str	ip, [sp, #40]
 131 0076 04FB0CFC 		mul	ip, r4, ip
 132 007a 0BFB07CC 		mla	ip, fp, r7, ip
 133 007e A4FB0B47 		umull	r4, r7, r4, fp
 134              	.LVL13:
 135              		.loc 1 123 25 view .LVU35
 136 0082 6744     		add	r7, r7, ip
 137              		.loc 1 123 11 view .LVU36
 138 0084 E418     		adds	r4, r4, r3
 139 0086 47EB0507 		adc	r7, r7, r5
 140              	.LVL14:
 124:Drivers/CMSIS/DSP/Source/FilteringFunctions/arm_biquad_cascade_df1_q31.c ****       /* acc +=  a1 * y[n-1] */
 125:Drivers/CMSIS/DSP/Source/FilteringFunctions/arm_biquad_cascade_df1_q31.c ****       acc += (q63_t) a1 *Yn1;
 141              		.loc 1 125 7 is_stmt 1 view .LVU37
 142              		.loc 1 125 14 is_stmt 0 view .LVU38
 143 008a 009D     		ldr	r5, [sp]
 144 008c EB17     		asrs	r3, r5, #31
 145              		.loc 1 125 25 view .LVU39
 146 008e 4FEAE17C 		asr	ip, r1, #31
 147 0092 05FB0CFA 		mul	r10, r5, ip
 148 0096 0B93     		str	r3, [sp, #44]
 149 0098 01FB03AA 		mla	r10, r1, r3, r10
 150 009c A5FB0135 		umull	r3, r5, r5, r1
 151 00a0 5544     		add	r5, r5, r10
 152              		.loc 1 125 11 view .LVU40
 153 00a2 1B19     		adds	r3, r3, r4
 154 00a4 45EB0705 		adc	r5, r5, r7
 155              	.LVL15:
 126:Drivers/CMSIS/DSP/Source/FilteringFunctions/arm_biquad_cascade_df1_q31.c ****       /* acc +=  a2 * y[n-2] */
 127:Drivers/CMSIS/DSP/Source/FilteringFunctions/arm_biquad_cascade_df1_q31.c ****       acc += (q63_t) a2 *Yn2;
 156              		.loc 1 127 7 is_stmt 1 view .LVU41
 157              		.loc 1 127 14 is_stmt 0 view .LVU42
 158 00a8 0198     		ldr	r0, [sp, #4]
 159 00aa C417     		asrs	r4, r0, #31
ARM GAS  /var/folders/n6/c271nzx11xl4r4_m7sqjlt0m0000gn/T//ccT0I2Qk.s 			page 6


 160              		.loc 1 127 25 view .LVU43
 161 00ac D717     		asrs	r7, r2, #31
 162 00ae 0C94     		str	r4, [sp, #48]
 163 00b0 02FB04F4 		mul	r4, r2, r4
 164 00b4 00FB0744 		mla	r4, r0, r7, r4
 165 00b8 A2FB0027 		umull	r2, r7, r2, r0
 166              	.LVL16:
 167              		.loc 1 127 25 view .LVU44
 168 00bc 3C44     		add	r4, r4, r7
 169              		.loc 1 127 11 view .LVU45
 170 00be D218     		adds	r2, r2, r3
 171 00c0 44EB0504 		adc	r4, r4, r5
 172              	.LVL17:
 128:Drivers/CMSIS/DSP/Source/FilteringFunctions/arm_biquad_cascade_df1_q31.c **** 
 129:Drivers/CMSIS/DSP/Source/FilteringFunctions/arm_biquad_cascade_df1_q31.c ****       /* The result is converted to 1.31 , Yn2 variable is reused */
 130:Drivers/CMSIS/DSP/Source/FilteringFunctions/arm_biquad_cascade_df1_q31.c **** 
 131:Drivers/CMSIS/DSP/Source/FilteringFunctions/arm_biquad_cascade_df1_q31.c ****       /* Calc lower part of acc */
 132:Drivers/CMSIS/DSP/Source/FilteringFunctions/arm_biquad_cascade_df1_q31.c ****       acc_l = acc & 0xffffffff;
 173              		.loc 1 132 7 is_stmt 1 view .LVU46
 133:Drivers/CMSIS/DSP/Source/FilteringFunctions/arm_biquad_cascade_df1_q31.c **** 
 134:Drivers/CMSIS/DSP/Source/FilteringFunctions/arm_biquad_cascade_df1_q31.c ****       /* Calc upper part of acc */
 135:Drivers/CMSIS/DSP/Source/FilteringFunctions/arm_biquad_cascade_df1_q31.c ****       acc_h = (acc >> 32) & 0xffffffff;
 174              		.loc 1 135 7 view .LVU47
 136:Drivers/CMSIS/DSP/Source/FilteringFunctions/arm_biquad_cascade_df1_q31.c **** 
 137:Drivers/CMSIS/DSP/Source/FilteringFunctions/arm_biquad_cascade_df1_q31.c ****       /* Apply shift for lower part of acc and upper part of acc */
 138:Drivers/CMSIS/DSP/Source/FilteringFunctions/arm_biquad_cascade_df1_q31.c ****       Yn2 = (uint32_t) acc_l >> lShift | acc_h << uShift;
 175              		.loc 1 138 7 view .LVU48
 176              		.loc 1 138 30 is_stmt 0 view .LVU49
 177 00c4 049D     		ldr	r5, [sp, #16]
 178 00c6 EA40     		lsrs	r2, r2, r5
 179              	.LVL18:
 180              		.loc 1 138 48 view .LVU50
 181 00c8 069F     		ldr	r7, [sp, #24]
 182 00ca BC40     		lsls	r4, r4, r7
 183              	.LVL19:
 184              		.loc 1 138 11 view .LVU51
 185 00cc 42EA0403 		orr	r3, r2, r4
 186              	.LVL20:
 139:Drivers/CMSIS/DSP/Source/FilteringFunctions/arm_biquad_cascade_df1_q31.c **** 
 140:Drivers/CMSIS/DSP/Source/FilteringFunctions/arm_biquad_cascade_df1_q31.c ****       /* Store the output in the destination buffer. */
 141:Drivers/CMSIS/DSP/Source/FilteringFunctions/arm_biquad_cascade_df1_q31.c ****       *pOut++ = Yn2;
 187              		.loc 1 141 7 is_stmt 1 view .LVU52
 188              		.loc 1 141 15 is_stmt 0 view .LVU53
 189 00d0 029A     		ldr	r2, [sp, #8]
 190 00d2 1360     		str	r3, [r2]
 142:Drivers/CMSIS/DSP/Source/FilteringFunctions/arm_biquad_cascade_df1_q31.c **** 
 143:Drivers/CMSIS/DSP/Source/FilteringFunctions/arm_biquad_cascade_df1_q31.c ****       /* Read the second input */
 144:Drivers/CMSIS/DSP/Source/FilteringFunctions/arm_biquad_cascade_df1_q31.c ****       Xn2 = *pIn++;
 191              		.loc 1 144 7 is_stmt 1 view .LVU54
 192              	.LVL21:
 193              		.loc 1 144 11 is_stmt 0 view .LVU55
 194 00d4 039A     		ldr	r2, [sp, #12]
 195 00d6 5268     		ldr	r2, [r2, #4]
 196              	.LVL22:
 145:Drivers/CMSIS/DSP/Source/FilteringFunctions/arm_biquad_cascade_df1_q31.c **** 
 146:Drivers/CMSIS/DSP/Source/FilteringFunctions/arm_biquad_cascade_df1_q31.c ****       /* acc =  b0 * x[n] + b1 * x[n-1] + b2 * x[n-2] + a1 * y[n-1] + a2 * y[n-2] */
 147:Drivers/CMSIS/DSP/Source/FilteringFunctions/arm_biquad_cascade_df1_q31.c **** 
ARM GAS  /var/folders/n6/c271nzx11xl4r4_m7sqjlt0m0000gn/T//ccT0I2Qk.s 			page 7


 148:Drivers/CMSIS/DSP/Source/FilteringFunctions/arm_biquad_cascade_df1_q31.c ****       /* acc =  b0 * x[n] */
 149:Drivers/CMSIS/DSP/Source/FilteringFunctions/arm_biquad_cascade_df1_q31.c ****       acc = (q63_t) b0 *Xn2;
 197              		.loc 1 149 7 is_stmt 1 view .LVU56
 198              		.loc 1 149 24 is_stmt 0 view .LVU57
 199 00d8 D717     		asrs	r7, r2, #31
 200              		.loc 1 149 11 view .LVU58
 201 00da 0F97     		str	r7, [sp, #60]
 202 00dc 0EFB07F7 		mul	r7, lr, r7
 203 00e0 089C     		ldr	r4, [sp, #32]
 204 00e2 02FB0477 		mla	r7, r2, r4, r7
 205 00e6 0792     		str	r2, [sp, #28]
 206 00e8 AEFB02A2 		umull	r10, r2, lr, r2
 207              	.LVL23:
 208              		.loc 1 149 11 view .LVU59
 209 00ec 1744     		add	r7, r7, r2
 210              	.LVL24:
 150:Drivers/CMSIS/DSP/Source/FilteringFunctions/arm_biquad_cascade_df1_q31.c ****       /* acc +=  b1 * x[n-1] */
 151:Drivers/CMSIS/DSP/Source/FilteringFunctions/arm_biquad_cascade_df1_q31.c ****       acc += (q63_t) b1 *Xn;
 211              		.loc 1 151 7 is_stmt 1 view .LVU60
 212              		.loc 1 151 25 is_stmt 0 view .LVU61
 213 00ee 099A     		ldr	r2, [sp, #36]
 214 00f0 06FB02F2 		mul	r2, r6, r2
 215 00f4 0E9C     		ldr	r4, [sp, #56]
 216 00f6 08FB0422 		mla	r2, r8, r4, r2
 217 00fa A6FB0840 		umull	r4, r0, r6, r8
 218              		.loc 1 151 25 view .LVU62
 219 00fe 0244     		add	r2, r2, r0
 220              		.loc 1 151 11 view .LVU63
 221 0100 14EB0A0A 		adds	r10, r4, r10
 222              	.LVL25:
 223              		.loc 1 151 11 view .LVU64
 224 0104 47EB0202 		adc	r2, r7, r2
 225              	.LVL26:
 152:Drivers/CMSIS/DSP/Source/FilteringFunctions/arm_biquad_cascade_df1_q31.c ****       /* acc +=  b[2] * x[n-2] */
 153:Drivers/CMSIS/DSP/Source/FilteringFunctions/arm_biquad_cascade_df1_q31.c ****       acc += (q63_t) b2 *Xn1;
 226              		.loc 1 153 7 is_stmt 1 view .LVU65
 227              		.loc 1 153 25 is_stmt 0 view .LVU66
 228 0108 0A9F     		ldr	r7, [sp, #40]
 229 010a 0598     		ldr	r0, [sp, #20]
 230 010c 00FB07F7 		mul	r7, r0, r7
 231 0110 0BFB0977 		mla	r7, fp, r9, r7
 232 0114 A0FB0B04 		umull	r0, r4, r0, fp
 233 0118 3C44     		add	r4, r4, r7
 234              		.loc 1 153 11 view .LVU67
 235 011a 10EB0A00 		adds	r0, r0, r10
 236 011e 44EB0204 		adc	r4, r4, r2
 237              	.LVL27:
 154:Drivers/CMSIS/DSP/Source/FilteringFunctions/arm_biquad_cascade_df1_q31.c ****       /* acc +=  a1 * y[n-1] */
 155:Drivers/CMSIS/DSP/Source/FilteringFunctions/arm_biquad_cascade_df1_q31.c ****       acc += (q63_t) a1 *Yn2;
 238              		.loc 1 155 7 is_stmt 1 view .LVU68
 239              		.loc 1 155 25 is_stmt 0 view .LVU69
 240 0122 DF17     		asrs	r7, r3, #31
 241 0124 3A46     		mov	r2, r7
 242 0126 009F     		ldr	r7, [sp]
 243 0128 0592     		str	r2, [sp, #20]
 244              	.LVL28:
 245              		.loc 1 155 25 view .LVU70
ARM GAS  /var/folders/n6/c271nzx11xl4r4_m7sqjlt0m0000gn/T//ccT0I2Qk.s 			page 8


 246 012a 02FB07F7 		mul	r7, r2, r7
 247 012e 0B9A     		ldr	r2, [sp, #44]
 248 0130 03FB0277 		mla	r7, r3, r2, r7
 249 0134 009A     		ldr	r2, [sp]
 250 0136 A2FB039A 		umull	r9, r10, r2, r3
 251 013a 5744     		add	r7, r7, r10
 252              		.loc 1 155 11 view .LVU71
 253 013c 19EB0009 		adds	r9, r9, r0
 254 0140 47EB0407 		adc	r7, r7, r4
 255              	.LVL29:
 156:Drivers/CMSIS/DSP/Source/FilteringFunctions/arm_biquad_cascade_df1_q31.c ****       /* acc +=  a2 * y[n-2] */
 157:Drivers/CMSIS/DSP/Source/FilteringFunctions/arm_biquad_cascade_df1_q31.c ****       acc += (q63_t) a2 *Yn1;
 256              		.loc 1 157 7 is_stmt 1 view .LVU72
 257              		.loc 1 157 25 is_stmt 0 view .LVU73
 258 0144 0C9C     		ldr	r4, [sp, #48]
 259 0146 01FB04F0 		mul	r0, r1, r4
 260 014a 019C     		ldr	r4, [sp, #4]
 261 014c 04FB0C00 		mla	r0, r4, ip, r0
 262 0150 A1FB0414 		umull	r1, r4, r1, r4
 263              	.LVL30:
 264              		.loc 1 157 25 view .LVU74
 265 0154 2044     		add	r0, r0, r4
 266              		.loc 1 157 11 view .LVU75
 267 0156 11EB0901 		adds	r1, r1, r9
 268 015a 40EB0700 		adc	r0, r0, r7
 269              	.LVL31:
 158:Drivers/CMSIS/DSP/Source/FilteringFunctions/arm_biquad_cascade_df1_q31.c **** 
 159:Drivers/CMSIS/DSP/Source/FilteringFunctions/arm_biquad_cascade_df1_q31.c **** 
 160:Drivers/CMSIS/DSP/Source/FilteringFunctions/arm_biquad_cascade_df1_q31.c ****       /* The result is converted to 1.31, Yn1 variable is reused  */
 161:Drivers/CMSIS/DSP/Source/FilteringFunctions/arm_biquad_cascade_df1_q31.c **** 
 162:Drivers/CMSIS/DSP/Source/FilteringFunctions/arm_biquad_cascade_df1_q31.c ****       /* Calc lower part of acc */
 163:Drivers/CMSIS/DSP/Source/FilteringFunctions/arm_biquad_cascade_df1_q31.c ****       acc_l = acc & 0xffffffff;
 270              		.loc 1 163 7 is_stmt 1 view .LVU76
 164:Drivers/CMSIS/DSP/Source/FilteringFunctions/arm_biquad_cascade_df1_q31.c **** 
 165:Drivers/CMSIS/DSP/Source/FilteringFunctions/arm_biquad_cascade_df1_q31.c ****       /* Calc upper part of acc */
 166:Drivers/CMSIS/DSP/Source/FilteringFunctions/arm_biquad_cascade_df1_q31.c ****       acc_h = (acc >> 32) & 0xffffffff;
 271              		.loc 1 166 7 view .LVU77
 167:Drivers/CMSIS/DSP/Source/FilteringFunctions/arm_biquad_cascade_df1_q31.c **** 
 168:Drivers/CMSIS/DSP/Source/FilteringFunctions/arm_biquad_cascade_df1_q31.c **** 
 169:Drivers/CMSIS/DSP/Source/FilteringFunctions/arm_biquad_cascade_df1_q31.c ****       /* Apply shift for lower part of acc and upper part of acc */
 170:Drivers/CMSIS/DSP/Source/FilteringFunctions/arm_biquad_cascade_df1_q31.c ****       Yn1 = (uint32_t) acc_l >> lShift | acc_h << uShift;
 272              		.loc 1 170 7 view .LVU78
 273              		.loc 1 170 30 is_stmt 0 view .LVU79
 274 015e E940     		lsrs	r1, r1, r5
 275              	.LVL32:
 276              		.loc 1 170 48 view .LVU80
 277 0160 069F     		ldr	r7, [sp, #24]
 278 0162 B840     		lsls	r0, r0, r7
 279              	.LVL33:
 280              		.loc 1 170 11 view .LVU81
 281 0164 0143     		orrs	r1, r1, r0
 282              	.LVL34:
 171:Drivers/CMSIS/DSP/Source/FilteringFunctions/arm_biquad_cascade_df1_q31.c **** 
 172:Drivers/CMSIS/DSP/Source/FilteringFunctions/arm_biquad_cascade_df1_q31.c ****       /* Store the output in the destination buffer. */
 173:Drivers/CMSIS/DSP/Source/FilteringFunctions/arm_biquad_cascade_df1_q31.c ****       *pOut++ = Yn1;
 283              		.loc 1 173 7 is_stmt 1 view .LVU82
 284              		.loc 1 173 15 is_stmt 0 view .LVU83
ARM GAS  /var/folders/n6/c271nzx11xl4r4_m7sqjlt0m0000gn/T//ccT0I2Qk.s 			page 9


 285 0166 0298     		ldr	r0, [sp, #8]
 286 0168 4160     		str	r1, [r0, #4]
 287              	.LVL35:
 174:Drivers/CMSIS/DSP/Source/FilteringFunctions/arm_biquad_cascade_df1_q31.c **** 
 175:Drivers/CMSIS/DSP/Source/FilteringFunctions/arm_biquad_cascade_df1_q31.c ****       /* Read the third input  */
 176:Drivers/CMSIS/DSP/Source/FilteringFunctions/arm_biquad_cascade_df1_q31.c ****       Xn1 = *pIn++;
 288              		.loc 1 176 7 is_stmt 1 view .LVU84
 289              		.loc 1 176 11 is_stmt 0 view .LVU85
 290 016a 0398     		ldr	r0, [sp, #12]
 291 016c 8468     		ldr	r4, [r0, #8]
 292              	.LVL36:
 177:Drivers/CMSIS/DSP/Source/FilteringFunctions/arm_biquad_cascade_df1_q31.c **** 
 178:Drivers/CMSIS/DSP/Source/FilteringFunctions/arm_biquad_cascade_df1_q31.c ****       /* acc =  b0 * x[n] + b1 * x[n-1] + b2 * x[n-2] + a1 * y[n-1] + a2 * y[n-2] */
 179:Drivers/CMSIS/DSP/Source/FilteringFunctions/arm_biquad_cascade_df1_q31.c **** 
 180:Drivers/CMSIS/DSP/Source/FilteringFunctions/arm_biquad_cascade_df1_q31.c ****       /* acc =  b0 * x[n] */
 181:Drivers/CMSIS/DSP/Source/FilteringFunctions/arm_biquad_cascade_df1_q31.c ****       acc = (q63_t) b0 *Xn1;
 293              		.loc 1 181 7 is_stmt 1 view .LVU86
 294              		.loc 1 181 24 is_stmt 0 view .LVU87
 295 016e 4FEAE47C 		asr	ip, r4, #31
 296              		.loc 1 181 11 view .LVU88
 297 0172 0EFB0CF9 		mul	r9, lr, ip
 298 0176 089F     		ldr	r7, [sp, #32]
 299 0178 04FB0799 		mla	r9, r4, r7, r9
 300 017c AEFB04A0 		umull	r10, r0, lr, r4
 301 0180 5246     		mov	r2, r10
 302 0182 8144     		add	r9, r9, r0
 303              	.LVL37:
 182:Drivers/CMSIS/DSP/Source/FilteringFunctions/arm_biquad_cascade_df1_q31.c ****       /* acc +=  b1 * x[n-1] */
 183:Drivers/CMSIS/DSP/Source/FilteringFunctions/arm_biquad_cascade_df1_q31.c ****       acc += (q63_t) b1 *Xn2;
 304              		.loc 1 183 7 is_stmt 1 view .LVU89
 305              		.loc 1 183 25 is_stmt 0 view .LVU90
 306 0184 0F98     		ldr	r0, [sp, #60]
 307 0186 08FB00FA 		mul	r10, r8, r0
 308 018a 099F     		ldr	r7, [sp, #36]
 309 018c 079D     		ldr	r5, [sp, #28]
 310 018e 05FB07AA 		mla	r10, r5, r7, r10
 311 0192 A8FB0507 		umull	r0, r7, r8, r5
 312 0196 5744     		add	r7, r7, r10
 313              		.loc 1 183 11 view .LVU91
 314 0198 8018     		adds	r0, r0, r2
 315              		.loc 1 183 11 view .LVU92
 316 019a 49EB0707 		adc	r7, r9, r7
 317              	.LVL38:
 184:Drivers/CMSIS/DSP/Source/FilteringFunctions/arm_biquad_cascade_df1_q31.c ****       /* acc +=  b[2] * x[n-2] */
 185:Drivers/CMSIS/DSP/Source/FilteringFunctions/arm_biquad_cascade_df1_q31.c ****       acc += (q63_t) b2 *Xn;
 318              		.loc 1 185 7 is_stmt 1 view .LVU93
 319              		.loc 1 185 25 is_stmt 0 view .LVU94
 320 019e 0A9A     		ldr	r2, [sp, #40]
 321 01a0 06FB02F9 		mul	r9, r6, r2
 322 01a4 0E9D     		ldr	r5, [sp, #56]
 323 01a6 0BFB0599 		mla	r9, fp, r5, r9
 324 01aa A6FB0BA6 		umull	r10, r6, r6, fp
 325              	.LVL39:
 326              		.loc 1 185 25 view .LVU95
 327 01ae 4E44     		add	r6, r6, r9
 328              		.loc 1 185 11 view .LVU96
 329 01b0 1AEB000A 		adds	r10, r10, r0
ARM GAS  /var/folders/n6/c271nzx11xl4r4_m7sqjlt0m0000gn/T//ccT0I2Qk.s 			page 10


 330 01b4 46EB0706 		adc	r6, r6, r7
 331              	.LVL40:
 186:Drivers/CMSIS/DSP/Source/FilteringFunctions/arm_biquad_cascade_df1_q31.c ****       /* acc +=  a1 * y[n-1] */
 187:Drivers/CMSIS/DSP/Source/FilteringFunctions/arm_biquad_cascade_df1_q31.c ****       acc += (q63_t) a1 *Yn1;
 332              		.loc 1 187 7 is_stmt 1 view .LVU97
 333              		.loc 1 187 25 is_stmt 0 view .LVU98
 334 01b8 CF17     		asrs	r7, r1, #31
 335 01ba 009D     		ldr	r5, [sp]
 336 01bc 05FB07F0 		mul	r0, r5, r7
 337 01c0 0B9A     		ldr	r2, [sp, #44]
 338 01c2 01FB0200 		mla	r0, r1, r2, r0
 339 01c6 A5FB0195 		umull	r9, r5, r5, r1
 340 01ca 2844     		add	r0, r0, r5
 341              		.loc 1 187 11 view .LVU99
 342 01cc 19EB0A09 		adds	r9, r9, r10
 343 01d0 40EB0600 		adc	r0, r0, r6
 344              	.LVL41:
 188:Drivers/CMSIS/DSP/Source/FilteringFunctions/arm_biquad_cascade_df1_q31.c ****       /* acc +=  a2 * y[n-2] */
 189:Drivers/CMSIS/DSP/Source/FilteringFunctions/arm_biquad_cascade_df1_q31.c ****       acc += (q63_t) a2 *Yn2;
 345              		.loc 1 189 7 is_stmt 1 view .LVU100
 346              		.loc 1 189 25 is_stmt 0 view .LVU101
 347 01d4 019E     		ldr	r6, [sp, #4]
 348 01d6 059A     		ldr	r2, [sp, #20]
 349 01d8 06FB02F2 		mul	r2, r6, r2
 350 01dc 0C9D     		ldr	r5, [sp, #48]
 351 01de 03FB0522 		mla	r2, r3, r5, r2
 352 01e2 A6FB0336 		umull	r3, r6, r6, r3
 353              	.LVL42:
 354              		.loc 1 189 25 view .LVU102
 355 01e6 3244     		add	r2, r2, r6
 356              		.loc 1 189 11 view .LVU103
 357 01e8 13EB0903 		adds	r3, r3, r9
 358 01ec 42EB0002 		adc	r2, r2, r0
 359              	.LVL43:
 190:Drivers/CMSIS/DSP/Source/FilteringFunctions/arm_biquad_cascade_df1_q31.c **** 
 191:Drivers/CMSIS/DSP/Source/FilteringFunctions/arm_biquad_cascade_df1_q31.c ****       /* The result is converted to 1.31, Yn2 variable is reused  */
 192:Drivers/CMSIS/DSP/Source/FilteringFunctions/arm_biquad_cascade_df1_q31.c ****       /* Calc lower part of acc */
 193:Drivers/CMSIS/DSP/Source/FilteringFunctions/arm_biquad_cascade_df1_q31.c ****       acc_l = acc & 0xffffffff;
 360              		.loc 1 193 7 is_stmt 1 view .LVU104
 194:Drivers/CMSIS/DSP/Source/FilteringFunctions/arm_biquad_cascade_df1_q31.c **** 
 195:Drivers/CMSIS/DSP/Source/FilteringFunctions/arm_biquad_cascade_df1_q31.c ****       /* Calc upper part of acc */
 196:Drivers/CMSIS/DSP/Source/FilteringFunctions/arm_biquad_cascade_df1_q31.c ****       acc_h = (acc >> 32) & 0xffffffff;
 361              		.loc 1 196 7 view .LVU105
 197:Drivers/CMSIS/DSP/Source/FilteringFunctions/arm_biquad_cascade_df1_q31.c **** 
 198:Drivers/CMSIS/DSP/Source/FilteringFunctions/arm_biquad_cascade_df1_q31.c **** 
 199:Drivers/CMSIS/DSP/Source/FilteringFunctions/arm_biquad_cascade_df1_q31.c ****       /* Apply shift for lower part of acc and upper part of acc */
 200:Drivers/CMSIS/DSP/Source/FilteringFunctions/arm_biquad_cascade_df1_q31.c ****       Yn2 = (uint32_t) acc_l >> lShift | acc_h << uShift;
 362              		.loc 1 200 7 view .LVU106
 363              		.loc 1 200 30 is_stmt 0 view .LVU107
 364 01f0 049D     		ldr	r5, [sp, #16]
 365 01f2 EB40     		lsrs	r3, r3, r5
 366              	.LVL44:
 367              		.loc 1 200 48 view .LVU108
 368 01f4 069D     		ldr	r5, [sp, #24]
 369 01f6 AA40     		lsls	r2, r2, r5
 370              	.LVL45:
 371              		.loc 1 200 11 view .LVU109
ARM GAS  /var/folders/n6/c271nzx11xl4r4_m7sqjlt0m0000gn/T//ccT0I2Qk.s 			page 11


 372 01f8 1A43     		orrs	r2, r2, r3
 373              	.LVL46:
 201:Drivers/CMSIS/DSP/Source/FilteringFunctions/arm_biquad_cascade_df1_q31.c **** 
 202:Drivers/CMSIS/DSP/Source/FilteringFunctions/arm_biquad_cascade_df1_q31.c ****       /* Store the output in the destination buffer. */
 203:Drivers/CMSIS/DSP/Source/FilteringFunctions/arm_biquad_cascade_df1_q31.c ****       *pOut++ = Yn2;
 374              		.loc 1 203 7 is_stmt 1 view .LVU110
 375              		.loc 1 203 15 is_stmt 0 view .LVU111
 376 01fa 029B     		ldr	r3, [sp, #8]
 377 01fc 9A60     		str	r2, [r3, #8]
 204:Drivers/CMSIS/DSP/Source/FilteringFunctions/arm_biquad_cascade_df1_q31.c **** 
 205:Drivers/CMSIS/DSP/Source/FilteringFunctions/arm_biquad_cascade_df1_q31.c ****       /* Read the forth input */
 206:Drivers/CMSIS/DSP/Source/FilteringFunctions/arm_biquad_cascade_df1_q31.c ****       Xn = *pIn++;
 378              		.loc 1 206 7 is_stmt 1 view .LVU112
 379              	.LVL47:
 380              		.loc 1 206 10 is_stmt 0 view .LVU113
 381 01fe 039B     		ldr	r3, [sp, #12]
 382 0200 D868     		ldr	r0, [r3, #12]
 383              	.LVL48:
 384              		.loc 1 206 10 view .LVU114
 385 0202 0590     		str	r0, [sp, #20]
 386              	.LVL49:
 207:Drivers/CMSIS/DSP/Source/FilteringFunctions/arm_biquad_cascade_df1_q31.c **** 
 208:Drivers/CMSIS/DSP/Source/FilteringFunctions/arm_biquad_cascade_df1_q31.c ****       /* acc =  b0 * x[n] + b1 * x[n-1] + b2 * x[n-2] + a1 * y[n-1] + a2 * y[n-2] */
 209:Drivers/CMSIS/DSP/Source/FilteringFunctions/arm_biquad_cascade_df1_q31.c **** 
 210:Drivers/CMSIS/DSP/Source/FilteringFunctions/arm_biquad_cascade_df1_q31.c ****       /* acc =  b0 * x[n] */
 211:Drivers/CMSIS/DSP/Source/FilteringFunctions/arm_biquad_cascade_df1_q31.c ****       acc = (q63_t) b0 *Xn;
 387              		.loc 1 211 7 is_stmt 1 view .LVU115
 388              		.loc 1 211 24 is_stmt 0 view .LVU116
 389 0204 C317     		asrs	r3, r0, #31
 390              		.loc 1 211 11 view .LVU117
 391 0206 0EFB03F3 		mul	r3, lr, r3
 392 020a 089E     		ldr	r6, [sp, #32]
 393              		.loc 1 211 11 view .LVU118
 394 020c 00FB0633 		mla	r3, r0, r6, r3
 395 0210 AEFB0096 		umull	r9, r6, lr, r0
 396              	.LVL50:
 397              		.loc 1 211 11 view .LVU119
 398 0214 3344     		add	r3, r3, r6
 399              	.LVL51:
 212:Drivers/CMSIS/DSP/Source/FilteringFunctions/arm_biquad_cascade_df1_q31.c ****       /* acc +=  b1 * x[n-1] */
 213:Drivers/CMSIS/DSP/Source/FilteringFunctions/arm_biquad_cascade_df1_q31.c ****       acc += (q63_t) b1 *Xn1;
 400              		.loc 1 213 7 is_stmt 1 view .LVU120
 401              		.loc 1 213 25 is_stmt 0 view .LVU121
 402 0216 08FB0CFC 		mul	ip, r8, ip
 403 021a 099E     		ldr	r6, [sp, #36]
 404 021c 04FB06CC 		mla	ip, r4, r6, ip
 405 0220 A8FB046A 		umull	r6, r10, r8, r4
 406              	.LVL52:
 407              		.loc 1 213 25 view .LVU122
 408 0224 E244     		add	r10, r10, ip
 409              		.loc 1 213 11 view .LVU123
 410 0226 16EB0906 		adds	r6, r6, r9
 411              		.loc 1 213 11 view .LVU124
 412 022a 43EB0A0A 		adc	r10, r3, r10
 413              	.LVL53:
 214:Drivers/CMSIS/DSP/Source/FilteringFunctions/arm_biquad_cascade_df1_q31.c ****       /* acc +=  b[2] * x[n-2] */
 215:Drivers/CMSIS/DSP/Source/FilteringFunctions/arm_biquad_cascade_df1_q31.c ****       acc += (q63_t) b2 *Xn2;
ARM GAS  /var/folders/n6/c271nzx11xl4r4_m7sqjlt0m0000gn/T//ccT0I2Qk.s 			page 12


 414              		.loc 1 215 7 is_stmt 1 view .LVU125
 415              		.loc 1 215 25 is_stmt 0 view .LVU126
 416 022e 0F9B     		ldr	r3, [sp, #60]
 417 0230 0BFB03F3 		mul	r3, fp, r3
 418 0234 0A98     		ldr	r0, [sp, #40]
 419              	.LVL54:
 420              		.loc 1 215 25 view .LVU127
 421 0236 079D     		ldr	r5, [sp, #28]
 422 0238 05FB0033 		mla	r3, r5, r0, r3
 423 023c ABFB05C5 		umull	ip, r5, fp, r5
 424 0240 1D44     		add	r5, r5, r3
 425              		.loc 1 215 11 view .LVU128
 426 0242 1CEB060C 		adds	ip, ip, r6
 427 0246 45EB0A05 		adc	r5, r5, r10
 428              	.LVL55:
 216:Drivers/CMSIS/DSP/Source/FilteringFunctions/arm_biquad_cascade_df1_q31.c ****       /* acc +=  a1 * y[n-1] */
 217:Drivers/CMSIS/DSP/Source/FilteringFunctions/arm_biquad_cascade_df1_q31.c ****       acc += (q63_t) a1 *Yn2;
 429              		.loc 1 217 7 is_stmt 1 view .LVU129
 430              		.loc 1 217 25 is_stmt 0 view .LVU130
 431 024a D617     		asrs	r6, r2, #31
 432 024c 0B98     		ldr	r0, [sp, #44]
 433 024e 02FB00F3 		mul	r3, r2, r0
 434 0252 0098     		ldr	r0, [sp]
 435 0254 00FB0633 		mla	r3, r0, r6, r3
 436 0258 A2FB0069 		umull	r6, r9, r2, r0
 437 025c 4B44     		add	r3, r3, r9
 438              		.loc 1 217 11 view .LVU131
 439 025e 16EB0C06 		adds	r6, r6, ip
 440 0262 43EB0503 		adc	r3, r3, r5
 441              	.LVL56:
 218:Drivers/CMSIS/DSP/Source/FilteringFunctions/arm_biquad_cascade_df1_q31.c ****       /* acc +=  a2 * y[n-2] */
 219:Drivers/CMSIS/DSP/Source/FilteringFunctions/arm_biquad_cascade_df1_q31.c ****       acc += (q63_t) a2 *Yn1;
 442              		.loc 1 219 7 is_stmt 1 view .LVU132
 443              		.loc 1 219 25 is_stmt 0 view .LVU133
 444 0266 0198     		ldr	r0, [sp, #4]
 445 0268 00FB07F7 		mul	r7, r0, r7
 446 026c 0C9D     		ldr	r5, [sp, #48]
 447 026e 01FB0577 		mla	r7, r1, r5, r7
 448 0272 A0FB0115 		umull	r1, r5, r0, r1
 449              	.LVL57:
 450              		.loc 1 219 25 view .LVU134
 451 0276 2F44     		add	r7, r7, r5
 452              		.loc 1 219 11 view .LVU135
 453 0278 8919     		adds	r1, r1, r6
 454 027a 47EB0307 		adc	r7, r7, r3
 455              	.LVL58:
 220:Drivers/CMSIS/DSP/Source/FilteringFunctions/arm_biquad_cascade_df1_q31.c **** 
 221:Drivers/CMSIS/DSP/Source/FilteringFunctions/arm_biquad_cascade_df1_q31.c ****       /* The result is converted to 1.31, Yn1 variable is reused  */
 222:Drivers/CMSIS/DSP/Source/FilteringFunctions/arm_biquad_cascade_df1_q31.c ****       /* Calc lower part of acc */
 223:Drivers/CMSIS/DSP/Source/FilteringFunctions/arm_biquad_cascade_df1_q31.c ****       acc_l = acc & 0xffffffff;
 456              		.loc 1 223 7 is_stmt 1 view .LVU136
 224:Drivers/CMSIS/DSP/Source/FilteringFunctions/arm_biquad_cascade_df1_q31.c **** 
 225:Drivers/CMSIS/DSP/Source/FilteringFunctions/arm_biquad_cascade_df1_q31.c ****       /* Calc upper part of acc */
 226:Drivers/CMSIS/DSP/Source/FilteringFunctions/arm_biquad_cascade_df1_q31.c ****       acc_h = (acc >> 32) & 0xffffffff;
 457              		.loc 1 226 7 view .LVU137
 227:Drivers/CMSIS/DSP/Source/FilteringFunctions/arm_biquad_cascade_df1_q31.c **** 
 228:Drivers/CMSIS/DSP/Source/FilteringFunctions/arm_biquad_cascade_df1_q31.c ****       /* Apply shift for lower part of acc and upper part of acc */
ARM GAS  /var/folders/n6/c271nzx11xl4r4_m7sqjlt0m0000gn/T//ccT0I2Qk.s 			page 13


 229:Drivers/CMSIS/DSP/Source/FilteringFunctions/arm_biquad_cascade_df1_q31.c ****       Yn1 = (uint32_t) acc_l >> lShift | acc_h << uShift;
 458              		.loc 1 229 7 view .LVU138
 459              		.loc 1 229 30 is_stmt 0 view .LVU139
 460 027e 049E     		ldr	r6, [sp, #16]
 461 0280 F140     		lsrs	r1, r1, r6
 462              	.LVL59:
 463              		.loc 1 229 48 view .LVU140
 464 0282 069E     		ldr	r6, [sp, #24]
 465 0284 B740     		lsls	r7, r7, r6
 466              	.LVL60:
 467              		.loc 1 229 11 view .LVU141
 468 0286 3943     		orrs	r1, r1, r7
 469              	.LVL61:
 230:Drivers/CMSIS/DSP/Source/FilteringFunctions/arm_biquad_cascade_df1_q31.c **** 
 231:Drivers/CMSIS/DSP/Source/FilteringFunctions/arm_biquad_cascade_df1_q31.c ****       /* Every time after the output is computed state should be updated. */
 232:Drivers/CMSIS/DSP/Source/FilteringFunctions/arm_biquad_cascade_df1_q31.c ****       /* The states should be updated as:  */
 233:Drivers/CMSIS/DSP/Source/FilteringFunctions/arm_biquad_cascade_df1_q31.c ****       /* Xn2 = Xn1    */
 234:Drivers/CMSIS/DSP/Source/FilteringFunctions/arm_biquad_cascade_df1_q31.c ****       /* Xn1 = Xn     */
 235:Drivers/CMSIS/DSP/Source/FilteringFunctions/arm_biquad_cascade_df1_q31.c ****       /* Yn2 = Yn1    */
 236:Drivers/CMSIS/DSP/Source/FilteringFunctions/arm_biquad_cascade_df1_q31.c ****       /* Yn1 = acc    */
 237:Drivers/CMSIS/DSP/Source/FilteringFunctions/arm_biquad_cascade_df1_q31.c ****       Xn2 = Xn1;
 470              		.loc 1 237 7 is_stmt 1 view .LVU142
 238:Drivers/CMSIS/DSP/Source/FilteringFunctions/arm_biquad_cascade_df1_q31.c ****       Xn1 = Xn;
 471              		.loc 1 238 7 view .LVU143
 239:Drivers/CMSIS/DSP/Source/FilteringFunctions/arm_biquad_cascade_df1_q31.c **** 
 240:Drivers/CMSIS/DSP/Source/FilteringFunctions/arm_biquad_cascade_df1_q31.c ****       /* Store the output in the destination buffer. */
 241:Drivers/CMSIS/DSP/Source/FilteringFunctions/arm_biquad_cascade_df1_q31.c ****       *pOut++ = Yn1;
 472              		.loc 1 241 7 view .LVU144
 473              		.loc 1 241 15 is_stmt 0 view .LVU145
 474 0288 029D     		ldr	r5, [sp, #8]
 475              	.LVL62:
 476              		.loc 1 241 15 view .LVU146
 477 028a E960     		str	r1, [r5, #12]
 242:Drivers/CMSIS/DSP/Source/FilteringFunctions/arm_biquad_cascade_df1_q31.c **** 
 243:Drivers/CMSIS/DSP/Source/FilteringFunctions/arm_biquad_cascade_df1_q31.c ****       /* decrement the loop counter */
 244:Drivers/CMSIS/DSP/Source/FilteringFunctions/arm_biquad_cascade_df1_q31.c ****       sample--;
 478              		.loc 1 244 7 is_stmt 1 view .LVU147
 479              		.loc 1 244 13 is_stmt 0 view .LVU148
 480 028c 0D9E     		ldr	r6, [sp, #52]
 481 028e 013E     		subs	r6, r6, #1
 482 0290 0D96     		str	r6, [sp, #52]
 483              	.LVL63:
 241:Drivers/CMSIS/DSP/Source/FilteringFunctions/arm_biquad_cascade_df1_q31.c **** 
 484              		.loc 1 241 12 view .LVU149
 485 0292 1035     		adds	r5, r5, #16
 486              	.LVL64:
 241:Drivers/CMSIS/DSP/Source/FilteringFunctions/arm_biquad_cascade_df1_q31.c **** 
 487              		.loc 1 241 12 view .LVU150
 488 0294 0295     		str	r5, [sp, #8]
 489              	.LVL65:
 206:Drivers/CMSIS/DSP/Source/FilteringFunctions/arm_biquad_cascade_df1_q31.c **** 
 490              		.loc 1 206 16 view .LVU151
 491 0296 039B     		ldr	r3, [sp, #12]
 492              	.LVL66:
 206:Drivers/CMSIS/DSP/Source/FilteringFunctions/arm_biquad_cascade_df1_q31.c **** 
 493              		.loc 1 206 16 view .LVU152
 494 0298 1033     		adds	r3, r3, #16
ARM GAS  /var/folders/n6/c271nzx11xl4r4_m7sqjlt0m0000gn/T//ccT0I2Qk.s 			page 14


 495              	.LVL67:
 206:Drivers/CMSIS/DSP/Source/FilteringFunctions/arm_biquad_cascade_df1_q31.c **** 
 496              		.loc 1 206 16 view .LVU153
 497 029a 0393     		str	r3, [sp, #12]
 498              	.LVL68:
 499              	.L2:
 111:Drivers/CMSIS/DSP/Source/FilteringFunctions/arm_biquad_cascade_df1_q31.c ****     {
 500              		.loc 1 111 19 is_stmt 1 view .LVU154
 501 029c 0D9B     		ldr	r3, [sp, #52]
 502 029e 002B     		cmp	r3, #0
 503 02a0 7FF4C5AE 		bne	.L3
 245:Drivers/CMSIS/DSP/Source/FilteringFunctions/arm_biquad_cascade_df1_q31.c ****     }
 246:Drivers/CMSIS/DSP/Source/FilteringFunctions/arm_biquad_cascade_df1_q31.c **** 
 247:Drivers/CMSIS/DSP/Source/FilteringFunctions/arm_biquad_cascade_df1_q31.c ****     /* If the blockSize is not a multiple of 4, compute any remaining output samples here.
 248:Drivers/CMSIS/DSP/Source/FilteringFunctions/arm_biquad_cascade_df1_q31.c ****      ** No loop unrolling is used. */
 249:Drivers/CMSIS/DSP/Source/FilteringFunctions/arm_biquad_cascade_df1_q31.c ****     sample = (blockSize & 0x3U);
 504              		.loc 1 249 12 is_stmt 0 view .LVU155
 505 02a4 139F     		ldr	r7, [sp, #76]
 506 02a6 149E     		ldr	r6, [sp, #80]
 507 02a8 DDF81490 		ldr	r9, [sp, #20]
 508 02ac 2346     		mov	r3, r4
 509 02ae 8A46     		mov	r10, r1
 510              		.loc 1 249 5 is_stmt 1 view .LVU156
 511              		.loc 1 249 12 is_stmt 0 view .LVU157
 512 02b0 1099     		ldr	r1, [sp, #64]
 513              	.LVL69:
 514              		.loc 1 249 12 view .LVU158
 515 02b2 01F0030C 		and	ip, r1, #3
 516              	.LVL70:
 250:Drivers/CMSIS/DSP/Source/FilteringFunctions/arm_biquad_cascade_df1_q31.c **** 
 251:Drivers/CMSIS/DSP/Source/FilteringFunctions/arm_biquad_cascade_df1_q31.c ****     while (sample > 0U)
 517              		.loc 1 251 5 is_stmt 1 view .LVU159
 518 02b6 0597     		str	r7, [sp, #20]
 519              	.LVL71:
 520              		.loc 1 251 5 is_stmt 0 view .LVU160
 521 02b8 0796     		str	r6, [sp, #28]
 522 02ba DDF848B0 		ldr	fp, [sp, #72]
 523              	.LVL72:
 524              		.loc 1 251 5 view .LVU161
 525 02be 019F     		ldr	r7, [sp, #4]
 526 02c0 0399     		ldr	r1, [sp, #12]
 527              		.loc 1 251 11 view .LVU162
 528 02c2 0AE0     		b	.L4
 529              	.LVL73:
 530              	.L5:
 252:Drivers/CMSIS/DSP/Source/FilteringFunctions/arm_biquad_cascade_df1_q31.c ****     {
 253:Drivers/CMSIS/DSP/Source/FilteringFunctions/arm_biquad_cascade_df1_q31.c ****       /* Read the input */
 254:Drivers/CMSIS/DSP/Source/FilteringFunctions/arm_biquad_cascade_df1_q31.c ****       Xn = *pIn++;
 255:Drivers/CMSIS/DSP/Source/FilteringFunctions/arm_biquad_cascade_df1_q31.c **** 
 256:Drivers/CMSIS/DSP/Source/FilteringFunctions/arm_biquad_cascade_df1_q31.c ****       /* acc =  b0 * x[n] + b1 * x[n-1] + b2 * x[n-2] + a1 * y[n-1] + a2 * y[n-2] */
 257:Drivers/CMSIS/DSP/Source/FilteringFunctions/arm_biquad_cascade_df1_q31.c **** 
 258:Drivers/CMSIS/DSP/Source/FilteringFunctions/arm_biquad_cascade_df1_q31.c ****       /* acc =  b0 * x[n] */
 259:Drivers/CMSIS/DSP/Source/FilteringFunctions/arm_biquad_cascade_df1_q31.c ****       acc = (q63_t) b0 *Xn;
 260:Drivers/CMSIS/DSP/Source/FilteringFunctions/arm_biquad_cascade_df1_q31.c ****       /* acc +=  b1 * x[n-1] */
 261:Drivers/CMSIS/DSP/Source/FilteringFunctions/arm_biquad_cascade_df1_q31.c ****       acc += (q63_t) b1 *Xn1;
 262:Drivers/CMSIS/DSP/Source/FilteringFunctions/arm_biquad_cascade_df1_q31.c ****       /* acc +=  b[2] * x[n-2] */
 263:Drivers/CMSIS/DSP/Source/FilteringFunctions/arm_biquad_cascade_df1_q31.c ****       acc += (q63_t) b2 *Xn2;
ARM GAS  /var/folders/n6/c271nzx11xl4r4_m7sqjlt0m0000gn/T//ccT0I2Qk.s 			page 15


 264:Drivers/CMSIS/DSP/Source/FilteringFunctions/arm_biquad_cascade_df1_q31.c ****       /* acc +=  a1 * y[n-1] */
 265:Drivers/CMSIS/DSP/Source/FilteringFunctions/arm_biquad_cascade_df1_q31.c ****       acc += (q63_t) a1 *Yn1;
 266:Drivers/CMSIS/DSP/Source/FilteringFunctions/arm_biquad_cascade_df1_q31.c ****       /* acc +=  a2 * y[n-2] */
 267:Drivers/CMSIS/DSP/Source/FilteringFunctions/arm_biquad_cascade_df1_q31.c ****       acc += (q63_t) a2 *Yn2;
 268:Drivers/CMSIS/DSP/Source/FilteringFunctions/arm_biquad_cascade_df1_q31.c **** 
 269:Drivers/CMSIS/DSP/Source/FilteringFunctions/arm_biquad_cascade_df1_q31.c ****       /* The result is converted to 1.31  */
 270:Drivers/CMSIS/DSP/Source/FilteringFunctions/arm_biquad_cascade_df1_q31.c ****       acc = acc >> lShift;
 271:Drivers/CMSIS/DSP/Source/FilteringFunctions/arm_biquad_cascade_df1_q31.c **** 
 272:Drivers/CMSIS/DSP/Source/FilteringFunctions/arm_biquad_cascade_df1_q31.c ****       /* Every time after the output is computed state should be updated. */
 273:Drivers/CMSIS/DSP/Source/FilteringFunctions/arm_biquad_cascade_df1_q31.c ****       /* The states should be updated as:  */
 274:Drivers/CMSIS/DSP/Source/FilteringFunctions/arm_biquad_cascade_df1_q31.c ****       /* Xn2 = Xn1    */
 275:Drivers/CMSIS/DSP/Source/FilteringFunctions/arm_biquad_cascade_df1_q31.c ****       /* Xn1 = Xn     */
 276:Drivers/CMSIS/DSP/Source/FilteringFunctions/arm_biquad_cascade_df1_q31.c ****       /* Yn2 = Yn1    */
 277:Drivers/CMSIS/DSP/Source/FilteringFunctions/arm_biquad_cascade_df1_q31.c ****       /* Yn1 = acc    */
 278:Drivers/CMSIS/DSP/Source/FilteringFunctions/arm_biquad_cascade_df1_q31.c ****       Xn2 = Xn1;
 531              		.loc 1 278 7 is_stmt 1 view .LVU163
 279:Drivers/CMSIS/DSP/Source/FilteringFunctions/arm_biquad_cascade_df1_q31.c ****       Xn1 = Xn;
 532              		.loc 1 279 7 view .LVU164
 280:Drivers/CMSIS/DSP/Source/FilteringFunctions/arm_biquad_cascade_df1_q31.c ****       Yn2 = Yn1;
 533              		.loc 1 280 7 view .LVU165
 281:Drivers/CMSIS/DSP/Source/FilteringFunctions/arm_biquad_cascade_df1_q31.c ****       Yn1 = (q31_t) acc;
 534              		.loc 1 281 7 view .LVU166
 282:Drivers/CMSIS/DSP/Source/FilteringFunctions/arm_biquad_cascade_df1_q31.c **** 
 283:Drivers/CMSIS/DSP/Source/FilteringFunctions/arm_biquad_cascade_df1_q31.c ****       /* Store the output in the destination buffer. */
 284:Drivers/CMSIS/DSP/Source/FilteringFunctions/arm_biquad_cascade_df1_q31.c ****       *pOut++ = (q31_t) acc;
 535              		.loc 1 284 7 view .LVU167
 536              		.loc 1 284 12 is_stmt 0 view .LVU168
 537 02c4 0299     		ldr	r1, [sp, #8]
 538              	.LVL74:
 539              		.loc 1 284 15 view .LVU169
 540 02c6 41F8043B 		str	r3, [r1], #4
 541              	.LVL75:
 285:Drivers/CMSIS/DSP/Source/FilteringFunctions/arm_biquad_cascade_df1_q31.c **** 
 286:Drivers/CMSIS/DSP/Source/FilteringFunctions/arm_biquad_cascade_df1_q31.c ****       /* decrement the loop counter */
 287:Drivers/CMSIS/DSP/Source/FilteringFunctions/arm_biquad_cascade_df1_q31.c ****       sample--;
 542              		.loc 1 287 7 is_stmt 1 view .LVU170
 543              		.loc 1 287 13 is_stmt 0 view .LVU171
 544 02ca 0CF1FF3C 		add	ip, ip, #-1
 545              	.LVL76:
 280:Drivers/CMSIS/DSP/Source/FilteringFunctions/arm_biquad_cascade_df1_q31.c ****       Yn1 = (q31_t) acc;
 546              		.loc 1 280 11 view .LVU172
 547 02ce 5246     		mov	r2, r10
 281:Drivers/CMSIS/DSP/Source/FilteringFunctions/arm_biquad_cascade_df1_q31.c **** 
 548              		.loc 1 281 11 view .LVU173
 549 02d0 9A46     		mov	r10, r3
 550              	.LVL77:
 278:Drivers/CMSIS/DSP/Source/FilteringFunctions/arm_biquad_cascade_df1_q31.c ****       Xn1 = Xn;
 551              		.loc 1 278 11 view .LVU174
 552 02d2 4B46     		mov	r3, r9
 553              	.LVL78:
 279:Drivers/CMSIS/DSP/Source/FilteringFunctions/arm_biquad_cascade_df1_q31.c ****       Yn2 = Yn1;
 554              		.loc 1 279 11 view .LVU175
 555 02d4 A946     		mov	r9, r5
 556              	.LVL79:
 284:Drivers/CMSIS/DSP/Source/FilteringFunctions/arm_biquad_cascade_df1_q31.c **** 
 557              		.loc 1 284 12 view .LVU176
 558 02d6 0291     		str	r1, [sp, #8]
ARM GAS  /var/folders/n6/c271nzx11xl4r4_m7sqjlt0m0000gn/T//ccT0I2Qk.s 			page 16


 254:Drivers/CMSIS/DSP/Source/FilteringFunctions/arm_biquad_cascade_df1_q31.c **** 
 559              		.loc 1 254 16 view .LVU177
 560 02d8 0199     		ldr	r1, [sp, #4]
 561              	.LVL80:
 562              	.L4:
 251:Drivers/CMSIS/DSP/Source/FilteringFunctions/arm_biquad_cascade_df1_q31.c ****     {
 563              		.loc 1 251 19 is_stmt 1 view .LVU178
 564 02da BCF1000F 		cmp	ip, #0
 565 02de 53D0     		beq	.L10
 254:Drivers/CMSIS/DSP/Source/FilteringFunctions/arm_biquad_cascade_df1_q31.c **** 
 566              		.loc 1 254 7 view .LVU179
 567              	.LVL81:
 254:Drivers/CMSIS/DSP/Source/FilteringFunctions/arm_biquad_cascade_df1_q31.c **** 
 568              		.loc 1 254 10 is_stmt 0 view .LVU180
 569 02e0 51F8045B 		ldr	r5, [r1], #4
 570              	.LVL82:
 254:Drivers/CMSIS/DSP/Source/FilteringFunctions/arm_biquad_cascade_df1_q31.c **** 
 571              		.loc 1 254 10 view .LVU181
 572 02e4 0191     		str	r1, [sp, #4]
 573              	.LVL83:
 259:Drivers/CMSIS/DSP/Source/FilteringFunctions/arm_biquad_cascade_df1_q31.c ****       /* acc +=  b1 * x[n-1] */
 574              		.loc 1 259 7 is_stmt 1 view .LVU182
 259:Drivers/CMSIS/DSP/Source/FilteringFunctions/arm_biquad_cascade_df1_q31.c ****       /* acc +=  b1 * x[n-1] */
 575              		.loc 1 259 13 is_stmt 0 view .LVU183
 576 02e6 4FEAEE70 		asr	r0, lr, #31
 259:Drivers/CMSIS/DSP/Source/FilteringFunctions/arm_biquad_cascade_df1_q31.c ****       /* acc +=  b1 * x[n-1] */
 577              		.loc 1 259 24 view .LVU184
 578 02ea E917     		asrs	r1, r5, #31
 579              	.LVL84:
 259:Drivers/CMSIS/DSP/Source/FilteringFunctions/arm_biquad_cascade_df1_q31.c ****       /* acc +=  b1 * x[n-1] */
 580              		.loc 1 259 11 view .LVU185
 581 02ec 0EFB01F1 		mul	r1, lr, r1
 582 02f0 05FB0011 		mla	r1, r5, r0, r1
 583 02f4 AEFB0540 		umull	r4, r0, lr, r5
 584 02f8 0394     		str	r4, [sp, #12]
 585 02fa 0144     		add	r1, r1, r0
 586              	.LVL85:
 261:Drivers/CMSIS/DSP/Source/FilteringFunctions/arm_biquad_cascade_df1_q31.c ****       /* acc +=  b[2] * x[n-2] */
 587              		.loc 1 261 7 is_stmt 1 view .LVU186
 261:Drivers/CMSIS/DSP/Source/FilteringFunctions/arm_biquad_cascade_df1_q31.c ****       /* acc +=  b[2] * x[n-2] */
 588              		.loc 1 261 14 is_stmt 0 view .LVU187
 589 02fc 4FEAE870 		asr	r0, r8, #31
 261:Drivers/CMSIS/DSP/Source/FilteringFunctions/arm_biquad_cascade_df1_q31.c ****       /* acc +=  b[2] * x[n-2] */
 590              		.loc 1 261 25 view .LVU188
 591 0300 4FEAE974 		asr	r4, r9, #31
 592              	.LVL86:
 261:Drivers/CMSIS/DSP/Source/FilteringFunctions/arm_biquad_cascade_df1_q31.c ****       /* acc +=  b[2] * x[n-2] */
 593              		.loc 1 261 25 view .LVU189
 594 0304 09FB00F0 		mul	r0, r9, r0
 595 0308 08FB0400 		mla	r0, r8, r4, r0
 596 030c A9FB0846 		umull	r4, r6, r9, r8
 597 0310 0644     		add	r6, r6, r0
 261:Drivers/CMSIS/DSP/Source/FilteringFunctions/arm_biquad_cascade_df1_q31.c ****       /* acc +=  b[2] * x[n-2] */
 598              		.loc 1 261 11 view .LVU190
 599 0312 0398     		ldr	r0, [sp, #12]
 600 0314 2418     		adds	r4, r4, r0
 601 0316 41EB0606 		adc	r6, r1, r6
ARM GAS  /var/folders/n6/c271nzx11xl4r4_m7sqjlt0m0000gn/T//ccT0I2Qk.s 			page 17


 602              	.LVL87:
 263:Drivers/CMSIS/DSP/Source/FilteringFunctions/arm_biquad_cascade_df1_q31.c ****       /* acc +=  a1 * y[n-1] */
 603              		.loc 1 263 7 is_stmt 1 view .LVU191
 263:Drivers/CMSIS/DSP/Source/FilteringFunctions/arm_biquad_cascade_df1_q31.c ****       /* acc +=  a1 * y[n-1] */
 604              		.loc 1 263 14 is_stmt 0 view .LVU192
 605 031a 4FEAEB71 		asr	r1, fp, #31
 263:Drivers/CMSIS/DSP/Source/FilteringFunctions/arm_biquad_cascade_df1_q31.c ****       /* acc +=  a1 * y[n-1] */
 606              		.loc 1 263 25 view .LVU193
 607 031e D817     		asrs	r0, r3, #31
 608 0320 03FB01F1 		mul	r1, r3, r1
 609 0324 0BFB0011 		mla	r1, fp, r0, r1
 610 0328 A3FB0B30 		umull	r3, r0, r3, fp
 611              	.LVL88:
 263:Drivers/CMSIS/DSP/Source/FilteringFunctions/arm_biquad_cascade_df1_q31.c ****       /* acc +=  a1 * y[n-1] */
 612              		.loc 1 263 25 view .LVU194
 613 032c 0144     		add	r1, r1, r0
 263:Drivers/CMSIS/DSP/Source/FilteringFunctions/arm_biquad_cascade_df1_q31.c ****       /* acc +=  a1 * y[n-1] */
 614              		.loc 1 263 11 view .LVU195
 615 032e 1B19     		adds	r3, r3, r4
 616 0330 41EB0606 		adc	r6, r1, r6
 617              	.LVL89:
 265:Drivers/CMSIS/DSP/Source/FilteringFunctions/arm_biquad_cascade_df1_q31.c ****       /* acc +=  a2 * y[n-2] */
 618              		.loc 1 265 7 is_stmt 1 view .LVU196
 265:Drivers/CMSIS/DSP/Source/FilteringFunctions/arm_biquad_cascade_df1_q31.c ****       /* acc +=  a2 * y[n-2] */
 619              		.loc 1 265 14 is_stmt 0 view .LVU197
 620 0334 009C     		ldr	r4, [sp]
 621 0336 E117     		asrs	r1, r4, #31
 265:Drivers/CMSIS/DSP/Source/FilteringFunctions/arm_biquad_cascade_df1_q31.c ****       /* acc +=  a2 * y[n-2] */
 622              		.loc 1 265 25 view .LVU198
 623 0338 4FEAEA70 		asr	r0, r10, #31
 624 033c 0AFB01F1 		mul	r1, r10, r1
 625 0340 04FB0011 		mla	r1, r4, r0, r1
 626 0344 AAFB0404 		umull	r0, r4, r10, r4
 627 0348 0C44     		add	r4, r4, r1
 265:Drivers/CMSIS/DSP/Source/FilteringFunctions/arm_biquad_cascade_df1_q31.c ****       /* acc +=  a2 * y[n-2] */
 628              		.loc 1 265 11 view .LVU199
 629 034a C018     		adds	r0, r0, r3
 630 034c 44EB0604 		adc	r4, r4, r6
 631              	.LVL90:
 267:Drivers/CMSIS/DSP/Source/FilteringFunctions/arm_biquad_cascade_df1_q31.c **** 
 632              		.loc 1 267 7 is_stmt 1 view .LVU200
 267:Drivers/CMSIS/DSP/Source/FilteringFunctions/arm_biquad_cascade_df1_q31.c **** 
 633              		.loc 1 267 14 is_stmt 0 view .LVU201
 634 0350 F917     		asrs	r1, r7, #31
 267:Drivers/CMSIS/DSP/Source/FilteringFunctions/arm_biquad_cascade_df1_q31.c **** 
 635              		.loc 1 267 25 view .LVU202
 636 0352 D317     		asrs	r3, r2, #31
 637 0354 02FB01F1 		mul	r1, r2, r1
 638 0358 07FB0311 		mla	r1, r7, r3, r1
 639 035c A2FB0732 		umull	r3, r2, r2, r7
 640              	.LVL91:
 267:Drivers/CMSIS/DSP/Source/FilteringFunctions/arm_biquad_cascade_df1_q31.c **** 
 641              		.loc 1 267 25 view .LVU203
 642 0360 0A44     		add	r2, r2, r1
 267:Drivers/CMSIS/DSP/Source/FilteringFunctions/arm_biquad_cascade_df1_q31.c **** 
 643              		.loc 1 267 11 view .LVU204
 644 0362 1B18     		adds	r3, r3, r0
ARM GAS  /var/folders/n6/c271nzx11xl4r4_m7sqjlt0m0000gn/T//ccT0I2Qk.s 			page 18


 645 0364 42EB0402 		adc	r2, r2, r4
 646              	.LVL92:
 270:Drivers/CMSIS/DSP/Source/FilteringFunctions/arm_biquad_cascade_df1_q31.c **** 
 647              		.loc 1 270 7 is_stmt 1 view .LVU205
 270:Drivers/CMSIS/DSP/Source/FilteringFunctions/arm_biquad_cascade_df1_q31.c **** 
 648              		.loc 1 270 11 is_stmt 0 view .LVU206
 649 0368 049C     		ldr	r4, [sp, #16]
 650 036a C4F12001 		rsb	r1, r4, #32
 651 036e B4F12000 		subs	r0, r4, #32
 652 0372 23FA04F3 		lsr	r3, r3, r4
 270:Drivers/CMSIS/DSP/Source/FilteringFunctions/arm_biquad_cascade_df1_q31.c **** 
 653              		.loc 1 270 11 view .LVU207
 654 0376 02FA01F1 		lsl	r1, r2, r1
 655 037a 43EA0103 		orr	r3, r3, r1
 656 037e A1D4     		bmi	.L5
 270:Drivers/CMSIS/DSP/Source/FilteringFunctions/arm_biquad_cascade_df1_q31.c **** 
 657              		.loc 1 270 11 view .LVU208
 658 0380 42FA00F0 		asr	r0, r2, r0
 659 0384 0343     		orrs	r3, r3, r0
 660 0386 9DE7     		b	.L5
 661              	.LVL93:
 662              	.L10:
 288:Drivers/CMSIS/DSP/Source/FilteringFunctions/arm_biquad_cascade_df1_q31.c ****     }
 289:Drivers/CMSIS/DSP/Source/FilteringFunctions/arm_biquad_cascade_df1_q31.c **** 
 290:Drivers/CMSIS/DSP/Source/FilteringFunctions/arm_biquad_cascade_df1_q31.c ****     /*  The first stage goes from the input buffer to the output buffer. */
 291:Drivers/CMSIS/DSP/Source/FilteringFunctions/arm_biquad_cascade_df1_q31.c ****     /*  Subsequent stages occur in-place in the output buffer */
 292:Drivers/CMSIS/DSP/Source/FilteringFunctions/arm_biquad_cascade_df1_q31.c ****     pIn = pDst;
 293:Drivers/CMSIS/DSP/Source/FilteringFunctions/arm_biquad_cascade_df1_q31.c **** 
 294:Drivers/CMSIS/DSP/Source/FilteringFunctions/arm_biquad_cascade_df1_q31.c ****     /* Reset to destination pointer */
 295:Drivers/CMSIS/DSP/Source/FilteringFunctions/arm_biquad_cascade_df1_q31.c ****     pOut = pDst;
 296:Drivers/CMSIS/DSP/Source/FilteringFunctions/arm_biquad_cascade_df1_q31.c **** 
 297:Drivers/CMSIS/DSP/Source/FilteringFunctions/arm_biquad_cascade_df1_q31.c ****     /*  Store the updated state variables back into the pState array */
 298:Drivers/CMSIS/DSP/Source/FilteringFunctions/arm_biquad_cascade_df1_q31.c ****     *pState++ = Xn1;
 663              		.loc 1 298 15 view .LVU209
 664 0388 059F     		ldr	r7, [sp, #20]
 665 038a 079E     		ldr	r6, [sp, #28]
 292:Drivers/CMSIS/DSP/Source/FilteringFunctions/arm_biquad_cascade_df1_q31.c **** 
 666              		.loc 1 292 5 is_stmt 1 view .LVU210
 667              	.LVL94:
 295:Drivers/CMSIS/DSP/Source/FilteringFunctions/arm_biquad_cascade_df1_q31.c **** 
 668              		.loc 1 295 5 view .LVU211
 669              		.loc 1 298 5 view .LVU212
 670              		.loc 1 298 15 is_stmt 0 view .LVU213
 671 038c C7F80090 		str	r9, [r7]
 299:Drivers/CMSIS/DSP/Source/FilteringFunctions/arm_biquad_cascade_df1_q31.c ****     *pState++ = Xn2;
 672              		.loc 1 299 5 is_stmt 1 view .LVU214
 673              	.LVL95:
 674              		.loc 1 299 15 is_stmt 0 view .LVU215
 675 0390 7B60     		str	r3, [r7, #4]
 300:Drivers/CMSIS/DSP/Source/FilteringFunctions/arm_biquad_cascade_df1_q31.c ****     *pState++ = Yn1;
 676              		.loc 1 300 5 is_stmt 1 view .LVU216
 677              	.LVL96:
 678              		.loc 1 300 15 is_stmt 0 view .LVU217
 679 0392 C7F808A0 		str	r10, [r7, #8]
 301:Drivers/CMSIS/DSP/Source/FilteringFunctions/arm_biquad_cascade_df1_q31.c ****     *pState++ = Yn2;
 680              		.loc 1 301 5 is_stmt 1 view .LVU218
 681              		.loc 1 301 12 is_stmt 0 view .LVU219
ARM GAS  /var/folders/n6/c271nzx11xl4r4_m7sqjlt0m0000gn/T//ccT0I2Qk.s 			page 19


 682 0396 07F11001 		add	r1, r7, #16
 683              	.LVL97:
 684              		.loc 1 301 15 view .LVU220
 685 039a FA60     		str	r2, [r7, #12]
 302:Drivers/CMSIS/DSP/Source/FilteringFunctions/arm_biquad_cascade_df1_q31.c **** 
 303:Drivers/CMSIS/DSP/Source/FilteringFunctions/arm_biquad_cascade_df1_q31.c ****   } while (--stage);
 686              		.loc 1 303 12 is_stmt 1 view .LVU221
 687              	.LVL98:
 688              		.loc 1 303 12 is_stmt 0 view .LVU222
 689 039c 119B     		ldr	r3, [sp, #68]
 690              	.LVL99:
 691              		.loc 1 303 12 view .LVU223
 692 039e 013B     		subs	r3, r3, #1
 693              	.LVL100:
 694              		.loc 1 303 12 view .LVU224
 695 03a0 1193     		str	r3, [sp, #68]
 696 03a2 1FD0     		beq	.L11
 301:Drivers/CMSIS/DSP/Source/FilteringFunctions/arm_biquad_cascade_df1_q31.c ****     *pState++ = Yn2;
 697              		.loc 1 301 12 view .LVU225
 698 03a4 0F46     		mov	r7, r1
 699              	.LVL101:
 292:Drivers/CMSIS/DSP/Source/FilteringFunctions/arm_biquad_cascade_df1_q31.c **** 
 700              		.loc 1 292 9 view .LVU226
 701 03a6 159B     		ldr	r3, [sp, #84]
 702              	.LVL102:
 292:Drivers/CMSIS/DSP/Source/FilteringFunctions/arm_biquad_cascade_df1_q31.c **** 
 703              		.loc 1 292 9 view .LVU227
 704 03a8 0393     		str	r3, [sp, #12]
 705              	.LVL103:
 706              	.L7:
  82:Drivers/CMSIS/DSP/Source/FilteringFunctions/arm_biquad_cascade_df1_q31.c **** 
 707              		.loc 1 82 3 is_stmt 1 view .LVU228
  86:Drivers/CMSIS/DSP/Source/FilteringFunctions/arm_biquad_cascade_df1_q31.c ****   {
 708              		.loc 1 86 3 view .LVU229
  89:Drivers/CMSIS/DSP/Source/FilteringFunctions/arm_biquad_cascade_df1_q31.c ****     b1 = *pCoeffs++;
 709              		.loc 1 89 5 view .LVU230
  89:Drivers/CMSIS/DSP/Source/FilteringFunctions/arm_biquad_cascade_df1_q31.c ****     b1 = *pCoeffs++;
 710              		.loc 1 89 8 is_stmt 0 view .LVU231
 711 03aa D6F800E0 		ldr	lr, [r6]
 712              	.LVL104:
  90:Drivers/CMSIS/DSP/Source/FilteringFunctions/arm_biquad_cascade_df1_q31.c ****     b2 = *pCoeffs++;
 713              		.loc 1 90 5 is_stmt 1 view .LVU232
  90:Drivers/CMSIS/DSP/Source/FilteringFunctions/arm_biquad_cascade_df1_q31.c ****     b2 = *pCoeffs++;
 714              		.loc 1 90 8 is_stmt 0 view .LVU233
 715 03ae D6F80480 		ldr	r8, [r6, #4]
 716              	.LVL105:
  91:Drivers/CMSIS/DSP/Source/FilteringFunctions/arm_biquad_cascade_df1_q31.c ****     a1 = *pCoeffs++;
 717              		.loc 1 91 5 is_stmt 1 view .LVU234
  91:Drivers/CMSIS/DSP/Source/FilteringFunctions/arm_biquad_cascade_df1_q31.c ****     a1 = *pCoeffs++;
 718              		.loc 1 91 8 is_stmt 0 view .LVU235
 719 03b2 B368     		ldr	r3, [r6, #8]
 720 03b4 1293     		str	r3, [sp, #72]
 721              	.LVL106:
  92:Drivers/CMSIS/DSP/Source/FilteringFunctions/arm_biquad_cascade_df1_q31.c ****     a2 = *pCoeffs++;
 722              		.loc 1 92 5 is_stmt 1 view .LVU236
  92:Drivers/CMSIS/DSP/Source/FilteringFunctions/arm_biquad_cascade_df1_q31.c ****     a2 = *pCoeffs++;
 723              		.loc 1 92 8 is_stmt 0 view .LVU237
ARM GAS  /var/folders/n6/c271nzx11xl4r4_m7sqjlt0m0000gn/T//ccT0I2Qk.s 			page 20


 724 03b6 F268     		ldr	r2, [r6, #12]
 725 03b8 0092     		str	r2, [sp]
 726              	.LVL107:
  93:Drivers/CMSIS/DSP/Source/FilteringFunctions/arm_biquad_cascade_df1_q31.c **** 
 727              		.loc 1 93 5 is_stmt 1 view .LVU238
  93:Drivers/CMSIS/DSP/Source/FilteringFunctions/arm_biquad_cascade_df1_q31.c **** 
 728              		.loc 1 93 8 is_stmt 0 view .LVU239
 729 03ba 3269     		ldr	r2, [r6, #16]
 730              	.LVL108:
  93:Drivers/CMSIS/DSP/Source/FilteringFunctions/arm_biquad_cascade_df1_q31.c **** 
 731              		.loc 1 93 8 view .LVU240
 732 03bc 0192     		str	r2, [sp, #4]
 733 03be 1436     		adds	r6, r6, #20
 734              	.LVL109:
  96:Drivers/CMSIS/DSP/Source/FilteringFunctions/arm_biquad_cascade_df1_q31.c ****     Xn2 = pState[1];
 735              		.loc 1 96 5 is_stmt 1 view .LVU241
  96:Drivers/CMSIS/DSP/Source/FilteringFunctions/arm_biquad_cascade_df1_q31.c ****     Xn2 = pState[1];
 736              		.loc 1 96 9 is_stmt 0 view .LVU242
 737 03c0 D7F80090 		ldr	r9, [r7]
 738              	.LVL110:
  97:Drivers/CMSIS/DSP/Source/FilteringFunctions/arm_biquad_cascade_df1_q31.c ****     Yn1 = pState[2];
 739              		.loc 1 97 5 is_stmt 1 view .LVU243
  97:Drivers/CMSIS/DSP/Source/FilteringFunctions/arm_biquad_cascade_df1_q31.c ****     Yn1 = pState[2];
 740              		.loc 1 97 9 is_stmt 0 view .LVU244
 741 03c4 7C68     		ldr	r4, [r7, #4]
 742              	.LVL111:
  98:Drivers/CMSIS/DSP/Source/FilteringFunctions/arm_biquad_cascade_df1_q31.c ****     Yn2 = pState[3];
 743              		.loc 1 98 5 is_stmt 1 view .LVU245
  98:Drivers/CMSIS/DSP/Source/FilteringFunctions/arm_biquad_cascade_df1_q31.c ****     Yn2 = pState[3];
 744              		.loc 1 98 9 is_stmt 0 view .LVU246
 745 03c6 D7F808A0 		ldr	r10, [r7, #8]
 746              	.LVL112:
  99:Drivers/CMSIS/DSP/Source/FilteringFunctions/arm_biquad_cascade_df1_q31.c **** 
 747              		.loc 1 99 5 is_stmt 1 view .LVU247
  99:Drivers/CMSIS/DSP/Source/FilteringFunctions/arm_biquad_cascade_df1_q31.c **** 
 748              		.loc 1 99 9 is_stmt 0 view .LVU248
 749 03ca FA68     		ldr	r2, [r7, #12]
 750              	.LVL113:
 107:Drivers/CMSIS/DSP/Source/FilteringFunctions/arm_biquad_cascade_df1_q31.c **** 
 751              		.loc 1 107 5 is_stmt 1 view .LVU249
 107:Drivers/CMSIS/DSP/Source/FilteringFunctions/arm_biquad_cascade_df1_q31.c **** 
 752              		.loc 1 107 12 is_stmt 0 view .LVU250
 753 03cc 1099     		ldr	r1, [sp, #64]
 754 03ce 8908     		lsrs	r1, r1, #2
 755 03d0 0D91     		str	r1, [sp, #52]
 756              	.LVL114:
 111:Drivers/CMSIS/DSP/Source/FilteringFunctions/arm_biquad_cascade_df1_q31.c ****     {
 757              		.loc 1 111 5 is_stmt 1 view .LVU251
 111:Drivers/CMSIS/DSP/Source/FilteringFunctions/arm_biquad_cascade_df1_q31.c ****     {
 758              		.loc 1 111 11 is_stmt 0 view .LVU252
 759 03d2 1599     		ldr	r1, [sp, #84]
 760              	.LVL115:
 111:Drivers/CMSIS/DSP/Source/FilteringFunctions/arm_biquad_cascade_df1_q31.c ****     {
 761              		.loc 1 111 11 view .LVU253
 762 03d4 0291     		str	r1, [sp, #8]
 763 03d6 1397     		str	r7, [sp, #76]
 764 03d8 1496     		str	r6, [sp, #80]
ARM GAS  /var/folders/n6/c271nzx11xl4r4_m7sqjlt0m0000gn/T//ccT0I2Qk.s 			page 21


 765 03da CDF81490 		str	r9, [sp, #20]
 766 03de 5146     		mov	r1, r10
 767 03e0 9B46     		mov	fp, r3
 768 03e2 5BE7     		b	.L2
 769              	.LVL116:
 770              	.L11:
 304:Drivers/CMSIS/DSP/Source/FilteringFunctions/arm_biquad_cascade_df1_q31.c **** 
 305:Drivers/CMSIS/DSP/Source/FilteringFunctions/arm_biquad_cascade_df1_q31.c **** #else
 306:Drivers/CMSIS/DSP/Source/FilteringFunctions/arm_biquad_cascade_df1_q31.c **** 
 307:Drivers/CMSIS/DSP/Source/FilteringFunctions/arm_biquad_cascade_df1_q31.c ****   /* Run the below code for Cortex-M0 */
 308:Drivers/CMSIS/DSP/Source/FilteringFunctions/arm_biquad_cascade_df1_q31.c **** 
 309:Drivers/CMSIS/DSP/Source/FilteringFunctions/arm_biquad_cascade_df1_q31.c ****   do
 310:Drivers/CMSIS/DSP/Source/FilteringFunctions/arm_biquad_cascade_df1_q31.c ****   {
 311:Drivers/CMSIS/DSP/Source/FilteringFunctions/arm_biquad_cascade_df1_q31.c ****     /* Reading the coefficients */
 312:Drivers/CMSIS/DSP/Source/FilteringFunctions/arm_biquad_cascade_df1_q31.c ****     b0 = *pCoeffs++;
 313:Drivers/CMSIS/DSP/Source/FilteringFunctions/arm_biquad_cascade_df1_q31.c ****     b1 = *pCoeffs++;
 314:Drivers/CMSIS/DSP/Source/FilteringFunctions/arm_biquad_cascade_df1_q31.c ****     b2 = *pCoeffs++;
 315:Drivers/CMSIS/DSP/Source/FilteringFunctions/arm_biquad_cascade_df1_q31.c ****     a1 = *pCoeffs++;
 316:Drivers/CMSIS/DSP/Source/FilteringFunctions/arm_biquad_cascade_df1_q31.c ****     a2 = *pCoeffs++;
 317:Drivers/CMSIS/DSP/Source/FilteringFunctions/arm_biquad_cascade_df1_q31.c **** 
 318:Drivers/CMSIS/DSP/Source/FilteringFunctions/arm_biquad_cascade_df1_q31.c ****     /* Reading the state values */
 319:Drivers/CMSIS/DSP/Source/FilteringFunctions/arm_biquad_cascade_df1_q31.c ****     Xn1 = pState[0];
 320:Drivers/CMSIS/DSP/Source/FilteringFunctions/arm_biquad_cascade_df1_q31.c ****     Xn2 = pState[1];
 321:Drivers/CMSIS/DSP/Source/FilteringFunctions/arm_biquad_cascade_df1_q31.c ****     Yn1 = pState[2];
 322:Drivers/CMSIS/DSP/Source/FilteringFunctions/arm_biquad_cascade_df1_q31.c ****     Yn2 = pState[3];
 323:Drivers/CMSIS/DSP/Source/FilteringFunctions/arm_biquad_cascade_df1_q31.c **** 
 324:Drivers/CMSIS/DSP/Source/FilteringFunctions/arm_biquad_cascade_df1_q31.c ****     /*      The variables acc holds the output value that is computed:
 325:Drivers/CMSIS/DSP/Source/FilteringFunctions/arm_biquad_cascade_df1_q31.c ****      *    acc =  b0 * x[n] + b1 * x[n-1] + b2 * x[n-2] + a1 * y[n-1] + a2 * y[n-2]
 326:Drivers/CMSIS/DSP/Source/FilteringFunctions/arm_biquad_cascade_df1_q31.c ****      */
 327:Drivers/CMSIS/DSP/Source/FilteringFunctions/arm_biquad_cascade_df1_q31.c **** 
 328:Drivers/CMSIS/DSP/Source/FilteringFunctions/arm_biquad_cascade_df1_q31.c ****     sample = blockSize;
 329:Drivers/CMSIS/DSP/Source/FilteringFunctions/arm_biquad_cascade_df1_q31.c **** 
 330:Drivers/CMSIS/DSP/Source/FilteringFunctions/arm_biquad_cascade_df1_q31.c ****     while (sample > 0U)
 331:Drivers/CMSIS/DSP/Source/FilteringFunctions/arm_biquad_cascade_df1_q31.c ****     {
 332:Drivers/CMSIS/DSP/Source/FilteringFunctions/arm_biquad_cascade_df1_q31.c ****       /* Read the input */
 333:Drivers/CMSIS/DSP/Source/FilteringFunctions/arm_biquad_cascade_df1_q31.c ****       Xn = *pIn++;
 334:Drivers/CMSIS/DSP/Source/FilteringFunctions/arm_biquad_cascade_df1_q31.c **** 
 335:Drivers/CMSIS/DSP/Source/FilteringFunctions/arm_biquad_cascade_df1_q31.c ****       /* acc =  b0 * x[n] + b1 * x[n-1] + b2 * x[n-2] + a1 * y[n-1] + a2 * y[n-2] */
 336:Drivers/CMSIS/DSP/Source/FilteringFunctions/arm_biquad_cascade_df1_q31.c ****       /* acc =  b0 * x[n] */
 337:Drivers/CMSIS/DSP/Source/FilteringFunctions/arm_biquad_cascade_df1_q31.c ****       acc = (q63_t) b0 *Xn;
 338:Drivers/CMSIS/DSP/Source/FilteringFunctions/arm_biquad_cascade_df1_q31.c **** 
 339:Drivers/CMSIS/DSP/Source/FilteringFunctions/arm_biquad_cascade_df1_q31.c ****       /* acc +=  b1 * x[n-1] */
 340:Drivers/CMSIS/DSP/Source/FilteringFunctions/arm_biquad_cascade_df1_q31.c ****       acc += (q63_t) b1 *Xn1;
 341:Drivers/CMSIS/DSP/Source/FilteringFunctions/arm_biquad_cascade_df1_q31.c ****       /* acc +=  b[2] * x[n-2] */
 342:Drivers/CMSIS/DSP/Source/FilteringFunctions/arm_biquad_cascade_df1_q31.c ****       acc += (q63_t) b2 *Xn2;
 343:Drivers/CMSIS/DSP/Source/FilteringFunctions/arm_biquad_cascade_df1_q31.c ****       /* acc +=  a1 * y[n-1] */
 344:Drivers/CMSIS/DSP/Source/FilteringFunctions/arm_biquad_cascade_df1_q31.c ****       acc += (q63_t) a1 *Yn1;
 345:Drivers/CMSIS/DSP/Source/FilteringFunctions/arm_biquad_cascade_df1_q31.c ****       /* acc +=  a2 * y[n-2] */
 346:Drivers/CMSIS/DSP/Source/FilteringFunctions/arm_biquad_cascade_df1_q31.c ****       acc += (q63_t) a2 *Yn2;
 347:Drivers/CMSIS/DSP/Source/FilteringFunctions/arm_biquad_cascade_df1_q31.c **** 
 348:Drivers/CMSIS/DSP/Source/FilteringFunctions/arm_biquad_cascade_df1_q31.c ****       /* The result is converted to 1.31  */
 349:Drivers/CMSIS/DSP/Source/FilteringFunctions/arm_biquad_cascade_df1_q31.c ****       acc = acc >> lShift;
 350:Drivers/CMSIS/DSP/Source/FilteringFunctions/arm_biquad_cascade_df1_q31.c **** 
 351:Drivers/CMSIS/DSP/Source/FilteringFunctions/arm_biquad_cascade_df1_q31.c ****       /* Every time after the output is computed state should be updated. */
 352:Drivers/CMSIS/DSP/Source/FilteringFunctions/arm_biquad_cascade_df1_q31.c ****       /* The states should be updated as:  */
 353:Drivers/CMSIS/DSP/Source/FilteringFunctions/arm_biquad_cascade_df1_q31.c ****       /* Xn2 = Xn1    */
 354:Drivers/CMSIS/DSP/Source/FilteringFunctions/arm_biquad_cascade_df1_q31.c ****       /* Xn1 = Xn     */
ARM GAS  /var/folders/n6/c271nzx11xl4r4_m7sqjlt0m0000gn/T//ccT0I2Qk.s 			page 22


 355:Drivers/CMSIS/DSP/Source/FilteringFunctions/arm_biquad_cascade_df1_q31.c ****       /* Yn2 = Yn1    */
 356:Drivers/CMSIS/DSP/Source/FilteringFunctions/arm_biquad_cascade_df1_q31.c ****       /* Yn1 = acc    */
 357:Drivers/CMSIS/DSP/Source/FilteringFunctions/arm_biquad_cascade_df1_q31.c ****       Xn2 = Xn1;
 358:Drivers/CMSIS/DSP/Source/FilteringFunctions/arm_biquad_cascade_df1_q31.c ****       Xn1 = Xn;
 359:Drivers/CMSIS/DSP/Source/FilteringFunctions/arm_biquad_cascade_df1_q31.c ****       Yn2 = Yn1;
 360:Drivers/CMSIS/DSP/Source/FilteringFunctions/arm_biquad_cascade_df1_q31.c ****       Yn1 = (q31_t) acc;
 361:Drivers/CMSIS/DSP/Source/FilteringFunctions/arm_biquad_cascade_df1_q31.c **** 
 362:Drivers/CMSIS/DSP/Source/FilteringFunctions/arm_biquad_cascade_df1_q31.c ****       /* Store the output in the destination buffer. */
 363:Drivers/CMSIS/DSP/Source/FilteringFunctions/arm_biquad_cascade_df1_q31.c ****       *pOut++ = (q31_t) acc;
 364:Drivers/CMSIS/DSP/Source/FilteringFunctions/arm_biquad_cascade_df1_q31.c **** 
 365:Drivers/CMSIS/DSP/Source/FilteringFunctions/arm_biquad_cascade_df1_q31.c ****       /* decrement the loop counter */
 366:Drivers/CMSIS/DSP/Source/FilteringFunctions/arm_biquad_cascade_df1_q31.c ****       sample--;
 367:Drivers/CMSIS/DSP/Source/FilteringFunctions/arm_biquad_cascade_df1_q31.c ****     }
 368:Drivers/CMSIS/DSP/Source/FilteringFunctions/arm_biquad_cascade_df1_q31.c **** 
 369:Drivers/CMSIS/DSP/Source/FilteringFunctions/arm_biquad_cascade_df1_q31.c ****     /*  The first stage goes from the input buffer to the output buffer. */
 370:Drivers/CMSIS/DSP/Source/FilteringFunctions/arm_biquad_cascade_df1_q31.c ****     /*  Subsequent stages occur in-place in the output buffer */
 371:Drivers/CMSIS/DSP/Source/FilteringFunctions/arm_biquad_cascade_df1_q31.c ****     pIn = pDst;
 372:Drivers/CMSIS/DSP/Source/FilteringFunctions/arm_biquad_cascade_df1_q31.c **** 
 373:Drivers/CMSIS/DSP/Source/FilteringFunctions/arm_biquad_cascade_df1_q31.c ****     /* Reset to destination pointer */
 374:Drivers/CMSIS/DSP/Source/FilteringFunctions/arm_biquad_cascade_df1_q31.c ****     pOut = pDst;
 375:Drivers/CMSIS/DSP/Source/FilteringFunctions/arm_biquad_cascade_df1_q31.c **** 
 376:Drivers/CMSIS/DSP/Source/FilteringFunctions/arm_biquad_cascade_df1_q31.c ****     /*  Store the updated state variables back into the pState array */
 377:Drivers/CMSIS/DSP/Source/FilteringFunctions/arm_biquad_cascade_df1_q31.c ****     *pState++ = Xn1;
 378:Drivers/CMSIS/DSP/Source/FilteringFunctions/arm_biquad_cascade_df1_q31.c ****     *pState++ = Xn2;
 379:Drivers/CMSIS/DSP/Source/FilteringFunctions/arm_biquad_cascade_df1_q31.c ****     *pState++ = Yn1;
 380:Drivers/CMSIS/DSP/Source/FilteringFunctions/arm_biquad_cascade_df1_q31.c ****     *pState++ = Yn2;
 381:Drivers/CMSIS/DSP/Source/FilteringFunctions/arm_biquad_cascade_df1_q31.c **** 
 382:Drivers/CMSIS/DSP/Source/FilteringFunctions/arm_biquad_cascade_df1_q31.c ****   } while (--stage);
 383:Drivers/CMSIS/DSP/Source/FilteringFunctions/arm_biquad_cascade_df1_q31.c **** 
 384:Drivers/CMSIS/DSP/Source/FilteringFunctions/arm_biquad_cascade_df1_q31.c **** #endif /*  #if defined (ARM_MATH_DSP) */
 385:Drivers/CMSIS/DSP/Source/FilteringFunctions/arm_biquad_cascade_df1_q31.c **** }
 771              		.loc 1 385 1 view .LVU254
 772 03e4 17B0     		add	sp, sp, #92
 773              		.cfi_def_cfa_offset 36
 774              	.LVL117:
 775              		.loc 1 385 1 view .LVU255
 776              		@ sp needed
 777 03e6 BDE8F08F 		pop	{r4, r5, r6, r7, r8, r9, r10, fp, pc}
 778              		.loc 1 385 1 view .LVU256
 779              		.cfi_endproc
 780              	.LFE135:
 782              		.text
 783              	.Letext0:
 784              		.file 2 "/Users/killian/Library/Application Support/Code/User/globalStorage/bmd.stm32-for-vscode/@
 785              		.file 3 "/Users/killian/Library/Application Support/Code/User/globalStorage/bmd.stm32-for-vscode/@
 786              		.file 4 "Drivers/CMSIS/DSP/Include/arm_math.h"
ARM GAS  /var/folders/n6/c271nzx11xl4r4_m7sqjlt0m0000gn/T//ccT0I2Qk.s 			page 23

