ARM GAS  /var/folders/n6/c271nzx11xl4r4_m7sqjlt0m0000gn/T//ccXBi5wj.s 			page 1


   1              		.cpu cortex-m7
   2              		.arch armv7e-m
   3              		.fpu fpv5-d16
   4              		.eabi_attribute 28, 1
   5              		.eabi_attribute 20, 1
   6              		.eabi_attribute 21, 1
   7              		.eabi_attribute 23, 3
   8              		.eabi_attribute 24, 1
   9              		.eabi_attribute 25, 1
  10              		.eabi_attribute 26, 1
  11              		.eabi_attribute 30, 1
  12              		.eabi_attribute 34, 1
  13              		.eabi_attribute 18, 4
  14              		.file	"arm_dot_prod_q31.c"
  15              		.text
  16              	.Ltext0:
  17              		.cfi_sections	.debug_frame
  18              		.file 1 "Drivers/CMSIS/DSP/Source/BasicMathFunctions/arm_dot_prod_q31.c"
  19              		.section	.text.arm_dot_prod_q31,"ax",%progbits
  20              		.align	1
  21              		.global	arm_dot_prod_q31
  22              		.syntax unified
  23              		.thumb
  24              		.thumb_func
  26              	arm_dot_prod_q31:
  27              	.LVL0:
  28              	.LFB135:
   1:Drivers/CMSIS/DSP/Source/BasicMathFunctions/arm_dot_prod_q31.c **** /* ----------------------------------------------------------------------
   2:Drivers/CMSIS/DSP/Source/BasicMathFunctions/arm_dot_prod_q31.c ****  * Project:      CMSIS DSP Library
   3:Drivers/CMSIS/DSP/Source/BasicMathFunctions/arm_dot_prod_q31.c ****  * Title:        arm_dot_prod_q31.c
   4:Drivers/CMSIS/DSP/Source/BasicMathFunctions/arm_dot_prod_q31.c ****  * Description:  Q31 dot product
   5:Drivers/CMSIS/DSP/Source/BasicMathFunctions/arm_dot_prod_q31.c ****  *
   6:Drivers/CMSIS/DSP/Source/BasicMathFunctions/arm_dot_prod_q31.c ****  * $Date:        27. January 2017
   7:Drivers/CMSIS/DSP/Source/BasicMathFunctions/arm_dot_prod_q31.c ****  * $Revision:    V.1.5.1
   8:Drivers/CMSIS/DSP/Source/BasicMathFunctions/arm_dot_prod_q31.c ****  *
   9:Drivers/CMSIS/DSP/Source/BasicMathFunctions/arm_dot_prod_q31.c ****  * Target Processor: Cortex-M cores
  10:Drivers/CMSIS/DSP/Source/BasicMathFunctions/arm_dot_prod_q31.c ****  * -------------------------------------------------------------------- */
  11:Drivers/CMSIS/DSP/Source/BasicMathFunctions/arm_dot_prod_q31.c **** /*
  12:Drivers/CMSIS/DSP/Source/BasicMathFunctions/arm_dot_prod_q31.c ****  * Copyright (C) 2010-2017 ARM Limited or its affiliates. All rights reserved.
  13:Drivers/CMSIS/DSP/Source/BasicMathFunctions/arm_dot_prod_q31.c ****  *
  14:Drivers/CMSIS/DSP/Source/BasicMathFunctions/arm_dot_prod_q31.c ****  * SPDX-License-Identifier: Apache-2.0
  15:Drivers/CMSIS/DSP/Source/BasicMathFunctions/arm_dot_prod_q31.c ****  *
  16:Drivers/CMSIS/DSP/Source/BasicMathFunctions/arm_dot_prod_q31.c ****  * Licensed under the Apache License, Version 2.0 (the License); you may
  17:Drivers/CMSIS/DSP/Source/BasicMathFunctions/arm_dot_prod_q31.c ****  * not use this file except in compliance with the License.
  18:Drivers/CMSIS/DSP/Source/BasicMathFunctions/arm_dot_prod_q31.c ****  * You may obtain a copy of the License at
  19:Drivers/CMSIS/DSP/Source/BasicMathFunctions/arm_dot_prod_q31.c ****  *
  20:Drivers/CMSIS/DSP/Source/BasicMathFunctions/arm_dot_prod_q31.c ****  * www.apache.org/licenses/LICENSE-2.0
  21:Drivers/CMSIS/DSP/Source/BasicMathFunctions/arm_dot_prod_q31.c ****  *
  22:Drivers/CMSIS/DSP/Source/BasicMathFunctions/arm_dot_prod_q31.c ****  * Unless required by applicable law or agreed to in writing, software
  23:Drivers/CMSIS/DSP/Source/BasicMathFunctions/arm_dot_prod_q31.c ****  * distributed under the License is distributed on an AS IS BASIS, WITHOUT
  24:Drivers/CMSIS/DSP/Source/BasicMathFunctions/arm_dot_prod_q31.c ****  * WARRANTIES OR CONDITIONS OF ANY KIND, either express or implied.
  25:Drivers/CMSIS/DSP/Source/BasicMathFunctions/arm_dot_prod_q31.c ****  * See the License for the specific language governing permissions and
  26:Drivers/CMSIS/DSP/Source/BasicMathFunctions/arm_dot_prod_q31.c ****  * limitations under the License.
  27:Drivers/CMSIS/DSP/Source/BasicMathFunctions/arm_dot_prod_q31.c ****  */
  28:Drivers/CMSIS/DSP/Source/BasicMathFunctions/arm_dot_prod_q31.c **** 
  29:Drivers/CMSIS/DSP/Source/BasicMathFunctions/arm_dot_prod_q31.c **** #include "arm_math.h"
  30:Drivers/CMSIS/DSP/Source/BasicMathFunctions/arm_dot_prod_q31.c **** 
ARM GAS  /var/folders/n6/c271nzx11xl4r4_m7sqjlt0m0000gn/T//ccXBi5wj.s 			page 2


  31:Drivers/CMSIS/DSP/Source/BasicMathFunctions/arm_dot_prod_q31.c **** /**
  32:Drivers/CMSIS/DSP/Source/BasicMathFunctions/arm_dot_prod_q31.c ****  * @ingroup groupMath
  33:Drivers/CMSIS/DSP/Source/BasicMathFunctions/arm_dot_prod_q31.c ****  */
  34:Drivers/CMSIS/DSP/Source/BasicMathFunctions/arm_dot_prod_q31.c **** 
  35:Drivers/CMSIS/DSP/Source/BasicMathFunctions/arm_dot_prod_q31.c **** /**
  36:Drivers/CMSIS/DSP/Source/BasicMathFunctions/arm_dot_prod_q31.c ****  * @addtogroup dot_prod
  37:Drivers/CMSIS/DSP/Source/BasicMathFunctions/arm_dot_prod_q31.c ****  * @{
  38:Drivers/CMSIS/DSP/Source/BasicMathFunctions/arm_dot_prod_q31.c ****  */
  39:Drivers/CMSIS/DSP/Source/BasicMathFunctions/arm_dot_prod_q31.c **** 
  40:Drivers/CMSIS/DSP/Source/BasicMathFunctions/arm_dot_prod_q31.c **** /**
  41:Drivers/CMSIS/DSP/Source/BasicMathFunctions/arm_dot_prod_q31.c ****  * @brief Dot product of Q31 vectors.
  42:Drivers/CMSIS/DSP/Source/BasicMathFunctions/arm_dot_prod_q31.c ****  * @param[in]       *pSrcA points to the first input vector
  43:Drivers/CMSIS/DSP/Source/BasicMathFunctions/arm_dot_prod_q31.c ****  * @param[in]       *pSrcB points to the second input vector
  44:Drivers/CMSIS/DSP/Source/BasicMathFunctions/arm_dot_prod_q31.c ****  * @param[in]       blockSize number of samples in each vector
  45:Drivers/CMSIS/DSP/Source/BasicMathFunctions/arm_dot_prod_q31.c ****  * @param[out]      *result output result returned here
  46:Drivers/CMSIS/DSP/Source/BasicMathFunctions/arm_dot_prod_q31.c ****  * @return none.
  47:Drivers/CMSIS/DSP/Source/BasicMathFunctions/arm_dot_prod_q31.c ****  *
  48:Drivers/CMSIS/DSP/Source/BasicMathFunctions/arm_dot_prod_q31.c ****  * <b>Scaling and Overflow Behavior:</b>
  49:Drivers/CMSIS/DSP/Source/BasicMathFunctions/arm_dot_prod_q31.c ****  * \par
  50:Drivers/CMSIS/DSP/Source/BasicMathFunctions/arm_dot_prod_q31.c ****  * The intermediate multiplications are in 1.31 x 1.31 = 2.62 format and these
  51:Drivers/CMSIS/DSP/Source/BasicMathFunctions/arm_dot_prod_q31.c ****  * are truncated to 2.48 format by discarding the lower 14 bits.
  52:Drivers/CMSIS/DSP/Source/BasicMathFunctions/arm_dot_prod_q31.c ****  * The 2.48 result is then added without saturation to a 64-bit accumulator in 16.48 format.
  53:Drivers/CMSIS/DSP/Source/BasicMathFunctions/arm_dot_prod_q31.c ****  * There are 15 guard bits in the accumulator and there is no risk of overflow as long as
  54:Drivers/CMSIS/DSP/Source/BasicMathFunctions/arm_dot_prod_q31.c ****  * the length of the vectors is less than 2^16 elements.
  55:Drivers/CMSIS/DSP/Source/BasicMathFunctions/arm_dot_prod_q31.c ****  * The return result is in 16.48 format.
  56:Drivers/CMSIS/DSP/Source/BasicMathFunctions/arm_dot_prod_q31.c ****  */
  57:Drivers/CMSIS/DSP/Source/BasicMathFunctions/arm_dot_prod_q31.c **** 
  58:Drivers/CMSIS/DSP/Source/BasicMathFunctions/arm_dot_prod_q31.c **** void arm_dot_prod_q31(
  59:Drivers/CMSIS/DSP/Source/BasicMathFunctions/arm_dot_prod_q31.c ****   q31_t * pSrcA,
  60:Drivers/CMSIS/DSP/Source/BasicMathFunctions/arm_dot_prod_q31.c ****   q31_t * pSrcB,
  61:Drivers/CMSIS/DSP/Source/BasicMathFunctions/arm_dot_prod_q31.c ****   uint32_t blockSize,
  62:Drivers/CMSIS/DSP/Source/BasicMathFunctions/arm_dot_prod_q31.c ****   q63_t * result)
  63:Drivers/CMSIS/DSP/Source/BasicMathFunctions/arm_dot_prod_q31.c **** {
  29              		.loc 1 63 1 view -0
  30              		.cfi_startproc
  31              		@ args = 0, pretend = 0, frame = 8
  32              		@ frame_needed = 0, uses_anonymous_args = 0
  33              		.loc 1 63 1 is_stmt 0 view .LVU1
  34 0000 2DE9F04F 		push	{r4, r5, r6, r7, r8, r9, r10, fp, lr}
  35              		.cfi_def_cfa_offset 36
  36              		.cfi_offset 4, -36
  37              		.cfi_offset 5, -32
  38              		.cfi_offset 6, -28
  39              		.cfi_offset 7, -24
  40              		.cfi_offset 8, -20
  41              		.cfi_offset 9, -16
  42              		.cfi_offset 10, -12
  43              		.cfi_offset 11, -8
  44              		.cfi_offset 14, -4
  45 0004 83B0     		sub	sp, sp, #12
  46              		.cfi_def_cfa_offset 48
  47 0006 8446     		mov	ip, r0
  48 0008 8E46     		mov	lr, r1
  49 000a 9246     		mov	r10, r2
  50 000c 1A46     		mov	r2, r3
  51              	.LVL1:
  64:Drivers/CMSIS/DSP/Source/BasicMathFunctions/arm_dot_prod_q31.c ****   q63_t sum = 0;                                 /* Temporary result storage */
ARM GAS  /var/folders/n6/c271nzx11xl4r4_m7sqjlt0m0000gn/T//ccXBi5wj.s 			page 3


  52              		.loc 1 64 3 is_stmt 1 view .LVU2
  65:Drivers/CMSIS/DSP/Source/BasicMathFunctions/arm_dot_prod_q31.c ****   uint32_t blkCnt;                               /* loop counter */
  53              		.loc 1 65 3 view .LVU3
  66:Drivers/CMSIS/DSP/Source/BasicMathFunctions/arm_dot_prod_q31.c **** 
  67:Drivers/CMSIS/DSP/Source/BasicMathFunctions/arm_dot_prod_q31.c **** 
  68:Drivers/CMSIS/DSP/Source/BasicMathFunctions/arm_dot_prod_q31.c **** #if defined (ARM_MATH_DSP)
  69:Drivers/CMSIS/DSP/Source/BasicMathFunctions/arm_dot_prod_q31.c **** 
  70:Drivers/CMSIS/DSP/Source/BasicMathFunctions/arm_dot_prod_q31.c **** /* Run the below code for Cortex-M4 and Cortex-M3 */
  71:Drivers/CMSIS/DSP/Source/BasicMathFunctions/arm_dot_prod_q31.c ****   q31_t inA1, inA2, inA3, inA4;
  54              		.loc 1 71 3 view .LVU4
  72:Drivers/CMSIS/DSP/Source/BasicMathFunctions/arm_dot_prod_q31.c ****   q31_t inB1, inB2, inB3, inB4;
  55              		.loc 1 72 3 view .LVU5
  73:Drivers/CMSIS/DSP/Source/BasicMathFunctions/arm_dot_prod_q31.c **** 
  74:Drivers/CMSIS/DSP/Source/BasicMathFunctions/arm_dot_prod_q31.c ****   /*loop Unrolling */
  75:Drivers/CMSIS/DSP/Source/BasicMathFunctions/arm_dot_prod_q31.c ****   blkCnt = blockSize >> 2U;
  56              		.loc 1 75 3 view .LVU6
  57              		.loc 1 75 10 is_stmt 0 view .LVU7
  58 000e 4FEA9A0B 		lsr	fp, r10, #2
  59              	.LVL2:
  76:Drivers/CMSIS/DSP/Source/BasicMathFunctions/arm_dot_prod_q31.c **** 
  77:Drivers/CMSIS/DSP/Source/BasicMathFunctions/arm_dot_prod_q31.c ****   /* First part of the processing with loop unrolling.  Compute 4 outputs at a time.
  78:Drivers/CMSIS/DSP/Source/BasicMathFunctions/arm_dot_prod_q31.c ****    ** a second loop below computes the remaining 1 to 3 samples. */
  79:Drivers/CMSIS/DSP/Source/BasicMathFunctions/arm_dot_prod_q31.c ****   while (blkCnt > 0U)
  60              		.loc 1 79 3 is_stmt 1 view .LVU8
  64:Drivers/CMSIS/DSP/Source/BasicMathFunctions/arm_dot_prod_q31.c ****   uint32_t blkCnt;                               /* loop counter */
  61              		.loc 1 64 9 is_stmt 0 view .LVU9
  62 0012 0023     		movs	r3, #0
  63              	.LVL3:
  64:Drivers/CMSIS/DSP/Source/BasicMathFunctions/arm_dot_prod_q31.c ****   uint32_t blkCnt;                               /* loop counter */
  64              		.loc 1 64 9 view .LVU10
  65 0014 1D46     		mov	r5, r3
  66 0016 CDF800A0 		str	r10, [sp]
  67 001a 0192     		str	r2, [sp, #4]
  68 001c 9946     		mov	r9, r3
  69              		.loc 1 79 9 view .LVU11
  70 001e 58E0     		b	.L2
  71              	.LVL4:
  72              	.L3:
  80:Drivers/CMSIS/DSP/Source/BasicMathFunctions/arm_dot_prod_q31.c ****   {
  81:Drivers/CMSIS/DSP/Source/BasicMathFunctions/arm_dot_prod_q31.c ****     /* C = A[0]* B[0] + A[1]* B[1] + A[2]* B[2] + .....+ A[blockSize-1]* B[blockSize-1] */
  82:Drivers/CMSIS/DSP/Source/BasicMathFunctions/arm_dot_prod_q31.c ****     /* Calculate dot product and then store the result in a temporary buffer. */
  83:Drivers/CMSIS/DSP/Source/BasicMathFunctions/arm_dot_prod_q31.c ****     inA1 = *pSrcA++;
  73              		.loc 1 83 5 is_stmt 1 view .LVU12
  74              		.loc 1 83 10 is_stmt 0 view .LVU13
  75 0020 DCF80070 		ldr	r7, [ip]
  76              	.LVL5:
  84:Drivers/CMSIS/DSP/Source/BasicMathFunctions/arm_dot_prod_q31.c ****     inA2 = *pSrcA++;
  77              		.loc 1 84 5 is_stmt 1 view .LVU14
  78              		.loc 1 84 10 is_stmt 0 view .LVU15
  79 0024 DCF80410 		ldr	r1, [ip, #4]
  80              	.LVL6:
  85:Drivers/CMSIS/DSP/Source/BasicMathFunctions/arm_dot_prod_q31.c ****     inA3 = *pSrcA++;
  81              		.loc 1 85 5 is_stmt 1 view .LVU16
  82              		.loc 1 85 10 is_stmt 0 view .LVU17
  83 0028 DCF80830 		ldr	r3, [ip, #8]
  84              	.LVL7:
  86:Drivers/CMSIS/DSP/Source/BasicMathFunctions/arm_dot_prod_q31.c ****     inA4 = *pSrcA++;
ARM GAS  /var/folders/n6/c271nzx11xl4r4_m7sqjlt0m0000gn/T//ccXBi5wj.s 			page 4


  85              		.loc 1 86 5 is_stmt 1 view .LVU18
  87:Drivers/CMSIS/DSP/Source/BasicMathFunctions/arm_dot_prod_q31.c ****     inB1 = *pSrcB++;
  86              		.loc 1 87 5 view .LVU19
  87              		.loc 1 87 10 is_stmt 0 view .LVU20
  88 002c DEF80000 		ldr	r0, [lr]
  89              	.LVL8:
  88:Drivers/CMSIS/DSP/Source/BasicMathFunctions/arm_dot_prod_q31.c ****     inB2 = *pSrcB++;
  90              		.loc 1 88 5 is_stmt 1 view .LVU21
  91              		.loc 1 88 10 is_stmt 0 view .LVU22
  92 0030 DEF80440 		ldr	r4, [lr, #4]
  93              	.LVL9:
  89:Drivers/CMSIS/DSP/Source/BasicMathFunctions/arm_dot_prod_q31.c ****     inB3 = *pSrcB++;
  94              		.loc 1 89 5 is_stmt 1 view .LVU23
  95              		.loc 1 89 10 is_stmt 0 view .LVU24
  96 0034 DEF80820 		ldr	r2, [lr, #8]
  97              	.LVL10:
  90:Drivers/CMSIS/DSP/Source/BasicMathFunctions/arm_dot_prod_q31.c ****     inB4 = *pSrcB++;
  98              		.loc 1 90 5 is_stmt 1 view .LVU25
  99              		.loc 1 90 10 is_stmt 0 view .LVU26
 100 0038 DEF80C60 		ldr	r6, [lr, #12]
 101              	.LVL11:
  91:Drivers/CMSIS/DSP/Source/BasicMathFunctions/arm_dot_prod_q31.c **** 
  92:Drivers/CMSIS/DSP/Source/BasicMathFunctions/arm_dot_prod_q31.c ****     sum += ((q63_t) inA1 * inB1) >> 14U;
 102              		.loc 1 92 5 is_stmt 1 view .LVU27
 103              		.loc 1 92 13 is_stmt 0 view .LVU28
 104 003c 4FEAE778 		asr	r8, r7, #31
 105              		.loc 1 92 26 view .LVU29
 106 0040 4FEAE07A 		asr	r10, r0, #31
 107 0044 00FB08F8 		mul	r8, r0, r8
 108 0048 07FB0A88 		mla	r8, r7, r10, r8
 109 004c A0FB0707 		umull	r0, r7, r0, r7
 110              	.LVL12:
 111              		.loc 1 92 26 view .LVU30
 112 0050 4744     		add	r7, r7, r8
 113              		.loc 1 92 34 view .LVU31
 114 0052 800B     		lsrs	r0, r0, #14
 115 0054 40EA8740 		orr	r0, r0, r7, lsl #18
 116              		.loc 1 92 9 view .LVU32
 117 0058 10EB0900 		adds	r0, r0, r9
 118 005c 45EBA737 		adc	r7, r5, r7, asr #14
 119              	.LVL13:
  93:Drivers/CMSIS/DSP/Source/BasicMathFunctions/arm_dot_prod_q31.c ****     sum += ((q63_t) inA2 * inB2) >> 14U;
 120              		.loc 1 93 5 is_stmt 1 view .LVU33
 121              		.loc 1 93 13 is_stmt 0 view .LVU34
 122 0060 CD17     		asrs	r5, r1, #31
 123              		.loc 1 93 26 view .LVU35
 124 0062 4FEAE478 		asr	r8, r4, #31
 125 0066 04FB05F5 		mul	r5, r4, r5
 126 006a 01FB0855 		mla	r5, r1, r8, r5
 127 006e A4FB0114 		umull	r1, r4, r4, r1
 128              	.LVL14:
 129              		.loc 1 93 26 view .LVU36
 130 0072 2C44     		add	r4, r4, r5
 131              		.loc 1 93 34 view .LVU37
 132 0074 890B     		lsrs	r1, r1, #14
 133 0076 41EA8441 		orr	r1, r1, r4, lsl #18
 134              		.loc 1 93 9 view .LVU38
ARM GAS  /var/folders/n6/c271nzx11xl4r4_m7sqjlt0m0000gn/T//ccXBi5wj.s 			page 5


 135 007a 0918     		adds	r1, r1, r0
 136 007c 47EBA434 		adc	r4, r7, r4, asr #14
 137              	.LVL15:
  94:Drivers/CMSIS/DSP/Source/BasicMathFunctions/arm_dot_prod_q31.c ****     sum += ((q63_t) inA3 * inB3) >> 14U;
 138              		.loc 1 94 5 is_stmt 1 view .LVU39
 139              		.loc 1 94 13 is_stmt 0 view .LVU40
 140 0080 D817     		asrs	r0, r3, #31
 141              		.loc 1 94 26 view .LVU41
 142 0082 D517     		asrs	r5, r2, #31
 143 0084 02FB00F0 		mul	r0, r2, r0
 144 0088 03FB0500 		mla	r0, r3, r5, r0
 145 008c A2FB0323 		umull	r2, r3, r2, r3
 146              	.LVL16:
 147              		.loc 1 94 26 view .LVU42
 148 0090 0344     		add	r3, r3, r0
 149              		.loc 1 94 34 view .LVU43
 150 0092 920B     		lsrs	r2, r2, #14
 151 0094 42EA8342 		orr	r2, r2, r3, lsl #18
 152              		.loc 1 94 9 view .LVU44
 153 0098 5218     		adds	r2, r2, r1
 154 009a 44EBA334 		adc	r4, r4, r3, asr #14
 155              	.LVL17:
  95:Drivers/CMSIS/DSP/Source/BasicMathFunctions/arm_dot_prod_q31.c ****     sum += ((q63_t) inA4 * inB4) >> 14U;
 156              		.loc 1 95 5 is_stmt 1 view .LVU45
 157              		.loc 1 95 13 is_stmt 0 view .LVU46
 158 009e DCF80C30 		ldr	r3, [ip, #12]
 159 00a2 DD17     		asrs	r5, r3, #31
 160              		.loc 1 95 26 view .LVU47
 161 00a4 F317     		asrs	r3, r6, #31
 162 00a6 06FB05F5 		mul	r5, r6, r5
 163 00aa DCF80C10 		ldr	r1, [ip, #12]
 164 00ae 01FB0355 		mla	r5, r1, r3, r5
 165 00b2 A6FB0163 		umull	r6, r3, r6, r1
 166              	.LVL18:
 167              		.loc 1 95 26 view .LVU48
 168 00b6 1D44     		add	r5, r5, r3
 169              		.loc 1 95 34 view .LVU49
 170 00b8 B60B     		lsrs	r6, r6, #14
 171 00ba 46EA8546 		orr	r6, r6, r5, lsl #18
 172              		.loc 1 95 9 view .LVU50
 173 00be 16EB0209 		adds	r9, r6, r2
 174 00c2 44EBA535 		adc	r5, r4, r5, asr #14
 175              	.LVL19:
  96:Drivers/CMSIS/DSP/Source/BasicMathFunctions/arm_dot_prod_q31.c **** 
  97:Drivers/CMSIS/DSP/Source/BasicMathFunctions/arm_dot_prod_q31.c ****     /* Decrement the loop counter */
  98:Drivers/CMSIS/DSP/Source/BasicMathFunctions/arm_dot_prod_q31.c ****     blkCnt--;
 176              		.loc 1 98 5 is_stmt 1 view .LVU51
 177              		.loc 1 98 11 is_stmt 0 view .LVU52
 178 00c6 0BF1FF3B 		add	fp, fp, #-1
 179              	.LVL20:
  90:Drivers/CMSIS/DSP/Source/BasicMathFunctions/arm_dot_prod_q31.c **** 
 180              		.loc 1 90 18 view .LVU53
 181 00ca 0EF1100E 		add	lr, lr, #16
 182              	.LVL21:
  86:Drivers/CMSIS/DSP/Source/BasicMathFunctions/arm_dot_prod_q31.c ****     inB1 = *pSrcB++;
 183              		.loc 1 86 18 view .LVU54
 184 00ce 0CF1100C 		add	ip, ip, #16
ARM GAS  /var/folders/n6/c271nzx11xl4r4_m7sqjlt0m0000gn/T//ccXBi5wj.s 			page 6


 185              	.LVL22:
 186              	.L2:
  79:Drivers/CMSIS/DSP/Source/BasicMathFunctions/arm_dot_prod_q31.c ****   {
 187              		.loc 1 79 17 is_stmt 1 view .LVU55
 188 00d2 BBF1000F 		cmp	fp, #0
 189 00d6 A3D1     		bne	.L3
  99:Drivers/CMSIS/DSP/Source/BasicMathFunctions/arm_dot_prod_q31.c ****   }
 100:Drivers/CMSIS/DSP/Source/BasicMathFunctions/arm_dot_prod_q31.c **** 
 101:Drivers/CMSIS/DSP/Source/BasicMathFunctions/arm_dot_prod_q31.c ****   /* If the blockSize is not a multiple of 4, compute any remaining output samples here.
 102:Drivers/CMSIS/DSP/Source/BasicMathFunctions/arm_dot_prod_q31.c ****    ** No loop unrolling is used. */
 103:Drivers/CMSIS/DSP/Source/BasicMathFunctions/arm_dot_prod_q31.c ****   blkCnt = blockSize % 0x4U;
 190              		.loc 1 103 10 is_stmt 0 view .LVU56
 191 00d8 DDF800A0 		ldr	r10, [sp]
 192 00dc 019A     		ldr	r2, [sp, #4]
 193 00de 4B46     		mov	r3, r9
 194              		.loc 1 103 3 is_stmt 1 view .LVU57
 195              		.loc 1 103 10 is_stmt 0 view .LVU58
 196 00e0 0AF00304 		and	r4, r10, #3
 197              	.LVL23:
 104:Drivers/CMSIS/DSP/Source/BasicMathFunctions/arm_dot_prod_q31.c **** 
 105:Drivers/CMSIS/DSP/Source/BasicMathFunctions/arm_dot_prod_q31.c **** #else
 106:Drivers/CMSIS/DSP/Source/BasicMathFunctions/arm_dot_prod_q31.c **** 
 107:Drivers/CMSIS/DSP/Source/BasicMathFunctions/arm_dot_prod_q31.c ****   /* Run the below code for Cortex-M0 */
 108:Drivers/CMSIS/DSP/Source/BasicMathFunctions/arm_dot_prod_q31.c **** 
 109:Drivers/CMSIS/DSP/Source/BasicMathFunctions/arm_dot_prod_q31.c ****   /* Initialize blkCnt with number of samples */
 110:Drivers/CMSIS/DSP/Source/BasicMathFunctions/arm_dot_prod_q31.c ****   blkCnt = blockSize;
 111:Drivers/CMSIS/DSP/Source/BasicMathFunctions/arm_dot_prod_q31.c **** 
 112:Drivers/CMSIS/DSP/Source/BasicMathFunctions/arm_dot_prod_q31.c **** #endif /* #if defined (ARM_MATH_DSP) */
 113:Drivers/CMSIS/DSP/Source/BasicMathFunctions/arm_dot_prod_q31.c **** 
 114:Drivers/CMSIS/DSP/Source/BasicMathFunctions/arm_dot_prod_q31.c **** 
 115:Drivers/CMSIS/DSP/Source/BasicMathFunctions/arm_dot_prod_q31.c ****   while (blkCnt > 0U)
 198              		.loc 1 115 3 is_stmt 1 view .LVU59
 199              		.loc 1 115 9 is_stmt 0 view .LVU60
 200 00e4 14E0     		b	.L4
 201              	.LVL24:
 202              	.L5:
 116:Drivers/CMSIS/DSP/Source/BasicMathFunctions/arm_dot_prod_q31.c ****   {
 117:Drivers/CMSIS/DSP/Source/BasicMathFunctions/arm_dot_prod_q31.c ****     /* C = A[0]* B[0] + A[1]* B[1] + A[2]* B[2] + .....+ A[blockSize-1]* B[blockSize-1] */
 118:Drivers/CMSIS/DSP/Source/BasicMathFunctions/arm_dot_prod_q31.c ****     /* Calculate dot product and then store the result in a temporary buffer. */
 119:Drivers/CMSIS/DSP/Source/BasicMathFunctions/arm_dot_prod_q31.c ****     sum += ((q63_t) * pSrcA++ * *pSrcB++) >> 14U;
 203              		.loc 1 119 5 is_stmt 1 view .LVU61
 204              		.loc 1 119 21 is_stmt 0 view .LVU62
 205 00e6 5CF8041B 		ldr	r1, [ip], #4
 206              	.LVL25:
 207              		.loc 1 119 13 view .LVU63
 208 00ea CF17     		asrs	r7, r1, #31
 209              	.LVL26:
 210              		.loc 1 119 33 view .LVU64
 211 00ec 5EF8046B 		ldr	r6, [lr], #4
 212              	.LVL27:
 213              		.loc 1 119 33 view .LVU65
 214 00f0 F017     		asrs	r0, r6, #31
 215              		.loc 1 119 31 view .LVU66
 216 00f2 01FB00F0 		mul	r0, r1, r0
 217 00f6 06FB0700 		mla	r0, r6, r7, r0
 218 00fa A1FB0616 		umull	r1, r6, r1, r6
 219 00fe 3044     		add	r0, r0, r6
ARM GAS  /var/folders/n6/c271nzx11xl4r4_m7sqjlt0m0000gn/T//ccXBi5wj.s 			page 7


 220              		.loc 1 119 43 view .LVU67
 221 0100 890B     		lsrs	r1, r1, #14
 222 0102 41EA8041 		orr	r1, r1, r0, lsl #18
 223              		.loc 1 119 9 view .LVU68
 224 0106 5918     		adds	r1, r3, r1
 225 0108 0B46     		mov	r3, r1
 226              	.LVL28:
 227              		.loc 1 119 9 view .LVU69
 228 010a 45EBA035 		adc	r5, r5, r0, asr #14
 229              	.LVL29:
 120:Drivers/CMSIS/DSP/Source/BasicMathFunctions/arm_dot_prod_q31.c **** 
 121:Drivers/CMSIS/DSP/Source/BasicMathFunctions/arm_dot_prod_q31.c ****     /* Decrement the loop counter */
 122:Drivers/CMSIS/DSP/Source/BasicMathFunctions/arm_dot_prod_q31.c ****     blkCnt--;
 230              		.loc 1 122 5 is_stmt 1 view .LVU70
 231              		.loc 1 122 11 is_stmt 0 view .LVU71
 232 010e 013C     		subs	r4, r4, #1
 233              	.LVL30:
 234              	.L4:
 115:Drivers/CMSIS/DSP/Source/BasicMathFunctions/arm_dot_prod_q31.c ****   {
 235              		.loc 1 115 17 is_stmt 1 view .LVU72
 236 0110 002C     		cmp	r4, #0
 237 0112 E8D1     		bne	.L5
 123:Drivers/CMSIS/DSP/Source/BasicMathFunctions/arm_dot_prod_q31.c ****   }
 124:Drivers/CMSIS/DSP/Source/BasicMathFunctions/arm_dot_prod_q31.c **** 
 125:Drivers/CMSIS/DSP/Source/BasicMathFunctions/arm_dot_prod_q31.c ****   /* Store the result in the destination buffer in 16.48 format */
 126:Drivers/CMSIS/DSP/Source/BasicMathFunctions/arm_dot_prod_q31.c ****   *result = sum;
 238              		.loc 1 126 3 view .LVU73
 239              		.loc 1 126 11 is_stmt 0 view .LVU74
 240 0114 1360     		str	r3, [r2]
 241 0116 5560     		str	r5, [r2, #4]
 127:Drivers/CMSIS/DSP/Source/BasicMathFunctions/arm_dot_prod_q31.c **** }
 242              		.loc 1 127 1 view .LVU75
 243 0118 03B0     		add	sp, sp, #12
 244              		.cfi_def_cfa_offset 36
 245              	.LVL31:
 246              		.loc 1 127 1 view .LVU76
 247              		@ sp needed
 248 011a BDE8F08F 		pop	{r4, r5, r6, r7, r8, r9, r10, fp, pc}
 249              		.loc 1 127 1 view .LVU77
 250              		.cfi_endproc
 251              	.LFE135:
 253              		.text
 254              	.Letext0:
 255              		.file 2 "/Users/killian/Library/Application Support/Code/User/globalStorage/bmd.stm32-for-vscode/@
 256              		.file 3 "/Users/killian/Library/Application Support/Code/User/globalStorage/bmd.stm32-for-vscode/@
 257              		.file 4 "Drivers/CMSIS/DSP/Include/arm_math.h"
ARM GAS  /var/folders/n6/c271nzx11xl4r4_m7sqjlt0m0000gn/T//ccXBi5wj.s 			page 8

