ARM GAS  /var/folders/n6/c271nzx11xl4r4_m7sqjlt0m0000gn/T//cccK8ChI.s 			page 1


   1              		.cpu cortex-m7
   2              		.arch armv7e-m
   3              		.fpu fpv5-d16
   4              		.eabi_attribute 28, 1
   5              		.eabi_attribute 20, 1
   6              		.eabi_attribute 21, 1
   7              		.eabi_attribute 23, 3
   8              		.eabi_attribute 24, 1
   9              		.eabi_attribute 25, 1
  10              		.eabi_attribute 26, 1
  11              		.eabi_attribute 30, 1
  12              		.eabi_attribute 34, 1
  13              		.eabi_attribute 18, 4
  14              		.file	"arm_cfft_radix2_q31.c"
  15              		.text
  16              	.Ltext0:
  17              		.cfi_sections	.debug_frame
  18              		.file 1 "Drivers/CMSIS/DSP/Source/TransformFunctions/arm_cfft_radix2_q31.c"
  19              		.section	.text.arm_radix2_butterfly_q31,"ax",%progbits
  20              		.align	1
  21              		.global	arm_radix2_butterfly_q31
  22              		.syntax unified
  23              		.thumb
  24              		.thumb_func
  26              	arm_radix2_butterfly_q31:
  27              	.LVL0:
  28              	.LFB136:
   1:Drivers/CMSIS/DSP/Source/TransformFunctions/arm_cfft_radix2_q31.c **** /* ----------------------------------------------------------------------
   2:Drivers/CMSIS/DSP/Source/TransformFunctions/arm_cfft_radix2_q31.c ****  * Project:      CMSIS DSP Library
   3:Drivers/CMSIS/DSP/Source/TransformFunctions/arm_cfft_radix2_q31.c ****  * Title:        arm_cfft_radix2_q31.c
   4:Drivers/CMSIS/DSP/Source/TransformFunctions/arm_cfft_radix2_q31.c ****  * Description:  Radix-2 Decimation in Frequency CFFT & CIFFT Fixed point processing function
   5:Drivers/CMSIS/DSP/Source/TransformFunctions/arm_cfft_radix2_q31.c ****  *
   6:Drivers/CMSIS/DSP/Source/TransformFunctions/arm_cfft_radix2_q31.c ****  * $Date:        27. January 2017
   7:Drivers/CMSIS/DSP/Source/TransformFunctions/arm_cfft_radix2_q31.c ****  * $Revision:    V.1.5.1
   8:Drivers/CMSIS/DSP/Source/TransformFunctions/arm_cfft_radix2_q31.c ****  *
   9:Drivers/CMSIS/DSP/Source/TransformFunctions/arm_cfft_radix2_q31.c ****  * Target Processor: Cortex-M cores
  10:Drivers/CMSIS/DSP/Source/TransformFunctions/arm_cfft_radix2_q31.c ****  * -------------------------------------------------------------------- */
  11:Drivers/CMSIS/DSP/Source/TransformFunctions/arm_cfft_radix2_q31.c **** /*
  12:Drivers/CMSIS/DSP/Source/TransformFunctions/arm_cfft_radix2_q31.c ****  * Copyright (C) 2010-2017 ARM Limited or its affiliates. All rights reserved.
  13:Drivers/CMSIS/DSP/Source/TransformFunctions/arm_cfft_radix2_q31.c ****  *
  14:Drivers/CMSIS/DSP/Source/TransformFunctions/arm_cfft_radix2_q31.c ****  * SPDX-License-Identifier: Apache-2.0
  15:Drivers/CMSIS/DSP/Source/TransformFunctions/arm_cfft_radix2_q31.c ****  *
  16:Drivers/CMSIS/DSP/Source/TransformFunctions/arm_cfft_radix2_q31.c ****  * Licensed under the Apache License, Version 2.0 (the License); you may
  17:Drivers/CMSIS/DSP/Source/TransformFunctions/arm_cfft_radix2_q31.c ****  * not use this file except in compliance with the License.
  18:Drivers/CMSIS/DSP/Source/TransformFunctions/arm_cfft_radix2_q31.c ****  * You may obtain a copy of the License at
  19:Drivers/CMSIS/DSP/Source/TransformFunctions/arm_cfft_radix2_q31.c ****  *
  20:Drivers/CMSIS/DSP/Source/TransformFunctions/arm_cfft_radix2_q31.c ****  * www.apache.org/licenses/LICENSE-2.0
  21:Drivers/CMSIS/DSP/Source/TransformFunctions/arm_cfft_radix2_q31.c ****  *
  22:Drivers/CMSIS/DSP/Source/TransformFunctions/arm_cfft_radix2_q31.c ****  * Unless required by applicable law or agreed to in writing, software
  23:Drivers/CMSIS/DSP/Source/TransformFunctions/arm_cfft_radix2_q31.c ****  * distributed under the License is distributed on an AS IS BASIS, WITHOUT
  24:Drivers/CMSIS/DSP/Source/TransformFunctions/arm_cfft_radix2_q31.c ****  * WARRANTIES OR CONDITIONS OF ANY KIND, either express or implied.
  25:Drivers/CMSIS/DSP/Source/TransformFunctions/arm_cfft_radix2_q31.c ****  * See the License for the specific language governing permissions and
  26:Drivers/CMSIS/DSP/Source/TransformFunctions/arm_cfft_radix2_q31.c ****  * limitations under the License.
  27:Drivers/CMSIS/DSP/Source/TransformFunctions/arm_cfft_radix2_q31.c ****  */
  28:Drivers/CMSIS/DSP/Source/TransformFunctions/arm_cfft_radix2_q31.c **** 
  29:Drivers/CMSIS/DSP/Source/TransformFunctions/arm_cfft_radix2_q31.c **** #include "arm_math.h"
  30:Drivers/CMSIS/DSP/Source/TransformFunctions/arm_cfft_radix2_q31.c **** 
ARM GAS  /var/folders/n6/c271nzx11xl4r4_m7sqjlt0m0000gn/T//cccK8ChI.s 			page 2


  31:Drivers/CMSIS/DSP/Source/TransformFunctions/arm_cfft_radix2_q31.c **** void arm_radix2_butterfly_q31(
  32:Drivers/CMSIS/DSP/Source/TransformFunctions/arm_cfft_radix2_q31.c ****   q31_t * pSrc,
  33:Drivers/CMSIS/DSP/Source/TransformFunctions/arm_cfft_radix2_q31.c ****   uint32_t fftLen,
  34:Drivers/CMSIS/DSP/Source/TransformFunctions/arm_cfft_radix2_q31.c ****   q31_t * pCoef,
  35:Drivers/CMSIS/DSP/Source/TransformFunctions/arm_cfft_radix2_q31.c ****   uint16_t twidCoefModifier);
  36:Drivers/CMSIS/DSP/Source/TransformFunctions/arm_cfft_radix2_q31.c **** 
  37:Drivers/CMSIS/DSP/Source/TransformFunctions/arm_cfft_radix2_q31.c **** void arm_radix2_butterfly_inverse_q31(
  38:Drivers/CMSIS/DSP/Source/TransformFunctions/arm_cfft_radix2_q31.c ****   q31_t * pSrc,
  39:Drivers/CMSIS/DSP/Source/TransformFunctions/arm_cfft_radix2_q31.c ****   uint32_t fftLen,
  40:Drivers/CMSIS/DSP/Source/TransformFunctions/arm_cfft_radix2_q31.c ****   q31_t * pCoef,
  41:Drivers/CMSIS/DSP/Source/TransformFunctions/arm_cfft_radix2_q31.c ****   uint16_t twidCoefModifier);
  42:Drivers/CMSIS/DSP/Source/TransformFunctions/arm_cfft_radix2_q31.c **** 
  43:Drivers/CMSIS/DSP/Source/TransformFunctions/arm_cfft_radix2_q31.c **** void arm_bitreversal_q31(
  44:Drivers/CMSIS/DSP/Source/TransformFunctions/arm_cfft_radix2_q31.c ****   q31_t * pSrc,
  45:Drivers/CMSIS/DSP/Source/TransformFunctions/arm_cfft_radix2_q31.c ****   uint32_t fftLen,
  46:Drivers/CMSIS/DSP/Source/TransformFunctions/arm_cfft_radix2_q31.c ****   uint16_t bitRevFactor,
  47:Drivers/CMSIS/DSP/Source/TransformFunctions/arm_cfft_radix2_q31.c ****   uint16_t * pBitRevTab);
  48:Drivers/CMSIS/DSP/Source/TransformFunctions/arm_cfft_radix2_q31.c **** 
  49:Drivers/CMSIS/DSP/Source/TransformFunctions/arm_cfft_radix2_q31.c **** /**
  50:Drivers/CMSIS/DSP/Source/TransformFunctions/arm_cfft_radix2_q31.c **** * @ingroup groupTransforms
  51:Drivers/CMSIS/DSP/Source/TransformFunctions/arm_cfft_radix2_q31.c **** */
  52:Drivers/CMSIS/DSP/Source/TransformFunctions/arm_cfft_radix2_q31.c **** 
  53:Drivers/CMSIS/DSP/Source/TransformFunctions/arm_cfft_radix2_q31.c **** /**
  54:Drivers/CMSIS/DSP/Source/TransformFunctions/arm_cfft_radix2_q31.c **** * @addtogroup ComplexFFT
  55:Drivers/CMSIS/DSP/Source/TransformFunctions/arm_cfft_radix2_q31.c **** * @{
  56:Drivers/CMSIS/DSP/Source/TransformFunctions/arm_cfft_radix2_q31.c **** */
  57:Drivers/CMSIS/DSP/Source/TransformFunctions/arm_cfft_radix2_q31.c **** 
  58:Drivers/CMSIS/DSP/Source/TransformFunctions/arm_cfft_radix2_q31.c **** /**
  59:Drivers/CMSIS/DSP/Source/TransformFunctions/arm_cfft_radix2_q31.c **** * @details
  60:Drivers/CMSIS/DSP/Source/TransformFunctions/arm_cfft_radix2_q31.c **** * @brief Processing function for the fixed-point CFFT/CIFFT.
  61:Drivers/CMSIS/DSP/Source/TransformFunctions/arm_cfft_radix2_q31.c **** * @deprecated Do not use this function.  It has been superseded by \ref arm_cfft_q31 and will be re
  62:Drivers/CMSIS/DSP/Source/TransformFunctions/arm_cfft_radix2_q31.c **** * @param[in]      *S    points to an instance of the fixed-point CFFT/CIFFT structure.
  63:Drivers/CMSIS/DSP/Source/TransformFunctions/arm_cfft_radix2_q31.c **** * @param[in, out] *pSrc points to the complex data buffer of size <code>2*fftLen</code>. Processing
  64:Drivers/CMSIS/DSP/Source/TransformFunctions/arm_cfft_radix2_q31.c **** * @return none.
  65:Drivers/CMSIS/DSP/Source/TransformFunctions/arm_cfft_radix2_q31.c **** */
  66:Drivers/CMSIS/DSP/Source/TransformFunctions/arm_cfft_radix2_q31.c **** 
  67:Drivers/CMSIS/DSP/Source/TransformFunctions/arm_cfft_radix2_q31.c **** void arm_cfft_radix2_q31(
  68:Drivers/CMSIS/DSP/Source/TransformFunctions/arm_cfft_radix2_q31.c **** const arm_cfft_radix2_instance_q31 * S,
  69:Drivers/CMSIS/DSP/Source/TransformFunctions/arm_cfft_radix2_q31.c **** q31_t * pSrc)
  70:Drivers/CMSIS/DSP/Source/TransformFunctions/arm_cfft_radix2_q31.c **** {
  71:Drivers/CMSIS/DSP/Source/TransformFunctions/arm_cfft_radix2_q31.c **** 
  72:Drivers/CMSIS/DSP/Source/TransformFunctions/arm_cfft_radix2_q31.c ****    if (S->ifftFlag == 1U)
  73:Drivers/CMSIS/DSP/Source/TransformFunctions/arm_cfft_radix2_q31.c ****    {
  74:Drivers/CMSIS/DSP/Source/TransformFunctions/arm_cfft_radix2_q31.c ****       arm_radix2_butterfly_inverse_q31(pSrc, S->fftLen,
  75:Drivers/CMSIS/DSP/Source/TransformFunctions/arm_cfft_radix2_q31.c ****       S->pTwiddle, S->twidCoefModifier);
  76:Drivers/CMSIS/DSP/Source/TransformFunctions/arm_cfft_radix2_q31.c ****    }
  77:Drivers/CMSIS/DSP/Source/TransformFunctions/arm_cfft_radix2_q31.c ****    else
  78:Drivers/CMSIS/DSP/Source/TransformFunctions/arm_cfft_radix2_q31.c ****    {
  79:Drivers/CMSIS/DSP/Source/TransformFunctions/arm_cfft_radix2_q31.c ****       arm_radix2_butterfly_q31(pSrc, S->fftLen,
  80:Drivers/CMSIS/DSP/Source/TransformFunctions/arm_cfft_radix2_q31.c ****       S->pTwiddle, S->twidCoefModifier);
  81:Drivers/CMSIS/DSP/Source/TransformFunctions/arm_cfft_radix2_q31.c ****    }
  82:Drivers/CMSIS/DSP/Source/TransformFunctions/arm_cfft_radix2_q31.c **** 
  83:Drivers/CMSIS/DSP/Source/TransformFunctions/arm_cfft_radix2_q31.c ****    arm_bitreversal_q31(pSrc, S->fftLen, S->bitRevFactor, S->pBitRevTable);
  84:Drivers/CMSIS/DSP/Source/TransformFunctions/arm_cfft_radix2_q31.c **** }
  85:Drivers/CMSIS/DSP/Source/TransformFunctions/arm_cfft_radix2_q31.c **** 
  86:Drivers/CMSIS/DSP/Source/TransformFunctions/arm_cfft_radix2_q31.c **** /**
  87:Drivers/CMSIS/DSP/Source/TransformFunctions/arm_cfft_radix2_q31.c **** * @} end of ComplexFFT group
ARM GAS  /var/folders/n6/c271nzx11xl4r4_m7sqjlt0m0000gn/T//cccK8ChI.s 			page 3


  88:Drivers/CMSIS/DSP/Source/TransformFunctions/arm_cfft_radix2_q31.c **** */
  89:Drivers/CMSIS/DSP/Source/TransformFunctions/arm_cfft_radix2_q31.c **** 
  90:Drivers/CMSIS/DSP/Source/TransformFunctions/arm_cfft_radix2_q31.c **** void arm_radix2_butterfly_q31(
  91:Drivers/CMSIS/DSP/Source/TransformFunctions/arm_cfft_radix2_q31.c **** q31_t * pSrc,
  92:Drivers/CMSIS/DSP/Source/TransformFunctions/arm_cfft_radix2_q31.c **** uint32_t fftLen,
  93:Drivers/CMSIS/DSP/Source/TransformFunctions/arm_cfft_radix2_q31.c **** q31_t * pCoef,
  94:Drivers/CMSIS/DSP/Source/TransformFunctions/arm_cfft_radix2_q31.c **** uint16_t twidCoefModifier)
  95:Drivers/CMSIS/DSP/Source/TransformFunctions/arm_cfft_radix2_q31.c **** {
  29              		.loc 1 95 1 view -0
  30              		.cfi_startproc
  31              		@ args = 0, pretend = 0, frame = 40
  32              		@ frame_needed = 0, uses_anonymous_args = 0
  33              		.loc 1 95 1 is_stmt 0 view .LVU1
  34 0000 2DE9F04F 		push	{r4, r5, r6, r7, r8, r9, r10, fp, lr}
  35              		.cfi_def_cfa_offset 36
  36              		.cfi_offset 4, -36
  37              		.cfi_offset 5, -32
  38              		.cfi_offset 6, -28
  39              		.cfi_offset 7, -24
  40              		.cfi_offset 8, -20
  41              		.cfi_offset 9, -16
  42              		.cfi_offset 10, -12
  43              		.cfi_offset 11, -8
  44              		.cfi_offset 14, -4
  45 0004 8BB0     		sub	sp, sp, #44
  46              		.cfi_def_cfa_offset 80
  47 0006 8146     		mov	r9, r0
  48 0008 0193     		str	r3, [sp, #4]
  96:Drivers/CMSIS/DSP/Source/TransformFunctions/arm_cfft_radix2_q31.c **** 
  97:Drivers/CMSIS/DSP/Source/TransformFunctions/arm_cfft_radix2_q31.c ****    unsigned i, j, k, l, m;
  49              		.loc 1 97 4 is_stmt 1 view .LVU2
  98:Drivers/CMSIS/DSP/Source/TransformFunctions/arm_cfft_radix2_q31.c ****    unsigned n1, n2, ia;
  50              		.loc 1 98 4 view .LVU3
  99:Drivers/CMSIS/DSP/Source/TransformFunctions/arm_cfft_radix2_q31.c ****    q31_t xt, yt, cosVal, sinVal;
  51              		.loc 1 99 4 view .LVU4
 100:Drivers/CMSIS/DSP/Source/TransformFunctions/arm_cfft_radix2_q31.c ****    q31_t p0, p1;
  52              		.loc 1 100 4 view .LVU5
 101:Drivers/CMSIS/DSP/Source/TransformFunctions/arm_cfft_radix2_q31.c **** 
 102:Drivers/CMSIS/DSP/Source/TransformFunctions/arm_cfft_radix2_q31.c ****    //N = fftLen;
 103:Drivers/CMSIS/DSP/Source/TransformFunctions/arm_cfft_radix2_q31.c ****    n2 = fftLen;
  53              		.loc 1 103 4 view .LVU6
  54              	.LVL1:
 104:Drivers/CMSIS/DSP/Source/TransformFunctions/arm_cfft_radix2_q31.c **** 
 105:Drivers/CMSIS/DSP/Source/TransformFunctions/arm_cfft_radix2_q31.c ****    n1 = n2;
  55              		.loc 1 105 4 view .LVU7
 106:Drivers/CMSIS/DSP/Source/TransformFunctions/arm_cfft_radix2_q31.c ****    n2 = n2 >> 1;
  56              		.loc 1 106 4 view .LVU8
  57              		.loc 1 106 7 is_stmt 0 view .LVU9
  58 000a 4B08     		lsrs	r3, r1, #1
  59              	.LVL2:
  60              		.loc 1 106 7 view .LVU10
  61 000c 0293     		str	r3, [sp, #8]
  62              	.LVL3:
 107:Drivers/CMSIS/DSP/Source/TransformFunctions/arm_cfft_radix2_q31.c ****    ia = 0;
  63              		.loc 1 107 4 is_stmt 1 view .LVU11
 108:Drivers/CMSIS/DSP/Source/TransformFunctions/arm_cfft_radix2_q31.c **** 
 109:Drivers/CMSIS/DSP/Source/TransformFunctions/arm_cfft_radix2_q31.c ****    // loop for groups
ARM GAS  /var/folders/n6/c271nzx11xl4r4_m7sqjlt0m0000gn/T//cccK8ChI.s 			page 4


 110:Drivers/CMSIS/DSP/Source/TransformFunctions/arm_cfft_radix2_q31.c ****    for (i = 0; i < n2; i++)
  64              		.loc 1 110 4 view .LVU12
 107:Drivers/CMSIS/DSP/Source/TransformFunctions/arm_cfft_radix2_q31.c ****    ia = 0;
  65              		.loc 1 107 7 is_stmt 0 view .LVU13
  66 000e 4FF00008 		mov	r8, #0
  67              		.loc 1 110 11 view .LVU14
  68 0012 C246     		mov	r10, r8
  69 0014 0491     		str	r1, [sp, #16]
  70 0016 0392     		str	r2, [sp, #12]
  71              		.loc 1 110 4 view .LVU15
  72 0018 66E0     		b	.L2
  73              	.LVL4:
  74              	.L3:
 111:Drivers/CMSIS/DSP/Source/TransformFunctions/arm_cfft_radix2_q31.c ****    {
 112:Drivers/CMSIS/DSP/Source/TransformFunctions/arm_cfft_radix2_q31.c ****       cosVal = pCoef[ia * 2];
  75              		.loc 1 112 7 is_stmt 1 view .LVU16
  76              		.loc 1 112 21 is_stmt 0 view .LVU17
  77 001a 4FEAC803 		lsl	r3, r8, #3
  78              		.loc 1 112 14 view .LVU18
  79 001e 039A     		ldr	r2, [sp, #12]
  80 0020 52F83810 		ldr	r1, [r2, r8, lsl #3]
  81              	.LVL5:
 113:Drivers/CMSIS/DSP/Source/TransformFunctions/arm_cfft_radix2_q31.c ****       sinVal = pCoef[(ia * 2) + 1];
  82              		.loc 1 113 7 is_stmt 1 view .LVU19
  83              		.loc 1 113 21 is_stmt 0 view .LVU20
  84 0024 0433     		adds	r3, r3, #4
  85              		.loc 1 113 14 view .LVU21
  86 0026 D258     		ldr	r2, [r2, r3]
  87              	.LVL6:
 114:Drivers/CMSIS/DSP/Source/TransformFunctions/arm_cfft_radix2_q31.c ****       ia = ia + twidCoefModifier;
  88              		.loc 1 114 7 is_stmt 1 view .LVU22
  89              		.loc 1 114 10 is_stmt 0 view .LVU23
  90 0028 019B     		ldr	r3, [sp, #4]
  91 002a 9844     		add	r8, r8, r3
  92              	.LVL7:
 115:Drivers/CMSIS/DSP/Source/TransformFunctions/arm_cfft_radix2_q31.c **** 
 116:Drivers/CMSIS/DSP/Source/TransformFunctions/arm_cfft_radix2_q31.c ****       l = i + n2;
  93              		.loc 1 116 7 is_stmt 1 view .LVU24
  94              		.loc 1 116 9 is_stmt 0 view .LVU25
  95 002c 029B     		ldr	r3, [sp, #8]
  96 002e 0AEB0307 		add	r7, r10, r3
  97              	.LVL8:
 117:Drivers/CMSIS/DSP/Source/TransformFunctions/arm_cfft_radix2_q31.c ****       xt = (pSrc[2 * i] >> 1U) - (pSrc[2 * l] >> 1U);
  98              		.loc 1 117 7 is_stmt 1 view .LVU26
  99              		.loc 1 117 17 is_stmt 0 view .LVU27
 100 0032 4FEACA04 		lsl	r4, r10, #3
 101 0036 59F83A50 		ldr	r5, [r9, r10, lsl #3]
 102              		.loc 1 117 39 view .LVU28
 103 003a FE00     		lsls	r6, r7, #3
 104 003c 59F83730 		ldr	r3, [r9, r7, lsl #3]
 105              		.loc 1 117 47 view .LVU29
 106 0040 5B10     		asrs	r3, r3, #1
 107              		.loc 1 117 10 view .LVU30
 108 0042 C3EB6500 		rsb	r0, r3, r5, asr #1
 109              	.LVL9:
 118:Drivers/CMSIS/DSP/Source/TransformFunctions/arm_cfft_radix2_q31.c ****       pSrc[2 * i] = ((pSrc[2 * i] >> 1U) + (pSrc[2 * l] >> 1U)) >> 1U;
 110              		.loc 1 118 7 is_stmt 1 view .LVU31
ARM GAS  /var/folders/n6/c271nzx11xl4r4_m7sqjlt0m0000gn/T//cccK8ChI.s 			page 5


 111              		.loc 1 118 42 is_stmt 0 view .LVU32
 112 0046 03EB6503 		add	r3, r3, r5, asr #1
 113              		.loc 1 118 65 view .LVU33
 114 004a 5B10     		asrs	r3, r3, #1
 115              		.loc 1 118 19 view .LVU34
 116 004c 49F83A30 		str	r3, [r9, r10, lsl #3]
 119:Drivers/CMSIS/DSP/Source/TransformFunctions/arm_cfft_radix2_q31.c **** 
 120:Drivers/CMSIS/DSP/Source/TransformFunctions/arm_cfft_radix2_q31.c ****       yt = (pSrc[2 * i + 1] >> 1U) - (pSrc[2 * l + 1] >> 1U);
 117              		.loc 1 120 7 is_stmt 1 view .LVU35
 118              		.loc 1 120 17 is_stmt 0 view .LVU36
 119 0050 0434     		adds	r4, r4, #4
 120 0052 59F80450 		ldr	r5, [r9, r4]
 121              		.loc 1 120 43 view .LVU37
 122 0056 0436     		adds	r6, r6, #4
 123 0058 59F80630 		ldr	r3, [r9, r6]
 124              		.loc 1 120 55 view .LVU38
 125 005c 4FEA630C 		asr	ip, r3, #1
 126              		.loc 1 120 10 view .LVU39
 127 0060 CCEB6503 		rsb	r3, ip, r5, asr #1
 128              	.LVL10:
 121:Drivers/CMSIS/DSP/Source/TransformFunctions/arm_cfft_radix2_q31.c ****       pSrc[2 * i + 1] =
 129              		.loc 1 121 7 is_stmt 1 view .LVU40
 122:Drivers/CMSIS/DSP/Source/TransformFunctions/arm_cfft_radix2_q31.c ****         ((pSrc[2 * l + 1] >> 1U) + (pSrc[2 * i + 1] >> 1U)) >> 1U;
 130              		.loc 1 122 34 is_stmt 0 view .LVU41
 131 0064 0CEB6505 		add	r5, ip, r5, asr #1
 132              		.loc 1 122 61 view .LVU42
 133 0068 6D10     		asrs	r5, r5, #1
 121:Drivers/CMSIS/DSP/Source/TransformFunctions/arm_cfft_radix2_q31.c ****       pSrc[2 * i + 1] =
 134              		.loc 1 121 23 view .LVU43
 135 006a 49F80450 		str	r5, [r9, r4]
 123:Drivers/CMSIS/DSP/Source/TransformFunctions/arm_cfft_radix2_q31.c **** 
 124:Drivers/CMSIS/DSP/Source/TransformFunctions/arm_cfft_radix2_q31.c ****       mult_32x32_keep32_R(p0, xt, cosVal);
 136              		.loc 1 124 7 is_stmt 1 view .LVU44
 137 006e 4FEAE07E 		asr	lr, r0, #31
 138 0072 CD17     		asrs	r5, r1, #31
 139 0074 00FB05FC 		mul	ip, r0, r5
 140 0078 01FB0ECC 		mla	ip, r1, lr, ip
 141 007c A0FB014B 		umull	r4, fp, r0, r1
 142 0080 14F10044 		adds	r4, r4, #-2147483648
 143 0084 4CEB0B04 		adc	r4, ip, fp
 144 0088 0094     		str	r4, [sp]
 145              	.LVL11:
 125:Drivers/CMSIS/DSP/Source/TransformFunctions/arm_cfft_radix2_q31.c ****       mult_32x32_keep32_R(p1, yt, cosVal);
 146              		.loc 1 125 7 view .LVU45
 147 008a 4FEAE37B 		asr	fp, r3, #31
 148 008e 01FB0BF4 		mul	r4, r1, fp
 149 0092 03FB0544 		mla	r4, r3, r5, r4
 150 0096 A1FB0315 		umull	r1, r5, r1, r3
 151              	.LVL12:
 152              		.loc 1 125 7 is_stmt 0 view .LVU46
 153 009a 11F10041 		adds	r1, r1, #-2147483648
 154 009e 44EB0504 		adc	r4, r4, r5
 155              	.LVL13:
 126:Drivers/CMSIS/DSP/Source/TransformFunctions/arm_cfft_radix2_q31.c ****       multAcc_32x32_keep32_R(p0, yt, sinVal);
 156              		.loc 1 126 7 is_stmt 1 view .LVU47
 157 00a2 0021     		movs	r1, #0
 158 00a4 D517     		asrs	r5, r2, #31
ARM GAS  /var/folders/n6/c271nzx11xl4r4_m7sqjlt0m0000gn/T//cccK8ChI.s 			page 6


 159 00a6 03FB05FC 		mul	ip, r3, r5
 160 00aa 02FB0BCC 		mla	ip, r2, fp, ip
 161 00ae A3FB023B 		umull	r3, fp, r3, r2
 162              	.LVL14:
 163              		.loc 1 126 7 is_stmt 0 view .LVU48
 164 00b2 E344     		add	fp, fp, ip
 165 00b4 CB18     		adds	r3, r1, r3
 166 00b6 13F10043 		adds	r3, r3, #-2147483648
 167 00ba 009B     		ldr	r3, [sp]
 168 00bc 4BEB0303 		adc	r3, fp, r3
 169              	.LVL15:
 127:Drivers/CMSIS/DSP/Source/TransformFunctions/arm_cfft_radix2_q31.c ****       multSub_32x32_keep32_R(p1, xt, sinVal);
 170              		.loc 1 127 7 is_stmt 1 view .LVU49
 171 00c0 00FB05F5 		mul	r5, r0, r5
 172 00c4 02FB0E55 		mla	r5, r2, lr, r5
 173 00c8 A0FB0202 		umull	r0, r2, r0, r2
 174              	.LVL16:
 175              		.loc 1 127 7 is_stmt 0 view .LVU50
 176 00cc 2A44     		add	r2, r2, r5
 177 00ce 091A     		subs	r1, r1, r0
 178 00d0 64EB0202 		sbc	r2, r4, r2
 179 00d4 11F10041 		adds	r1, r1, #-2147483648
 180 00d8 42F10002 		adc	r2, r2, #0
 181              	.LVL17:
 128:Drivers/CMSIS/DSP/Source/TransformFunctions/arm_cfft_radix2_q31.c **** 
 129:Drivers/CMSIS/DSP/Source/TransformFunctions/arm_cfft_radix2_q31.c ****       pSrc[2U * l] = p0;
 182              		.loc 1 129 7 is_stmt 1 view .LVU51
 183              		.loc 1 129 20 is_stmt 0 view .LVU52
 184 00dc 49F83730 		str	r3, [r9, r7, lsl #3]
 130:Drivers/CMSIS/DSP/Source/TransformFunctions/arm_cfft_radix2_q31.c ****       pSrc[2U * l + 1U] = p1;
 185              		.loc 1 130 7 is_stmt 1 view .LVU53
 186              		.loc 1 130 25 is_stmt 0 view .LVU54
 187 00e0 49F80620 		str	r2, [r9, r6]
 110:Drivers/CMSIS/DSP/Source/TransformFunctions/arm_cfft_radix2_q31.c ****    {
 188              		.loc 1 110 25 is_stmt 1 discriminator 3 view .LVU55
 189 00e4 0AF1010A 		add	r10, r10, #1
 190              	.LVL18:
 191              	.L2:
 110:Drivers/CMSIS/DSP/Source/TransformFunctions/arm_cfft_radix2_q31.c ****    {
 192              		.loc 1 110 18 discriminator 1 view .LVU56
 193 00e8 029B     		ldr	r3, [sp, #8]
 194 00ea 9A45     		cmp	r10, r3
 195 00ec 95D3     		bcc	.L3
 131:Drivers/CMSIS/DSP/Source/TransformFunctions/arm_cfft_radix2_q31.c **** 
 132:Drivers/CMSIS/DSP/Source/TransformFunctions/arm_cfft_radix2_q31.c ****    }                             // groups loop end
 133:Drivers/CMSIS/DSP/Source/TransformFunctions/arm_cfft_radix2_q31.c **** 
 134:Drivers/CMSIS/DSP/Source/TransformFunctions/arm_cfft_radix2_q31.c ****    twidCoefModifier <<= 1U;
 196              		.loc 1 134 21 is_stmt 0 view .LVU57
 197 00ee DDF810E0 		ldr	lr, [sp, #16]
 198 00f2 DDF80CB0 		ldr	fp, [sp, #12]
 199              		.loc 1 134 4 is_stmt 1 view .LVU58
 200              		.loc 1 134 21 is_stmt 0 view .LVU59
 201 00f6 019B     		ldr	r3, [sp, #4]
 202 00f8 5B00     		lsls	r3, r3, #1
 203 00fa 99B2     		uxth	r1, r3
 204              	.LVL19:
 135:Drivers/CMSIS/DSP/Source/TransformFunctions/arm_cfft_radix2_q31.c **** 
ARM GAS  /var/folders/n6/c271nzx11xl4r4_m7sqjlt0m0000gn/T//cccK8ChI.s 			page 7


 136:Drivers/CMSIS/DSP/Source/TransformFunctions/arm_cfft_radix2_q31.c ****    // loop for stage
 137:Drivers/CMSIS/DSP/Source/TransformFunctions/arm_cfft_radix2_q31.c ****    for (k = fftLen / 2; k > 2; k = k >> 1)
 205              		.loc 1 137 4 is_stmt 1 view .LVU60
 206              		.loc 1 137 11 is_stmt 0 view .LVU61
 207 00fc 4FEA5E02 		lsr	r2, lr, #1
 208              	.LVL20:
 209              		.loc 1 137 11 view .LVU62
 210 0100 CDF820E0 		str	lr, [sp, #32]
 211              		.loc 1 137 4 view .LVU63
 212 0104 7CE0     		b	.L4
 213              	.LVL21:
 214              	.L7:
 138:Drivers/CMSIS/DSP/Source/TransformFunctions/arm_cfft_radix2_q31.c ****    {
 139:Drivers/CMSIS/DSP/Source/TransformFunctions/arm_cfft_radix2_q31.c ****       n1 = n2;
 140:Drivers/CMSIS/DSP/Source/TransformFunctions/arm_cfft_radix2_q31.c ****       n2 = n2 >> 1;
 141:Drivers/CMSIS/DSP/Source/TransformFunctions/arm_cfft_radix2_q31.c ****       ia = 0;
 142:Drivers/CMSIS/DSP/Source/TransformFunctions/arm_cfft_radix2_q31.c **** 
 143:Drivers/CMSIS/DSP/Source/TransformFunctions/arm_cfft_radix2_q31.c ****       // loop for groups
 144:Drivers/CMSIS/DSP/Source/TransformFunctions/arm_cfft_radix2_q31.c ****       for (j = 0; j < n2; j++)
 145:Drivers/CMSIS/DSP/Source/TransformFunctions/arm_cfft_radix2_q31.c ****       {
 146:Drivers/CMSIS/DSP/Source/TransformFunctions/arm_cfft_radix2_q31.c ****          cosVal = pCoef[ia * 2];
 215              		.loc 1 146 10 is_stmt 1 view .LVU64
 216              		.loc 1 146 24 is_stmt 0 view .LVU65
 217 0106 C200     		lsls	r2, r0, #3
 218              		.loc 1 146 17 view .LVU66
 219 0108 5BF83040 		ldr	r4, [fp, r0, lsl #3]
 220              	.LVL22:
 147:Drivers/CMSIS/DSP/Source/TransformFunctions/arm_cfft_radix2_q31.c ****          sinVal = pCoef[(ia * 2) + 1];
 221              		.loc 1 147 10 is_stmt 1 view .LVU67
 222              		.loc 1 147 24 is_stmt 0 view .LVU68
 223 010c 0432     		adds	r2, r2, #4
 224              		.loc 1 147 17 view .LVU69
 225 010e 5BF802A0 		ldr	r10, [fp, r2]
 226              	.LVL23:
 148:Drivers/CMSIS/DSP/Source/TransformFunctions/arm_cfft_radix2_q31.c ****          ia = ia + twidCoefModifier;
 227              		.loc 1 148 10 is_stmt 1 view .LVU70
 228              		.loc 1 148 13 is_stmt 0 view .LVU71
 229 0112 079B     		ldr	r3, [sp, #28]
 230 0114 1844     		add	r0, r0, r3
 231              	.LVL24:
 149:Drivers/CMSIS/DSP/Source/TransformFunctions/arm_cfft_radix2_q31.c **** 
 150:Drivers/CMSIS/DSP/Source/TransformFunctions/arm_cfft_radix2_q31.c ****          // loop for butterfly
 151:Drivers/CMSIS/DSP/Source/TransformFunctions/arm_cfft_radix2_q31.c ****          i = j;
 232              		.loc 1 151 10 is_stmt 1 view .LVU72
 152:Drivers/CMSIS/DSP/Source/TransformFunctions/arm_cfft_radix2_q31.c ****          m = fftLen / n1;
 233              		.loc 1 152 10 view .LVU73
 234              		.loc 1 152 12 is_stmt 0 view .LVU74
 235 0116 089B     		ldr	r3, [sp, #32]
 236 0118 029A     		ldr	r2, [sp, #8]
 237 011a B3FBF2F3 		udiv	r3, r3, r2
 238 011e 0093     		str	r3, [sp]
 239              	.LVL25:
 151:Drivers/CMSIS/DSP/Source/TransformFunctions/arm_cfft_radix2_q31.c ****          m = fftLen / n1;
 240              		.loc 1 151 12 view .LVU75
 241 0120 3D46     		mov	r5, r7
 242 0122 0497     		str	r7, [sp, #16]
 243 0124 0590     		str	r0, [sp, #20]
ARM GAS  /var/folders/n6/c271nzx11xl4r4_m7sqjlt0m0000gn/T//cccK8ChI.s 			page 8


 244 0126 CDF818B0 		str	fp, [sp, #24]
 245              	.LVL26:
 246              	.L6:
 153:Drivers/CMSIS/DSP/Source/TransformFunctions/arm_cfft_radix2_q31.c ****          do
 247              		.loc 1 153 10 is_stmt 1 view .LVU76
 154:Drivers/CMSIS/DSP/Source/TransformFunctions/arm_cfft_radix2_q31.c ****          {
 155:Drivers/CMSIS/DSP/Source/TransformFunctions/arm_cfft_radix2_q31.c ****             l = i + n2;
 248              		.loc 1 155 13 view .LVU77
 249              		.loc 1 155 15 is_stmt 0 view .LVU78
 250 012a 039B     		ldr	r3, [sp, #12]
 251 012c 05EB030C 		add	ip, r5, r3
 252              	.LVL27:
 156:Drivers/CMSIS/DSP/Source/TransformFunctions/arm_cfft_radix2_q31.c ****             xt = pSrc[2 * i] - pSrc[2 * l];
 253              		.loc 1 156 13 is_stmt 1 view .LVU79
 254              		.loc 1 156 22 is_stmt 0 view .LVU80
 255 0130 E900     		lsls	r1, r5, #3
 256 0132 59F83530 		ldr	r3, [r9, r5, lsl #3]
 257              		.loc 1 156 36 view .LVU81
 258 0136 4FEACC06 		lsl	r6, ip, #3
 259 013a 59F83C20 		ldr	r2, [r9, ip, lsl #3]
 260              		.loc 1 156 16 view .LVU82
 261 013e 981A     		subs	r0, r3, r2
 262              	.LVL28:
 157:Drivers/CMSIS/DSP/Source/TransformFunctions/arm_cfft_radix2_q31.c ****             pSrc[2 * i] = (pSrc[2 * i] + pSrc[2 * l]) >> 1U;
 263              		.loc 1 157 13 is_stmt 1 view .LVU83
 264              		.loc 1 157 40 is_stmt 0 view .LVU84
 265 0140 1344     		add	r3, r3, r2
 266              		.loc 1 157 55 view .LVU85
 267 0142 5B10     		asrs	r3, r3, #1
 268              		.loc 1 157 25 view .LVU86
 269 0144 49F83530 		str	r3, [r9, r5, lsl #3]
 158:Drivers/CMSIS/DSP/Source/TransformFunctions/arm_cfft_radix2_q31.c **** 
 159:Drivers/CMSIS/DSP/Source/TransformFunctions/arm_cfft_radix2_q31.c ****             yt = pSrc[2 * i + 1] - pSrc[2 * l + 1];
 270              		.loc 1 159 13 is_stmt 1 view .LVU87
 271              		.loc 1 159 22 is_stmt 0 view .LVU88
 272 0148 0431     		adds	r1, r1, #4
 273 014a 59F80120 		ldr	r2, [r9, r1]
 274              		.loc 1 159 40 view .LVU89
 275 014e 06F10408 		add	r8, r6, #4
 276 0152 59F80860 		ldr	r6, [r9, r8]
 277              		.loc 1 159 16 view .LVU90
 278 0156 931B     		subs	r3, r2, r6
 279              	.LVL29:
 160:Drivers/CMSIS/DSP/Source/TransformFunctions/arm_cfft_radix2_q31.c ****             pSrc[2 * i + 1] = (pSrc[2 * l + 1] + pSrc[2 * i + 1]) >> 1U;
 280              		.loc 1 160 13 is_stmt 1 view .LVU91
 281              		.loc 1 160 48 is_stmt 0 view .LVU92
 282 0158 3244     		add	r2, r2, r6
 283              		.loc 1 160 67 view .LVU93
 284 015a 5210     		asrs	r2, r2, #1
 285              		.loc 1 160 29 view .LVU94
 286 015c 49F80120 		str	r2, [r9, r1]
 161:Drivers/CMSIS/DSP/Source/TransformFunctions/arm_cfft_radix2_q31.c **** 
 162:Drivers/CMSIS/DSP/Source/TransformFunctions/arm_cfft_radix2_q31.c ****             mult_32x32_keep32_R(p0, xt, cosVal);
 287              		.loc 1 162 13 is_stmt 1 view .LVU95
 288 0160 C217     		asrs	r2, r0, #31
 289 0162 E117     		asrs	r1, r4, #31
 290 0164 00FB01F7 		mul	r7, r0, r1
ARM GAS  /var/folders/n6/c271nzx11xl4r4_m7sqjlt0m0000gn/T//cccK8ChI.s 			page 9


 291 0168 0192     		str	r2, [sp, #4]
 292 016a 04FB0277 		mla	r7, r4, r2, r7
 293 016e A0FB0426 		umull	r2, r6, r0, r4
 294 0172 12F10042 		adds	r2, r2, #-2147483648
 295 0176 47EB0607 		adc	r7, r7, r6
 296              	.LVL30:
 163:Drivers/CMSIS/DSP/Source/TransformFunctions/arm_cfft_radix2_q31.c ****             mult_32x32_keep32_R(p1, yt, cosVal);
 297              		.loc 1 163 13 view .LVU96
 298 017a 4FEAE37B 		asr	fp, r3, #31
 299 017e 04FB0BF6 		mul	r6, r4, fp
 300 0182 03FB0166 		mla	r6, r3, r1, r6
 301 0186 A4FB0321 		umull	r2, r1, r4, r3
 302 018a 12F10042 		adds	r2, r2, #-2147483648
 303 018e 46EB0106 		adc	r6, r6, r1
 304              	.LVL31:
 164:Drivers/CMSIS/DSP/Source/TransformFunctions/arm_cfft_radix2_q31.c ****             multAcc_32x32_keep32_R(p0, yt, sinVal);
 305              		.loc 1 164 13 view .LVU97
 306 0192 0021     		movs	r1, #0
 307 0194 4FEAEA72 		asr	r2, r10, #31
 308 0198 03FB02FE 		mul	lr, r3, r2
 309 019c 0AFB0BEE 		mla	lr, r10, fp, lr
 310 01a0 A3FB0A3B 		umull	r3, fp, r3, r10
 311              	.LVL32:
 312              		.loc 1 164 13 is_stmt 0 view .LVU98
 313 01a4 F344     		add	fp, fp, lr
 314 01a6 CB18     		adds	r3, r1, r3
 315 01a8 13F10043 		adds	r3, r3, #-2147483648
 316 01ac 4BEB0703 		adc	r3, fp, r7
 317              	.LVL33:
 165:Drivers/CMSIS/DSP/Source/TransformFunctions/arm_cfft_radix2_q31.c ****             multSub_32x32_keep32_R(p1, xt, sinVal);
 318              		.loc 1 165 13 is_stmt 1 view .LVU99
 319 01b0 00FB02F2 		mul	r2, r0, r2
 320 01b4 019F     		ldr	r7, [sp, #4]
 321 01b6 0AFB0722 		mla	r2, r10, r7, r2
 322 01ba A0FB0A07 		umull	r0, r7, r0, r10
 323              	.LVL34:
 324              		.loc 1 165 13 is_stmt 0 view .LVU100
 325 01be 3A44     		add	r2, r2, r7
 326 01c0 091A     		subs	r1, r1, r0
 327 01c2 66EB0202 		sbc	r2, r6, r2
 328 01c6 11F10041 		adds	r1, r1, #-2147483648
 329 01ca 42F10002 		adc	r2, r2, #0
 330              	.LVL35:
 166:Drivers/CMSIS/DSP/Source/TransformFunctions/arm_cfft_radix2_q31.c **** 
 167:Drivers/CMSIS/DSP/Source/TransformFunctions/arm_cfft_radix2_q31.c ****             pSrc[2U * l] = p0;
 331              		.loc 1 167 13 is_stmt 1 view .LVU101
 332              		.loc 1 167 26 is_stmt 0 view .LVU102
 333 01ce 49F83C30 		str	r3, [r9, ip, lsl #3]
 168:Drivers/CMSIS/DSP/Source/TransformFunctions/arm_cfft_radix2_q31.c ****             pSrc[2U * l + 1U] = p1;
 334              		.loc 1 168 13 is_stmt 1 view .LVU103
 335              		.loc 1 168 31 is_stmt 0 view .LVU104
 336 01d2 49F80820 		str	r2, [r9, r8]
 169:Drivers/CMSIS/DSP/Source/TransformFunctions/arm_cfft_radix2_q31.c ****             i += n1;
 337              		.loc 1 169 13 is_stmt 1 view .LVU105
 338              		.loc 1 169 15 is_stmt 0 view .LVU106
 339 01d6 029B     		ldr	r3, [sp, #8]
 340              	.LVL36:
ARM GAS  /var/folders/n6/c271nzx11xl4r4_m7sqjlt0m0000gn/T//cccK8ChI.s 			page 10


 341              		.loc 1 169 15 view .LVU107
 342 01d8 1D44     		add	r5, r5, r3
 343              	.LVL37:
 170:Drivers/CMSIS/DSP/Source/TransformFunctions/arm_cfft_radix2_q31.c ****             m--;
 344              		.loc 1 170 13 is_stmt 1 view .LVU108
 171:Drivers/CMSIS/DSP/Source/TransformFunctions/arm_cfft_radix2_q31.c ****          } while ( m > 0);                   // butterfly loop end
 345              		.loc 1 171 22 discriminator 1 view .LVU109
 346 01da 009B     		ldr	r3, [sp]
 347 01dc 013B     		subs	r3, r3, #1
 348              	.LVL38:
 349              		.loc 1 171 22 is_stmt 0 discriminator 1 view .LVU110
 350 01de 0093     		str	r3, [sp]
 351 01e0 A3D1     		bne	.L6
 144:Drivers/CMSIS/DSP/Source/TransformFunctions/arm_cfft_radix2_q31.c ****       {
 352              		.loc 1 144 28 discriminator 2 view .LVU111
 353 01e2 049F     		ldr	r7, [sp, #16]
 354 01e4 0598     		ldr	r0, [sp, #20]
 355 01e6 DDF818B0 		ldr	fp, [sp, #24]
 144:Drivers/CMSIS/DSP/Source/TransformFunctions/arm_cfft_radix2_q31.c ****       {
 356              		.loc 1 144 28 is_stmt 1 discriminator 2 view .LVU112
 357 01ea 0137     		adds	r7, r7, #1
 358              	.LVL39:
 359              	.L5:
 144:Drivers/CMSIS/DSP/Source/TransformFunctions/arm_cfft_radix2_q31.c ****       {
 360              		.loc 1 144 21 discriminator 1 view .LVU113
 361 01ec 039B     		ldr	r3, [sp, #12]
 362 01ee 9F42     		cmp	r7, r3
 363 01f0 89D3     		bcc	.L7
 172:Drivers/CMSIS/DSP/Source/TransformFunctions/arm_cfft_radix2_q31.c **** 
 173:Drivers/CMSIS/DSP/Source/TransformFunctions/arm_cfft_radix2_q31.c ****       }                           // groups loop end
 174:Drivers/CMSIS/DSP/Source/TransformFunctions/arm_cfft_radix2_q31.c **** 
 175:Drivers/CMSIS/DSP/Source/TransformFunctions/arm_cfft_radix2_q31.c ****       twidCoefModifier <<= 1U;
 364              		.loc 1 175 24 is_stmt 0 view .LVU114
 365 01f2 0799     		ldr	r1, [sp, #28]
 366 01f4 099A     		ldr	r2, [sp, #36]
 367              		.loc 1 175 7 is_stmt 1 view .LVU115
 368              		.loc 1 175 24 is_stmt 0 view .LVU116
 369 01f6 4B00     		lsls	r3, r1, #1
 370              	.LVL40:
 371              		.loc 1 175 24 view .LVU117
 372 01f8 99B2     		uxth	r1, r3
 373              	.LVL41:
 137:Drivers/CMSIS/DSP/Source/TransformFunctions/arm_cfft_radix2_q31.c ****    {
 374              		.loc 1 137 34 is_stmt 1 discriminator 2 view .LVU118
 375 01fa 5208     		lsrs	r2, r2, #1
 376              	.LVL42:
 140:Drivers/CMSIS/DSP/Source/TransformFunctions/arm_cfft_radix2_q31.c ****       ia = 0;
 377              		.loc 1 140 10 is_stmt 0 view .LVU119
 378 01fc 039B     		ldr	r3, [sp, #12]
 379 01fe 0293     		str	r3, [sp, #8]
 380              	.LVL43:
 381              	.L4:
 137:Drivers/CMSIS/DSP/Source/TransformFunctions/arm_cfft_radix2_q31.c ****    {
 382              		.loc 1 137 27 is_stmt 1 discriminator 1 view .LVU120
 383 0200 022A     		cmp	r2, #2
 384 0202 07D9     		bls	.L12
 139:Drivers/CMSIS/DSP/Source/TransformFunctions/arm_cfft_radix2_q31.c ****       n2 = n2 >> 1;
ARM GAS  /var/folders/n6/c271nzx11xl4r4_m7sqjlt0m0000gn/T//cccK8ChI.s 			page 11


 385              		.loc 1 139 7 view .LVU121
 386              	.LVL44:
 140:Drivers/CMSIS/DSP/Source/TransformFunctions/arm_cfft_radix2_q31.c ****       ia = 0;
 387              		.loc 1 140 7 view .LVU122
 140:Drivers/CMSIS/DSP/Source/TransformFunctions/arm_cfft_radix2_q31.c ****       ia = 0;
 388              		.loc 1 140 10 is_stmt 0 view .LVU123
 389 0204 029B     		ldr	r3, [sp, #8]
 390 0206 5B08     		lsrs	r3, r3, #1
 391 0208 0393     		str	r3, [sp, #12]
 392              	.LVL45:
 141:Drivers/CMSIS/DSP/Source/TransformFunctions/arm_cfft_radix2_q31.c **** 
 393              		.loc 1 141 7 is_stmt 1 view .LVU124
 144:Drivers/CMSIS/DSP/Source/TransformFunctions/arm_cfft_radix2_q31.c ****       {
 394              		.loc 1 144 7 view .LVU125
 141:Drivers/CMSIS/DSP/Source/TransformFunctions/arm_cfft_radix2_q31.c **** 
 395              		.loc 1 141 10 is_stmt 0 view .LVU126
 396 020a 0020     		movs	r0, #0
 144:Drivers/CMSIS/DSP/Source/TransformFunctions/arm_cfft_radix2_q31.c ****       {
 397              		.loc 1 144 14 view .LVU127
 398 020c 0746     		mov	r7, r0
 399 020e 0791     		str	r1, [sp, #28]
 400 0210 0992     		str	r2, [sp, #36]
 144:Drivers/CMSIS/DSP/Source/TransformFunctions/arm_cfft_radix2_q31.c ****       {
 401              		.loc 1 144 7 view .LVU128
 402 0212 EBE7     		b	.L5
 403              	.LVL46:
 404              	.L12:
 176:Drivers/CMSIS/DSP/Source/TransformFunctions/arm_cfft_radix2_q31.c ****    }                             // stages loop end
 177:Drivers/CMSIS/DSP/Source/TransformFunctions/arm_cfft_radix2_q31.c **** 
 178:Drivers/CMSIS/DSP/Source/TransformFunctions/arm_cfft_radix2_q31.c ****    n1 = n2;
 179:Drivers/CMSIS/DSP/Source/TransformFunctions/arm_cfft_radix2_q31.c ****    n2 = n2 >> 1;
 405              		.loc 1 179 7 view .LVU129
 406 0214 DDF820E0 		ldr	lr, [sp, #32]
 178:Drivers/CMSIS/DSP/Source/TransformFunctions/arm_cfft_radix2_q31.c ****    n2 = n2 >> 1;
 407              		.loc 1 178 4 is_stmt 1 view .LVU130
 408              	.LVL47:
 409              		.loc 1 179 4 view .LVU131
 410              		.loc 1 179 7 is_stmt 0 view .LVU132
 411 0218 029E     		ldr	r6, [sp, #8]
 412 021a 7508     		lsrs	r5, r6, #1
 413              	.LVL48:
 180:Drivers/CMSIS/DSP/Source/TransformFunctions/arm_cfft_radix2_q31.c ****    ia = 0;
 414              		.loc 1 180 4 is_stmt 1 view .LVU133
 181:Drivers/CMSIS/DSP/Source/TransformFunctions/arm_cfft_radix2_q31.c **** 
 182:Drivers/CMSIS/DSP/Source/TransformFunctions/arm_cfft_radix2_q31.c ****    cosVal = pCoef[ia * 2];
 415              		.loc 1 182 4 view .LVU134
 183:Drivers/CMSIS/DSP/Source/TransformFunctions/arm_cfft_radix2_q31.c ****    sinVal = pCoef[(ia * 2) + 1];
 416              		.loc 1 183 4 view .LVU135
 184:Drivers/CMSIS/DSP/Source/TransformFunctions/arm_cfft_radix2_q31.c ****    ia = ia + twidCoefModifier;
 417              		.loc 1 184 4 view .LVU136
 185:Drivers/CMSIS/DSP/Source/TransformFunctions/arm_cfft_radix2_q31.c **** 
 186:Drivers/CMSIS/DSP/Source/TransformFunctions/arm_cfft_radix2_q31.c ****    // loop for butterfly
 187:Drivers/CMSIS/DSP/Source/TransformFunctions/arm_cfft_radix2_q31.c ****    for (i = 0; i < fftLen; i += n1)
 418              		.loc 1 187 4 view .LVU137
 419              		.loc 1 187 11 is_stmt 0 view .LVU138
 420 021c 0023     		movs	r3, #0
 421              		.loc 1 187 4 view .LVU139
ARM GAS  /var/folders/n6/c271nzx11xl4r4_m7sqjlt0m0000gn/T//cccK8ChI.s 			page 12


 422 021e 37E0     		b	.L9
 423              	.LVL49:
 424              	.L10:
 188:Drivers/CMSIS/DSP/Source/TransformFunctions/arm_cfft_radix2_q31.c ****    {
 189:Drivers/CMSIS/DSP/Source/TransformFunctions/arm_cfft_radix2_q31.c ****       l = i + n2;
 425              		.loc 1 189 7 is_stmt 1 view .LVU140
 426              		.loc 1 189 9 is_stmt 0 view .LVU141
 427 0220 5C19     		adds	r4, r3, r5
 428              	.LVL50:
 190:Drivers/CMSIS/DSP/Source/TransformFunctions/arm_cfft_radix2_q31.c ****       xt = pSrc[2 * i] - pSrc[2 * l];
 429              		.loc 1 190 7 is_stmt 1 view .LVU142
 430              		.loc 1 190 16 is_stmt 0 view .LVU143
 431 0222 D900     		lsls	r1, r3, #3
 432 0224 59F83300 		ldr	r0, [r9, r3, lsl #3]
 433              		.loc 1 190 30 view .LVU144
 434 0228 E200     		lsls	r2, r4, #3
 435 022a 59F834C0 		ldr	ip, [r9, r4, lsl #3]
 436              		.loc 1 190 10 view .LVU145
 437 022e A0EB0C07 		sub	r7, r0, ip
 438              	.LVL51:
 191:Drivers/CMSIS/DSP/Source/TransformFunctions/arm_cfft_radix2_q31.c ****       pSrc[2 * i] = (pSrc[2 * i] + pSrc[2 * l]);
 439              		.loc 1 191 7 is_stmt 1 view .LVU146
 440              		.loc 1 191 34 is_stmt 0 view .LVU147
 441 0232 6044     		add	r0, r0, ip
 442              		.loc 1 191 19 view .LVU148
 443 0234 49F83300 		str	r0, [r9, r3, lsl #3]
 192:Drivers/CMSIS/DSP/Source/TransformFunctions/arm_cfft_radix2_q31.c **** 
 193:Drivers/CMSIS/DSP/Source/TransformFunctions/arm_cfft_radix2_q31.c ****       yt = pSrc[2 * i + 1] - pSrc[2 * l + 1];
 444              		.loc 1 193 7 is_stmt 1 view .LVU149
 445              		.loc 1 193 16 is_stmt 0 view .LVU150
 446 0238 0431     		adds	r1, r1, #4
 447 023a 59F80100 		ldr	r0, [r9, r1]
 448              		.loc 1 193 34 view .LVU151
 449 023e 0432     		adds	r2, r2, #4
 450 0240 59F802C0 		ldr	ip, [r9, r2]
 451              		.loc 1 193 10 view .LVU152
 452 0244 A0EB0C08 		sub	r8, r0, ip
 453              	.LVL52:
 194:Drivers/CMSIS/DSP/Source/TransformFunctions/arm_cfft_radix2_q31.c ****       pSrc[2 * i + 1] = (pSrc[2 * l + 1] + pSrc[2 * i + 1]);
 454              		.loc 1 194 7 is_stmt 1 view .LVU153
 455              		.loc 1 194 42 is_stmt 0 view .LVU154
 456 0248 6044     		add	r0, r0, ip
 457              		.loc 1 194 23 view .LVU155
 458 024a 49F80100 		str	r0, [r9, r1]
 195:Drivers/CMSIS/DSP/Source/TransformFunctions/arm_cfft_radix2_q31.c **** 
 196:Drivers/CMSIS/DSP/Source/TransformFunctions/arm_cfft_radix2_q31.c ****       pSrc[2U * l] = xt;
 459              		.loc 1 196 7 is_stmt 1 view .LVU156
 460              		.loc 1 196 20 is_stmt 0 view .LVU157
 461 024e 49F83470 		str	r7, [r9, r4, lsl #3]
 197:Drivers/CMSIS/DSP/Source/TransformFunctions/arm_cfft_radix2_q31.c **** 
 198:Drivers/CMSIS/DSP/Source/TransformFunctions/arm_cfft_radix2_q31.c ****       pSrc[2U * l + 1U] = yt;
 462              		.loc 1 198 7 is_stmt 1 view .LVU158
 463              		.loc 1 198 25 is_stmt 0 view .LVU159
 464 0252 49F80280 		str	r8, [r9, r2]
 199:Drivers/CMSIS/DSP/Source/TransformFunctions/arm_cfft_radix2_q31.c **** 
 200:Drivers/CMSIS/DSP/Source/TransformFunctions/arm_cfft_radix2_q31.c ****       i += n1;
 465              		.loc 1 200 7 is_stmt 1 view .LVU160
ARM GAS  /var/folders/n6/c271nzx11xl4r4_m7sqjlt0m0000gn/T//cccK8ChI.s 			page 13


 466              		.loc 1 200 9 is_stmt 0 view .LVU161
 467 0256 3344     		add	r3, r3, r6
 468              	.LVL53:
 201:Drivers/CMSIS/DSP/Source/TransformFunctions/arm_cfft_radix2_q31.c ****       l = i + n2;
 469              		.loc 1 201 7 is_stmt 1 view .LVU162
 470              		.loc 1 201 9 is_stmt 0 view .LVU163
 471 0258 EC18     		adds	r4, r5, r3
 472              	.LVL54:
 202:Drivers/CMSIS/DSP/Source/TransformFunctions/arm_cfft_radix2_q31.c **** 
 203:Drivers/CMSIS/DSP/Source/TransformFunctions/arm_cfft_radix2_q31.c ****       xt = pSrc[2 * i] - pSrc[2 * l];
 473              		.loc 1 203 7 is_stmt 1 view .LVU164
 474              		.loc 1 203 16 is_stmt 0 view .LVU165
 475 025a D900     		lsls	r1, r3, #3
 476 025c 59F83300 		ldr	r0, [r9, r3, lsl #3]
 477              		.loc 1 203 30 view .LVU166
 478 0260 E200     		lsls	r2, r4, #3
 479 0262 59F834C0 		ldr	ip, [r9, r4, lsl #3]
 480              		.loc 1 203 10 view .LVU167
 481 0266 A0EB0C07 		sub	r7, r0, ip
 482              	.LVL55:
 204:Drivers/CMSIS/DSP/Source/TransformFunctions/arm_cfft_radix2_q31.c ****       pSrc[2 * i] = (pSrc[2 * i] + pSrc[2 * l]);
 483              		.loc 1 204 7 is_stmt 1 view .LVU168
 484              		.loc 1 204 34 is_stmt 0 view .LVU169
 485 026a 6044     		add	r0, r0, ip
 486              		.loc 1 204 19 view .LVU170
 487 026c 49F83300 		str	r0, [r9, r3, lsl #3]
 205:Drivers/CMSIS/DSP/Source/TransformFunctions/arm_cfft_radix2_q31.c **** 
 206:Drivers/CMSIS/DSP/Source/TransformFunctions/arm_cfft_radix2_q31.c ****       yt = pSrc[2 * i + 1] - pSrc[2 * l + 1];
 488              		.loc 1 206 7 is_stmt 1 view .LVU171
 489              		.loc 1 206 16 is_stmt 0 view .LVU172
 490 0270 0431     		adds	r1, r1, #4
 491 0272 59F80100 		ldr	r0, [r9, r1]
 492              		.loc 1 206 34 view .LVU173
 493 0276 0432     		adds	r2, r2, #4
 494 0278 59F802C0 		ldr	ip, [r9, r2]
 495              		.loc 1 206 10 view .LVU174
 496 027c A0EB0C08 		sub	r8, r0, ip
 497              	.LVL56:
 207:Drivers/CMSIS/DSP/Source/TransformFunctions/arm_cfft_radix2_q31.c ****       pSrc[2 * i + 1] = (pSrc[2 * l + 1] + pSrc[2 * i + 1]);
 498              		.loc 1 207 7 is_stmt 1 view .LVU175
 499              		.loc 1 207 42 is_stmt 0 view .LVU176
 500 0280 6044     		add	r0, r0, ip
 501              		.loc 1 207 23 view .LVU177
 502 0282 49F80100 		str	r0, [r9, r1]
 208:Drivers/CMSIS/DSP/Source/TransformFunctions/arm_cfft_radix2_q31.c **** 
 209:Drivers/CMSIS/DSP/Source/TransformFunctions/arm_cfft_radix2_q31.c ****       pSrc[2U * l] = xt;
 503              		.loc 1 209 7 is_stmt 1 view .LVU178
 504              		.loc 1 209 20 is_stmt 0 view .LVU179
 505 0286 49F83470 		str	r7, [r9, r4, lsl #3]
 210:Drivers/CMSIS/DSP/Source/TransformFunctions/arm_cfft_radix2_q31.c **** 
 211:Drivers/CMSIS/DSP/Source/TransformFunctions/arm_cfft_radix2_q31.c ****       pSrc[2U * l + 1U] = yt;
 506              		.loc 1 211 7 is_stmt 1 view .LVU180
 507              		.loc 1 211 25 is_stmt 0 view .LVU181
 508 028a 49F80280 		str	r8, [r9, r2]
 187:Drivers/CMSIS/DSP/Source/TransformFunctions/arm_cfft_radix2_q31.c ****    {
 509              		.loc 1 187 30 is_stmt 1 discriminator 3 view .LVU182
 510 028e 3344     		add	r3, r3, r6
ARM GAS  /var/folders/n6/c271nzx11xl4r4_m7sqjlt0m0000gn/T//cccK8ChI.s 			page 14


 511              	.LVL57:
 512              	.L9:
 187:Drivers/CMSIS/DSP/Source/TransformFunctions/arm_cfft_radix2_q31.c ****    {
 513              		.loc 1 187 18 discriminator 1 view .LVU183
 514 0290 7345     		cmp	r3, lr
 515 0292 C5D3     		bcc	.L10
 212:Drivers/CMSIS/DSP/Source/TransformFunctions/arm_cfft_radix2_q31.c **** 
 213:Drivers/CMSIS/DSP/Source/TransformFunctions/arm_cfft_radix2_q31.c ****    }                             // butterfly loop end
 214:Drivers/CMSIS/DSP/Source/TransformFunctions/arm_cfft_radix2_q31.c **** 
 215:Drivers/CMSIS/DSP/Source/TransformFunctions/arm_cfft_radix2_q31.c **** }
 516              		.loc 1 215 1 is_stmt 0 view .LVU184
 517 0294 0BB0     		add	sp, sp, #44
 518              		.cfi_def_cfa_offset 36
 519              		@ sp needed
 520 0296 BDE8F08F 		pop	{r4, r5, r6, r7, r8, r9, r10, fp, pc}
 521              		.loc 1 215 1 view .LVU185
 522              		.cfi_endproc
 523              	.LFE136:
 525              		.section	.text.arm_radix2_butterfly_inverse_q31,"ax",%progbits
 526              		.align	1
 527              		.global	arm_radix2_butterfly_inverse_q31
 528              		.syntax unified
 529              		.thumb
 530              		.thumb_func
 532              	arm_radix2_butterfly_inverse_q31:
 533              	.LVL58:
 534              	.LFB137:
 216:Drivers/CMSIS/DSP/Source/TransformFunctions/arm_cfft_radix2_q31.c **** 
 217:Drivers/CMSIS/DSP/Source/TransformFunctions/arm_cfft_radix2_q31.c **** 
 218:Drivers/CMSIS/DSP/Source/TransformFunctions/arm_cfft_radix2_q31.c **** void arm_radix2_butterfly_inverse_q31(
 219:Drivers/CMSIS/DSP/Source/TransformFunctions/arm_cfft_radix2_q31.c **** q31_t * pSrc,
 220:Drivers/CMSIS/DSP/Source/TransformFunctions/arm_cfft_radix2_q31.c **** uint32_t fftLen,
 221:Drivers/CMSIS/DSP/Source/TransformFunctions/arm_cfft_radix2_q31.c **** q31_t * pCoef,
 222:Drivers/CMSIS/DSP/Source/TransformFunctions/arm_cfft_radix2_q31.c **** uint16_t twidCoefModifier)
 223:Drivers/CMSIS/DSP/Source/TransformFunctions/arm_cfft_radix2_q31.c **** {
 535              		.loc 1 223 1 is_stmt 1 view -0
 536              		.cfi_startproc
 537              		@ args = 0, pretend = 0, frame = 40
 538              		@ frame_needed = 0, uses_anonymous_args = 0
 539              		.loc 1 223 1 is_stmt 0 view .LVU187
 540 0000 2DE9F04F 		push	{r4, r5, r6, r7, r8, r9, r10, fp, lr}
 541              		.cfi_def_cfa_offset 36
 542              		.cfi_offset 4, -36
 543              		.cfi_offset 5, -32
 544              		.cfi_offset 6, -28
 545              		.cfi_offset 7, -24
 546              		.cfi_offset 8, -20
 547              		.cfi_offset 9, -16
 548              		.cfi_offset 10, -12
 549              		.cfi_offset 11, -8
 550              		.cfi_offset 14, -4
 551 0004 8BB0     		sub	sp, sp, #44
 552              		.cfi_def_cfa_offset 80
 553 0006 8246     		mov	r10, r0
 554 0008 0391     		str	r1, [sp, #12]
 555 000a 0292     		str	r2, [sp, #8]
 556 000c 0593     		str	r3, [sp, #20]
ARM GAS  /var/folders/n6/c271nzx11xl4r4_m7sqjlt0m0000gn/T//cccK8ChI.s 			page 15


 224:Drivers/CMSIS/DSP/Source/TransformFunctions/arm_cfft_radix2_q31.c **** 
 225:Drivers/CMSIS/DSP/Source/TransformFunctions/arm_cfft_radix2_q31.c ****    unsigned i, j, k, l;
 557              		.loc 1 225 4 is_stmt 1 view .LVU188
 226:Drivers/CMSIS/DSP/Source/TransformFunctions/arm_cfft_radix2_q31.c ****    unsigned n1, n2, ia;
 558              		.loc 1 226 4 view .LVU189
 227:Drivers/CMSIS/DSP/Source/TransformFunctions/arm_cfft_radix2_q31.c ****    q31_t xt, yt, cosVal, sinVal;
 559              		.loc 1 227 4 view .LVU190
 228:Drivers/CMSIS/DSP/Source/TransformFunctions/arm_cfft_radix2_q31.c ****    q31_t p0, p1;
 560              		.loc 1 228 4 view .LVU191
 229:Drivers/CMSIS/DSP/Source/TransformFunctions/arm_cfft_radix2_q31.c **** 
 230:Drivers/CMSIS/DSP/Source/TransformFunctions/arm_cfft_radix2_q31.c ****    //N = fftLen;
 231:Drivers/CMSIS/DSP/Source/TransformFunctions/arm_cfft_radix2_q31.c ****    n2 = fftLen;
 561              		.loc 1 231 4 view .LVU192
 562              	.LVL59:
 232:Drivers/CMSIS/DSP/Source/TransformFunctions/arm_cfft_radix2_q31.c **** 
 233:Drivers/CMSIS/DSP/Source/TransformFunctions/arm_cfft_radix2_q31.c ****    n1 = n2;
 563              		.loc 1 233 4 view .LVU193
 234:Drivers/CMSIS/DSP/Source/TransformFunctions/arm_cfft_radix2_q31.c ****    n2 = n2 >> 1;
 564              		.loc 1 234 4 view .LVU194
 565              		.loc 1 234 7 is_stmt 0 view .LVU195
 566 000e 4B08     		lsrs	r3, r1, #1
 567              	.LVL60:
 568              		.loc 1 234 7 view .LVU196
 569 0010 0493     		str	r3, [sp, #16]
 570              	.LVL61:
 235:Drivers/CMSIS/DSP/Source/TransformFunctions/arm_cfft_radix2_q31.c ****    ia = 0;
 571              		.loc 1 235 4 is_stmt 1 view .LVU197
 236:Drivers/CMSIS/DSP/Source/TransformFunctions/arm_cfft_radix2_q31.c **** 
 237:Drivers/CMSIS/DSP/Source/TransformFunctions/arm_cfft_radix2_q31.c ****    // loop for groups
 238:Drivers/CMSIS/DSP/Source/TransformFunctions/arm_cfft_radix2_q31.c ****    for (i = 0; i < n2; i++)
 572              		.loc 1 238 4 view .LVU198
 235:Drivers/CMSIS/DSP/Source/TransformFunctions/arm_cfft_radix2_q31.c ****    ia = 0;
 573              		.loc 1 235 7 is_stmt 0 view .LVU199
 574 0012 4FF00008 		mov	r8, #0
 575              		.loc 1 238 11 view .LVU200
 576 0016 C346     		mov	fp, r8
 577              		.loc 1 238 4 view .LVU201
 578 0018 67E0     		b	.L14
 579              	.LVL62:
 580              	.L15:
 239:Drivers/CMSIS/DSP/Source/TransformFunctions/arm_cfft_radix2_q31.c ****    {
 240:Drivers/CMSIS/DSP/Source/TransformFunctions/arm_cfft_radix2_q31.c ****       cosVal = pCoef[ia * 2];
 581              		.loc 1 240 7 is_stmt 1 view .LVU202
 582              		.loc 1 240 21 is_stmt 0 view .LVU203
 583 001a 4FEAC803 		lsl	r3, r8, #3
 584              		.loc 1 240 14 view .LVU204
 585 001e 029A     		ldr	r2, [sp, #8]
 586 0020 52F83810 		ldr	r1, [r2, r8, lsl #3]
 587              	.LVL63:
 241:Drivers/CMSIS/DSP/Source/TransformFunctions/arm_cfft_radix2_q31.c ****       sinVal = pCoef[(ia * 2) + 1];
 588              		.loc 1 241 7 is_stmt 1 view .LVU205
 589              		.loc 1 241 21 is_stmt 0 view .LVU206
 590 0024 0433     		adds	r3, r3, #4
 591              		.loc 1 241 14 view .LVU207
 592 0026 D058     		ldr	r0, [r2, r3]
 593              	.LVL64:
 242:Drivers/CMSIS/DSP/Source/TransformFunctions/arm_cfft_radix2_q31.c ****       ia = ia + twidCoefModifier;
ARM GAS  /var/folders/n6/c271nzx11xl4r4_m7sqjlt0m0000gn/T//cccK8ChI.s 			page 16


 594              		.loc 1 242 7 is_stmt 1 view .LVU208
 595              		.loc 1 242 10 is_stmt 0 view .LVU209
 596 0028 059B     		ldr	r3, [sp, #20]
 597 002a 9844     		add	r8, r8, r3
 598              	.LVL65:
 243:Drivers/CMSIS/DSP/Source/TransformFunctions/arm_cfft_radix2_q31.c **** 
 244:Drivers/CMSIS/DSP/Source/TransformFunctions/arm_cfft_radix2_q31.c ****       l = i + n2;
 599              		.loc 1 244 7 is_stmt 1 view .LVU210
 600              		.loc 1 244 9 is_stmt 0 view .LVU211
 601 002c 049B     		ldr	r3, [sp, #16]
 602 002e 0BEB0307 		add	r7, fp, r3
 603              	.LVL66:
 245:Drivers/CMSIS/DSP/Source/TransformFunctions/arm_cfft_radix2_q31.c ****       xt = (pSrc[2 * i] >> 1U) - (pSrc[2 * l] >> 1U);
 604              		.loc 1 245 7 is_stmt 1 view .LVU212
 605              		.loc 1 245 17 is_stmt 0 view .LVU213
 606 0032 4FEACB04 		lsl	r4, fp, #3
 607 0036 5AF83B50 		ldr	r5, [r10, fp, lsl #3]
 608              		.loc 1 245 39 view .LVU214
 609 003a FE00     		lsls	r6, r7, #3
 610 003c 5AF83730 		ldr	r3, [r10, r7, lsl #3]
 611              		.loc 1 245 47 view .LVU215
 612 0040 5B10     		asrs	r3, r3, #1
 613              		.loc 1 245 10 view .LVU216
 614 0042 C3EB6502 		rsb	r2, r3, r5, asr #1
 615              	.LVL67:
 246:Drivers/CMSIS/DSP/Source/TransformFunctions/arm_cfft_radix2_q31.c ****       pSrc[2 * i] = ((pSrc[2 * i] >> 1U) + (pSrc[2 * l] >> 1U)) >> 1U;
 616              		.loc 1 246 7 is_stmt 1 view .LVU217
 617              		.loc 1 246 42 is_stmt 0 view .LVU218
 618 0046 03EB6503 		add	r3, r3, r5, asr #1
 619              		.loc 1 246 65 view .LVU219
 620 004a 5B10     		asrs	r3, r3, #1
 621              		.loc 1 246 19 view .LVU220
 622 004c 4AF83B30 		str	r3, [r10, fp, lsl #3]
 247:Drivers/CMSIS/DSP/Source/TransformFunctions/arm_cfft_radix2_q31.c **** 
 248:Drivers/CMSIS/DSP/Source/TransformFunctions/arm_cfft_radix2_q31.c ****       yt = (pSrc[2 * i + 1] >> 1U) - (pSrc[2 * l + 1] >> 1U);
 623              		.loc 1 248 7 is_stmt 1 view .LVU221
 624              		.loc 1 248 17 is_stmt 0 view .LVU222
 625 0050 0434     		adds	r4, r4, #4
 626 0052 5AF80450 		ldr	r5, [r10, r4]
 627              		.loc 1 248 43 view .LVU223
 628 0056 0436     		adds	r6, r6, #4
 629 0058 5AF80630 		ldr	r3, [r10, r6]
 630              		.loc 1 248 55 view .LVU224
 631 005c 4FEA630C 		asr	ip, r3, #1
 632              		.loc 1 248 10 view .LVU225
 633 0060 CCEB6503 		rsb	r3, ip, r5, asr #1
 634              	.LVL68:
 249:Drivers/CMSIS/DSP/Source/TransformFunctions/arm_cfft_radix2_q31.c ****       pSrc[2 * i + 1] =
 635              		.loc 1 249 7 is_stmt 1 view .LVU226
 250:Drivers/CMSIS/DSP/Source/TransformFunctions/arm_cfft_radix2_q31.c ****         ((pSrc[2 * l + 1] >> 1U) + (pSrc[2 * i + 1] >> 1U)) >> 1U;
 636              		.loc 1 250 34 is_stmt 0 view .LVU227
 637 0064 0CEB6505 		add	r5, ip, r5, asr #1
 638              		.loc 1 250 61 view .LVU228
 639 0068 6D10     		asrs	r5, r5, #1
 249:Drivers/CMSIS/DSP/Source/TransformFunctions/arm_cfft_radix2_q31.c ****       pSrc[2 * i + 1] =
 640              		.loc 1 249 23 view .LVU229
 641 006a 4AF80450 		str	r5, [r10, r4]
ARM GAS  /var/folders/n6/c271nzx11xl4r4_m7sqjlt0m0000gn/T//cccK8ChI.s 			page 17


 251:Drivers/CMSIS/DSP/Source/TransformFunctions/arm_cfft_radix2_q31.c **** 
 252:Drivers/CMSIS/DSP/Source/TransformFunctions/arm_cfft_radix2_q31.c ****       mult_32x32_keep32_R(p0, xt, cosVal);
 642              		.loc 1 252 7 is_stmt 1 view .LVU230
 643 006e 4FEAE27E 		asr	lr, r2, #31
 644 0072 4FEAE17C 		asr	ip, r1, #31
 645 0076 02FB0CF5 		mul	r5, r2, ip
 646 007a 01FB0E55 		mla	r5, r1, lr, r5
 647 007e A2FB0149 		umull	r4, r9, r2, r1
 648 0082 14F10044 		adds	r4, r4, #-2147483648
 649 0086 45EB0905 		adc	r5, r5, r9
 650              	.LVL69:
 253:Drivers/CMSIS/DSP/Source/TransformFunctions/arm_cfft_radix2_q31.c ****       mult_32x32_keep32_R(p1, yt, cosVal);
 651              		.loc 1 253 7 view .LVU231
 652 008a 4FEAE379 		asr	r9, r3, #31
 653 008e 01FB09F4 		mul	r4, r1, r9
 654 0092 03FB0C44 		mla	r4, r3, ip, r4
 655 0096 A1FB031C 		umull	r1, ip, r1, r3
 656              	.LVL70:
 657              		.loc 1 253 7 is_stmt 0 view .LVU232
 658 009a 11F10041 		adds	r1, r1, #-2147483648
 659 009e 44EB0C01 		adc	r1, r4, ip
 660 00a2 0191     		str	r1, [sp, #4]
 661              	.LVL71:
 254:Drivers/CMSIS/DSP/Source/TransformFunctions/arm_cfft_radix2_q31.c ****       multSub_32x32_keep32_R(p0, yt, sinVal);
 662              		.loc 1 254 7 is_stmt 1 view .LVU233
 663 00a4 0021     		movs	r1, #0
 664 00a6 C417     		asrs	r4, r0, #31
 665 00a8 03FB04FC 		mul	ip, r3, r4
 666 00ac 00FB09CC 		mla	ip, r0, r9, ip
 667 00b0 A3FB0039 		umull	r3, r9, r3, r0
 668              	.LVL72:
 669              		.loc 1 254 7 is_stmt 0 view .LVU234
 670 00b4 E144     		add	r9, r9, ip
 671 00b6 CB1A     		subs	r3, r1, r3
 672 00b8 65EB0909 		sbc	r9, r5, r9
 673 00bc 13F10043 		adds	r3, r3, #-2147483648
 674 00c0 49F10003 		adc	r3, r9, #0
 675              	.LVL73:
 255:Drivers/CMSIS/DSP/Source/TransformFunctions/arm_cfft_radix2_q31.c ****       multAcc_32x32_keep32_R(p1, xt, sinVal);
 676              		.loc 1 255 7 is_stmt 1 view .LVU235
 677 00c4 02FB04F4 		mul	r4, r2, r4
 678 00c8 00FB0E44 		mla	r4, r0, lr, r4
 679 00cc A2FB0002 		umull	r0, r2, r2, r0
 680              	.LVL74:
 681              		.loc 1 255 7 is_stmt 0 view .LVU236
 682 00d0 2244     		add	r2, r2, r4
 683 00d2 0918     		adds	r1, r1, r0
 684 00d4 11F10041 		adds	r1, r1, #-2147483648
 685 00d8 0199     		ldr	r1, [sp, #4]
 686 00da 42EB0102 		adc	r2, r2, r1
 687              	.LVL75:
 256:Drivers/CMSIS/DSP/Source/TransformFunctions/arm_cfft_radix2_q31.c **** 
 257:Drivers/CMSIS/DSP/Source/TransformFunctions/arm_cfft_radix2_q31.c ****       pSrc[2U * l] = p0;
 688              		.loc 1 257 7 is_stmt 1 view .LVU237
 689              		.loc 1 257 20 is_stmt 0 view .LVU238
 690 00de 4AF83730 		str	r3, [r10, r7, lsl #3]
 258:Drivers/CMSIS/DSP/Source/TransformFunctions/arm_cfft_radix2_q31.c ****       pSrc[2U * l + 1U] = p1;
ARM GAS  /var/folders/n6/c271nzx11xl4r4_m7sqjlt0m0000gn/T//cccK8ChI.s 			page 18


 691              		.loc 1 258 7 is_stmt 1 view .LVU239
 692              		.loc 1 258 25 is_stmt 0 view .LVU240
 693 00e2 4AF80620 		str	r2, [r10, r6]
 238:Drivers/CMSIS/DSP/Source/TransformFunctions/arm_cfft_radix2_q31.c ****    {
 694              		.loc 1 238 25 is_stmt 1 discriminator 3 view .LVU241
 695 00e6 0BF1010B 		add	fp, fp, #1
 696              	.LVL76:
 697              	.L14:
 238:Drivers/CMSIS/DSP/Source/TransformFunctions/arm_cfft_radix2_q31.c ****    {
 698              		.loc 1 238 18 discriminator 1 view .LVU242
 699 00ea 049B     		ldr	r3, [sp, #16]
 700 00ec 9B45     		cmp	fp, r3
 701 00ee 94D3     		bcc	.L15
 259:Drivers/CMSIS/DSP/Source/TransformFunctions/arm_cfft_radix2_q31.c ****    }                             // groups loop end
 260:Drivers/CMSIS/DSP/Source/TransformFunctions/arm_cfft_radix2_q31.c **** 
 261:Drivers/CMSIS/DSP/Source/TransformFunctions/arm_cfft_radix2_q31.c ****    twidCoefModifier = twidCoefModifier << 1U;
 702              		.loc 1 261 4 view .LVU243
 703              		.loc 1 261 21 is_stmt 0 view .LVU244
 704 00f0 059B     		ldr	r3, [sp, #20]
 705 00f2 5B00     		lsls	r3, r3, #1
 706 00f4 99B2     		uxth	r1, r3
 707              	.LVL77:
 262:Drivers/CMSIS/DSP/Source/TransformFunctions/arm_cfft_radix2_q31.c **** 
 263:Drivers/CMSIS/DSP/Source/TransformFunctions/arm_cfft_radix2_q31.c ****    // loop for stage
 264:Drivers/CMSIS/DSP/Source/TransformFunctions/arm_cfft_radix2_q31.c ****    for (k = fftLen / 2; k > 2; k = k >> 1)
 708              		.loc 1 264 4 is_stmt 1 view .LVU245
 709              		.loc 1 264 11 is_stmt 0 view .LVU246
 710 00f6 039B     		ldr	r3, [sp, #12]
 711 00f8 5A08     		lsrs	r2, r3, #1
 712              	.LVL78:
 713              		.loc 1 264 11 view .LVU247
 714 00fa 0B46     		mov	r3, r1
 715 00fc 029F     		ldr	r7, [sp, #8]
 716              		.loc 1 264 4 view .LVU248
 717 00fe 75E0     		b	.L16
 718              	.LVL79:
 719              	.L19:
 265:Drivers/CMSIS/DSP/Source/TransformFunctions/arm_cfft_radix2_q31.c ****    {
 266:Drivers/CMSIS/DSP/Source/TransformFunctions/arm_cfft_radix2_q31.c ****       n1 = n2;
 267:Drivers/CMSIS/DSP/Source/TransformFunctions/arm_cfft_radix2_q31.c ****       n2 = n2 >> 1;
 268:Drivers/CMSIS/DSP/Source/TransformFunctions/arm_cfft_radix2_q31.c ****       ia = 0;
 269:Drivers/CMSIS/DSP/Source/TransformFunctions/arm_cfft_radix2_q31.c **** 
 270:Drivers/CMSIS/DSP/Source/TransformFunctions/arm_cfft_radix2_q31.c ****       // loop for groups
 271:Drivers/CMSIS/DSP/Source/TransformFunctions/arm_cfft_radix2_q31.c ****       for (j = 0; j < n2; j++)
 272:Drivers/CMSIS/DSP/Source/TransformFunctions/arm_cfft_radix2_q31.c ****       {
 273:Drivers/CMSIS/DSP/Source/TransformFunctions/arm_cfft_radix2_q31.c ****          cosVal = pCoef[ia * 2];
 274:Drivers/CMSIS/DSP/Source/TransformFunctions/arm_cfft_radix2_q31.c ****          sinVal = pCoef[(ia * 2) + 1];
 275:Drivers/CMSIS/DSP/Source/TransformFunctions/arm_cfft_radix2_q31.c ****          ia = ia + twidCoefModifier;
 276:Drivers/CMSIS/DSP/Source/TransformFunctions/arm_cfft_radix2_q31.c **** 
 277:Drivers/CMSIS/DSP/Source/TransformFunctions/arm_cfft_radix2_q31.c ****          // loop for butterfly
 278:Drivers/CMSIS/DSP/Source/TransformFunctions/arm_cfft_radix2_q31.c ****          for (i = j; i < fftLen; i += n1)
 279:Drivers/CMSIS/DSP/Source/TransformFunctions/arm_cfft_radix2_q31.c ****          {
 280:Drivers/CMSIS/DSP/Source/TransformFunctions/arm_cfft_radix2_q31.c ****             l = i + n2;
 720              		.loc 1 280 13 is_stmt 1 view .LVU249
 721              		.loc 1 280 15 is_stmt 0 view .LVU250
 722 0100 029B     		ldr	r3, [sp, #8]
 723 0102 04EB030C 		add	ip, r4, r3
ARM GAS  /var/folders/n6/c271nzx11xl4r4_m7sqjlt0m0000gn/T//cccK8ChI.s 			page 19


 724              	.LVL80:
 281:Drivers/CMSIS/DSP/Source/TransformFunctions/arm_cfft_radix2_q31.c ****             xt = pSrc[2 * i] - pSrc[2 * l];
 725              		.loc 1 281 13 is_stmt 1 view .LVU251
 726              		.loc 1 281 22 is_stmt 0 view .LVU252
 727 0106 E100     		lsls	r1, r4, #3
 728 0108 5AF83430 		ldr	r3, [r10, r4, lsl #3]
 729              		.loc 1 281 36 view .LVU253
 730 010c 4FEACC06 		lsl	r6, ip, #3
 731 0110 5AF83C20 		ldr	r2, [r10, ip, lsl #3]
 732              		.loc 1 281 16 view .LVU254
 733 0114 981A     		subs	r0, r3, r2
 734              	.LVL81:
 282:Drivers/CMSIS/DSP/Source/TransformFunctions/arm_cfft_radix2_q31.c ****             pSrc[2 * i] = (pSrc[2 * i] + pSrc[2 * l]) >> 1U;
 735              		.loc 1 282 13 is_stmt 1 view .LVU255
 736              		.loc 1 282 40 is_stmt 0 view .LVU256
 737 0116 1344     		add	r3, r3, r2
 738              		.loc 1 282 55 view .LVU257
 739 0118 5B10     		asrs	r3, r3, #1
 740              		.loc 1 282 25 view .LVU258
 741 011a 4AF83430 		str	r3, [r10, r4, lsl #3]
 283:Drivers/CMSIS/DSP/Source/TransformFunctions/arm_cfft_radix2_q31.c **** 
 284:Drivers/CMSIS/DSP/Source/TransformFunctions/arm_cfft_radix2_q31.c ****             yt = pSrc[2 * i + 1] - pSrc[2 * l + 1];
 742              		.loc 1 284 13 is_stmt 1 view .LVU259
 743              		.loc 1 284 22 is_stmt 0 view .LVU260
 744 011e 0431     		adds	r1, r1, #4
 745 0120 5AF80120 		ldr	r2, [r10, r1]
 746              		.loc 1 284 40 view .LVU261
 747 0124 06F10408 		add	r8, r6, #4
 748 0128 5AF80860 		ldr	r6, [r10, r8]
 749              		.loc 1 284 16 view .LVU262
 750 012c 931B     		subs	r3, r2, r6
 751              	.LVL82:
 285:Drivers/CMSIS/DSP/Source/TransformFunctions/arm_cfft_radix2_q31.c ****             pSrc[2 * i + 1] = (pSrc[2 * l + 1] + pSrc[2 * i + 1]) >> 1U;
 752              		.loc 1 285 13 is_stmt 1 view .LVU263
 753              		.loc 1 285 48 is_stmt 0 view .LVU264
 754 012e 3244     		add	r2, r2, r6
 755              		.loc 1 285 67 view .LVU265
 756 0130 5210     		asrs	r2, r2, #1
 757              		.loc 1 285 29 view .LVU266
 758 0132 4AF80120 		str	r2, [r10, r1]
 286:Drivers/CMSIS/DSP/Source/TransformFunctions/arm_cfft_radix2_q31.c **** 
 287:Drivers/CMSIS/DSP/Source/TransformFunctions/arm_cfft_radix2_q31.c ****             mult_32x32_keep32_R(p0, xt, cosVal);
 759              		.loc 1 287 13 is_stmt 1 view .LVU267
 760 0136 C217     		asrs	r2, r0, #31
 761 0138 E917     		asrs	r1, r5, #31
 762 013a 00FB01F7 		mul	r7, r0, r1
 763 013e 0192     		str	r2, [sp, #4]
 764 0140 05FB0277 		mla	r7, r5, r2, r7
 765 0144 A0FB0526 		umull	r2, r6, r0, r5
 766 0148 12F10042 		adds	r2, r2, #-2147483648
 767 014c 47EB0607 		adc	r7, r7, r6
 768              	.LVL83:
 288:Drivers/CMSIS/DSP/Source/TransformFunctions/arm_cfft_radix2_q31.c ****             mult_32x32_keep32_R(p1, yt, cosVal);
 769              		.loc 1 288 13 view .LVU268
 770 0150 4FEAE37B 		asr	fp, r3, #31
 771 0154 05FB0BF6 		mul	r6, r5, fp
 772 0158 03FB0166 		mla	r6, r3, r1, r6
ARM GAS  /var/folders/n6/c271nzx11xl4r4_m7sqjlt0m0000gn/T//cccK8ChI.s 			page 20


 773 015c A5FB0321 		umull	r2, r1, r5, r3
 774 0160 12F10042 		adds	r2, r2, #-2147483648
 775 0164 46EB0106 		adc	r6, r6, r1
 776              	.LVL84:
 289:Drivers/CMSIS/DSP/Source/TransformFunctions/arm_cfft_radix2_q31.c ****             multSub_32x32_keep32_R(p0, yt, sinVal);
 777              		.loc 1 289 13 view .LVU269
 778 0168 0021     		movs	r1, #0
 779 016a 4FEAE972 		asr	r2, r9, #31
 780 016e 03FB02FE 		mul	lr, r3, r2
 781 0172 09FB0BEE 		mla	lr, r9, fp, lr
 782 0176 A3FB093B 		umull	r3, fp, r3, r9
 783              	.LVL85:
 784              		.loc 1 289 13 is_stmt 0 view .LVU270
 785 017a F344     		add	fp, fp, lr
 786 017c CB1A     		subs	r3, r1, r3
 787 017e 67EB0B0B 		sbc	fp, r7, fp
 788 0182 13F10043 		adds	r3, r3, #-2147483648
 789 0186 4BF10003 		adc	r3, fp, #0
 790              	.LVL86:
 290:Drivers/CMSIS/DSP/Source/TransformFunctions/arm_cfft_radix2_q31.c ****             multAcc_32x32_keep32_R(p1, xt, sinVal);
 791              		.loc 1 290 13 is_stmt 1 view .LVU271
 792 018a 00FB02F2 		mul	r2, r0, r2
 793 018e 019F     		ldr	r7, [sp, #4]
 794 0190 09FB0722 		mla	r2, r9, r7, r2
 795 0194 A0FB0907 		umull	r0, r7, r0, r9
 796              	.LVL87:
 797              		.loc 1 290 13 is_stmt 0 view .LVU272
 798 0198 3A44     		add	r2, r2, r7
 799 019a 0918     		adds	r1, r1, r0
 800 019c 11F10041 		adds	r1, r1, #-2147483648
 801 01a0 42EB0602 		adc	r2, r2, r6
 802              	.LVL88:
 291:Drivers/CMSIS/DSP/Source/TransformFunctions/arm_cfft_radix2_q31.c **** 
 292:Drivers/CMSIS/DSP/Source/TransformFunctions/arm_cfft_radix2_q31.c ****             pSrc[2U * l] = p0;
 803              		.loc 1 292 13 is_stmt 1 view .LVU273
 804              		.loc 1 292 26 is_stmt 0 view .LVU274
 805 01a4 4AF83C30 		str	r3, [r10, ip, lsl #3]
 293:Drivers/CMSIS/DSP/Source/TransformFunctions/arm_cfft_radix2_q31.c ****             pSrc[2U * l + 1U] = p1;
 806              		.loc 1 293 13 is_stmt 1 view .LVU275
 807              		.loc 1 293 31 is_stmt 0 view .LVU276
 808 01a8 4AF80820 		str	r2, [r10, r8]
 278:Drivers/CMSIS/DSP/Source/TransformFunctions/arm_cfft_radix2_q31.c ****          {
 809              		.loc 1 278 36 is_stmt 1 discriminator 3 view .LVU277
 810 01ac 049B     		ldr	r3, [sp, #16]
 811              	.LVL89:
 278:Drivers/CMSIS/DSP/Source/TransformFunctions/arm_cfft_radix2_q31.c ****          {
 812              		.loc 1 278 36 is_stmt 0 discriminator 3 view .LVU278
 813 01ae 1C44     		add	r4, r4, r3
 814              	.LVL90:
 815              	.L18:
 278:Drivers/CMSIS/DSP/Source/TransformFunctions/arm_cfft_radix2_q31.c ****          {
 816              		.loc 1 278 24 is_stmt 1 discriminator 1 view .LVU279
 817 01b0 039B     		ldr	r3, [sp, #12]
 818 01b2 9C42     		cmp	r4, r3
 819 01b4 A4D3     		bcc	.L19
 271:Drivers/CMSIS/DSP/Source/TransformFunctions/arm_cfft_radix2_q31.c ****       {
 820              		.loc 1 271 28 is_stmt 0 discriminator 2 view .LVU280
ARM GAS  /var/folders/n6/c271nzx11xl4r4_m7sqjlt0m0000gn/T//cccK8ChI.s 			page 21


 821 01b6 0599     		ldr	r1, [sp, #20]
 822 01b8 0698     		ldr	r0, [sp, #24]
 823 01ba 079F     		ldr	r7, [sp, #28]
 271:Drivers/CMSIS/DSP/Source/TransformFunctions/arm_cfft_radix2_q31.c ****       {
 824              		.loc 1 271 28 is_stmt 1 discriminator 2 view .LVU281
 825 01bc 0131     		adds	r1, r1, #1
 826              	.LVL91:
 827              	.L17:
 271:Drivers/CMSIS/DSP/Source/TransformFunctions/arm_cfft_radix2_q31.c ****       {
 828              		.loc 1 271 21 discriminator 1 view .LVU282
 829 01be 029B     		ldr	r3, [sp, #8]
 830 01c0 9942     		cmp	r1, r3
 831 01c2 0CD2     		bcs	.L25
 273:Drivers/CMSIS/DSP/Source/TransformFunctions/arm_cfft_radix2_q31.c ****          sinVal = pCoef[(ia * 2) + 1];
 832              		.loc 1 273 10 view .LVU283
 273:Drivers/CMSIS/DSP/Source/TransformFunctions/arm_cfft_radix2_q31.c ****          sinVal = pCoef[(ia * 2) + 1];
 833              		.loc 1 273 24 is_stmt 0 view .LVU284
 834 01c4 C200     		lsls	r2, r0, #3
 273:Drivers/CMSIS/DSP/Source/TransformFunctions/arm_cfft_radix2_q31.c ****          sinVal = pCoef[(ia * 2) + 1];
 835              		.loc 1 273 17 view .LVU285
 836 01c6 57F83050 		ldr	r5, [r7, r0, lsl #3]
 837              	.LVL92:
 274:Drivers/CMSIS/DSP/Source/TransformFunctions/arm_cfft_radix2_q31.c ****          ia = ia + twidCoefModifier;
 838              		.loc 1 274 10 is_stmt 1 view .LVU286
 274:Drivers/CMSIS/DSP/Source/TransformFunctions/arm_cfft_radix2_q31.c ****          ia = ia + twidCoefModifier;
 839              		.loc 1 274 24 is_stmt 0 view .LVU287
 840 01ca 0432     		adds	r2, r2, #4
 274:Drivers/CMSIS/DSP/Source/TransformFunctions/arm_cfft_radix2_q31.c ****          ia = ia + twidCoefModifier;
 841              		.loc 1 274 17 view .LVU288
 842 01cc 57F80290 		ldr	r9, [r7, r2]
 843              	.LVL93:
 275:Drivers/CMSIS/DSP/Source/TransformFunctions/arm_cfft_radix2_q31.c **** 
 844              		.loc 1 275 10 is_stmt 1 view .LVU289
 275:Drivers/CMSIS/DSP/Source/TransformFunctions/arm_cfft_radix2_q31.c **** 
 845              		.loc 1 275 13 is_stmt 0 view .LVU290
 846 01d0 089B     		ldr	r3, [sp, #32]
 847 01d2 1844     		add	r0, r0, r3
 848              	.LVL94:
 278:Drivers/CMSIS/DSP/Source/TransformFunctions/arm_cfft_radix2_q31.c ****          {
 849              		.loc 1 278 10 is_stmt 1 view .LVU291
 278:Drivers/CMSIS/DSP/Source/TransformFunctions/arm_cfft_radix2_q31.c ****          {
 850              		.loc 1 278 17 is_stmt 0 view .LVU292
 851 01d4 0C46     		mov	r4, r1
 852 01d6 0591     		str	r1, [sp, #20]
 853 01d8 0690     		str	r0, [sp, #24]
 854 01da 0797     		str	r7, [sp, #28]
 278:Drivers/CMSIS/DSP/Source/TransformFunctions/arm_cfft_radix2_q31.c ****          {
 855              		.loc 1 278 10 view .LVU293
 856 01dc E8E7     		b	.L18
 857              	.LVL95:
 858              	.L25:
 294:Drivers/CMSIS/DSP/Source/TransformFunctions/arm_cfft_radix2_q31.c ****          }                         // butterfly loop end
 295:Drivers/CMSIS/DSP/Source/TransformFunctions/arm_cfft_radix2_q31.c **** 
 296:Drivers/CMSIS/DSP/Source/TransformFunctions/arm_cfft_radix2_q31.c ****       }                           // groups loop end
 297:Drivers/CMSIS/DSP/Source/TransformFunctions/arm_cfft_radix2_q31.c **** 
 298:Drivers/CMSIS/DSP/Source/TransformFunctions/arm_cfft_radix2_q31.c ****       twidCoefModifier = twidCoefModifier << 1U;
 859              		.loc 1 298 24 view .LVU294
ARM GAS  /var/folders/n6/c271nzx11xl4r4_m7sqjlt0m0000gn/T//cccK8ChI.s 			page 22


 860 01de 089B     		ldr	r3, [sp, #32]
 861 01e0 099A     		ldr	r2, [sp, #36]
 862              		.loc 1 298 7 is_stmt 1 view .LVU295
 863              		.loc 1 298 24 is_stmt 0 view .LVU296
 864 01e2 5B00     		lsls	r3, r3, #1
 865              	.LVL96:
 866              		.loc 1 298 24 view .LVU297
 867 01e4 9BB2     		uxth	r3, r3
 264:Drivers/CMSIS/DSP/Source/TransformFunctions/arm_cfft_radix2_q31.c ****    {
 868              		.loc 1 264 34 is_stmt 1 discriminator 2 view .LVU298
 869 01e6 5208     		lsrs	r2, r2, #1
 870              	.LVL97:
 267:Drivers/CMSIS/DSP/Source/TransformFunctions/arm_cfft_radix2_q31.c ****       ia = 0;
 871              		.loc 1 267 10 is_stmt 0 view .LVU299
 872 01e8 0299     		ldr	r1, [sp, #8]
 873              	.LVL98:
 267:Drivers/CMSIS/DSP/Source/TransformFunctions/arm_cfft_radix2_q31.c ****       ia = 0;
 874              		.loc 1 267 10 view .LVU300
 875 01ea 0491     		str	r1, [sp, #16]
 876              	.LVL99:
 877              	.L16:
 264:Drivers/CMSIS/DSP/Source/TransformFunctions/arm_cfft_radix2_q31.c ****    {
 878              		.loc 1 264 27 is_stmt 1 discriminator 1 view .LVU301
 879 01ec 022A     		cmp	r2, #2
 880 01ee 07D9     		bls	.L26
 266:Drivers/CMSIS/DSP/Source/TransformFunctions/arm_cfft_radix2_q31.c ****       n2 = n2 >> 1;
 881              		.loc 1 266 7 view .LVU302
 882              	.LVL100:
 267:Drivers/CMSIS/DSP/Source/TransformFunctions/arm_cfft_radix2_q31.c ****       ia = 0;
 883              		.loc 1 267 7 view .LVU303
 267:Drivers/CMSIS/DSP/Source/TransformFunctions/arm_cfft_radix2_q31.c ****       ia = 0;
 884              		.loc 1 267 10 is_stmt 0 view .LVU304
 885 01f0 0499     		ldr	r1, [sp, #16]
 886 01f2 4908     		lsrs	r1, r1, #1
 887 01f4 0291     		str	r1, [sp, #8]
 888              	.LVL101:
 268:Drivers/CMSIS/DSP/Source/TransformFunctions/arm_cfft_radix2_q31.c **** 
 889              		.loc 1 268 7 is_stmt 1 view .LVU305
 271:Drivers/CMSIS/DSP/Source/TransformFunctions/arm_cfft_radix2_q31.c ****       {
 890              		.loc 1 271 7 view .LVU306
 268:Drivers/CMSIS/DSP/Source/TransformFunctions/arm_cfft_radix2_q31.c **** 
 891              		.loc 1 268 10 is_stmt 0 view .LVU307
 892 01f6 0020     		movs	r0, #0
 271:Drivers/CMSIS/DSP/Source/TransformFunctions/arm_cfft_radix2_q31.c ****       {
 893              		.loc 1 271 14 view .LVU308
 894 01f8 0146     		mov	r1, r0
 895              	.LVL102:
 271:Drivers/CMSIS/DSP/Source/TransformFunctions/arm_cfft_radix2_q31.c ****       {
 896              		.loc 1 271 14 view .LVU309
 897 01fa 0893     		str	r3, [sp, #32]
 898 01fc 0992     		str	r2, [sp, #36]
 271:Drivers/CMSIS/DSP/Source/TransformFunctions/arm_cfft_radix2_q31.c ****       {
 899              		.loc 1 271 7 view .LVU310
 900 01fe DEE7     		b	.L17
 901              	.LVL103:
 902              	.L26:
 299:Drivers/CMSIS/DSP/Source/TransformFunctions/arm_cfft_radix2_q31.c ****    }                             // stages loop end
ARM GAS  /var/folders/n6/c271nzx11xl4r4_m7sqjlt0m0000gn/T//cccK8ChI.s 			page 23


 300:Drivers/CMSIS/DSP/Source/TransformFunctions/arm_cfft_radix2_q31.c **** 
 301:Drivers/CMSIS/DSP/Source/TransformFunctions/arm_cfft_radix2_q31.c ****    n1 = n2;
 903              		.loc 1 301 4 is_stmt 1 view .LVU311
 302:Drivers/CMSIS/DSP/Source/TransformFunctions/arm_cfft_radix2_q31.c ****    n2 = n2 >> 1;
 904              		.loc 1 302 4 view .LVU312
 905              		.loc 1 302 7 is_stmt 0 view .LVU313
 906 0200 049E     		ldr	r6, [sp, #16]
 907 0202 7508     		lsrs	r5, r6, #1
 908              	.LVL104:
 303:Drivers/CMSIS/DSP/Source/TransformFunctions/arm_cfft_radix2_q31.c ****    ia = 0;
 909              		.loc 1 303 4 is_stmt 1 view .LVU314
 304:Drivers/CMSIS/DSP/Source/TransformFunctions/arm_cfft_radix2_q31.c **** 
 305:Drivers/CMSIS/DSP/Source/TransformFunctions/arm_cfft_radix2_q31.c ****    cosVal = pCoef[ia * 2];
 910              		.loc 1 305 4 view .LVU315
 306:Drivers/CMSIS/DSP/Source/TransformFunctions/arm_cfft_radix2_q31.c ****    sinVal = pCoef[(ia * 2) + 1];
 911              		.loc 1 306 4 view .LVU316
 307:Drivers/CMSIS/DSP/Source/TransformFunctions/arm_cfft_radix2_q31.c ****    ia = ia + twidCoefModifier;
 912              		.loc 1 307 4 view .LVU317
 308:Drivers/CMSIS/DSP/Source/TransformFunctions/arm_cfft_radix2_q31.c **** 
 309:Drivers/CMSIS/DSP/Source/TransformFunctions/arm_cfft_radix2_q31.c ****    // loop for butterfly
 310:Drivers/CMSIS/DSP/Source/TransformFunctions/arm_cfft_radix2_q31.c ****    for (i = 0; i < fftLen; i += n1)
 913              		.loc 1 310 4 view .LVU318
 914              		.loc 1 310 11 is_stmt 0 view .LVU319
 915 0204 0023     		movs	r3, #0
 916              	.LVL105:
 917              		.loc 1 310 11 view .LVU320
 918 0206 039F     		ldr	r7, [sp, #12]
 919              		.loc 1 310 4 view .LVU321
 920 0208 37E0     		b	.L22
 921              	.LVL106:
 922              	.L23:
 311:Drivers/CMSIS/DSP/Source/TransformFunctions/arm_cfft_radix2_q31.c ****    {
 312:Drivers/CMSIS/DSP/Source/TransformFunctions/arm_cfft_radix2_q31.c ****       l = i + n2;
 923              		.loc 1 312 7 is_stmt 1 view .LVU322
 924              		.loc 1 312 9 is_stmt 0 view .LVU323
 925 020a 5C19     		adds	r4, r3, r5
 926              	.LVL107:
 313:Drivers/CMSIS/DSP/Source/TransformFunctions/arm_cfft_radix2_q31.c ****       xt = pSrc[2 * i] - pSrc[2 * l];
 927              		.loc 1 313 7 is_stmt 1 view .LVU324
 928              		.loc 1 313 16 is_stmt 0 view .LVU325
 929 020c D900     		lsls	r1, r3, #3
 930 020e 5AF83300 		ldr	r0, [r10, r3, lsl #3]
 931              		.loc 1 313 30 view .LVU326
 932 0212 E200     		lsls	r2, r4, #3
 933 0214 5AF834E0 		ldr	lr, [r10, r4, lsl #3]
 934              		.loc 1 313 10 view .LVU327
 935 0218 A0EB0E0C 		sub	ip, r0, lr
 936              	.LVL108:
 314:Drivers/CMSIS/DSP/Source/TransformFunctions/arm_cfft_radix2_q31.c ****       pSrc[2 * i] = (pSrc[2 * i] + pSrc[2 * l]);
 937              		.loc 1 314 7 is_stmt 1 view .LVU328
 938              		.loc 1 314 34 is_stmt 0 view .LVU329
 939 021c 7044     		add	r0, r0, lr
 940              		.loc 1 314 19 view .LVU330
 941 021e 4AF83300 		str	r0, [r10, r3, lsl #3]
 315:Drivers/CMSIS/DSP/Source/TransformFunctions/arm_cfft_radix2_q31.c **** 
 316:Drivers/CMSIS/DSP/Source/TransformFunctions/arm_cfft_radix2_q31.c ****       yt = pSrc[2 * i + 1] - pSrc[2 * l + 1];
 942              		.loc 1 316 7 is_stmt 1 view .LVU331
ARM GAS  /var/folders/n6/c271nzx11xl4r4_m7sqjlt0m0000gn/T//cccK8ChI.s 			page 24


 943              		.loc 1 316 16 is_stmt 0 view .LVU332
 944 0222 0431     		adds	r1, r1, #4
 945 0224 5AF80100 		ldr	r0, [r10, r1]
 946              		.loc 1 316 34 view .LVU333
 947 0228 0432     		adds	r2, r2, #4
 948 022a 5AF802E0 		ldr	lr, [r10, r2]
 949              		.loc 1 316 10 view .LVU334
 950 022e A0EB0E08 		sub	r8, r0, lr
 951              	.LVL109:
 317:Drivers/CMSIS/DSP/Source/TransformFunctions/arm_cfft_radix2_q31.c ****       pSrc[2 * i + 1] = (pSrc[2 * l + 1] + pSrc[2 * i + 1]);
 952              		.loc 1 317 7 is_stmt 1 view .LVU335
 953              		.loc 1 317 42 is_stmt 0 view .LVU336
 954 0232 7044     		add	r0, r0, lr
 955              		.loc 1 317 23 view .LVU337
 956 0234 4AF80100 		str	r0, [r10, r1]
 318:Drivers/CMSIS/DSP/Source/TransformFunctions/arm_cfft_radix2_q31.c **** 
 319:Drivers/CMSIS/DSP/Source/TransformFunctions/arm_cfft_radix2_q31.c ****       pSrc[2U * l] = xt;
 957              		.loc 1 319 7 is_stmt 1 view .LVU338
 958              		.loc 1 319 20 is_stmt 0 view .LVU339
 959 0238 4AF834C0 		str	ip, [r10, r4, lsl #3]
 320:Drivers/CMSIS/DSP/Source/TransformFunctions/arm_cfft_radix2_q31.c **** 
 321:Drivers/CMSIS/DSP/Source/TransformFunctions/arm_cfft_radix2_q31.c ****       pSrc[2U * l + 1U] = yt;
 960              		.loc 1 321 7 is_stmt 1 view .LVU340
 961              		.loc 1 321 25 is_stmt 0 view .LVU341
 962 023c 4AF80280 		str	r8, [r10, r2]
 322:Drivers/CMSIS/DSP/Source/TransformFunctions/arm_cfft_radix2_q31.c **** 
 323:Drivers/CMSIS/DSP/Source/TransformFunctions/arm_cfft_radix2_q31.c ****       i += n1;
 963              		.loc 1 323 7 is_stmt 1 view .LVU342
 964              		.loc 1 323 9 is_stmt 0 view .LVU343
 965 0240 3344     		add	r3, r3, r6
 966              	.LVL110:
 324:Drivers/CMSIS/DSP/Source/TransformFunctions/arm_cfft_radix2_q31.c ****       l = i + n2;
 967              		.loc 1 324 7 is_stmt 1 view .LVU344
 968              		.loc 1 324 9 is_stmt 0 view .LVU345
 969 0242 EC18     		adds	r4, r5, r3
 970              	.LVL111:
 325:Drivers/CMSIS/DSP/Source/TransformFunctions/arm_cfft_radix2_q31.c **** 
 326:Drivers/CMSIS/DSP/Source/TransformFunctions/arm_cfft_radix2_q31.c ****       xt = pSrc[2 * i] - pSrc[2 * l];
 971              		.loc 1 326 7 is_stmt 1 view .LVU346
 972              		.loc 1 326 16 is_stmt 0 view .LVU347
 973 0244 D900     		lsls	r1, r3, #3
 974 0246 5AF83300 		ldr	r0, [r10, r3, lsl #3]
 975              		.loc 1 326 30 view .LVU348
 976 024a E200     		lsls	r2, r4, #3
 977 024c 5AF834E0 		ldr	lr, [r10, r4, lsl #3]
 978              		.loc 1 326 10 view .LVU349
 979 0250 A0EB0E0C 		sub	ip, r0, lr
 980              	.LVL112:
 327:Drivers/CMSIS/DSP/Source/TransformFunctions/arm_cfft_radix2_q31.c ****       pSrc[2 * i] = (pSrc[2 * i] + pSrc[2 * l]);
 981              		.loc 1 327 7 is_stmt 1 view .LVU350
 982              		.loc 1 327 34 is_stmt 0 view .LVU351
 983 0254 7044     		add	r0, r0, lr
 984              		.loc 1 327 19 view .LVU352
 985 0256 4AF83300 		str	r0, [r10, r3, lsl #3]
 328:Drivers/CMSIS/DSP/Source/TransformFunctions/arm_cfft_radix2_q31.c **** 
 329:Drivers/CMSIS/DSP/Source/TransformFunctions/arm_cfft_radix2_q31.c ****       yt = pSrc[2 * i + 1] - pSrc[2 * l + 1];
 986              		.loc 1 329 7 is_stmt 1 view .LVU353
ARM GAS  /var/folders/n6/c271nzx11xl4r4_m7sqjlt0m0000gn/T//cccK8ChI.s 			page 25


 987              		.loc 1 329 16 is_stmt 0 view .LVU354
 988 025a 0431     		adds	r1, r1, #4
 989 025c 5AF80100 		ldr	r0, [r10, r1]
 990              		.loc 1 329 34 view .LVU355
 991 0260 0432     		adds	r2, r2, #4
 992 0262 5AF802E0 		ldr	lr, [r10, r2]
 993              		.loc 1 329 10 view .LVU356
 994 0266 A0EB0E08 		sub	r8, r0, lr
 995              	.LVL113:
 330:Drivers/CMSIS/DSP/Source/TransformFunctions/arm_cfft_radix2_q31.c ****       pSrc[2 * i + 1] = (pSrc[2 * l + 1] + pSrc[2 * i + 1]);
 996              		.loc 1 330 7 is_stmt 1 view .LVU357
 997              		.loc 1 330 42 is_stmt 0 view .LVU358
 998 026a 7044     		add	r0, r0, lr
 999              		.loc 1 330 23 view .LVU359
 1000 026c 4AF80100 		str	r0, [r10, r1]
 331:Drivers/CMSIS/DSP/Source/TransformFunctions/arm_cfft_radix2_q31.c **** 
 332:Drivers/CMSIS/DSP/Source/TransformFunctions/arm_cfft_radix2_q31.c ****       pSrc[2U * l] = xt;
 1001              		.loc 1 332 7 is_stmt 1 view .LVU360
 1002              		.loc 1 332 20 is_stmt 0 view .LVU361
 1003 0270 4AF834C0 		str	ip, [r10, r4, lsl #3]
 333:Drivers/CMSIS/DSP/Source/TransformFunctions/arm_cfft_radix2_q31.c **** 
 334:Drivers/CMSIS/DSP/Source/TransformFunctions/arm_cfft_radix2_q31.c ****       pSrc[2U * l + 1U] = yt;
 1004              		.loc 1 334 7 is_stmt 1 view .LVU362
 1005              		.loc 1 334 25 is_stmt 0 view .LVU363
 1006 0274 4AF80280 		str	r8, [r10, r2]
 310:Drivers/CMSIS/DSP/Source/TransformFunctions/arm_cfft_radix2_q31.c ****    {
 1007              		.loc 1 310 30 is_stmt 1 discriminator 3 view .LVU364
 1008 0278 3344     		add	r3, r3, r6
 1009              	.LVL114:
 1010              	.L22:
 310:Drivers/CMSIS/DSP/Source/TransformFunctions/arm_cfft_radix2_q31.c ****    {
 1011              		.loc 1 310 18 discriminator 1 view .LVU365
 1012 027a BB42     		cmp	r3, r7
 1013 027c C5D3     		bcc	.L23
 335:Drivers/CMSIS/DSP/Source/TransformFunctions/arm_cfft_radix2_q31.c **** 
 336:Drivers/CMSIS/DSP/Source/TransformFunctions/arm_cfft_radix2_q31.c ****    }                             // butterfly loop end
 337:Drivers/CMSIS/DSP/Source/TransformFunctions/arm_cfft_radix2_q31.c **** 
 338:Drivers/CMSIS/DSP/Source/TransformFunctions/arm_cfft_radix2_q31.c **** }
 1014              		.loc 1 338 1 is_stmt 0 view .LVU366
 1015 027e 0BB0     		add	sp, sp, #44
 1016              		.cfi_def_cfa_offset 36
 1017              		@ sp needed
 1018 0280 BDE8F08F 		pop	{r4, r5, r6, r7, r8, r9, r10, fp, pc}
 1019              		.loc 1 338 1 view .LVU367
 1020              		.cfi_endproc
 1021              	.LFE137:
 1023              		.section	.text.arm_cfft_radix2_q31,"ax",%progbits
 1024              		.align	1
 1025              		.global	arm_cfft_radix2_q31
 1026              		.syntax unified
 1027              		.thumb
 1028              		.thumb_func
 1030              	arm_cfft_radix2_q31:
 1031              	.LVL115:
 1032              	.LFB135:
  70:Drivers/CMSIS/DSP/Source/TransformFunctions/arm_cfft_radix2_q31.c **** 
 1033              		.loc 1 70 1 is_stmt 1 view -0
ARM GAS  /var/folders/n6/c271nzx11xl4r4_m7sqjlt0m0000gn/T//cccK8ChI.s 			page 26


 1034              		.cfi_startproc
 1035              		@ args = 0, pretend = 0, frame = 0
 1036              		@ frame_needed = 0, uses_anonymous_args = 0
  70:Drivers/CMSIS/DSP/Source/TransformFunctions/arm_cfft_radix2_q31.c **** 
 1037              		.loc 1 70 1 is_stmt 0 view .LVU369
 1038 0000 38B5     		push	{r3, r4, r5, lr}
 1039              		.cfi_def_cfa_offset 16
 1040              		.cfi_offset 3, -16
 1041              		.cfi_offset 4, -12
 1042              		.cfi_offset 5, -8
 1043              		.cfi_offset 14, -4
 1044 0002 0446     		mov	r4, r0
 1045 0004 0D46     		mov	r5, r1
  72:Drivers/CMSIS/DSP/Source/TransformFunctions/arm_cfft_radix2_q31.c ****    {
 1046              		.loc 1 72 4 is_stmt 1 view .LVU370
  72:Drivers/CMSIS/DSP/Source/TransformFunctions/arm_cfft_radix2_q31.c ****    {
 1047              		.loc 1 72 9 is_stmt 0 view .LVU371
 1048 0006 8378     		ldrb	r3, [r0, #2]	@ zero_extendqisi2
  72:Drivers/CMSIS/DSP/Source/TransformFunctions/arm_cfft_radix2_q31.c ****    {
 1049              		.loc 1 72 7 view .LVU372
 1050 0008 012B     		cmp	r3, #1
 1051 000a 0CD0     		beq	.L31
  79:Drivers/CMSIS/DSP/Source/TransformFunctions/arm_cfft_radix2_q31.c ****       S->pTwiddle, S->twidCoefModifier);
 1052              		.loc 1 79 7 is_stmt 1 view .LVU373
 1053 000c 8389     		ldrh	r3, [r0, #12]
 1054 000e 4268     		ldr	r2, [r0, #4]
 1055 0010 0188     		ldrh	r1, [r0]
 1056              	.LVL116:
  79:Drivers/CMSIS/DSP/Source/TransformFunctions/arm_cfft_radix2_q31.c ****       S->pTwiddle, S->twidCoefModifier);
 1057              		.loc 1 79 7 is_stmt 0 view .LVU374
 1058 0012 2846     		mov	r0, r5
 1059              	.LVL117:
  79:Drivers/CMSIS/DSP/Source/TransformFunctions/arm_cfft_radix2_q31.c ****       S->pTwiddle, S->twidCoefModifier);
 1060              		.loc 1 79 7 view .LVU375
 1061 0014 FFF7FEFF 		bl	arm_radix2_butterfly_q31
 1062              	.LVL118:
 1063              	.L29:
  83:Drivers/CMSIS/DSP/Source/TransformFunctions/arm_cfft_radix2_q31.c **** }
 1064              		.loc 1 83 4 is_stmt 1 view .LVU376
 1065 0018 A368     		ldr	r3, [r4, #8]
 1066 001a E289     		ldrh	r2, [r4, #14]
 1067 001c 2188     		ldrh	r1, [r4]
 1068 001e 2846     		mov	r0, r5
 1069 0020 FFF7FEFF 		bl	arm_bitreversal_q31
 1070              	.LVL119:
  84:Drivers/CMSIS/DSP/Source/TransformFunctions/arm_cfft_radix2_q31.c **** 
 1071              		.loc 1 84 1 is_stmt 0 view .LVU377
 1072 0024 38BD     		pop	{r3, r4, r5, pc}
 1073              	.LVL120:
 1074              	.L31:
  74:Drivers/CMSIS/DSP/Source/TransformFunctions/arm_cfft_radix2_q31.c ****       S->pTwiddle, S->twidCoefModifier);
 1075              		.loc 1 74 7 is_stmt 1 view .LVU378
 1076 0026 8389     		ldrh	r3, [r0, #12]
 1077 0028 4268     		ldr	r2, [r0, #4]
 1078 002a 0188     		ldrh	r1, [r0]
 1079              	.LVL121:
  74:Drivers/CMSIS/DSP/Source/TransformFunctions/arm_cfft_radix2_q31.c ****       S->pTwiddle, S->twidCoefModifier);
ARM GAS  /var/folders/n6/c271nzx11xl4r4_m7sqjlt0m0000gn/T//cccK8ChI.s 			page 27


 1080              		.loc 1 74 7 is_stmt 0 view .LVU379
 1081 002c 2846     		mov	r0, r5
 1082              	.LVL122:
  74:Drivers/CMSIS/DSP/Source/TransformFunctions/arm_cfft_radix2_q31.c ****       S->pTwiddle, S->twidCoefModifier);
 1083              		.loc 1 74 7 view .LVU380
 1084 002e FFF7FEFF 		bl	arm_radix2_butterfly_inverse_q31
 1085              	.LVL123:
 1086 0032 F1E7     		b	.L29
 1087              		.cfi_endproc
 1088              	.LFE135:
 1090              		.text
 1091              	.Letext0:
 1092              		.file 2 "/Users/killian/Library/Application Support/Code/User/globalStorage/bmd.stm32-for-vscode/@
 1093              		.file 3 "/Users/killian/Library/Application Support/Code/User/globalStorage/bmd.stm32-for-vscode/@
 1094              		.file 4 "Drivers/CMSIS/DSP/Include/arm_math.h"
ARM GAS  /var/folders/n6/c271nzx11xl4r4_m7sqjlt0m0000gn/T//cccK8ChI.s 			page 28

