ARM GAS  /var/folders/n6/c271nzx11xl4r4_m7sqjlt0m0000gn/T//cc3nxiWP.s 			page 1


   1              		.cpu cortex-m7
   2              		.arch armv7e-m
   3              		.fpu fpv5-d16
   4              		.eabi_attribute 28, 1
   5              		.eabi_attribute 20, 1
   6              		.eabi_attribute 21, 1
   7              		.eabi_attribute 23, 3
   8              		.eabi_attribute 24, 1
   9              		.eabi_attribute 25, 1
  10              		.eabi_attribute 26, 1
  11              		.eabi_attribute 30, 1
  12              		.eabi_attribute 34, 1
  13              		.eabi_attribute 18, 4
  14              		.file	"arm_fir_q31.c"
  15              		.text
  16              	.Ltext0:
  17              		.cfi_sections	.debug_frame
  18              		.file 1 "Drivers/CMSIS/DSP/Source/FilteringFunctions/arm_fir_q31.c"
  19              		.section	.text.arm_fir_q31,"ax",%progbits
  20              		.align	1
  21              		.global	arm_fir_q31
  22              		.syntax unified
  23              		.thumb
  24              		.thumb_func
  26              	arm_fir_q31:
  27              	.LVL0:
  28              	.LFB135:
   1:Drivers/CMSIS/DSP/Source/FilteringFunctions/arm_fir_q31.c **** /* ----------------------------------------------------------------------
   2:Drivers/CMSIS/DSP/Source/FilteringFunctions/arm_fir_q31.c ****  * Project:      CMSIS DSP Library
   3:Drivers/CMSIS/DSP/Source/FilteringFunctions/arm_fir_q31.c ****  * Title:        arm_fir_q31.c
   4:Drivers/CMSIS/DSP/Source/FilteringFunctions/arm_fir_q31.c ****  * Description:  Q31 FIR filter processing function
   5:Drivers/CMSIS/DSP/Source/FilteringFunctions/arm_fir_q31.c ****  *
   6:Drivers/CMSIS/DSP/Source/FilteringFunctions/arm_fir_q31.c ****  * $Date:        27. January 2017
   7:Drivers/CMSIS/DSP/Source/FilteringFunctions/arm_fir_q31.c ****  * $Revision:    V.1.5.1
   8:Drivers/CMSIS/DSP/Source/FilteringFunctions/arm_fir_q31.c ****  *
   9:Drivers/CMSIS/DSP/Source/FilteringFunctions/arm_fir_q31.c ****  * Target Processor: Cortex-M cores
  10:Drivers/CMSIS/DSP/Source/FilteringFunctions/arm_fir_q31.c ****  * -------------------------------------------------------------------- */
  11:Drivers/CMSIS/DSP/Source/FilteringFunctions/arm_fir_q31.c **** /*
  12:Drivers/CMSIS/DSP/Source/FilteringFunctions/arm_fir_q31.c ****  * Copyright (C) 2010-2017 ARM Limited or its affiliates. All rights reserved.
  13:Drivers/CMSIS/DSP/Source/FilteringFunctions/arm_fir_q31.c ****  *
  14:Drivers/CMSIS/DSP/Source/FilteringFunctions/arm_fir_q31.c ****  * SPDX-License-Identifier: Apache-2.0
  15:Drivers/CMSIS/DSP/Source/FilteringFunctions/arm_fir_q31.c ****  *
  16:Drivers/CMSIS/DSP/Source/FilteringFunctions/arm_fir_q31.c ****  * Licensed under the Apache License, Version 2.0 (the License); you may
  17:Drivers/CMSIS/DSP/Source/FilteringFunctions/arm_fir_q31.c ****  * not use this file except in compliance with the License.
  18:Drivers/CMSIS/DSP/Source/FilteringFunctions/arm_fir_q31.c ****  * You may obtain a copy of the License at
  19:Drivers/CMSIS/DSP/Source/FilteringFunctions/arm_fir_q31.c ****  *
  20:Drivers/CMSIS/DSP/Source/FilteringFunctions/arm_fir_q31.c ****  * www.apache.org/licenses/LICENSE-2.0
  21:Drivers/CMSIS/DSP/Source/FilteringFunctions/arm_fir_q31.c ****  *
  22:Drivers/CMSIS/DSP/Source/FilteringFunctions/arm_fir_q31.c ****  * Unless required by applicable law or agreed to in writing, software
  23:Drivers/CMSIS/DSP/Source/FilteringFunctions/arm_fir_q31.c ****  * distributed under the License is distributed on an AS IS BASIS, WITHOUT
  24:Drivers/CMSIS/DSP/Source/FilteringFunctions/arm_fir_q31.c ****  * WARRANTIES OR CONDITIONS OF ANY KIND, either express or implied.
  25:Drivers/CMSIS/DSP/Source/FilteringFunctions/arm_fir_q31.c ****  * See the License for the specific language governing permissions and
  26:Drivers/CMSIS/DSP/Source/FilteringFunctions/arm_fir_q31.c ****  * limitations under the License.
  27:Drivers/CMSIS/DSP/Source/FilteringFunctions/arm_fir_q31.c ****  */
  28:Drivers/CMSIS/DSP/Source/FilteringFunctions/arm_fir_q31.c **** 
  29:Drivers/CMSIS/DSP/Source/FilteringFunctions/arm_fir_q31.c **** #include "arm_math.h"
  30:Drivers/CMSIS/DSP/Source/FilteringFunctions/arm_fir_q31.c **** 
ARM GAS  /var/folders/n6/c271nzx11xl4r4_m7sqjlt0m0000gn/T//cc3nxiWP.s 			page 2


  31:Drivers/CMSIS/DSP/Source/FilteringFunctions/arm_fir_q31.c **** /**
  32:Drivers/CMSIS/DSP/Source/FilteringFunctions/arm_fir_q31.c ****  * @ingroup groupFilters
  33:Drivers/CMSIS/DSP/Source/FilteringFunctions/arm_fir_q31.c ****  */
  34:Drivers/CMSIS/DSP/Source/FilteringFunctions/arm_fir_q31.c **** 
  35:Drivers/CMSIS/DSP/Source/FilteringFunctions/arm_fir_q31.c **** /**
  36:Drivers/CMSIS/DSP/Source/FilteringFunctions/arm_fir_q31.c ****  * @addtogroup FIR
  37:Drivers/CMSIS/DSP/Source/FilteringFunctions/arm_fir_q31.c ****  * @{
  38:Drivers/CMSIS/DSP/Source/FilteringFunctions/arm_fir_q31.c ****  */
  39:Drivers/CMSIS/DSP/Source/FilteringFunctions/arm_fir_q31.c **** 
  40:Drivers/CMSIS/DSP/Source/FilteringFunctions/arm_fir_q31.c **** /**
  41:Drivers/CMSIS/DSP/Source/FilteringFunctions/arm_fir_q31.c ****  * @param[in] *S points to an instance of the Q31 FIR filter structure.
  42:Drivers/CMSIS/DSP/Source/FilteringFunctions/arm_fir_q31.c ****  * @param[in] *pSrc points to the block of input data.
  43:Drivers/CMSIS/DSP/Source/FilteringFunctions/arm_fir_q31.c ****  * @param[out] *pDst points to the block of output data.
  44:Drivers/CMSIS/DSP/Source/FilteringFunctions/arm_fir_q31.c ****  * @param[in] blockSize number of samples to process per call.
  45:Drivers/CMSIS/DSP/Source/FilteringFunctions/arm_fir_q31.c ****  * @return none.
  46:Drivers/CMSIS/DSP/Source/FilteringFunctions/arm_fir_q31.c ****  *
  47:Drivers/CMSIS/DSP/Source/FilteringFunctions/arm_fir_q31.c ****  * @details
  48:Drivers/CMSIS/DSP/Source/FilteringFunctions/arm_fir_q31.c ****  * <b>Scaling and Overflow Behavior:</b>
  49:Drivers/CMSIS/DSP/Source/FilteringFunctions/arm_fir_q31.c ****  * \par
  50:Drivers/CMSIS/DSP/Source/FilteringFunctions/arm_fir_q31.c ****  * The function is implemented using an internal 64-bit accumulator.
  51:Drivers/CMSIS/DSP/Source/FilteringFunctions/arm_fir_q31.c ****  * The accumulator has a 2.62 format and maintains full precision of the intermediate multiplicatio
  52:Drivers/CMSIS/DSP/Source/FilteringFunctions/arm_fir_q31.c ****  * Thus, if the accumulator result overflows it wraps around rather than clip.
  53:Drivers/CMSIS/DSP/Source/FilteringFunctions/arm_fir_q31.c ****  * In order to avoid overflows completely the input signal must be scaled down by log2(numTaps) bit
  54:Drivers/CMSIS/DSP/Source/FilteringFunctions/arm_fir_q31.c ****  * After all multiply-accumulates are performed, the 2.62 accumulator is right shifted by 31 bits a
  55:Drivers/CMSIS/DSP/Source/FilteringFunctions/arm_fir_q31.c ****  *
  56:Drivers/CMSIS/DSP/Source/FilteringFunctions/arm_fir_q31.c ****  * \par
  57:Drivers/CMSIS/DSP/Source/FilteringFunctions/arm_fir_q31.c ****  * Refer to the function <code>arm_fir_fast_q31()</code> for a faster but less precise implementati
  58:Drivers/CMSIS/DSP/Source/FilteringFunctions/arm_fir_q31.c ****  */
  59:Drivers/CMSIS/DSP/Source/FilteringFunctions/arm_fir_q31.c **** 
  60:Drivers/CMSIS/DSP/Source/FilteringFunctions/arm_fir_q31.c **** void arm_fir_q31(
  61:Drivers/CMSIS/DSP/Source/FilteringFunctions/arm_fir_q31.c ****   const arm_fir_instance_q31 * S,
  62:Drivers/CMSIS/DSP/Source/FilteringFunctions/arm_fir_q31.c ****   q31_t * pSrc,
  63:Drivers/CMSIS/DSP/Source/FilteringFunctions/arm_fir_q31.c ****   q31_t * pDst,
  64:Drivers/CMSIS/DSP/Source/FilteringFunctions/arm_fir_q31.c ****   uint32_t blockSize)
  65:Drivers/CMSIS/DSP/Source/FilteringFunctions/arm_fir_q31.c **** {
  29              		.loc 1 65 1 view -0
  30              		.cfi_startproc
  31              		@ args = 0, pretend = 0, frame = 64
  32              		@ frame_needed = 0, uses_anonymous_args = 0
  33              		.loc 1 65 1 is_stmt 0 view .LVU1
  34 0000 2DE9F04F 		push	{r4, r5, r6, r7, r8, r9, r10, fp, lr}
  35              		.cfi_def_cfa_offset 36
  36              		.cfi_offset 4, -36
  37              		.cfi_offset 5, -32
  38              		.cfi_offset 6, -28
  39              		.cfi_offset 7, -24
  40              		.cfi_offset 8, -20
  41              		.cfi_offset 9, -16
  42              		.cfi_offset 10, -12
  43              		.cfi_offset 11, -8
  44              		.cfi_offset 14, -4
  45 0004 91B0     		sub	sp, sp, #68
  46              		.cfi_def_cfa_offset 104
  47 0006 0646     		mov	r6, r0
  48 0008 1546     		mov	r5, r2
  66:Drivers/CMSIS/DSP/Source/FilteringFunctions/arm_fir_q31.c ****   q31_t *pState = S->pState;                     /* State pointer */
  49              		.loc 1 66 3 is_stmt 1 view .LVU2
ARM GAS  /var/folders/n6/c271nzx11xl4r4_m7sqjlt0m0000gn/T//cc3nxiWP.s 			page 3


  50              		.loc 1 66 10 is_stmt 0 view .LVU3
  51 000a 4468     		ldr	r4, [r0, #4]
  52              	.LVL1:
  67:Drivers/CMSIS/DSP/Source/FilteringFunctions/arm_fir_q31.c ****   q31_t *pCoeffs = S->pCoeffs;                   /* Coefficient pointer */
  53              		.loc 1 67 3 is_stmt 1 view .LVU4
  54              		.loc 1 67 10 is_stmt 0 view .LVU5
  55 000c 8268     		ldr	r2, [r0, #8]
  56              	.LVL2:
  57              		.loc 1 67 10 view .LVU6
  58 000e 0792     		str	r2, [sp, #28]
  59              	.LVL3:
  68:Drivers/CMSIS/DSP/Source/FilteringFunctions/arm_fir_q31.c ****   q31_t *pStateCurnt;                            /* Points to the current sample of the state */
  60              		.loc 1 68 3 is_stmt 1 view .LVU7
  69:Drivers/CMSIS/DSP/Source/FilteringFunctions/arm_fir_q31.c **** 
  70:Drivers/CMSIS/DSP/Source/FilteringFunctions/arm_fir_q31.c **** 
  71:Drivers/CMSIS/DSP/Source/FilteringFunctions/arm_fir_q31.c **** #if defined (ARM_MATH_DSP)
  72:Drivers/CMSIS/DSP/Source/FilteringFunctions/arm_fir_q31.c **** 
  73:Drivers/CMSIS/DSP/Source/FilteringFunctions/arm_fir_q31.c ****   /* Run the below code for Cortex-M4 and Cortex-M3 */
  74:Drivers/CMSIS/DSP/Source/FilteringFunctions/arm_fir_q31.c **** 
  75:Drivers/CMSIS/DSP/Source/FilteringFunctions/arm_fir_q31.c ****   q31_t x0, x1, x2;                              /* Temporary variables to hold state */
  61              		.loc 1 75 3 view .LVU8
  76:Drivers/CMSIS/DSP/Source/FilteringFunctions/arm_fir_q31.c ****   q31_t c0;                                      /* Temporary variable to hold coefficient value */
  62              		.loc 1 76 3 view .LVU9
  77:Drivers/CMSIS/DSP/Source/FilteringFunctions/arm_fir_q31.c ****   q31_t *px;                                     /* Temporary pointer for state */
  63              		.loc 1 77 3 view .LVU10
  78:Drivers/CMSIS/DSP/Source/FilteringFunctions/arm_fir_q31.c ****   q31_t *pb;                                     /* Temporary pointer for coefficient buffer */
  64              		.loc 1 78 3 view .LVU11
  79:Drivers/CMSIS/DSP/Source/FilteringFunctions/arm_fir_q31.c ****   q63_t acc0, acc1, acc2;                        /* Accumulators */
  65              		.loc 1 79 3 view .LVU12
  80:Drivers/CMSIS/DSP/Source/FilteringFunctions/arm_fir_q31.c ****   uint32_t numTaps = S->numTaps;                 /* Number of filter coefficients in the filter */
  66              		.loc 1 80 3 view .LVU13
  67              		.loc 1 80 23 is_stmt 0 view .LVU14
  68 0010 B0F800B0 		ldrh	fp, [r0]
  69              	.LVL4:
  81:Drivers/CMSIS/DSP/Source/FilteringFunctions/arm_fir_q31.c ****   uint32_t i, tapCnt, blkCnt, tapCntN3;          /* Loop counters */
  70              		.loc 1 81 3 is_stmt 1 view .LVU15
  82:Drivers/CMSIS/DSP/Source/FilteringFunctions/arm_fir_q31.c **** 
  83:Drivers/CMSIS/DSP/Source/FilteringFunctions/arm_fir_q31.c ****   /* S->pState points to state array which contains previous frame (numTaps - 1) samples */
  84:Drivers/CMSIS/DSP/Source/FilteringFunctions/arm_fir_q31.c ****   /* pStateCurnt points to the location where the new input data should be written */
  85:Drivers/CMSIS/DSP/Source/FilteringFunctions/arm_fir_q31.c ****   pStateCurnt = &(S->pState[(numTaps - 1U)]);
  71              		.loc 1 85 3 view .LVU16
  72              		.loc 1 85 28 is_stmt 0 view .LVU17
  73 0014 6FF0404A 		mvn	r10, #-1073741824
  74 0018 DA44     		add	r10, r10, fp
  75              		.loc 1 85 15 view .LVU18
  76 001a 04EB8A00 		add	r0, r4, r10, lsl #2
  77              	.LVL5:
  86:Drivers/CMSIS/DSP/Source/FilteringFunctions/arm_fir_q31.c **** 
  87:Drivers/CMSIS/DSP/Source/FilteringFunctions/arm_fir_q31.c ****   /* Apply loop unrolling and compute 4 output values simultaneously.
  88:Drivers/CMSIS/DSP/Source/FilteringFunctions/arm_fir_q31.c ****    * The variables acc0 ... acc3 hold output values that are being computed:
  89:Drivers/CMSIS/DSP/Source/FilteringFunctions/arm_fir_q31.c ****    *
  90:Drivers/CMSIS/DSP/Source/FilteringFunctions/arm_fir_q31.c ****    *    acc0 =  b[numTaps-1] * x[n-numTaps-1] + b[numTaps-2] * x[n-numTaps-2] + b[numTaps-3] * x[n-
  91:Drivers/CMSIS/DSP/Source/FilteringFunctions/arm_fir_q31.c ****    *    acc1 =  b[numTaps-1] * x[n-numTaps] +   b[numTaps-2] * x[n-numTaps-1] + b[numTaps-3] * x[n-
  92:Drivers/CMSIS/DSP/Source/FilteringFunctions/arm_fir_q31.c ****    *    acc2 =  b[numTaps-1] * x[n-numTaps+1] + b[numTaps-2] * x[n-numTaps] +   b[numTaps-3] * x[n-
  93:Drivers/CMSIS/DSP/Source/FilteringFunctions/arm_fir_q31.c ****    *    acc3 =  b[numTaps-1] * x[n-numTaps+2] + b[numTaps-2] * x[n-numTaps+1] + b[numTaps-3] * x[n-
  94:Drivers/CMSIS/DSP/Source/FilteringFunctions/arm_fir_q31.c ****    */
  95:Drivers/CMSIS/DSP/Source/FilteringFunctions/arm_fir_q31.c ****   blkCnt = blockSize / 3;
ARM GAS  /var/folders/n6/c271nzx11xl4r4_m7sqjlt0m0000gn/T//cc3nxiWP.s 			page 4


  78              		.loc 1 95 3 is_stmt 1 view .LVU19
  79              		.loc 1 95 10 is_stmt 0 view .LVU20
  80 001e C64F     		ldr	r7, .L17
  81 0020 A7FB032C 		umull	r2, ip, r7, r3
  82              	.LVL6:
  83              		.loc 1 95 10 view .LVU21
  84 0024 4FEA5C02 		lsr	r2, ip, #1
  85 0028 0592     		str	r2, [sp, #20]
  86              	.LVL7:
  96:Drivers/CMSIS/DSP/Source/FilteringFunctions/arm_fir_q31.c ****   blockSize = blockSize - (3 * blkCnt);
  87              		.loc 1 96 3 is_stmt 1 view .LVU22
  88 002a 2CF00102 		bic	r2, ip, #1
  89              	.LVL8:
  90              		.loc 1 96 3 is_stmt 0 view .LVU23
  91 002e 02EB5C02 		add	r2, r2, ip, lsr #1
  92 0032 9A1A     		subs	r2, r3, r2
  93              	.LVL9:
  97:Drivers/CMSIS/DSP/Source/FilteringFunctions/arm_fir_q31.c **** 
  98:Drivers/CMSIS/DSP/Source/FilteringFunctions/arm_fir_q31.c ****   tapCnt = numTaps / 3;
  94              		.loc 1 98 3 is_stmt 1 view .LVU24
  95              		.loc 1 98 10 is_stmt 0 view .LVU25
  96 0034 A7FB0B37 		umull	r3, r7, r7, fp
  97 0038 7B08     		lsrs	r3, r7, #1
  98 003a 0C93     		str	r3, [sp, #48]
  99              	.LVL10:
  99:Drivers/CMSIS/DSP/Source/FilteringFunctions/arm_fir_q31.c ****   tapCntN3 = numTaps - (3 * tapCnt);
 100              		.loc 1 99 3 is_stmt 1 view .LVU26
 101 003c 03EB4303 		add	r3, r3, r3, lsl #1
 102              	.LVL11:
 103              		.loc 1 99 3 is_stmt 0 view .LVU27
 104 0040 ABEB0303 		sub	r3, fp, r3
 105 0044 0B93     		str	r3, [sp, #44]
 106              	.LVL12:
 100:Drivers/CMSIS/DSP/Source/FilteringFunctions/arm_fir_q31.c **** 
 101:Drivers/CMSIS/DSP/Source/FilteringFunctions/arm_fir_q31.c ****   /* First part of the processing with loop unrolling.  Compute 4 outputs at a time.
 102:Drivers/CMSIS/DSP/Source/FilteringFunctions/arm_fir_q31.c ****    ** a second loop below computes the remaining 1 to 3 samples. */
 103:Drivers/CMSIS/DSP/Source/FilteringFunctions/arm_fir_q31.c ****   while (blkCnt > 0U)
 107              		.loc 1 103 3 is_stmt 1 view .LVU28
 108 0046 0D92     		str	r2, [sp, #52]
 109 0048 0694     		str	r4, [sp, #24]
 110 004a CDF838B0 		str	fp, [sp, #56]
 111 004e 0F96     		str	r6, [sp, #60]
 112              		.loc 1 103 9 is_stmt 0 view .LVU29
 113 0050 F2E0     		b	.L2
 114              	.LVL13:
 115              	.L4:
 104:Drivers/CMSIS/DSP/Source/FilteringFunctions/arm_fir_q31.c ****   {
 105:Drivers/CMSIS/DSP/Source/FilteringFunctions/arm_fir_q31.c ****     /* Copy three new input samples into the state buffer */
 106:Drivers/CMSIS/DSP/Source/FilteringFunctions/arm_fir_q31.c ****     *pStateCurnt++ = *pSrc++;
 107:Drivers/CMSIS/DSP/Source/FilteringFunctions/arm_fir_q31.c ****     *pStateCurnt++ = *pSrc++;
 108:Drivers/CMSIS/DSP/Source/FilteringFunctions/arm_fir_q31.c ****     *pStateCurnt++ = *pSrc++;
 109:Drivers/CMSIS/DSP/Source/FilteringFunctions/arm_fir_q31.c **** 
 110:Drivers/CMSIS/DSP/Source/FilteringFunctions/arm_fir_q31.c ****     /* Set all accumulators to zero */
 111:Drivers/CMSIS/DSP/Source/FilteringFunctions/arm_fir_q31.c ****     acc0 = 0;
 112:Drivers/CMSIS/DSP/Source/FilteringFunctions/arm_fir_q31.c ****     acc1 = 0;
 113:Drivers/CMSIS/DSP/Source/FilteringFunctions/arm_fir_q31.c ****     acc2 = 0;
 114:Drivers/CMSIS/DSP/Source/FilteringFunctions/arm_fir_q31.c **** 
ARM GAS  /var/folders/n6/c271nzx11xl4r4_m7sqjlt0m0000gn/T//cc3nxiWP.s 			page 5


 115:Drivers/CMSIS/DSP/Source/FilteringFunctions/arm_fir_q31.c ****     /* Initialize state pointer */
 116:Drivers/CMSIS/DSP/Source/FilteringFunctions/arm_fir_q31.c ****     px = pState;
 117:Drivers/CMSIS/DSP/Source/FilteringFunctions/arm_fir_q31.c **** 
 118:Drivers/CMSIS/DSP/Source/FilteringFunctions/arm_fir_q31.c ****     /* Initialize coefficient pointer */
 119:Drivers/CMSIS/DSP/Source/FilteringFunctions/arm_fir_q31.c ****     pb = pCoeffs;
 120:Drivers/CMSIS/DSP/Source/FilteringFunctions/arm_fir_q31.c **** 
 121:Drivers/CMSIS/DSP/Source/FilteringFunctions/arm_fir_q31.c ****     /* Read the first two samples from the state buffer:
 122:Drivers/CMSIS/DSP/Source/FilteringFunctions/arm_fir_q31.c ****      *  x[n-numTaps], x[n-numTaps-1] */
 123:Drivers/CMSIS/DSP/Source/FilteringFunctions/arm_fir_q31.c ****     x0 = *(px++);
 124:Drivers/CMSIS/DSP/Source/FilteringFunctions/arm_fir_q31.c ****     x1 = *(px++);
 125:Drivers/CMSIS/DSP/Source/FilteringFunctions/arm_fir_q31.c **** 
 126:Drivers/CMSIS/DSP/Source/FilteringFunctions/arm_fir_q31.c ****     /* Loop unrolling.  Process 3 taps at a time. */
 127:Drivers/CMSIS/DSP/Source/FilteringFunctions/arm_fir_q31.c ****     i = tapCnt;
 128:Drivers/CMSIS/DSP/Source/FilteringFunctions/arm_fir_q31.c **** 
 129:Drivers/CMSIS/DSP/Source/FilteringFunctions/arm_fir_q31.c ****     while (i > 0U)
 130:Drivers/CMSIS/DSP/Source/FilteringFunctions/arm_fir_q31.c ****     {
 131:Drivers/CMSIS/DSP/Source/FilteringFunctions/arm_fir_q31.c ****       /* Read the b[numTaps] coefficient */
 132:Drivers/CMSIS/DSP/Source/FilteringFunctions/arm_fir_q31.c ****       c0 = *pb;
 116              		.loc 1 132 7 is_stmt 1 view .LVU30
 117              		.loc 1 132 10 is_stmt 0 view .LVU31
 118 0052 DAF80030 		ldr	r3, [r10]
 119              	.LVL14:
 133:Drivers/CMSIS/DSP/Source/FilteringFunctions/arm_fir_q31.c **** 
 134:Drivers/CMSIS/DSP/Source/FilteringFunctions/arm_fir_q31.c ****       /* Read x[n-numTaps-2] sample */
 135:Drivers/CMSIS/DSP/Source/FilteringFunctions/arm_fir_q31.c ****       x2 = *(px++);
 120              		.loc 1 135 7 is_stmt 1 view .LVU32
 121              		.loc 1 135 10 is_stmt 0 view .LVU33
 122 0056 019C     		ldr	r4, [sp, #4]
 123 0058 2468     		ldr	r4, [r4]
 124              	.LVL15:
 136:Drivers/CMSIS/DSP/Source/FilteringFunctions/arm_fir_q31.c **** 
 137:Drivers/CMSIS/DSP/Source/FilteringFunctions/arm_fir_q31.c ****       /* Perform the multiply-accumulates */
 138:Drivers/CMSIS/DSP/Source/FilteringFunctions/arm_fir_q31.c ****       acc0 += ((q63_t) x0 * c0);
 125              		.loc 1 138 7 is_stmt 1 view .LVU34
 126              		.loc 1 138 16 is_stmt 0 view .LVU35
 127 005a D517     		asrs	r5, r2, #31
 128              		.loc 1 138 27 view .LVU36
 129 005c 4FEAE37E 		asr	lr, r3, #31
 130 0060 02FB0EF6 		mul	r6, r2, lr
 131 0064 03FB0566 		mla	r6, r3, r5, r6
 132 0068 A2FB0352 		umull	r5, r2, r2, r3
 133              	.LVL16:
 134              		.loc 1 138 27 view .LVU37
 135 006c 3244     		add	r2, r2, r6
 136              		.loc 1 138 12 view .LVU38
 137 006e 15EB0C05 		adds	r5, r5, ip
 138 0072 42EB0B0B 		adc	fp, r2, fp
 139              	.LVL17:
 139:Drivers/CMSIS/DSP/Source/FilteringFunctions/arm_fir_q31.c ****       acc1 += ((q63_t) x1 * c0);
 140              		.loc 1 139 7 is_stmt 1 view .LVU39
 141              		.loc 1 139 16 is_stmt 0 view .LVU40
 142 0076 4FEAE17C 		asr	ip, r1, #31
 143              		.loc 1 139 27 view .LVU41
 144 007a 03FB0CF7 		mul	r7, r3, ip
 145 007e 01FB0E77 		mla	r7, r1, lr, r7
 146 0082 A3FB0162 		umull	r6, r2, r3, r1
 147 0086 3A44     		add	r2, r2, r7
ARM GAS  /var/folders/n6/c271nzx11xl4r4_m7sqjlt0m0000gn/T//cc3nxiWP.s 			page 6


 148              		.loc 1 139 12 view .LVU42
 149 0088 029F     		ldr	r7, [sp, #8]
 150 008a F619     		adds	r6, r6, r7
 151 008c 42EB0909 		adc	r9, r2, r9
 152              	.LVL18:
 140:Drivers/CMSIS/DSP/Source/FilteringFunctions/arm_fir_q31.c ****       acc2 += ((q63_t) x2 * c0);
 153              		.loc 1 140 7 is_stmt 1 view .LVU43
 154              		.loc 1 140 16 is_stmt 0 view .LVU44
 155 0090 E717     		asrs	r7, r4, #31
 156              		.loc 1 140 27 view .LVU45
 157 0092 03FB07F2 		mul	r2, r3, r7
 158 0096 04FB0E2E 		mla	lr, r4, lr, r2
 159 009a A3FB0423 		umull	r2, r3, r3, r4
 160              	.LVL19:
 161              		.loc 1 140 27 view .LVU46
 162 009e 7344     		add	r3, r3, lr
 163              		.loc 1 140 12 view .LVU47
 164 00a0 12EB0802 		adds	r2, r2, r8
 165 00a4 0292     		str	r2, [sp, #8]
 166 00a6 43EB0003 		adc	r3, r3, r0
 167              	.LVL20:
 141:Drivers/CMSIS/DSP/Source/FilteringFunctions/arm_fir_q31.c **** 
 142:Drivers/CMSIS/DSP/Source/FilteringFunctions/arm_fir_q31.c ****       /* Read the coefficient and state */
 143:Drivers/CMSIS/DSP/Source/FilteringFunctions/arm_fir_q31.c ****       c0 = *(pb + 1U);
 168              		.loc 1 143 7 is_stmt 1 view .LVU48
 169              		.loc 1 143 10 is_stmt 0 view .LVU49
 170 00aa DAF80400 		ldr	r0, [r10, #4]
 171              	.LVL21:
 144:Drivers/CMSIS/DSP/Source/FilteringFunctions/arm_fir_q31.c ****       x0 = *(px++);
 172              		.loc 1 144 7 is_stmt 1 view .LVU50
 173              		.loc 1 144 10 is_stmt 0 view .LVU51
 174 00ae 019A     		ldr	r2, [sp, #4]
 175              	.LVL22:
 176              		.loc 1 144 10 view .LVU52
 177 00b0 5268     		ldr	r2, [r2, #4]
 178              	.LVL23:
 145:Drivers/CMSIS/DSP/Source/FilteringFunctions/arm_fir_q31.c **** 
 146:Drivers/CMSIS/DSP/Source/FilteringFunctions/arm_fir_q31.c ****       /* Perform the multiply-accumulates */
 147:Drivers/CMSIS/DSP/Source/FilteringFunctions/arm_fir_q31.c ****       acc0 += ((q63_t) x1 * c0);
 179              		.loc 1 147 7 is_stmt 1 view .LVU53
 180              		.loc 1 147 27 is_stmt 0 view .LVU54
 181 00b2 4FEAE07E 		asr	lr, r0, #31
 182 00b6 01FB0EF8 		mul	r8, r1, lr
 183 00ba 00FB0C88 		mla	r8, r0, ip, r8
 184 00be A1FB00C1 		umull	ip, r1, r1, r0
 185              	.LVL24:
 186              		.loc 1 147 27 view .LVU55
 187 00c2 8844     		add	r8, r8, r1
 188              		.loc 1 147 12 view .LVU56
 189 00c4 1CEB050C 		adds	ip, ip, r5
 190 00c8 48EB0B08 		adc	r8, r8, fp
 191              	.LVL25:
 148:Drivers/CMSIS/DSP/Source/FilteringFunctions/arm_fir_q31.c ****       acc1 += ((q63_t) x2 * c0);
 192              		.loc 1 148 7 is_stmt 1 view .LVU57
 193              		.loc 1 148 27 is_stmt 0 view .LVU58
 194 00cc 04FB0EFB 		mul	fp, r4, lr
 195 00d0 00FB07BB 		mla	fp, r0, r7, fp
ARM GAS  /var/folders/n6/c271nzx11xl4r4_m7sqjlt0m0000gn/T//cc3nxiWP.s 			page 7


 196 00d4 A4FB0051 		umull	r5, r1, r4, r0
 197 00d8 5944     		add	r1, r1, fp
 198              		.loc 1 148 12 view .LVU59
 199 00da AD19     		adds	r5, r5, r6
 200 00dc 41EB0906 		adc	r6, r1, r9
 201              	.LVL26:
 149:Drivers/CMSIS/DSP/Source/FilteringFunctions/arm_fir_q31.c ****       acc2 += ((q63_t) x0 * c0);
 202              		.loc 1 149 7 is_stmt 1 view .LVU60
 203              		.loc 1 149 16 is_stmt 0 view .LVU61
 204 00e0 4FEAE279 		asr	r9, r2, #31
 205              		.loc 1 149 27 view .LVU62
 206 00e4 00FB09F1 		mul	r1, r0, r9
 207 00e8 02FB0E11 		mla	r1, r2, lr, r1
 208 00ec A0FB02E0 		umull	lr, r0, r0, r2
 209              	.LVL27:
 210              		.loc 1 149 27 view .LVU63
 211 00f0 0844     		add	r0, r0, r1
 212              		.loc 1 149 12 view .LVU64
 213 00f2 0299     		ldr	r1, [sp, #8]
 214 00f4 1EEB010E 		adds	lr, lr, r1
 215 00f8 40EB0303 		adc	r3, r0, r3
 216              	.LVL28:
 217              		.loc 1 149 12 view .LVU65
 218 00fc 0493     		str	r3, [sp, #16]
 219              	.LVL29:
 150:Drivers/CMSIS/DSP/Source/FilteringFunctions/arm_fir_q31.c **** 
 151:Drivers/CMSIS/DSP/Source/FilteringFunctions/arm_fir_q31.c ****       /* Read the coefficient and state */
 152:Drivers/CMSIS/DSP/Source/FilteringFunctions/arm_fir_q31.c ****       c0 = *(pb + 2U);
 220              		.loc 1 152 7 is_stmt 1 view .LVU66
 221              		.loc 1 152 10 is_stmt 0 view .LVU67
 222 00fe DAF80830 		ldr	r3, [r10, #8]
 223              	.LVL30:
 153:Drivers/CMSIS/DSP/Source/FilteringFunctions/arm_fir_q31.c ****       x1 = *(px++);
 224              		.loc 1 153 7 is_stmt 1 view .LVU68
 225              		.loc 1 153 10 is_stmt 0 view .LVU69
 226 0102 0199     		ldr	r1, [sp, #4]
 227 0104 8968     		ldr	r1, [r1, #8]
 228              	.LVL31:
 154:Drivers/CMSIS/DSP/Source/FilteringFunctions/arm_fir_q31.c **** 
 155:Drivers/CMSIS/DSP/Source/FilteringFunctions/arm_fir_q31.c ****       /* update coefficient pointer */
 156:Drivers/CMSIS/DSP/Source/FilteringFunctions/arm_fir_q31.c ****       pb += 3U;
 229              		.loc 1 156 7 is_stmt 1 view .LVU70
 230              		.loc 1 156 10 is_stmt 0 view .LVU71
 231 0106 0AF10C0A 		add	r10, r10, #12
 232              	.LVL32:
 157:Drivers/CMSIS/DSP/Source/FilteringFunctions/arm_fir_q31.c **** 
 158:Drivers/CMSIS/DSP/Source/FilteringFunctions/arm_fir_q31.c ****       /* Perform the multiply-accumulates */
 159:Drivers/CMSIS/DSP/Source/FilteringFunctions/arm_fir_q31.c ****       acc0 += ((q63_t) x2 * c0);
 233              		.loc 1 159 7 is_stmt 1 view .LVU72
 234              		.loc 1 159 27 is_stmt 0 view .LVU73
 235 010a D817     		asrs	r0, r3, #31
 236 010c 04FB00FB 		mul	fp, r4, r0
 237 0110 03FB07BB 		mla	fp, r3, r7, fp
 238 0114 A4FB0347 		umull	r4, r7, r4, r3
 239              	.LVL33:
 240              		.loc 1 159 27 view .LVU74
 241 0118 BB44     		add	fp, fp, r7
ARM GAS  /var/folders/n6/c271nzx11xl4r4_m7sqjlt0m0000gn/T//cc3nxiWP.s 			page 8


 242              		.loc 1 159 12 view .LVU75
 243 011a 14EB0C0C 		adds	ip, r4, ip
 244              	.LVL34:
 245              		.loc 1 159 12 view .LVU76
 246 011e 4BEB080B 		adc	fp, fp, r8
 247              	.LVL35:
 160:Drivers/CMSIS/DSP/Source/FilteringFunctions/arm_fir_q31.c ****       acc1 += ((q63_t) x0 * c0);
 248              		.loc 1 160 7 is_stmt 1 view .LVU77
 249              		.loc 1 160 27 is_stmt 0 view .LVU78
 250 0122 02FB00F4 		mul	r4, r2, r0
 251 0126 03FB0949 		mla	r9, r3, r9, r4
 252 012a A2FB0347 		umull	r4, r7, r2, r3
 253 012e B944     		add	r9, r9, r7
 254              		.loc 1 160 12 view .LVU79
 255 0130 6519     		adds	r5, r4, r5
 256              	.LVL36:
 257              		.loc 1 160 12 view .LVU80
 258 0132 0295     		str	r5, [sp, #8]
 259 0134 49EB0609 		adc	r9, r9, r6
 260              	.LVL37:
 161:Drivers/CMSIS/DSP/Source/FilteringFunctions/arm_fir_q31.c ****       acc2 += ((q63_t) x1 * c0);
 261              		.loc 1 161 7 is_stmt 1 view .LVU81
 262              		.loc 1 161 16 is_stmt 0 view .LVU82
 263 0138 CC17     		asrs	r4, r1, #31
 264              		.loc 1 161 27 view .LVU83
 265 013a 03FB04F4 		mul	r4, r3, r4
 266 013e 01FB0044 		mla	r4, r1, r0, r4
 267 0142 A3FB0130 		umull	r3, r0, r3, r1
 268              	.LVL38:
 269              		.loc 1 161 27 view .LVU84
 270 0146 2044     		add	r0, r0, r4
 271              		.loc 1 161 12 view .LVU85
 272 0148 13EB0E08 		adds	r8, r3, lr
 273 014c 049C     		ldr	r4, [sp, #16]
 274 014e 40EB0400 		adc	r0, r0, r4
 275              	.LVL39:
 162:Drivers/CMSIS/DSP/Source/FilteringFunctions/arm_fir_q31.c **** 
 163:Drivers/CMSIS/DSP/Source/FilteringFunctions/arm_fir_q31.c ****       /* Decrement the loop counter */
 164:Drivers/CMSIS/DSP/Source/FilteringFunctions/arm_fir_q31.c ****       i--;
 276              		.loc 1 164 7 is_stmt 1 view .LVU86
 277              		.loc 1 164 8 is_stmt 0 view .LVU87
 278 0152 039C     		ldr	r4, [sp, #12]
 279 0154 013C     		subs	r4, r4, #1
 280 0156 0394     		str	r4, [sp, #12]
 281              	.LVL40:
 153:Drivers/CMSIS/DSP/Source/FilteringFunctions/arm_fir_q31.c **** 
 282              		.loc 1 153 16 view .LVU88
 283 0158 019B     		ldr	r3, [sp, #4]
 284 015a 0C33     		adds	r3, r3, #12
 285              	.LVL41:
 153:Drivers/CMSIS/DSP/Source/FilteringFunctions/arm_fir_q31.c **** 
 286              		.loc 1 153 16 view .LVU89
 287 015c 0193     		str	r3, [sp, #4]
 288              	.LVL42:
 289              	.L3:
 129:Drivers/CMSIS/DSP/Source/FilteringFunctions/arm_fir_q31.c ****     {
 290              		.loc 1 129 14 is_stmt 1 view .LVU90
ARM GAS  /var/folders/n6/c271nzx11xl4r4_m7sqjlt0m0000gn/T//cc3nxiWP.s 			page 9


 291 015e 039B     		ldr	r3, [sp, #12]
 292 0160 002B     		cmp	r3, #0
 293 0162 7FF476AF 		bne	.L4
 165:Drivers/CMSIS/DSP/Source/FilteringFunctions/arm_fir_q31.c ****     }
 166:Drivers/CMSIS/DSP/Source/FilteringFunctions/arm_fir_q31.c **** 
 167:Drivers/CMSIS/DSP/Source/FilteringFunctions/arm_fir_q31.c ****     /* If the filter length is not a multiple of 3, compute the remaining filter taps */
 168:Drivers/CMSIS/DSP/Source/FilteringFunctions/arm_fir_q31.c **** 
 169:Drivers/CMSIS/DSP/Source/FilteringFunctions/arm_fir_q31.c ****     i = tapCntN3;
 294              		.loc 1 169 7 is_stmt 0 view .LVU91
 295 0166 5346     		mov	r3, r10
 296 0168 DDF824E0 		ldr	lr, [sp, #36]
 297 016c 0A9D     		ldr	r5, [sp, #40]
 298 016e CDF80CC0 		str	ip, [sp, #12]
 299              	.LVL43:
 300              		.loc 1 169 7 view .LVU92
 301 0172 C246     		mov	r10, r8
 302              	.LVL44:
 303              		.loc 1 169 7 view .LVU93
 304 0174 DDF82080 		ldr	r8, [sp, #32]
 305              	.LVL45:
 306              		.loc 1 169 7 view .LVU94
 307 0178 0B9F     		ldr	r7, [sp, #44]
 308 017a CDF81080 		str	r8, [sp, #16]
 309 017e CDF820E0 		str	lr, [sp, #32]
 310              	.LVL46:
 311              		.loc 1 169 7 view .LVU95
 312 0182 0995     		str	r5, [sp, #36]
 313              	.LVL47:
 314              		.loc 1 169 7 view .LVU96
 315 0184 019D     		ldr	r5, [sp, #4]
 316 0186 0190     		str	r0, [sp, #4]
 317              	.LVL48:
 318              		.loc 1 169 7 view .LVU97
 319 0188 36E0     		b	.L5
 320              	.LVL49:
 321              	.L6:
 170:Drivers/CMSIS/DSP/Source/FilteringFunctions/arm_fir_q31.c **** 
 171:Drivers/CMSIS/DSP/Source/FilteringFunctions/arm_fir_q31.c ****     while (i > 0U)
 172:Drivers/CMSIS/DSP/Source/FilteringFunctions/arm_fir_q31.c ****     {
 173:Drivers/CMSIS/DSP/Source/FilteringFunctions/arm_fir_q31.c ****       /* Read coefficients */
 174:Drivers/CMSIS/DSP/Source/FilteringFunctions/arm_fir_q31.c ****       c0 = *(pb++);
 322              		.loc 1 174 7 is_stmt 1 view .LVU98
 323              		.loc 1 174 16 is_stmt 0 view .LVU99
 324 018a 9C46     		mov	ip, r3
 325              	.LVL50:
 326              		.loc 1 174 10 view .LVU100
 327 018c 5CF8043B 		ldr	r3, [ip], #4
 328              	.LVL51:
 175:Drivers/CMSIS/DSP/Source/FilteringFunctions/arm_fir_q31.c **** 
 176:Drivers/CMSIS/DSP/Source/FilteringFunctions/arm_fir_q31.c ****       /* Fetch 1 state variable */
 177:Drivers/CMSIS/DSP/Source/FilteringFunctions/arm_fir_q31.c ****       x2 = *(px++);
 329              		.loc 1 177 7 is_stmt 1 view .LVU101
 330              		.loc 1 177 16 is_stmt 0 view .LVU102
 331 0190 2E46     		mov	r6, r5
 332              	.LVL52:
 333              		.loc 1 177 10 view .LVU103
 334 0192 56F8044B 		ldr	r4, [r6], #4
ARM GAS  /var/folders/n6/c271nzx11xl4r4_m7sqjlt0m0000gn/T//cc3nxiWP.s 			page 10


 335              	.LVL53:
 178:Drivers/CMSIS/DSP/Source/FilteringFunctions/arm_fir_q31.c **** 
 179:Drivers/CMSIS/DSP/Source/FilteringFunctions/arm_fir_q31.c ****       /* Perform the multiply-accumulates */
 180:Drivers/CMSIS/DSP/Source/FilteringFunctions/arm_fir_q31.c ****       acc0 += ((q63_t) x0 * c0);
 336              		.loc 1 180 7 is_stmt 1 view .LVU104
 337              		.loc 1 180 16 is_stmt 0 view .LVU105
 338 0196 4FEAE278 		asr	r8, r2, #31
 339              		.loc 1 180 27 view .LVU106
 340 019a 4FEAE37E 		asr	lr, r3, #31
 341 019e 02FB0EF5 		mul	r5, r2, lr
 342 01a2 03FB0855 		mla	r5, r3, r8, r5
 343 01a6 A2FB0328 		umull	r2, r8, r2, r3
 344              	.LVL54:
 345              		.loc 1 180 27 view .LVU107
 346 01aa 4544     		add	r5, r5, r8
 347              		.loc 1 180 12 view .LVU108
 348 01ac 0398     		ldr	r0, [sp, #12]
 349 01ae 1218     		adds	r2, r2, r0
 350 01b0 0392     		str	r2, [sp, #12]
 351              	.LVL55:
 352              		.loc 1 180 12 view .LVU109
 353 01b2 45EB0B0B 		adc	fp, r5, fp
 354              	.LVL56:
 181:Drivers/CMSIS/DSP/Source/FilteringFunctions/arm_fir_q31.c ****       acc1 += ((q63_t) x1 * c0);
 355              		.loc 1 181 7 is_stmt 1 view .LVU110
 356              		.loc 1 181 16 is_stmt 0 view .LVU111
 357 01b6 CA17     		asrs	r2, r1, #31
 358              	.LVL57:
 359              		.loc 1 181 27 view .LVU112
 360 01b8 03FB02F2 		mul	r2, r3, r2
 361 01bc 01FB0E22 		mla	r2, r1, lr, r2
 362 01c0 A3FB0158 		umull	r5, r8, r3, r1
 363 01c4 4244     		add	r2, r2, r8
 364              		.loc 1 181 12 view .LVU113
 365 01c6 0298     		ldr	r0, [sp, #8]
 366 01c8 2D18     		adds	r5, r5, r0
 367 01ca 0295     		str	r5, [sp, #8]
 368              	.LVL58:
 369              		.loc 1 181 12 view .LVU114
 370 01cc 42EB0909 		adc	r9, r2, r9
 371              	.LVL59:
 182:Drivers/CMSIS/DSP/Source/FilteringFunctions/arm_fir_q31.c ****       acc2 += ((q63_t) x2 * c0);
 372              		.loc 1 182 7 is_stmt 1 view .LVU115
 373              		.loc 1 182 16 is_stmt 0 view .LVU116
 374 01d0 E217     		asrs	r2, r4, #31
 375              		.loc 1 182 27 view .LVU117
 376 01d2 03FB02F2 		mul	r2, r3, r2
 377 01d6 04FB0E22 		mla	r2, r4, lr, r2
 378 01da A3FB0435 		umull	r3, r5, r3, r4
 379              	.LVL60:
 380              		.loc 1 182 27 view .LVU118
 381 01de 2A44     		add	r2, r2, r5
 382              		.loc 1 182 12 view .LVU119
 383 01e0 13EB0A03 		adds	r3, r3, r10
 384 01e4 9A46     		mov	r10, r3
 385              	.LVL61:
 386              		.loc 1 182 12 view .LVU120
ARM GAS  /var/folders/n6/c271nzx11xl4r4_m7sqjlt0m0000gn/T//cc3nxiWP.s 			page 11


 387 01e6 019B     		ldr	r3, [sp, #4]
 388 01e8 42EB0303 		adc	r3, r2, r3
 389 01ec 0193     		str	r3, [sp, #4]
 183:Drivers/CMSIS/DSP/Source/FilteringFunctions/arm_fir_q31.c **** 
 184:Drivers/CMSIS/DSP/Source/FilteringFunctions/arm_fir_q31.c ****       /* Reuse the present sample states for next sample */
 185:Drivers/CMSIS/DSP/Source/FilteringFunctions/arm_fir_q31.c ****       x0 = x1;
 390              		.loc 1 185 7 is_stmt 1 view .LVU121
 391              	.LVL62:
 186:Drivers/CMSIS/DSP/Source/FilteringFunctions/arm_fir_q31.c ****       x1 = x2;
 392              		.loc 1 186 7 view .LVU122
 187:Drivers/CMSIS/DSP/Source/FilteringFunctions/arm_fir_q31.c **** 
 188:Drivers/CMSIS/DSP/Source/FilteringFunctions/arm_fir_q31.c ****       /* Decrement the loop counter */
 189:Drivers/CMSIS/DSP/Source/FilteringFunctions/arm_fir_q31.c ****       i--;
 393              		.loc 1 189 7 view .LVU123
 394              		.loc 1 189 8 is_stmt 0 view .LVU124
 395 01ee 013F     		subs	r7, r7, #1
 396              	.LVL63:
 174:Drivers/CMSIS/DSP/Source/FilteringFunctions/arm_fir_q31.c **** 
 397              		.loc 1 174 16 view .LVU125
 398 01f0 6346     		mov	r3, ip
 177:Drivers/CMSIS/DSP/Source/FilteringFunctions/arm_fir_q31.c **** 
 399              		.loc 1 177 16 view .LVU126
 400 01f2 3546     		mov	r5, r6
 185:Drivers/CMSIS/DSP/Source/FilteringFunctions/arm_fir_q31.c ****       x1 = x2;
 401              		.loc 1 185 10 view .LVU127
 402 01f4 0A46     		mov	r2, r1
 186:Drivers/CMSIS/DSP/Source/FilteringFunctions/arm_fir_q31.c **** 
 403              		.loc 1 186 10 view .LVU128
 404 01f6 2146     		mov	r1, r4
 405              	.LVL64:
 406              	.L5:
 171:Drivers/CMSIS/DSP/Source/FilteringFunctions/arm_fir_q31.c ****     {
 407              		.loc 1 171 14 is_stmt 1 view .LVU129
 408 01f8 002F     		cmp	r7, #0
 409 01fa C6D1     		bne	.L6
 190:Drivers/CMSIS/DSP/Source/FilteringFunctions/arm_fir_q31.c ****     }
 191:Drivers/CMSIS/DSP/Source/FilteringFunctions/arm_fir_q31.c **** 
 192:Drivers/CMSIS/DSP/Source/FilteringFunctions/arm_fir_q31.c ****     /* Advance the state pointer by 3 to process the next group of 3 samples */
 193:Drivers/CMSIS/DSP/Source/FilteringFunctions/arm_fir_q31.c ****     pState = pState + 3;
 410              		.loc 1 193 12 is_stmt 0 view .LVU130
 411 01fc DDF81080 		ldr	r8, [sp, #16]
 412 0200 DDF820E0 		ldr	lr, [sp, #32]
 413 0204 099D     		ldr	r5, [sp, #36]
 414              	.LVL65:
 415              		.loc 1 193 12 view .LVU131
 416 0206 0198     		ldr	r0, [sp, #4]
 417              		.loc 1 193 5 is_stmt 1 view .LVU132
 418              		.loc 1 193 12 is_stmt 0 view .LVU133
 419 0208 069B     		ldr	r3, [sp, #24]
 420              	.LVL66:
 421              		.loc 1 193 12 view .LVU134
 422 020a 0C33     		adds	r3, r3, #12
 423 020c 0693     		str	r3, [sp, #24]
 424              	.LVL67:
 194:Drivers/CMSIS/DSP/Source/FilteringFunctions/arm_fir_q31.c **** 
 195:Drivers/CMSIS/DSP/Source/FilteringFunctions/arm_fir_q31.c ****     /* The results in the 3 accumulators are in 2.30 format.  Convert to 1.31
 196:Drivers/CMSIS/DSP/Source/FilteringFunctions/arm_fir_q31.c ****      ** Then store the 3 outputs in the destination buffer. */
ARM GAS  /var/folders/n6/c271nzx11xl4r4_m7sqjlt0m0000gn/T//cc3nxiWP.s 			page 12


 197:Drivers/CMSIS/DSP/Source/FilteringFunctions/arm_fir_q31.c ****     *pDst++ = (q31_t) (acc0 >> 31U);
 425              		.loc 1 197 5 is_stmt 1 view .LVU135
 426              		.loc 1 197 29 is_stmt 0 view .LVU136
 427 020e 039B     		ldr	r3, [sp, #12]
 428              	.LVL68:
 429              		.loc 1 197 29 view .LVU137
 430 0210 DB0F     		lsrs	r3, r3, #31
 431 0212 43EA4B03 		orr	r3, r3, fp, lsl #1
 432              	.LVL69:
 433              		.loc 1 197 13 view .LVU138
 434 0216 2B60     		str	r3, [r5]
 198:Drivers/CMSIS/DSP/Source/FilteringFunctions/arm_fir_q31.c ****     *pDst++ = (q31_t) (acc1 >> 31U);
 435              		.loc 1 198 5 is_stmt 1 view .LVU139
 436              		.loc 1 198 29 is_stmt 0 view .LVU140
 437 0218 029B     		ldr	r3, [sp, #8]
 438 021a DB0F     		lsrs	r3, r3, #31
 439 021c 43EA4903 		orr	r3, r3, r9, lsl #1
 440              	.LVL70:
 441              		.loc 1 198 13 view .LVU141
 442 0220 6B60     		str	r3, [r5, #4]
 199:Drivers/CMSIS/DSP/Source/FilteringFunctions/arm_fir_q31.c ****     *pDst++ = (q31_t) (acc2 >> 31U);
 443              		.loc 1 199 5 is_stmt 1 view .LVU142
 444              		.loc 1 199 29 is_stmt 0 view .LVU143
 445 0222 4FEADA73 		lsr	r3, r10, #31
 446 0226 43EA4003 		orr	r3, r3, r0, lsl #1
 447              	.LVL71:
 448              		.loc 1 199 13 view .LVU144
 449 022a AB60     		str	r3, [r5, #8]
 200:Drivers/CMSIS/DSP/Source/FilteringFunctions/arm_fir_q31.c **** 
 201:Drivers/CMSIS/DSP/Source/FilteringFunctions/arm_fir_q31.c ****     /* Decrement the samples loop counter */
 202:Drivers/CMSIS/DSP/Source/FilteringFunctions/arm_fir_q31.c ****     blkCnt--;
 450              		.loc 1 202 5 is_stmt 1 view .LVU145
 451              		.loc 1 202 11 is_stmt 0 view .LVU146
 452 022c 059B     		ldr	r3, [sp, #20]
 453 022e 013B     		subs	r3, r3, #1
 454 0230 0593     		str	r3, [sp, #20]
 455              	.LVL72:
 108:Drivers/CMSIS/DSP/Source/FilteringFunctions/arm_fir_q31.c **** 
 456              		.loc 1 108 17 view .LVU147
 457 0232 7046     		mov	r0, lr
 199:Drivers/CMSIS/DSP/Source/FilteringFunctions/arm_fir_q31.c ****     *pDst++ = (q31_t) (acc2 >> 31U);
 458              		.loc 1 199 10 view .LVU148
 459 0234 0C35     		adds	r5, r5, #12
 460              	.LVL73:
 108:Drivers/CMSIS/DSP/Source/FilteringFunctions/arm_fir_q31.c **** 
 461              		.loc 1 108 27 view .LVU149
 462 0236 4146     		mov	r1, r8
 463              	.LVL74:
 464              	.L2:
 103:Drivers/CMSIS/DSP/Source/FilteringFunctions/arm_fir_q31.c ****   {
 465              		.loc 1 103 17 is_stmt 1 view .LVU150
 466 0238 059B     		ldr	r3, [sp, #20]
 467 023a 13B3     		cbz	r3, .L16
 106:Drivers/CMSIS/DSP/Source/FilteringFunctions/arm_fir_q31.c ****     *pStateCurnt++ = *pSrc++;
 468              		.loc 1 106 5 view .LVU151
 469              	.LVL75:
 106:Drivers/CMSIS/DSP/Source/FilteringFunctions/arm_fir_q31.c ****     *pStateCurnt++ = *pSrc++;
ARM GAS  /var/folders/n6/c271nzx11xl4r4_m7sqjlt0m0000gn/T//cc3nxiWP.s 			page 13


 470              		.loc 1 106 22 is_stmt 0 view .LVU152
 471 023c 0B68     		ldr	r3, [r1]
 106:Drivers/CMSIS/DSP/Source/FilteringFunctions/arm_fir_q31.c ****     *pStateCurnt++ = *pSrc++;
 472              		.loc 1 106 20 view .LVU153
 473 023e 0360     		str	r3, [r0]
 107:Drivers/CMSIS/DSP/Source/FilteringFunctions/arm_fir_q31.c ****     *pStateCurnt++ = *pSrc++;
 474              		.loc 1 107 5 is_stmt 1 view .LVU154
 475              	.LVL76:
 107:Drivers/CMSIS/DSP/Source/FilteringFunctions/arm_fir_q31.c ****     *pStateCurnt++ = *pSrc++;
 476              		.loc 1 107 22 is_stmt 0 view .LVU155
 477 0240 4B68     		ldr	r3, [r1, #4]
 107:Drivers/CMSIS/DSP/Source/FilteringFunctions/arm_fir_q31.c ****     *pStateCurnt++ = *pSrc++;
 478              		.loc 1 107 20 view .LVU156
 479 0242 4360     		str	r3, [r0, #4]
 108:Drivers/CMSIS/DSP/Source/FilteringFunctions/arm_fir_q31.c **** 
 480              		.loc 1 108 5 is_stmt 1 view .LVU157
 108:Drivers/CMSIS/DSP/Source/FilteringFunctions/arm_fir_q31.c **** 
 481              		.loc 1 108 27 is_stmt 0 view .LVU158
 482 0244 01F10C08 		add	r8, r1, #12
 483              	.LVL77:
 108:Drivers/CMSIS/DSP/Source/FilteringFunctions/arm_fir_q31.c **** 
 484              		.loc 1 108 17 view .LVU159
 485 0248 00F10C0E 		add	lr, r0, #12
 486              	.LVL78:
 108:Drivers/CMSIS/DSP/Source/FilteringFunctions/arm_fir_q31.c **** 
 487              		.loc 1 108 22 view .LVU160
 488 024c 8B68     		ldr	r3, [r1, #8]
 108:Drivers/CMSIS/DSP/Source/FilteringFunctions/arm_fir_q31.c **** 
 489              		.loc 1 108 20 view .LVU161
 490 024e 8360     		str	r3, [r0, #8]
 111:Drivers/CMSIS/DSP/Source/FilteringFunctions/arm_fir_q31.c ****     acc1 = 0;
 491              		.loc 1 111 5 is_stmt 1 view .LVU162
 492              	.LVL79:
 112:Drivers/CMSIS/DSP/Source/FilteringFunctions/arm_fir_q31.c ****     acc2 = 0;
 493              		.loc 1 112 5 view .LVU163
 113:Drivers/CMSIS/DSP/Source/FilteringFunctions/arm_fir_q31.c **** 
 494              		.loc 1 113 5 view .LVU164
 116:Drivers/CMSIS/DSP/Source/FilteringFunctions/arm_fir_q31.c **** 
 495              		.loc 1 116 5 view .LVU165
 119:Drivers/CMSIS/DSP/Source/FilteringFunctions/arm_fir_q31.c **** 
 496              		.loc 1 119 5 view .LVU166
 123:Drivers/CMSIS/DSP/Source/FilteringFunctions/arm_fir_q31.c ****     x1 = *(px++);
 497              		.loc 1 123 5 view .LVU167
 123:Drivers/CMSIS/DSP/Source/FilteringFunctions/arm_fir_q31.c ****     x1 = *(px++);
 498              		.loc 1 123 8 is_stmt 0 view .LVU168
 499 0250 069B     		ldr	r3, [sp, #24]
 500 0252 1946     		mov	r1, r3
 501 0254 51F8082B 		ldr	r2, [r1], #8
 502 0258 0191     		str	r1, [sp, #4]
 503              	.LVL80:
 124:Drivers/CMSIS/DSP/Source/FilteringFunctions/arm_fir_q31.c **** 
 504              		.loc 1 124 5 is_stmt 1 view .LVU169
 124:Drivers/CMSIS/DSP/Source/FilteringFunctions/arm_fir_q31.c **** 
 505              		.loc 1 124 8 is_stmt 0 view .LVU170
 506 025a 5968     		ldr	r1, [r3, #4]
 507              	.LVL81:
 127:Drivers/CMSIS/DSP/Source/FilteringFunctions/arm_fir_q31.c **** 
ARM GAS  /var/folders/n6/c271nzx11xl4r4_m7sqjlt0m0000gn/T//cc3nxiWP.s 			page 14


 508              		.loc 1 127 5 is_stmt 1 view .LVU171
 129:Drivers/CMSIS/DSP/Source/FilteringFunctions/arm_fir_q31.c ****     {
 509              		.loc 1 129 5 view .LVU172
 127:Drivers/CMSIS/DSP/Source/FilteringFunctions/arm_fir_q31.c **** 
 510              		.loc 1 127 7 is_stmt 0 view .LVU173
 511 025c 0C9B     		ldr	r3, [sp, #48]
 512 025e 0393     		str	r3, [sp, #12]
 119:Drivers/CMSIS/DSP/Source/FilteringFunctions/arm_fir_q31.c **** 
 513              		.loc 1 119 8 view .LVU174
 514 0260 079B     		ldr	r3, [sp, #28]
 113:Drivers/CMSIS/DSP/Source/FilteringFunctions/arm_fir_q31.c **** 
 515              		.loc 1 113 10 view .LVU175
 516 0262 4FF0000A 		mov	r10, #0
 517 0266 5046     		mov	r0, r10
 112:Drivers/CMSIS/DSP/Source/FilteringFunctions/arm_fir_q31.c ****     acc2 = 0;
 518              		.loc 1 112 10 view .LVU176
 519 0268 CDF808A0 		str	r10, [sp, #8]
 520 026c D146     		mov	r9, r10
 111:Drivers/CMSIS/DSP/Source/FilteringFunctions/arm_fir_q31.c ****     acc1 = 0;
 521              		.loc 1 111 10 view .LVU177
 522 026e D446     		mov	ip, r10
 523 0270 D346     		mov	fp, r10
 524 0272 CDF82080 		str	r8, [sp, #32]
 525 0276 CDF824E0 		str	lr, [sp, #36]
 526 027a 0A95     		str	r5, [sp, #40]
 527 027c D046     		mov	r8, r10
 528              	.LVL82:
 111:Drivers/CMSIS/DSP/Source/FilteringFunctions/arm_fir_q31.c ****     acc1 = 0;
 529              		.loc 1 111 10 view .LVU178
 530 027e 9A46     		mov	r10, r3
 129:Drivers/CMSIS/DSP/Source/FilteringFunctions/arm_fir_q31.c ****     {
 531              		.loc 1 129 11 view .LVU179
 532 0280 6DE7     		b	.L3
 533              	.LVL83:
 534              	.L16:
 129:Drivers/CMSIS/DSP/Source/FilteringFunctions/arm_fir_q31.c ****     {
 535              		.loc 1 129 11 view .LVU180
 536 0282 0D9A     		ldr	r2, [sp, #52]
 537 0284 069C     		ldr	r4, [sp, #24]
 538 0286 DDF838B0 		ldr	fp, [sp, #56]
 539 028a 0F9E     		ldr	r6, [sp, #60]
 540 028c B246     		mov	r10, r6
 541 028e 2E46     		mov	r6, r5
 542 0290 2FE0     		b	.L8
 543              	.LVL84:
 544              	.L10:
 203:Drivers/CMSIS/DSP/Source/FilteringFunctions/arm_fir_q31.c ****   }
 204:Drivers/CMSIS/DSP/Source/FilteringFunctions/arm_fir_q31.c **** 
 205:Drivers/CMSIS/DSP/Source/FilteringFunctions/arm_fir_q31.c ****   /* If the blockSize is not a multiple of 3, compute any remaining output samples here.
 206:Drivers/CMSIS/DSP/Source/FilteringFunctions/arm_fir_q31.c ****    ** No loop unrolling is used. */
 207:Drivers/CMSIS/DSP/Source/FilteringFunctions/arm_fir_q31.c **** 
 208:Drivers/CMSIS/DSP/Source/FilteringFunctions/arm_fir_q31.c ****   while (blockSize > 0U)
 209:Drivers/CMSIS/DSP/Source/FilteringFunctions/arm_fir_q31.c ****   {
 210:Drivers/CMSIS/DSP/Source/FilteringFunctions/arm_fir_q31.c ****     /* Copy one sample at a time into state buffer */
 211:Drivers/CMSIS/DSP/Source/FilteringFunctions/arm_fir_q31.c ****     *pStateCurnt++ = *pSrc++;
 545              		.loc 1 211 5 is_stmt 1 view .LVU181
 546              		.loc 1 211 22 is_stmt 0 view .LVU182
ARM GAS  /var/folders/n6/c271nzx11xl4r4_m7sqjlt0m0000gn/T//cc3nxiWP.s 			page 15


 547 0292 51F8043B 		ldr	r3, [r1], #4
 548              	.LVL85:
 549              		.loc 1 211 20 view .LVU183
 550 0296 40F8043B 		str	r3, [r0], #4
 551              	.LVL86:
 212:Drivers/CMSIS/DSP/Source/FilteringFunctions/arm_fir_q31.c **** 
 213:Drivers/CMSIS/DSP/Source/FilteringFunctions/arm_fir_q31.c ****     /* Set the accumulator to zero */
 214:Drivers/CMSIS/DSP/Source/FilteringFunctions/arm_fir_q31.c ****     acc0 = 0;
 552              		.loc 1 214 5 is_stmt 1 view .LVU184
 215:Drivers/CMSIS/DSP/Source/FilteringFunctions/arm_fir_q31.c **** 
 216:Drivers/CMSIS/DSP/Source/FilteringFunctions/arm_fir_q31.c ****     /* Initialize state pointer */
 217:Drivers/CMSIS/DSP/Source/FilteringFunctions/arm_fir_q31.c ****     px = pState;
 553              		.loc 1 217 5 view .LVU185
 218:Drivers/CMSIS/DSP/Source/FilteringFunctions/arm_fir_q31.c **** 
 219:Drivers/CMSIS/DSP/Source/FilteringFunctions/arm_fir_q31.c ****     /* Initialize Coefficient pointer */
 220:Drivers/CMSIS/DSP/Source/FilteringFunctions/arm_fir_q31.c ****     pb = (pCoeffs);
 554              		.loc 1 220 5 view .LVU186
 221:Drivers/CMSIS/DSP/Source/FilteringFunctions/arm_fir_q31.c **** 
 222:Drivers/CMSIS/DSP/Source/FilteringFunctions/arm_fir_q31.c ****     i = numTaps;
 555              		.loc 1 222 5 view .LVU187
 556              		.loc 1 222 7 is_stmt 0 view .LVU188
 557 029a D846     		mov	r8, fp
 220:Drivers/CMSIS/DSP/Source/FilteringFunctions/arm_fir_q31.c **** 
 558              		.loc 1 220 8 view .LVU189
 559 029c DDF81CE0 		ldr	lr, [sp, #28]
 217:Drivers/CMSIS/DSP/Source/FilteringFunctions/arm_fir_q31.c **** 
 560              		.loc 1 217 8 view .LVU190
 561 02a0 A446     		mov	ip, r4
 214:Drivers/CMSIS/DSP/Source/FilteringFunctions/arm_fir_q31.c **** 
 562              		.loc 1 214 10 view .LVU191
 563 02a2 0027     		movs	r7, #0
 564 02a4 B946     		mov	r9, r7
 565 02a6 0192     		str	r2, [sp, #4]
 566 02a8 0294     		str	r4, [sp, #8]
 567              	.LVL87:
 568              	.L9:
 223:Drivers/CMSIS/DSP/Source/FilteringFunctions/arm_fir_q31.c **** 
 224:Drivers/CMSIS/DSP/Source/FilteringFunctions/arm_fir_q31.c ****     /* Perform the multiply-accumulates */
 225:Drivers/CMSIS/DSP/Source/FilteringFunctions/arm_fir_q31.c ****     do
 569              		.loc 1 225 5 is_stmt 1 view .LVU192
 226:Drivers/CMSIS/DSP/Source/FilteringFunctions/arm_fir_q31.c ****     {
 227:Drivers/CMSIS/DSP/Source/FilteringFunctions/arm_fir_q31.c ****       acc0 += (q63_t) * (px++) * (*(pb++));
 570              		.loc 1 227 7 view .LVU193
 571              		.loc 1 227 23 is_stmt 0 view .LVU194
 572 02aa DCF80020 		ldr	r2, [ip]
 573 02ae 0CF1040C 		add	ip, ip, #4
 574              	.LVL88:
 575              		.loc 1 227 15 view .LVU195
 576 02b2 D517     		asrs	r5, r2, #31
 577              		.loc 1 227 35 view .LVU196
 578 02b4 DEF80030 		ldr	r3, [lr]
 579 02b8 0EF1040E 		add	lr, lr, #4
 580              	.LVL89:
 581              		.loc 1 227 35 view .LVU197
 582 02bc DC17     		asrs	r4, r3, #31
 583              		.loc 1 227 32 view .LVU198
 584 02be 02FB04F4 		mul	r4, r2, r4
ARM GAS  /var/folders/n6/c271nzx11xl4r4_m7sqjlt0m0000gn/T//cc3nxiWP.s 			page 16


 585 02c2 03FB0544 		mla	r4, r3, r5, r4
 586 02c6 A2FB0323 		umull	r2, r3, r2, r3
 587 02ca 2344     		add	r3, r3, r4
 588              		.loc 1 227 12 view .LVU199
 589 02cc BA18     		adds	r2, r7, r2
 590 02ce 43EB0903 		adc	r3, r3, r9
 591 02d2 1746     		mov	r7, r2
 592              	.LVL90:
 593              		.loc 1 227 12 view .LVU200
 594 02d4 9946     		mov	r9, r3
 595              	.LVL91:
 228:Drivers/CMSIS/DSP/Source/FilteringFunctions/arm_fir_q31.c ****       i--;
 596              		.loc 1 228 7 is_stmt 1 view .LVU201
 229:Drivers/CMSIS/DSP/Source/FilteringFunctions/arm_fir_q31.c ****     } while (i > 0U);
 597              		.loc 1 229 16 discriminator 1 view .LVU202
 598 02d6 B8F10108 		subs	r8, r8, #1
 599              	.LVL92:
 600              		.loc 1 229 16 is_stmt 0 discriminator 1 view .LVU203
 601 02da E6D1     		bne	.L9
 230:Drivers/CMSIS/DSP/Source/FilteringFunctions/arm_fir_q31.c **** 
 231:Drivers/CMSIS/DSP/Source/FilteringFunctions/arm_fir_q31.c ****     /* The result is in 2.62 format.  Convert to 1.31
 232:Drivers/CMSIS/DSP/Source/FilteringFunctions/arm_fir_q31.c ****      ** Then store the output in the destination buffer. */
 233:Drivers/CMSIS/DSP/Source/FilteringFunctions/arm_fir_q31.c ****     *pDst++ = (q31_t) (acc0 >> 31U);
 602              		.loc 1 233 29 view .LVU204
 603 02dc 029C     		ldr	r4, [sp, #8]
 604 02de 019A     		ldr	r2, [sp, #4]
 605              	.LVL93:
 606              		.loc 1 233 5 is_stmt 1 view .LVU205
 607              		.loc 1 233 29 is_stmt 0 view .LVU206
 608 02e0 FD0F     		lsrs	r5, r7, #31
 609 02e2 45EA4305 		orr	r5, r5, r3, lsl #1
 610              		.loc 1 233 10 view .LVU207
 611 02e6 3346     		mov	r3, r6
 612              	.LVL94:
 613              		.loc 1 233 13 view .LVU208
 614 02e8 43F8045B 		str	r5, [r3], #4
 615              	.LVL95:
 234:Drivers/CMSIS/DSP/Source/FilteringFunctions/arm_fir_q31.c **** 
 235:Drivers/CMSIS/DSP/Source/FilteringFunctions/arm_fir_q31.c ****     /* Advance state pointer by 1 for the next sample */
 236:Drivers/CMSIS/DSP/Source/FilteringFunctions/arm_fir_q31.c ****     pState = pState + 1;
 616              		.loc 1 236 5 is_stmt 1 view .LVU209
 617              		.loc 1 236 12 is_stmt 0 view .LVU210
 618 02ec 0434     		adds	r4, r4, #4
 619              	.LVL96:
 237:Drivers/CMSIS/DSP/Source/FilteringFunctions/arm_fir_q31.c **** 
 238:Drivers/CMSIS/DSP/Source/FilteringFunctions/arm_fir_q31.c ****     /* Decrement the samples loop counter */
 239:Drivers/CMSIS/DSP/Source/FilteringFunctions/arm_fir_q31.c ****     blockSize--;
 620              		.loc 1 239 5 is_stmt 1 view .LVU211
 621              		.loc 1 239 14 is_stmt 0 view .LVU212
 622 02ee 013A     		subs	r2, r2, #1
 623              	.LVL97:
 233:Drivers/CMSIS/DSP/Source/FilteringFunctions/arm_fir_q31.c **** 
 624              		.loc 1 233 10 view .LVU213
 625 02f0 1E46     		mov	r6, r3
 626              	.LVL98:
 627              	.L8:
 208:Drivers/CMSIS/DSP/Source/FilteringFunctions/arm_fir_q31.c ****   {
ARM GAS  /var/folders/n6/c271nzx11xl4r4_m7sqjlt0m0000gn/T//cc3nxiWP.s 			page 17


 628              		.loc 1 208 20 is_stmt 1 view .LVU214
 629 02f2 002A     		cmp	r2, #0
 630 02f4 CDD1     		bne	.L10
 240:Drivers/CMSIS/DSP/Source/FilteringFunctions/arm_fir_q31.c ****   }
 241:Drivers/CMSIS/DSP/Source/FilteringFunctions/arm_fir_q31.c **** 
 242:Drivers/CMSIS/DSP/Source/FilteringFunctions/arm_fir_q31.c ****   /* Processing is complete.
 243:Drivers/CMSIS/DSP/Source/FilteringFunctions/arm_fir_q31.c ****    ** Now copy the last numTaps - 1 samples to the satrt of the state buffer.
 244:Drivers/CMSIS/DSP/Source/FilteringFunctions/arm_fir_q31.c ****    ** This prepares the state buffer for the next function call. */
 245:Drivers/CMSIS/DSP/Source/FilteringFunctions/arm_fir_q31.c **** 
 246:Drivers/CMSIS/DSP/Source/FilteringFunctions/arm_fir_q31.c ****   /* Points to the start of the state buffer */
 247:Drivers/CMSIS/DSP/Source/FilteringFunctions/arm_fir_q31.c ****   pStateCurnt = S->pState;
 631              		.loc 1 247 3 view .LVU215
 632              		.loc 1 247 15 is_stmt 0 view .LVU216
 633 02f6 DAF80430 		ldr	r3, [r10, #4]
 634              	.LVL99:
 248:Drivers/CMSIS/DSP/Source/FilteringFunctions/arm_fir_q31.c **** 
 249:Drivers/CMSIS/DSP/Source/FilteringFunctions/arm_fir_q31.c ****   tapCnt = (numTaps - 1U) >> 2U;
 635              		.loc 1 249 3 is_stmt 1 view .LVU217
 636              		.loc 1 249 21 is_stmt 0 view .LVU218
 637 02fa 0BF1FF32 		add	r2, fp, #-1
 638              	.LVL100:
 639              		.loc 1 249 10 view .LVU219
 640 02fe 9108     		lsrs	r1, r2, #2
 641              	.LVL101:
 250:Drivers/CMSIS/DSP/Source/FilteringFunctions/arm_fir_q31.c **** 
 251:Drivers/CMSIS/DSP/Source/FilteringFunctions/arm_fir_q31.c ****   /* copy data */
 252:Drivers/CMSIS/DSP/Source/FilteringFunctions/arm_fir_q31.c ****   while (tapCnt > 0U)
 642              		.loc 1 252 3 is_stmt 1 view .LVU220
 643              		.loc 1 252 9 is_stmt 0 view .LVU221
 644 0300 0AE0     		b	.L11
 645              	.L12:
 253:Drivers/CMSIS/DSP/Source/FilteringFunctions/arm_fir_q31.c ****   {
 254:Drivers/CMSIS/DSP/Source/FilteringFunctions/arm_fir_q31.c ****     *pStateCurnt++ = *pState++;
 646              		.loc 1 254 5 is_stmt 1 view .LVU222
 647              	.LVL102:
 648              		.loc 1 254 22 is_stmt 0 view .LVU223
 649 0302 2068     		ldr	r0, [r4]
 650              		.loc 1 254 20 view .LVU224
 651 0304 1860     		str	r0, [r3]
 255:Drivers/CMSIS/DSP/Source/FilteringFunctions/arm_fir_q31.c ****     *pStateCurnt++ = *pState++;
 652              		.loc 1 255 5 is_stmt 1 view .LVU225
 653              	.LVL103:
 654              		.loc 1 255 22 is_stmt 0 view .LVU226
 655 0306 6068     		ldr	r0, [r4, #4]
 656              		.loc 1 255 20 view .LVU227
 657 0308 5860     		str	r0, [r3, #4]
 256:Drivers/CMSIS/DSP/Source/FilteringFunctions/arm_fir_q31.c ****     *pStateCurnt++ = *pState++;
 658              		.loc 1 256 5 is_stmt 1 view .LVU228
 659              	.LVL104:
 660              		.loc 1 256 22 is_stmt 0 view .LVU229
 661 030a A068     		ldr	r0, [r4, #8]
 662              		.loc 1 256 20 view .LVU230
 663 030c 9860     		str	r0, [r3, #8]
 257:Drivers/CMSIS/DSP/Source/FilteringFunctions/arm_fir_q31.c ****     *pStateCurnt++ = *pState++;
 664              		.loc 1 257 5 is_stmt 1 view .LVU231
 665              	.LVL105:
 666              		.loc 1 257 22 is_stmt 0 view .LVU232
ARM GAS  /var/folders/n6/c271nzx11xl4r4_m7sqjlt0m0000gn/T//cc3nxiWP.s 			page 18


 667 030e E068     		ldr	r0, [r4, #12]
 668              		.loc 1 257 20 view .LVU233
 669 0310 D860     		str	r0, [r3, #12]
 258:Drivers/CMSIS/DSP/Source/FilteringFunctions/arm_fir_q31.c **** 
 259:Drivers/CMSIS/DSP/Source/FilteringFunctions/arm_fir_q31.c ****     /* Decrement the loop counter */
 260:Drivers/CMSIS/DSP/Source/FilteringFunctions/arm_fir_q31.c ****     tapCnt--;
 670              		.loc 1 260 5 is_stmt 1 view .LVU234
 671              		.loc 1 260 11 is_stmt 0 view .LVU235
 672 0312 0139     		subs	r1, r1, #1
 673              	.LVL106:
 257:Drivers/CMSIS/DSP/Source/FilteringFunctions/arm_fir_q31.c ****     *pStateCurnt++ = *pState++;
 674              		.loc 1 257 17 view .LVU236
 675 0314 1033     		adds	r3, r3, #16
 676              	.LVL107:
 257:Drivers/CMSIS/DSP/Source/FilteringFunctions/arm_fir_q31.c ****     *pStateCurnt++ = *pState++;
 677              		.loc 1 257 29 view .LVU237
 678 0316 1034     		adds	r4, r4, #16
 679              	.LVL108:
 680              	.L11:
 252:Drivers/CMSIS/DSP/Source/FilteringFunctions/arm_fir_q31.c ****   {
 681              		.loc 1 252 17 is_stmt 1 view .LVU238
 682 0318 0029     		cmp	r1, #0
 683 031a F2D1     		bne	.L12
 261:Drivers/CMSIS/DSP/Source/FilteringFunctions/arm_fir_q31.c ****   }
 262:Drivers/CMSIS/DSP/Source/FilteringFunctions/arm_fir_q31.c **** 
 263:Drivers/CMSIS/DSP/Source/FilteringFunctions/arm_fir_q31.c ****   /* Calculate remaining number of copies */
 264:Drivers/CMSIS/DSP/Source/FilteringFunctions/arm_fir_q31.c ****   tapCnt = (numTaps - 1U) % 0x4U;
 684              		.loc 1 264 3 view .LVU239
 685              		.loc 1 264 10 is_stmt 0 view .LVU240
 686 031c 02F00302 		and	r2, r2, #3
 687              	.LVL109:
 265:Drivers/CMSIS/DSP/Source/FilteringFunctions/arm_fir_q31.c **** 
 266:Drivers/CMSIS/DSP/Source/FilteringFunctions/arm_fir_q31.c ****   /* Copy the remaining q31_t data */
 267:Drivers/CMSIS/DSP/Source/FilteringFunctions/arm_fir_q31.c ****   while (tapCnt > 0U)
 688              		.loc 1 267 3 is_stmt 1 view .LVU241
 689              		.loc 1 267 9 is_stmt 0 view .LVU242
 690 0320 04E0     		b	.L13
 691              	.L14:
 268:Drivers/CMSIS/DSP/Source/FilteringFunctions/arm_fir_q31.c ****   {
 269:Drivers/CMSIS/DSP/Source/FilteringFunctions/arm_fir_q31.c ****     *pStateCurnt++ = *pState++;
 692              		.loc 1 269 5 is_stmt 1 view .LVU243
 693              	.LVL110:
 694              		.loc 1 269 22 is_stmt 0 view .LVU244
 695 0322 54F8041B 		ldr	r1, [r4], #4
 696              	.LVL111:
 697              		.loc 1 269 20 view .LVU245
 698 0326 43F8041B 		str	r1, [r3], #4
 699              	.LVL112:
 270:Drivers/CMSIS/DSP/Source/FilteringFunctions/arm_fir_q31.c **** 
 271:Drivers/CMSIS/DSP/Source/FilteringFunctions/arm_fir_q31.c ****     /* Decrement the loop counter */
 272:Drivers/CMSIS/DSP/Source/FilteringFunctions/arm_fir_q31.c ****     tapCnt--;
 700              		.loc 1 272 5 is_stmt 1 view .LVU246
 701              		.loc 1 272 11 is_stmt 0 view .LVU247
 702 032a 013A     		subs	r2, r2, #1
 703              	.LVL113:
 704              	.L13:
 267:Drivers/CMSIS/DSP/Source/FilteringFunctions/arm_fir_q31.c ****   {
ARM GAS  /var/folders/n6/c271nzx11xl4r4_m7sqjlt0m0000gn/T//cc3nxiWP.s 			page 19


 705              		.loc 1 267 17 is_stmt 1 view .LVU248
 706 032c 002A     		cmp	r2, #0
 707 032e F8D1     		bne	.L14
 273:Drivers/CMSIS/DSP/Source/FilteringFunctions/arm_fir_q31.c ****   }
 274:Drivers/CMSIS/DSP/Source/FilteringFunctions/arm_fir_q31.c **** 
 275:Drivers/CMSIS/DSP/Source/FilteringFunctions/arm_fir_q31.c **** #else
 276:Drivers/CMSIS/DSP/Source/FilteringFunctions/arm_fir_q31.c **** 
 277:Drivers/CMSIS/DSP/Source/FilteringFunctions/arm_fir_q31.c **** /* Run the below code for Cortex-M0 */
 278:Drivers/CMSIS/DSP/Source/FilteringFunctions/arm_fir_q31.c **** 
 279:Drivers/CMSIS/DSP/Source/FilteringFunctions/arm_fir_q31.c ****   q31_t *px;                                     /* Temporary pointer for state */
 280:Drivers/CMSIS/DSP/Source/FilteringFunctions/arm_fir_q31.c ****   q31_t *pb;                                     /* Temporary pointer for coefficient buffer */
 281:Drivers/CMSIS/DSP/Source/FilteringFunctions/arm_fir_q31.c ****   q63_t acc;                                     /* Accumulator */
 282:Drivers/CMSIS/DSP/Source/FilteringFunctions/arm_fir_q31.c ****   uint32_t numTaps = S->numTaps;                 /* Length of the filter */
 283:Drivers/CMSIS/DSP/Source/FilteringFunctions/arm_fir_q31.c ****   uint32_t i, tapCnt, blkCnt;                    /* Loop counters */
 284:Drivers/CMSIS/DSP/Source/FilteringFunctions/arm_fir_q31.c **** 
 285:Drivers/CMSIS/DSP/Source/FilteringFunctions/arm_fir_q31.c ****   /* S->pState buffer contains previous frame (numTaps - 1) samples */
 286:Drivers/CMSIS/DSP/Source/FilteringFunctions/arm_fir_q31.c ****   /* pStateCurnt points to the location where the new input data should be written */
 287:Drivers/CMSIS/DSP/Source/FilteringFunctions/arm_fir_q31.c ****   pStateCurnt = &(S->pState[(numTaps - 1U)]);
 288:Drivers/CMSIS/DSP/Source/FilteringFunctions/arm_fir_q31.c **** 
 289:Drivers/CMSIS/DSP/Source/FilteringFunctions/arm_fir_q31.c ****   /* Initialize blkCnt with blockSize */
 290:Drivers/CMSIS/DSP/Source/FilteringFunctions/arm_fir_q31.c ****   blkCnt = blockSize;
 291:Drivers/CMSIS/DSP/Source/FilteringFunctions/arm_fir_q31.c **** 
 292:Drivers/CMSIS/DSP/Source/FilteringFunctions/arm_fir_q31.c ****   while (blkCnt > 0U)
 293:Drivers/CMSIS/DSP/Source/FilteringFunctions/arm_fir_q31.c ****   {
 294:Drivers/CMSIS/DSP/Source/FilteringFunctions/arm_fir_q31.c ****     /* Copy one sample at a time into state buffer */
 295:Drivers/CMSIS/DSP/Source/FilteringFunctions/arm_fir_q31.c ****     *pStateCurnt++ = *pSrc++;
 296:Drivers/CMSIS/DSP/Source/FilteringFunctions/arm_fir_q31.c **** 
 297:Drivers/CMSIS/DSP/Source/FilteringFunctions/arm_fir_q31.c ****     /* Set the accumulator to zero */
 298:Drivers/CMSIS/DSP/Source/FilteringFunctions/arm_fir_q31.c ****     acc = 0;
 299:Drivers/CMSIS/DSP/Source/FilteringFunctions/arm_fir_q31.c **** 
 300:Drivers/CMSIS/DSP/Source/FilteringFunctions/arm_fir_q31.c ****     /* Initialize state pointer */
 301:Drivers/CMSIS/DSP/Source/FilteringFunctions/arm_fir_q31.c ****     px = pState;
 302:Drivers/CMSIS/DSP/Source/FilteringFunctions/arm_fir_q31.c **** 
 303:Drivers/CMSIS/DSP/Source/FilteringFunctions/arm_fir_q31.c ****     /* Initialize Coefficient pointer */
 304:Drivers/CMSIS/DSP/Source/FilteringFunctions/arm_fir_q31.c ****     pb = pCoeffs;
 305:Drivers/CMSIS/DSP/Source/FilteringFunctions/arm_fir_q31.c **** 
 306:Drivers/CMSIS/DSP/Source/FilteringFunctions/arm_fir_q31.c ****     i = numTaps;
 307:Drivers/CMSIS/DSP/Source/FilteringFunctions/arm_fir_q31.c **** 
 308:Drivers/CMSIS/DSP/Source/FilteringFunctions/arm_fir_q31.c ****     /* Perform the multiply-accumulates */
 309:Drivers/CMSIS/DSP/Source/FilteringFunctions/arm_fir_q31.c ****     do
 310:Drivers/CMSIS/DSP/Source/FilteringFunctions/arm_fir_q31.c ****     {
 311:Drivers/CMSIS/DSP/Source/FilteringFunctions/arm_fir_q31.c ****       /* acc =  b[numTaps-1] * x[n-numTaps-1] + b[numTaps-2] * x[n-numTaps-2] + b[numTaps-3] * x[n-
 312:Drivers/CMSIS/DSP/Source/FilteringFunctions/arm_fir_q31.c ****       acc += (q63_t) * px++ * *pb++;
 313:Drivers/CMSIS/DSP/Source/FilteringFunctions/arm_fir_q31.c ****       i--;
 314:Drivers/CMSIS/DSP/Source/FilteringFunctions/arm_fir_q31.c ****     } while (i > 0U);
 315:Drivers/CMSIS/DSP/Source/FilteringFunctions/arm_fir_q31.c **** 
 316:Drivers/CMSIS/DSP/Source/FilteringFunctions/arm_fir_q31.c ****     /* The result is in 2.62 format.  Convert to 1.31
 317:Drivers/CMSIS/DSP/Source/FilteringFunctions/arm_fir_q31.c ****      ** Then store the output in the destination buffer. */
 318:Drivers/CMSIS/DSP/Source/FilteringFunctions/arm_fir_q31.c ****     *pDst++ = (q31_t) (acc >> 31U);
 319:Drivers/CMSIS/DSP/Source/FilteringFunctions/arm_fir_q31.c **** 
 320:Drivers/CMSIS/DSP/Source/FilteringFunctions/arm_fir_q31.c ****     /* Advance state pointer by 1 for the next sample */
 321:Drivers/CMSIS/DSP/Source/FilteringFunctions/arm_fir_q31.c ****     pState = pState + 1;
 322:Drivers/CMSIS/DSP/Source/FilteringFunctions/arm_fir_q31.c **** 
 323:Drivers/CMSIS/DSP/Source/FilteringFunctions/arm_fir_q31.c ****     /* Decrement the samples loop counter */
 324:Drivers/CMSIS/DSP/Source/FilteringFunctions/arm_fir_q31.c ****     blkCnt--;
 325:Drivers/CMSIS/DSP/Source/FilteringFunctions/arm_fir_q31.c ****   }
 326:Drivers/CMSIS/DSP/Source/FilteringFunctions/arm_fir_q31.c **** 
ARM GAS  /var/folders/n6/c271nzx11xl4r4_m7sqjlt0m0000gn/T//cc3nxiWP.s 			page 20


 327:Drivers/CMSIS/DSP/Source/FilteringFunctions/arm_fir_q31.c ****   /* Processing is complete.
 328:Drivers/CMSIS/DSP/Source/FilteringFunctions/arm_fir_q31.c ****    ** Now copy the last numTaps - 1 samples to the starting of the state buffer.
 329:Drivers/CMSIS/DSP/Source/FilteringFunctions/arm_fir_q31.c ****    ** This prepares the state buffer for the next function call. */
 330:Drivers/CMSIS/DSP/Source/FilteringFunctions/arm_fir_q31.c **** 
 331:Drivers/CMSIS/DSP/Source/FilteringFunctions/arm_fir_q31.c ****   /* Points to the start of the state buffer */
 332:Drivers/CMSIS/DSP/Source/FilteringFunctions/arm_fir_q31.c ****   pStateCurnt = S->pState;
 333:Drivers/CMSIS/DSP/Source/FilteringFunctions/arm_fir_q31.c **** 
 334:Drivers/CMSIS/DSP/Source/FilteringFunctions/arm_fir_q31.c ****   /* Copy numTaps number of values */
 335:Drivers/CMSIS/DSP/Source/FilteringFunctions/arm_fir_q31.c ****   tapCnt = numTaps - 1U;
 336:Drivers/CMSIS/DSP/Source/FilteringFunctions/arm_fir_q31.c **** 
 337:Drivers/CMSIS/DSP/Source/FilteringFunctions/arm_fir_q31.c ****   /* Copy the data */
 338:Drivers/CMSIS/DSP/Source/FilteringFunctions/arm_fir_q31.c ****   while (tapCnt > 0U)
 339:Drivers/CMSIS/DSP/Source/FilteringFunctions/arm_fir_q31.c ****   {
 340:Drivers/CMSIS/DSP/Source/FilteringFunctions/arm_fir_q31.c ****     *pStateCurnt++ = *pState++;
 341:Drivers/CMSIS/DSP/Source/FilteringFunctions/arm_fir_q31.c **** 
 342:Drivers/CMSIS/DSP/Source/FilteringFunctions/arm_fir_q31.c ****     /* Decrement the loop counter */
 343:Drivers/CMSIS/DSP/Source/FilteringFunctions/arm_fir_q31.c ****     tapCnt--;
 344:Drivers/CMSIS/DSP/Source/FilteringFunctions/arm_fir_q31.c ****   }
 345:Drivers/CMSIS/DSP/Source/FilteringFunctions/arm_fir_q31.c **** 
 346:Drivers/CMSIS/DSP/Source/FilteringFunctions/arm_fir_q31.c **** 
 347:Drivers/CMSIS/DSP/Source/FilteringFunctions/arm_fir_q31.c **** #endif /*  #if defined (ARM_MATH_DSP) */
 348:Drivers/CMSIS/DSP/Source/FilteringFunctions/arm_fir_q31.c **** 
 349:Drivers/CMSIS/DSP/Source/FilteringFunctions/arm_fir_q31.c **** }
 708              		.loc 1 349 1 is_stmt 0 view .LVU249
 709 0330 11B0     		add	sp, sp, #68
 710              		.cfi_def_cfa_offset 36
 711              		@ sp needed
 712 0332 BDE8F08F 		pop	{r4, r5, r6, r7, r8, r9, r10, fp, pc}
 713              	.LVL114:
 714              	.L18:
 715              		.loc 1 349 1 view .LVU250
 716 0336 00BF     		.align	2
 717              	.L17:
 718 0338 ABAAAAAA 		.word	-1431655765
 719              		.cfi_endproc
 720              	.LFE135:
 722              		.text
 723              	.Letext0:
 724              		.file 2 "/Users/killian/Library/Application Support/Code/User/globalStorage/bmd.stm32-for-vscode/@
 725              		.file 3 "/Users/killian/Library/Application Support/Code/User/globalStorage/bmd.stm32-for-vscode/@
 726              		.file 4 "Drivers/CMSIS/DSP/Include/arm_math.h"
ARM GAS  /var/folders/n6/c271nzx11xl4r4_m7sqjlt0m0000gn/T//cc3nxiWP.s 			page 21

