ARM GAS  /var/folders/n6/c271nzx11xl4r4_m7sqjlt0m0000gn/T//ccRJPVyb.s 			page 1


   1              		.cpu cortex-m7
   2              		.arch armv7e-m
   3              		.fpu fpv5-d16
   4              		.eabi_attribute 28, 1
   5              		.eabi_attribute 20, 1
   6              		.eabi_attribute 21, 1
   7              		.eabi_attribute 23, 3
   8              		.eabi_attribute 24, 1
   9              		.eabi_attribute 25, 1
  10              		.eabi_attribute 26, 1
  11              		.eabi_attribute 30, 1
  12              		.eabi_attribute 34, 1
  13              		.eabi_attribute 18, 4
  14              		.file	"arm_float_to_q31.c"
  15              		.text
  16              	.Ltext0:
  17              		.cfi_sections	.debug_frame
  18              		.file 1 "Drivers/CMSIS/DSP/Source/SupportFunctions/arm_float_to_q31.c"
  19              		.global	__aeabi_f2lz
  20              		.section	.text.arm_float_to_q31,"ax",%progbits
  21              		.align	1
  22              		.global	arm_float_to_q31
  23              		.syntax unified
  24              		.thumb
  25              		.thumb_func
  27              	arm_float_to_q31:
  28              	.LVL0:
  29              	.LFB135:
   1:Drivers/CMSIS/DSP/Source/SupportFunctions/arm_float_to_q31.c **** /* ----------------------------------------------------------------------
   2:Drivers/CMSIS/DSP/Source/SupportFunctions/arm_float_to_q31.c ****  * Project:      CMSIS DSP Library
   3:Drivers/CMSIS/DSP/Source/SupportFunctions/arm_float_to_q31.c ****  * Title:        arm_float_to_q31.c
   4:Drivers/CMSIS/DSP/Source/SupportFunctions/arm_float_to_q31.c ****  * Description:  Converts the elements of the floating-point vector to Q31 vector
   5:Drivers/CMSIS/DSP/Source/SupportFunctions/arm_float_to_q31.c ****  *
   6:Drivers/CMSIS/DSP/Source/SupportFunctions/arm_float_to_q31.c ****  * $Date:        27. January 2017
   7:Drivers/CMSIS/DSP/Source/SupportFunctions/arm_float_to_q31.c ****  * $Revision:    V.1.5.1
   8:Drivers/CMSIS/DSP/Source/SupportFunctions/arm_float_to_q31.c ****  *
   9:Drivers/CMSIS/DSP/Source/SupportFunctions/arm_float_to_q31.c ****  * Target Processor: Cortex-M cores
  10:Drivers/CMSIS/DSP/Source/SupportFunctions/arm_float_to_q31.c ****  * -------------------------------------------------------------------- */
  11:Drivers/CMSIS/DSP/Source/SupportFunctions/arm_float_to_q31.c **** /*
  12:Drivers/CMSIS/DSP/Source/SupportFunctions/arm_float_to_q31.c ****  * Copyright (C) 2010-2017 ARM Limited or its affiliates. All rights reserved.
  13:Drivers/CMSIS/DSP/Source/SupportFunctions/arm_float_to_q31.c ****  *
  14:Drivers/CMSIS/DSP/Source/SupportFunctions/arm_float_to_q31.c ****  * SPDX-License-Identifier: Apache-2.0
  15:Drivers/CMSIS/DSP/Source/SupportFunctions/arm_float_to_q31.c ****  *
  16:Drivers/CMSIS/DSP/Source/SupportFunctions/arm_float_to_q31.c ****  * Licensed under the Apache License, Version 2.0 (the License); you may
  17:Drivers/CMSIS/DSP/Source/SupportFunctions/arm_float_to_q31.c ****  * not use this file except in compliance with the License.
  18:Drivers/CMSIS/DSP/Source/SupportFunctions/arm_float_to_q31.c ****  * You may obtain a copy of the License at
  19:Drivers/CMSIS/DSP/Source/SupportFunctions/arm_float_to_q31.c ****  *
  20:Drivers/CMSIS/DSP/Source/SupportFunctions/arm_float_to_q31.c ****  * www.apache.org/licenses/LICENSE-2.0
  21:Drivers/CMSIS/DSP/Source/SupportFunctions/arm_float_to_q31.c ****  *
  22:Drivers/CMSIS/DSP/Source/SupportFunctions/arm_float_to_q31.c ****  * Unless required by applicable law or agreed to in writing, software
  23:Drivers/CMSIS/DSP/Source/SupportFunctions/arm_float_to_q31.c ****  * distributed under the License is distributed on an AS IS BASIS, WITHOUT
  24:Drivers/CMSIS/DSP/Source/SupportFunctions/arm_float_to_q31.c ****  * WARRANTIES OR CONDITIONS OF ANY KIND, either express or implied.
  25:Drivers/CMSIS/DSP/Source/SupportFunctions/arm_float_to_q31.c ****  * See the License for the specific language governing permissions and
  26:Drivers/CMSIS/DSP/Source/SupportFunctions/arm_float_to_q31.c ****  * limitations under the License.
  27:Drivers/CMSIS/DSP/Source/SupportFunctions/arm_float_to_q31.c ****  */
  28:Drivers/CMSIS/DSP/Source/SupportFunctions/arm_float_to_q31.c **** 
  29:Drivers/CMSIS/DSP/Source/SupportFunctions/arm_float_to_q31.c **** #include "arm_math.h"
ARM GAS  /var/folders/n6/c271nzx11xl4r4_m7sqjlt0m0000gn/T//ccRJPVyb.s 			page 2


  30:Drivers/CMSIS/DSP/Source/SupportFunctions/arm_float_to_q31.c **** 
  31:Drivers/CMSIS/DSP/Source/SupportFunctions/arm_float_to_q31.c **** /**
  32:Drivers/CMSIS/DSP/Source/SupportFunctions/arm_float_to_q31.c ****  * @ingroup groupSupport
  33:Drivers/CMSIS/DSP/Source/SupportFunctions/arm_float_to_q31.c ****  */
  34:Drivers/CMSIS/DSP/Source/SupportFunctions/arm_float_to_q31.c **** 
  35:Drivers/CMSIS/DSP/Source/SupportFunctions/arm_float_to_q31.c **** /**
  36:Drivers/CMSIS/DSP/Source/SupportFunctions/arm_float_to_q31.c ****  * @defgroup float_to_x  Convert 32-bit floating point value
  37:Drivers/CMSIS/DSP/Source/SupportFunctions/arm_float_to_q31.c ****  */
  38:Drivers/CMSIS/DSP/Source/SupportFunctions/arm_float_to_q31.c **** 
  39:Drivers/CMSIS/DSP/Source/SupportFunctions/arm_float_to_q31.c **** /**
  40:Drivers/CMSIS/DSP/Source/SupportFunctions/arm_float_to_q31.c ****  * @addtogroup float_to_x
  41:Drivers/CMSIS/DSP/Source/SupportFunctions/arm_float_to_q31.c ****  * @{
  42:Drivers/CMSIS/DSP/Source/SupportFunctions/arm_float_to_q31.c ****  */
  43:Drivers/CMSIS/DSP/Source/SupportFunctions/arm_float_to_q31.c **** 
  44:Drivers/CMSIS/DSP/Source/SupportFunctions/arm_float_to_q31.c **** /**
  45:Drivers/CMSIS/DSP/Source/SupportFunctions/arm_float_to_q31.c ****  * @brief Converts the elements of the floating-point vector to Q31 vector.
  46:Drivers/CMSIS/DSP/Source/SupportFunctions/arm_float_to_q31.c ****  * @param[in]       *pSrc points to the floating-point input vector
  47:Drivers/CMSIS/DSP/Source/SupportFunctions/arm_float_to_q31.c ****  * @param[out]      *pDst points to the Q31 output vector
  48:Drivers/CMSIS/DSP/Source/SupportFunctions/arm_float_to_q31.c ****  * @param[in]       blockSize length of the input vector
  49:Drivers/CMSIS/DSP/Source/SupportFunctions/arm_float_to_q31.c ****  * @return none.
  50:Drivers/CMSIS/DSP/Source/SupportFunctions/arm_float_to_q31.c ****  *
  51:Drivers/CMSIS/DSP/Source/SupportFunctions/arm_float_to_q31.c ****  *\par Description:
  52:Drivers/CMSIS/DSP/Source/SupportFunctions/arm_float_to_q31.c ****  * \par
  53:Drivers/CMSIS/DSP/Source/SupportFunctions/arm_float_to_q31.c ****  * The equation used for the conversion process is:
  54:Drivers/CMSIS/DSP/Source/SupportFunctions/arm_float_to_q31.c ****  *
  55:Drivers/CMSIS/DSP/Source/SupportFunctions/arm_float_to_q31.c ****  * <pre>
  56:Drivers/CMSIS/DSP/Source/SupportFunctions/arm_float_to_q31.c ****  * 	pDst[n] = (q31_t)(pSrc[n] * 2147483648);   0 <= n < blockSize.
  57:Drivers/CMSIS/DSP/Source/SupportFunctions/arm_float_to_q31.c ****  * </pre>
  58:Drivers/CMSIS/DSP/Source/SupportFunctions/arm_float_to_q31.c ****  * <b>Scaling and Overflow Behavior:</b>
  59:Drivers/CMSIS/DSP/Source/SupportFunctions/arm_float_to_q31.c ****  * \par
  60:Drivers/CMSIS/DSP/Source/SupportFunctions/arm_float_to_q31.c ****  * The function uses saturating arithmetic.
  61:Drivers/CMSIS/DSP/Source/SupportFunctions/arm_float_to_q31.c ****  * Results outside of the allowable Q31 range[0x80000000 0x7FFFFFFF] will be saturated.
  62:Drivers/CMSIS/DSP/Source/SupportFunctions/arm_float_to_q31.c ****  *
  63:Drivers/CMSIS/DSP/Source/SupportFunctions/arm_float_to_q31.c ****  * \note In order to apply rounding, the library should be rebuilt with the ROUNDING macro
  64:Drivers/CMSIS/DSP/Source/SupportFunctions/arm_float_to_q31.c ****  * defined in the preprocessor section of project options.
  65:Drivers/CMSIS/DSP/Source/SupportFunctions/arm_float_to_q31.c ****  */
  66:Drivers/CMSIS/DSP/Source/SupportFunctions/arm_float_to_q31.c **** 
  67:Drivers/CMSIS/DSP/Source/SupportFunctions/arm_float_to_q31.c **** 
  68:Drivers/CMSIS/DSP/Source/SupportFunctions/arm_float_to_q31.c **** void arm_float_to_q31(
  69:Drivers/CMSIS/DSP/Source/SupportFunctions/arm_float_to_q31.c ****   float32_t * pSrc,
  70:Drivers/CMSIS/DSP/Source/SupportFunctions/arm_float_to_q31.c ****   q31_t * pDst,
  71:Drivers/CMSIS/DSP/Source/SupportFunctions/arm_float_to_q31.c ****   uint32_t blockSize)
  72:Drivers/CMSIS/DSP/Source/SupportFunctions/arm_float_to_q31.c **** {
  30              		.loc 1 72 1 view -0
  31              		.cfi_startproc
  32              		@ args = 0, pretend = 0, frame = 0
  33              		@ frame_needed = 0, uses_anonymous_args = 0
  34              		.loc 1 72 1 is_stmt 0 view .LVU1
  35 0000 2DE9F041 		push	{r4, r5, r6, r7, r8, lr}
  36              		.cfi_def_cfa_offset 24
  37              		.cfi_offset 4, -24
  38              		.cfi_offset 5, -20
  39              		.cfi_offset 6, -16
  40              		.cfi_offset 7, -12
  41              		.cfi_offset 8, -8
  42              		.cfi_offset 14, -4
  43 0004 0446     		mov	r4, r0
ARM GAS  /var/folders/n6/c271nzx11xl4r4_m7sqjlt0m0000gn/T//ccRJPVyb.s 			page 3


  44 0006 0D46     		mov	r5, r1
  45 0008 1646     		mov	r6, r2
  73:Drivers/CMSIS/DSP/Source/SupportFunctions/arm_float_to_q31.c ****   float32_t *pIn = pSrc;                         /* Src pointer */
  46              		.loc 1 73 3 is_stmt 1 view .LVU2
  47              	.LVL1:
  74:Drivers/CMSIS/DSP/Source/SupportFunctions/arm_float_to_q31.c ****   uint32_t blkCnt;                               /* loop counter */
  48              		.loc 1 74 3 view .LVU3
  75:Drivers/CMSIS/DSP/Source/SupportFunctions/arm_float_to_q31.c **** 
  76:Drivers/CMSIS/DSP/Source/SupportFunctions/arm_float_to_q31.c **** #ifdef ARM_MATH_ROUNDING
  77:Drivers/CMSIS/DSP/Source/SupportFunctions/arm_float_to_q31.c **** 
  78:Drivers/CMSIS/DSP/Source/SupportFunctions/arm_float_to_q31.c ****   float32_t in;
  79:Drivers/CMSIS/DSP/Source/SupportFunctions/arm_float_to_q31.c **** 
  80:Drivers/CMSIS/DSP/Source/SupportFunctions/arm_float_to_q31.c **** #endif /*      #ifdef ARM_MATH_ROUNDING        */
  81:Drivers/CMSIS/DSP/Source/SupportFunctions/arm_float_to_q31.c **** 
  82:Drivers/CMSIS/DSP/Source/SupportFunctions/arm_float_to_q31.c **** #if defined (ARM_MATH_DSP)
  83:Drivers/CMSIS/DSP/Source/SupportFunctions/arm_float_to_q31.c **** 
  84:Drivers/CMSIS/DSP/Source/SupportFunctions/arm_float_to_q31.c ****   /* Run the below code for Cortex-M4 and Cortex-M3 */
  85:Drivers/CMSIS/DSP/Source/SupportFunctions/arm_float_to_q31.c **** 
  86:Drivers/CMSIS/DSP/Source/SupportFunctions/arm_float_to_q31.c ****   /*loop Unrolling */
  87:Drivers/CMSIS/DSP/Source/SupportFunctions/arm_float_to_q31.c ****   blkCnt = blockSize >> 2U;
  49              		.loc 1 87 3 view .LVU4
  50              		.loc 1 87 10 is_stmt 0 view .LVU5
  51 000a 9708     		lsrs	r7, r2, #2
  52              	.LVL2:
  88:Drivers/CMSIS/DSP/Source/SupportFunctions/arm_float_to_q31.c **** 
  89:Drivers/CMSIS/DSP/Source/SupportFunctions/arm_float_to_q31.c ****   /* First part of the processing with loop unrolling.  Compute 4 outputs at a time.
  90:Drivers/CMSIS/DSP/Source/SupportFunctions/arm_float_to_q31.c ****    ** a second loop below computes the remaining 1 to 3 samples. */
  91:Drivers/CMSIS/DSP/Source/SupportFunctions/arm_float_to_q31.c ****   while (blkCnt > 0U)
  53              		.loc 1 91 3 is_stmt 1 view .LVU6
  54              		.loc 1 91 9 is_stmt 0 view .LVU7
  55 000c 03E0     		b	.L2
  56              	.LVL3:
  57              	.L6:
  92:Drivers/CMSIS/DSP/Source/SupportFunctions/arm_float_to_q31.c ****   {
  93:Drivers/CMSIS/DSP/Source/SupportFunctions/arm_float_to_q31.c **** 
  94:Drivers/CMSIS/DSP/Source/SupportFunctions/arm_float_to_q31.c **** #ifdef ARM_MATH_ROUNDING
  95:Drivers/CMSIS/DSP/Source/SupportFunctions/arm_float_to_q31.c **** 
  96:Drivers/CMSIS/DSP/Source/SupportFunctions/arm_float_to_q31.c ****     /* C = A * 32768 */
  97:Drivers/CMSIS/DSP/Source/SupportFunctions/arm_float_to_q31.c ****     /* convert from float to Q31 and then store the results in the destination buffer */
  98:Drivers/CMSIS/DSP/Source/SupportFunctions/arm_float_to_q31.c ****     in = *pIn++;
  99:Drivers/CMSIS/DSP/Source/SupportFunctions/arm_float_to_q31.c ****     in = (in * 2147483648.0f);
 100:Drivers/CMSIS/DSP/Source/SupportFunctions/arm_float_to_q31.c ****     in += in > 0.0f ? 0.5f : -0.5f;
 101:Drivers/CMSIS/DSP/Source/SupportFunctions/arm_float_to_q31.c ****     *pDst++ = clip_q63_to_q31((q63_t) (in));
 102:Drivers/CMSIS/DSP/Source/SupportFunctions/arm_float_to_q31.c **** 
 103:Drivers/CMSIS/DSP/Source/SupportFunctions/arm_float_to_q31.c ****     in = *pIn++;
 104:Drivers/CMSIS/DSP/Source/SupportFunctions/arm_float_to_q31.c ****     in = (in * 2147483648.0f);
 105:Drivers/CMSIS/DSP/Source/SupportFunctions/arm_float_to_q31.c ****     in += in > 0.0f ? 0.5f : -0.5f;
 106:Drivers/CMSIS/DSP/Source/SupportFunctions/arm_float_to_q31.c ****     *pDst++ = clip_q63_to_q31((q63_t) (in));
 107:Drivers/CMSIS/DSP/Source/SupportFunctions/arm_float_to_q31.c **** 
 108:Drivers/CMSIS/DSP/Source/SupportFunctions/arm_float_to_q31.c ****     in = *pIn++;
 109:Drivers/CMSIS/DSP/Source/SupportFunctions/arm_float_to_q31.c ****     in = (in * 2147483648.0f);
 110:Drivers/CMSIS/DSP/Source/SupportFunctions/arm_float_to_q31.c ****     in += in > 0.0f ? 0.5f : -0.5f;
 111:Drivers/CMSIS/DSP/Source/SupportFunctions/arm_float_to_q31.c ****     *pDst++ = clip_q63_to_q31((q63_t) (in));
 112:Drivers/CMSIS/DSP/Source/SupportFunctions/arm_float_to_q31.c **** 
 113:Drivers/CMSIS/DSP/Source/SupportFunctions/arm_float_to_q31.c ****     in = *pIn++;
 114:Drivers/CMSIS/DSP/Source/SupportFunctions/arm_float_to_q31.c ****     in = (in * 2147483648.0f);
 115:Drivers/CMSIS/DSP/Source/SupportFunctions/arm_float_to_q31.c ****     in += in > 0.0f ? 0.5f : -0.5f;
ARM GAS  /var/folders/n6/c271nzx11xl4r4_m7sqjlt0m0000gn/T//ccRJPVyb.s 			page 4


 116:Drivers/CMSIS/DSP/Source/SupportFunctions/arm_float_to_q31.c ****     *pDst++ = clip_q63_to_q31((q63_t) (in));
 117:Drivers/CMSIS/DSP/Source/SupportFunctions/arm_float_to_q31.c **** 
 118:Drivers/CMSIS/DSP/Source/SupportFunctions/arm_float_to_q31.c **** #else
 119:Drivers/CMSIS/DSP/Source/SupportFunctions/arm_float_to_q31.c **** 
 120:Drivers/CMSIS/DSP/Source/SupportFunctions/arm_float_to_q31.c ****     /* C = A * 2147483648 */
 121:Drivers/CMSIS/DSP/Source/SupportFunctions/arm_float_to_q31.c ****     /* convert from float to Q31 and then store the results in the destination buffer */
 122:Drivers/CMSIS/DSP/Source/SupportFunctions/arm_float_to_q31.c ****     *pDst++ = clip_q63_to_q31((q63_t) (*pIn++ * 2147483648.0f));
 123:Drivers/CMSIS/DSP/Source/SupportFunctions/arm_float_to_q31.c ****     *pDst++ = clip_q63_to_q31((q63_t) (*pIn++ * 2147483648.0f));
 124:Drivers/CMSIS/DSP/Source/SupportFunctions/arm_float_to_q31.c ****     *pDst++ = clip_q63_to_q31((q63_t) (*pIn++ * 2147483648.0f));
 125:Drivers/CMSIS/DSP/Source/SupportFunctions/arm_float_to_q31.c ****     *pDst++ = clip_q63_to_q31((q63_t) (*pIn++ * 2147483648.0f));
  58              		.loc 1 125 13 discriminator 1 view .LVU8
  59 000e EB60     		str	r3, [r5, #12]
 126:Drivers/CMSIS/DSP/Source/SupportFunctions/arm_float_to_q31.c **** 
 127:Drivers/CMSIS/DSP/Source/SupportFunctions/arm_float_to_q31.c **** #endif /*      #ifdef ARM_MATH_ROUNDING        */
 128:Drivers/CMSIS/DSP/Source/SupportFunctions/arm_float_to_q31.c **** 
 129:Drivers/CMSIS/DSP/Source/SupportFunctions/arm_float_to_q31.c ****     /* Decrement the loop counter */
 130:Drivers/CMSIS/DSP/Source/SupportFunctions/arm_float_to_q31.c ****     blkCnt--;
  60              		.loc 1 130 5 is_stmt 1 view .LVU9
  61              		.loc 1 130 11 is_stmt 0 view .LVU10
  62 0010 013F     		subs	r7, r7, #1
  63              	.LVL4:
 125:Drivers/CMSIS/DSP/Source/SupportFunctions/arm_float_to_q31.c **** 
  64              		.loc 1 125 44 view .LVU11
  65 0012 4446     		mov	r4, r8
 125:Drivers/CMSIS/DSP/Source/SupportFunctions/arm_float_to_q31.c **** 
  66              		.loc 1 125 10 view .LVU12
  67 0014 1546     		mov	r5, r2
  68              	.LVL5:
  69              	.L2:
  91:Drivers/CMSIS/DSP/Source/SupportFunctions/arm_float_to_q31.c ****   {
  70              		.loc 1 91 17 is_stmt 1 view .LVU13
  71 0016 002F     		cmp	r7, #0
  72 0018 4FD0     		beq	.L12
 122:Drivers/CMSIS/DSP/Source/SupportFunctions/arm_float_to_q31.c ****     *pDst++ = clip_q63_to_q31((q63_t) (*pIn++ * 2147483648.0f));
  73              		.loc 1 122 5 view .LVU14
  74              	.LVL6:
 122:Drivers/CMSIS/DSP/Source/SupportFunctions/arm_float_to_q31.c ****     *pDst++ = clip_q63_to_q31((q63_t) (*pIn++ * 2147483648.0f));
  75              		.loc 1 122 40 is_stmt 0 view .LVU15
  76 001a 94ED007A 		vldr.32	s14, [r4]
 122:Drivers/CMSIS/DSP/Source/SupportFunctions/arm_float_to_q31.c ****     *pDst++ = clip_q63_to_q31((q63_t) (*pIn++ * 2147483648.0f));
  77              		.loc 1 122 15 view .LVU16
  78 001e DFED357A 		vldr.32	s15, .L14
  79 0022 67EE277A 		vmul.f32	s15, s14, s15
  80 0026 17EE900A 		vmov	r0, s15
  81 002a FFF7FEFF 		bl	__aeabi_f2lz
  82              	.LVL7:
  83              	.LBB12:
  84              	.LBI12:
  85              		.file 2 "Drivers/CMSIS/DSP/Include/arm_math.h"
   1:Drivers/CMSIS/DSP/Include/arm_math.h **** /******************************************************************************
   2:Drivers/CMSIS/DSP/Include/arm_math.h ****  * @file     arm_math.h
   3:Drivers/CMSIS/DSP/Include/arm_math.h ****  * @brief    Public header file for CMSIS DSP LibraryU
   4:Drivers/CMSIS/DSP/Include/arm_math.h ****  * @version  V1.5.3
   5:Drivers/CMSIS/DSP/Include/arm_math.h ****  * @date     10. January 2018
   6:Drivers/CMSIS/DSP/Include/arm_math.h ****  ******************************************************************************/
   7:Drivers/CMSIS/DSP/Include/arm_math.h **** /*
   8:Drivers/CMSIS/DSP/Include/arm_math.h ****  * Copyright (c) 2010-2018 Arm Limited or its affiliates. All rights reserved.
ARM GAS  /var/folders/n6/c271nzx11xl4r4_m7sqjlt0m0000gn/T//ccRJPVyb.s 			page 5


   9:Drivers/CMSIS/DSP/Include/arm_math.h ****  *
  10:Drivers/CMSIS/DSP/Include/arm_math.h ****  * SPDX-License-Identifier: Apache-2.0
  11:Drivers/CMSIS/DSP/Include/arm_math.h ****  *
  12:Drivers/CMSIS/DSP/Include/arm_math.h ****  * Licensed under the Apache License, Version 2.0 (the License); you may
  13:Drivers/CMSIS/DSP/Include/arm_math.h ****  * not use this file except in compliance with the License.
  14:Drivers/CMSIS/DSP/Include/arm_math.h ****  * You may obtain a copy of the License at
  15:Drivers/CMSIS/DSP/Include/arm_math.h ****  *
  16:Drivers/CMSIS/DSP/Include/arm_math.h ****  * www.apache.org/licenses/LICENSE-2.0
  17:Drivers/CMSIS/DSP/Include/arm_math.h ****  *
  18:Drivers/CMSIS/DSP/Include/arm_math.h ****  * Unless required by applicable law or agreed to in writing, software
  19:Drivers/CMSIS/DSP/Include/arm_math.h ****  * distributed under the License is distributed on an AS IS BASIS, WITHOUT
  20:Drivers/CMSIS/DSP/Include/arm_math.h ****  * WARRANTIES OR CONDITIONS OF ANY KIND, either express or implied.
  21:Drivers/CMSIS/DSP/Include/arm_math.h ****  * See the License for the specific language governing permissions and
  22:Drivers/CMSIS/DSP/Include/arm_math.h ****  * limitations under the License.
  23:Drivers/CMSIS/DSP/Include/arm_math.h ****  */
  24:Drivers/CMSIS/DSP/Include/arm_math.h **** 
  25:Drivers/CMSIS/DSP/Include/arm_math.h **** /**
  26:Drivers/CMSIS/DSP/Include/arm_math.h ****    \mainpage CMSIS DSP Software Library
  27:Drivers/CMSIS/DSP/Include/arm_math.h ****    *
  28:Drivers/CMSIS/DSP/Include/arm_math.h ****    * Introduction
  29:Drivers/CMSIS/DSP/Include/arm_math.h ****    * ------------
  30:Drivers/CMSIS/DSP/Include/arm_math.h ****    *
  31:Drivers/CMSIS/DSP/Include/arm_math.h ****    * This user manual describes the CMSIS DSP software library,
  32:Drivers/CMSIS/DSP/Include/arm_math.h ****    * a suite of common signal processing functions for use on Cortex-M processor based devices.
  33:Drivers/CMSIS/DSP/Include/arm_math.h ****    *
  34:Drivers/CMSIS/DSP/Include/arm_math.h ****    * The library is divided into a number of functions each covering a specific category:
  35:Drivers/CMSIS/DSP/Include/arm_math.h ****    * - Basic math functions
  36:Drivers/CMSIS/DSP/Include/arm_math.h ****    * - Fast math functions
  37:Drivers/CMSIS/DSP/Include/arm_math.h ****    * - Complex math functions
  38:Drivers/CMSIS/DSP/Include/arm_math.h ****    * - Filters
  39:Drivers/CMSIS/DSP/Include/arm_math.h ****    * - Matrix functions
  40:Drivers/CMSIS/DSP/Include/arm_math.h ****    * - Transforms
  41:Drivers/CMSIS/DSP/Include/arm_math.h ****    * - Motor control functions
  42:Drivers/CMSIS/DSP/Include/arm_math.h ****    * - Statistical functions
  43:Drivers/CMSIS/DSP/Include/arm_math.h ****    * - Support functions
  44:Drivers/CMSIS/DSP/Include/arm_math.h ****    * - Interpolation functions
  45:Drivers/CMSIS/DSP/Include/arm_math.h ****    *
  46:Drivers/CMSIS/DSP/Include/arm_math.h ****    * The library has separate functions for operating on 8-bit integers, 16-bit integers,
  47:Drivers/CMSIS/DSP/Include/arm_math.h ****    * 32-bit integer and 32-bit floating-point values.
  48:Drivers/CMSIS/DSP/Include/arm_math.h ****    *
  49:Drivers/CMSIS/DSP/Include/arm_math.h ****    * Using the Library
  50:Drivers/CMSIS/DSP/Include/arm_math.h ****    * ------------
  51:Drivers/CMSIS/DSP/Include/arm_math.h ****    *
  52:Drivers/CMSIS/DSP/Include/arm_math.h ****    * The library installer contains prebuilt versions of the libraries in the <code>Lib</code> fold
  53:Drivers/CMSIS/DSP/Include/arm_math.h ****    * - arm_cortexM7lfdp_math.lib (Cortex-M7, Little endian, Double Precision Floating Point Unit)
  54:Drivers/CMSIS/DSP/Include/arm_math.h ****    * - arm_cortexM7bfdp_math.lib (Cortex-M7, Big endian, Double Precision Floating Point Unit)
  55:Drivers/CMSIS/DSP/Include/arm_math.h ****    * - arm_cortexM7lfsp_math.lib (Cortex-M7, Little endian, Single Precision Floating Point Unit)
  56:Drivers/CMSIS/DSP/Include/arm_math.h ****    * - arm_cortexM7bfsp_math.lib (Cortex-M7, Big endian and Single Precision Floating Point Unit on
  57:Drivers/CMSIS/DSP/Include/arm_math.h ****    * - arm_cortexM7l_math.lib (Cortex-M7, Little endian)
  58:Drivers/CMSIS/DSP/Include/arm_math.h ****    * - arm_cortexM7b_math.lib (Cortex-M7, Big endian)
  59:Drivers/CMSIS/DSP/Include/arm_math.h ****    * - arm_cortexM4lf_math.lib (Cortex-M4, Little endian, Floating Point Unit)
  60:Drivers/CMSIS/DSP/Include/arm_math.h ****    * - arm_cortexM4bf_math.lib (Cortex-M4, Big endian, Floating Point Unit)
  61:Drivers/CMSIS/DSP/Include/arm_math.h ****    * - arm_cortexM4l_math.lib (Cortex-M4, Little endian)
  62:Drivers/CMSIS/DSP/Include/arm_math.h ****    * - arm_cortexM4b_math.lib (Cortex-M4, Big endian)
  63:Drivers/CMSIS/DSP/Include/arm_math.h ****    * - arm_cortexM3l_math.lib (Cortex-M3, Little endian)
  64:Drivers/CMSIS/DSP/Include/arm_math.h ****    * - arm_cortexM3b_math.lib (Cortex-M3, Big endian)
  65:Drivers/CMSIS/DSP/Include/arm_math.h ****    * - arm_cortexM0l_math.lib (Cortex-M0 / Cortex-M0+, Little endian)
ARM GAS  /var/folders/n6/c271nzx11xl4r4_m7sqjlt0m0000gn/T//ccRJPVyb.s 			page 6


  66:Drivers/CMSIS/DSP/Include/arm_math.h ****    * - arm_cortexM0b_math.lib (Cortex-M0 / Cortex-M0+, Big endian)
  67:Drivers/CMSIS/DSP/Include/arm_math.h ****    * - arm_ARMv8MBLl_math.lib (Armv8-M Baseline, Little endian)
  68:Drivers/CMSIS/DSP/Include/arm_math.h ****    * - arm_ARMv8MMLl_math.lib (Armv8-M Mainline, Little endian)
  69:Drivers/CMSIS/DSP/Include/arm_math.h ****    * - arm_ARMv8MMLlfsp_math.lib (Armv8-M Mainline, Little endian, Single Precision Floating Point 
  70:Drivers/CMSIS/DSP/Include/arm_math.h ****    * - arm_ARMv8MMLld_math.lib (Armv8-M Mainline, Little endian, DSP instructions)
  71:Drivers/CMSIS/DSP/Include/arm_math.h ****    * - arm_ARMv8MMLldfsp_math.lib (Armv8-M Mainline, Little endian, DSP instructions, Single Precis
  72:Drivers/CMSIS/DSP/Include/arm_math.h ****    *
  73:Drivers/CMSIS/DSP/Include/arm_math.h ****    * The library functions are declared in the public file <code>arm_math.h</code> which is placed 
  74:Drivers/CMSIS/DSP/Include/arm_math.h ****    * Simply include this file and link the appropriate library in the application and begin calling
  75:Drivers/CMSIS/DSP/Include/arm_math.h ****    * public header file <code> arm_math.h</code> for Cortex-M cores with little endian and big endi
  76:Drivers/CMSIS/DSP/Include/arm_math.h ****    * Define the appropriate preprocessor macro ARM_MATH_CM7 or ARM_MATH_CM4 or ARM_MATH_CM3 or
  77:Drivers/CMSIS/DSP/Include/arm_math.h ****    * ARM_MATH_CM0 or ARM_MATH_CM0PLUS depending on the target processor in the application.
  78:Drivers/CMSIS/DSP/Include/arm_math.h ****    * For Armv8-M cores define preprocessor macro ARM_MATH_ARMV8MBL or ARM_MATH_ARMV8MML.
  79:Drivers/CMSIS/DSP/Include/arm_math.h ****    * Set preprocessor macro __DSP_PRESENT if Armv8-M Mainline core supports DSP instructions.
  80:Drivers/CMSIS/DSP/Include/arm_math.h ****    *
  81:Drivers/CMSIS/DSP/Include/arm_math.h ****    *
  82:Drivers/CMSIS/DSP/Include/arm_math.h ****    * Examples
  83:Drivers/CMSIS/DSP/Include/arm_math.h ****    * --------
  84:Drivers/CMSIS/DSP/Include/arm_math.h ****    *
  85:Drivers/CMSIS/DSP/Include/arm_math.h ****    * The library ships with a number of examples which demonstrate how to use the library functions
  86:Drivers/CMSIS/DSP/Include/arm_math.h ****    *
  87:Drivers/CMSIS/DSP/Include/arm_math.h ****    * Toolchain Support
  88:Drivers/CMSIS/DSP/Include/arm_math.h ****    * ------------
  89:Drivers/CMSIS/DSP/Include/arm_math.h ****    *
  90:Drivers/CMSIS/DSP/Include/arm_math.h ****    * The library has been developed and tested with MDK version 5.14.0.0
  91:Drivers/CMSIS/DSP/Include/arm_math.h ****    * The library is being tested in GCC and IAR toolchains and updates on this activity will be mad
  92:Drivers/CMSIS/DSP/Include/arm_math.h ****    *
  93:Drivers/CMSIS/DSP/Include/arm_math.h ****    * Building the Library
  94:Drivers/CMSIS/DSP/Include/arm_math.h ****    * ------------
  95:Drivers/CMSIS/DSP/Include/arm_math.h ****    *
  96:Drivers/CMSIS/DSP/Include/arm_math.h ****    * The library installer contains a project file to rebuild libraries on MDK toolchain in the <co
  97:Drivers/CMSIS/DSP/Include/arm_math.h ****    * - arm_cortexM_math.uvprojx
  98:Drivers/CMSIS/DSP/Include/arm_math.h ****    *
  99:Drivers/CMSIS/DSP/Include/arm_math.h ****    *
 100:Drivers/CMSIS/DSP/Include/arm_math.h ****    * The libraries can be built by opening the arm_cortexM_math.uvprojx project in MDK-ARM, selecti
 101:Drivers/CMSIS/DSP/Include/arm_math.h ****    *
 102:Drivers/CMSIS/DSP/Include/arm_math.h ****    * Preprocessor Macros
 103:Drivers/CMSIS/DSP/Include/arm_math.h ****    * ------------
 104:Drivers/CMSIS/DSP/Include/arm_math.h ****    *
 105:Drivers/CMSIS/DSP/Include/arm_math.h ****    * Each library project have different preprocessor macros.
 106:Drivers/CMSIS/DSP/Include/arm_math.h ****    *
 107:Drivers/CMSIS/DSP/Include/arm_math.h ****    * - UNALIGNED_SUPPORT_DISABLE:
 108:Drivers/CMSIS/DSP/Include/arm_math.h ****    *
 109:Drivers/CMSIS/DSP/Include/arm_math.h ****    * Define macro UNALIGNED_SUPPORT_DISABLE, If the silicon does not support unaligned memory acces
 110:Drivers/CMSIS/DSP/Include/arm_math.h ****    *
 111:Drivers/CMSIS/DSP/Include/arm_math.h ****    * - ARM_MATH_BIG_ENDIAN:
 112:Drivers/CMSIS/DSP/Include/arm_math.h ****    *
 113:Drivers/CMSIS/DSP/Include/arm_math.h ****    * Define macro ARM_MATH_BIG_ENDIAN to build the library for big endian targets. By default libra
 114:Drivers/CMSIS/DSP/Include/arm_math.h ****    *
 115:Drivers/CMSIS/DSP/Include/arm_math.h ****    * - ARM_MATH_MATRIX_CHECK:
 116:Drivers/CMSIS/DSP/Include/arm_math.h ****    *
 117:Drivers/CMSIS/DSP/Include/arm_math.h ****    * Define macro ARM_MATH_MATRIX_CHECK for checking on the input and output sizes of matrices
 118:Drivers/CMSIS/DSP/Include/arm_math.h ****    *
 119:Drivers/CMSIS/DSP/Include/arm_math.h ****    * - ARM_MATH_ROUNDING:
 120:Drivers/CMSIS/DSP/Include/arm_math.h ****    *
 121:Drivers/CMSIS/DSP/Include/arm_math.h ****    * Define macro ARM_MATH_ROUNDING for rounding on support functions
 122:Drivers/CMSIS/DSP/Include/arm_math.h ****    *
ARM GAS  /var/folders/n6/c271nzx11xl4r4_m7sqjlt0m0000gn/T//ccRJPVyb.s 			page 7


 123:Drivers/CMSIS/DSP/Include/arm_math.h ****    * - ARM_MATH_CMx:
 124:Drivers/CMSIS/DSP/Include/arm_math.h ****    *
 125:Drivers/CMSIS/DSP/Include/arm_math.h ****    * Define macro ARM_MATH_CM4 for building the library on Cortex-M4 target, ARM_MATH_CM3 for build
 126:Drivers/CMSIS/DSP/Include/arm_math.h ****    * and ARM_MATH_CM0 for building library on Cortex-M0 target, ARM_MATH_CM0PLUS for building libra
 127:Drivers/CMSIS/DSP/Include/arm_math.h ****    * ARM_MATH_CM7 for building the library on cortex-M7.
 128:Drivers/CMSIS/DSP/Include/arm_math.h ****    *
 129:Drivers/CMSIS/DSP/Include/arm_math.h ****    * - ARM_MATH_ARMV8MxL:
 130:Drivers/CMSIS/DSP/Include/arm_math.h ****    *
 131:Drivers/CMSIS/DSP/Include/arm_math.h ****    * Define macro ARM_MATH_ARMV8MBL for building the library on Armv8-M Baseline target, ARM_MATH_A
 132:Drivers/CMSIS/DSP/Include/arm_math.h ****    * on Armv8-M Mainline target.
 133:Drivers/CMSIS/DSP/Include/arm_math.h ****    *
 134:Drivers/CMSIS/DSP/Include/arm_math.h ****    * - __FPU_PRESENT:
 135:Drivers/CMSIS/DSP/Include/arm_math.h ****    *
 136:Drivers/CMSIS/DSP/Include/arm_math.h ****    * Initialize macro __FPU_PRESENT = 1 when building on FPU supported Targets. Enable this macro f
 137:Drivers/CMSIS/DSP/Include/arm_math.h ****    *
 138:Drivers/CMSIS/DSP/Include/arm_math.h ****    * - __DSP_PRESENT:
 139:Drivers/CMSIS/DSP/Include/arm_math.h ****    *
 140:Drivers/CMSIS/DSP/Include/arm_math.h ****    * Initialize macro __DSP_PRESENT = 1 when Armv8-M Mainline core supports DSP instructions.
 141:Drivers/CMSIS/DSP/Include/arm_math.h ****    *
 142:Drivers/CMSIS/DSP/Include/arm_math.h ****    * <hr>
 143:Drivers/CMSIS/DSP/Include/arm_math.h ****    * CMSIS-DSP in ARM::CMSIS Pack
 144:Drivers/CMSIS/DSP/Include/arm_math.h ****    * -----------------------------
 145:Drivers/CMSIS/DSP/Include/arm_math.h ****    *
 146:Drivers/CMSIS/DSP/Include/arm_math.h ****    * The following files relevant to CMSIS-DSP are present in the <b>ARM::CMSIS</b> Pack directorie
 147:Drivers/CMSIS/DSP/Include/arm_math.h ****    * |File/Folder                   |Content                                                       
 148:Drivers/CMSIS/DSP/Include/arm_math.h ****    * |------------------------------|--------------------------------------------------------------
 149:Drivers/CMSIS/DSP/Include/arm_math.h ****    * |\b CMSIS\\Documentation\\DSP  | This documentation                                           
 150:Drivers/CMSIS/DSP/Include/arm_math.h ****    * |\b CMSIS\\DSP_Lib             | Software license agreement (license.txt)                     
 151:Drivers/CMSIS/DSP/Include/arm_math.h ****    * |\b CMSIS\\DSP_Lib\\Examples   | Example projects demonstrating the usage of the library funct
 152:Drivers/CMSIS/DSP/Include/arm_math.h ****    * |\b CMSIS\\DSP_Lib\\Source     | Source files for rebuilding the library                      
 153:Drivers/CMSIS/DSP/Include/arm_math.h ****    *
 154:Drivers/CMSIS/DSP/Include/arm_math.h ****    * <hr>
 155:Drivers/CMSIS/DSP/Include/arm_math.h ****    * Revision History of CMSIS-DSP
 156:Drivers/CMSIS/DSP/Include/arm_math.h ****    * ------------
 157:Drivers/CMSIS/DSP/Include/arm_math.h ****    * Please refer to \ref ChangeLog_pg.
 158:Drivers/CMSIS/DSP/Include/arm_math.h ****    *
 159:Drivers/CMSIS/DSP/Include/arm_math.h ****    * Copyright Notice
 160:Drivers/CMSIS/DSP/Include/arm_math.h ****    * ------------
 161:Drivers/CMSIS/DSP/Include/arm_math.h ****    *
 162:Drivers/CMSIS/DSP/Include/arm_math.h ****    * Copyright (C) 2010-2015 Arm Limited. All rights reserved.
 163:Drivers/CMSIS/DSP/Include/arm_math.h ****    */
 164:Drivers/CMSIS/DSP/Include/arm_math.h **** 
 165:Drivers/CMSIS/DSP/Include/arm_math.h **** /**
 166:Drivers/CMSIS/DSP/Include/arm_math.h ****  * @defgroup groupMath Basic Math Functions
 167:Drivers/CMSIS/DSP/Include/arm_math.h ****  */
 168:Drivers/CMSIS/DSP/Include/arm_math.h **** 
 169:Drivers/CMSIS/DSP/Include/arm_math.h **** /**
 170:Drivers/CMSIS/DSP/Include/arm_math.h ****  * @defgroup groupFastMath Fast Math Functions
 171:Drivers/CMSIS/DSP/Include/arm_math.h ****  * This set of functions provides a fast approximation to sine, cosine, and square root.
 172:Drivers/CMSIS/DSP/Include/arm_math.h ****  * As compared to most of the other functions in the CMSIS math library, the fast math functions
 173:Drivers/CMSIS/DSP/Include/arm_math.h ****  * operate on individual values and not arrays.
 174:Drivers/CMSIS/DSP/Include/arm_math.h ****  * There are separate functions for Q15, Q31, and floating-point data.
 175:Drivers/CMSIS/DSP/Include/arm_math.h ****  *
 176:Drivers/CMSIS/DSP/Include/arm_math.h ****  */
 177:Drivers/CMSIS/DSP/Include/arm_math.h **** 
 178:Drivers/CMSIS/DSP/Include/arm_math.h **** /**
 179:Drivers/CMSIS/DSP/Include/arm_math.h ****  * @defgroup groupCmplxMath Complex Math Functions
ARM GAS  /var/folders/n6/c271nzx11xl4r4_m7sqjlt0m0000gn/T//ccRJPVyb.s 			page 8


 180:Drivers/CMSIS/DSP/Include/arm_math.h ****  * This set of functions operates on complex data vectors.
 181:Drivers/CMSIS/DSP/Include/arm_math.h ****  * The data in the complex arrays is stored in an interleaved fashion
 182:Drivers/CMSIS/DSP/Include/arm_math.h ****  * (real, imag, real, imag, ...).
 183:Drivers/CMSIS/DSP/Include/arm_math.h ****  * In the API functions, the number of samples in a complex array refers
 184:Drivers/CMSIS/DSP/Include/arm_math.h ****  * to the number of complex values; the array contains twice this number of
 185:Drivers/CMSIS/DSP/Include/arm_math.h ****  * real values.
 186:Drivers/CMSIS/DSP/Include/arm_math.h ****  */
 187:Drivers/CMSIS/DSP/Include/arm_math.h **** 
 188:Drivers/CMSIS/DSP/Include/arm_math.h **** /**
 189:Drivers/CMSIS/DSP/Include/arm_math.h ****  * @defgroup groupFilters Filtering Functions
 190:Drivers/CMSIS/DSP/Include/arm_math.h ****  */
 191:Drivers/CMSIS/DSP/Include/arm_math.h **** 
 192:Drivers/CMSIS/DSP/Include/arm_math.h **** /**
 193:Drivers/CMSIS/DSP/Include/arm_math.h ****  * @defgroup groupMatrix Matrix Functions
 194:Drivers/CMSIS/DSP/Include/arm_math.h ****  *
 195:Drivers/CMSIS/DSP/Include/arm_math.h ****  * This set of functions provides basic matrix math operations.
 196:Drivers/CMSIS/DSP/Include/arm_math.h ****  * The functions operate on matrix data structures.  For example,
 197:Drivers/CMSIS/DSP/Include/arm_math.h ****  * the type
 198:Drivers/CMSIS/DSP/Include/arm_math.h ****  * definition for the floating-point matrix structure is shown
 199:Drivers/CMSIS/DSP/Include/arm_math.h ****  * below:
 200:Drivers/CMSIS/DSP/Include/arm_math.h ****  * <pre>
 201:Drivers/CMSIS/DSP/Include/arm_math.h ****  *     typedef struct
 202:Drivers/CMSIS/DSP/Include/arm_math.h ****  *     {
 203:Drivers/CMSIS/DSP/Include/arm_math.h ****  *       uint16_t numRows;     // number of rows of the matrix.
 204:Drivers/CMSIS/DSP/Include/arm_math.h ****  *       uint16_t numCols;     // number of columns of the matrix.
 205:Drivers/CMSIS/DSP/Include/arm_math.h ****  *       float32_t *pData;     // points to the data of the matrix.
 206:Drivers/CMSIS/DSP/Include/arm_math.h ****  *     } arm_matrix_instance_f32;
 207:Drivers/CMSIS/DSP/Include/arm_math.h ****  * </pre>
 208:Drivers/CMSIS/DSP/Include/arm_math.h ****  * There are similar definitions for Q15 and Q31 data types.
 209:Drivers/CMSIS/DSP/Include/arm_math.h ****  *
 210:Drivers/CMSIS/DSP/Include/arm_math.h ****  * The structure specifies the size of the matrix and then points to
 211:Drivers/CMSIS/DSP/Include/arm_math.h ****  * an array of data.  The array is of size <code>numRows X numCols</code>
 212:Drivers/CMSIS/DSP/Include/arm_math.h ****  * and the values are arranged in row order.  That is, the
 213:Drivers/CMSIS/DSP/Include/arm_math.h ****  * matrix element (i, j) is stored at:
 214:Drivers/CMSIS/DSP/Include/arm_math.h ****  * <pre>
 215:Drivers/CMSIS/DSP/Include/arm_math.h ****  *     pData[i*numCols + j]
 216:Drivers/CMSIS/DSP/Include/arm_math.h ****  * </pre>
 217:Drivers/CMSIS/DSP/Include/arm_math.h ****  *
 218:Drivers/CMSIS/DSP/Include/arm_math.h ****  * \par Init Functions
 219:Drivers/CMSIS/DSP/Include/arm_math.h ****  * There is an associated initialization function for each type of matrix
 220:Drivers/CMSIS/DSP/Include/arm_math.h ****  * data structure.
 221:Drivers/CMSIS/DSP/Include/arm_math.h ****  * The initialization function sets the values of the internal structure fields.
 222:Drivers/CMSIS/DSP/Include/arm_math.h ****  * Refer to the function <code>arm_mat_init_f32()</code>, <code>arm_mat_init_q31()</code>
 223:Drivers/CMSIS/DSP/Include/arm_math.h ****  * and <code>arm_mat_init_q15()</code> for floating-point, Q31 and Q15 types,  respectively.
 224:Drivers/CMSIS/DSP/Include/arm_math.h ****  *
 225:Drivers/CMSIS/DSP/Include/arm_math.h ****  * \par
 226:Drivers/CMSIS/DSP/Include/arm_math.h ****  * Use of the initialization function is optional. However, if initialization function is used
 227:Drivers/CMSIS/DSP/Include/arm_math.h ****  * then the instance structure cannot be placed into a const data section.
 228:Drivers/CMSIS/DSP/Include/arm_math.h ****  * To place the instance structure in a const data
 229:Drivers/CMSIS/DSP/Include/arm_math.h ****  * section, manually initialize the data structure.  For example:
 230:Drivers/CMSIS/DSP/Include/arm_math.h ****  * <pre>
 231:Drivers/CMSIS/DSP/Include/arm_math.h ****  * <code>arm_matrix_instance_f32 S = {nRows, nColumns, pData};</code>
 232:Drivers/CMSIS/DSP/Include/arm_math.h ****  * <code>arm_matrix_instance_q31 S = {nRows, nColumns, pData};</code>
 233:Drivers/CMSIS/DSP/Include/arm_math.h ****  * <code>arm_matrix_instance_q15 S = {nRows, nColumns, pData};</code>
 234:Drivers/CMSIS/DSP/Include/arm_math.h ****  * </pre>
 235:Drivers/CMSIS/DSP/Include/arm_math.h ****  * where <code>nRows</code> specifies the number of rows, <code>nColumns</code>
 236:Drivers/CMSIS/DSP/Include/arm_math.h ****  * specifies the number of columns, and <code>pData</code> points to the
ARM GAS  /var/folders/n6/c271nzx11xl4r4_m7sqjlt0m0000gn/T//ccRJPVyb.s 			page 9


 237:Drivers/CMSIS/DSP/Include/arm_math.h ****  * data array.
 238:Drivers/CMSIS/DSP/Include/arm_math.h ****  *
 239:Drivers/CMSIS/DSP/Include/arm_math.h ****  * \par Size Checking
 240:Drivers/CMSIS/DSP/Include/arm_math.h ****  * By default all of the matrix functions perform size checking on the input and
 241:Drivers/CMSIS/DSP/Include/arm_math.h ****  * output matrices. For example, the matrix addition function verifies that the
 242:Drivers/CMSIS/DSP/Include/arm_math.h ****  * two input matrices and the output matrix all have the same number of rows and
 243:Drivers/CMSIS/DSP/Include/arm_math.h ****  * columns. If the size check fails the functions return:
 244:Drivers/CMSIS/DSP/Include/arm_math.h ****  * <pre>
 245:Drivers/CMSIS/DSP/Include/arm_math.h ****  *     ARM_MATH_SIZE_MISMATCH
 246:Drivers/CMSIS/DSP/Include/arm_math.h ****  * </pre>
 247:Drivers/CMSIS/DSP/Include/arm_math.h ****  * Otherwise the functions return
 248:Drivers/CMSIS/DSP/Include/arm_math.h ****  * <pre>
 249:Drivers/CMSIS/DSP/Include/arm_math.h ****  *     ARM_MATH_SUCCESS
 250:Drivers/CMSIS/DSP/Include/arm_math.h ****  * </pre>
 251:Drivers/CMSIS/DSP/Include/arm_math.h ****  * There is some overhead associated with this matrix size checking.
 252:Drivers/CMSIS/DSP/Include/arm_math.h ****  * The matrix size checking is enabled via the \#define
 253:Drivers/CMSIS/DSP/Include/arm_math.h ****  * <pre>
 254:Drivers/CMSIS/DSP/Include/arm_math.h ****  *     ARM_MATH_MATRIX_CHECK
 255:Drivers/CMSIS/DSP/Include/arm_math.h ****  * </pre>
 256:Drivers/CMSIS/DSP/Include/arm_math.h ****  * within the library project settings.  By default this macro is defined
 257:Drivers/CMSIS/DSP/Include/arm_math.h ****  * and size checking is enabled. By changing the project settings and
 258:Drivers/CMSIS/DSP/Include/arm_math.h ****  * undefining this macro size checking is eliminated and the functions
 259:Drivers/CMSIS/DSP/Include/arm_math.h ****  * run a bit faster. With size checking disabled the functions always
 260:Drivers/CMSIS/DSP/Include/arm_math.h ****  * return <code>ARM_MATH_SUCCESS</code>.
 261:Drivers/CMSIS/DSP/Include/arm_math.h ****  */
 262:Drivers/CMSIS/DSP/Include/arm_math.h **** 
 263:Drivers/CMSIS/DSP/Include/arm_math.h **** /**
 264:Drivers/CMSIS/DSP/Include/arm_math.h ****  * @defgroup groupTransforms Transform Functions
 265:Drivers/CMSIS/DSP/Include/arm_math.h ****  */
 266:Drivers/CMSIS/DSP/Include/arm_math.h **** 
 267:Drivers/CMSIS/DSP/Include/arm_math.h **** /**
 268:Drivers/CMSIS/DSP/Include/arm_math.h ****  * @defgroup groupController Controller Functions
 269:Drivers/CMSIS/DSP/Include/arm_math.h ****  */
 270:Drivers/CMSIS/DSP/Include/arm_math.h **** 
 271:Drivers/CMSIS/DSP/Include/arm_math.h **** /**
 272:Drivers/CMSIS/DSP/Include/arm_math.h ****  * @defgroup groupStats Statistics Functions
 273:Drivers/CMSIS/DSP/Include/arm_math.h ****  */
 274:Drivers/CMSIS/DSP/Include/arm_math.h **** /**
 275:Drivers/CMSIS/DSP/Include/arm_math.h ****  * @defgroup groupSupport Support Functions
 276:Drivers/CMSIS/DSP/Include/arm_math.h ****  */
 277:Drivers/CMSIS/DSP/Include/arm_math.h **** 
 278:Drivers/CMSIS/DSP/Include/arm_math.h **** /**
 279:Drivers/CMSIS/DSP/Include/arm_math.h ****  * @defgroup groupInterpolation Interpolation Functions
 280:Drivers/CMSIS/DSP/Include/arm_math.h ****  * These functions perform 1- and 2-dimensional interpolation of data.
 281:Drivers/CMSIS/DSP/Include/arm_math.h ****  * Linear interpolation is used for 1-dimensional data and
 282:Drivers/CMSIS/DSP/Include/arm_math.h ****  * bilinear interpolation is used for 2-dimensional data.
 283:Drivers/CMSIS/DSP/Include/arm_math.h ****  */
 284:Drivers/CMSIS/DSP/Include/arm_math.h **** 
 285:Drivers/CMSIS/DSP/Include/arm_math.h **** /**
 286:Drivers/CMSIS/DSP/Include/arm_math.h ****  * @defgroup groupExamples Examples
 287:Drivers/CMSIS/DSP/Include/arm_math.h ****  */
 288:Drivers/CMSIS/DSP/Include/arm_math.h **** #ifndef _ARM_MATH_H
 289:Drivers/CMSIS/DSP/Include/arm_math.h **** #define _ARM_MATH_H
 290:Drivers/CMSIS/DSP/Include/arm_math.h **** 
 291:Drivers/CMSIS/DSP/Include/arm_math.h **** /* Compiler specific diagnostic adjustment */
 292:Drivers/CMSIS/DSP/Include/arm_math.h **** #if defined(__CC_ARM)
 293:Drivers/CMSIS/DSP/Include/arm_math.h **** 
ARM GAS  /var/folders/n6/c271nzx11xl4r4_m7sqjlt0m0000gn/T//ccRJPVyb.s 			page 10


 294:Drivers/CMSIS/DSP/Include/arm_math.h **** #elif defined(__ARMCC_VERSION) && (__ARMCC_VERSION >= 6010050)
 295:Drivers/CMSIS/DSP/Include/arm_math.h **** 
 296:Drivers/CMSIS/DSP/Include/arm_math.h **** #elif defined(__GNUC__)
 297:Drivers/CMSIS/DSP/Include/arm_math.h **** #pragma GCC diagnostic push
 298:Drivers/CMSIS/DSP/Include/arm_math.h **** #pragma GCC diagnostic ignored "-Wsign-conversion"
 299:Drivers/CMSIS/DSP/Include/arm_math.h **** #pragma GCC diagnostic ignored "-Wconversion"
 300:Drivers/CMSIS/DSP/Include/arm_math.h **** #pragma GCC diagnostic ignored "-Wunused-parameter"
 301:Drivers/CMSIS/DSP/Include/arm_math.h **** 
 302:Drivers/CMSIS/DSP/Include/arm_math.h **** #elif defined(__ICCARM__)
 303:Drivers/CMSIS/DSP/Include/arm_math.h **** 
 304:Drivers/CMSIS/DSP/Include/arm_math.h **** #elif defined(__TI_ARM__)
 305:Drivers/CMSIS/DSP/Include/arm_math.h **** 
 306:Drivers/CMSIS/DSP/Include/arm_math.h **** #elif defined(__CSMC__)
 307:Drivers/CMSIS/DSP/Include/arm_math.h **** 
 308:Drivers/CMSIS/DSP/Include/arm_math.h **** #elif defined(__TASKING__)
 309:Drivers/CMSIS/DSP/Include/arm_math.h **** 
 310:Drivers/CMSIS/DSP/Include/arm_math.h **** #else
 311:Drivers/CMSIS/DSP/Include/arm_math.h **** #error Unknown compiler
 312:Drivers/CMSIS/DSP/Include/arm_math.h **** #endif
 313:Drivers/CMSIS/DSP/Include/arm_math.h **** #define ARM_MATH_CM7
 314:Drivers/CMSIS/DSP/Include/arm_math.h **** 
 315:Drivers/CMSIS/DSP/Include/arm_math.h **** #define __CMSIS_GENERIC /* disable NVIC and Systick functions */
 316:Drivers/CMSIS/DSP/Include/arm_math.h **** 
 317:Drivers/CMSIS/DSP/Include/arm_math.h **** #if defined(ARM_MATH_CM7)
 318:Drivers/CMSIS/DSP/Include/arm_math.h **** #include "core_cm7.h"
 319:Drivers/CMSIS/DSP/Include/arm_math.h **** #define ARM_MATH_DSP
 320:Drivers/CMSIS/DSP/Include/arm_math.h **** #elif defined(ARM_MATH_CM4)
 321:Drivers/CMSIS/DSP/Include/arm_math.h **** #include "core_cm4.h"
 322:Drivers/CMSIS/DSP/Include/arm_math.h **** #define ARM_MATH_DSP
 323:Drivers/CMSIS/DSP/Include/arm_math.h **** #elif defined(ARM_MATH_CM3)
 324:Drivers/CMSIS/DSP/Include/arm_math.h **** #include "core_cm3.h"
 325:Drivers/CMSIS/DSP/Include/arm_math.h **** #elif defined(ARM_MATH_CM0)
 326:Drivers/CMSIS/DSP/Include/arm_math.h **** #include "core_cm0.h"
 327:Drivers/CMSIS/DSP/Include/arm_math.h **** #define ARM_MATH_CM0_FAMILY
 328:Drivers/CMSIS/DSP/Include/arm_math.h **** #elif defined(ARM_MATH_CM0PLUS)
 329:Drivers/CMSIS/DSP/Include/arm_math.h **** #include "core_cm0plus.h"
 330:Drivers/CMSIS/DSP/Include/arm_math.h **** #define ARM_MATH_CM0_FAMILY
 331:Drivers/CMSIS/DSP/Include/arm_math.h **** #elif defined(ARM_MATH_ARMV8MBL)
 332:Drivers/CMSIS/DSP/Include/arm_math.h **** #include "core_armv8mbl.h"
 333:Drivers/CMSIS/DSP/Include/arm_math.h **** #define ARM_MATH_CM0_FAMILY
 334:Drivers/CMSIS/DSP/Include/arm_math.h **** #elif defined(ARM_MATH_ARMV8MML)
 335:Drivers/CMSIS/DSP/Include/arm_math.h **** #include "core_armv8mml.h"
 336:Drivers/CMSIS/DSP/Include/arm_math.h **** #if (defined(__DSP_PRESENT) && (__DSP_PRESENT == 1))
 337:Drivers/CMSIS/DSP/Include/arm_math.h **** #define ARM_MATH_DSP
 338:Drivers/CMSIS/DSP/Include/arm_math.h **** #endif
 339:Drivers/CMSIS/DSP/Include/arm_math.h **** #else
 340:Drivers/CMSIS/DSP/Include/arm_math.h **** #error "Define according the used Cortex core ARM_MATH_CM7, ARM_MATH_CM4, ARM_MATH_CM3, ARM_MATH_CM
 341:Drivers/CMSIS/DSP/Include/arm_math.h **** #endif
 342:Drivers/CMSIS/DSP/Include/arm_math.h **** 
 343:Drivers/CMSIS/DSP/Include/arm_math.h **** #undef __CMSIS_GENERIC /* enable NVIC and Systick functions */
 344:Drivers/CMSIS/DSP/Include/arm_math.h **** #include "string.h"
 345:Drivers/CMSIS/DSP/Include/arm_math.h **** #include "math.h"
 346:Drivers/CMSIS/DSP/Include/arm_math.h **** #ifdef __cplusplus
 347:Drivers/CMSIS/DSP/Include/arm_math.h **** extern "C"
 348:Drivers/CMSIS/DSP/Include/arm_math.h **** {
 349:Drivers/CMSIS/DSP/Include/arm_math.h **** #endif
 350:Drivers/CMSIS/DSP/Include/arm_math.h **** 
ARM GAS  /var/folders/n6/c271nzx11xl4r4_m7sqjlt0m0000gn/T//ccRJPVyb.s 			page 11


 351:Drivers/CMSIS/DSP/Include/arm_math.h ****   /**
 352:Drivers/CMSIS/DSP/Include/arm_math.h ****    * @brief Macros required for reciprocal calculation in Normalized LMS
 353:Drivers/CMSIS/DSP/Include/arm_math.h ****    */
 354:Drivers/CMSIS/DSP/Include/arm_math.h **** 
 355:Drivers/CMSIS/DSP/Include/arm_math.h **** #define DELTA_Q31 (0x100)
 356:Drivers/CMSIS/DSP/Include/arm_math.h **** #define DELTA_Q15 0x5
 357:Drivers/CMSIS/DSP/Include/arm_math.h **** #define INDEX_MASK 0x0000003F
 358:Drivers/CMSIS/DSP/Include/arm_math.h **** #ifndef PI
 359:Drivers/CMSIS/DSP/Include/arm_math.h **** #define PI 3.14159265358979f
 360:Drivers/CMSIS/DSP/Include/arm_math.h **** #endif
 361:Drivers/CMSIS/DSP/Include/arm_math.h **** 
 362:Drivers/CMSIS/DSP/Include/arm_math.h ****   /**
 363:Drivers/CMSIS/DSP/Include/arm_math.h ****    * @brief Macros required for SINE and COSINE Fast math approximations
 364:Drivers/CMSIS/DSP/Include/arm_math.h ****    */
 365:Drivers/CMSIS/DSP/Include/arm_math.h **** 
 366:Drivers/CMSIS/DSP/Include/arm_math.h **** #define FAST_MATH_TABLE_SIZE 512
 367:Drivers/CMSIS/DSP/Include/arm_math.h **** #define FAST_MATH_Q31_SHIFT (32 - 10)
 368:Drivers/CMSIS/DSP/Include/arm_math.h **** #define FAST_MATH_Q15_SHIFT (16 - 10)
 369:Drivers/CMSIS/DSP/Include/arm_math.h **** #define CONTROLLER_Q31_SHIFT (32 - 9)
 370:Drivers/CMSIS/DSP/Include/arm_math.h **** #define TABLE_SPACING_Q31 0x400000
 371:Drivers/CMSIS/DSP/Include/arm_math.h **** #define TABLE_SPACING_Q15 0x80
 372:Drivers/CMSIS/DSP/Include/arm_math.h **** 
 373:Drivers/CMSIS/DSP/Include/arm_math.h ****   /**
 374:Drivers/CMSIS/DSP/Include/arm_math.h ****    * @brief Macros required for SINE and COSINE Controller functions
 375:Drivers/CMSIS/DSP/Include/arm_math.h ****    */
 376:Drivers/CMSIS/DSP/Include/arm_math.h ****   /* 1.31(q31) Fixed value of 2/360 */
 377:Drivers/CMSIS/DSP/Include/arm_math.h ****   /* -1 to +1 is divided into 360 values so total spacing is (2/360) */
 378:Drivers/CMSIS/DSP/Include/arm_math.h **** #define INPUT_SPACING 0xB60B61
 379:Drivers/CMSIS/DSP/Include/arm_math.h **** 
 380:Drivers/CMSIS/DSP/Include/arm_math.h ****   /**
 381:Drivers/CMSIS/DSP/Include/arm_math.h ****    * @brief Macro for Unaligned Support
 382:Drivers/CMSIS/DSP/Include/arm_math.h ****    */
 383:Drivers/CMSIS/DSP/Include/arm_math.h **** #ifndef UNALIGNED_SUPPORT_DISABLE
 384:Drivers/CMSIS/DSP/Include/arm_math.h **** #define ALIGN4
 385:Drivers/CMSIS/DSP/Include/arm_math.h **** #else
 386:Drivers/CMSIS/DSP/Include/arm_math.h **** #if defined(__GNUC__)
 387:Drivers/CMSIS/DSP/Include/arm_math.h **** #define ALIGN4 __attribute__((aligned(4)))
 388:Drivers/CMSIS/DSP/Include/arm_math.h **** #else
 389:Drivers/CMSIS/DSP/Include/arm_math.h **** #define ALIGN4 __align(4)
 390:Drivers/CMSIS/DSP/Include/arm_math.h **** #endif
 391:Drivers/CMSIS/DSP/Include/arm_math.h **** #endif /* #ifndef UNALIGNED_SUPPORT_DISABLE */
 392:Drivers/CMSIS/DSP/Include/arm_math.h **** 
 393:Drivers/CMSIS/DSP/Include/arm_math.h ****   /**
 394:Drivers/CMSIS/DSP/Include/arm_math.h ****    * @brief Error status returned by some functions in the library.
 395:Drivers/CMSIS/DSP/Include/arm_math.h ****    */
 396:Drivers/CMSIS/DSP/Include/arm_math.h **** 
 397:Drivers/CMSIS/DSP/Include/arm_math.h ****   typedef enum
 398:Drivers/CMSIS/DSP/Include/arm_math.h ****   {
 399:Drivers/CMSIS/DSP/Include/arm_math.h ****     ARM_MATH_SUCCESS = 0,         /**< No error */
 400:Drivers/CMSIS/DSP/Include/arm_math.h ****     ARM_MATH_ARGUMENT_ERROR = -1, /**< One or more arguments are incorrect */
 401:Drivers/CMSIS/DSP/Include/arm_math.h ****     ARM_MATH_LENGTH_ERROR = -2,   /**< Length of data buffer is incorrect */
 402:Drivers/CMSIS/DSP/Include/arm_math.h ****     ARM_MATH_SIZE_MISMATCH = -3,  /**< Size of matrices is not compatible with the operation. */
 403:Drivers/CMSIS/DSP/Include/arm_math.h ****     ARM_MATH_NANINF = -4,         /**< Not-a-number (NaN) or infinity is generated */
 404:Drivers/CMSIS/DSP/Include/arm_math.h ****     ARM_MATH_SINGULAR = -5,       /**< Generated by matrix inversion if the input matrix is singula
 405:Drivers/CMSIS/DSP/Include/arm_math.h ****     ARM_MATH_TEST_FAILURE = -6    /**< Test Failed  */
 406:Drivers/CMSIS/DSP/Include/arm_math.h ****   } arm_status;
 407:Drivers/CMSIS/DSP/Include/arm_math.h **** 
ARM GAS  /var/folders/n6/c271nzx11xl4r4_m7sqjlt0m0000gn/T//ccRJPVyb.s 			page 12


 408:Drivers/CMSIS/DSP/Include/arm_math.h ****   /**
 409:Drivers/CMSIS/DSP/Include/arm_math.h ****    * @brief 8-bit fractional data type in 1.7 format.
 410:Drivers/CMSIS/DSP/Include/arm_math.h ****    */
 411:Drivers/CMSIS/DSP/Include/arm_math.h ****   typedef int8_t q7_t;
 412:Drivers/CMSIS/DSP/Include/arm_math.h **** 
 413:Drivers/CMSIS/DSP/Include/arm_math.h ****   /**
 414:Drivers/CMSIS/DSP/Include/arm_math.h ****    * @brief 16-bit fractional data type in 1.15 format.
 415:Drivers/CMSIS/DSP/Include/arm_math.h ****    */
 416:Drivers/CMSIS/DSP/Include/arm_math.h ****   typedef int16_t q15_t;
 417:Drivers/CMSIS/DSP/Include/arm_math.h **** 
 418:Drivers/CMSIS/DSP/Include/arm_math.h ****   /**
 419:Drivers/CMSIS/DSP/Include/arm_math.h ****    * @brief 32-bit fractional data type in 1.31 format.
 420:Drivers/CMSIS/DSP/Include/arm_math.h ****    */
 421:Drivers/CMSIS/DSP/Include/arm_math.h ****   typedef int32_t q31_t;
 422:Drivers/CMSIS/DSP/Include/arm_math.h **** 
 423:Drivers/CMSIS/DSP/Include/arm_math.h ****   /**
 424:Drivers/CMSIS/DSP/Include/arm_math.h ****    * @brief 64-bit fractional data type in 1.63 format.
 425:Drivers/CMSIS/DSP/Include/arm_math.h ****    */
 426:Drivers/CMSIS/DSP/Include/arm_math.h ****   typedef int64_t q63_t;
 427:Drivers/CMSIS/DSP/Include/arm_math.h **** 
 428:Drivers/CMSIS/DSP/Include/arm_math.h ****   /**
 429:Drivers/CMSIS/DSP/Include/arm_math.h ****    * @brief 32-bit floating-point type definition.
 430:Drivers/CMSIS/DSP/Include/arm_math.h ****    */
 431:Drivers/CMSIS/DSP/Include/arm_math.h ****   typedef float float32_t;
 432:Drivers/CMSIS/DSP/Include/arm_math.h **** 
 433:Drivers/CMSIS/DSP/Include/arm_math.h ****   /**
 434:Drivers/CMSIS/DSP/Include/arm_math.h ****    * @brief 64-bit floating-point type definition.
 435:Drivers/CMSIS/DSP/Include/arm_math.h ****    */
 436:Drivers/CMSIS/DSP/Include/arm_math.h ****   typedef double float64_t;
 437:Drivers/CMSIS/DSP/Include/arm_math.h **** 
 438:Drivers/CMSIS/DSP/Include/arm_math.h ****   /**
 439:Drivers/CMSIS/DSP/Include/arm_math.h ****    * @brief definition to read/write two 16 bit values.
 440:Drivers/CMSIS/DSP/Include/arm_math.h ****    */
 441:Drivers/CMSIS/DSP/Include/arm_math.h **** #if defined(__CC_ARM)
 442:Drivers/CMSIS/DSP/Include/arm_math.h **** #define __SIMD32_TYPE int32_t __packed
 443:Drivers/CMSIS/DSP/Include/arm_math.h **** #define CMSIS_UNUSED __attribute__((unused))
 444:Drivers/CMSIS/DSP/Include/arm_math.h **** #define CMSIS_INLINE __attribute__((always_inline))
 445:Drivers/CMSIS/DSP/Include/arm_math.h **** 
 446:Drivers/CMSIS/DSP/Include/arm_math.h **** #elif defined(__ARMCC_VERSION) && (__ARMCC_VERSION >= 6010050)
 447:Drivers/CMSIS/DSP/Include/arm_math.h **** #define __SIMD32_TYPE int32_t
 448:Drivers/CMSIS/DSP/Include/arm_math.h **** #define CMSIS_UNUSED __attribute__((unused))
 449:Drivers/CMSIS/DSP/Include/arm_math.h **** #define CMSIS_INLINE __attribute__((always_inline))
 450:Drivers/CMSIS/DSP/Include/arm_math.h **** 
 451:Drivers/CMSIS/DSP/Include/arm_math.h **** #elif defined(__GNUC__)
 452:Drivers/CMSIS/DSP/Include/arm_math.h **** #define __SIMD32_TYPE int32_t
 453:Drivers/CMSIS/DSP/Include/arm_math.h **** #define CMSIS_UNUSED __attribute__((unused))
 454:Drivers/CMSIS/DSP/Include/arm_math.h **** #define CMSIS_INLINE __attribute__((always_inline))
 455:Drivers/CMSIS/DSP/Include/arm_math.h **** 
 456:Drivers/CMSIS/DSP/Include/arm_math.h **** #elif defined(__ICCARM__)
 457:Drivers/CMSIS/DSP/Include/arm_math.h **** #define __SIMD32_TYPE int32_t __packed
 458:Drivers/CMSIS/DSP/Include/arm_math.h **** #define CMSIS_UNUSED
 459:Drivers/CMSIS/DSP/Include/arm_math.h **** #define CMSIS_INLINE
 460:Drivers/CMSIS/DSP/Include/arm_math.h **** 
 461:Drivers/CMSIS/DSP/Include/arm_math.h **** #elif defined(__TI_ARM__)
 462:Drivers/CMSIS/DSP/Include/arm_math.h **** #define __SIMD32_TYPE int32_t
 463:Drivers/CMSIS/DSP/Include/arm_math.h **** #define CMSIS_UNUSED __attribute__((unused))
 464:Drivers/CMSIS/DSP/Include/arm_math.h **** #define CMSIS_INLINE
ARM GAS  /var/folders/n6/c271nzx11xl4r4_m7sqjlt0m0000gn/T//ccRJPVyb.s 			page 13


 465:Drivers/CMSIS/DSP/Include/arm_math.h **** 
 466:Drivers/CMSIS/DSP/Include/arm_math.h **** #elif defined(__CSMC__)
 467:Drivers/CMSIS/DSP/Include/arm_math.h **** #define __SIMD32_TYPE int32_t
 468:Drivers/CMSIS/DSP/Include/arm_math.h **** #define CMSIS_UNUSED
 469:Drivers/CMSIS/DSP/Include/arm_math.h **** #define CMSIS_INLINE
 470:Drivers/CMSIS/DSP/Include/arm_math.h **** 
 471:Drivers/CMSIS/DSP/Include/arm_math.h **** #elif defined(__TASKING__)
 472:Drivers/CMSIS/DSP/Include/arm_math.h **** #define __SIMD32_TYPE __unaligned int32_t
 473:Drivers/CMSIS/DSP/Include/arm_math.h **** #define CMSIS_UNUSED
 474:Drivers/CMSIS/DSP/Include/arm_math.h **** #define CMSIS_INLINE
 475:Drivers/CMSIS/DSP/Include/arm_math.h **** 
 476:Drivers/CMSIS/DSP/Include/arm_math.h **** #else
 477:Drivers/CMSIS/DSP/Include/arm_math.h **** #error Unknown compiler
 478:Drivers/CMSIS/DSP/Include/arm_math.h **** #endif
 479:Drivers/CMSIS/DSP/Include/arm_math.h **** 
 480:Drivers/CMSIS/DSP/Include/arm_math.h **** #define __SIMD32(addr) (*(__SIMD32_TYPE **)&(addr))
 481:Drivers/CMSIS/DSP/Include/arm_math.h **** #define __SIMD32_CONST(addr) ((__SIMD32_TYPE *)(addr))
 482:Drivers/CMSIS/DSP/Include/arm_math.h **** #define _SIMD32_OFFSET(addr) (*(__SIMD32_TYPE *)(addr))
 483:Drivers/CMSIS/DSP/Include/arm_math.h **** #define __SIMD64(addr) (*(int64_t **)&(addr))
 484:Drivers/CMSIS/DSP/Include/arm_math.h **** 
 485:Drivers/CMSIS/DSP/Include/arm_math.h **** #if !defined(ARM_MATH_DSP)
 486:Drivers/CMSIS/DSP/Include/arm_math.h ****   /**
 487:Drivers/CMSIS/DSP/Include/arm_math.h ****    * @brief definition to pack two 16 bit values.
 488:Drivers/CMSIS/DSP/Include/arm_math.h ****    */
 489:Drivers/CMSIS/DSP/Include/arm_math.h **** #define __PKHBT(ARG1, ARG2, ARG3) ((((int32_t)(ARG1) << 0) & (int32_t)0x0000FFFF) | \
 490:Drivers/CMSIS/DSP/Include/arm_math.h ****                                    (((int32_t)(ARG2) << ARG3) & (int32_t)0xFFFF0000))
 491:Drivers/CMSIS/DSP/Include/arm_math.h **** #define __PKHTB(ARG1, ARG2, ARG3) ((((int32_t)(ARG1) << 0) & (int32_t)0xFFFF0000) | \
 492:Drivers/CMSIS/DSP/Include/arm_math.h ****                                    (((int32_t)(ARG2) >> ARG3) & (int32_t)0x0000FFFF))
 493:Drivers/CMSIS/DSP/Include/arm_math.h **** 
 494:Drivers/CMSIS/DSP/Include/arm_math.h **** #endif /* !defined (ARM_MATH_DSP) */
 495:Drivers/CMSIS/DSP/Include/arm_math.h **** 
 496:Drivers/CMSIS/DSP/Include/arm_math.h ****   /**
 497:Drivers/CMSIS/DSP/Include/arm_math.h ****    * @brief definition to pack four 8 bit values.
 498:Drivers/CMSIS/DSP/Include/arm_math.h ****    */
 499:Drivers/CMSIS/DSP/Include/arm_math.h **** #ifndef ARM_MATH_BIG_ENDIAN
 500:Drivers/CMSIS/DSP/Include/arm_math.h **** 
 501:Drivers/CMSIS/DSP/Include/arm_math.h **** #define __PACKq7(v0, v1, v2, v3) ((((int32_t)(v0) << 0) & (int32_t)0x000000FF) |  \
 502:Drivers/CMSIS/DSP/Include/arm_math.h ****                                   (((int32_t)(v1) << 8) & (int32_t)0x0000FF00) |  \
 503:Drivers/CMSIS/DSP/Include/arm_math.h ****                                   (((int32_t)(v2) << 16) & (int32_t)0x00FF0000) | \
 504:Drivers/CMSIS/DSP/Include/arm_math.h ****                                   (((int32_t)(v3) << 24) & (int32_t)0xFF000000))
 505:Drivers/CMSIS/DSP/Include/arm_math.h **** #else
 506:Drivers/CMSIS/DSP/Include/arm_math.h **** 
 507:Drivers/CMSIS/DSP/Include/arm_math.h **** #define __PACKq7(v0, v1, v2, v3) ((((int32_t)(v3) << 0) & (int32_t)0x000000FF) |  \
 508:Drivers/CMSIS/DSP/Include/arm_math.h ****                                   (((int32_t)(v2) << 8) & (int32_t)0x0000FF00) |  \
 509:Drivers/CMSIS/DSP/Include/arm_math.h ****                                   (((int32_t)(v1) << 16) & (int32_t)0x00FF0000) | \
 510:Drivers/CMSIS/DSP/Include/arm_math.h ****                                   (((int32_t)(v0) << 24) & (int32_t)0xFF000000))
 511:Drivers/CMSIS/DSP/Include/arm_math.h **** 
 512:Drivers/CMSIS/DSP/Include/arm_math.h **** #endif
 513:Drivers/CMSIS/DSP/Include/arm_math.h **** 
 514:Drivers/CMSIS/DSP/Include/arm_math.h ****   /**
 515:Drivers/CMSIS/DSP/Include/arm_math.h ****    * @brief Clips Q63 to Q31 values.
 516:Drivers/CMSIS/DSP/Include/arm_math.h ****    */
 517:Drivers/CMSIS/DSP/Include/arm_math.h ****   CMSIS_INLINE __STATIC_INLINE q31_t clip_q63_to_q31(
  86              		.loc 2 517 38 is_stmt 1 view .LVU17
  87              	.LBB13:
 518:Drivers/CMSIS/DSP/Include/arm_math.h ****       q63_t x)
 519:Drivers/CMSIS/DSP/Include/arm_math.h ****   {
ARM GAS  /var/folders/n6/c271nzx11xl4r4_m7sqjlt0m0000gn/T//ccRJPVyb.s 			page 14


 520:Drivers/CMSIS/DSP/Include/arm_math.h ****     return ((q31_t)(x >> 32) != ((q31_t)x >> 31)) ? ((0x7FFFFFFF ^ ((q31_t)(x >> 63)))) : (q31_t)x;
  88              		.loc 2 520 5 view .LVU18
  89              		.loc 2 520 34 is_stmt 0 view .LVU19
  90 002e 0346     		mov	r3, r0
  91              		.loc 2 520 89 view .LVU20
  92 0030 B1EBE07F 		cmp	r1, r0, asr #31
  93 0034 03D0     		beq	.L3
  94              		.loc 2 520 89 discriminator 1 view .LVU21
  95 0036 6FF00043 		mvn	r3, #-2147483648
  96 003a 83EAE173 		eor	r3, r3, r1, asr #31
  97              	.L3:
  98              	.LVL8:
  99              		.loc 2 520 89 discriminator 1 view .LVU22
 100              	.LBE13:
 101              	.LBE12:
 122:Drivers/CMSIS/DSP/Source/SupportFunctions/arm_float_to_q31.c ****     *pDst++ = clip_q63_to_q31((q63_t) (*pIn++ * 2147483648.0f));
 102              		.loc 1 122 13 discriminator 1 view .LVU23
 103 003e 2B60     		str	r3, [r5]
 123:Drivers/CMSIS/DSP/Source/SupportFunctions/arm_float_to_q31.c ****     *pDst++ = clip_q63_to_q31((q63_t) (*pIn++ * 2147483648.0f));
 104              		.loc 1 123 5 is_stmt 1 view .LVU24
 105              	.LVL9:
 123:Drivers/CMSIS/DSP/Source/SupportFunctions/arm_float_to_q31.c ****     *pDst++ = clip_q63_to_q31((q63_t) (*pIn++ * 2147483648.0f));
 106              		.loc 1 123 40 is_stmt 0 view .LVU25
 107 0040 94ED017A 		vldr.32	s14, [r4, #4]
 123:Drivers/CMSIS/DSP/Source/SupportFunctions/arm_float_to_q31.c ****     *pDst++ = clip_q63_to_q31((q63_t) (*pIn++ * 2147483648.0f));
 108              		.loc 1 123 15 view .LVU26
 109 0044 DFED2B7A 		vldr.32	s15, .L14
 110 0048 67EE277A 		vmul.f32	s15, s14, s15
 111 004c 17EE900A 		vmov	r0, s15
 112 0050 FFF7FEFF 		bl	__aeabi_f2lz
 113              	.LVL10:
 114              	.LBB14:
 115              	.LBI14:
 517:Drivers/CMSIS/DSP/Include/arm_math.h ****       q63_t x)
 116              		.loc 2 517 38 is_stmt 1 view .LVU27
 117              	.LBB15:
 118              		.loc 2 520 5 view .LVU28
 119              		.loc 2 520 34 is_stmt 0 view .LVU29
 120 0054 0346     		mov	r3, r0
 121              		.loc 2 520 89 view .LVU30
 122 0056 B1EBE07F 		cmp	r1, r0, asr #31
 123 005a 03D0     		beq	.L4
 124              		.loc 2 520 89 discriminator 1 view .LVU31
 125 005c 6FF00043 		mvn	r3, #-2147483648
 126 0060 83EAE173 		eor	r3, r3, r1, asr #31
 127              	.L4:
 128              	.LVL11:
 129              		.loc 2 520 89 discriminator 1 view .LVU32
 130              	.LBE15:
 131              	.LBE14:
 123:Drivers/CMSIS/DSP/Source/SupportFunctions/arm_float_to_q31.c ****     *pDst++ = clip_q63_to_q31((q63_t) (*pIn++ * 2147483648.0f));
 132              		.loc 1 123 13 discriminator 1 view .LVU33
 133 0064 6B60     		str	r3, [r5, #4]
 124:Drivers/CMSIS/DSP/Source/SupportFunctions/arm_float_to_q31.c ****     *pDst++ = clip_q63_to_q31((q63_t) (*pIn++ * 2147483648.0f));
 134              		.loc 1 124 5 is_stmt 1 view .LVU34
 135              	.LVL12:
 124:Drivers/CMSIS/DSP/Source/SupportFunctions/arm_float_to_q31.c ****     *pDst++ = clip_q63_to_q31((q63_t) (*pIn++ * 2147483648.0f));
ARM GAS  /var/folders/n6/c271nzx11xl4r4_m7sqjlt0m0000gn/T//ccRJPVyb.s 			page 15


 136              		.loc 1 124 40 is_stmt 0 view .LVU35
 137 0066 94ED027A 		vldr.32	s14, [r4, #8]
 124:Drivers/CMSIS/DSP/Source/SupportFunctions/arm_float_to_q31.c ****     *pDst++ = clip_q63_to_q31((q63_t) (*pIn++ * 2147483648.0f));
 138              		.loc 1 124 15 view .LVU36
 139 006a DFED227A 		vldr.32	s15, .L14
 140 006e 67EE277A 		vmul.f32	s15, s14, s15
 141 0072 17EE900A 		vmov	r0, s15
 142 0076 FFF7FEFF 		bl	__aeabi_f2lz
 143              	.LVL13:
 144              	.LBB16:
 145              	.LBI16:
 517:Drivers/CMSIS/DSP/Include/arm_math.h ****       q63_t x)
 146              		.loc 2 517 38 is_stmt 1 view .LVU37
 147              	.LBB17:
 148              		.loc 2 520 5 view .LVU38
 149              		.loc 2 520 34 is_stmt 0 view .LVU39
 150 007a 0346     		mov	r3, r0
 151              		.loc 2 520 89 view .LVU40
 152 007c B1EBE07F 		cmp	r1, r0, asr #31
 153 0080 03D0     		beq	.L5
 154              		.loc 2 520 89 discriminator 1 view .LVU41
 155 0082 6FF00043 		mvn	r3, #-2147483648
 156 0086 83EAE173 		eor	r3, r3, r1, asr #31
 157              	.L5:
 158              	.LVL14:
 159              		.loc 2 520 89 discriminator 1 view .LVU42
 160              	.LBE17:
 161              	.LBE16:
 124:Drivers/CMSIS/DSP/Source/SupportFunctions/arm_float_to_q31.c ****     *pDst++ = clip_q63_to_q31((q63_t) (*pIn++ * 2147483648.0f));
 162              		.loc 1 124 13 discriminator 1 view .LVU43
 163 008a AB60     		str	r3, [r5, #8]
 125:Drivers/CMSIS/DSP/Source/SupportFunctions/arm_float_to_q31.c **** 
 164              		.loc 1 125 5 is_stmt 1 view .LVU44
 125:Drivers/CMSIS/DSP/Source/SupportFunctions/arm_float_to_q31.c **** 
 165              		.loc 1 125 44 is_stmt 0 view .LVU45
 166 008c 04F11008 		add	r8, r4, #16
 167              	.LVL15:
 125:Drivers/CMSIS/DSP/Source/SupportFunctions/arm_float_to_q31.c **** 
 168              		.loc 1 125 40 view .LVU46
 169 0090 94ED037A 		vldr.32	s14, [r4, #12]
 125:Drivers/CMSIS/DSP/Source/SupportFunctions/arm_float_to_q31.c **** 
 170              		.loc 1 125 15 view .LVU47
 171 0094 DFED177A 		vldr.32	s15, .L14
 172 0098 67EE277A 		vmul.f32	s15, s14, s15
 173 009c 17EE900A 		vmov	r0, s15
 174 00a0 FFF7FEFF 		bl	__aeabi_f2lz
 175              	.LVL16:
 125:Drivers/CMSIS/DSP/Source/SupportFunctions/arm_float_to_q31.c **** 
 176              		.loc 1 125 10 view .LVU48
 177 00a4 05F11002 		add	r2, r5, #16
 178              	.LVL17:
 179              	.LBB18:
 180              	.LBI18:
 517:Drivers/CMSIS/DSP/Include/arm_math.h ****       q63_t x)
 181              		.loc 2 517 38 is_stmt 1 view .LVU49
 182              	.LBB19:
 183              		.loc 2 520 5 view .LVU50
ARM GAS  /var/folders/n6/c271nzx11xl4r4_m7sqjlt0m0000gn/T//ccRJPVyb.s 			page 16


 184              		.loc 2 520 34 is_stmt 0 view .LVU51
 185 00a8 0346     		mov	r3, r0
 186              		.loc 2 520 89 view .LVU52
 187 00aa B1EBE07F 		cmp	r1, r0, asr #31
 188 00ae AED0     		beq	.L6
 189              		.loc 2 520 89 discriminator 1 view .LVU53
 190 00b0 6FF00043 		mvn	r3, #-2147483648
 191 00b4 83EAE173 		eor	r3, r3, r1, asr #31
 192 00b8 A9E7     		b	.L6
 193              	.LVL18:
 194              	.L12:
 195              		.loc 2 520 89 discriminator 1 view .LVU54
 196              	.LBE19:
 197              	.LBE18:
 131:Drivers/CMSIS/DSP/Source/SupportFunctions/arm_float_to_q31.c ****   }
 132:Drivers/CMSIS/DSP/Source/SupportFunctions/arm_float_to_q31.c **** 
 133:Drivers/CMSIS/DSP/Source/SupportFunctions/arm_float_to_q31.c ****   /* If the blockSize is not a multiple of 4, compute any remaining output samples here.
 134:Drivers/CMSIS/DSP/Source/SupportFunctions/arm_float_to_q31.c ****    ** No loop unrolling is used. */
 135:Drivers/CMSIS/DSP/Source/SupportFunctions/arm_float_to_q31.c ****   blkCnt = blockSize % 0x4U;
 198              		.loc 1 135 3 is_stmt 1 view .LVU55
 199              		.loc 1 135 10 is_stmt 0 view .LVU56
 200 00ba 06F00306 		and	r6, r6, #3
 201              	.LVL19:
 136:Drivers/CMSIS/DSP/Source/SupportFunctions/arm_float_to_q31.c **** 
 137:Drivers/CMSIS/DSP/Source/SupportFunctions/arm_float_to_q31.c ****   while (blkCnt > 0U)
 202              		.loc 1 137 3 is_stmt 1 view .LVU57
 203              		.loc 1 137 9 is_stmt 0 view .LVU58
 204 00be 02E0     		b	.L8
 205              	.LVL20:
 206              	.L9:
 138:Drivers/CMSIS/DSP/Source/SupportFunctions/arm_float_to_q31.c ****   {
 139:Drivers/CMSIS/DSP/Source/SupportFunctions/arm_float_to_q31.c **** 
 140:Drivers/CMSIS/DSP/Source/SupportFunctions/arm_float_to_q31.c **** #ifdef ARM_MATH_ROUNDING
 141:Drivers/CMSIS/DSP/Source/SupportFunctions/arm_float_to_q31.c **** 
 142:Drivers/CMSIS/DSP/Source/SupportFunctions/arm_float_to_q31.c ****     /* C = A * 2147483648 */
 143:Drivers/CMSIS/DSP/Source/SupportFunctions/arm_float_to_q31.c ****     /* convert from float to Q31 and then store the results in the destination buffer */
 144:Drivers/CMSIS/DSP/Source/SupportFunctions/arm_float_to_q31.c ****     in = *pIn++;
 145:Drivers/CMSIS/DSP/Source/SupportFunctions/arm_float_to_q31.c ****     in = (in * 2147483648.0f);
 146:Drivers/CMSIS/DSP/Source/SupportFunctions/arm_float_to_q31.c ****     in += in > 0.0f ? 0.5f : -0.5f;
 147:Drivers/CMSIS/DSP/Source/SupportFunctions/arm_float_to_q31.c ****     *pDst++ = clip_q63_to_q31((q63_t) (in));
 148:Drivers/CMSIS/DSP/Source/SupportFunctions/arm_float_to_q31.c **** 
 149:Drivers/CMSIS/DSP/Source/SupportFunctions/arm_float_to_q31.c **** #else
 150:Drivers/CMSIS/DSP/Source/SupportFunctions/arm_float_to_q31.c **** 
 151:Drivers/CMSIS/DSP/Source/SupportFunctions/arm_float_to_q31.c ****     /* C = A * 2147483648 */
 152:Drivers/CMSIS/DSP/Source/SupportFunctions/arm_float_to_q31.c ****     /* convert from float to Q31 and then store the results in the destination buffer */
 153:Drivers/CMSIS/DSP/Source/SupportFunctions/arm_float_to_q31.c ****     *pDst++ = clip_q63_to_q31((q63_t) (*pIn++ * 2147483648.0f));
 207              		.loc 1 153 13 discriminator 1 view .LVU59
 208 00c0 2B60     		str	r3, [r5]
 154:Drivers/CMSIS/DSP/Source/SupportFunctions/arm_float_to_q31.c **** 
 155:Drivers/CMSIS/DSP/Source/SupportFunctions/arm_float_to_q31.c **** #endif /*      #ifdef ARM_MATH_ROUNDING        */
 156:Drivers/CMSIS/DSP/Source/SupportFunctions/arm_float_to_q31.c **** 
 157:Drivers/CMSIS/DSP/Source/SupportFunctions/arm_float_to_q31.c ****     /* Decrement the loop counter */
 158:Drivers/CMSIS/DSP/Source/SupportFunctions/arm_float_to_q31.c ****     blkCnt--;
 209              		.loc 1 158 5 is_stmt 1 view .LVU60
 210              		.loc 1 158 11 is_stmt 0 view .LVU61
 211 00c2 013E     		subs	r6, r6, #1
 212              	.LVL21:
ARM GAS  /var/folders/n6/c271nzx11xl4r4_m7sqjlt0m0000gn/T//ccRJPVyb.s 			page 17


 153:Drivers/CMSIS/DSP/Source/SupportFunctions/arm_float_to_q31.c **** 
 213              		.loc 1 153 10 view .LVU62
 214 00c4 1546     		mov	r5, r2
 215              	.LVL22:
 216              	.L8:
 137:Drivers/CMSIS/DSP/Source/SupportFunctions/arm_float_to_q31.c ****   {
 217              		.loc 1 137 17 is_stmt 1 view .LVU63
 218 00c6 9EB1     		cbz	r6, .L13
 153:Drivers/CMSIS/DSP/Source/SupportFunctions/arm_float_to_q31.c **** 
 219              		.loc 1 153 5 view .LVU64
 220              	.LVL23:
 153:Drivers/CMSIS/DSP/Source/SupportFunctions/arm_float_to_q31.c **** 
 221              		.loc 1 153 40 is_stmt 0 view .LVU65
 222 00c8 B4EC017A 		vldmia.32	r4!, {s14}
 223              	.LVL24:
 153:Drivers/CMSIS/DSP/Source/SupportFunctions/arm_float_to_q31.c **** 
 224              		.loc 1 153 15 view .LVU66
 225 00cc DFED097A 		vldr.32	s15, .L14
 226 00d0 67EE277A 		vmul.f32	s15, s14, s15
 227 00d4 17EE900A 		vmov	r0, s15
 228 00d8 FFF7FEFF 		bl	__aeabi_f2lz
 229              	.LVL25:
 153:Drivers/CMSIS/DSP/Source/SupportFunctions/arm_float_to_q31.c **** 
 230              		.loc 1 153 10 view .LVU67
 231 00dc 2A1D     		adds	r2, r5, #4
 232              	.LVL26:
 233              	.LBB20:
 234              	.LBI20:
 517:Drivers/CMSIS/DSP/Include/arm_math.h ****       q63_t x)
 235              		.loc 2 517 38 is_stmt 1 view .LVU68
 236              	.LBB21:
 237              		.loc 2 520 5 view .LVU69
 238              		.loc 2 520 34 is_stmt 0 view .LVU70
 239 00de 0346     		mov	r3, r0
 240              		.loc 2 520 89 view .LVU71
 241 00e0 B1EBE07F 		cmp	r1, r0, asr #31
 242 00e4 ECD0     		beq	.L9
 243              		.loc 2 520 89 discriminator 1 view .LVU72
 244 00e6 6FF00043 		mvn	r3, #-2147483648
 245 00ea 83EAE173 		eor	r3, r3, r1, asr #31
 246 00ee E7E7     		b	.L9
 247              	.LVL27:
 248              	.L13:
 249              		.loc 2 520 89 discriminator 1 view .LVU73
 250              	.LBE21:
 251              	.LBE20:
 159:Drivers/CMSIS/DSP/Source/SupportFunctions/arm_float_to_q31.c ****   }
 160:Drivers/CMSIS/DSP/Source/SupportFunctions/arm_float_to_q31.c **** 
 161:Drivers/CMSIS/DSP/Source/SupportFunctions/arm_float_to_q31.c **** 
 162:Drivers/CMSIS/DSP/Source/SupportFunctions/arm_float_to_q31.c **** #else
 163:Drivers/CMSIS/DSP/Source/SupportFunctions/arm_float_to_q31.c **** 
 164:Drivers/CMSIS/DSP/Source/SupportFunctions/arm_float_to_q31.c ****   /* Run the below code for Cortex-M0 */
 165:Drivers/CMSIS/DSP/Source/SupportFunctions/arm_float_to_q31.c **** 
 166:Drivers/CMSIS/DSP/Source/SupportFunctions/arm_float_to_q31.c ****   /* Loop over blockSize number of values */
 167:Drivers/CMSIS/DSP/Source/SupportFunctions/arm_float_to_q31.c ****   blkCnt = blockSize;
 168:Drivers/CMSIS/DSP/Source/SupportFunctions/arm_float_to_q31.c **** 
 169:Drivers/CMSIS/DSP/Source/SupportFunctions/arm_float_to_q31.c ****   while (blkCnt > 0U)
ARM GAS  /var/folders/n6/c271nzx11xl4r4_m7sqjlt0m0000gn/T//ccRJPVyb.s 			page 18


 170:Drivers/CMSIS/DSP/Source/SupportFunctions/arm_float_to_q31.c ****   {
 171:Drivers/CMSIS/DSP/Source/SupportFunctions/arm_float_to_q31.c **** 
 172:Drivers/CMSIS/DSP/Source/SupportFunctions/arm_float_to_q31.c **** #ifdef ARM_MATH_ROUNDING
 173:Drivers/CMSIS/DSP/Source/SupportFunctions/arm_float_to_q31.c **** 
 174:Drivers/CMSIS/DSP/Source/SupportFunctions/arm_float_to_q31.c ****     /* C = A * 2147483648 */
 175:Drivers/CMSIS/DSP/Source/SupportFunctions/arm_float_to_q31.c ****     /* convert from float to Q31 and then store the results in the destination buffer */
 176:Drivers/CMSIS/DSP/Source/SupportFunctions/arm_float_to_q31.c ****     in = *pIn++;
 177:Drivers/CMSIS/DSP/Source/SupportFunctions/arm_float_to_q31.c ****     in = (in * 2147483648.0f);
 178:Drivers/CMSIS/DSP/Source/SupportFunctions/arm_float_to_q31.c ****     in += in > 0 ? 0.5f : -0.5f;
 179:Drivers/CMSIS/DSP/Source/SupportFunctions/arm_float_to_q31.c ****     *pDst++ = clip_q63_to_q31((q63_t) (in));
 180:Drivers/CMSIS/DSP/Source/SupportFunctions/arm_float_to_q31.c **** 
 181:Drivers/CMSIS/DSP/Source/SupportFunctions/arm_float_to_q31.c **** #else
 182:Drivers/CMSIS/DSP/Source/SupportFunctions/arm_float_to_q31.c **** 
 183:Drivers/CMSIS/DSP/Source/SupportFunctions/arm_float_to_q31.c ****     /* C = A * 2147483648 */
 184:Drivers/CMSIS/DSP/Source/SupportFunctions/arm_float_to_q31.c ****     /* convert from float to Q31 and then store the results in the destination buffer */
 185:Drivers/CMSIS/DSP/Source/SupportFunctions/arm_float_to_q31.c ****     *pDst++ = clip_q63_to_q31((q63_t) (*pIn++ * 2147483648.0f));
 186:Drivers/CMSIS/DSP/Source/SupportFunctions/arm_float_to_q31.c **** 
 187:Drivers/CMSIS/DSP/Source/SupportFunctions/arm_float_to_q31.c **** #endif /*      #ifdef ARM_MATH_ROUNDING        */
 188:Drivers/CMSIS/DSP/Source/SupportFunctions/arm_float_to_q31.c **** 
 189:Drivers/CMSIS/DSP/Source/SupportFunctions/arm_float_to_q31.c ****     /* Decrement the loop counter */
 190:Drivers/CMSIS/DSP/Source/SupportFunctions/arm_float_to_q31.c ****     blkCnt--;
 191:Drivers/CMSIS/DSP/Source/SupportFunctions/arm_float_to_q31.c ****   }
 192:Drivers/CMSIS/DSP/Source/SupportFunctions/arm_float_to_q31.c **** 
 193:Drivers/CMSIS/DSP/Source/SupportFunctions/arm_float_to_q31.c **** #endif /* #if defined (ARM_MATH_DSP) */
 194:Drivers/CMSIS/DSP/Source/SupportFunctions/arm_float_to_q31.c **** 
 195:Drivers/CMSIS/DSP/Source/SupportFunctions/arm_float_to_q31.c **** }
 252              		.loc 1 195 1 view .LVU74
 253 00f0 BDE8F081 		pop	{r4, r5, r6, r7, r8, pc}
 254              	.LVL28:
 255              	.L15:
 256              		.loc 1 195 1 view .LVU75
 257              		.align	2
 258              	.L14:
 259 00f4 0000004F 		.word	1325400064
 260              		.cfi_endproc
 261              	.LFE135:
 263              		.text
 264              	.Letext0:
 265              		.file 3 "/Users/killian/Library/Application Support/Code/User/globalStorage/bmd.stm32-for-vscode/@
 266              		.file 4 "/Users/killian/Library/Application Support/Code/User/globalStorage/bmd.stm32-for-vscode/@
ARM GAS  /var/folders/n6/c271nzx11xl4r4_m7sqjlt0m0000gn/T//ccRJPVyb.s 			page 19

