ARM GAS  /var/folders/n6/c271nzx11xl4r4_m7sqjlt0m0000gn/T//cct3ykq1.s 			page 1


   1              		.cpu cortex-m7
   2              		.arch armv7e-m
   3              		.fpu fpv5-d16
   4              		.eabi_attribute 28, 1
   5              		.eabi_attribute 20, 1
   6              		.eabi_attribute 21, 1
   7              		.eabi_attribute 23, 3
   8              		.eabi_attribute 24, 1
   9              		.eabi_attribute 25, 1
  10              		.eabi_attribute 26, 1
  11              		.eabi_attribute 30, 1
  12              		.eabi_attribute 34, 1
  13              		.eabi_attribute 18, 4
  14              		.file	"arm_correlate_f32.c"
  15              		.text
  16              	.Ltext0:
  17              		.cfi_sections	.debug_frame
  18              		.file 1 "Drivers/CMSIS/DSP/Source/FilteringFunctions/arm_correlate_f32.c"
  19              		.section	.text.arm_correlate_f32,"ax",%progbits
  20              		.align	1
  21              		.global	arm_correlate_f32
  22              		.syntax unified
  23              		.thumb
  24              		.thumb_func
  26              	arm_correlate_f32:
  27              	.LVL0:
  28              	.LFB135:
   1:Drivers/CMSIS/DSP/Source/FilteringFunctions/arm_correlate_f32.c **** /* ----------------------------------------------------------------------
   2:Drivers/CMSIS/DSP/Source/FilteringFunctions/arm_correlate_f32.c ****  * Project:      CMSIS DSP Library
   3:Drivers/CMSIS/DSP/Source/FilteringFunctions/arm_correlate_f32.c ****  * Title:        arm_correlate_f32.c
   4:Drivers/CMSIS/DSP/Source/FilteringFunctions/arm_correlate_f32.c ****  * Description:  Correlation of floating-point sequences
   5:Drivers/CMSIS/DSP/Source/FilteringFunctions/arm_correlate_f32.c ****  *
   6:Drivers/CMSIS/DSP/Source/FilteringFunctions/arm_correlate_f32.c ****  * $Date:        27. January 2017
   7:Drivers/CMSIS/DSP/Source/FilteringFunctions/arm_correlate_f32.c ****  * $Revision:    V.1.5.1
   8:Drivers/CMSIS/DSP/Source/FilteringFunctions/arm_correlate_f32.c ****  *
   9:Drivers/CMSIS/DSP/Source/FilteringFunctions/arm_correlate_f32.c ****  * Target Processor: Cortex-M cores
  10:Drivers/CMSIS/DSP/Source/FilteringFunctions/arm_correlate_f32.c ****  * -------------------------------------------------------------------- */
  11:Drivers/CMSIS/DSP/Source/FilteringFunctions/arm_correlate_f32.c **** /*
  12:Drivers/CMSIS/DSP/Source/FilteringFunctions/arm_correlate_f32.c ****  * Copyright (C) 2010-2017 ARM Limited or its affiliates. All rights reserved.
  13:Drivers/CMSIS/DSP/Source/FilteringFunctions/arm_correlate_f32.c ****  *
  14:Drivers/CMSIS/DSP/Source/FilteringFunctions/arm_correlate_f32.c ****  * SPDX-License-Identifier: Apache-2.0
  15:Drivers/CMSIS/DSP/Source/FilteringFunctions/arm_correlate_f32.c ****  *
  16:Drivers/CMSIS/DSP/Source/FilteringFunctions/arm_correlate_f32.c ****  * Licensed under the Apache License, Version 2.0 (the License); you may
  17:Drivers/CMSIS/DSP/Source/FilteringFunctions/arm_correlate_f32.c ****  * not use this file except in compliance with the License.
  18:Drivers/CMSIS/DSP/Source/FilteringFunctions/arm_correlate_f32.c ****  * You may obtain a copy of the License at
  19:Drivers/CMSIS/DSP/Source/FilteringFunctions/arm_correlate_f32.c ****  *
  20:Drivers/CMSIS/DSP/Source/FilteringFunctions/arm_correlate_f32.c ****  * www.apache.org/licenses/LICENSE-2.0
  21:Drivers/CMSIS/DSP/Source/FilteringFunctions/arm_correlate_f32.c ****  *
  22:Drivers/CMSIS/DSP/Source/FilteringFunctions/arm_correlate_f32.c ****  * Unless required by applicable law or agreed to in writing, software
  23:Drivers/CMSIS/DSP/Source/FilteringFunctions/arm_correlate_f32.c ****  * distributed under the License is distributed on an AS IS BASIS, WITHOUT
  24:Drivers/CMSIS/DSP/Source/FilteringFunctions/arm_correlate_f32.c ****  * WARRANTIES OR CONDITIONS OF ANY KIND, either express or implied.
  25:Drivers/CMSIS/DSP/Source/FilteringFunctions/arm_correlate_f32.c ****  * See the License for the specific language governing permissions and
  26:Drivers/CMSIS/DSP/Source/FilteringFunctions/arm_correlate_f32.c ****  * limitations under the License.
  27:Drivers/CMSIS/DSP/Source/FilteringFunctions/arm_correlate_f32.c ****  */
  28:Drivers/CMSIS/DSP/Source/FilteringFunctions/arm_correlate_f32.c **** 
  29:Drivers/CMSIS/DSP/Source/FilteringFunctions/arm_correlate_f32.c **** #include "arm_math.h"
  30:Drivers/CMSIS/DSP/Source/FilteringFunctions/arm_correlate_f32.c **** 
ARM GAS  /var/folders/n6/c271nzx11xl4r4_m7sqjlt0m0000gn/T//cct3ykq1.s 			page 2


  31:Drivers/CMSIS/DSP/Source/FilteringFunctions/arm_correlate_f32.c **** /**
  32:Drivers/CMSIS/DSP/Source/FilteringFunctions/arm_correlate_f32.c ****  * @ingroup groupFilters
  33:Drivers/CMSIS/DSP/Source/FilteringFunctions/arm_correlate_f32.c ****  */
  34:Drivers/CMSIS/DSP/Source/FilteringFunctions/arm_correlate_f32.c **** 
  35:Drivers/CMSIS/DSP/Source/FilteringFunctions/arm_correlate_f32.c **** /**
  36:Drivers/CMSIS/DSP/Source/FilteringFunctions/arm_correlate_f32.c ****  * @defgroup Corr Correlation
  37:Drivers/CMSIS/DSP/Source/FilteringFunctions/arm_correlate_f32.c ****  *
  38:Drivers/CMSIS/DSP/Source/FilteringFunctions/arm_correlate_f32.c ****  * Correlation is a mathematical operation that is similar to convolution.
  39:Drivers/CMSIS/DSP/Source/FilteringFunctions/arm_correlate_f32.c ****  * As with convolution, correlation uses two signals to produce a third signal.
  40:Drivers/CMSIS/DSP/Source/FilteringFunctions/arm_correlate_f32.c ****  * The underlying algorithms in correlation and convolution are identical except that one of the in
  41:Drivers/CMSIS/DSP/Source/FilteringFunctions/arm_correlate_f32.c ****  * Correlation is commonly used to measure the similarity between two signals.
  42:Drivers/CMSIS/DSP/Source/FilteringFunctions/arm_correlate_f32.c ****  * It has applications in pattern recognition, cryptanalysis, and searching.
  43:Drivers/CMSIS/DSP/Source/FilteringFunctions/arm_correlate_f32.c ****  * The CMSIS library provides correlation functions for Q7, Q15, Q31 and floating-point data types.
  44:Drivers/CMSIS/DSP/Source/FilteringFunctions/arm_correlate_f32.c ****  * Fast versions of the Q15 and Q31 functions are also provided.
  45:Drivers/CMSIS/DSP/Source/FilteringFunctions/arm_correlate_f32.c ****  *
  46:Drivers/CMSIS/DSP/Source/FilteringFunctions/arm_correlate_f32.c ****  * \par Algorithm
  47:Drivers/CMSIS/DSP/Source/FilteringFunctions/arm_correlate_f32.c ****  * Let <code>a[n]</code> and <code>b[n]</code> be sequences of length <code>srcALen</code> and <cod
  48:Drivers/CMSIS/DSP/Source/FilteringFunctions/arm_correlate_f32.c ****  * The convolution of the two signals is denoted by
  49:Drivers/CMSIS/DSP/Source/FilteringFunctions/arm_correlate_f32.c ****  * <pre>
  50:Drivers/CMSIS/DSP/Source/FilteringFunctions/arm_correlate_f32.c ****  *                   c[n] = a[n] * b[n]
  51:Drivers/CMSIS/DSP/Source/FilteringFunctions/arm_correlate_f32.c ****  * </pre>
  52:Drivers/CMSIS/DSP/Source/FilteringFunctions/arm_correlate_f32.c ****  * In correlation, one of the signals is flipped in time
  53:Drivers/CMSIS/DSP/Source/FilteringFunctions/arm_correlate_f32.c ****  * <pre>
  54:Drivers/CMSIS/DSP/Source/FilteringFunctions/arm_correlate_f32.c ****  *                   c[n] = a[n] * b[-n]
  55:Drivers/CMSIS/DSP/Source/FilteringFunctions/arm_correlate_f32.c ****  * </pre>
  56:Drivers/CMSIS/DSP/Source/FilteringFunctions/arm_correlate_f32.c ****  *
  57:Drivers/CMSIS/DSP/Source/FilteringFunctions/arm_correlate_f32.c ****  * \par
  58:Drivers/CMSIS/DSP/Source/FilteringFunctions/arm_correlate_f32.c ****  * and this is mathematically defined as
  59:Drivers/CMSIS/DSP/Source/FilteringFunctions/arm_correlate_f32.c ****  * \image html CorrelateEquation.gif
  60:Drivers/CMSIS/DSP/Source/FilteringFunctions/arm_correlate_f32.c ****  * \par
  61:Drivers/CMSIS/DSP/Source/FilteringFunctions/arm_correlate_f32.c ****  * The <code>pSrcA</code> points to the first input vector of length <code>srcALen</code> and <code
  62:Drivers/CMSIS/DSP/Source/FilteringFunctions/arm_correlate_f32.c ****  * The result <code>c[n]</code> is of length <code>2 * max(srcALen, srcBLen) - 1</code> and is defi
  63:Drivers/CMSIS/DSP/Source/FilteringFunctions/arm_correlate_f32.c ****  * The output result is written to <code>pDst</code> and the calling function must allocate <code>2
  64:Drivers/CMSIS/DSP/Source/FilteringFunctions/arm_correlate_f32.c ****  *
  65:Drivers/CMSIS/DSP/Source/FilteringFunctions/arm_correlate_f32.c ****  * <b>Note</b>
  66:Drivers/CMSIS/DSP/Source/FilteringFunctions/arm_correlate_f32.c ****  * \par
  67:Drivers/CMSIS/DSP/Source/FilteringFunctions/arm_correlate_f32.c ****  * The <code>pDst</code> should be initialized to all zeros before being used.
  68:Drivers/CMSIS/DSP/Source/FilteringFunctions/arm_correlate_f32.c ****  *
  69:Drivers/CMSIS/DSP/Source/FilteringFunctions/arm_correlate_f32.c ****  * <b>Fixed-Point Behavior</b>
  70:Drivers/CMSIS/DSP/Source/FilteringFunctions/arm_correlate_f32.c ****  * \par
  71:Drivers/CMSIS/DSP/Source/FilteringFunctions/arm_correlate_f32.c ****  * Correlation requires summing up a large number of intermediate products.
  72:Drivers/CMSIS/DSP/Source/FilteringFunctions/arm_correlate_f32.c ****  * As such, the Q7, Q15, and Q31 functions run a risk of overflow and saturation.
  73:Drivers/CMSIS/DSP/Source/FilteringFunctions/arm_correlate_f32.c ****  * Refer to the function specific documentation below for further details of the particular algorit
  74:Drivers/CMSIS/DSP/Source/FilteringFunctions/arm_correlate_f32.c ****  *
  75:Drivers/CMSIS/DSP/Source/FilteringFunctions/arm_correlate_f32.c ****  *
  76:Drivers/CMSIS/DSP/Source/FilteringFunctions/arm_correlate_f32.c ****  * <b>Fast Versions</b>
  77:Drivers/CMSIS/DSP/Source/FilteringFunctions/arm_correlate_f32.c ****  *
  78:Drivers/CMSIS/DSP/Source/FilteringFunctions/arm_correlate_f32.c ****  * \par
  79:Drivers/CMSIS/DSP/Source/FilteringFunctions/arm_correlate_f32.c ****  * Fast versions are supported for Q31 and Q15.  Cycles for Fast versions are less compared to Q31 
  80:Drivers/CMSIS/DSP/Source/FilteringFunctions/arm_correlate_f32.c ****  * the input signals should be scaled down to avoid intermediate overflows.
  81:Drivers/CMSIS/DSP/Source/FilteringFunctions/arm_correlate_f32.c ****  *
  82:Drivers/CMSIS/DSP/Source/FilteringFunctions/arm_correlate_f32.c ****  *
  83:Drivers/CMSIS/DSP/Source/FilteringFunctions/arm_correlate_f32.c ****  * <b>Opt Versions</b>
  84:Drivers/CMSIS/DSP/Source/FilteringFunctions/arm_correlate_f32.c ****  *
  85:Drivers/CMSIS/DSP/Source/FilteringFunctions/arm_correlate_f32.c ****  * \par
  86:Drivers/CMSIS/DSP/Source/FilteringFunctions/arm_correlate_f32.c ****  * Opt versions are supported for Q15 and Q7.  Design uses internal scratch buffer for getting good
  87:Drivers/CMSIS/DSP/Source/FilteringFunctions/arm_correlate_f32.c ****  * These versions are optimised in cycles and consumes more memory(Scratch memory) compared to Q15 
ARM GAS  /var/folders/n6/c271nzx11xl4r4_m7sqjlt0m0000gn/T//cct3ykq1.s 			page 3


  88:Drivers/CMSIS/DSP/Source/FilteringFunctions/arm_correlate_f32.c ****  */
  89:Drivers/CMSIS/DSP/Source/FilteringFunctions/arm_correlate_f32.c **** 
  90:Drivers/CMSIS/DSP/Source/FilteringFunctions/arm_correlate_f32.c **** /**
  91:Drivers/CMSIS/DSP/Source/FilteringFunctions/arm_correlate_f32.c ****  * @addtogroup Corr
  92:Drivers/CMSIS/DSP/Source/FilteringFunctions/arm_correlate_f32.c ****  * @{
  93:Drivers/CMSIS/DSP/Source/FilteringFunctions/arm_correlate_f32.c ****  */
  94:Drivers/CMSIS/DSP/Source/FilteringFunctions/arm_correlate_f32.c **** /**
  95:Drivers/CMSIS/DSP/Source/FilteringFunctions/arm_correlate_f32.c ****  * @brief Correlation of floating-point sequences.
  96:Drivers/CMSIS/DSP/Source/FilteringFunctions/arm_correlate_f32.c ****  * @param[in]  *pSrcA points to the first input sequence.
  97:Drivers/CMSIS/DSP/Source/FilteringFunctions/arm_correlate_f32.c ****  * @param[in]  srcALen length of the first input sequence.
  98:Drivers/CMSIS/DSP/Source/FilteringFunctions/arm_correlate_f32.c ****  * @param[in]  *pSrcB points to the second input sequence.
  99:Drivers/CMSIS/DSP/Source/FilteringFunctions/arm_correlate_f32.c ****  * @param[in]  srcBLen length of the second input sequence.
 100:Drivers/CMSIS/DSP/Source/FilteringFunctions/arm_correlate_f32.c ****  * @param[out] *pDst points to the location where the output result is written.  Length 2 * max(src
 101:Drivers/CMSIS/DSP/Source/FilteringFunctions/arm_correlate_f32.c ****  * @return none.
 102:Drivers/CMSIS/DSP/Source/FilteringFunctions/arm_correlate_f32.c ****  */
 103:Drivers/CMSIS/DSP/Source/FilteringFunctions/arm_correlate_f32.c **** 
 104:Drivers/CMSIS/DSP/Source/FilteringFunctions/arm_correlate_f32.c **** void arm_correlate_f32(
 105:Drivers/CMSIS/DSP/Source/FilteringFunctions/arm_correlate_f32.c ****   float32_t * pSrcA,
 106:Drivers/CMSIS/DSP/Source/FilteringFunctions/arm_correlate_f32.c ****   uint32_t srcALen,
 107:Drivers/CMSIS/DSP/Source/FilteringFunctions/arm_correlate_f32.c ****   float32_t * pSrcB,
 108:Drivers/CMSIS/DSP/Source/FilteringFunctions/arm_correlate_f32.c ****   uint32_t srcBLen,
 109:Drivers/CMSIS/DSP/Source/FilteringFunctions/arm_correlate_f32.c ****   float32_t * pDst)
 110:Drivers/CMSIS/DSP/Source/FilteringFunctions/arm_correlate_f32.c **** {
  29              		.loc 1 110 1 view -0
  30              		.cfi_startproc
  31              		@ args = 4, pretend = 0, frame = 0
  32              		@ frame_needed = 0, uses_anonymous_args = 0
  33              		.loc 1 110 1 is_stmt 0 view .LVU1
  34 0000 2DE9F04F 		push	{r4, r5, r6, r7, r8, r9, r10, fp, lr}
  35              		.cfi_def_cfa_offset 36
  36              		.cfi_offset 4, -36
  37              		.cfi_offset 5, -32
  38              		.cfi_offset 6, -28
  39              		.cfi_offset 7, -24
  40              		.cfi_offset 8, -20
  41              		.cfi_offset 9, -16
  42              		.cfi_offset 10, -12
  43              		.cfi_offset 11, -8
  44              		.cfi_offset 14, -4
  45 0004 0546     		mov	r5, r0
  46 0006 1046     		mov	r0, r2
  47              	.LVL1:
  48              		.loc 1 110 1 view .LVU2
  49 0008 1E46     		mov	r6, r3
 111:Drivers/CMSIS/DSP/Source/FilteringFunctions/arm_correlate_f32.c **** 
 112:Drivers/CMSIS/DSP/Source/FilteringFunctions/arm_correlate_f32.c **** 
 113:Drivers/CMSIS/DSP/Source/FilteringFunctions/arm_correlate_f32.c **** #if defined (ARM_MATH_DSP)
 114:Drivers/CMSIS/DSP/Source/FilteringFunctions/arm_correlate_f32.c **** 
 115:Drivers/CMSIS/DSP/Source/FilteringFunctions/arm_correlate_f32.c ****   /* Run the below code for Cortex-M4 and Cortex-M3 */
 116:Drivers/CMSIS/DSP/Source/FilteringFunctions/arm_correlate_f32.c **** 
 117:Drivers/CMSIS/DSP/Source/FilteringFunctions/arm_correlate_f32.c ****   float32_t *pIn1;                               /* inputA pointer */
  50              		.loc 1 117 3 is_stmt 1 view .LVU3
 118:Drivers/CMSIS/DSP/Source/FilteringFunctions/arm_correlate_f32.c ****   float32_t *pIn2;                               /* inputB pointer */
  51              		.loc 1 118 3 view .LVU4
 119:Drivers/CMSIS/DSP/Source/FilteringFunctions/arm_correlate_f32.c ****   float32_t *pOut = pDst;                        /* output pointer */
  52              		.loc 1 119 3 view .LVU5
  53              	.LVL2:
ARM GAS  /var/folders/n6/c271nzx11xl4r4_m7sqjlt0m0000gn/T//cct3ykq1.s 			page 4


 120:Drivers/CMSIS/DSP/Source/FilteringFunctions/arm_correlate_f32.c ****   float32_t *px;                                 /* Intermediate inputA pointer */
  54              		.loc 1 120 3 view .LVU6
 121:Drivers/CMSIS/DSP/Source/FilteringFunctions/arm_correlate_f32.c ****   float32_t *py;                                 /* Intermediate inputB pointer */
  55              		.loc 1 121 3 view .LVU7
 122:Drivers/CMSIS/DSP/Source/FilteringFunctions/arm_correlate_f32.c ****   float32_t *pSrc1;                              /* Intermediate pointers */
  56              		.loc 1 122 3 view .LVU8
 123:Drivers/CMSIS/DSP/Source/FilteringFunctions/arm_correlate_f32.c ****   float32_t sum, acc0, acc1, acc2, acc3;         /* Accumulators */
  57              		.loc 1 123 3 view .LVU9
 124:Drivers/CMSIS/DSP/Source/FilteringFunctions/arm_correlate_f32.c ****   float32_t x0, x1, x2, x3, c0;                  /* temporary variables for holding input and coeff
  58              		.loc 1 124 3 view .LVU10
 125:Drivers/CMSIS/DSP/Source/FilteringFunctions/arm_correlate_f32.c ****   uint32_t j, k = 0U, count, blkCnt, outBlockSize, blockSize1, blockSize2, blockSize3;  /* loop cou
  59              		.loc 1 125 3 view .LVU11
 126:Drivers/CMSIS/DSP/Source/FilteringFunctions/arm_correlate_f32.c ****   int32_t inc = 1;                               /* Destination address modifier */
  60              		.loc 1 126 3 view .LVU12
 127:Drivers/CMSIS/DSP/Source/FilteringFunctions/arm_correlate_f32.c **** 
 128:Drivers/CMSIS/DSP/Source/FilteringFunctions/arm_correlate_f32.c **** 
 129:Drivers/CMSIS/DSP/Source/FilteringFunctions/arm_correlate_f32.c ****   /* The algorithm implementation is based on the lengths of the inputs. */
 130:Drivers/CMSIS/DSP/Source/FilteringFunctions/arm_correlate_f32.c ****   /* srcB is always made to slide across srcA. */
 131:Drivers/CMSIS/DSP/Source/FilteringFunctions/arm_correlate_f32.c ****   /* So srcBLen is always considered as shorter or equal to srcALen */
 132:Drivers/CMSIS/DSP/Source/FilteringFunctions/arm_correlate_f32.c ****   /* But CORR(x, y) is reverse of CORR(y, x) */
 133:Drivers/CMSIS/DSP/Source/FilteringFunctions/arm_correlate_f32.c ****   /* So, when srcBLen > srcALen, output pointer is made to point to the end of the output buffer */
 134:Drivers/CMSIS/DSP/Source/FilteringFunctions/arm_correlate_f32.c ****   /* and the destination pointer modifier, inc is set to -1 */
 135:Drivers/CMSIS/DSP/Source/FilteringFunctions/arm_correlate_f32.c ****   /* If srcALen > srcBLen, zero pad has to be done to srcB to make the two inputs of same length */
 136:Drivers/CMSIS/DSP/Source/FilteringFunctions/arm_correlate_f32.c ****   /* But to improve the performance,
 137:Drivers/CMSIS/DSP/Source/FilteringFunctions/arm_correlate_f32.c ****    * we assume zeroes in the output instead of zero padding either of the the inputs*/
 138:Drivers/CMSIS/DSP/Source/FilteringFunctions/arm_correlate_f32.c ****   /* If srcALen > srcBLen,
 139:Drivers/CMSIS/DSP/Source/FilteringFunctions/arm_correlate_f32.c ****    * (srcALen - srcBLen) zeroes has to included in the starting of the output buffer */
 140:Drivers/CMSIS/DSP/Source/FilteringFunctions/arm_correlate_f32.c ****   /* If srcALen < srcBLen,
 141:Drivers/CMSIS/DSP/Source/FilteringFunctions/arm_correlate_f32.c ****    * (srcALen - srcBLen) zeroes has to included in the ending of the output buffer */
 142:Drivers/CMSIS/DSP/Source/FilteringFunctions/arm_correlate_f32.c ****   if (srcALen >= srcBLen)
  61              		.loc 1 142 3 view .LVU13
  62              		.loc 1 142 6 is_stmt 0 view .LVU14
  63 000a 9942     		cmp	r1, r3
  64 000c 16D3     		bcc	.L2
 143:Drivers/CMSIS/DSP/Source/FilteringFunctions/arm_correlate_f32.c ****   {
 144:Drivers/CMSIS/DSP/Source/FilteringFunctions/arm_correlate_f32.c ****     /* Initialization of inputA pointer */
 145:Drivers/CMSIS/DSP/Source/FilteringFunctions/arm_correlate_f32.c ****     pIn1 = pSrcA;
  65              		.loc 1 145 5 is_stmt 1 view .LVU15
  66              	.LVL3:
 146:Drivers/CMSIS/DSP/Source/FilteringFunctions/arm_correlate_f32.c **** 
 147:Drivers/CMSIS/DSP/Source/FilteringFunctions/arm_correlate_f32.c ****     /* Initialization of inputB pointer */
 148:Drivers/CMSIS/DSP/Source/FilteringFunctions/arm_correlate_f32.c ****     pIn2 = pSrcB;
  67              		.loc 1 148 5 view .LVU16
 149:Drivers/CMSIS/DSP/Source/FilteringFunctions/arm_correlate_f32.c **** 
 150:Drivers/CMSIS/DSP/Source/FilteringFunctions/arm_correlate_f32.c ****     /* Number of output samples is calculated */
 151:Drivers/CMSIS/DSP/Source/FilteringFunctions/arm_correlate_f32.c ****     outBlockSize = (2U * srcALen) - 1U;
  68              		.loc 1 151 5 view .LVU17
  69              		.loc 1 151 24 is_stmt 0 view .LVU18
  70 000e 4B00     		lsls	r3, r1, #1
  71              	.LVL4:
  72              		.loc 1 151 18 view .LVU19
  73 0010 013B     		subs	r3, r3, #1
  74              	.LVL5:
 152:Drivers/CMSIS/DSP/Source/FilteringFunctions/arm_correlate_f32.c **** 
 153:Drivers/CMSIS/DSP/Source/FilteringFunctions/arm_correlate_f32.c ****     /* When srcALen > srcBLen, zero padding has to be done to srcB
 154:Drivers/CMSIS/DSP/Source/FilteringFunctions/arm_correlate_f32.c ****      * to make their lengths equal.
 155:Drivers/CMSIS/DSP/Source/FilteringFunctions/arm_correlate_f32.c ****      * Instead, (outBlockSize - (srcALen + srcBLen - 1))
ARM GAS  /var/folders/n6/c271nzx11xl4r4_m7sqjlt0m0000gn/T//cct3ykq1.s 			page 5


 156:Drivers/CMSIS/DSP/Source/FilteringFunctions/arm_correlate_f32.c ****      * number of output samples are made zero */
 157:Drivers/CMSIS/DSP/Source/FilteringFunctions/arm_correlate_f32.c ****     j = outBlockSize - (srcALen + (srcBLen - 1U));
  75              		.loc 1 157 5 is_stmt 1 view .LVU20
  76              		.loc 1 157 33 is_stmt 0 view .LVU21
  77 0012 8A19     		adds	r2, r1, r6
  78              	.LVL6:
  79              		.loc 1 157 22 view .LVU22
  80 0014 9B1A     		subs	r3, r3, r2
  81              	.LVL7:
  82              		.loc 1 157 7 view .LVU23
  83 0016 0133     		adds	r3, r3, #1
  84              	.LVL8:
 158:Drivers/CMSIS/DSP/Source/FilteringFunctions/arm_correlate_f32.c **** 
 159:Drivers/CMSIS/DSP/Source/FilteringFunctions/arm_correlate_f32.c ****     /* Updating the pointer position to non zero value */
 160:Drivers/CMSIS/DSP/Source/FilteringFunctions/arm_correlate_f32.c ****     pOut += j;
  85              		.loc 1 160 5 is_stmt 1 view .LVU24
  86              		.loc 1 160 10 is_stmt 0 view .LVU25
  87 0018 099A     		ldr	r2, [sp, #36]
  88 001a 02EB830E 		add	lr, r2, r3, lsl #2
  89              	.LVL9:
 126:Drivers/CMSIS/DSP/Source/FilteringFunctions/arm_correlate_f32.c **** 
  90              		.loc 1 126 11 view .LVU26
  91 001e 0122     		movs	r2, #1
  92              	.LVL10:
  93              	.L3:
 161:Drivers/CMSIS/DSP/Source/FilteringFunctions/arm_correlate_f32.c **** 
 162:Drivers/CMSIS/DSP/Source/FilteringFunctions/arm_correlate_f32.c ****     //while (j > 0U)
 163:Drivers/CMSIS/DSP/Source/FilteringFunctions/arm_correlate_f32.c ****     //{
 164:Drivers/CMSIS/DSP/Source/FilteringFunctions/arm_correlate_f32.c ****     //  /* Zero is stored in the destination buffer */
 165:Drivers/CMSIS/DSP/Source/FilteringFunctions/arm_correlate_f32.c ****     //  *pOut++ = 0.0f;
 166:Drivers/CMSIS/DSP/Source/FilteringFunctions/arm_correlate_f32.c **** 
 167:Drivers/CMSIS/DSP/Source/FilteringFunctions/arm_correlate_f32.c ****     //  /* Decrement the loop counter */
 168:Drivers/CMSIS/DSP/Source/FilteringFunctions/arm_correlate_f32.c ****     //  j--;
 169:Drivers/CMSIS/DSP/Source/FilteringFunctions/arm_correlate_f32.c ****     //}
 170:Drivers/CMSIS/DSP/Source/FilteringFunctions/arm_correlate_f32.c **** 
 171:Drivers/CMSIS/DSP/Source/FilteringFunctions/arm_correlate_f32.c ****   }
 172:Drivers/CMSIS/DSP/Source/FilteringFunctions/arm_correlate_f32.c ****   else
 173:Drivers/CMSIS/DSP/Source/FilteringFunctions/arm_correlate_f32.c ****   {
 174:Drivers/CMSIS/DSP/Source/FilteringFunctions/arm_correlate_f32.c ****     /* Initialization of inputA pointer */
 175:Drivers/CMSIS/DSP/Source/FilteringFunctions/arm_correlate_f32.c ****     pIn1 = pSrcB;
 176:Drivers/CMSIS/DSP/Source/FilteringFunctions/arm_correlate_f32.c **** 
 177:Drivers/CMSIS/DSP/Source/FilteringFunctions/arm_correlate_f32.c ****     /* Initialization of inputB pointer */
 178:Drivers/CMSIS/DSP/Source/FilteringFunctions/arm_correlate_f32.c ****     pIn2 = pSrcA;
 179:Drivers/CMSIS/DSP/Source/FilteringFunctions/arm_correlate_f32.c **** 
 180:Drivers/CMSIS/DSP/Source/FilteringFunctions/arm_correlate_f32.c ****     /* srcBLen is always considered as shorter or equal to srcALen */
 181:Drivers/CMSIS/DSP/Source/FilteringFunctions/arm_correlate_f32.c ****     j = srcBLen;
 182:Drivers/CMSIS/DSP/Source/FilteringFunctions/arm_correlate_f32.c ****     srcBLen = srcALen;
 183:Drivers/CMSIS/DSP/Source/FilteringFunctions/arm_correlate_f32.c ****     srcALen = j;
 184:Drivers/CMSIS/DSP/Source/FilteringFunctions/arm_correlate_f32.c **** 
 185:Drivers/CMSIS/DSP/Source/FilteringFunctions/arm_correlate_f32.c ****     /* CORR(x, y) = Reverse order(CORR(y, x)) */
 186:Drivers/CMSIS/DSP/Source/FilteringFunctions/arm_correlate_f32.c ****     /* Hence set the destination pointer to point to the last output sample */
 187:Drivers/CMSIS/DSP/Source/FilteringFunctions/arm_correlate_f32.c ****     pOut = pDst + ((srcALen + srcBLen) - 2U);
 188:Drivers/CMSIS/DSP/Source/FilteringFunctions/arm_correlate_f32.c **** 
 189:Drivers/CMSIS/DSP/Source/FilteringFunctions/arm_correlate_f32.c ****     /* Destination address modifier is set to -1 */
 190:Drivers/CMSIS/DSP/Source/FilteringFunctions/arm_correlate_f32.c ****     inc = -1;
 191:Drivers/CMSIS/DSP/Source/FilteringFunctions/arm_correlate_f32.c **** 
 192:Drivers/CMSIS/DSP/Source/FilteringFunctions/arm_correlate_f32.c ****   }
ARM GAS  /var/folders/n6/c271nzx11xl4r4_m7sqjlt0m0000gn/T//cct3ykq1.s 			page 6


 193:Drivers/CMSIS/DSP/Source/FilteringFunctions/arm_correlate_f32.c **** 
 194:Drivers/CMSIS/DSP/Source/FilteringFunctions/arm_correlate_f32.c ****   /* The function is internally
 195:Drivers/CMSIS/DSP/Source/FilteringFunctions/arm_correlate_f32.c ****    * divided into three parts according to the number of multiplications that has to be
 196:Drivers/CMSIS/DSP/Source/FilteringFunctions/arm_correlate_f32.c ****    * taken place between inputA samples and inputB samples. In the first part of the
 197:Drivers/CMSIS/DSP/Source/FilteringFunctions/arm_correlate_f32.c ****    * algorithm, the multiplications increase by one for every iteration.
 198:Drivers/CMSIS/DSP/Source/FilteringFunctions/arm_correlate_f32.c ****    * In the second part of the algorithm, srcBLen number of multiplications are done.
 199:Drivers/CMSIS/DSP/Source/FilteringFunctions/arm_correlate_f32.c ****    * In the third part of the algorithm, the multiplications decrease by one
 200:Drivers/CMSIS/DSP/Source/FilteringFunctions/arm_correlate_f32.c ****    * for every iteration.*/
 201:Drivers/CMSIS/DSP/Source/FilteringFunctions/arm_correlate_f32.c ****   /* The algorithm is implemented in three stages.
 202:Drivers/CMSIS/DSP/Source/FilteringFunctions/arm_correlate_f32.c ****    * The loop counters of each stage is initiated here. */
 203:Drivers/CMSIS/DSP/Source/FilteringFunctions/arm_correlate_f32.c ****   blockSize1 = srcBLen - 1U;
  94              		.loc 1 203 3 is_stmt 1 view .LVU27
  95              		.loc 1 203 14 is_stmt 0 view .LVU28
  96 0020 741E     		subs	r4, r6, #1
  97              	.LVL11:
 204:Drivers/CMSIS/DSP/Source/FilteringFunctions/arm_correlate_f32.c ****   blockSize2 = srcALen - (srcBLen - 1U);
  98              		.loc 1 204 3 is_stmt 1 view .LVU29
  99              		.loc 1 204 24 is_stmt 0 view .LVU30
 100 0022 891B     		subs	r1, r1, r6
 101              	.LVL12:
 102              		.loc 1 204 14 view .LVU31
 103 0024 01F1010B 		add	fp, r1, #1
 104              	.LVL13:
 205:Drivers/CMSIS/DSP/Source/FilteringFunctions/arm_correlate_f32.c ****   blockSize3 = blockSize1;
 105              		.loc 1 205 3 is_stmt 1 view .LVU32
 206:Drivers/CMSIS/DSP/Source/FilteringFunctions/arm_correlate_f32.c **** 
 207:Drivers/CMSIS/DSP/Source/FilteringFunctions/arm_correlate_f32.c ****   /* --------------------------
 208:Drivers/CMSIS/DSP/Source/FilteringFunctions/arm_correlate_f32.c ****    * Initializations of stage1
 209:Drivers/CMSIS/DSP/Source/FilteringFunctions/arm_correlate_f32.c ****    * -------------------------*/
 210:Drivers/CMSIS/DSP/Source/FilteringFunctions/arm_correlate_f32.c **** 
 211:Drivers/CMSIS/DSP/Source/FilteringFunctions/arm_correlate_f32.c ****   /* sum = x[0] * y[srcBlen - 1]
 212:Drivers/CMSIS/DSP/Source/FilteringFunctions/arm_correlate_f32.c ****    * sum = x[0] * y[srcBlen-2] + x[1] * y[srcBlen - 1]
 213:Drivers/CMSIS/DSP/Source/FilteringFunctions/arm_correlate_f32.c ****    * ....
 214:Drivers/CMSIS/DSP/Source/FilteringFunctions/arm_correlate_f32.c ****    * sum = x[0] * y[0] + x[1] * y[1] +...+ x[srcBLen - 1] * y[srcBLen - 1]
 215:Drivers/CMSIS/DSP/Source/FilteringFunctions/arm_correlate_f32.c ****    */
 216:Drivers/CMSIS/DSP/Source/FilteringFunctions/arm_correlate_f32.c **** 
 217:Drivers/CMSIS/DSP/Source/FilteringFunctions/arm_correlate_f32.c ****   /* In this stage the MAC operations are increased by 1 for every iteration.
 218:Drivers/CMSIS/DSP/Source/FilteringFunctions/arm_correlate_f32.c ****      The count variable holds the number of MAC operations performed */
 219:Drivers/CMSIS/DSP/Source/FilteringFunctions/arm_correlate_f32.c ****   count = 1U;
 106              		.loc 1 219 3 view .LVU33
 220:Drivers/CMSIS/DSP/Source/FilteringFunctions/arm_correlate_f32.c **** 
 221:Drivers/CMSIS/DSP/Source/FilteringFunctions/arm_correlate_f32.c ****   /* Working pointer of inputA */
 222:Drivers/CMSIS/DSP/Source/FilteringFunctions/arm_correlate_f32.c ****   px = pIn1;
 107              		.loc 1 222 3 view .LVU34
 223:Drivers/CMSIS/DSP/Source/FilteringFunctions/arm_correlate_f32.c **** 
 224:Drivers/CMSIS/DSP/Source/FilteringFunctions/arm_correlate_f32.c ****   /* Working pointer of inputB */
 225:Drivers/CMSIS/DSP/Source/FilteringFunctions/arm_correlate_f32.c ****   pSrc1 = pIn2 + (srcBLen - 1U);
 108              		.loc 1 225 3 view .LVU35
 109              		.loc 1 225 16 is_stmt 0 view .LVU36
 110 0028 6FF0404A 		mvn	r10, #-1073741824
 111 002c B244     		add	r10, r10, r6
 112              		.loc 1 225 9 view .LVU37
 113 002e 00EB8A0A 		add	r10, r0, r10, lsl #2
 114              	.LVL14:
 226:Drivers/CMSIS/DSP/Source/FilteringFunctions/arm_correlate_f32.c ****   py = pSrc1;
 115              		.loc 1 226 3 is_stmt 1 view .LVU38
 227:Drivers/CMSIS/DSP/Source/FilteringFunctions/arm_correlate_f32.c **** 
ARM GAS  /var/folders/n6/c271nzx11xl4r4_m7sqjlt0m0000gn/T//cct3ykq1.s 			page 7


 228:Drivers/CMSIS/DSP/Source/FilteringFunctions/arm_correlate_f32.c ****   /* ------------------------
 229:Drivers/CMSIS/DSP/Source/FilteringFunctions/arm_correlate_f32.c ****    * Stage1 process
 230:Drivers/CMSIS/DSP/Source/FilteringFunctions/arm_correlate_f32.c ****    * ----------------------*/
 231:Drivers/CMSIS/DSP/Source/FilteringFunctions/arm_correlate_f32.c **** 
 232:Drivers/CMSIS/DSP/Source/FilteringFunctions/arm_correlate_f32.c ****   /* The first stage starts here */
 233:Drivers/CMSIS/DSP/Source/FilteringFunctions/arm_correlate_f32.c ****   while (blockSize1 > 0U)
 116              		.loc 1 233 3 view .LVU39
 203:Drivers/CMSIS/DSP/Source/FilteringFunctions/arm_correlate_f32.c ****   blockSize2 = srcALen - (srcBLen - 1U);
 117              		.loc 1 203 14 is_stmt 0 view .LVU40
 118 0032 2346     		mov	r3, r4
 226:Drivers/CMSIS/DSP/Source/FilteringFunctions/arm_correlate_f32.c ****   py = pSrc1;
 119              		.loc 1 226 6 view .LVU41
 120 0034 5146     		mov	r1, r10
 219:Drivers/CMSIS/DSP/Source/FilteringFunctions/arm_correlate_f32.c **** 
 121              		.loc 1 219 9 view .LVU42
 122 0036 4FF00109 		mov	r9, #1
 123              		.loc 1 233 9 view .LVU43
 124 003a 4BE0     		b	.L4
 125              	.LVL15:
 126              	.L2:
 175:Drivers/CMSIS/DSP/Source/FilteringFunctions/arm_correlate_f32.c **** 
 127              		.loc 1 175 5 is_stmt 1 view .LVU44
 178:Drivers/CMSIS/DSP/Source/FilteringFunctions/arm_correlate_f32.c **** 
 128              		.loc 1 178 5 view .LVU45
 181:Drivers/CMSIS/DSP/Source/FilteringFunctions/arm_correlate_f32.c ****     srcBLen = srcALen;
 129              		.loc 1 181 5 view .LVU46
 182:Drivers/CMSIS/DSP/Source/FilteringFunctions/arm_correlate_f32.c ****     srcALen = j;
 130              		.loc 1 182 5 view .LVU47
 183:Drivers/CMSIS/DSP/Source/FilteringFunctions/arm_correlate_f32.c **** 
 131              		.loc 1 183 5 view .LVU48
 187:Drivers/CMSIS/DSP/Source/FilteringFunctions/arm_correlate_f32.c **** 
 132              		.loc 1 187 5 view .LVU49
 187:Drivers/CMSIS/DSP/Source/FilteringFunctions/arm_correlate_f32.c **** 
 133              		.loc 1 187 29 is_stmt 0 view .LVU50
 134 003c CA18     		adds	r2, r1, r3
 187:Drivers/CMSIS/DSP/Source/FilteringFunctions/arm_correlate_f32.c **** 
 135              		.loc 1 187 17 view .LVU51
 136 003e D44B     		ldr	r3, .L40
 137              	.LVL16:
 187:Drivers/CMSIS/DSP/Source/FilteringFunctions/arm_correlate_f32.c **** 
 138              		.loc 1 187 17 view .LVU52
 139 0040 1344     		add	r3, r3, r2
 187:Drivers/CMSIS/DSP/Source/FilteringFunctions/arm_correlate_f32.c **** 
 140              		.loc 1 187 10 view .LVU53
 141 0042 099A     		ldr	r2, [sp, #36]
 142 0044 02EB830E 		add	lr, r2, r3, lsl #2
 143              	.LVL17:
 190:Drivers/CMSIS/DSP/Source/FilteringFunctions/arm_correlate_f32.c **** 
 144              		.loc 1 190 5 is_stmt 1 view .LVU54
 187:Drivers/CMSIS/DSP/Source/FilteringFunctions/arm_correlate_f32.c **** 
 145              		.loc 1 187 10 is_stmt 0 view .LVU55
 146 0048 2B46     		mov	r3, r5
 175:Drivers/CMSIS/DSP/Source/FilteringFunctions/arm_correlate_f32.c **** 
 147              		.loc 1 175 10 view .LVU56
 148 004a 0546     		mov	r5, r0
 149              	.LVL18:
 178:Drivers/CMSIS/DSP/Source/FilteringFunctions/arm_correlate_f32.c **** 
ARM GAS  /var/folders/n6/c271nzx11xl4r4_m7sqjlt0m0000gn/T//cct3ykq1.s 			page 8


 150              		.loc 1 178 10 view .LVU57
 151 004c 1846     		mov	r0, r3
 152              	.LVL19:
 187:Drivers/CMSIS/DSP/Source/FilteringFunctions/arm_correlate_f32.c **** 
 153              		.loc 1 187 10 view .LVU58
 154 004e 0B46     		mov	r3, r1
 155              	.LVL20:
 183:Drivers/CMSIS/DSP/Source/FilteringFunctions/arm_correlate_f32.c **** 
 156              		.loc 1 183 13 view .LVU59
 157 0050 3146     		mov	r1, r6
 158              	.LVL21:
 182:Drivers/CMSIS/DSP/Source/FilteringFunctions/arm_correlate_f32.c ****     srcALen = j;
 159              		.loc 1 182 13 view .LVU60
 160 0052 1E46     		mov	r6, r3
 161              	.LVL22:
 190:Drivers/CMSIS/DSP/Source/FilteringFunctions/arm_correlate_f32.c **** 
 162              		.loc 1 190 9 view .LVU61
 163 0054 4FF0FF32 		mov	r2, #-1
 164 0058 E2E7     		b	.L3
 165              	.LVL23:
 166              	.L6:
 234:Drivers/CMSIS/DSP/Source/FilteringFunctions/arm_correlate_f32.c ****   {
 235:Drivers/CMSIS/DSP/Source/FilteringFunctions/arm_correlate_f32.c ****     /* Accumulator is made zero for every iteration */
 236:Drivers/CMSIS/DSP/Source/FilteringFunctions/arm_correlate_f32.c ****     sum = 0.0f;
 237:Drivers/CMSIS/DSP/Source/FilteringFunctions/arm_correlate_f32.c **** 
 238:Drivers/CMSIS/DSP/Source/FilteringFunctions/arm_correlate_f32.c ****     /* Apply loop unrolling and compute 4 MACs simultaneously. */
 239:Drivers/CMSIS/DSP/Source/FilteringFunctions/arm_correlate_f32.c ****     k = count >> 2U;
 240:Drivers/CMSIS/DSP/Source/FilteringFunctions/arm_correlate_f32.c **** 
 241:Drivers/CMSIS/DSP/Source/FilteringFunctions/arm_correlate_f32.c ****     /* First part of the processing with loop unrolling.  Compute 4 MACs at a time.
 242:Drivers/CMSIS/DSP/Source/FilteringFunctions/arm_correlate_f32.c ****      ** a second loop below computes MACs for the remaining 1 to 3 samples. */
 243:Drivers/CMSIS/DSP/Source/FilteringFunctions/arm_correlate_f32.c ****     while (k > 0U)
 244:Drivers/CMSIS/DSP/Source/FilteringFunctions/arm_correlate_f32.c ****     {
 245:Drivers/CMSIS/DSP/Source/FilteringFunctions/arm_correlate_f32.c ****       /* x[0] * y[srcBLen - 4] */
 246:Drivers/CMSIS/DSP/Source/FilteringFunctions/arm_correlate_f32.c ****       sum += *px++ * *py++;
 167              		.loc 1 246 7 is_stmt 1 view .LVU62
 168              		.loc 1 246 14 is_stmt 0 view .LVU63
 169 005a 9CED007A 		vldr.32	s14, [ip]
 170              	.LVL24:
 171              		.loc 1 246 22 view .LVU64
 172 005e D1ED006A 		vldr.32	s13, [r1]
 173              		.loc 1 246 20 view .LVU65
 174 0062 27EE267A 		vmul.f32	s14, s14, s13
 175              		.loc 1 246 11 view .LVU66
 176 0066 77EE877A 		vadd.f32	s15, s15, s14
 177              	.LVL25:
 247:Drivers/CMSIS/DSP/Source/FilteringFunctions/arm_correlate_f32.c ****       /* x[1] * y[srcBLen - 3] */
 248:Drivers/CMSIS/DSP/Source/FilteringFunctions/arm_correlate_f32.c ****       sum += *px++ * *py++;
 178              		.loc 1 248 7 is_stmt 1 view .LVU67
 179              		.loc 1 248 14 is_stmt 0 view .LVU68
 180 006a 9CED017A 		vldr.32	s14, [ip, #4]
 181              	.LVL26:
 182              		.loc 1 248 22 view .LVU69
 183 006e D1ED016A 		vldr.32	s13, [r1, #4]
 184              		.loc 1 248 20 view .LVU70
 185 0072 27EE267A 		vmul.f32	s14, s14, s13
 186              		.loc 1 248 11 view .LVU71
 187 0076 77EE877A 		vadd.f32	s15, s15, s14
ARM GAS  /var/folders/n6/c271nzx11xl4r4_m7sqjlt0m0000gn/T//cct3ykq1.s 			page 9


 188              	.LVL27:
 249:Drivers/CMSIS/DSP/Source/FilteringFunctions/arm_correlate_f32.c ****       /* x[2] * y[srcBLen - 2] */
 250:Drivers/CMSIS/DSP/Source/FilteringFunctions/arm_correlate_f32.c ****       sum += *px++ * *py++;
 189              		.loc 1 250 7 is_stmt 1 view .LVU72
 190              		.loc 1 250 14 is_stmt 0 view .LVU73
 191 007a 9CED027A 		vldr.32	s14, [ip, #8]
 192              	.LVL28:
 193              		.loc 1 250 22 view .LVU74
 194 007e D1ED026A 		vldr.32	s13, [r1, #8]
 195              		.loc 1 250 20 view .LVU75
 196 0082 27EE267A 		vmul.f32	s14, s14, s13
 197              		.loc 1 250 11 view .LVU76
 198 0086 77EE877A 		vadd.f32	s15, s15, s14
 199              	.LVL29:
 251:Drivers/CMSIS/DSP/Source/FilteringFunctions/arm_correlate_f32.c ****       /* x[3] * y[srcBLen - 1] */
 252:Drivers/CMSIS/DSP/Source/FilteringFunctions/arm_correlate_f32.c ****       sum += *px++ * *py++;
 200              		.loc 1 252 7 is_stmt 1 view .LVU77
 201              		.loc 1 252 14 is_stmt 0 view .LVU78
 202 008a 9CED037A 		vldr.32	s14, [ip, #12]
 203              	.LVL30:
 204              		.loc 1 252 22 view .LVU79
 205 008e D1ED036A 		vldr.32	s13, [r1, #12]
 206              		.loc 1 252 20 view .LVU80
 207 0092 27EE267A 		vmul.f32	s14, s14, s13
 208              		.loc 1 252 11 view .LVU81
 209 0096 77EE877A 		vadd.f32	s15, s15, s14
 210              	.LVL31:
 253:Drivers/CMSIS/DSP/Source/FilteringFunctions/arm_correlate_f32.c **** 
 254:Drivers/CMSIS/DSP/Source/FilteringFunctions/arm_correlate_f32.c ****       /* Decrement the loop counter */
 255:Drivers/CMSIS/DSP/Source/FilteringFunctions/arm_correlate_f32.c ****       k--;
 211              		.loc 1 255 7 is_stmt 1 view .LVU82
 212              		.loc 1 255 8 is_stmt 0 view .LVU83
 213 009a 013F     		subs	r7, r7, #1
 214              	.LVL32:
 252:Drivers/CMSIS/DSP/Source/FilteringFunctions/arm_correlate_f32.c **** 
 215              		.loc 1 252 25 view .LVU84
 216 009c 1031     		adds	r1, r1, #16
 217              	.LVL33:
 252:Drivers/CMSIS/DSP/Source/FilteringFunctions/arm_correlate_f32.c **** 
 218              		.loc 1 252 17 view .LVU85
 219 009e 0CF1100C 		add	ip, ip, #16
 220              	.LVL34:
 221              	.L5:
 243:Drivers/CMSIS/DSP/Source/FilteringFunctions/arm_correlate_f32.c ****     {
 222              		.loc 1 243 14 is_stmt 1 view .LVU86
 223 00a2 002F     		cmp	r7, #0
 224 00a4 D9D1     		bne	.L6
 256:Drivers/CMSIS/DSP/Source/FilteringFunctions/arm_correlate_f32.c ****     }
 257:Drivers/CMSIS/DSP/Source/FilteringFunctions/arm_correlate_f32.c **** 
 258:Drivers/CMSIS/DSP/Source/FilteringFunctions/arm_correlate_f32.c ****     /* If the count is not a multiple of 4, compute any remaining MACs here.
 259:Drivers/CMSIS/DSP/Source/FilteringFunctions/arm_correlate_f32.c ****      ** No loop unrolling is used. */
 260:Drivers/CMSIS/DSP/Source/FilteringFunctions/arm_correlate_f32.c ****     k = count % 0x4U;
 225              		.loc 1 260 5 view .LVU87
 226              		.loc 1 260 7 is_stmt 0 view .LVU88
 227 00a6 09F00307 		and	r7, r9, #3
 228              	.LVL35:
 261:Drivers/CMSIS/DSP/Source/FilteringFunctions/arm_correlate_f32.c **** 
ARM GAS  /var/folders/n6/c271nzx11xl4r4_m7sqjlt0m0000gn/T//cct3ykq1.s 			page 10


 262:Drivers/CMSIS/DSP/Source/FilteringFunctions/arm_correlate_f32.c ****     while (k > 0U)
 229              		.loc 1 262 5 is_stmt 1 view .LVU89
 230              		.loc 1 262 11 is_stmt 0 view .LVU90
 231 00aa 08E0     		b	.L7
 232              	.L8:
 263:Drivers/CMSIS/DSP/Source/FilteringFunctions/arm_correlate_f32.c ****     {
 264:Drivers/CMSIS/DSP/Source/FilteringFunctions/arm_correlate_f32.c ****       /* Perform the multiply-accumulate */
 265:Drivers/CMSIS/DSP/Source/FilteringFunctions/arm_correlate_f32.c ****       /* x[0] * y[srcBLen - 1] */
 266:Drivers/CMSIS/DSP/Source/FilteringFunctions/arm_correlate_f32.c ****       sum += *px++ * *py++;
 233              		.loc 1 266 7 is_stmt 1 view .LVU91
 234              	.LVL36:
 235              		.loc 1 266 14 is_stmt 0 view .LVU92
 236 00ac BCEC017A 		vldmia.32	ip!, {s14}
 237              	.LVL37:
 238              		.loc 1 266 22 view .LVU93
 239 00b0 F1EC016A 		vldmia.32	r1!, {s13}
 240              	.LVL38:
 241              		.loc 1 266 20 view .LVU94
 242 00b4 27EE267A 		vmul.f32	s14, s14, s13
 243              		.loc 1 266 11 view .LVU95
 244 00b8 77EE877A 		vadd.f32	s15, s15, s14
 245              	.LVL39:
 267:Drivers/CMSIS/DSP/Source/FilteringFunctions/arm_correlate_f32.c **** 
 268:Drivers/CMSIS/DSP/Source/FilteringFunctions/arm_correlate_f32.c ****       /* Decrement the loop counter */
 269:Drivers/CMSIS/DSP/Source/FilteringFunctions/arm_correlate_f32.c ****       k--;
 246              		.loc 1 269 7 is_stmt 1 view .LVU96
 247              		.loc 1 269 8 is_stmt 0 view .LVU97
 248 00bc 013F     		subs	r7, r7, #1
 249              	.LVL40:
 250              	.L7:
 262:Drivers/CMSIS/DSP/Source/FilteringFunctions/arm_correlate_f32.c ****     {
 251              		.loc 1 262 14 is_stmt 1 view .LVU98
 252 00be 002F     		cmp	r7, #0
 253 00c0 F4D1     		bne	.L8
 270:Drivers/CMSIS/DSP/Source/FilteringFunctions/arm_correlate_f32.c ****     }
 271:Drivers/CMSIS/DSP/Source/FilteringFunctions/arm_correlate_f32.c **** 
 272:Drivers/CMSIS/DSP/Source/FilteringFunctions/arm_correlate_f32.c ****     /* Store the result in the accumulator in the destination buffer. */
 273:Drivers/CMSIS/DSP/Source/FilteringFunctions/arm_correlate_f32.c ****     *pOut = sum;
 254              		.loc 1 273 5 view .LVU99
 255              		.loc 1 273 11 is_stmt 0 view .LVU100
 256 00c2 CEED007A 		vstr.32	s15, [lr]
 274:Drivers/CMSIS/DSP/Source/FilteringFunctions/arm_correlate_f32.c ****     /* Destination pointer is updated according to the address modifier, inc */
 275:Drivers/CMSIS/DSP/Source/FilteringFunctions/arm_correlate_f32.c ****     pOut += inc;
 257              		.loc 1 275 5 is_stmt 1 view .LVU101
 258              		.loc 1 275 10 is_stmt 0 view .LVU102
 259 00c6 0EEB820E 		add	lr, lr, r2, lsl #2
 260              	.LVL41:
 276:Drivers/CMSIS/DSP/Source/FilteringFunctions/arm_correlate_f32.c **** 
 277:Drivers/CMSIS/DSP/Source/FilteringFunctions/arm_correlate_f32.c ****     /* Update the inputA and inputB pointers for next MAC calculation */
 278:Drivers/CMSIS/DSP/Source/FilteringFunctions/arm_correlate_f32.c ****     py = pSrc1 - count;
 261              		.loc 1 278 5 is_stmt 1 view .LVU103
 262              		.loc 1 278 8 is_stmt 0 view .LVU104
 263 00ca AAEB8901 		sub	r1, r10, r9, lsl #2
 264              	.LVL42:
 279:Drivers/CMSIS/DSP/Source/FilteringFunctions/arm_correlate_f32.c ****     px = pIn1;
 265              		.loc 1 279 5 is_stmt 1 view .LVU105
 280:Drivers/CMSIS/DSP/Source/FilteringFunctions/arm_correlate_f32.c **** 
ARM GAS  /var/folders/n6/c271nzx11xl4r4_m7sqjlt0m0000gn/T//cct3ykq1.s 			page 11


 281:Drivers/CMSIS/DSP/Source/FilteringFunctions/arm_correlate_f32.c ****     /* Increment the MAC count */
 282:Drivers/CMSIS/DSP/Source/FilteringFunctions/arm_correlate_f32.c ****     count++;
 266              		.loc 1 282 5 view .LVU106
 267              		.loc 1 282 10 is_stmt 0 view .LVU107
 268 00ce 09F10109 		add	r9, r9, #1
 269              	.LVL43:
 283:Drivers/CMSIS/DSP/Source/FilteringFunctions/arm_correlate_f32.c **** 
 284:Drivers/CMSIS/DSP/Source/FilteringFunctions/arm_correlate_f32.c ****     /* Decrement the loop counter */
 285:Drivers/CMSIS/DSP/Source/FilteringFunctions/arm_correlate_f32.c ****     blockSize1--;
 270              		.loc 1 285 5 is_stmt 1 view .LVU108
 271              		.loc 1 285 15 is_stmt 0 view .LVU109
 272 00d2 013B     		subs	r3, r3, #1
 273              	.LVL44:
 274              	.L4:
 233:Drivers/CMSIS/DSP/Source/FilteringFunctions/arm_correlate_f32.c ****   {
 275              		.loc 1 233 21 is_stmt 1 view .LVU110
 276 00d4 2BB1     		cbz	r3, .L34
 236:Drivers/CMSIS/DSP/Source/FilteringFunctions/arm_correlate_f32.c **** 
 277              		.loc 1 236 5 view .LVU111
 278              	.LVL45:
 239:Drivers/CMSIS/DSP/Source/FilteringFunctions/arm_correlate_f32.c **** 
 279              		.loc 1 239 5 view .LVU112
 239:Drivers/CMSIS/DSP/Source/FilteringFunctions/arm_correlate_f32.c **** 
 280              		.loc 1 239 7 is_stmt 0 view .LVU113
 281 00d6 4FEA9907 		lsr	r7, r9, #2
 282              	.LVL46:
 243:Drivers/CMSIS/DSP/Source/FilteringFunctions/arm_correlate_f32.c ****     {
 283              		.loc 1 243 5 is_stmt 1 view .LVU114
 243:Drivers/CMSIS/DSP/Source/FilteringFunctions/arm_correlate_f32.c ****     {
 284              		.loc 1 243 11 is_stmt 0 view .LVU115
 285 00da AC46     		mov	ip, r5
 236:Drivers/CMSIS/DSP/Source/FilteringFunctions/arm_correlate_f32.c **** 
 286              		.loc 1 236 9 view .LVU116
 287 00dc DFEDAD7A 		vldr.32	s15, .L40+4
 243:Drivers/CMSIS/DSP/Source/FilteringFunctions/arm_correlate_f32.c ****     {
 288              		.loc 1 243 11 view .LVU117
 289 00e0 DFE7     		b	.L5
 290              	.LVL47:
 291              	.L34:
 286:Drivers/CMSIS/DSP/Source/FilteringFunctions/arm_correlate_f32.c ****   }
 287:Drivers/CMSIS/DSP/Source/FilteringFunctions/arm_correlate_f32.c **** 
 288:Drivers/CMSIS/DSP/Source/FilteringFunctions/arm_correlate_f32.c ****   /* --------------------------
 289:Drivers/CMSIS/DSP/Source/FilteringFunctions/arm_correlate_f32.c ****    * Initializations of stage2
 290:Drivers/CMSIS/DSP/Source/FilteringFunctions/arm_correlate_f32.c ****    * ------------------------*/
 291:Drivers/CMSIS/DSP/Source/FilteringFunctions/arm_correlate_f32.c **** 
 292:Drivers/CMSIS/DSP/Source/FilteringFunctions/arm_correlate_f32.c ****   /* sum = x[0] * y[0] + x[1] * y[1] +...+ x[srcBLen-1] * y[srcBLen-1]
 293:Drivers/CMSIS/DSP/Source/FilteringFunctions/arm_correlate_f32.c ****    * sum = x[1] * y[0] + x[2] * y[1] +...+ x[srcBLen] * y[srcBLen-1]
 294:Drivers/CMSIS/DSP/Source/FilteringFunctions/arm_correlate_f32.c ****    * ....
 295:Drivers/CMSIS/DSP/Source/FilteringFunctions/arm_correlate_f32.c ****    * sum = x[srcALen-srcBLen-2] * y[0] + x[srcALen-srcBLen-1] * y[1] +...+ x[srcALen-1] * y[srcBLen
 296:Drivers/CMSIS/DSP/Source/FilteringFunctions/arm_correlate_f32.c ****    */
 297:Drivers/CMSIS/DSP/Source/FilteringFunctions/arm_correlate_f32.c **** 
 298:Drivers/CMSIS/DSP/Source/FilteringFunctions/arm_correlate_f32.c ****   /* Working pointer of inputA */
 299:Drivers/CMSIS/DSP/Source/FilteringFunctions/arm_correlate_f32.c ****   px = pIn1;
 292              		.loc 1 299 3 is_stmt 1 view .LVU118
 300:Drivers/CMSIS/DSP/Source/FilteringFunctions/arm_correlate_f32.c **** 
 301:Drivers/CMSIS/DSP/Source/FilteringFunctions/arm_correlate_f32.c ****   /* Working pointer of inputB */
 302:Drivers/CMSIS/DSP/Source/FilteringFunctions/arm_correlate_f32.c ****   py = pIn2;
ARM GAS  /var/folders/n6/c271nzx11xl4r4_m7sqjlt0m0000gn/T//cct3ykq1.s 			page 12


 293              		.loc 1 302 3 view .LVU119
 303:Drivers/CMSIS/DSP/Source/FilteringFunctions/arm_correlate_f32.c **** 
 304:Drivers/CMSIS/DSP/Source/FilteringFunctions/arm_correlate_f32.c ****   /* count is index by which the pointer pIn1 to be incremented */
 305:Drivers/CMSIS/DSP/Source/FilteringFunctions/arm_correlate_f32.c ****   count = 0U;
 294              		.loc 1 305 3 view .LVU120
 306:Drivers/CMSIS/DSP/Source/FilteringFunctions/arm_correlate_f32.c **** 
 307:Drivers/CMSIS/DSP/Source/FilteringFunctions/arm_correlate_f32.c ****   /* -------------------
 308:Drivers/CMSIS/DSP/Source/FilteringFunctions/arm_correlate_f32.c ****    * Stage2 process
 309:Drivers/CMSIS/DSP/Source/FilteringFunctions/arm_correlate_f32.c ****    * ------------------*/
 310:Drivers/CMSIS/DSP/Source/FilteringFunctions/arm_correlate_f32.c **** 
 311:Drivers/CMSIS/DSP/Source/FilteringFunctions/arm_correlate_f32.c ****   /* Stage2 depends on srcBLen as in this stage srcBLen number of MACS are performed.
 312:Drivers/CMSIS/DSP/Source/FilteringFunctions/arm_correlate_f32.c ****    * So, to loop unroll over blockSize2,
 313:Drivers/CMSIS/DSP/Source/FilteringFunctions/arm_correlate_f32.c ****    * srcBLen should be greater than or equal to 4, to loop unroll the srcBLen loop */
 314:Drivers/CMSIS/DSP/Source/FilteringFunctions/arm_correlate_f32.c ****   if (srcBLen >= 4U)
 295              		.loc 1 314 3 view .LVU121
 296              		.loc 1 314 6 is_stmt 0 view .LVU122
 297 00e2 032E     		cmp	r6, #3
 298 00e4 40F20A81 		bls	.L31
 315:Drivers/CMSIS/DSP/Source/FilteringFunctions/arm_correlate_f32.c ****   {
 316:Drivers/CMSIS/DSP/Source/FilteringFunctions/arm_correlate_f32.c ****     /* Loop unroll over blockSize2, by 4 */
 317:Drivers/CMSIS/DSP/Source/FilteringFunctions/arm_correlate_f32.c ****     blkCnt = blockSize2 >> 2U;
 299              		.loc 1 317 5 is_stmt 1 view .LVU123
 300              		.loc 1 317 12 is_stmt 0 view .LVU124
 301 00e8 4FEA9B09 		lsr	r9, fp, #2
 302              	.LVL48:
 318:Drivers/CMSIS/DSP/Source/FilteringFunctions/arm_correlate_f32.c **** 
 319:Drivers/CMSIS/DSP/Source/FilteringFunctions/arm_correlate_f32.c ****     while (blkCnt > 0U)
 303              		.loc 1 319 5 is_stmt 1 view .LVU125
 299:Drivers/CMSIS/DSP/Source/FilteringFunctions/arm_correlate_f32.c **** 
 304              		.loc 1 299 6 is_stmt 0 view .LVU126
 305 00ec AC46     		mov	ip, r5
 306              		.loc 1 319 11 view .LVU127
 307 00ee 14E0     		b	.L11
 308              	.LVL49:
 309              	.L36:
 320:Drivers/CMSIS/DSP/Source/FilteringFunctions/arm_correlate_f32.c ****     {
 321:Drivers/CMSIS/DSP/Source/FilteringFunctions/arm_correlate_f32.c ****       /* Set all accumulators to zero */
 322:Drivers/CMSIS/DSP/Source/FilteringFunctions/arm_correlate_f32.c ****       acc0 = 0.0f;
 323:Drivers/CMSIS/DSP/Source/FilteringFunctions/arm_correlate_f32.c ****       acc1 = 0.0f;
 324:Drivers/CMSIS/DSP/Source/FilteringFunctions/arm_correlate_f32.c ****       acc2 = 0.0f;
 325:Drivers/CMSIS/DSP/Source/FilteringFunctions/arm_correlate_f32.c ****       acc3 = 0.0f;
 326:Drivers/CMSIS/DSP/Source/FilteringFunctions/arm_correlate_f32.c **** 
 327:Drivers/CMSIS/DSP/Source/FilteringFunctions/arm_correlate_f32.c ****       /* read x[0], x[1], x[2] samples */
 328:Drivers/CMSIS/DSP/Source/FilteringFunctions/arm_correlate_f32.c ****       x0 = *(px++);
 329:Drivers/CMSIS/DSP/Source/FilteringFunctions/arm_correlate_f32.c ****       x1 = *(px++);
 330:Drivers/CMSIS/DSP/Source/FilteringFunctions/arm_correlate_f32.c ****       x2 = *(px++);
 331:Drivers/CMSIS/DSP/Source/FilteringFunctions/arm_correlate_f32.c **** 
 332:Drivers/CMSIS/DSP/Source/FilteringFunctions/arm_correlate_f32.c ****       /* Apply loop unrolling and compute 4 MACs simultaneously. */
 333:Drivers/CMSIS/DSP/Source/FilteringFunctions/arm_correlate_f32.c ****       k = srcBLen >> 2U;
 334:Drivers/CMSIS/DSP/Source/FilteringFunctions/arm_correlate_f32.c **** 
 335:Drivers/CMSIS/DSP/Source/FilteringFunctions/arm_correlate_f32.c ****       /* First part of the processing with loop unrolling.  Compute 4 MACs at a time.
 336:Drivers/CMSIS/DSP/Source/FilteringFunctions/arm_correlate_f32.c ****        ** a second loop below computes MACs for the remaining 1 to 3 samples. */
 337:Drivers/CMSIS/DSP/Source/FilteringFunctions/arm_correlate_f32.c ****       do
 338:Drivers/CMSIS/DSP/Source/FilteringFunctions/arm_correlate_f32.c ****       {
 339:Drivers/CMSIS/DSP/Source/FilteringFunctions/arm_correlate_f32.c ****         /* Read y[0] sample */
 340:Drivers/CMSIS/DSP/Source/FilteringFunctions/arm_correlate_f32.c ****         c0 = *(py++);
 341:Drivers/CMSIS/DSP/Source/FilteringFunctions/arm_correlate_f32.c **** 
ARM GAS  /var/folders/n6/c271nzx11xl4r4_m7sqjlt0m0000gn/T//cct3ykq1.s 			page 13


 342:Drivers/CMSIS/DSP/Source/FilteringFunctions/arm_correlate_f32.c ****         /* Read x[3] sample */
 343:Drivers/CMSIS/DSP/Source/FilteringFunctions/arm_correlate_f32.c ****         x3 = *(px++);
 344:Drivers/CMSIS/DSP/Source/FilteringFunctions/arm_correlate_f32.c **** 
 345:Drivers/CMSIS/DSP/Source/FilteringFunctions/arm_correlate_f32.c ****         /* Perform the multiply-accumulate */
 346:Drivers/CMSIS/DSP/Source/FilteringFunctions/arm_correlate_f32.c ****         /* acc0 +=  x[0] * y[0] */
 347:Drivers/CMSIS/DSP/Source/FilteringFunctions/arm_correlate_f32.c ****         acc0 += x0 * c0;
 348:Drivers/CMSIS/DSP/Source/FilteringFunctions/arm_correlate_f32.c ****         /* acc1 +=  x[1] * y[0] */
 349:Drivers/CMSIS/DSP/Source/FilteringFunctions/arm_correlate_f32.c ****         acc1 += x1 * c0;
 350:Drivers/CMSIS/DSP/Source/FilteringFunctions/arm_correlate_f32.c ****         /* acc2 +=  x[2] * y[0] */
 351:Drivers/CMSIS/DSP/Source/FilteringFunctions/arm_correlate_f32.c ****         acc2 += x2 * c0;
 352:Drivers/CMSIS/DSP/Source/FilteringFunctions/arm_correlate_f32.c ****         /* acc3 +=  x[3] * y[0] */
 353:Drivers/CMSIS/DSP/Source/FilteringFunctions/arm_correlate_f32.c ****         acc3 += x3 * c0;
 354:Drivers/CMSIS/DSP/Source/FilteringFunctions/arm_correlate_f32.c **** 
 355:Drivers/CMSIS/DSP/Source/FilteringFunctions/arm_correlate_f32.c ****         /* Read y[1] sample */
 356:Drivers/CMSIS/DSP/Source/FilteringFunctions/arm_correlate_f32.c ****         c0 = *(py++);
 357:Drivers/CMSIS/DSP/Source/FilteringFunctions/arm_correlate_f32.c **** 
 358:Drivers/CMSIS/DSP/Source/FilteringFunctions/arm_correlate_f32.c ****         /* Read x[4] sample */
 359:Drivers/CMSIS/DSP/Source/FilteringFunctions/arm_correlate_f32.c ****         x0 = *(px++);
 360:Drivers/CMSIS/DSP/Source/FilteringFunctions/arm_correlate_f32.c **** 
 361:Drivers/CMSIS/DSP/Source/FilteringFunctions/arm_correlate_f32.c ****         /* Perform the multiply-accumulate */
 362:Drivers/CMSIS/DSP/Source/FilteringFunctions/arm_correlate_f32.c ****         /* acc0 +=  x[1] * y[1] */
 363:Drivers/CMSIS/DSP/Source/FilteringFunctions/arm_correlate_f32.c ****         acc0 += x1 * c0;
 364:Drivers/CMSIS/DSP/Source/FilteringFunctions/arm_correlate_f32.c ****         /* acc1 +=  x[2] * y[1] */
 365:Drivers/CMSIS/DSP/Source/FilteringFunctions/arm_correlate_f32.c ****         acc1 += x2 * c0;
 366:Drivers/CMSIS/DSP/Source/FilteringFunctions/arm_correlate_f32.c ****         /* acc2 +=  x[3] * y[1] */
 367:Drivers/CMSIS/DSP/Source/FilteringFunctions/arm_correlate_f32.c ****         acc2 += x3 * c0;
 368:Drivers/CMSIS/DSP/Source/FilteringFunctions/arm_correlate_f32.c ****         /* acc3 +=  x[4] * y[1] */
 369:Drivers/CMSIS/DSP/Source/FilteringFunctions/arm_correlate_f32.c ****         acc3 += x0 * c0;
 370:Drivers/CMSIS/DSP/Source/FilteringFunctions/arm_correlate_f32.c **** 
 371:Drivers/CMSIS/DSP/Source/FilteringFunctions/arm_correlate_f32.c ****         /* Read y[2] sample */
 372:Drivers/CMSIS/DSP/Source/FilteringFunctions/arm_correlate_f32.c ****         c0 = *(py++);
 373:Drivers/CMSIS/DSP/Source/FilteringFunctions/arm_correlate_f32.c **** 
 374:Drivers/CMSIS/DSP/Source/FilteringFunctions/arm_correlate_f32.c ****         /* Read x[5] sample */
 375:Drivers/CMSIS/DSP/Source/FilteringFunctions/arm_correlate_f32.c ****         x1 = *(px++);
 376:Drivers/CMSIS/DSP/Source/FilteringFunctions/arm_correlate_f32.c **** 
 377:Drivers/CMSIS/DSP/Source/FilteringFunctions/arm_correlate_f32.c ****         /* Perform the multiply-accumulates */
 378:Drivers/CMSIS/DSP/Source/FilteringFunctions/arm_correlate_f32.c ****         /* acc0 +=  x[2] * y[2] */
 379:Drivers/CMSIS/DSP/Source/FilteringFunctions/arm_correlate_f32.c ****         acc0 += x2 * c0;
 380:Drivers/CMSIS/DSP/Source/FilteringFunctions/arm_correlate_f32.c ****         /* acc1 +=  x[3] * y[2] */
 381:Drivers/CMSIS/DSP/Source/FilteringFunctions/arm_correlate_f32.c ****         acc1 += x3 * c0;
 382:Drivers/CMSIS/DSP/Source/FilteringFunctions/arm_correlate_f32.c ****         /* acc2 +=  x[4] * y[2] */
 383:Drivers/CMSIS/DSP/Source/FilteringFunctions/arm_correlate_f32.c ****         acc2 += x0 * c0;
 384:Drivers/CMSIS/DSP/Source/FilteringFunctions/arm_correlate_f32.c ****         /* acc3 +=  x[5] * y[2] */
 385:Drivers/CMSIS/DSP/Source/FilteringFunctions/arm_correlate_f32.c ****         acc3 += x1 * c0;
 386:Drivers/CMSIS/DSP/Source/FilteringFunctions/arm_correlate_f32.c **** 
 387:Drivers/CMSIS/DSP/Source/FilteringFunctions/arm_correlate_f32.c ****         /* Read y[3] sample */
 388:Drivers/CMSIS/DSP/Source/FilteringFunctions/arm_correlate_f32.c ****         c0 = *(py++);
 389:Drivers/CMSIS/DSP/Source/FilteringFunctions/arm_correlate_f32.c **** 
 390:Drivers/CMSIS/DSP/Source/FilteringFunctions/arm_correlate_f32.c ****         /* Read x[6] sample */
 391:Drivers/CMSIS/DSP/Source/FilteringFunctions/arm_correlate_f32.c ****         x2 = *(px++);
 392:Drivers/CMSIS/DSP/Source/FilteringFunctions/arm_correlate_f32.c **** 
 393:Drivers/CMSIS/DSP/Source/FilteringFunctions/arm_correlate_f32.c ****         /* Perform the multiply-accumulates */
 394:Drivers/CMSIS/DSP/Source/FilteringFunctions/arm_correlate_f32.c ****         /* acc0 +=  x[3] * y[3] */
 395:Drivers/CMSIS/DSP/Source/FilteringFunctions/arm_correlate_f32.c ****         acc0 += x3 * c0;
 396:Drivers/CMSIS/DSP/Source/FilteringFunctions/arm_correlate_f32.c ****         /* acc1 +=  x[4] * y[3] */
 397:Drivers/CMSIS/DSP/Source/FilteringFunctions/arm_correlate_f32.c ****         acc1 += x0 * c0;
 398:Drivers/CMSIS/DSP/Source/FilteringFunctions/arm_correlate_f32.c ****         /* acc2 +=  x[5] * y[3] */
ARM GAS  /var/folders/n6/c271nzx11xl4r4_m7sqjlt0m0000gn/T//cct3ykq1.s 			page 14


 399:Drivers/CMSIS/DSP/Source/FilteringFunctions/arm_correlate_f32.c ****         acc2 += x1 * c0;
 400:Drivers/CMSIS/DSP/Source/FilteringFunctions/arm_correlate_f32.c ****         /* acc3 +=  x[6] * y[3] */
 401:Drivers/CMSIS/DSP/Source/FilteringFunctions/arm_correlate_f32.c ****         acc3 += x2 * c0;
 402:Drivers/CMSIS/DSP/Source/FilteringFunctions/arm_correlate_f32.c **** 
 403:Drivers/CMSIS/DSP/Source/FilteringFunctions/arm_correlate_f32.c **** 
 404:Drivers/CMSIS/DSP/Source/FilteringFunctions/arm_correlate_f32.c ****       } while (--k);
 405:Drivers/CMSIS/DSP/Source/FilteringFunctions/arm_correlate_f32.c **** 
 406:Drivers/CMSIS/DSP/Source/FilteringFunctions/arm_correlate_f32.c ****       /* If the srcBLen is not a multiple of 4, compute any remaining MACs here.
 407:Drivers/CMSIS/DSP/Source/FilteringFunctions/arm_correlate_f32.c ****        ** No loop unrolling is used. */
 408:Drivers/CMSIS/DSP/Source/FilteringFunctions/arm_correlate_f32.c ****       k = srcBLen % 0x4U;
 409:Drivers/CMSIS/DSP/Source/FilteringFunctions/arm_correlate_f32.c **** 
 410:Drivers/CMSIS/DSP/Source/FilteringFunctions/arm_correlate_f32.c ****       while (k > 0U)
 411:Drivers/CMSIS/DSP/Source/FilteringFunctions/arm_correlate_f32.c ****       {
 412:Drivers/CMSIS/DSP/Source/FilteringFunctions/arm_correlate_f32.c ****         /* Read y[4] sample */
 413:Drivers/CMSIS/DSP/Source/FilteringFunctions/arm_correlate_f32.c ****         c0 = *(py++);
 414:Drivers/CMSIS/DSP/Source/FilteringFunctions/arm_correlate_f32.c **** 
 415:Drivers/CMSIS/DSP/Source/FilteringFunctions/arm_correlate_f32.c ****         /* Read x[7] sample */
 416:Drivers/CMSIS/DSP/Source/FilteringFunctions/arm_correlate_f32.c ****         x3 = *(px++);
 417:Drivers/CMSIS/DSP/Source/FilteringFunctions/arm_correlate_f32.c **** 
 418:Drivers/CMSIS/DSP/Source/FilteringFunctions/arm_correlate_f32.c ****         /* Perform the multiply-accumulates */
 419:Drivers/CMSIS/DSP/Source/FilteringFunctions/arm_correlate_f32.c ****         /* acc0 +=  x[4] * y[4] */
 420:Drivers/CMSIS/DSP/Source/FilteringFunctions/arm_correlate_f32.c ****         acc0 += x0 * c0;
 421:Drivers/CMSIS/DSP/Source/FilteringFunctions/arm_correlate_f32.c ****         /* acc1 +=  x[5] * y[4] */
 422:Drivers/CMSIS/DSP/Source/FilteringFunctions/arm_correlate_f32.c ****         acc1 += x1 * c0;
 423:Drivers/CMSIS/DSP/Source/FilteringFunctions/arm_correlate_f32.c ****         /* acc2 +=  x[6] * y[4] */
 424:Drivers/CMSIS/DSP/Source/FilteringFunctions/arm_correlate_f32.c ****         acc2 += x2 * c0;
 425:Drivers/CMSIS/DSP/Source/FilteringFunctions/arm_correlate_f32.c ****         /* acc3 +=  x[7] * y[4] */
 426:Drivers/CMSIS/DSP/Source/FilteringFunctions/arm_correlate_f32.c ****         acc3 += x3 * c0;
 427:Drivers/CMSIS/DSP/Source/FilteringFunctions/arm_correlate_f32.c **** 
 428:Drivers/CMSIS/DSP/Source/FilteringFunctions/arm_correlate_f32.c ****         /* Reuse the present samples for the next MAC */
 429:Drivers/CMSIS/DSP/Source/FilteringFunctions/arm_correlate_f32.c ****         x0 = x1;
 430:Drivers/CMSIS/DSP/Source/FilteringFunctions/arm_correlate_f32.c ****         x1 = x2;
 431:Drivers/CMSIS/DSP/Source/FilteringFunctions/arm_correlate_f32.c ****         x2 = x3;
 432:Drivers/CMSIS/DSP/Source/FilteringFunctions/arm_correlate_f32.c **** 
 433:Drivers/CMSIS/DSP/Source/FilteringFunctions/arm_correlate_f32.c ****         /* Decrement the loop counter */
 434:Drivers/CMSIS/DSP/Source/FilteringFunctions/arm_correlate_f32.c ****         k--;
 435:Drivers/CMSIS/DSP/Source/FilteringFunctions/arm_correlate_f32.c ****       }
 436:Drivers/CMSIS/DSP/Source/FilteringFunctions/arm_correlate_f32.c **** 
 437:Drivers/CMSIS/DSP/Source/FilteringFunctions/arm_correlate_f32.c ****       /* Store the result in the accumulator in the destination buffer. */
 438:Drivers/CMSIS/DSP/Source/FilteringFunctions/arm_correlate_f32.c ****       *pOut = acc0;
 310              		.loc 1 438 7 is_stmt 1 view .LVU128
 311              		.loc 1 438 13 is_stmt 0 view .LVU129
 312 00f0 8EED006A 		vstr.32	s12, [lr]
 439:Drivers/CMSIS/DSP/Source/FilteringFunctions/arm_correlate_f32.c ****       /* Destination pointer is updated according to the address modifier, inc */
 440:Drivers/CMSIS/DSP/Source/FilteringFunctions/arm_correlate_f32.c ****       pOut += inc;
 313              		.loc 1 440 7 is_stmt 1 view .LVU130
 314              		.loc 1 440 12 is_stmt 0 view .LVU131
 315 00f4 0EEB820E 		add	lr, lr, r2, lsl #2
 316              	.LVL50:
 441:Drivers/CMSIS/DSP/Source/FilteringFunctions/arm_correlate_f32.c **** 
 442:Drivers/CMSIS/DSP/Source/FilteringFunctions/arm_correlate_f32.c ****       *pOut = acc1;
 317              		.loc 1 442 7 is_stmt 1 view .LVU132
 318              		.loc 1 442 13 is_stmt 0 view .LVU133
 319 00f8 CEED003A 		vstr.32	s7, [lr]
 443:Drivers/CMSIS/DSP/Source/FilteringFunctions/arm_correlate_f32.c ****       pOut += inc;
 320              		.loc 1 443 7 is_stmt 1 view .LVU134
 321              		.loc 1 443 12 is_stmt 0 view .LVU135
ARM GAS  /var/folders/n6/c271nzx11xl4r4_m7sqjlt0m0000gn/T//cct3ykq1.s 			page 15


 322 00fc 0EEB820E 		add	lr, lr, r2, lsl #2
 323              	.LVL51:
 444:Drivers/CMSIS/DSP/Source/FilteringFunctions/arm_correlate_f32.c **** 
 445:Drivers/CMSIS/DSP/Source/FilteringFunctions/arm_correlate_f32.c ****       *pOut = acc2;
 324              		.loc 1 445 7 is_stmt 1 view .LVU136
 325              		.loc 1 445 13 is_stmt 0 view .LVU137
 326 0100 8EED004A 		vstr.32	s8, [lr]
 446:Drivers/CMSIS/DSP/Source/FilteringFunctions/arm_correlate_f32.c ****       pOut += inc;
 327              		.loc 1 446 7 is_stmt 1 view .LVU138
 328              		.loc 1 446 12 is_stmt 0 view .LVU139
 329 0104 0EEB820E 		add	lr, lr, r2, lsl #2
 330              	.LVL52:
 447:Drivers/CMSIS/DSP/Source/FilteringFunctions/arm_correlate_f32.c **** 
 448:Drivers/CMSIS/DSP/Source/FilteringFunctions/arm_correlate_f32.c ****       *pOut = acc3;
 331              		.loc 1 448 7 is_stmt 1 view .LVU140
 332              		.loc 1 448 13 is_stmt 0 view .LVU141
 333 0108 CEED007A 		vstr.32	s15, [lr]
 449:Drivers/CMSIS/DSP/Source/FilteringFunctions/arm_correlate_f32.c ****       pOut += inc;
 334              		.loc 1 449 7 is_stmt 1 view .LVU142
 335              		.loc 1 449 12 is_stmt 0 view .LVU143
 336 010c 0EEB820E 		add	lr, lr, r2, lsl #2
 337              	.LVL53:
 450:Drivers/CMSIS/DSP/Source/FilteringFunctions/arm_correlate_f32.c **** 
 451:Drivers/CMSIS/DSP/Source/FilteringFunctions/arm_correlate_f32.c ****       /* Increment the pointer pIn1 index, count by 4 */
 452:Drivers/CMSIS/DSP/Source/FilteringFunctions/arm_correlate_f32.c ****       count += 4U;
 338              		.loc 1 452 7 is_stmt 1 view .LVU144
 339              		.loc 1 452 13 is_stmt 0 view .LVU145
 340 0110 0433     		adds	r3, r3, #4
 341              	.LVL54:
 453:Drivers/CMSIS/DSP/Source/FilteringFunctions/arm_correlate_f32.c **** 
 454:Drivers/CMSIS/DSP/Source/FilteringFunctions/arm_correlate_f32.c ****       /* Update the inputA and inputB pointers for next MAC calculation */
 455:Drivers/CMSIS/DSP/Source/FilteringFunctions/arm_correlate_f32.c ****       px = pIn1 + count;
 342              		.loc 1 455 7 is_stmt 1 view .LVU146
 343              		.loc 1 455 10 is_stmt 0 view .LVU147
 344 0112 05EB830C 		add	ip, r5, r3, lsl #2
 345              	.LVL55:
 456:Drivers/CMSIS/DSP/Source/FilteringFunctions/arm_correlate_f32.c ****       py = pIn2;
 346              		.loc 1 456 7 is_stmt 1 view .LVU148
 457:Drivers/CMSIS/DSP/Source/FilteringFunctions/arm_correlate_f32.c **** 
 458:Drivers/CMSIS/DSP/Source/FilteringFunctions/arm_correlate_f32.c ****       /* Decrement the loop counter */
 459:Drivers/CMSIS/DSP/Source/FilteringFunctions/arm_correlate_f32.c ****       blkCnt--;
 347              		.loc 1 459 7 view .LVU149
 348              		.loc 1 459 13 is_stmt 0 view .LVU150
 349 0116 09F1FF39 		add	r9, r9, #-1
 350              	.LVL56:
 351              	.L11:
 319:Drivers/CMSIS/DSP/Source/FilteringFunctions/arm_correlate_f32.c ****     {
 352              		.loc 1 319 19 is_stmt 1 view .LVU151
 353 011a B9F1000F 		cmp	r9, #0
 354 011e 00F08A80 		beq	.L35
 322:Drivers/CMSIS/DSP/Source/FilteringFunctions/arm_correlate_f32.c ****       acc1 = 0.0f;
 355              		.loc 1 322 7 view .LVU152
 356              	.LVL57:
 323:Drivers/CMSIS/DSP/Source/FilteringFunctions/arm_correlate_f32.c ****       acc2 = 0.0f;
 357              		.loc 1 323 7 view .LVU153
 324:Drivers/CMSIS/DSP/Source/FilteringFunctions/arm_correlate_f32.c ****       acc3 = 0.0f;
 358              		.loc 1 324 7 view .LVU154
ARM GAS  /var/folders/n6/c271nzx11xl4r4_m7sqjlt0m0000gn/T//cct3ykq1.s 			page 16


 325:Drivers/CMSIS/DSP/Source/FilteringFunctions/arm_correlate_f32.c **** 
 359              		.loc 1 325 7 view .LVU155
 328:Drivers/CMSIS/DSP/Source/FilteringFunctions/arm_correlate_f32.c ****       x1 = *(px++);
 360              		.loc 1 328 7 view .LVU156
 328:Drivers/CMSIS/DSP/Source/FilteringFunctions/arm_correlate_f32.c ****       x1 = *(px++);
 361              		.loc 1 328 10 is_stmt 0 view .LVU157
 362 0122 DCED006A 		vldr.32	s13, [ip]
 363              	.LVL58:
 329:Drivers/CMSIS/DSP/Source/FilteringFunctions/arm_correlate_f32.c ****       x2 = *(px++);
 364              		.loc 1 329 7 is_stmt 1 view .LVU158
 329:Drivers/CMSIS/DSP/Source/FilteringFunctions/arm_correlate_f32.c ****       x2 = *(px++);
 365              		.loc 1 329 10 is_stmt 0 view .LVU159
 366 0126 DCED015A 		vldr.32	s11, [ip, #4]
 367              	.LVL59:
 330:Drivers/CMSIS/DSP/Source/FilteringFunctions/arm_correlate_f32.c **** 
 368              		.loc 1 330 7 is_stmt 1 view .LVU160
 330:Drivers/CMSIS/DSP/Source/FilteringFunctions/arm_correlate_f32.c **** 
 369              		.loc 1 330 16 is_stmt 0 view .LVU161
 370 012a 0CF10C01 		add	r1, ip, #12
 371              	.LVL60:
 330:Drivers/CMSIS/DSP/Source/FilteringFunctions/arm_correlate_f32.c **** 
 372              		.loc 1 330 10 view .LVU162
 373 012e 9CED025A 		vldr.32	s10, [ip, #8]
 374              	.LVL61:
 333:Drivers/CMSIS/DSP/Source/FilteringFunctions/arm_correlate_f32.c **** 
 375              		.loc 1 333 7 is_stmt 1 view .LVU163
 333:Drivers/CMSIS/DSP/Source/FilteringFunctions/arm_correlate_f32.c **** 
 376              		.loc 1 333 9 is_stmt 0 view .LVU164
 377 0132 4FEA960A 		lsr	r10, r6, #2
 378              	.LVL62:
 333:Drivers/CMSIS/DSP/Source/FilteringFunctions/arm_correlate_f32.c **** 
 379              		.loc 1 333 9 view .LVU165
 380 0136 8446     		mov	ip, r0
 325:Drivers/CMSIS/DSP/Source/FilteringFunctions/arm_correlate_f32.c **** 
 381              		.loc 1 325 12 view .LVU166
 382 0138 DFED967A 		vldr.32	s15, .L40+4
 324:Drivers/CMSIS/DSP/Source/FilteringFunctions/arm_correlate_f32.c ****       acc3 = 0.0f;
 383              		.loc 1 324 12 view .LVU167
 384 013c B0EE674A 		vmov.f32	s8, s15
 323:Drivers/CMSIS/DSP/Source/FilteringFunctions/arm_correlate_f32.c ****       acc2 = 0.0f;
 385              		.loc 1 323 12 view .LVU168
 386 0140 F0EE673A 		vmov.f32	s7, s15
 322:Drivers/CMSIS/DSP/Source/FilteringFunctions/arm_correlate_f32.c ****       acc1 = 0.0f;
 387              		.loc 1 322 12 view .LVU169
 388 0144 B0EE676A 		vmov.f32	s12, s15
 389              	.LVL63:
 390              	.L12:
 337:Drivers/CMSIS/DSP/Source/FilteringFunctions/arm_correlate_f32.c ****       {
 391              		.loc 1 337 7 is_stmt 1 view .LVU170
 340:Drivers/CMSIS/DSP/Source/FilteringFunctions/arm_correlate_f32.c **** 
 392              		.loc 1 340 9 view .LVU171
 340:Drivers/CMSIS/DSP/Source/FilteringFunctions/arm_correlate_f32.c **** 
 393              		.loc 1 340 12 is_stmt 0 view .LVU172
 394 0148 9CED007A 		vldr.32	s14, [ip]
 395              	.LVL64:
 343:Drivers/CMSIS/DSP/Source/FilteringFunctions/arm_correlate_f32.c **** 
 396              		.loc 1 343 9 is_stmt 1 view .LVU173
ARM GAS  /var/folders/n6/c271nzx11xl4r4_m7sqjlt0m0000gn/T//cct3ykq1.s 			page 17


 343:Drivers/CMSIS/DSP/Source/FilteringFunctions/arm_correlate_f32.c **** 
 397              		.loc 1 343 12 is_stmt 0 view .LVU174
 398 014c D1ED004A 		vldr.32	s9, [r1]
 399              	.LVL65:
 347:Drivers/CMSIS/DSP/Source/FilteringFunctions/arm_correlate_f32.c ****         /* acc1 +=  x[1] * y[0] */
 400              		.loc 1 347 9 is_stmt 1 view .LVU175
 347:Drivers/CMSIS/DSP/Source/FilteringFunctions/arm_correlate_f32.c ****         /* acc1 +=  x[1] * y[0] */
 401              		.loc 1 347 20 is_stmt 0 view .LVU176
 402 0150 26EE873A 		vmul.f32	s6, s13, s14
 347:Drivers/CMSIS/DSP/Source/FilteringFunctions/arm_correlate_f32.c ****         /* acc1 +=  x[1] * y[0] */
 403              		.loc 1 347 14 view .LVU177
 404 0154 33EE063A 		vadd.f32	s6, s6, s12
 405              	.LVL66:
 349:Drivers/CMSIS/DSP/Source/FilteringFunctions/arm_correlate_f32.c ****         /* acc2 +=  x[2] * y[0] */
 406              		.loc 1 349 9 is_stmt 1 view .LVU178
 349:Drivers/CMSIS/DSP/Source/FilteringFunctions/arm_correlate_f32.c ****         /* acc2 +=  x[2] * y[0] */
 407              		.loc 1 349 20 is_stmt 0 view .LVU179
 408 0158 65EE876A 		vmul.f32	s13, s11, s14
 409              	.LVL67:
 349:Drivers/CMSIS/DSP/Source/FilteringFunctions/arm_correlate_f32.c ****         /* acc2 +=  x[2] * y[0] */
 410              		.loc 1 349 14 view .LVU180
 411 015c 76EEA33A 		vadd.f32	s7, s13, s7
 412              	.LVL68:
 351:Drivers/CMSIS/DSP/Source/FilteringFunctions/arm_correlate_f32.c ****         /* acc3 +=  x[3] * y[0] */
 413              		.loc 1 351 9 is_stmt 1 view .LVU181
 351:Drivers/CMSIS/DSP/Source/FilteringFunctions/arm_correlate_f32.c ****         /* acc3 +=  x[3] * y[0] */
 414              		.loc 1 351 20 is_stmt 0 view .LVU182
 415 0160 25EE076A 		vmul.f32	s12, s10, s14
 351:Drivers/CMSIS/DSP/Source/FilteringFunctions/arm_correlate_f32.c ****         /* acc3 +=  x[3] * y[0] */
 416              		.loc 1 351 14 view .LVU183
 417 0164 36EE046A 		vadd.f32	s12, s12, s8
 418              	.LVL69:
 353:Drivers/CMSIS/DSP/Source/FilteringFunctions/arm_correlate_f32.c **** 
 419              		.loc 1 353 9 is_stmt 1 view .LVU184
 353:Drivers/CMSIS/DSP/Source/FilteringFunctions/arm_correlate_f32.c **** 
 420              		.loc 1 353 20 is_stmt 0 view .LVU185
 421 0168 27EE247A 		vmul.f32	s14, s14, s9
 422              	.LVL70:
 353:Drivers/CMSIS/DSP/Source/FilteringFunctions/arm_correlate_f32.c **** 
 423              		.loc 1 353 14 view .LVU186
 424 016c 37EE277A 		vadd.f32	s14, s14, s15
 425              	.LVL71:
 356:Drivers/CMSIS/DSP/Source/FilteringFunctions/arm_correlate_f32.c **** 
 426              		.loc 1 356 9 is_stmt 1 view .LVU187
 356:Drivers/CMSIS/DSP/Source/FilteringFunctions/arm_correlate_f32.c **** 
 427              		.loc 1 356 12 is_stmt 0 view .LVU188
 428 0170 DCED017A 		vldr.32	s15, [ip, #4]
 429              	.LVL72:
 359:Drivers/CMSIS/DSP/Source/FilteringFunctions/arm_correlate_f32.c **** 
 430              		.loc 1 359 9 is_stmt 1 view .LVU189
 359:Drivers/CMSIS/DSP/Source/FilteringFunctions/arm_correlate_f32.c **** 
 431              		.loc 1 359 12 is_stmt 0 view .LVU190
 432 0174 D1ED016A 		vldr.32	s13, [r1, #4]
 433              	.LVL73:
 363:Drivers/CMSIS/DSP/Source/FilteringFunctions/arm_correlate_f32.c ****         /* acc1 +=  x[2] * y[1] */
 434              		.loc 1 363 9 is_stmt 1 view .LVU191
 363:Drivers/CMSIS/DSP/Source/FilteringFunctions/arm_correlate_f32.c ****         /* acc1 +=  x[2] * y[1] */
ARM GAS  /var/folders/n6/c271nzx11xl4r4_m7sqjlt0m0000gn/T//cct3ykq1.s 			page 18


 435              		.loc 1 363 20 is_stmt 0 view .LVU192
 436 0178 25EEA74A 		vmul.f32	s8, s11, s15
 363:Drivers/CMSIS/DSP/Source/FilteringFunctions/arm_correlate_f32.c ****         /* acc1 +=  x[2] * y[1] */
 437              		.loc 1 363 14 view .LVU193
 438 017c 34EE034A 		vadd.f32	s8, s8, s6
 439              	.LVL74:
 365:Drivers/CMSIS/DSP/Source/FilteringFunctions/arm_correlate_f32.c ****         /* acc2 +=  x[3] * y[1] */
 440              		.loc 1 365 9 is_stmt 1 view .LVU194
 365:Drivers/CMSIS/DSP/Source/FilteringFunctions/arm_correlate_f32.c ****         /* acc2 +=  x[3] * y[1] */
 441              		.loc 1 365 20 is_stmt 0 view .LVU195
 442 0180 25EE273A 		vmul.f32	s6, s10, s15
 365:Drivers/CMSIS/DSP/Source/FilteringFunctions/arm_correlate_f32.c ****         /* acc2 +=  x[3] * y[1] */
 443              		.loc 1 365 14 view .LVU196
 444 0184 33EE233A 		vadd.f32	s6, s6, s7
 445              	.LVL75:
 367:Drivers/CMSIS/DSP/Source/FilteringFunctions/arm_correlate_f32.c ****         /* acc3 +=  x[4] * y[1] */
 446              		.loc 1 367 9 is_stmt 1 view .LVU197
 367:Drivers/CMSIS/DSP/Source/FilteringFunctions/arm_correlate_f32.c ****         /* acc3 +=  x[4] * y[1] */
 447              		.loc 1 367 20 is_stmt 0 view .LVU198
 448 0188 64EEA73A 		vmul.f32	s7, s9, s15
 367:Drivers/CMSIS/DSP/Source/FilteringFunctions/arm_correlate_f32.c ****         /* acc3 +=  x[4] * y[1] */
 449              		.loc 1 367 14 view .LVU199
 450 018c 73EE863A 		vadd.f32	s7, s7, s12
 451              	.LVL76:
 369:Drivers/CMSIS/DSP/Source/FilteringFunctions/arm_correlate_f32.c **** 
 452              		.loc 1 369 9 is_stmt 1 view .LVU200
 369:Drivers/CMSIS/DSP/Source/FilteringFunctions/arm_correlate_f32.c **** 
 453              		.loc 1 369 20 is_stmt 0 view .LVU201
 454 0190 67EEA67A 		vmul.f32	s15, s15, s13
 455              	.LVL77:
 369:Drivers/CMSIS/DSP/Source/FilteringFunctions/arm_correlate_f32.c **** 
 456              		.loc 1 369 14 view .LVU202
 457 0194 37EE877A 		vadd.f32	s14, s15, s14
 458              	.LVL78:
 372:Drivers/CMSIS/DSP/Source/FilteringFunctions/arm_correlate_f32.c **** 
 459              		.loc 1 372 9 is_stmt 1 view .LVU203
 372:Drivers/CMSIS/DSP/Source/FilteringFunctions/arm_correlate_f32.c **** 
 460              		.loc 1 372 12 is_stmt 0 view .LVU204
 461 0198 DCED027A 		vldr.32	s15, [ip, #8]
 462              	.LVL79:
 375:Drivers/CMSIS/DSP/Source/FilteringFunctions/arm_correlate_f32.c **** 
 463              		.loc 1 375 9 is_stmt 1 view .LVU205
 375:Drivers/CMSIS/DSP/Source/FilteringFunctions/arm_correlate_f32.c **** 
 464              		.loc 1 375 12 is_stmt 0 view .LVU206
 465 019c D1ED025A 		vldr.32	s11, [r1, #8]
 466              	.LVL80:
 379:Drivers/CMSIS/DSP/Source/FilteringFunctions/arm_correlate_f32.c ****         /* acc1 +=  x[3] * y[2] */
 467              		.loc 1 379 9 is_stmt 1 view .LVU207
 379:Drivers/CMSIS/DSP/Source/FilteringFunctions/arm_correlate_f32.c ****         /* acc1 +=  x[3] * y[2] */
 468              		.loc 1 379 20 is_stmt 0 view .LVU208
 469 01a0 25EE276A 		vmul.f32	s12, s10, s15
 379:Drivers/CMSIS/DSP/Source/FilteringFunctions/arm_correlate_f32.c ****         /* acc1 +=  x[3] * y[2] */
 470              		.loc 1 379 14 view .LVU209
 471 01a4 36EE046A 		vadd.f32	s12, s12, s8
 472              	.LVL81:
 381:Drivers/CMSIS/DSP/Source/FilteringFunctions/arm_correlate_f32.c ****         /* acc2 +=  x[4] * y[2] */
 473              		.loc 1 381 9 is_stmt 1 view .LVU210
ARM GAS  /var/folders/n6/c271nzx11xl4r4_m7sqjlt0m0000gn/T//cct3ykq1.s 			page 19


 381:Drivers/CMSIS/DSP/Source/FilteringFunctions/arm_correlate_f32.c ****         /* acc2 +=  x[4] * y[2] */
 474              		.loc 1 381 20 is_stmt 0 view .LVU211
 475 01a8 24EEA74A 		vmul.f32	s8, s9, s15
 381:Drivers/CMSIS/DSP/Source/FilteringFunctions/arm_correlate_f32.c ****         /* acc2 +=  x[4] * y[2] */
 476              		.loc 1 381 14 view .LVU212
 477 01ac 34EE034A 		vadd.f32	s8, s8, s6
 478              	.LVL82:
 383:Drivers/CMSIS/DSP/Source/FilteringFunctions/arm_correlate_f32.c ****         /* acc3 +=  x[5] * y[2] */
 479              		.loc 1 383 9 is_stmt 1 view .LVU213
 383:Drivers/CMSIS/DSP/Source/FilteringFunctions/arm_correlate_f32.c ****         /* acc3 +=  x[5] * y[2] */
 480              		.loc 1 383 20 is_stmt 0 view .LVU214
 481 01b0 26EEA73A 		vmul.f32	s6, s13, s15
 383:Drivers/CMSIS/DSP/Source/FilteringFunctions/arm_correlate_f32.c ****         /* acc3 +=  x[5] * y[2] */
 482              		.loc 1 383 14 view .LVU215
 483 01b4 33EE233A 		vadd.f32	s6, s6, s7
 484              	.LVL83:
 385:Drivers/CMSIS/DSP/Source/FilteringFunctions/arm_correlate_f32.c **** 
 485              		.loc 1 385 9 is_stmt 1 view .LVU216
 385:Drivers/CMSIS/DSP/Source/FilteringFunctions/arm_correlate_f32.c **** 
 486              		.loc 1 385 20 is_stmt 0 view .LVU217
 487 01b8 67EEA57A 		vmul.f32	s15, s15, s11
 488              	.LVL84:
 385:Drivers/CMSIS/DSP/Source/FilteringFunctions/arm_correlate_f32.c **** 
 489              		.loc 1 385 14 view .LVU218
 490 01bc 37EE877A 		vadd.f32	s14, s15, s14
 491              	.LVL85:
 388:Drivers/CMSIS/DSP/Source/FilteringFunctions/arm_correlate_f32.c **** 
 492              		.loc 1 388 9 is_stmt 1 view .LVU219
 388:Drivers/CMSIS/DSP/Source/FilteringFunctions/arm_correlate_f32.c **** 
 493              		.loc 1 388 12 is_stmt 0 view .LVU220
 494 01c0 DCED037A 		vldr.32	s15, [ip, #12]
 495 01c4 0CF1100C 		add	ip, ip, #16
 496              	.LVL86:
 391:Drivers/CMSIS/DSP/Source/FilteringFunctions/arm_correlate_f32.c **** 
 497              		.loc 1 391 9 is_stmt 1 view .LVU221
 391:Drivers/CMSIS/DSP/Source/FilteringFunctions/arm_correlate_f32.c **** 
 498              		.loc 1 391 12 is_stmt 0 view .LVU222
 499 01c8 91ED035A 		vldr.32	s10, [r1, #12]
 500              	.LVL87:
 391:Drivers/CMSIS/DSP/Source/FilteringFunctions/arm_correlate_f32.c **** 
 501              		.loc 1 391 12 view .LVU223
 502 01cc 1031     		adds	r1, r1, #16
 503              	.LVL88:
 395:Drivers/CMSIS/DSP/Source/FilteringFunctions/arm_correlate_f32.c ****         /* acc1 +=  x[4] * y[3] */
 504              		.loc 1 395 9 is_stmt 1 view .LVU224
 395:Drivers/CMSIS/DSP/Source/FilteringFunctions/arm_correlate_f32.c ****         /* acc1 +=  x[4] * y[3] */
 505              		.loc 1 395 20 is_stmt 0 view .LVU225
 506 01ce 64EEA74A 		vmul.f32	s9, s9, s15
 507              	.LVL89:
 395:Drivers/CMSIS/DSP/Source/FilteringFunctions/arm_correlate_f32.c ****         /* acc1 +=  x[4] * y[3] */
 508              		.loc 1 395 14 view .LVU226
 509 01d2 34EE866A 		vadd.f32	s12, s9, s12
 510              	.LVL90:
 397:Drivers/CMSIS/DSP/Source/FilteringFunctions/arm_correlate_f32.c ****         /* acc2 +=  x[5] * y[3] */
 511              		.loc 1 397 9 is_stmt 1 view .LVU227
 397:Drivers/CMSIS/DSP/Source/FilteringFunctions/arm_correlate_f32.c ****         /* acc2 +=  x[5] * y[3] */
 512              		.loc 1 397 20 is_stmt 0 view .LVU228
ARM GAS  /var/folders/n6/c271nzx11xl4r4_m7sqjlt0m0000gn/T//cct3ykq1.s 			page 20


 513 01d6 66EEA73A 		vmul.f32	s7, s13, s15
 397:Drivers/CMSIS/DSP/Source/FilteringFunctions/arm_correlate_f32.c ****         /* acc2 +=  x[5] * y[3] */
 514              		.loc 1 397 14 view .LVU229
 515 01da 73EE843A 		vadd.f32	s7, s7, s8
 516              	.LVL91:
 399:Drivers/CMSIS/DSP/Source/FilteringFunctions/arm_correlate_f32.c ****         /* acc3 +=  x[6] * y[3] */
 517              		.loc 1 399 9 is_stmt 1 view .LVU230
 399:Drivers/CMSIS/DSP/Source/FilteringFunctions/arm_correlate_f32.c ****         /* acc3 +=  x[6] * y[3] */
 518              		.loc 1 399 20 is_stmt 0 view .LVU231
 519 01de 25EEA74A 		vmul.f32	s8, s11, s15
 399:Drivers/CMSIS/DSP/Source/FilteringFunctions/arm_correlate_f32.c ****         /* acc3 +=  x[6] * y[3] */
 520              		.loc 1 399 14 view .LVU232
 521 01e2 34EE034A 		vadd.f32	s8, s8, s6
 522              	.LVL92:
 401:Drivers/CMSIS/DSP/Source/FilteringFunctions/arm_correlate_f32.c **** 
 523              		.loc 1 401 9 is_stmt 1 view .LVU233
 401:Drivers/CMSIS/DSP/Source/FilteringFunctions/arm_correlate_f32.c **** 
 524              		.loc 1 401 20 is_stmt 0 view .LVU234
 525 01e6 67EE857A 		vmul.f32	s15, s15, s10
 526              	.LVL93:
 401:Drivers/CMSIS/DSP/Source/FilteringFunctions/arm_correlate_f32.c **** 
 527              		.loc 1 401 14 view .LVU235
 528 01ea 77EE877A 		vadd.f32	s15, s15, s14
 529              	.LVL94:
 404:Drivers/CMSIS/DSP/Source/FilteringFunctions/arm_correlate_f32.c **** 
 530              		.loc 1 404 16 is_stmt 1 discriminator 1 view .LVU236
 404:Drivers/CMSIS/DSP/Source/FilteringFunctions/arm_correlate_f32.c **** 
 531              		.loc 1 404 16 is_stmt 0 discriminator 1 view .LVU237
 532 01ee BAF1010A 		subs	r10, r10, #1
 533              	.LVL95:
 404:Drivers/CMSIS/DSP/Source/FilteringFunctions/arm_correlate_f32.c **** 
 534              		.loc 1 404 16 discriminator 1 view .LVU238
 535 01f2 A9D1     		bne	.L12
 408:Drivers/CMSIS/DSP/Source/FilteringFunctions/arm_correlate_f32.c **** 
 536              		.loc 1 408 7 is_stmt 1 view .LVU239
 408:Drivers/CMSIS/DSP/Source/FilteringFunctions/arm_correlate_f32.c **** 
 537              		.loc 1 408 9 is_stmt 0 view .LVU240
 538 01f4 06F00307 		and	r7, r6, #3
 539              	.LVL96:
 410:Drivers/CMSIS/DSP/Source/FilteringFunctions/arm_correlate_f32.c ****       {
 540              		.loc 1 410 7 is_stmt 1 view .LVU241
 541              	.L13:
 410:Drivers/CMSIS/DSP/Source/FilteringFunctions/arm_correlate_f32.c ****       {
 542              		.loc 1 410 16 view .LVU242
 543 01f8 002F     		cmp	r7, #0
 544 01fa 3FF479AF 		beq	.L36
 413:Drivers/CMSIS/DSP/Source/FilteringFunctions/arm_correlate_f32.c **** 
 545              		.loc 1 413 9 view .LVU243
 546              	.LVL97:
 413:Drivers/CMSIS/DSP/Source/FilteringFunctions/arm_correlate_f32.c **** 
 547              		.loc 1 413 12 is_stmt 0 view .LVU244
 548 01fe BCEC017A 		vldmia.32	ip!, {s14}
 549              	.LVL98:
 416:Drivers/CMSIS/DSP/Source/FilteringFunctions/arm_correlate_f32.c **** 
 550              		.loc 1 416 9 is_stmt 1 view .LVU245
 416:Drivers/CMSIS/DSP/Source/FilteringFunctions/arm_correlate_f32.c **** 
 551              		.loc 1 416 12 is_stmt 0 view .LVU246
ARM GAS  /var/folders/n6/c271nzx11xl4r4_m7sqjlt0m0000gn/T//cct3ykq1.s 			page 21


 552 0202 F1EC014A 		vldmia.32	r1!, {s9}
 553              	.LVL99:
 420:Drivers/CMSIS/DSP/Source/FilteringFunctions/arm_correlate_f32.c ****         /* acc1 +=  x[5] * y[4] */
 554              		.loc 1 420 9 is_stmt 1 view .LVU247
 420:Drivers/CMSIS/DSP/Source/FilteringFunctions/arm_correlate_f32.c ****         /* acc1 +=  x[5] * y[4] */
 555              		.loc 1 420 20 is_stmt 0 view .LVU248
 556 0206 66EE876A 		vmul.f32	s13, s13, s14
 557              	.LVL100:
 420:Drivers/CMSIS/DSP/Source/FilteringFunctions/arm_correlate_f32.c ****         /* acc1 +=  x[5] * y[4] */
 558              		.loc 1 420 14 view .LVU249
 559 020a 36EE266A 		vadd.f32	s12, s12, s13
 560              	.LVL101:
 422:Drivers/CMSIS/DSP/Source/FilteringFunctions/arm_correlate_f32.c ****         /* acc2 +=  x[6] * y[4] */
 561              		.loc 1 422 9 is_stmt 1 view .LVU250
 422:Drivers/CMSIS/DSP/Source/FilteringFunctions/arm_correlate_f32.c ****         /* acc2 +=  x[6] * y[4] */
 562              		.loc 1 422 20 is_stmt 0 view .LVU251
 563 020e 65EE876A 		vmul.f32	s13, s11, s14
 422:Drivers/CMSIS/DSP/Source/FilteringFunctions/arm_correlate_f32.c ****         /* acc2 +=  x[6] * y[4] */
 564              		.loc 1 422 14 view .LVU252
 565 0212 73EEA63A 		vadd.f32	s7, s7, s13
 566              	.LVL102:
 424:Drivers/CMSIS/DSP/Source/FilteringFunctions/arm_correlate_f32.c ****         /* acc3 +=  x[7] * y[4] */
 567              		.loc 1 424 9 is_stmt 1 view .LVU253
 424:Drivers/CMSIS/DSP/Source/FilteringFunctions/arm_correlate_f32.c ****         /* acc3 +=  x[7] * y[4] */
 568              		.loc 1 424 20 is_stmt 0 view .LVU254
 569 0216 65EE076A 		vmul.f32	s13, s10, s14
 424:Drivers/CMSIS/DSP/Source/FilteringFunctions/arm_correlate_f32.c ****         /* acc3 +=  x[7] * y[4] */
 570              		.loc 1 424 14 view .LVU255
 571 021a 34EE264A 		vadd.f32	s8, s8, s13
 572              	.LVL103:
 426:Drivers/CMSIS/DSP/Source/FilteringFunctions/arm_correlate_f32.c **** 
 573              		.loc 1 426 9 is_stmt 1 view .LVU256
 426:Drivers/CMSIS/DSP/Source/FilteringFunctions/arm_correlate_f32.c **** 
 574              		.loc 1 426 20 is_stmt 0 view .LVU257
 575 021e 27EE247A 		vmul.f32	s14, s14, s9
 576              	.LVL104:
 426:Drivers/CMSIS/DSP/Source/FilteringFunctions/arm_correlate_f32.c **** 
 577              		.loc 1 426 14 view .LVU258
 578 0222 77EE877A 		vadd.f32	s15, s15, s14
 579              	.LVL105:
 429:Drivers/CMSIS/DSP/Source/FilteringFunctions/arm_correlate_f32.c ****         x1 = x2;
 580              		.loc 1 429 9 is_stmt 1 view .LVU259
 430:Drivers/CMSIS/DSP/Source/FilteringFunctions/arm_correlate_f32.c ****         x2 = x3;
 581              		.loc 1 430 9 view .LVU260
 431:Drivers/CMSIS/DSP/Source/FilteringFunctions/arm_correlate_f32.c **** 
 582              		.loc 1 431 9 view .LVU261
 434:Drivers/CMSIS/DSP/Source/FilteringFunctions/arm_correlate_f32.c ****       }
 583              		.loc 1 434 9 view .LVU262
 434:Drivers/CMSIS/DSP/Source/FilteringFunctions/arm_correlate_f32.c ****       }
 584              		.loc 1 434 10 is_stmt 0 view .LVU263
 585 0226 013F     		subs	r7, r7, #1
 586              	.LVL106:
 429:Drivers/CMSIS/DSP/Source/FilteringFunctions/arm_correlate_f32.c ****         x1 = x2;
 587              		.loc 1 429 12 view .LVU264
 588 0228 F0EE656A 		vmov.f32	s13, s11
 430:Drivers/CMSIS/DSP/Source/FilteringFunctions/arm_correlate_f32.c ****         x2 = x3;
 589              		.loc 1 430 12 view .LVU265
ARM GAS  /var/folders/n6/c271nzx11xl4r4_m7sqjlt0m0000gn/T//cct3ykq1.s 			page 22


 590 022c F0EE455A 		vmov.f32	s11, s10
 591              	.LVL107:
 431:Drivers/CMSIS/DSP/Source/FilteringFunctions/arm_correlate_f32.c **** 
 592              		.loc 1 431 12 view .LVU266
 593 0230 B0EE645A 		vmov.f32	s10, s9
 594              	.LVL108:
 431:Drivers/CMSIS/DSP/Source/FilteringFunctions/arm_correlate_f32.c **** 
 595              		.loc 1 431 12 view .LVU267
 596 0234 E0E7     		b	.L13
 597              	.LVL109:
 598              	.L35:
 460:Drivers/CMSIS/DSP/Source/FilteringFunctions/arm_correlate_f32.c ****     }
 461:Drivers/CMSIS/DSP/Source/FilteringFunctions/arm_correlate_f32.c **** 
 462:Drivers/CMSIS/DSP/Source/FilteringFunctions/arm_correlate_f32.c ****     /* If the blockSize2 is not a multiple of 4, compute any remaining output samples here.
 463:Drivers/CMSIS/DSP/Source/FilteringFunctions/arm_correlate_f32.c ****      ** No loop unrolling is used. */
 464:Drivers/CMSIS/DSP/Source/FilteringFunctions/arm_correlate_f32.c ****     blkCnt = blockSize2 % 0x4U;
 599              		.loc 1 464 5 is_stmt 1 view .LVU268
 600              		.loc 1 464 12 is_stmt 0 view .LVU269
 601 0236 0BF00309 		and	r9, fp, #3
 602              	.LVL110:
 465:Drivers/CMSIS/DSP/Source/FilteringFunctions/arm_correlate_f32.c **** 
 466:Drivers/CMSIS/DSP/Source/FilteringFunctions/arm_correlate_f32.c ****     while (blkCnt > 0U)
 603              		.loc 1 466 5 is_stmt 1 view .LVU270
 604              		.loc 1 466 11 is_stmt 0 view .LVU271
 605 023a 15E0     		b	.L16
 606              	.LVL111:
 607              	.L38:
 467:Drivers/CMSIS/DSP/Source/FilteringFunctions/arm_correlate_f32.c ****     {
 468:Drivers/CMSIS/DSP/Source/FilteringFunctions/arm_correlate_f32.c ****       /* Accumulator is made zero for every iteration */
 469:Drivers/CMSIS/DSP/Source/FilteringFunctions/arm_correlate_f32.c ****       sum = 0.0f;
 470:Drivers/CMSIS/DSP/Source/FilteringFunctions/arm_correlate_f32.c **** 
 471:Drivers/CMSIS/DSP/Source/FilteringFunctions/arm_correlate_f32.c ****       /* Apply loop unrolling and compute 4 MACs simultaneously. */
 472:Drivers/CMSIS/DSP/Source/FilteringFunctions/arm_correlate_f32.c ****       k = srcBLen >> 2U;
 473:Drivers/CMSIS/DSP/Source/FilteringFunctions/arm_correlate_f32.c **** 
 474:Drivers/CMSIS/DSP/Source/FilteringFunctions/arm_correlate_f32.c ****       /* First part of the processing with loop unrolling.  Compute 4 MACs at a time.
 475:Drivers/CMSIS/DSP/Source/FilteringFunctions/arm_correlate_f32.c ****        ** a second loop below computes MACs for the remaining 1 to 3 samples. */
 476:Drivers/CMSIS/DSP/Source/FilteringFunctions/arm_correlate_f32.c ****       while (k > 0U)
 477:Drivers/CMSIS/DSP/Source/FilteringFunctions/arm_correlate_f32.c ****       {
 478:Drivers/CMSIS/DSP/Source/FilteringFunctions/arm_correlate_f32.c ****         /* Perform the multiply-accumulates */
 479:Drivers/CMSIS/DSP/Source/FilteringFunctions/arm_correlate_f32.c ****         sum += *px++ * *py++;
 480:Drivers/CMSIS/DSP/Source/FilteringFunctions/arm_correlate_f32.c ****         sum += *px++ * *py++;
 481:Drivers/CMSIS/DSP/Source/FilteringFunctions/arm_correlate_f32.c ****         sum += *px++ * *py++;
 482:Drivers/CMSIS/DSP/Source/FilteringFunctions/arm_correlate_f32.c ****         sum += *px++ * *py++;
 483:Drivers/CMSIS/DSP/Source/FilteringFunctions/arm_correlate_f32.c **** 
 484:Drivers/CMSIS/DSP/Source/FilteringFunctions/arm_correlate_f32.c ****         /* Decrement the loop counter */
 485:Drivers/CMSIS/DSP/Source/FilteringFunctions/arm_correlate_f32.c ****         k--;
 486:Drivers/CMSIS/DSP/Source/FilteringFunctions/arm_correlate_f32.c ****       }
 487:Drivers/CMSIS/DSP/Source/FilteringFunctions/arm_correlate_f32.c **** 
 488:Drivers/CMSIS/DSP/Source/FilteringFunctions/arm_correlate_f32.c ****       /* If the srcBLen is not a multiple of 4, compute any remaining MACs here.
 489:Drivers/CMSIS/DSP/Source/FilteringFunctions/arm_correlate_f32.c ****        ** No loop unrolling is used. */
 490:Drivers/CMSIS/DSP/Source/FilteringFunctions/arm_correlate_f32.c ****       k = srcBLen % 0x4U;
 608              		.loc 1 490 7 is_stmt 1 view .LVU272
 609              		.loc 1 490 9 is_stmt 0 view .LVU273
 610 023c 06F00307 		and	r7, r6, #3
 611              	.LVL112:
 491:Drivers/CMSIS/DSP/Source/FilteringFunctions/arm_correlate_f32.c **** 
 492:Drivers/CMSIS/DSP/Source/FilteringFunctions/arm_correlate_f32.c ****       while (k > 0U)
ARM GAS  /var/folders/n6/c271nzx11xl4r4_m7sqjlt0m0000gn/T//cct3ykq1.s 			page 23


 612              		.loc 1 492 7 is_stmt 1 view .LVU274
 613              	.L19:
 614              		.loc 1 492 16 view .LVU275
 615 0240 4FB1     		cbz	r7, .L37
 493:Drivers/CMSIS/DSP/Source/FilteringFunctions/arm_correlate_f32.c ****       {
 494:Drivers/CMSIS/DSP/Source/FilteringFunctions/arm_correlate_f32.c ****         /* Perform the multiply-accumulate */
 495:Drivers/CMSIS/DSP/Source/FilteringFunctions/arm_correlate_f32.c ****         sum += *px++ * *py++;
 616              		.loc 1 495 9 view .LVU276
 617              	.LVL113:
 618              		.loc 1 495 16 is_stmt 0 view .LVU277
 619 0242 BCEC017A 		vldmia.32	ip!, {s14}
 620              	.LVL114:
 621              		.loc 1 495 24 view .LVU278
 622 0246 F1EC016A 		vldmia.32	r1!, {s13}
 623              	.LVL115:
 624              		.loc 1 495 22 view .LVU279
 625 024a 27EE267A 		vmul.f32	s14, s14, s13
 626              		.loc 1 495 13 view .LVU280
 627 024e 77EE877A 		vadd.f32	s15, s15, s14
 628              	.LVL116:
 496:Drivers/CMSIS/DSP/Source/FilteringFunctions/arm_correlate_f32.c **** 
 497:Drivers/CMSIS/DSP/Source/FilteringFunctions/arm_correlate_f32.c ****         /* Decrement the loop counter */
 498:Drivers/CMSIS/DSP/Source/FilteringFunctions/arm_correlate_f32.c ****         k--;
 629              		.loc 1 498 9 is_stmt 1 view .LVU281
 630              		.loc 1 498 10 is_stmt 0 view .LVU282
 631 0252 013F     		subs	r7, r7, #1
 632              	.LVL117:
 633              		.loc 1 498 10 view .LVU283
 634 0254 F4E7     		b	.L19
 635              	.L37:
 499:Drivers/CMSIS/DSP/Source/FilteringFunctions/arm_correlate_f32.c ****       }
 500:Drivers/CMSIS/DSP/Source/FilteringFunctions/arm_correlate_f32.c **** 
 501:Drivers/CMSIS/DSP/Source/FilteringFunctions/arm_correlate_f32.c ****       /* Store the result in the accumulator in the destination buffer. */
 502:Drivers/CMSIS/DSP/Source/FilteringFunctions/arm_correlate_f32.c ****       *pOut = sum;
 636              		.loc 1 502 7 is_stmt 1 view .LVU284
 637              		.loc 1 502 13 is_stmt 0 view .LVU285
 638 0256 CEED007A 		vstr.32	s15, [lr]
 503:Drivers/CMSIS/DSP/Source/FilteringFunctions/arm_correlate_f32.c ****       /* Destination pointer is updated according to the address modifier, inc */
 504:Drivers/CMSIS/DSP/Source/FilteringFunctions/arm_correlate_f32.c ****       pOut += inc;
 639              		.loc 1 504 7 is_stmt 1 view .LVU286
 640              		.loc 1 504 12 is_stmt 0 view .LVU287
 641 025a 0EEB820E 		add	lr, lr, r2, lsl #2
 642              	.LVL118:
 505:Drivers/CMSIS/DSP/Source/FilteringFunctions/arm_correlate_f32.c **** 
 506:Drivers/CMSIS/DSP/Source/FilteringFunctions/arm_correlate_f32.c ****       /* Increment the pointer pIn1 index, count by 1 */
 507:Drivers/CMSIS/DSP/Source/FilteringFunctions/arm_correlate_f32.c ****       count++;
 643              		.loc 1 507 7 is_stmt 1 view .LVU288
 644              		.loc 1 507 12 is_stmt 0 view .LVU289
 645 025e 0133     		adds	r3, r3, #1
 646              	.LVL119:
 508:Drivers/CMSIS/DSP/Source/FilteringFunctions/arm_correlate_f32.c **** 
 509:Drivers/CMSIS/DSP/Source/FilteringFunctions/arm_correlate_f32.c ****       /* Update the inputA and inputB pointers for next MAC calculation */
 510:Drivers/CMSIS/DSP/Source/FilteringFunctions/arm_correlate_f32.c ****       px = pIn1 + count;
 647              		.loc 1 510 7 is_stmt 1 view .LVU290
 648              		.loc 1 510 10 is_stmt 0 view .LVU291
 649 0260 05EB830C 		add	ip, r5, r3, lsl #2
 650              	.LVL120:
ARM GAS  /var/folders/n6/c271nzx11xl4r4_m7sqjlt0m0000gn/T//cct3ykq1.s 			page 24


 511:Drivers/CMSIS/DSP/Source/FilteringFunctions/arm_correlate_f32.c ****       py = pIn2;
 651              		.loc 1 511 7 is_stmt 1 view .LVU292
 512:Drivers/CMSIS/DSP/Source/FilteringFunctions/arm_correlate_f32.c **** 
 513:Drivers/CMSIS/DSP/Source/FilteringFunctions/arm_correlate_f32.c ****       /* Decrement the loop counter */
 514:Drivers/CMSIS/DSP/Source/FilteringFunctions/arm_correlate_f32.c ****       blkCnt--;
 652              		.loc 1 514 7 view .LVU293
 653              		.loc 1 514 13 is_stmt 0 view .LVU294
 654 0264 09F1FF39 		add	r9, r9, #-1
 655              	.LVL121:
 656              	.L16:
 466:Drivers/CMSIS/DSP/Source/FilteringFunctions/arm_correlate_f32.c ****     {
 657              		.loc 1 466 19 is_stmt 1 view .LVU295
 658 0268 B9F1000F 		cmp	r9, #0
 659 026c 49D0     		beq	.L22
 469:Drivers/CMSIS/DSP/Source/FilteringFunctions/arm_correlate_f32.c **** 
 660              		.loc 1 469 7 view .LVU296
 661              	.LVL122:
 472:Drivers/CMSIS/DSP/Source/FilteringFunctions/arm_correlate_f32.c **** 
 662              		.loc 1 472 7 view .LVU297
 472:Drivers/CMSIS/DSP/Source/FilteringFunctions/arm_correlate_f32.c **** 
 663              		.loc 1 472 9 is_stmt 0 view .LVU298
 664 026e B708     		lsrs	r7, r6, #2
 665              	.LVL123:
 476:Drivers/CMSIS/DSP/Source/FilteringFunctions/arm_correlate_f32.c ****       {
 666              		.loc 1 476 7 is_stmt 1 view .LVU299
 476:Drivers/CMSIS/DSP/Source/FilteringFunctions/arm_correlate_f32.c ****       {
 667              		.loc 1 476 13 is_stmt 0 view .LVU300
 668 0270 0146     		mov	r1, r0
 469:Drivers/CMSIS/DSP/Source/FilteringFunctions/arm_correlate_f32.c **** 
 669              		.loc 1 469 11 view .LVU301
 670 0272 DFED487A 		vldr.32	s15, .L40+4
 671              	.LVL124:
 672              	.L17:
 476:Drivers/CMSIS/DSP/Source/FilteringFunctions/arm_correlate_f32.c ****       {
 673              		.loc 1 476 16 is_stmt 1 view .LVU302
 674 0276 002F     		cmp	r7, #0
 675 0278 E0D0     		beq	.L38
 479:Drivers/CMSIS/DSP/Source/FilteringFunctions/arm_correlate_f32.c ****         sum += *px++ * *py++;
 676              		.loc 1 479 9 view .LVU303
 677              	.LVL125:
 479:Drivers/CMSIS/DSP/Source/FilteringFunctions/arm_correlate_f32.c ****         sum += *px++ * *py++;
 678              		.loc 1 479 16 is_stmt 0 view .LVU304
 679 027a 9CED007A 		vldr.32	s14, [ip]
 680              	.LVL126:
 479:Drivers/CMSIS/DSP/Source/FilteringFunctions/arm_correlate_f32.c ****         sum += *px++ * *py++;
 681              		.loc 1 479 24 view .LVU305
 682 027e D1ED006A 		vldr.32	s13, [r1]
 479:Drivers/CMSIS/DSP/Source/FilteringFunctions/arm_correlate_f32.c ****         sum += *px++ * *py++;
 683              		.loc 1 479 22 view .LVU306
 684 0282 27EE267A 		vmul.f32	s14, s14, s13
 479:Drivers/CMSIS/DSP/Source/FilteringFunctions/arm_correlate_f32.c ****         sum += *px++ * *py++;
 685              		.loc 1 479 13 view .LVU307
 686 0286 77EE877A 		vadd.f32	s15, s15, s14
 687              	.LVL127:
 480:Drivers/CMSIS/DSP/Source/FilteringFunctions/arm_correlate_f32.c ****         sum += *px++ * *py++;
 688              		.loc 1 480 9 is_stmt 1 view .LVU308
 480:Drivers/CMSIS/DSP/Source/FilteringFunctions/arm_correlate_f32.c ****         sum += *px++ * *py++;
ARM GAS  /var/folders/n6/c271nzx11xl4r4_m7sqjlt0m0000gn/T//cct3ykq1.s 			page 25


 689              		.loc 1 480 16 is_stmt 0 view .LVU309
 690 028a 9CED017A 		vldr.32	s14, [ip, #4]
 691              	.LVL128:
 480:Drivers/CMSIS/DSP/Source/FilteringFunctions/arm_correlate_f32.c ****         sum += *px++ * *py++;
 692              		.loc 1 480 24 view .LVU310
 693 028e D1ED016A 		vldr.32	s13, [r1, #4]
 480:Drivers/CMSIS/DSP/Source/FilteringFunctions/arm_correlate_f32.c ****         sum += *px++ * *py++;
 694              		.loc 1 480 22 view .LVU311
 695 0292 27EE267A 		vmul.f32	s14, s14, s13
 480:Drivers/CMSIS/DSP/Source/FilteringFunctions/arm_correlate_f32.c ****         sum += *px++ * *py++;
 696              		.loc 1 480 13 view .LVU312
 697 0296 77EE877A 		vadd.f32	s15, s15, s14
 698              	.LVL129:
 481:Drivers/CMSIS/DSP/Source/FilteringFunctions/arm_correlate_f32.c ****         sum += *px++ * *py++;
 699              		.loc 1 481 9 is_stmt 1 view .LVU313
 481:Drivers/CMSIS/DSP/Source/FilteringFunctions/arm_correlate_f32.c ****         sum += *px++ * *py++;
 700              		.loc 1 481 16 is_stmt 0 view .LVU314
 701 029a 9CED027A 		vldr.32	s14, [ip, #8]
 702              	.LVL130:
 481:Drivers/CMSIS/DSP/Source/FilteringFunctions/arm_correlate_f32.c ****         sum += *px++ * *py++;
 703              		.loc 1 481 24 view .LVU315
 704 029e D1ED026A 		vldr.32	s13, [r1, #8]
 481:Drivers/CMSIS/DSP/Source/FilteringFunctions/arm_correlate_f32.c ****         sum += *px++ * *py++;
 705              		.loc 1 481 22 view .LVU316
 706 02a2 27EE267A 		vmul.f32	s14, s14, s13
 481:Drivers/CMSIS/DSP/Source/FilteringFunctions/arm_correlate_f32.c ****         sum += *px++ * *py++;
 707              		.loc 1 481 13 view .LVU317
 708 02a6 77EE877A 		vadd.f32	s15, s15, s14
 709              	.LVL131:
 482:Drivers/CMSIS/DSP/Source/FilteringFunctions/arm_correlate_f32.c **** 
 710              		.loc 1 482 9 is_stmt 1 view .LVU318
 482:Drivers/CMSIS/DSP/Source/FilteringFunctions/arm_correlate_f32.c **** 
 711              		.loc 1 482 16 is_stmt 0 view .LVU319
 712 02aa 9CED037A 		vldr.32	s14, [ip, #12]
 713              	.LVL132:
 482:Drivers/CMSIS/DSP/Source/FilteringFunctions/arm_correlate_f32.c **** 
 714              		.loc 1 482 24 view .LVU320
 715 02ae D1ED036A 		vldr.32	s13, [r1, #12]
 482:Drivers/CMSIS/DSP/Source/FilteringFunctions/arm_correlate_f32.c **** 
 716              		.loc 1 482 22 view .LVU321
 717 02b2 27EE267A 		vmul.f32	s14, s14, s13
 482:Drivers/CMSIS/DSP/Source/FilteringFunctions/arm_correlate_f32.c **** 
 718              		.loc 1 482 13 view .LVU322
 719 02b6 77EE877A 		vadd.f32	s15, s15, s14
 720              	.LVL133:
 485:Drivers/CMSIS/DSP/Source/FilteringFunctions/arm_correlate_f32.c ****       }
 721              		.loc 1 485 9 is_stmt 1 view .LVU323
 485:Drivers/CMSIS/DSP/Source/FilteringFunctions/arm_correlate_f32.c ****       }
 722              		.loc 1 485 10 is_stmt 0 view .LVU324
 723 02ba 013F     		subs	r7, r7, #1
 724              	.LVL134:
 482:Drivers/CMSIS/DSP/Source/FilteringFunctions/arm_correlate_f32.c **** 
 725              		.loc 1 482 27 view .LVU325
 726 02bc 1031     		adds	r1, r1, #16
 727              	.LVL135:
 482:Drivers/CMSIS/DSP/Source/FilteringFunctions/arm_correlate_f32.c **** 
 728              		.loc 1 482 19 view .LVU326
ARM GAS  /var/folders/n6/c271nzx11xl4r4_m7sqjlt0m0000gn/T//cct3ykq1.s 			page 26


 729 02be 0CF1100C 		add	ip, ip, #16
 730              	.LVL136:
 482:Drivers/CMSIS/DSP/Source/FilteringFunctions/arm_correlate_f32.c **** 
 731              		.loc 1 482 19 view .LVU327
 732 02c2 D8E7     		b	.L17
 733              	.LVL137:
 734              	.L23:
 515:Drivers/CMSIS/DSP/Source/FilteringFunctions/arm_correlate_f32.c ****     }
 516:Drivers/CMSIS/DSP/Source/FilteringFunctions/arm_correlate_f32.c ****   }
 517:Drivers/CMSIS/DSP/Source/FilteringFunctions/arm_correlate_f32.c ****   else
 518:Drivers/CMSIS/DSP/Source/FilteringFunctions/arm_correlate_f32.c ****   {
 519:Drivers/CMSIS/DSP/Source/FilteringFunctions/arm_correlate_f32.c ****     /* If the srcBLen is not a multiple of 4,
 520:Drivers/CMSIS/DSP/Source/FilteringFunctions/arm_correlate_f32.c ****      * the blockSize2 loop cannot be unrolled by 4 */
 521:Drivers/CMSIS/DSP/Source/FilteringFunctions/arm_correlate_f32.c ****     blkCnt = blockSize2;
 522:Drivers/CMSIS/DSP/Source/FilteringFunctions/arm_correlate_f32.c **** 
 523:Drivers/CMSIS/DSP/Source/FilteringFunctions/arm_correlate_f32.c ****     while (blkCnt > 0U)
 524:Drivers/CMSIS/DSP/Source/FilteringFunctions/arm_correlate_f32.c ****     {
 525:Drivers/CMSIS/DSP/Source/FilteringFunctions/arm_correlate_f32.c ****       /* Accumulator is made zero for every iteration */
 526:Drivers/CMSIS/DSP/Source/FilteringFunctions/arm_correlate_f32.c ****       sum = 0.0f;
 527:Drivers/CMSIS/DSP/Source/FilteringFunctions/arm_correlate_f32.c **** 
 528:Drivers/CMSIS/DSP/Source/FilteringFunctions/arm_correlate_f32.c ****       /* Loop over srcBLen */
 529:Drivers/CMSIS/DSP/Source/FilteringFunctions/arm_correlate_f32.c ****       k = srcBLen;
 530:Drivers/CMSIS/DSP/Source/FilteringFunctions/arm_correlate_f32.c **** 
 531:Drivers/CMSIS/DSP/Source/FilteringFunctions/arm_correlate_f32.c ****       while (k > 0U)
 532:Drivers/CMSIS/DSP/Source/FilteringFunctions/arm_correlate_f32.c ****       {
 533:Drivers/CMSIS/DSP/Source/FilteringFunctions/arm_correlate_f32.c ****         /* Perform the multiply-accumulate */
 534:Drivers/CMSIS/DSP/Source/FilteringFunctions/arm_correlate_f32.c ****         sum += *px++ * *py++;
 735              		.loc 1 534 9 is_stmt 1 view .LVU328
 736              		.loc 1 534 16 is_stmt 0 view .LVU329
 737 02c4 F1EC017A 		vldmia.32	r1!, {s15}
 738              	.LVL138:
 739              		.loc 1 534 24 view .LVU330
 740 02c8 FCEC016A 		vldmia.32	ip!, {s13}
 741              	.LVL139:
 742              		.loc 1 534 22 view .LVU331
 743 02cc 67EEA67A 		vmul.f32	s15, s15, s13
 744              		.loc 1 534 13 view .LVU332
 745 02d0 37EE277A 		vadd.f32	s14, s14, s15
 746              	.LVL140:
 535:Drivers/CMSIS/DSP/Source/FilteringFunctions/arm_correlate_f32.c **** 
 536:Drivers/CMSIS/DSP/Source/FilteringFunctions/arm_correlate_f32.c ****         /* Decrement the loop counter */
 537:Drivers/CMSIS/DSP/Source/FilteringFunctions/arm_correlate_f32.c ****         k--;
 747              		.loc 1 537 9 is_stmt 1 view .LVU333
 748              		.loc 1 537 10 is_stmt 0 view .LVU334
 749 02d4 013F     		subs	r7, r7, #1
 750              	.LVL141:
 751              	.L24:
 531:Drivers/CMSIS/DSP/Source/FilteringFunctions/arm_correlate_f32.c ****       {
 752              		.loc 1 531 16 is_stmt 1 view .LVU335
 753 02d6 002F     		cmp	r7, #0
 754 02d8 F4D1     		bne	.L23
 538:Drivers/CMSIS/DSP/Source/FilteringFunctions/arm_correlate_f32.c ****       }
 539:Drivers/CMSIS/DSP/Source/FilteringFunctions/arm_correlate_f32.c **** 
 540:Drivers/CMSIS/DSP/Source/FilteringFunctions/arm_correlate_f32.c ****       /* Store the result in the accumulator in the destination buffer. */
 541:Drivers/CMSIS/DSP/Source/FilteringFunctions/arm_correlate_f32.c ****       *pOut = sum;
 755              		.loc 1 541 7 view .LVU336
 756              		.loc 1 541 13 is_stmt 0 view .LVU337
ARM GAS  /var/folders/n6/c271nzx11xl4r4_m7sqjlt0m0000gn/T//cct3ykq1.s 			page 27


 757 02da 8EED007A 		vstr.32	s14, [lr]
 542:Drivers/CMSIS/DSP/Source/FilteringFunctions/arm_correlate_f32.c ****       /* Destination pointer is updated according to the address modifier, inc */
 543:Drivers/CMSIS/DSP/Source/FilteringFunctions/arm_correlate_f32.c ****       pOut += inc;
 758              		.loc 1 543 7 is_stmt 1 view .LVU338
 759              		.loc 1 543 12 is_stmt 0 view .LVU339
 760 02de 0EEB820E 		add	lr, lr, r2, lsl #2
 761              	.LVL142:
 544:Drivers/CMSIS/DSP/Source/FilteringFunctions/arm_correlate_f32.c **** 
 545:Drivers/CMSIS/DSP/Source/FilteringFunctions/arm_correlate_f32.c ****       /* Increment the pointer pIn1 index, count by 1 */
 546:Drivers/CMSIS/DSP/Source/FilteringFunctions/arm_correlate_f32.c ****       count++;
 762              		.loc 1 546 7 is_stmt 1 view .LVU340
 763              		.loc 1 546 12 is_stmt 0 view .LVU341
 764 02e2 0133     		adds	r3, r3, #1
 765              	.LVL143:
 547:Drivers/CMSIS/DSP/Source/FilteringFunctions/arm_correlate_f32.c **** 
 548:Drivers/CMSIS/DSP/Source/FilteringFunctions/arm_correlate_f32.c ****       /* Update the inputA and inputB pointers for next MAC calculation */
 549:Drivers/CMSIS/DSP/Source/FilteringFunctions/arm_correlate_f32.c ****       px = pIn1 + count;
 766              		.loc 1 549 7 is_stmt 1 view .LVU342
 767              		.loc 1 549 10 is_stmt 0 view .LVU343
 768 02e4 05EB8301 		add	r1, r5, r3, lsl #2
 769              	.LVL144:
 550:Drivers/CMSIS/DSP/Source/FilteringFunctions/arm_correlate_f32.c ****       py = pIn2;
 770              		.loc 1 550 7 is_stmt 1 view .LVU344
 551:Drivers/CMSIS/DSP/Source/FilteringFunctions/arm_correlate_f32.c **** 
 552:Drivers/CMSIS/DSP/Source/FilteringFunctions/arm_correlate_f32.c ****       /* Decrement the loop counter */
 553:Drivers/CMSIS/DSP/Source/FilteringFunctions/arm_correlate_f32.c ****       blkCnt--;
 771              		.loc 1 553 7 view .LVU345
 772              		.loc 1 553 13 is_stmt 0 view .LVU346
 773 02e8 09F1FF39 		add	r9, r9, #-1
 774              	.LVL145:
 775              	.L10:
 523:Drivers/CMSIS/DSP/Source/FilteringFunctions/arm_correlate_f32.c ****     {
 776              		.loc 1 523 19 is_stmt 1 view .LVU347
 777 02ec B9F1000F 		cmp	r9, #0
 778 02f0 07D0     		beq	.L22
 529:Drivers/CMSIS/DSP/Source/FilteringFunctions/arm_correlate_f32.c **** 
 779              		.loc 1 529 9 is_stmt 0 view .LVU348
 780 02f2 3746     		mov	r7, r6
 781 02f4 8446     		mov	ip, r0
 526:Drivers/CMSIS/DSP/Source/FilteringFunctions/arm_correlate_f32.c **** 
 782              		.loc 1 526 11 view .LVU349
 783 02f6 9FED277A 		vldr.32	s14, .L40+4
 784 02fa ECE7     		b	.L24
 785              	.LVL146:
 786              	.L31:
 521:Drivers/CMSIS/DSP/Source/FilteringFunctions/arm_correlate_f32.c **** 
 787              		.loc 1 521 12 view .LVU350
 788 02fc D946     		mov	r9, fp
 299:Drivers/CMSIS/DSP/Source/FilteringFunctions/arm_correlate_f32.c **** 
 789              		.loc 1 299 6 view .LVU351
 790 02fe 2946     		mov	r1, r5
 791 0300 F4E7     		b	.L10
 792              	.LVL147:
 793              	.L22:
 554:Drivers/CMSIS/DSP/Source/FilteringFunctions/arm_correlate_f32.c ****     }
 555:Drivers/CMSIS/DSP/Source/FilteringFunctions/arm_correlate_f32.c ****   }
 556:Drivers/CMSIS/DSP/Source/FilteringFunctions/arm_correlate_f32.c **** 
ARM GAS  /var/folders/n6/c271nzx11xl4r4_m7sqjlt0m0000gn/T//cct3ykq1.s 			page 28


 557:Drivers/CMSIS/DSP/Source/FilteringFunctions/arm_correlate_f32.c ****   /* --------------------------
 558:Drivers/CMSIS/DSP/Source/FilteringFunctions/arm_correlate_f32.c ****    * Initializations of stage3
 559:Drivers/CMSIS/DSP/Source/FilteringFunctions/arm_correlate_f32.c ****    * -------------------------*/
 560:Drivers/CMSIS/DSP/Source/FilteringFunctions/arm_correlate_f32.c **** 
 561:Drivers/CMSIS/DSP/Source/FilteringFunctions/arm_correlate_f32.c ****   /* sum += x[srcALen-srcBLen+1] * y[0] + x[srcALen-srcBLen+2] * y[1] +...+ x[srcALen-1] * y[srcBLe
 562:Drivers/CMSIS/DSP/Source/FilteringFunctions/arm_correlate_f32.c ****    * sum += x[srcALen-srcBLen+2] * y[0] + x[srcALen-srcBLen+3] * y[1] +...+ x[srcALen-1] * y[srcBLe
 563:Drivers/CMSIS/DSP/Source/FilteringFunctions/arm_correlate_f32.c ****    * ....
 564:Drivers/CMSIS/DSP/Source/FilteringFunctions/arm_correlate_f32.c ****    * sum +=  x[srcALen-2] * y[0] + x[srcALen-1] * y[1]
 565:Drivers/CMSIS/DSP/Source/FilteringFunctions/arm_correlate_f32.c ****    * sum +=  x[srcALen-1] * y[0]
 566:Drivers/CMSIS/DSP/Source/FilteringFunctions/arm_correlate_f32.c ****    */
 567:Drivers/CMSIS/DSP/Source/FilteringFunctions/arm_correlate_f32.c **** 
 568:Drivers/CMSIS/DSP/Source/FilteringFunctions/arm_correlate_f32.c ****   /* In this stage the MAC operations are decreased by 1 for every iteration.
 569:Drivers/CMSIS/DSP/Source/FilteringFunctions/arm_correlate_f32.c ****      The count variable holds the number of MAC operations performed */
 570:Drivers/CMSIS/DSP/Source/FilteringFunctions/arm_correlate_f32.c ****   count = srcBLen - 1U;
 794              		.loc 1 570 3 is_stmt 1 view .LVU352
 571:Drivers/CMSIS/DSP/Source/FilteringFunctions/arm_correlate_f32.c **** 
 572:Drivers/CMSIS/DSP/Source/FilteringFunctions/arm_correlate_f32.c ****   /* Working pointer of inputA */
 573:Drivers/CMSIS/DSP/Source/FilteringFunctions/arm_correlate_f32.c ****   pSrc1 = pIn1 + (srcALen - (srcBLen - 1U));
 795              		.loc 1 573 3 view .LVU353
 796              		.loc 1 573 9 is_stmt 0 view .LVU354
 797 0302 05EB8B05 		add	r5, r5, fp, lsl #2
 798              	.LVL148:
 574:Drivers/CMSIS/DSP/Source/FilteringFunctions/arm_correlate_f32.c ****   px = pSrc1;
 799              		.loc 1 574 3 is_stmt 1 view .LVU355
 575:Drivers/CMSIS/DSP/Source/FilteringFunctions/arm_correlate_f32.c **** 
 576:Drivers/CMSIS/DSP/Source/FilteringFunctions/arm_correlate_f32.c ****   /* Working pointer of inputB */
 577:Drivers/CMSIS/DSP/Source/FilteringFunctions/arm_correlate_f32.c ****   py = pIn2;
 800              		.loc 1 577 3 view .LVU356
 578:Drivers/CMSIS/DSP/Source/FilteringFunctions/arm_correlate_f32.c **** 
 579:Drivers/CMSIS/DSP/Source/FilteringFunctions/arm_correlate_f32.c ****   /* -------------------
 580:Drivers/CMSIS/DSP/Source/FilteringFunctions/arm_correlate_f32.c ****    * Stage3 process
 581:Drivers/CMSIS/DSP/Source/FilteringFunctions/arm_correlate_f32.c ****    * ------------------*/
 582:Drivers/CMSIS/DSP/Source/FilteringFunctions/arm_correlate_f32.c **** 
 583:Drivers/CMSIS/DSP/Source/FilteringFunctions/arm_correlate_f32.c ****   while (blockSize3 > 0U)
 801              		.loc 1 583 3 view .LVU357
 205:Drivers/CMSIS/DSP/Source/FilteringFunctions/arm_correlate_f32.c **** 
 802              		.loc 1 205 14 is_stmt 0 view .LVU358
 803 0306 2746     		mov	r7, r4
 804              		.loc 1 583 9 view .LVU359
 805 0308 39E0     		b	.L25
 806              	.LVL149:
 807              	.L27:
 584:Drivers/CMSIS/DSP/Source/FilteringFunctions/arm_correlate_f32.c ****   {
 585:Drivers/CMSIS/DSP/Source/FilteringFunctions/arm_correlate_f32.c ****     /* Accumulator is made zero for every iteration */
 586:Drivers/CMSIS/DSP/Source/FilteringFunctions/arm_correlate_f32.c ****     sum = 0.0f;
 587:Drivers/CMSIS/DSP/Source/FilteringFunctions/arm_correlate_f32.c **** 
 588:Drivers/CMSIS/DSP/Source/FilteringFunctions/arm_correlate_f32.c ****     /* Apply loop unrolling and compute 4 MACs simultaneously. */
 589:Drivers/CMSIS/DSP/Source/FilteringFunctions/arm_correlate_f32.c ****     k = count >> 2U;
 590:Drivers/CMSIS/DSP/Source/FilteringFunctions/arm_correlate_f32.c **** 
 591:Drivers/CMSIS/DSP/Source/FilteringFunctions/arm_correlate_f32.c ****     /* First part of the processing with loop unrolling.  Compute 4 MACs at a time.
 592:Drivers/CMSIS/DSP/Source/FilteringFunctions/arm_correlate_f32.c ****      ** a second loop below computes MACs for the remaining 1 to 3 samples. */
 593:Drivers/CMSIS/DSP/Source/FilteringFunctions/arm_correlate_f32.c ****     while (k > 0U)
 594:Drivers/CMSIS/DSP/Source/FilteringFunctions/arm_correlate_f32.c ****     {
 595:Drivers/CMSIS/DSP/Source/FilteringFunctions/arm_correlate_f32.c ****       /* Perform the multiply-accumulates */
 596:Drivers/CMSIS/DSP/Source/FilteringFunctions/arm_correlate_f32.c ****       /* sum += x[srcALen - srcBLen + 4] * y[3] */
 597:Drivers/CMSIS/DSP/Source/FilteringFunctions/arm_correlate_f32.c ****       sum += *px++ * *py++;
 808              		.loc 1 597 7 is_stmt 1 view .LVU360
ARM GAS  /var/folders/n6/c271nzx11xl4r4_m7sqjlt0m0000gn/T//cct3ykq1.s 			page 29


 809              		.loc 1 597 14 is_stmt 0 view .LVU361
 810 030a 93ED007A 		vldr.32	s14, [r3]
 811              	.LVL150:
 812              		.loc 1 597 22 view .LVU362
 813 030e D1ED006A 		vldr.32	s13, [r1]
 814              		.loc 1 597 20 view .LVU363
 815 0312 27EE267A 		vmul.f32	s14, s14, s13
 816              		.loc 1 597 11 view .LVU364
 817 0316 77EE877A 		vadd.f32	s15, s15, s14
 818              	.LVL151:
 598:Drivers/CMSIS/DSP/Source/FilteringFunctions/arm_correlate_f32.c ****       /* sum += x[srcALen - srcBLen + 3] * y[2] */
 599:Drivers/CMSIS/DSP/Source/FilteringFunctions/arm_correlate_f32.c ****       sum += *px++ * *py++;
 819              		.loc 1 599 7 is_stmt 1 view .LVU365
 820              		.loc 1 599 14 is_stmt 0 view .LVU366
 821 031a 93ED017A 		vldr.32	s14, [r3, #4]
 822              	.LVL152:
 823              		.loc 1 599 22 view .LVU367
 824 031e D1ED016A 		vldr.32	s13, [r1, #4]
 825              		.loc 1 599 20 view .LVU368
 826 0322 27EE267A 		vmul.f32	s14, s14, s13
 827              		.loc 1 599 11 view .LVU369
 828 0326 77EE877A 		vadd.f32	s15, s15, s14
 829              	.LVL153:
 600:Drivers/CMSIS/DSP/Source/FilteringFunctions/arm_correlate_f32.c ****       /* sum += x[srcALen - srcBLen + 2] * y[1] */
 601:Drivers/CMSIS/DSP/Source/FilteringFunctions/arm_correlate_f32.c ****       sum += *px++ * *py++;
 830              		.loc 1 601 7 is_stmt 1 view .LVU370
 831              		.loc 1 601 14 is_stmt 0 view .LVU371
 832 032a 93ED027A 		vldr.32	s14, [r3, #8]
 833              	.LVL154:
 834              		.loc 1 601 22 view .LVU372
 835 032e D1ED026A 		vldr.32	s13, [r1, #8]
 836              		.loc 1 601 20 view .LVU373
 837 0332 27EE267A 		vmul.f32	s14, s14, s13
 838              		.loc 1 601 11 view .LVU374
 839 0336 77EE877A 		vadd.f32	s15, s15, s14
 840              	.LVL155:
 602:Drivers/CMSIS/DSP/Source/FilteringFunctions/arm_correlate_f32.c ****       /* sum += x[srcALen - srcBLen + 1] * y[0] */
 603:Drivers/CMSIS/DSP/Source/FilteringFunctions/arm_correlate_f32.c ****       sum += *px++ * *py++;
 841              		.loc 1 603 7 is_stmt 1 view .LVU375
 842              		.loc 1 603 14 is_stmt 0 view .LVU376
 843 033a 93ED037A 		vldr.32	s14, [r3, #12]
 844              	.LVL156:
 845              		.loc 1 603 22 view .LVU377
 846 033e D1ED036A 		vldr.32	s13, [r1, #12]
 847              		.loc 1 603 20 view .LVU378
 848 0342 27EE267A 		vmul.f32	s14, s14, s13
 849              		.loc 1 603 11 view .LVU379
 850 0346 77EE877A 		vadd.f32	s15, s15, s14
 851              	.LVL157:
 604:Drivers/CMSIS/DSP/Source/FilteringFunctions/arm_correlate_f32.c **** 
 605:Drivers/CMSIS/DSP/Source/FilteringFunctions/arm_correlate_f32.c ****       /* Decrement the loop counter */
 606:Drivers/CMSIS/DSP/Source/FilteringFunctions/arm_correlate_f32.c ****       k--;
 852              		.loc 1 606 7 is_stmt 1 view .LVU380
 853              		.loc 1 606 8 is_stmt 0 view .LVU381
 854 034a 013E     		subs	r6, r6, #1
 855              	.LVL158:
 603:Drivers/CMSIS/DSP/Source/FilteringFunctions/arm_correlate_f32.c **** 
ARM GAS  /var/folders/n6/c271nzx11xl4r4_m7sqjlt0m0000gn/T//cct3ykq1.s 			page 30


 856              		.loc 1 603 25 view .LVU382
 857 034c 1031     		adds	r1, r1, #16
 858              	.LVL159:
 603:Drivers/CMSIS/DSP/Source/FilteringFunctions/arm_correlate_f32.c **** 
 859              		.loc 1 603 17 view .LVU383
 860 034e 1033     		adds	r3, r3, #16
 861              	.LVL160:
 862              	.L26:
 593:Drivers/CMSIS/DSP/Source/FilteringFunctions/arm_correlate_f32.c ****     {
 863              		.loc 1 593 14 is_stmt 1 view .LVU384
 864 0350 002E     		cmp	r6, #0
 865 0352 DAD1     		bne	.L27
 607:Drivers/CMSIS/DSP/Source/FilteringFunctions/arm_correlate_f32.c ****     }
 608:Drivers/CMSIS/DSP/Source/FilteringFunctions/arm_correlate_f32.c **** 
 609:Drivers/CMSIS/DSP/Source/FilteringFunctions/arm_correlate_f32.c ****     /* If the count is not a multiple of 4, compute any remaining MACs here.
 610:Drivers/CMSIS/DSP/Source/FilteringFunctions/arm_correlate_f32.c ****      ** No loop unrolling is used. */
 611:Drivers/CMSIS/DSP/Source/FilteringFunctions/arm_correlate_f32.c ****     k = count % 0x4U;
 866              		.loc 1 611 5 view .LVU385
 867              		.loc 1 611 7 is_stmt 0 view .LVU386
 868 0354 04F00306 		and	r6, r4, #3
 869              	.LVL161:
 612:Drivers/CMSIS/DSP/Source/FilteringFunctions/arm_correlate_f32.c **** 
 613:Drivers/CMSIS/DSP/Source/FilteringFunctions/arm_correlate_f32.c ****     while (k > 0U)
 870              		.loc 1 613 5 is_stmt 1 view .LVU387
 871              		.loc 1 613 11 is_stmt 0 view .LVU388
 872 0358 08E0     		b	.L28
 873              	.L29:
 614:Drivers/CMSIS/DSP/Source/FilteringFunctions/arm_correlate_f32.c ****     {
 615:Drivers/CMSIS/DSP/Source/FilteringFunctions/arm_correlate_f32.c ****       /* Perform the multiply-accumulates */
 616:Drivers/CMSIS/DSP/Source/FilteringFunctions/arm_correlate_f32.c ****       sum += *px++ * *py++;
 874              		.loc 1 616 7 is_stmt 1 view .LVU389
 875              	.LVL162:
 876              		.loc 1 616 14 is_stmt 0 view .LVU390
 877 035a B3EC017A 		vldmia.32	r3!, {s14}
 878              	.LVL163:
 879              		.loc 1 616 22 view .LVU391
 880 035e F1EC016A 		vldmia.32	r1!, {s13}
 881              	.LVL164:
 882              		.loc 1 616 20 view .LVU392
 883 0362 27EE267A 		vmul.f32	s14, s14, s13
 884              		.loc 1 616 11 view .LVU393
 885 0366 77EE877A 		vadd.f32	s15, s15, s14
 886              	.LVL165:
 617:Drivers/CMSIS/DSP/Source/FilteringFunctions/arm_correlate_f32.c **** 
 618:Drivers/CMSIS/DSP/Source/FilteringFunctions/arm_correlate_f32.c ****       /* Decrement the loop counter */
 619:Drivers/CMSIS/DSP/Source/FilteringFunctions/arm_correlate_f32.c ****       k--;
 887              		.loc 1 619 7 is_stmt 1 view .LVU394
 888              		.loc 1 619 8 is_stmt 0 view .LVU395
 889 036a 013E     		subs	r6, r6, #1
 890              	.LVL166:
 891              	.L28:
 613:Drivers/CMSIS/DSP/Source/FilteringFunctions/arm_correlate_f32.c ****     {
 892              		.loc 1 613 14 is_stmt 1 view .LVU396
 893 036c 002E     		cmp	r6, #0
 894 036e F4D1     		bne	.L29
 620:Drivers/CMSIS/DSP/Source/FilteringFunctions/arm_correlate_f32.c ****     }
 621:Drivers/CMSIS/DSP/Source/FilteringFunctions/arm_correlate_f32.c **** 
ARM GAS  /var/folders/n6/c271nzx11xl4r4_m7sqjlt0m0000gn/T//cct3ykq1.s 			page 31


 622:Drivers/CMSIS/DSP/Source/FilteringFunctions/arm_correlate_f32.c ****     /* Store the result in the accumulator in the destination buffer. */
 623:Drivers/CMSIS/DSP/Source/FilteringFunctions/arm_correlate_f32.c ****     *pOut = sum;
 895              		.loc 1 623 5 view .LVU397
 896              		.loc 1 623 11 is_stmt 0 view .LVU398
 897 0370 CEED007A 		vstr.32	s15, [lr]
 624:Drivers/CMSIS/DSP/Source/FilteringFunctions/arm_correlate_f32.c ****     /* Destination pointer is updated according to the address modifier, inc */
 625:Drivers/CMSIS/DSP/Source/FilteringFunctions/arm_correlate_f32.c ****     pOut += inc;
 898              		.loc 1 625 5 is_stmt 1 view .LVU399
 899              		.loc 1 625 10 is_stmt 0 view .LVU400
 900 0374 0EEB820E 		add	lr, lr, r2, lsl #2
 901              	.LVL167:
 626:Drivers/CMSIS/DSP/Source/FilteringFunctions/arm_correlate_f32.c **** 
 627:Drivers/CMSIS/DSP/Source/FilteringFunctions/arm_correlate_f32.c ****     /* Update the inputA and inputB pointers for next MAC calculation */
 628:Drivers/CMSIS/DSP/Source/FilteringFunctions/arm_correlate_f32.c ****     px = ++pSrc1;
 902              		.loc 1 628 5 is_stmt 1 view .LVU401
 903              		.loc 1 628 8 is_stmt 0 view .LVU402
 904 0378 0435     		adds	r5, r5, #4
 905              	.LVL168:
 629:Drivers/CMSIS/DSP/Source/FilteringFunctions/arm_correlate_f32.c ****     py = pIn2;
 906              		.loc 1 629 5 is_stmt 1 view .LVU403
 630:Drivers/CMSIS/DSP/Source/FilteringFunctions/arm_correlate_f32.c **** 
 631:Drivers/CMSIS/DSP/Source/FilteringFunctions/arm_correlate_f32.c ****     /* Decrement the MAC count */
 632:Drivers/CMSIS/DSP/Source/FilteringFunctions/arm_correlate_f32.c ****     count--;
 907              		.loc 1 632 5 view .LVU404
 908              		.loc 1 632 10 is_stmt 0 view .LVU405
 909 037a 013C     		subs	r4, r4, #1
 910              	.LVL169:
 633:Drivers/CMSIS/DSP/Source/FilteringFunctions/arm_correlate_f32.c **** 
 634:Drivers/CMSIS/DSP/Source/FilteringFunctions/arm_correlate_f32.c ****     /* Decrement the loop counter */
 635:Drivers/CMSIS/DSP/Source/FilteringFunctions/arm_correlate_f32.c ****     blockSize3--;
 911              		.loc 1 635 5 is_stmt 1 view .LVU406
 912              		.loc 1 635 15 is_stmt 0 view .LVU407
 913 037c 013F     		subs	r7, r7, #1
 914              	.LVL170:
 915              	.L25:
 583:Drivers/CMSIS/DSP/Source/FilteringFunctions/arm_correlate_f32.c ****   {
 916              		.loc 1 583 21 is_stmt 1 view .LVU408
 917 037e 2FB1     		cbz	r7, .L39
 586:Drivers/CMSIS/DSP/Source/FilteringFunctions/arm_correlate_f32.c **** 
 918              		.loc 1 586 5 view .LVU409
 919              	.LVL171:
 589:Drivers/CMSIS/DSP/Source/FilteringFunctions/arm_correlate_f32.c **** 
 920              		.loc 1 589 5 view .LVU410
 589:Drivers/CMSIS/DSP/Source/FilteringFunctions/arm_correlate_f32.c **** 
 921              		.loc 1 589 7 is_stmt 0 view .LVU411
 922 0380 A608     		lsrs	r6, r4, #2
 923              	.LVL172:
 593:Drivers/CMSIS/DSP/Source/FilteringFunctions/arm_correlate_f32.c ****     {
 924              		.loc 1 593 5 is_stmt 1 view .LVU412
 593:Drivers/CMSIS/DSP/Source/FilteringFunctions/arm_correlate_f32.c ****     {
 925              		.loc 1 593 11 is_stmt 0 view .LVU413
 926 0382 0146     		mov	r1, r0
 927 0384 2B46     		mov	r3, r5
 586:Drivers/CMSIS/DSP/Source/FilteringFunctions/arm_correlate_f32.c **** 
 928              		.loc 1 586 9 view .LVU414
 929 0386 DFED037A 		vldr.32	s15, .L40+4
 593:Drivers/CMSIS/DSP/Source/FilteringFunctions/arm_correlate_f32.c ****     {
ARM GAS  /var/folders/n6/c271nzx11xl4r4_m7sqjlt0m0000gn/T//cct3ykq1.s 			page 32


 930              		.loc 1 593 11 view .LVU415
 931 038a E1E7     		b	.L26
 932              	.LVL173:
 933              	.L39:
 636:Drivers/CMSIS/DSP/Source/FilteringFunctions/arm_correlate_f32.c ****   }
 637:Drivers/CMSIS/DSP/Source/FilteringFunctions/arm_correlate_f32.c **** 
 638:Drivers/CMSIS/DSP/Source/FilteringFunctions/arm_correlate_f32.c **** #else
 639:Drivers/CMSIS/DSP/Source/FilteringFunctions/arm_correlate_f32.c **** 
 640:Drivers/CMSIS/DSP/Source/FilteringFunctions/arm_correlate_f32.c ****   /* Run the below code for Cortex-M0 */
 641:Drivers/CMSIS/DSP/Source/FilteringFunctions/arm_correlate_f32.c **** 
 642:Drivers/CMSIS/DSP/Source/FilteringFunctions/arm_correlate_f32.c ****   float32_t *pIn1 = pSrcA;                       /* inputA pointer */
 643:Drivers/CMSIS/DSP/Source/FilteringFunctions/arm_correlate_f32.c ****   float32_t *pIn2 = pSrcB + (srcBLen - 1U);      /* inputB pointer */
 644:Drivers/CMSIS/DSP/Source/FilteringFunctions/arm_correlate_f32.c ****   float32_t sum;                                 /* Accumulator */
 645:Drivers/CMSIS/DSP/Source/FilteringFunctions/arm_correlate_f32.c ****   uint32_t i = 0U, j;                            /* loop counters */
 646:Drivers/CMSIS/DSP/Source/FilteringFunctions/arm_correlate_f32.c ****   uint32_t inv = 0U;                             /* Reverse order flag */
 647:Drivers/CMSIS/DSP/Source/FilteringFunctions/arm_correlate_f32.c ****   uint32_t tot = 0U;                             /* Length */
 648:Drivers/CMSIS/DSP/Source/FilteringFunctions/arm_correlate_f32.c **** 
 649:Drivers/CMSIS/DSP/Source/FilteringFunctions/arm_correlate_f32.c ****   /* The algorithm implementation is based on the lengths of the inputs. */
 650:Drivers/CMSIS/DSP/Source/FilteringFunctions/arm_correlate_f32.c ****   /* srcB is always made to slide across srcA. */
 651:Drivers/CMSIS/DSP/Source/FilteringFunctions/arm_correlate_f32.c ****   /* So srcBLen is always considered as shorter or equal to srcALen */
 652:Drivers/CMSIS/DSP/Source/FilteringFunctions/arm_correlate_f32.c ****   /* But CORR(x, y) is reverse of CORR(y, x) */
 653:Drivers/CMSIS/DSP/Source/FilteringFunctions/arm_correlate_f32.c ****   /* So, when srcBLen > srcALen, output pointer is made to point to the end of the output buffer */
 654:Drivers/CMSIS/DSP/Source/FilteringFunctions/arm_correlate_f32.c ****   /* and a varaible, inv is set to 1 */
 655:Drivers/CMSIS/DSP/Source/FilteringFunctions/arm_correlate_f32.c ****   /* If lengths are not equal then zero pad has to be done to  make the two
 656:Drivers/CMSIS/DSP/Source/FilteringFunctions/arm_correlate_f32.c ****    * inputs of same length. But to improve the performance, we assume zeroes
 657:Drivers/CMSIS/DSP/Source/FilteringFunctions/arm_correlate_f32.c ****    * in the output instead of zero padding either of the the inputs*/
 658:Drivers/CMSIS/DSP/Source/FilteringFunctions/arm_correlate_f32.c ****   /* If srcALen > srcBLen, (srcALen - srcBLen) zeroes has to included in the
 659:Drivers/CMSIS/DSP/Source/FilteringFunctions/arm_correlate_f32.c ****    * starting of the output buffer */
 660:Drivers/CMSIS/DSP/Source/FilteringFunctions/arm_correlate_f32.c ****   /* If srcALen < srcBLen, (srcALen - srcBLen) zeroes has to included in the
 661:Drivers/CMSIS/DSP/Source/FilteringFunctions/arm_correlate_f32.c ****    * ending of the output buffer */
 662:Drivers/CMSIS/DSP/Source/FilteringFunctions/arm_correlate_f32.c ****   /* Once the zero padding is done the remaining of the output is calcualted
 663:Drivers/CMSIS/DSP/Source/FilteringFunctions/arm_correlate_f32.c ****    * using convolution but with the shorter signal time shifted. */
 664:Drivers/CMSIS/DSP/Source/FilteringFunctions/arm_correlate_f32.c **** 
 665:Drivers/CMSIS/DSP/Source/FilteringFunctions/arm_correlate_f32.c ****   /* Calculate the length of the remaining sequence */
 666:Drivers/CMSIS/DSP/Source/FilteringFunctions/arm_correlate_f32.c ****   tot = ((srcALen + srcBLen) - 2U);
 667:Drivers/CMSIS/DSP/Source/FilteringFunctions/arm_correlate_f32.c **** 
 668:Drivers/CMSIS/DSP/Source/FilteringFunctions/arm_correlate_f32.c ****   if (srcALen > srcBLen)
 669:Drivers/CMSIS/DSP/Source/FilteringFunctions/arm_correlate_f32.c ****   {
 670:Drivers/CMSIS/DSP/Source/FilteringFunctions/arm_correlate_f32.c ****     /* Calculating the number of zeros to be padded to the output */
 671:Drivers/CMSIS/DSP/Source/FilteringFunctions/arm_correlate_f32.c ****     j = srcALen - srcBLen;
 672:Drivers/CMSIS/DSP/Source/FilteringFunctions/arm_correlate_f32.c **** 
 673:Drivers/CMSIS/DSP/Source/FilteringFunctions/arm_correlate_f32.c ****     /* Initialise the pointer after zero padding */
 674:Drivers/CMSIS/DSP/Source/FilteringFunctions/arm_correlate_f32.c ****     pDst += j;
 675:Drivers/CMSIS/DSP/Source/FilteringFunctions/arm_correlate_f32.c ****   }
 676:Drivers/CMSIS/DSP/Source/FilteringFunctions/arm_correlate_f32.c **** 
 677:Drivers/CMSIS/DSP/Source/FilteringFunctions/arm_correlate_f32.c ****   else if (srcALen < srcBLen)
 678:Drivers/CMSIS/DSP/Source/FilteringFunctions/arm_correlate_f32.c ****   {
 679:Drivers/CMSIS/DSP/Source/FilteringFunctions/arm_correlate_f32.c ****     /* Initialization to inputB pointer */
 680:Drivers/CMSIS/DSP/Source/FilteringFunctions/arm_correlate_f32.c ****     pIn1 = pSrcB;
 681:Drivers/CMSIS/DSP/Source/FilteringFunctions/arm_correlate_f32.c **** 
 682:Drivers/CMSIS/DSP/Source/FilteringFunctions/arm_correlate_f32.c ****     /* Initialization to the end of inputA pointer */
 683:Drivers/CMSIS/DSP/Source/FilteringFunctions/arm_correlate_f32.c ****     pIn2 = pSrcA + (srcALen - 1U);
 684:Drivers/CMSIS/DSP/Source/FilteringFunctions/arm_correlate_f32.c **** 
 685:Drivers/CMSIS/DSP/Source/FilteringFunctions/arm_correlate_f32.c ****     /* Initialisation of the pointer after zero padding */
 686:Drivers/CMSIS/DSP/Source/FilteringFunctions/arm_correlate_f32.c ****     pDst = pDst + tot;
 687:Drivers/CMSIS/DSP/Source/FilteringFunctions/arm_correlate_f32.c **** 
 688:Drivers/CMSIS/DSP/Source/FilteringFunctions/arm_correlate_f32.c ****     /* Swapping the lengths */
ARM GAS  /var/folders/n6/c271nzx11xl4r4_m7sqjlt0m0000gn/T//cct3ykq1.s 			page 33


 689:Drivers/CMSIS/DSP/Source/FilteringFunctions/arm_correlate_f32.c ****     j = srcALen;
 690:Drivers/CMSIS/DSP/Source/FilteringFunctions/arm_correlate_f32.c ****     srcALen = srcBLen;
 691:Drivers/CMSIS/DSP/Source/FilteringFunctions/arm_correlate_f32.c ****     srcBLen = j;
 692:Drivers/CMSIS/DSP/Source/FilteringFunctions/arm_correlate_f32.c **** 
 693:Drivers/CMSIS/DSP/Source/FilteringFunctions/arm_correlate_f32.c ****     /* Setting the reverse flag */
 694:Drivers/CMSIS/DSP/Source/FilteringFunctions/arm_correlate_f32.c ****     inv = 1;
 695:Drivers/CMSIS/DSP/Source/FilteringFunctions/arm_correlate_f32.c **** 
 696:Drivers/CMSIS/DSP/Source/FilteringFunctions/arm_correlate_f32.c ****   }
 697:Drivers/CMSIS/DSP/Source/FilteringFunctions/arm_correlate_f32.c **** 
 698:Drivers/CMSIS/DSP/Source/FilteringFunctions/arm_correlate_f32.c ****   /* Loop to calculate convolution for output length number of times */
 699:Drivers/CMSIS/DSP/Source/FilteringFunctions/arm_correlate_f32.c ****   for (i = 0U; i <= tot; i++)
 700:Drivers/CMSIS/DSP/Source/FilteringFunctions/arm_correlate_f32.c ****   {
 701:Drivers/CMSIS/DSP/Source/FilteringFunctions/arm_correlate_f32.c ****     /* Initialize sum with zero to carry on MAC operations */
 702:Drivers/CMSIS/DSP/Source/FilteringFunctions/arm_correlate_f32.c ****     sum = 0.0f;
 703:Drivers/CMSIS/DSP/Source/FilteringFunctions/arm_correlate_f32.c **** 
 704:Drivers/CMSIS/DSP/Source/FilteringFunctions/arm_correlate_f32.c ****     /* Loop to perform MAC operations according to convolution equation */
 705:Drivers/CMSIS/DSP/Source/FilteringFunctions/arm_correlate_f32.c ****     for (j = 0U; j <= i; j++)
 706:Drivers/CMSIS/DSP/Source/FilteringFunctions/arm_correlate_f32.c ****     {
 707:Drivers/CMSIS/DSP/Source/FilteringFunctions/arm_correlate_f32.c ****       /* Check the array limitations */
 708:Drivers/CMSIS/DSP/Source/FilteringFunctions/arm_correlate_f32.c ****       if ((((i - j) < srcBLen) && (j < srcALen)))
 709:Drivers/CMSIS/DSP/Source/FilteringFunctions/arm_correlate_f32.c ****       {
 710:Drivers/CMSIS/DSP/Source/FilteringFunctions/arm_correlate_f32.c ****         /* z[i] += x[i-j] * y[j] */
 711:Drivers/CMSIS/DSP/Source/FilteringFunctions/arm_correlate_f32.c ****         sum += pIn1[j] * pIn2[-((int32_t) i - j)];
 712:Drivers/CMSIS/DSP/Source/FilteringFunctions/arm_correlate_f32.c ****       }
 713:Drivers/CMSIS/DSP/Source/FilteringFunctions/arm_correlate_f32.c ****     }
 714:Drivers/CMSIS/DSP/Source/FilteringFunctions/arm_correlate_f32.c ****     /* Store the output in the destination buffer */
 715:Drivers/CMSIS/DSP/Source/FilteringFunctions/arm_correlate_f32.c ****     if (inv == 1)
 716:Drivers/CMSIS/DSP/Source/FilteringFunctions/arm_correlate_f32.c ****       *pDst-- = sum;
 717:Drivers/CMSIS/DSP/Source/FilteringFunctions/arm_correlate_f32.c ****     else
 718:Drivers/CMSIS/DSP/Source/FilteringFunctions/arm_correlate_f32.c ****       *pDst++ = sum;
 719:Drivers/CMSIS/DSP/Source/FilteringFunctions/arm_correlate_f32.c ****   }
 720:Drivers/CMSIS/DSP/Source/FilteringFunctions/arm_correlate_f32.c **** 
 721:Drivers/CMSIS/DSP/Source/FilteringFunctions/arm_correlate_f32.c **** #endif /*   #if defined (ARM_MATH_DSP) */
 722:Drivers/CMSIS/DSP/Source/FilteringFunctions/arm_correlate_f32.c **** 
 723:Drivers/CMSIS/DSP/Source/FilteringFunctions/arm_correlate_f32.c **** }
 934              		.loc 1 723 1 view .LVU416
 935 038c BDE8F08F 		pop	{r4, r5, r6, r7, r8, r9, r10, fp, pc}
 936              	.LVL174:
 937              	.L41:
 938              		.loc 1 723 1 view .LVU417
 939              		.align	2
 940              	.L40:
 941 0390 FEFFFF3F 		.word	1073741822
 942 0394 00000000 		.word	0
 943              		.cfi_endproc
 944              	.LFE135:
 946              		.text
 947              	.Letext0:
 948              		.file 2 "/Users/killian/Library/Application Support/Code/User/globalStorage/bmd.stm32-for-vscode/@
 949              		.file 3 "/Users/killian/Library/Application Support/Code/User/globalStorage/bmd.stm32-for-vscode/@
 950              		.file 4 "Drivers/CMSIS/DSP/Include/arm_math.h"
ARM GAS  /var/folders/n6/c271nzx11xl4r4_m7sqjlt0m0000gn/T//cct3ykq1.s 			page 34

