ARM GAS  /var/folders/n6/c271nzx11xl4r4_m7sqjlt0m0000gn/T//ccTuzddq.s 			page 1


   1              		.cpu cortex-m7
   2              		.arch armv7e-m
   3              		.fpu fpv5-d16
   4              		.eabi_attribute 28, 1
   5              		.eabi_attribute 20, 1
   6              		.eabi_attribute 21, 1
   7              		.eabi_attribute 23, 3
   8              		.eabi_attribute 24, 1
   9              		.eabi_attribute 25, 1
  10              		.eabi_attribute 26, 1
  11              		.eabi_attribute 30, 1
  12              		.eabi_attribute 34, 1
  13              		.eabi_attribute 18, 4
  14              		.file	"arm_dot_prod_f32.c"
  15              		.text
  16              	.Ltext0:
  17              		.cfi_sections	.debug_frame
  18              		.file 1 "Drivers/CMSIS/DSP/Source/BasicMathFunctions/arm_dot_prod_f32.c"
  19              		.section	.text.arm_dot_prod_f32,"ax",%progbits
  20              		.align	1
  21              		.global	arm_dot_prod_f32
  22              		.syntax unified
  23              		.thumb
  24              		.thumb_func
  26              	arm_dot_prod_f32:
  27              	.LVL0:
  28              	.LFB135:
   1:Drivers/CMSIS/DSP/Source/BasicMathFunctions/arm_dot_prod_f32.c **** /* ----------------------------------------------------------------------
   2:Drivers/CMSIS/DSP/Source/BasicMathFunctions/arm_dot_prod_f32.c ****  * Project:      CMSIS DSP Library
   3:Drivers/CMSIS/DSP/Source/BasicMathFunctions/arm_dot_prod_f32.c ****  * Title:        arm_dot_prod_f32.c
   4:Drivers/CMSIS/DSP/Source/BasicMathFunctions/arm_dot_prod_f32.c ****  * Description:  Floating-point dot product
   5:Drivers/CMSIS/DSP/Source/BasicMathFunctions/arm_dot_prod_f32.c ****  *
   6:Drivers/CMSIS/DSP/Source/BasicMathFunctions/arm_dot_prod_f32.c ****  * $Date:        27. January 2017
   7:Drivers/CMSIS/DSP/Source/BasicMathFunctions/arm_dot_prod_f32.c ****  * $Revision:    V.1.5.1
   8:Drivers/CMSIS/DSP/Source/BasicMathFunctions/arm_dot_prod_f32.c ****  *
   9:Drivers/CMSIS/DSP/Source/BasicMathFunctions/arm_dot_prod_f32.c ****  * Target Processor: Cortex-M cores
  10:Drivers/CMSIS/DSP/Source/BasicMathFunctions/arm_dot_prod_f32.c ****  * -------------------------------------------------------------------- */
  11:Drivers/CMSIS/DSP/Source/BasicMathFunctions/arm_dot_prod_f32.c **** /*
  12:Drivers/CMSIS/DSP/Source/BasicMathFunctions/arm_dot_prod_f32.c ****  * Copyright (C) 2010-2017 ARM Limited or its affiliates. All rights reserved.
  13:Drivers/CMSIS/DSP/Source/BasicMathFunctions/arm_dot_prod_f32.c ****  *
  14:Drivers/CMSIS/DSP/Source/BasicMathFunctions/arm_dot_prod_f32.c ****  * SPDX-License-Identifier: Apache-2.0
  15:Drivers/CMSIS/DSP/Source/BasicMathFunctions/arm_dot_prod_f32.c ****  *
  16:Drivers/CMSIS/DSP/Source/BasicMathFunctions/arm_dot_prod_f32.c ****  * Licensed under the Apache License, Version 2.0 (the License); you may
  17:Drivers/CMSIS/DSP/Source/BasicMathFunctions/arm_dot_prod_f32.c ****  * not use this file except in compliance with the License.
  18:Drivers/CMSIS/DSP/Source/BasicMathFunctions/arm_dot_prod_f32.c ****  * You may obtain a copy of the License at
  19:Drivers/CMSIS/DSP/Source/BasicMathFunctions/arm_dot_prod_f32.c ****  *
  20:Drivers/CMSIS/DSP/Source/BasicMathFunctions/arm_dot_prod_f32.c ****  * www.apache.org/licenses/LICENSE-2.0
  21:Drivers/CMSIS/DSP/Source/BasicMathFunctions/arm_dot_prod_f32.c ****  *
  22:Drivers/CMSIS/DSP/Source/BasicMathFunctions/arm_dot_prod_f32.c ****  * Unless required by applicable law or agreed to in writing, software
  23:Drivers/CMSIS/DSP/Source/BasicMathFunctions/arm_dot_prod_f32.c ****  * distributed under the License is distributed on an AS IS BASIS, WITHOUT
  24:Drivers/CMSIS/DSP/Source/BasicMathFunctions/arm_dot_prod_f32.c ****  * WARRANTIES OR CONDITIONS OF ANY KIND, either express or implied.
  25:Drivers/CMSIS/DSP/Source/BasicMathFunctions/arm_dot_prod_f32.c ****  * See the License for the specific language governing permissions and
  26:Drivers/CMSIS/DSP/Source/BasicMathFunctions/arm_dot_prod_f32.c ****  * limitations under the License.
  27:Drivers/CMSIS/DSP/Source/BasicMathFunctions/arm_dot_prod_f32.c ****  */
  28:Drivers/CMSIS/DSP/Source/BasicMathFunctions/arm_dot_prod_f32.c **** 
  29:Drivers/CMSIS/DSP/Source/BasicMathFunctions/arm_dot_prod_f32.c **** #include "arm_math.h"
  30:Drivers/CMSIS/DSP/Source/BasicMathFunctions/arm_dot_prod_f32.c **** 
ARM GAS  /var/folders/n6/c271nzx11xl4r4_m7sqjlt0m0000gn/T//ccTuzddq.s 			page 2


  31:Drivers/CMSIS/DSP/Source/BasicMathFunctions/arm_dot_prod_f32.c **** /**
  32:Drivers/CMSIS/DSP/Source/BasicMathFunctions/arm_dot_prod_f32.c ****  * @ingroup groupMath
  33:Drivers/CMSIS/DSP/Source/BasicMathFunctions/arm_dot_prod_f32.c ****  */
  34:Drivers/CMSIS/DSP/Source/BasicMathFunctions/arm_dot_prod_f32.c **** 
  35:Drivers/CMSIS/DSP/Source/BasicMathFunctions/arm_dot_prod_f32.c **** /**
  36:Drivers/CMSIS/DSP/Source/BasicMathFunctions/arm_dot_prod_f32.c ****  * @defgroup dot_prod Vector Dot Product
  37:Drivers/CMSIS/DSP/Source/BasicMathFunctions/arm_dot_prod_f32.c ****  *
  38:Drivers/CMSIS/DSP/Source/BasicMathFunctions/arm_dot_prod_f32.c ****  * Computes the dot product of two vectors.
  39:Drivers/CMSIS/DSP/Source/BasicMathFunctions/arm_dot_prod_f32.c ****  * The vectors are multiplied element-by-element and then summed.
  40:Drivers/CMSIS/DSP/Source/BasicMathFunctions/arm_dot_prod_f32.c ****  *
  41:Drivers/CMSIS/DSP/Source/BasicMathFunctions/arm_dot_prod_f32.c ****  * <pre>
  42:Drivers/CMSIS/DSP/Source/BasicMathFunctions/arm_dot_prod_f32.c ****  *     sum = pSrcA[0]*pSrcB[0] + pSrcA[1]*pSrcB[1] + ... + pSrcA[blockSize-1]*pSrcB[blockSize-1]
  43:Drivers/CMSIS/DSP/Source/BasicMathFunctions/arm_dot_prod_f32.c ****  * </pre>
  44:Drivers/CMSIS/DSP/Source/BasicMathFunctions/arm_dot_prod_f32.c ****  *
  45:Drivers/CMSIS/DSP/Source/BasicMathFunctions/arm_dot_prod_f32.c ****  * There are separate functions for floating-point, Q7, Q15, and Q31 data types.
  46:Drivers/CMSIS/DSP/Source/BasicMathFunctions/arm_dot_prod_f32.c ****  */
  47:Drivers/CMSIS/DSP/Source/BasicMathFunctions/arm_dot_prod_f32.c **** 
  48:Drivers/CMSIS/DSP/Source/BasicMathFunctions/arm_dot_prod_f32.c **** /**
  49:Drivers/CMSIS/DSP/Source/BasicMathFunctions/arm_dot_prod_f32.c ****  * @addtogroup dot_prod
  50:Drivers/CMSIS/DSP/Source/BasicMathFunctions/arm_dot_prod_f32.c ****  * @{
  51:Drivers/CMSIS/DSP/Source/BasicMathFunctions/arm_dot_prod_f32.c ****  */
  52:Drivers/CMSIS/DSP/Source/BasicMathFunctions/arm_dot_prod_f32.c **** 
  53:Drivers/CMSIS/DSP/Source/BasicMathFunctions/arm_dot_prod_f32.c **** /**
  54:Drivers/CMSIS/DSP/Source/BasicMathFunctions/arm_dot_prod_f32.c ****  * @brief Dot product of floating-point vectors.
  55:Drivers/CMSIS/DSP/Source/BasicMathFunctions/arm_dot_prod_f32.c ****  * @param[in]       *pSrcA points to the first input vector
  56:Drivers/CMSIS/DSP/Source/BasicMathFunctions/arm_dot_prod_f32.c ****  * @param[in]       *pSrcB points to the second input vector
  57:Drivers/CMSIS/DSP/Source/BasicMathFunctions/arm_dot_prod_f32.c ****  * @param[in]       blockSize number of samples in each vector
  58:Drivers/CMSIS/DSP/Source/BasicMathFunctions/arm_dot_prod_f32.c ****  * @param[out]      *result output result returned here
  59:Drivers/CMSIS/DSP/Source/BasicMathFunctions/arm_dot_prod_f32.c ****  * @return none.
  60:Drivers/CMSIS/DSP/Source/BasicMathFunctions/arm_dot_prod_f32.c ****  */
  61:Drivers/CMSIS/DSP/Source/BasicMathFunctions/arm_dot_prod_f32.c **** 
  62:Drivers/CMSIS/DSP/Source/BasicMathFunctions/arm_dot_prod_f32.c **** 
  63:Drivers/CMSIS/DSP/Source/BasicMathFunctions/arm_dot_prod_f32.c **** void arm_dot_prod_f32(
  64:Drivers/CMSIS/DSP/Source/BasicMathFunctions/arm_dot_prod_f32.c ****   float32_t * pSrcA,
  65:Drivers/CMSIS/DSP/Source/BasicMathFunctions/arm_dot_prod_f32.c ****   float32_t * pSrcB,
  66:Drivers/CMSIS/DSP/Source/BasicMathFunctions/arm_dot_prod_f32.c ****   uint32_t blockSize,
  67:Drivers/CMSIS/DSP/Source/BasicMathFunctions/arm_dot_prod_f32.c ****   float32_t * result)
  68:Drivers/CMSIS/DSP/Source/BasicMathFunctions/arm_dot_prod_f32.c **** {
  29              		.loc 1 68 1 view -0
  30              		.cfi_startproc
  31              		@ args = 0, pretend = 0, frame = 0
  32              		@ frame_needed = 0, uses_anonymous_args = 0
  33              		@ link register save eliminated.
  34              		.loc 1 68 1 is_stmt 0 view .LVU1
  35 0000 10B4     		push	{r4}
  36              		.cfi_def_cfa_offset 4
  37              		.cfi_offset 4, -4
  69:Drivers/CMSIS/DSP/Source/BasicMathFunctions/arm_dot_prod_f32.c ****   float32_t sum = 0.0f;                          /* Temporary result storage */
  38              		.loc 1 69 3 is_stmt 1 view .LVU2
  39              	.LVL1:
  70:Drivers/CMSIS/DSP/Source/BasicMathFunctions/arm_dot_prod_f32.c ****   uint32_t blkCnt;                               /* loop counter */
  40              		.loc 1 70 3 view .LVU3
  71:Drivers/CMSIS/DSP/Source/BasicMathFunctions/arm_dot_prod_f32.c **** 
  72:Drivers/CMSIS/DSP/Source/BasicMathFunctions/arm_dot_prod_f32.c **** 
  73:Drivers/CMSIS/DSP/Source/BasicMathFunctions/arm_dot_prod_f32.c **** #if defined (ARM_MATH_DSP)
  74:Drivers/CMSIS/DSP/Source/BasicMathFunctions/arm_dot_prod_f32.c **** 
  75:Drivers/CMSIS/DSP/Source/BasicMathFunctions/arm_dot_prod_f32.c **** /* Run the below code for Cortex-M4 and Cortex-M3 */
ARM GAS  /var/folders/n6/c271nzx11xl4r4_m7sqjlt0m0000gn/T//ccTuzddq.s 			page 3


  76:Drivers/CMSIS/DSP/Source/BasicMathFunctions/arm_dot_prod_f32.c ****   /*loop Unrolling */
  77:Drivers/CMSIS/DSP/Source/BasicMathFunctions/arm_dot_prod_f32.c ****   blkCnt = blockSize >> 2U;
  41              		.loc 1 77 3 view .LVU4
  42              		.loc 1 77 10 is_stmt 0 view .LVU5
  43 0002 9408     		lsrs	r4, r2, #2
  44              	.LVL2:
  78:Drivers/CMSIS/DSP/Source/BasicMathFunctions/arm_dot_prod_f32.c **** 
  79:Drivers/CMSIS/DSP/Source/BasicMathFunctions/arm_dot_prod_f32.c ****   /* First part of the processing with loop unrolling.  Compute 4 outputs at a time.
  80:Drivers/CMSIS/DSP/Source/BasicMathFunctions/arm_dot_prod_f32.c ****    ** a second loop below computes the remaining 1 to 3 samples. */
  81:Drivers/CMSIS/DSP/Source/BasicMathFunctions/arm_dot_prod_f32.c ****   while (blkCnt > 0U)
  45              		.loc 1 81 3 is_stmt 1 view .LVU6
  69:Drivers/CMSIS/DSP/Source/BasicMathFunctions/arm_dot_prod_f32.c ****   uint32_t blkCnt;                               /* loop counter */
  46              		.loc 1 69 13 is_stmt 0 view .LVU7
  47 0004 DFED1D7A 		vldr.32	s15, .L7
  48              		.loc 1 81 9 view .LVU8
  49 0008 22E0     		b	.L2
  50              	.LVL3:
  51              	.L3:
  82:Drivers/CMSIS/DSP/Source/BasicMathFunctions/arm_dot_prod_f32.c ****   {
  83:Drivers/CMSIS/DSP/Source/BasicMathFunctions/arm_dot_prod_f32.c ****     /* C = A[0]* B[0] + A[1]* B[1] + A[2]* B[2] + .....+ A[blockSize-1]* B[blockSize-1] */
  84:Drivers/CMSIS/DSP/Source/BasicMathFunctions/arm_dot_prod_f32.c ****     /* Calculate dot product and then store the result in a temporary buffer */
  85:Drivers/CMSIS/DSP/Source/BasicMathFunctions/arm_dot_prod_f32.c ****     sum += (*pSrcA++) * (*pSrcB++);
  52              		.loc 1 85 5 is_stmt 1 view .LVU9
  53              		.loc 1 85 13 is_stmt 0 view .LVU10
  54 000a 90ED007A 		vldr.32	s14, [r0]
  55              	.LVL4:
  56              		.loc 1 85 26 view .LVU11
  57 000e D1ED006A 		vldr.32	s13, [r1]
  58              		.loc 1 85 23 view .LVU12
  59 0012 27EE267A 		vmul.f32	s14, s14, s13
  60              		.loc 1 85 9 view .LVU13
  61 0016 77EE877A 		vadd.f32	s15, s15, s14
  62              	.LVL5:
  86:Drivers/CMSIS/DSP/Source/BasicMathFunctions/arm_dot_prod_f32.c ****     sum += (*pSrcA++) * (*pSrcB++);
  63              		.loc 1 86 5 is_stmt 1 view .LVU14
  64              		.loc 1 86 13 is_stmt 0 view .LVU15
  65 001a 90ED017A 		vldr.32	s14, [r0, #4]
  66              	.LVL6:
  67              		.loc 1 86 26 view .LVU16
  68 001e D1ED016A 		vldr.32	s13, [r1, #4]
  69              		.loc 1 86 23 view .LVU17
  70 0022 27EE267A 		vmul.f32	s14, s14, s13
  71              		.loc 1 86 9 view .LVU18
  72 0026 77EE877A 		vadd.f32	s15, s15, s14
  73              	.LVL7:
  87:Drivers/CMSIS/DSP/Source/BasicMathFunctions/arm_dot_prod_f32.c ****     sum += (*pSrcA++) * (*pSrcB++);
  74              		.loc 1 87 5 is_stmt 1 view .LVU19
  75              		.loc 1 87 13 is_stmt 0 view .LVU20
  76 002a 90ED027A 		vldr.32	s14, [r0, #8]
  77              	.LVL8:
  78              		.loc 1 87 26 view .LVU21
  79 002e D1ED026A 		vldr.32	s13, [r1, #8]
  80              		.loc 1 87 23 view .LVU22
  81 0032 27EE267A 		vmul.f32	s14, s14, s13
  82              		.loc 1 87 9 view .LVU23
  83 0036 77EE877A 		vadd.f32	s15, s15, s14
  84              	.LVL9:
ARM GAS  /var/folders/n6/c271nzx11xl4r4_m7sqjlt0m0000gn/T//ccTuzddq.s 			page 4


  88:Drivers/CMSIS/DSP/Source/BasicMathFunctions/arm_dot_prod_f32.c ****     sum += (*pSrcA++) * (*pSrcB++);
  85              		.loc 1 88 5 is_stmt 1 view .LVU24
  86              		.loc 1 88 13 is_stmt 0 view .LVU25
  87 003a 90ED037A 		vldr.32	s14, [r0, #12]
  88              	.LVL10:
  89              		.loc 1 88 26 view .LVU26
  90 003e D1ED036A 		vldr.32	s13, [r1, #12]
  91              		.loc 1 88 23 view .LVU27
  92 0042 27EE267A 		vmul.f32	s14, s14, s13
  93              		.loc 1 88 9 view .LVU28
  94 0046 77EE877A 		vadd.f32	s15, s15, s14
  95              	.LVL11:
  89:Drivers/CMSIS/DSP/Source/BasicMathFunctions/arm_dot_prod_f32.c **** 
  90:Drivers/CMSIS/DSP/Source/BasicMathFunctions/arm_dot_prod_f32.c ****     /* Decrement the loop counter */
  91:Drivers/CMSIS/DSP/Source/BasicMathFunctions/arm_dot_prod_f32.c ****     blkCnt--;
  96              		.loc 1 91 5 is_stmt 1 view .LVU29
  97              		.loc 1 91 11 is_stmt 0 view .LVU30
  98 004a 013C     		subs	r4, r4, #1
  99              	.LVL12:
  88:Drivers/CMSIS/DSP/Source/BasicMathFunctions/arm_dot_prod_f32.c ****     sum += (*pSrcA++) * (*pSrcB++);
 100              		.loc 1 88 32 view .LVU31
 101 004c 1031     		adds	r1, r1, #16
 102              	.LVL13:
  88:Drivers/CMSIS/DSP/Source/BasicMathFunctions/arm_dot_prod_f32.c ****     sum += (*pSrcA++) * (*pSrcB++);
 103              		.loc 1 88 19 view .LVU32
 104 004e 1030     		adds	r0, r0, #16
 105              	.LVL14:
 106              	.L2:
  81:Drivers/CMSIS/DSP/Source/BasicMathFunctions/arm_dot_prod_f32.c ****   {
 107              		.loc 1 81 17 is_stmt 1 view .LVU33
 108 0050 002C     		cmp	r4, #0
 109 0052 DAD1     		bne	.L3
  92:Drivers/CMSIS/DSP/Source/BasicMathFunctions/arm_dot_prod_f32.c ****   }
  93:Drivers/CMSIS/DSP/Source/BasicMathFunctions/arm_dot_prod_f32.c **** 
  94:Drivers/CMSIS/DSP/Source/BasicMathFunctions/arm_dot_prod_f32.c ****   /* If the blockSize is not a multiple of 4, compute any remaining output samples here.
  95:Drivers/CMSIS/DSP/Source/BasicMathFunctions/arm_dot_prod_f32.c ****    ** No loop unrolling is used. */
  96:Drivers/CMSIS/DSP/Source/BasicMathFunctions/arm_dot_prod_f32.c ****   blkCnt = blockSize % 0x4U;
 110              		.loc 1 96 3 view .LVU34
 111              		.loc 1 96 10 is_stmt 0 view .LVU35
 112 0054 02F00302 		and	r2, r2, #3
 113              	.LVL15:
  97:Drivers/CMSIS/DSP/Source/BasicMathFunctions/arm_dot_prod_f32.c **** 
  98:Drivers/CMSIS/DSP/Source/BasicMathFunctions/arm_dot_prod_f32.c **** #else
  99:Drivers/CMSIS/DSP/Source/BasicMathFunctions/arm_dot_prod_f32.c **** 
 100:Drivers/CMSIS/DSP/Source/BasicMathFunctions/arm_dot_prod_f32.c ****   /* Run the below code for Cortex-M0 */
 101:Drivers/CMSIS/DSP/Source/BasicMathFunctions/arm_dot_prod_f32.c **** 
 102:Drivers/CMSIS/DSP/Source/BasicMathFunctions/arm_dot_prod_f32.c ****   /* Initialize blkCnt with number of samples */
 103:Drivers/CMSIS/DSP/Source/BasicMathFunctions/arm_dot_prod_f32.c ****   blkCnt = blockSize;
 104:Drivers/CMSIS/DSP/Source/BasicMathFunctions/arm_dot_prod_f32.c **** 
 105:Drivers/CMSIS/DSP/Source/BasicMathFunctions/arm_dot_prod_f32.c **** #endif /* #if defined (ARM_MATH_DSP) */
 106:Drivers/CMSIS/DSP/Source/BasicMathFunctions/arm_dot_prod_f32.c **** 
 107:Drivers/CMSIS/DSP/Source/BasicMathFunctions/arm_dot_prod_f32.c **** 
 108:Drivers/CMSIS/DSP/Source/BasicMathFunctions/arm_dot_prod_f32.c ****   while (blkCnt > 0U)
 114              		.loc 1 108 3 is_stmt 1 view .LVU36
 115              		.loc 1 108 9 is_stmt 0 view .LVU37
 116 0058 08E0     		b	.L4
 117              	.L5:
ARM GAS  /var/folders/n6/c271nzx11xl4r4_m7sqjlt0m0000gn/T//ccTuzddq.s 			page 5


 109:Drivers/CMSIS/DSP/Source/BasicMathFunctions/arm_dot_prod_f32.c ****   {
 110:Drivers/CMSIS/DSP/Source/BasicMathFunctions/arm_dot_prod_f32.c ****     /* C = A[0]* B[0] + A[1]* B[1] + A[2]* B[2] + .....+ A[blockSize-1]* B[blockSize-1] */
 111:Drivers/CMSIS/DSP/Source/BasicMathFunctions/arm_dot_prod_f32.c ****     /* Calculate dot product and then store the result in a temporary buffer. */
 112:Drivers/CMSIS/DSP/Source/BasicMathFunctions/arm_dot_prod_f32.c ****     sum += (*pSrcA++) * (*pSrcB++);
 118              		.loc 1 112 5 is_stmt 1 view .LVU38
 119              	.LVL16:
 120              		.loc 1 112 13 is_stmt 0 view .LVU39
 121 005a B0EC017A 		vldmia.32	r0!, {s14}
 122              	.LVL17:
 123              		.loc 1 112 26 view .LVU40
 124 005e F1EC016A 		vldmia.32	r1!, {s13}
 125              	.LVL18:
 126              		.loc 1 112 23 view .LVU41
 127 0062 27EE267A 		vmul.f32	s14, s14, s13
 128              		.loc 1 112 9 view .LVU42
 129 0066 77EE877A 		vadd.f32	s15, s15, s14
 130              	.LVL19:
 113:Drivers/CMSIS/DSP/Source/BasicMathFunctions/arm_dot_prod_f32.c **** 
 114:Drivers/CMSIS/DSP/Source/BasicMathFunctions/arm_dot_prod_f32.c ****     /* Decrement the loop counter */
 115:Drivers/CMSIS/DSP/Source/BasicMathFunctions/arm_dot_prod_f32.c ****     blkCnt--;
 131              		.loc 1 115 5 is_stmt 1 view .LVU43
 132              		.loc 1 115 11 is_stmt 0 view .LVU44
 133 006a 013A     		subs	r2, r2, #1
 134              	.LVL20:
 135              	.L4:
 108:Drivers/CMSIS/DSP/Source/BasicMathFunctions/arm_dot_prod_f32.c ****   {
 136              		.loc 1 108 17 is_stmt 1 view .LVU45
 137 006c 002A     		cmp	r2, #0
 138 006e F4D1     		bne	.L5
 116:Drivers/CMSIS/DSP/Source/BasicMathFunctions/arm_dot_prod_f32.c ****   }
 117:Drivers/CMSIS/DSP/Source/BasicMathFunctions/arm_dot_prod_f32.c ****   /* Store the result back in the destination buffer */
 118:Drivers/CMSIS/DSP/Source/BasicMathFunctions/arm_dot_prod_f32.c ****   *result = sum;
 139              		.loc 1 118 3 view .LVU46
 140              		.loc 1 118 11 is_stmt 0 view .LVU47
 141 0070 C3ED007A 		vstr.32	s15, [r3]
 119:Drivers/CMSIS/DSP/Source/BasicMathFunctions/arm_dot_prod_f32.c **** }
 142              		.loc 1 119 1 view .LVU48
 143 0074 5DF8044B 		ldr	r4, [sp], #4
 144              		.cfi_restore 4
 145              		.cfi_def_cfa_offset 0
 146 0078 7047     		bx	lr
 147              	.L8:
 148 007a 00BF     		.align	2
 149              	.L7:
 150 007c 00000000 		.word	0
 151              		.cfi_endproc
 152              	.LFE135:
 154              		.text
 155              	.Letext0:
 156              		.file 2 "/Users/killian/Library/Application Support/Code/User/globalStorage/bmd.stm32-for-vscode/@
 157              		.file 3 "/Users/killian/Library/Application Support/Code/User/globalStorage/bmd.stm32-for-vscode/@
 158              		.file 4 "Drivers/CMSIS/DSP/Include/arm_math.h"
ARM GAS  /var/folders/n6/c271nzx11xl4r4_m7sqjlt0m0000gn/T//ccTuzddq.s 			page 6


DEFINED SYMBOLS
                            *ABS*:00000000 arm_dot_prod_f32.c
/var/folders/n6/c271nzx11xl4r4_m7sqjlt0m0000gn/T//ccTuzddq.s:20     .text.arm_dot_prod_f32:00000000 $t
/var/folders/n6/c271nzx11xl4r4_m7sqjlt0m0000gn/T//ccTuzddq.s:26     .text.arm_dot_prod_f32:00000000 arm_dot_prod_f32
/var/folders/n6/c271nzx11xl4r4_m7sqjlt0m0000gn/T//ccTuzddq.s:150    .text.arm_dot_prod_f32:0000007c $d

NO UNDEFINED SYMBOLS
