ARM GAS  /var/folders/n6/c271nzx11xl4r4_m7sqjlt0m0000gn/T//ccNSNDdn.s 			page 1


   1              		.cpu cortex-m7
   2              		.arch armv7e-m
   3              		.fpu fpv5-d16
   4              		.eabi_attribute 28, 1
   5              		.eabi_attribute 20, 1
   6              		.eabi_attribute 21, 1
   7              		.eabi_attribute 23, 3
   8              		.eabi_attribute 24, 1
   9              		.eabi_attribute 25, 1
  10              		.eabi_attribute 26, 1
  11              		.eabi_attribute 30, 1
  12              		.eabi_attribute 34, 1
  13              		.eabi_attribute 18, 4
  14              		.file	"arm_rfft_fast_init_f32.c"
  15              		.text
  16              	.Ltext0:
  17              		.cfi_sections	.debug_frame
  18              		.file 1 "Drivers/CMSIS/DSP/Source/TransformFunctions/arm_rfft_fast_init_f32.c"
  19              		.section	.text.arm_rfft_fast_init_f32,"ax",%progbits
  20              		.align	1
  21              		.global	arm_rfft_fast_init_f32
  22              		.syntax unified
  23              		.thumb
  24              		.thumb_func
  26              	arm_rfft_fast_init_f32:
  27              	.LVL0:
  28              	.LFB135:
   1:Drivers/CMSIS/DSP/Source/TransformFunctions/arm_rfft_fast_init_f32.c **** /* ----------------------------------------------------------------------
   2:Drivers/CMSIS/DSP/Source/TransformFunctions/arm_rfft_fast_init_f32.c ****  * Project:      CMSIS DSP Library
   3:Drivers/CMSIS/DSP/Source/TransformFunctions/arm_rfft_fast_init_f32.c ****  * Title:        arm_cfft_init_f32.c
   4:Drivers/CMSIS/DSP/Source/TransformFunctions/arm_rfft_fast_init_f32.c ****  * Description:  Split Radix Decimation in Frequency CFFT Floating point processing function
   5:Drivers/CMSIS/DSP/Source/TransformFunctions/arm_rfft_fast_init_f32.c ****  *
   6:Drivers/CMSIS/DSP/Source/TransformFunctions/arm_rfft_fast_init_f32.c ****  * $Date:        27. January 2017
   7:Drivers/CMSIS/DSP/Source/TransformFunctions/arm_rfft_fast_init_f32.c ****  * $Revision:    V.1.5.1
   8:Drivers/CMSIS/DSP/Source/TransformFunctions/arm_rfft_fast_init_f32.c ****  *
   9:Drivers/CMSIS/DSP/Source/TransformFunctions/arm_rfft_fast_init_f32.c ****  * Target Processor: Cortex-M cores
  10:Drivers/CMSIS/DSP/Source/TransformFunctions/arm_rfft_fast_init_f32.c ****  * -------------------------------------------------------------------- */
  11:Drivers/CMSIS/DSP/Source/TransformFunctions/arm_rfft_fast_init_f32.c **** /*
  12:Drivers/CMSIS/DSP/Source/TransformFunctions/arm_rfft_fast_init_f32.c ****  * Copyright (C) 2010-2017 ARM Limited or its affiliates. All rights reserved.
  13:Drivers/CMSIS/DSP/Source/TransformFunctions/arm_rfft_fast_init_f32.c ****  *
  14:Drivers/CMSIS/DSP/Source/TransformFunctions/arm_rfft_fast_init_f32.c ****  * SPDX-License-Identifier: Apache-2.0
  15:Drivers/CMSIS/DSP/Source/TransformFunctions/arm_rfft_fast_init_f32.c ****  *
  16:Drivers/CMSIS/DSP/Source/TransformFunctions/arm_rfft_fast_init_f32.c ****  * Licensed under the Apache License, Version 2.0 (the License); you may
  17:Drivers/CMSIS/DSP/Source/TransformFunctions/arm_rfft_fast_init_f32.c ****  * not use this file except in compliance with the License.
  18:Drivers/CMSIS/DSP/Source/TransformFunctions/arm_rfft_fast_init_f32.c ****  * You may obtain a copy of the License at
  19:Drivers/CMSIS/DSP/Source/TransformFunctions/arm_rfft_fast_init_f32.c ****  *
  20:Drivers/CMSIS/DSP/Source/TransformFunctions/arm_rfft_fast_init_f32.c ****  * www.apache.org/licenses/LICENSE-2.0
  21:Drivers/CMSIS/DSP/Source/TransformFunctions/arm_rfft_fast_init_f32.c ****  *
  22:Drivers/CMSIS/DSP/Source/TransformFunctions/arm_rfft_fast_init_f32.c ****  * Unless required by applicable law or agreed to in writing, software
  23:Drivers/CMSIS/DSP/Source/TransformFunctions/arm_rfft_fast_init_f32.c ****  * distributed under the License is distributed on an AS IS BASIS, WITHOUT
  24:Drivers/CMSIS/DSP/Source/TransformFunctions/arm_rfft_fast_init_f32.c ****  * WARRANTIES OR CONDITIONS OF ANY KIND, either express or implied.
  25:Drivers/CMSIS/DSP/Source/TransformFunctions/arm_rfft_fast_init_f32.c ****  * See the License for the specific language governing permissions and
  26:Drivers/CMSIS/DSP/Source/TransformFunctions/arm_rfft_fast_init_f32.c ****  * limitations under the License.
  27:Drivers/CMSIS/DSP/Source/TransformFunctions/arm_rfft_fast_init_f32.c ****  */
  28:Drivers/CMSIS/DSP/Source/TransformFunctions/arm_rfft_fast_init_f32.c **** 
  29:Drivers/CMSIS/DSP/Source/TransformFunctions/arm_rfft_fast_init_f32.c **** #include "arm_math.h"
  30:Drivers/CMSIS/DSP/Source/TransformFunctions/arm_rfft_fast_init_f32.c **** #include "arm_common_tables.h"
ARM GAS  /var/folders/n6/c271nzx11xl4r4_m7sqjlt0m0000gn/T//ccNSNDdn.s 			page 2


  31:Drivers/CMSIS/DSP/Source/TransformFunctions/arm_rfft_fast_init_f32.c **** 
  32:Drivers/CMSIS/DSP/Source/TransformFunctions/arm_rfft_fast_init_f32.c **** /**
  33:Drivers/CMSIS/DSP/Source/TransformFunctions/arm_rfft_fast_init_f32.c ****  * @ingroup groupTransforms
  34:Drivers/CMSIS/DSP/Source/TransformFunctions/arm_rfft_fast_init_f32.c ****  */
  35:Drivers/CMSIS/DSP/Source/TransformFunctions/arm_rfft_fast_init_f32.c **** 
  36:Drivers/CMSIS/DSP/Source/TransformFunctions/arm_rfft_fast_init_f32.c **** /**
  37:Drivers/CMSIS/DSP/Source/TransformFunctions/arm_rfft_fast_init_f32.c ****  * @addtogroup RealFFT
  38:Drivers/CMSIS/DSP/Source/TransformFunctions/arm_rfft_fast_init_f32.c ****  * @{
  39:Drivers/CMSIS/DSP/Source/TransformFunctions/arm_rfft_fast_init_f32.c ****  */
  40:Drivers/CMSIS/DSP/Source/TransformFunctions/arm_rfft_fast_init_f32.c **** 
  41:Drivers/CMSIS/DSP/Source/TransformFunctions/arm_rfft_fast_init_f32.c **** /**
  42:Drivers/CMSIS/DSP/Source/TransformFunctions/arm_rfft_fast_init_f32.c **** * @brief  Initialization function for the floating-point real FFT.
  43:Drivers/CMSIS/DSP/Source/TransformFunctions/arm_rfft_fast_init_f32.c **** * @param[in,out] *S             points to an arm_rfft_fast_instance_f32 structure.
  44:Drivers/CMSIS/DSP/Source/TransformFunctions/arm_rfft_fast_init_f32.c **** * @param[in]     fftLen         length of the Real Sequence.
  45:Drivers/CMSIS/DSP/Source/TransformFunctions/arm_rfft_fast_init_f32.c **** * @return        The function returns ARM_MATH_SUCCESS if initialization is successful or ARM_MATH_
  46:Drivers/CMSIS/DSP/Source/TransformFunctions/arm_rfft_fast_init_f32.c **** *
  47:Drivers/CMSIS/DSP/Source/TransformFunctions/arm_rfft_fast_init_f32.c **** * \par Description:
  48:Drivers/CMSIS/DSP/Source/TransformFunctions/arm_rfft_fast_init_f32.c **** * \par
  49:Drivers/CMSIS/DSP/Source/TransformFunctions/arm_rfft_fast_init_f32.c **** * The parameter <code>fftLen</code>	Specifies length of RFFT/CIFFT process. Supported FFT Lengths a
  50:Drivers/CMSIS/DSP/Source/TransformFunctions/arm_rfft_fast_init_f32.c **** * \par
  51:Drivers/CMSIS/DSP/Source/TransformFunctions/arm_rfft_fast_init_f32.c **** * This Function also initializes Twiddle factor table pointer and Bit reversal table pointer.
  52:Drivers/CMSIS/DSP/Source/TransformFunctions/arm_rfft_fast_init_f32.c **** */
  53:Drivers/CMSIS/DSP/Source/TransformFunctions/arm_rfft_fast_init_f32.c **** arm_status arm_rfft_fast_init_f32(
  54:Drivers/CMSIS/DSP/Source/TransformFunctions/arm_rfft_fast_init_f32.c ****   arm_rfft_fast_instance_f32 * S,
  55:Drivers/CMSIS/DSP/Source/TransformFunctions/arm_rfft_fast_init_f32.c ****   uint16_t fftLen)
  56:Drivers/CMSIS/DSP/Source/TransformFunctions/arm_rfft_fast_init_f32.c **** {
  29              		.loc 1 56 1 view -0
  30              		.cfi_startproc
  31              		@ args = 0, pretend = 0, frame = 0
  32              		@ frame_needed = 0, uses_anonymous_args = 0
  33              		@ link register save eliminated.
  57:Drivers/CMSIS/DSP/Source/TransformFunctions/arm_rfft_fast_init_f32.c ****   arm_cfft_instance_f32 * Sint;
  34              		.loc 1 57 3 view .LVU1
  58:Drivers/CMSIS/DSP/Source/TransformFunctions/arm_rfft_fast_init_f32.c ****   /*  Initialise the default arm status */
  59:Drivers/CMSIS/DSP/Source/TransformFunctions/arm_rfft_fast_init_f32.c ****   arm_status status = ARM_MATH_SUCCESS;
  35              		.loc 1 59 3 view .LVU2
  60:Drivers/CMSIS/DSP/Source/TransformFunctions/arm_rfft_fast_init_f32.c ****   /*  Initialise the FFT length */
  61:Drivers/CMSIS/DSP/Source/TransformFunctions/arm_rfft_fast_init_f32.c ****   Sint = &(S->Sint);
  36              		.loc 1 61 3 view .LVU3
  62:Drivers/CMSIS/DSP/Source/TransformFunctions/arm_rfft_fast_init_f32.c ****   Sint->fftLen = fftLen/2;
  37              		.loc 1 62 3 view .LVU4
  38              		.loc 1 62 16 is_stmt 0 view .LVU5
  39 0000 4B08     		lsrs	r3, r1, #1
  40 0002 0380     		strh	r3, [r0]	@ movhi
  63:Drivers/CMSIS/DSP/Source/TransformFunctions/arm_rfft_fast_init_f32.c ****   S->fftLenRFFT = fftLen;
  41              		.loc 1 63 3 is_stmt 1 view .LVU6
  42              		.loc 1 63 17 is_stmt 0 view .LVU7
  43 0004 0182     		strh	r1, [r0, #16]	@ movhi
  64:Drivers/CMSIS/DSP/Source/TransformFunctions/arm_rfft_fast_init_f32.c **** 
  65:Drivers/CMSIS/DSP/Source/TransformFunctions/arm_rfft_fast_init_f32.c ****   /*  Initializations of structure parameters depending on the FFT length */
  66:Drivers/CMSIS/DSP/Source/TransformFunctions/arm_rfft_fast_init_f32.c ****   switch (Sint->fftLen)
  44              		.loc 1 66 3 is_stmt 1 view .LVU8
  45 0006 B3F5807F 		cmp	r3, #256
  46 000a 50D0     		beq	.L2
  47 000c 22D8     		bhi	.L3
  48 000e 402B     		cmp	r3, #64
  49 0010 58D0     		beq	.L4
ARM GAS  /var/folders/n6/c271nzx11xl4r4_m7sqjlt0m0000gn/T//ccNSNDdn.s 			page 3


  50 0012 10D8     		bhi	.L5
  51 0014 102B     		cmp	r3, #16
  52 0016 5FD0     		beq	.L6
  53 0018 202B     		cmp	r3, #32
  54 001a 09D1     		bne	.L13
  67:Drivers/CMSIS/DSP/Source/TransformFunctions/arm_rfft_fast_init_f32.c ****   {
  68:Drivers/CMSIS/DSP/Source/TransformFunctions/arm_rfft_fast_init_f32.c ****   case 2048U:
  69:Drivers/CMSIS/DSP/Source/TransformFunctions/arm_rfft_fast_init_f32.c ****     /*  Initializations of structure parameters for 2048 point FFT */
  70:Drivers/CMSIS/DSP/Source/TransformFunctions/arm_rfft_fast_init_f32.c ****     /*  Initialise the bit reversal table length */
  71:Drivers/CMSIS/DSP/Source/TransformFunctions/arm_rfft_fast_init_f32.c ****     Sint->bitRevLength = ARMBITREVINDEXTABLE_2048_TABLE_LENGTH;
  72:Drivers/CMSIS/DSP/Source/TransformFunctions/arm_rfft_fast_init_f32.c ****     /*  Initialise the bit reversal table pointer */
  73:Drivers/CMSIS/DSP/Source/TransformFunctions/arm_rfft_fast_init_f32.c ****     Sint->pBitRevTable = (uint16_t *)armBitRevIndexTable2048;
  74:Drivers/CMSIS/DSP/Source/TransformFunctions/arm_rfft_fast_init_f32.c ****     /*  Initialise the Twiddle coefficient pointers */
  75:Drivers/CMSIS/DSP/Source/TransformFunctions/arm_rfft_fast_init_f32.c **** 		Sint->pTwiddle     = (float32_t *) twiddleCoef_2048;
  76:Drivers/CMSIS/DSP/Source/TransformFunctions/arm_rfft_fast_init_f32.c **** 		S->pTwiddleRFFT    = (float32_t *) twiddleCoef_rfft_4096;
  77:Drivers/CMSIS/DSP/Source/TransformFunctions/arm_rfft_fast_init_f32.c ****     break;
  78:Drivers/CMSIS/DSP/Source/TransformFunctions/arm_rfft_fast_init_f32.c ****   case 1024U:
  79:Drivers/CMSIS/DSP/Source/TransformFunctions/arm_rfft_fast_init_f32.c ****     Sint->bitRevLength = ARMBITREVINDEXTABLE_1024_TABLE_LENGTH;
  80:Drivers/CMSIS/DSP/Source/TransformFunctions/arm_rfft_fast_init_f32.c ****     Sint->pBitRevTable = (uint16_t *)armBitRevIndexTable1024;
  81:Drivers/CMSIS/DSP/Source/TransformFunctions/arm_rfft_fast_init_f32.c **** 		Sint->pTwiddle     = (float32_t *) twiddleCoef_1024;
  82:Drivers/CMSIS/DSP/Source/TransformFunctions/arm_rfft_fast_init_f32.c **** 		S->pTwiddleRFFT    = (float32_t *) twiddleCoef_rfft_2048;
  83:Drivers/CMSIS/DSP/Source/TransformFunctions/arm_rfft_fast_init_f32.c ****     break;
  84:Drivers/CMSIS/DSP/Source/TransformFunctions/arm_rfft_fast_init_f32.c ****   case 512U:
  85:Drivers/CMSIS/DSP/Source/TransformFunctions/arm_rfft_fast_init_f32.c ****     Sint->bitRevLength = ARMBITREVINDEXTABLE_512_TABLE_LENGTH;
  86:Drivers/CMSIS/DSP/Source/TransformFunctions/arm_rfft_fast_init_f32.c ****     Sint->pBitRevTable = (uint16_t *)armBitRevIndexTable512;
  87:Drivers/CMSIS/DSP/Source/TransformFunctions/arm_rfft_fast_init_f32.c **** 		Sint->pTwiddle     = (float32_t *) twiddleCoef_512;
  88:Drivers/CMSIS/DSP/Source/TransformFunctions/arm_rfft_fast_init_f32.c **** 		S->pTwiddleRFFT    = (float32_t *) twiddleCoef_rfft_1024;
  89:Drivers/CMSIS/DSP/Source/TransformFunctions/arm_rfft_fast_init_f32.c ****     break;
  90:Drivers/CMSIS/DSP/Source/TransformFunctions/arm_rfft_fast_init_f32.c ****   case 256U:
  91:Drivers/CMSIS/DSP/Source/TransformFunctions/arm_rfft_fast_init_f32.c ****     Sint->bitRevLength = ARMBITREVINDEXTABLE_256_TABLE_LENGTH;
  92:Drivers/CMSIS/DSP/Source/TransformFunctions/arm_rfft_fast_init_f32.c ****     Sint->pBitRevTable = (uint16_t *)armBitRevIndexTable256;
  93:Drivers/CMSIS/DSP/Source/TransformFunctions/arm_rfft_fast_init_f32.c **** 		Sint->pTwiddle     = (float32_t *) twiddleCoef_256;
  94:Drivers/CMSIS/DSP/Source/TransformFunctions/arm_rfft_fast_init_f32.c **** 		S->pTwiddleRFFT    = (float32_t *) twiddleCoef_rfft_512;
  95:Drivers/CMSIS/DSP/Source/TransformFunctions/arm_rfft_fast_init_f32.c ****     break;
  96:Drivers/CMSIS/DSP/Source/TransformFunctions/arm_rfft_fast_init_f32.c ****   case 128U:
  97:Drivers/CMSIS/DSP/Source/TransformFunctions/arm_rfft_fast_init_f32.c ****     Sint->bitRevLength = ARMBITREVINDEXTABLE_128_TABLE_LENGTH;
  98:Drivers/CMSIS/DSP/Source/TransformFunctions/arm_rfft_fast_init_f32.c ****     Sint->pBitRevTable = (uint16_t *)armBitRevIndexTable128;
  99:Drivers/CMSIS/DSP/Source/TransformFunctions/arm_rfft_fast_init_f32.c **** 		Sint->pTwiddle     = (float32_t *) twiddleCoef_128;
 100:Drivers/CMSIS/DSP/Source/TransformFunctions/arm_rfft_fast_init_f32.c **** 		S->pTwiddleRFFT    = (float32_t *) twiddleCoef_rfft_256;
 101:Drivers/CMSIS/DSP/Source/TransformFunctions/arm_rfft_fast_init_f32.c ****     break;
 102:Drivers/CMSIS/DSP/Source/TransformFunctions/arm_rfft_fast_init_f32.c ****   case 64U:
 103:Drivers/CMSIS/DSP/Source/TransformFunctions/arm_rfft_fast_init_f32.c ****     Sint->bitRevLength = ARMBITREVINDEXTABLE_64_TABLE_LENGTH;
 104:Drivers/CMSIS/DSP/Source/TransformFunctions/arm_rfft_fast_init_f32.c ****     Sint->pBitRevTable = (uint16_t *)armBitRevIndexTable64;
 105:Drivers/CMSIS/DSP/Source/TransformFunctions/arm_rfft_fast_init_f32.c **** 		Sint->pTwiddle     = (float32_t *) twiddleCoef_64;
 106:Drivers/CMSIS/DSP/Source/TransformFunctions/arm_rfft_fast_init_f32.c **** 		S->pTwiddleRFFT    = (float32_t *) twiddleCoef_rfft_128;
 107:Drivers/CMSIS/DSP/Source/TransformFunctions/arm_rfft_fast_init_f32.c ****     break;
 108:Drivers/CMSIS/DSP/Source/TransformFunctions/arm_rfft_fast_init_f32.c ****   case 32U:
 109:Drivers/CMSIS/DSP/Source/TransformFunctions/arm_rfft_fast_init_f32.c ****     Sint->bitRevLength = ARMBITREVINDEXTABLE_32_TABLE_LENGTH;
  55              		.loc 1 109 5 view .LVU9
  56              		.loc 1 109 24 is_stmt 0 view .LVU10
  57 001c 3023     		movs	r3, #48
  58 001e 8381     		strh	r3, [r0, #12]	@ movhi
 110:Drivers/CMSIS/DSP/Source/TransformFunctions/arm_rfft_fast_init_f32.c ****     Sint->pBitRevTable = (uint16_t *)armBitRevIndexTable32;
  59              		.loc 1 110 5 is_stmt 1 view .LVU11
  60              		.loc 1 110 24 is_stmt 0 view .LVU12
  61 0020 324B     		ldr	r3, .L16
  62 0022 8360     		str	r3, [r0, #8]
ARM GAS  /var/folders/n6/c271nzx11xl4r4_m7sqjlt0m0000gn/T//ccNSNDdn.s 			page 4


 111:Drivers/CMSIS/DSP/Source/TransformFunctions/arm_rfft_fast_init_f32.c **** 		Sint->pTwiddle     = (float32_t *) twiddleCoef_32;
  63              		.loc 1 111 3 is_stmt 1 view .LVU13
  64              		.loc 1 111 22 is_stmt 0 view .LVU14
  65 0024 324B     		ldr	r3, .L16+4
  66 0026 4360     		str	r3, [r0, #4]
 112:Drivers/CMSIS/DSP/Source/TransformFunctions/arm_rfft_fast_init_f32.c **** 		S->pTwiddleRFFT    = (float32_t *) twiddleCoef_rfft_64;
  67              		.loc 1 112 3 is_stmt 1 view .LVU15
  68              		.loc 1 112 22 is_stmt 0 view .LVU16
  69 0028 324B     		ldr	r3, .L16+8
  70 002a 4361     		str	r3, [r0, #20]
 113:Drivers/CMSIS/DSP/Source/TransformFunctions/arm_rfft_fast_init_f32.c ****     break;
  71              		.loc 1 113 5 is_stmt 1 view .LVU17
  59:Drivers/CMSIS/DSP/Source/TransformFunctions/arm_rfft_fast_init_f32.c ****   /*  Initialise the FFT length */
  72              		.loc 1 59 14 is_stmt 0 view .LVU18
  73 002c 0020     		movs	r0, #0
  74              	.LVL1:
  75              		.loc 1 113 5 view .LVU19
  76 002e 7047     		bx	lr
  77              	.LVL2:
  78              	.L13:
  66:Drivers/CMSIS/DSP/Source/TransformFunctions/arm_rfft_fast_init_f32.c ****   {
  79              		.loc 1 66 3 view .LVU20
  80 0030 4FF0FF30 		mov	r0, #-1
  81              	.LVL3:
  66:Drivers/CMSIS/DSP/Source/TransformFunctions/arm_rfft_fast_init_f32.c ****   {
  82              		.loc 1 66 3 view .LVU21
  83 0034 7047     		bx	lr
  84              	.LVL4:
  85              	.L5:
  66:Drivers/CMSIS/DSP/Source/TransformFunctions/arm_rfft_fast_init_f32.c ****   {
  86              		.loc 1 66 3 view .LVU22
  87 0036 802B     		cmp	r3, #128
  88 0038 09D1     		bne	.L14
  97:Drivers/CMSIS/DSP/Source/TransformFunctions/arm_rfft_fast_init_f32.c ****     Sint->pBitRevTable = (uint16_t *)armBitRevIndexTable128;
  89              		.loc 1 97 5 is_stmt 1 view .LVU23
  97:Drivers/CMSIS/DSP/Source/TransformFunctions/arm_rfft_fast_init_f32.c ****     Sint->pBitRevTable = (uint16_t *)armBitRevIndexTable128;
  90              		.loc 1 97 24 is_stmt 0 view .LVU24
  91 003a D023     		movs	r3, #208
  92 003c 8381     		strh	r3, [r0, #12]	@ movhi
  98:Drivers/CMSIS/DSP/Source/TransformFunctions/arm_rfft_fast_init_f32.c **** 		Sint->pTwiddle     = (float32_t *) twiddleCoef_128;
  93              		.loc 1 98 5 is_stmt 1 view .LVU25
  98:Drivers/CMSIS/DSP/Source/TransformFunctions/arm_rfft_fast_init_f32.c **** 		Sint->pTwiddle     = (float32_t *) twiddleCoef_128;
  94              		.loc 1 98 24 is_stmt 0 view .LVU26
  95 003e 2E4B     		ldr	r3, .L16+12
  96 0040 8360     		str	r3, [r0, #8]
  99:Drivers/CMSIS/DSP/Source/TransformFunctions/arm_rfft_fast_init_f32.c **** 		S->pTwiddleRFFT    = (float32_t *) twiddleCoef_rfft_256;
  97              		.loc 1 99 3 is_stmt 1 view .LVU27
  99:Drivers/CMSIS/DSP/Source/TransformFunctions/arm_rfft_fast_init_f32.c **** 		S->pTwiddleRFFT    = (float32_t *) twiddleCoef_rfft_256;
  98              		.loc 1 99 22 is_stmt 0 view .LVU28
  99 0042 2E4B     		ldr	r3, .L16+16
 100 0044 4360     		str	r3, [r0, #4]
 100:Drivers/CMSIS/DSP/Source/TransformFunctions/arm_rfft_fast_init_f32.c ****     break;
 101              		.loc 1 100 3 is_stmt 1 view .LVU29
 100:Drivers/CMSIS/DSP/Source/TransformFunctions/arm_rfft_fast_init_f32.c ****     break;
 102              		.loc 1 100 22 is_stmt 0 view .LVU30
 103 0046 2E4B     		ldr	r3, .L16+20
 104 0048 4361     		str	r3, [r0, #20]
ARM GAS  /var/folders/n6/c271nzx11xl4r4_m7sqjlt0m0000gn/T//ccNSNDdn.s 			page 5


 101:Drivers/CMSIS/DSP/Source/TransformFunctions/arm_rfft_fast_init_f32.c ****   case 64U:
 105              		.loc 1 101 5 is_stmt 1 view .LVU31
  59:Drivers/CMSIS/DSP/Source/TransformFunctions/arm_rfft_fast_init_f32.c ****   /*  Initialise the FFT length */
 106              		.loc 1 59 14 is_stmt 0 view .LVU32
 107 004a 0020     		movs	r0, #0
 108              	.LVL5:
 101:Drivers/CMSIS/DSP/Source/TransformFunctions/arm_rfft_fast_init_f32.c ****   case 64U:
 109              		.loc 1 101 5 view .LVU33
 110 004c 7047     		bx	lr
 111              	.LVL6:
 112              	.L14:
  66:Drivers/CMSIS/DSP/Source/TransformFunctions/arm_rfft_fast_init_f32.c ****   {
 113              		.loc 1 66 3 view .LVU34
 114 004e 4FF0FF30 		mov	r0, #-1
 115              	.LVL7:
  66:Drivers/CMSIS/DSP/Source/TransformFunctions/arm_rfft_fast_init_f32.c ****   {
 116              		.loc 1 66 3 view .LVU35
 117 0052 7047     		bx	lr
 118              	.LVL8:
 119              	.L3:
  66:Drivers/CMSIS/DSP/Source/TransformFunctions/arm_rfft_fast_init_f32.c ****   {
 120              		.loc 1 66 3 view .LVU36
 121 0054 B3F5806F 		cmp	r3, #1024
 122 0058 1ED0     		beq	.L10
 123 005a B3F5006F 		cmp	r3, #2048
 124 005e 10D0     		beq	.L11
 125 0060 B3F5007F 		cmp	r3, #512
 126 0064 0AD1     		bne	.L15
  85:Drivers/CMSIS/DSP/Source/TransformFunctions/arm_rfft_fast_init_f32.c ****     Sint->pBitRevTable = (uint16_t *)armBitRevIndexTable512;
 127              		.loc 1 85 5 is_stmt 1 view .LVU37
  85:Drivers/CMSIS/DSP/Source/TransformFunctions/arm_rfft_fast_init_f32.c ****     Sint->pBitRevTable = (uint16_t *)armBitRevIndexTable512;
 128              		.loc 1 85 24 is_stmt 0 view .LVU38
 129 0066 4FF4E073 		mov	r3, #448
 130 006a 8381     		strh	r3, [r0, #12]	@ movhi
  86:Drivers/CMSIS/DSP/Source/TransformFunctions/arm_rfft_fast_init_f32.c **** 		Sint->pTwiddle     = (float32_t *) twiddleCoef_512;
 131              		.loc 1 86 5 is_stmt 1 view .LVU39
  86:Drivers/CMSIS/DSP/Source/TransformFunctions/arm_rfft_fast_init_f32.c **** 		Sint->pTwiddle     = (float32_t *) twiddleCoef_512;
 132              		.loc 1 86 24 is_stmt 0 view .LVU40
 133 006c 254B     		ldr	r3, .L16+24
 134 006e 8360     		str	r3, [r0, #8]
  87:Drivers/CMSIS/DSP/Source/TransformFunctions/arm_rfft_fast_init_f32.c **** 		S->pTwiddleRFFT    = (float32_t *) twiddleCoef_rfft_1024;
 135              		.loc 1 87 3 is_stmt 1 view .LVU41
  87:Drivers/CMSIS/DSP/Source/TransformFunctions/arm_rfft_fast_init_f32.c **** 		S->pTwiddleRFFT    = (float32_t *) twiddleCoef_rfft_1024;
 136              		.loc 1 87 22 is_stmt 0 view .LVU42
 137 0070 254B     		ldr	r3, .L16+28
 138 0072 4360     		str	r3, [r0, #4]
  88:Drivers/CMSIS/DSP/Source/TransformFunctions/arm_rfft_fast_init_f32.c ****     break;
 139              		.loc 1 88 3 is_stmt 1 view .LVU43
  88:Drivers/CMSIS/DSP/Source/TransformFunctions/arm_rfft_fast_init_f32.c ****     break;
 140              		.loc 1 88 22 is_stmt 0 view .LVU44
 141 0074 254B     		ldr	r3, .L16+32
 142 0076 4361     		str	r3, [r0, #20]
  89:Drivers/CMSIS/DSP/Source/TransformFunctions/arm_rfft_fast_init_f32.c ****   case 256U:
 143              		.loc 1 89 5 is_stmt 1 view .LVU45
  59:Drivers/CMSIS/DSP/Source/TransformFunctions/arm_rfft_fast_init_f32.c ****   /*  Initialise the FFT length */
 144              		.loc 1 59 14 is_stmt 0 view .LVU46
 145 0078 0020     		movs	r0, #0
ARM GAS  /var/folders/n6/c271nzx11xl4r4_m7sqjlt0m0000gn/T//ccNSNDdn.s 			page 6


 146              	.LVL9:
  89:Drivers/CMSIS/DSP/Source/TransformFunctions/arm_rfft_fast_init_f32.c ****   case 256U:
 147              		.loc 1 89 5 view .LVU47
 148 007a 7047     		bx	lr
 149              	.LVL10:
 150              	.L15:
  66:Drivers/CMSIS/DSP/Source/TransformFunctions/arm_rfft_fast_init_f32.c ****   {
 151              		.loc 1 66 3 view .LVU48
 152 007c 4FF0FF30 		mov	r0, #-1
 153              	.LVL11:
  66:Drivers/CMSIS/DSP/Source/TransformFunctions/arm_rfft_fast_init_f32.c ****   {
 154              		.loc 1 66 3 view .LVU49
 155 0080 7047     		bx	lr
 156              	.LVL12:
 157              	.L11:
  71:Drivers/CMSIS/DSP/Source/TransformFunctions/arm_rfft_fast_init_f32.c ****     /*  Initialise the bit reversal table pointer */
 158              		.loc 1 71 5 is_stmt 1 view .LVU50
  71:Drivers/CMSIS/DSP/Source/TransformFunctions/arm_rfft_fast_init_f32.c ****     /*  Initialise the bit reversal table pointer */
 159              		.loc 1 71 24 is_stmt 0 view .LVU51
 160 0082 4FF46E63 		mov	r3, #3808
 161 0086 8381     		strh	r3, [r0, #12]	@ movhi
  73:Drivers/CMSIS/DSP/Source/TransformFunctions/arm_rfft_fast_init_f32.c ****     /*  Initialise the Twiddle coefficient pointers */
 162              		.loc 1 73 5 is_stmt 1 view .LVU52
  73:Drivers/CMSIS/DSP/Source/TransformFunctions/arm_rfft_fast_init_f32.c ****     /*  Initialise the Twiddle coefficient pointers */
 163              		.loc 1 73 24 is_stmt 0 view .LVU53
 164 0088 214B     		ldr	r3, .L16+36
 165 008a 8360     		str	r3, [r0, #8]
  75:Drivers/CMSIS/DSP/Source/TransformFunctions/arm_rfft_fast_init_f32.c **** 		S->pTwiddleRFFT    = (float32_t *) twiddleCoef_rfft_4096;
 166              		.loc 1 75 3 is_stmt 1 view .LVU54
  75:Drivers/CMSIS/DSP/Source/TransformFunctions/arm_rfft_fast_init_f32.c **** 		S->pTwiddleRFFT    = (float32_t *) twiddleCoef_rfft_4096;
 167              		.loc 1 75 22 is_stmt 0 view .LVU55
 168 008c 214B     		ldr	r3, .L16+40
 169 008e 4360     		str	r3, [r0, #4]
  76:Drivers/CMSIS/DSP/Source/TransformFunctions/arm_rfft_fast_init_f32.c ****     break;
 170              		.loc 1 76 3 is_stmt 1 view .LVU56
  76:Drivers/CMSIS/DSP/Source/TransformFunctions/arm_rfft_fast_init_f32.c ****     break;
 171              		.loc 1 76 22 is_stmt 0 view .LVU57
 172 0090 214B     		ldr	r3, .L16+44
 173 0092 4361     		str	r3, [r0, #20]
  77:Drivers/CMSIS/DSP/Source/TransformFunctions/arm_rfft_fast_init_f32.c ****   case 1024U:
 174              		.loc 1 77 5 is_stmt 1 view .LVU58
  59:Drivers/CMSIS/DSP/Source/TransformFunctions/arm_rfft_fast_init_f32.c ****   /*  Initialise the FFT length */
 175              		.loc 1 59 14 is_stmt 0 view .LVU59
 176 0094 0020     		movs	r0, #0
 177              	.LVL13:
  77:Drivers/CMSIS/DSP/Source/TransformFunctions/arm_rfft_fast_init_f32.c ****   case 1024U:
 178              		.loc 1 77 5 view .LVU60
 179 0096 7047     		bx	lr
 180              	.LVL14:
 181              	.L10:
  79:Drivers/CMSIS/DSP/Source/TransformFunctions/arm_rfft_fast_init_f32.c ****     Sint->pBitRevTable = (uint16_t *)armBitRevIndexTable1024;
 182              		.loc 1 79 5 is_stmt 1 view .LVU61
  79:Drivers/CMSIS/DSP/Source/TransformFunctions/arm_rfft_fast_init_f32.c ****     Sint->pBitRevTable = (uint16_t *)armBitRevIndexTable1024;
 183              		.loc 1 79 24 is_stmt 0 view .LVU62
 184 0098 4FF4E163 		mov	r3, #1800
 185 009c 8381     		strh	r3, [r0, #12]	@ movhi
  80:Drivers/CMSIS/DSP/Source/TransformFunctions/arm_rfft_fast_init_f32.c **** 		Sint->pTwiddle     = (float32_t *) twiddleCoef_1024;
ARM GAS  /var/folders/n6/c271nzx11xl4r4_m7sqjlt0m0000gn/T//ccNSNDdn.s 			page 7


 186              		.loc 1 80 5 is_stmt 1 view .LVU63
  80:Drivers/CMSIS/DSP/Source/TransformFunctions/arm_rfft_fast_init_f32.c **** 		Sint->pTwiddle     = (float32_t *) twiddleCoef_1024;
 187              		.loc 1 80 24 is_stmt 0 view .LVU64
 188 009e 1F4B     		ldr	r3, .L16+48
 189 00a0 8360     		str	r3, [r0, #8]
  81:Drivers/CMSIS/DSP/Source/TransformFunctions/arm_rfft_fast_init_f32.c **** 		S->pTwiddleRFFT    = (float32_t *) twiddleCoef_rfft_2048;
 190              		.loc 1 81 3 is_stmt 1 view .LVU65
  81:Drivers/CMSIS/DSP/Source/TransformFunctions/arm_rfft_fast_init_f32.c **** 		S->pTwiddleRFFT    = (float32_t *) twiddleCoef_rfft_2048;
 191              		.loc 1 81 22 is_stmt 0 view .LVU66
 192 00a2 1F4B     		ldr	r3, .L16+52
 193 00a4 4360     		str	r3, [r0, #4]
  82:Drivers/CMSIS/DSP/Source/TransformFunctions/arm_rfft_fast_init_f32.c ****     break;
 194              		.loc 1 82 3 is_stmt 1 view .LVU67
  82:Drivers/CMSIS/DSP/Source/TransformFunctions/arm_rfft_fast_init_f32.c ****     break;
 195              		.loc 1 82 22 is_stmt 0 view .LVU68
 196 00a6 1F4B     		ldr	r3, .L16+56
 197 00a8 4361     		str	r3, [r0, #20]
  83:Drivers/CMSIS/DSP/Source/TransformFunctions/arm_rfft_fast_init_f32.c ****   case 512U:
 198              		.loc 1 83 5 is_stmt 1 view .LVU69
  59:Drivers/CMSIS/DSP/Source/TransformFunctions/arm_rfft_fast_init_f32.c ****   /*  Initialise the FFT length */
 199              		.loc 1 59 14 is_stmt 0 view .LVU70
 200 00aa 0020     		movs	r0, #0
 201              	.LVL15:
  83:Drivers/CMSIS/DSP/Source/TransformFunctions/arm_rfft_fast_init_f32.c ****   case 512U:
 202              		.loc 1 83 5 view .LVU71
 203 00ac 7047     		bx	lr
 204              	.LVL16:
 205              	.L2:
  91:Drivers/CMSIS/DSP/Source/TransformFunctions/arm_rfft_fast_init_f32.c ****     Sint->pBitRevTable = (uint16_t *)armBitRevIndexTable256;
 206              		.loc 1 91 5 is_stmt 1 view .LVU72
  91:Drivers/CMSIS/DSP/Source/TransformFunctions/arm_rfft_fast_init_f32.c ****     Sint->pBitRevTable = (uint16_t *)armBitRevIndexTable256;
 207              		.loc 1 91 24 is_stmt 0 view .LVU73
 208 00ae 4FF4DC73 		mov	r3, #440
 209 00b2 8381     		strh	r3, [r0, #12]	@ movhi
  92:Drivers/CMSIS/DSP/Source/TransformFunctions/arm_rfft_fast_init_f32.c **** 		Sint->pTwiddle     = (float32_t *) twiddleCoef_256;
 210              		.loc 1 92 5 is_stmt 1 view .LVU74
  92:Drivers/CMSIS/DSP/Source/TransformFunctions/arm_rfft_fast_init_f32.c **** 		Sint->pTwiddle     = (float32_t *) twiddleCoef_256;
 211              		.loc 1 92 24 is_stmt 0 view .LVU75
 212 00b4 1C4B     		ldr	r3, .L16+60
 213 00b6 8360     		str	r3, [r0, #8]
  93:Drivers/CMSIS/DSP/Source/TransformFunctions/arm_rfft_fast_init_f32.c **** 		S->pTwiddleRFFT    = (float32_t *) twiddleCoef_rfft_512;
 214              		.loc 1 93 3 is_stmt 1 view .LVU76
  93:Drivers/CMSIS/DSP/Source/TransformFunctions/arm_rfft_fast_init_f32.c **** 		S->pTwiddleRFFT    = (float32_t *) twiddleCoef_rfft_512;
 215              		.loc 1 93 22 is_stmt 0 view .LVU77
 216 00b8 1C4B     		ldr	r3, .L16+64
 217 00ba 4360     		str	r3, [r0, #4]
  94:Drivers/CMSIS/DSP/Source/TransformFunctions/arm_rfft_fast_init_f32.c ****     break;
 218              		.loc 1 94 3 is_stmt 1 view .LVU78
  94:Drivers/CMSIS/DSP/Source/TransformFunctions/arm_rfft_fast_init_f32.c ****     break;
 219              		.loc 1 94 22 is_stmt 0 view .LVU79
 220 00bc 1C4B     		ldr	r3, .L16+68
 221 00be 4361     		str	r3, [r0, #20]
  95:Drivers/CMSIS/DSP/Source/TransformFunctions/arm_rfft_fast_init_f32.c ****   case 128U:
 222              		.loc 1 95 5 is_stmt 1 view .LVU80
  59:Drivers/CMSIS/DSP/Source/TransformFunctions/arm_rfft_fast_init_f32.c ****   /*  Initialise the FFT length */
 223              		.loc 1 59 14 is_stmt 0 view .LVU81
 224 00c0 0020     		movs	r0, #0
ARM GAS  /var/folders/n6/c271nzx11xl4r4_m7sqjlt0m0000gn/T//ccNSNDdn.s 			page 8


 225              	.LVL17:
  95:Drivers/CMSIS/DSP/Source/TransformFunctions/arm_rfft_fast_init_f32.c ****   case 128U:
 226              		.loc 1 95 5 view .LVU82
 227 00c2 7047     		bx	lr
 228              	.LVL18:
 229              	.L4:
 103:Drivers/CMSIS/DSP/Source/TransformFunctions/arm_rfft_fast_init_f32.c ****     Sint->pBitRevTable = (uint16_t *)armBitRevIndexTable64;
 230              		.loc 1 103 5 is_stmt 1 view .LVU83
 103:Drivers/CMSIS/DSP/Source/TransformFunctions/arm_rfft_fast_init_f32.c ****     Sint->pBitRevTable = (uint16_t *)armBitRevIndexTable64;
 231              		.loc 1 103 24 is_stmt 0 view .LVU84
 232 00c4 3823     		movs	r3, #56
 233 00c6 8381     		strh	r3, [r0, #12]	@ movhi
 104:Drivers/CMSIS/DSP/Source/TransformFunctions/arm_rfft_fast_init_f32.c **** 		Sint->pTwiddle     = (float32_t *) twiddleCoef_64;
 234              		.loc 1 104 5 is_stmt 1 view .LVU85
 104:Drivers/CMSIS/DSP/Source/TransformFunctions/arm_rfft_fast_init_f32.c **** 		Sint->pTwiddle     = (float32_t *) twiddleCoef_64;
 235              		.loc 1 104 24 is_stmt 0 view .LVU86
 236 00c8 1A4B     		ldr	r3, .L16+72
 237 00ca 8360     		str	r3, [r0, #8]
 105:Drivers/CMSIS/DSP/Source/TransformFunctions/arm_rfft_fast_init_f32.c **** 		S->pTwiddleRFFT    = (float32_t *) twiddleCoef_rfft_128;
 238              		.loc 1 105 3 is_stmt 1 view .LVU87
 105:Drivers/CMSIS/DSP/Source/TransformFunctions/arm_rfft_fast_init_f32.c **** 		S->pTwiddleRFFT    = (float32_t *) twiddleCoef_rfft_128;
 239              		.loc 1 105 22 is_stmt 0 view .LVU88
 240 00cc 1A4B     		ldr	r3, .L16+76
 241 00ce 4360     		str	r3, [r0, #4]
 106:Drivers/CMSIS/DSP/Source/TransformFunctions/arm_rfft_fast_init_f32.c ****     break;
 242              		.loc 1 106 3 is_stmt 1 view .LVU89
 106:Drivers/CMSIS/DSP/Source/TransformFunctions/arm_rfft_fast_init_f32.c ****     break;
 243              		.loc 1 106 22 is_stmt 0 view .LVU90
 244 00d0 1A4B     		ldr	r3, .L16+80
 245 00d2 4361     		str	r3, [r0, #20]
 107:Drivers/CMSIS/DSP/Source/TransformFunctions/arm_rfft_fast_init_f32.c ****   case 32U:
 246              		.loc 1 107 5 is_stmt 1 view .LVU91
  59:Drivers/CMSIS/DSP/Source/TransformFunctions/arm_rfft_fast_init_f32.c ****   /*  Initialise the FFT length */
 247              		.loc 1 59 14 is_stmt 0 view .LVU92
 248 00d4 0020     		movs	r0, #0
 249              	.LVL19:
 107:Drivers/CMSIS/DSP/Source/TransformFunctions/arm_rfft_fast_init_f32.c ****   case 32U:
 250              		.loc 1 107 5 view .LVU93
 251 00d6 7047     		bx	lr
 252              	.LVL20:
 253              	.L6:
 114:Drivers/CMSIS/DSP/Source/TransformFunctions/arm_rfft_fast_init_f32.c ****   case 16U:
 115:Drivers/CMSIS/DSP/Source/TransformFunctions/arm_rfft_fast_init_f32.c ****     Sint->bitRevLength = ARMBITREVINDEXTABLE_16_TABLE_LENGTH;
 254              		.loc 1 115 5 is_stmt 1 view .LVU94
 255              		.loc 1 115 24 is_stmt 0 view .LVU95
 256 00d8 1423     		movs	r3, #20
 257 00da 8381     		strh	r3, [r0, #12]	@ movhi
 116:Drivers/CMSIS/DSP/Source/TransformFunctions/arm_rfft_fast_init_f32.c ****     Sint->pBitRevTable = (uint16_t *)armBitRevIndexTable16;
 258              		.loc 1 116 5 is_stmt 1 view .LVU96
 259              		.loc 1 116 24 is_stmt 0 view .LVU97
 260 00dc 184B     		ldr	r3, .L16+84
 261 00de 8360     		str	r3, [r0, #8]
 117:Drivers/CMSIS/DSP/Source/TransformFunctions/arm_rfft_fast_init_f32.c **** 		Sint->pTwiddle     = (float32_t *) twiddleCoef_16;
 262              		.loc 1 117 3 is_stmt 1 view .LVU98
 263              		.loc 1 117 22 is_stmt 0 view .LVU99
 264 00e0 184B     		ldr	r3, .L16+88
 265 00e2 4360     		str	r3, [r0, #4]
ARM GAS  /var/folders/n6/c271nzx11xl4r4_m7sqjlt0m0000gn/T//ccNSNDdn.s 			page 9


 118:Drivers/CMSIS/DSP/Source/TransformFunctions/arm_rfft_fast_init_f32.c **** 		S->pTwiddleRFFT    = (float32_t *) twiddleCoef_rfft_32;
 266              		.loc 1 118 3 is_stmt 1 view .LVU100
 267              		.loc 1 118 22 is_stmt 0 view .LVU101
 268 00e4 184B     		ldr	r3, .L16+92
 269 00e6 4361     		str	r3, [r0, #20]
 119:Drivers/CMSIS/DSP/Source/TransformFunctions/arm_rfft_fast_init_f32.c ****     break;
 270              		.loc 1 119 5 is_stmt 1 view .LVU102
  59:Drivers/CMSIS/DSP/Source/TransformFunctions/arm_rfft_fast_init_f32.c ****   /*  Initialise the FFT length */
 271              		.loc 1 59 14 is_stmt 0 view .LVU103
 272 00e8 0020     		movs	r0, #0
 273              	.LVL21:
 120:Drivers/CMSIS/DSP/Source/TransformFunctions/arm_rfft_fast_init_f32.c ****   default:
 121:Drivers/CMSIS/DSP/Source/TransformFunctions/arm_rfft_fast_init_f32.c ****     /*  Reporting argument error if fftSize is not valid value */
 122:Drivers/CMSIS/DSP/Source/TransformFunctions/arm_rfft_fast_init_f32.c ****     status = ARM_MATH_ARGUMENT_ERROR;
 123:Drivers/CMSIS/DSP/Source/TransformFunctions/arm_rfft_fast_init_f32.c ****     break;
 124:Drivers/CMSIS/DSP/Source/TransformFunctions/arm_rfft_fast_init_f32.c ****   }
 125:Drivers/CMSIS/DSP/Source/TransformFunctions/arm_rfft_fast_init_f32.c **** 
 126:Drivers/CMSIS/DSP/Source/TransformFunctions/arm_rfft_fast_init_f32.c ****   return (status);
 274              		.loc 1 126 3 is_stmt 1 view .LVU104
 127:Drivers/CMSIS/DSP/Source/TransformFunctions/arm_rfft_fast_init_f32.c **** }
 275              		.loc 1 127 1 is_stmt 0 view .LVU105
 276 00ea 7047     		bx	lr
 277              	.L17:
 278              		.align	2
 279              	.L16:
 280 00ec 00000000 		.word	armBitRevIndexTable32
 281 00f0 00000000 		.word	twiddleCoef_32
 282 00f4 00000000 		.word	twiddleCoef_rfft_64
 283 00f8 00000000 		.word	armBitRevIndexTable128
 284 00fc 00000000 		.word	twiddleCoef_128
 285 0100 00000000 		.word	twiddleCoef_rfft_256
 286 0104 00000000 		.word	armBitRevIndexTable512
 287 0108 00000000 		.word	twiddleCoef_512
 288 010c 00000000 		.word	twiddleCoef_rfft_1024
 289 0110 00000000 		.word	armBitRevIndexTable2048
 290 0114 00000000 		.word	twiddleCoef_2048
 291 0118 00000000 		.word	twiddleCoef_rfft_4096
 292 011c 00000000 		.word	armBitRevIndexTable1024
 293 0120 00000000 		.word	twiddleCoef_1024
 294 0124 00000000 		.word	twiddleCoef_rfft_2048
 295 0128 00000000 		.word	armBitRevIndexTable256
 296 012c 00000000 		.word	twiddleCoef_256
 297 0130 00000000 		.word	twiddleCoef_rfft_512
 298 0134 00000000 		.word	armBitRevIndexTable64
 299 0138 00000000 		.word	twiddleCoef_64
 300 013c 00000000 		.word	twiddleCoef_rfft_128
 301 0140 00000000 		.word	armBitRevIndexTable16
 302 0144 00000000 		.word	twiddleCoef_16
 303 0148 00000000 		.word	twiddleCoef_rfft_32
 304              		.cfi_endproc
 305              	.LFE135:
 307              		.text
 308              	.Letext0:
 309              		.file 2 "/Users/killian/Library/Application Support/Code/User/globalStorage/bmd.stm32-for-vscode/@
 310              		.file 3 "/Users/killian/Library/Application Support/Code/User/globalStorage/bmd.stm32-for-vscode/@
 311              		.file 4 "Drivers/CMSIS/DSP/Include/arm_math.h"
 312              		.file 5 "Drivers/CMSIS/DSP/Include/arm_common_tables.h"
ARM GAS  /var/folders/n6/c271nzx11xl4r4_m7sqjlt0m0000gn/T//ccNSNDdn.s 			page 10


ARM GAS  /var/folders/n6/c271nzx11xl4r4_m7sqjlt0m0000gn/T//ccNSNDdn.s 			page 11


DEFINED SYMBOLS
                            *ABS*:00000000 arm_rfft_fast_init_f32.c
/var/folders/n6/c271nzx11xl4r4_m7sqjlt0m0000gn/T//ccNSNDdn.s:20     .text.arm_rfft_fast_init_f32:00000000 $t
/var/folders/n6/c271nzx11xl4r4_m7sqjlt0m0000gn/T//ccNSNDdn.s:26     .text.arm_rfft_fast_init_f32:00000000 arm_rfft_fast_init_f32
/var/folders/n6/c271nzx11xl4r4_m7sqjlt0m0000gn/T//ccNSNDdn.s:280    .text.arm_rfft_fast_init_f32:000000ec $d

UNDEFINED SYMBOLS
armBitRevIndexTable32
twiddleCoef_32
twiddleCoef_rfft_64
armBitRevIndexTable128
twiddleCoef_128
twiddleCoef_rfft_256
armBitRevIndexTable512
twiddleCoef_512
twiddleCoef_rfft_1024
armBitRevIndexTable2048
twiddleCoef_2048
twiddleCoef_rfft_4096
armBitRevIndexTable1024
twiddleCoef_1024
twiddleCoef_rfft_2048
armBitRevIndexTable256
twiddleCoef_256
twiddleCoef_rfft_512
armBitRevIndexTable64
twiddleCoef_64
twiddleCoef_rfft_128
armBitRevIndexTable16
twiddleCoef_16
twiddleCoef_rfft_32
