ARM GAS  /var/folders/n6/c271nzx11xl4r4_m7sqjlt0m0000gn/T//ccW3yxpc.s 			page 1


   1              		.cpu cortex-m7
   2              		.arch armv7e-m
   3              		.fpu fpv5-d16
   4              		.eabi_attribute 28, 1
   5              		.eabi_attribute 20, 1
   6              		.eabi_attribute 21, 1
   7              		.eabi_attribute 23, 3
   8              		.eabi_attribute 24, 1
   9              		.eabi_attribute 25, 1
  10              		.eabi_attribute 26, 1
  11              		.eabi_attribute 30, 1
  12              		.eabi_attribute 34, 1
  13              		.eabi_attribute 18, 4
  14              		.file	"arm_cmplx_dot_prod_f32.c"
  15              		.text
  16              	.Ltext0:
  17              		.cfi_sections	.debug_frame
  18              		.file 1 "Drivers/CMSIS/DSP/Source/ComplexMathFunctions/arm_cmplx_dot_prod_f32.c"
  19              		.section	.text.arm_cmplx_dot_prod_f32,"ax",%progbits
  20              		.align	1
  21              		.global	arm_cmplx_dot_prod_f32
  22              		.syntax unified
  23              		.thumb
  24              		.thumb_func
  26              	arm_cmplx_dot_prod_f32:
  27              	.LVL0:
  28              	.LFB135:
   1:Drivers/CMSIS/DSP/Source/ComplexMathFunctions/arm_cmplx_dot_prod_f32.c **** /* ----------------------------------------------------------------------
   2:Drivers/CMSIS/DSP/Source/ComplexMathFunctions/arm_cmplx_dot_prod_f32.c ****  * Project:      CMSIS DSP Library
   3:Drivers/CMSIS/DSP/Source/ComplexMathFunctions/arm_cmplx_dot_prod_f32.c ****  * Title:        arm_cmplx_dot_prod_f32.c
   4:Drivers/CMSIS/DSP/Source/ComplexMathFunctions/arm_cmplx_dot_prod_f32.c ****  * Description:  Floating-point complex dot product
   5:Drivers/CMSIS/DSP/Source/ComplexMathFunctions/arm_cmplx_dot_prod_f32.c ****  *
   6:Drivers/CMSIS/DSP/Source/ComplexMathFunctions/arm_cmplx_dot_prod_f32.c ****  * $Date:        27. January 2017
   7:Drivers/CMSIS/DSP/Source/ComplexMathFunctions/arm_cmplx_dot_prod_f32.c ****  * $Revision:    V.1.5.1
   8:Drivers/CMSIS/DSP/Source/ComplexMathFunctions/arm_cmplx_dot_prod_f32.c ****  *
   9:Drivers/CMSIS/DSP/Source/ComplexMathFunctions/arm_cmplx_dot_prod_f32.c ****  * Target Processor: Cortex-M cores
  10:Drivers/CMSIS/DSP/Source/ComplexMathFunctions/arm_cmplx_dot_prod_f32.c ****  * -------------------------------------------------------------------- */
  11:Drivers/CMSIS/DSP/Source/ComplexMathFunctions/arm_cmplx_dot_prod_f32.c **** /*
  12:Drivers/CMSIS/DSP/Source/ComplexMathFunctions/arm_cmplx_dot_prod_f32.c ****  * Copyright (C) 2010-2017 ARM Limited or its affiliates. All rights reserved.
  13:Drivers/CMSIS/DSP/Source/ComplexMathFunctions/arm_cmplx_dot_prod_f32.c ****  *
  14:Drivers/CMSIS/DSP/Source/ComplexMathFunctions/arm_cmplx_dot_prod_f32.c ****  * SPDX-License-Identifier: Apache-2.0
  15:Drivers/CMSIS/DSP/Source/ComplexMathFunctions/arm_cmplx_dot_prod_f32.c ****  *
  16:Drivers/CMSIS/DSP/Source/ComplexMathFunctions/arm_cmplx_dot_prod_f32.c ****  * Licensed under the Apache License, Version 2.0 (the License); you may
  17:Drivers/CMSIS/DSP/Source/ComplexMathFunctions/arm_cmplx_dot_prod_f32.c ****  * not use this file except in compliance with the License.
  18:Drivers/CMSIS/DSP/Source/ComplexMathFunctions/arm_cmplx_dot_prod_f32.c ****  * You may obtain a copy of the License at
  19:Drivers/CMSIS/DSP/Source/ComplexMathFunctions/arm_cmplx_dot_prod_f32.c ****  *
  20:Drivers/CMSIS/DSP/Source/ComplexMathFunctions/arm_cmplx_dot_prod_f32.c ****  * www.apache.org/licenses/LICENSE-2.0
  21:Drivers/CMSIS/DSP/Source/ComplexMathFunctions/arm_cmplx_dot_prod_f32.c ****  *
  22:Drivers/CMSIS/DSP/Source/ComplexMathFunctions/arm_cmplx_dot_prod_f32.c ****  * Unless required by applicable law or agreed to in writing, software
  23:Drivers/CMSIS/DSP/Source/ComplexMathFunctions/arm_cmplx_dot_prod_f32.c ****  * distributed under the License is distributed on an AS IS BASIS, WITHOUT
  24:Drivers/CMSIS/DSP/Source/ComplexMathFunctions/arm_cmplx_dot_prod_f32.c ****  * WARRANTIES OR CONDITIONS OF ANY KIND, either express or implied.
  25:Drivers/CMSIS/DSP/Source/ComplexMathFunctions/arm_cmplx_dot_prod_f32.c ****  * See the License for the specific language governing permissions and
  26:Drivers/CMSIS/DSP/Source/ComplexMathFunctions/arm_cmplx_dot_prod_f32.c ****  * limitations under the License.
  27:Drivers/CMSIS/DSP/Source/ComplexMathFunctions/arm_cmplx_dot_prod_f32.c ****  */
  28:Drivers/CMSIS/DSP/Source/ComplexMathFunctions/arm_cmplx_dot_prod_f32.c **** 
  29:Drivers/CMSIS/DSP/Source/ComplexMathFunctions/arm_cmplx_dot_prod_f32.c **** #include "arm_math.h"
  30:Drivers/CMSIS/DSP/Source/ComplexMathFunctions/arm_cmplx_dot_prod_f32.c **** 
ARM GAS  /var/folders/n6/c271nzx11xl4r4_m7sqjlt0m0000gn/T//ccW3yxpc.s 			page 2


  31:Drivers/CMSIS/DSP/Source/ComplexMathFunctions/arm_cmplx_dot_prod_f32.c **** /**
  32:Drivers/CMSIS/DSP/Source/ComplexMathFunctions/arm_cmplx_dot_prod_f32.c ****  * @ingroup groupCmplxMath
  33:Drivers/CMSIS/DSP/Source/ComplexMathFunctions/arm_cmplx_dot_prod_f32.c ****  */
  34:Drivers/CMSIS/DSP/Source/ComplexMathFunctions/arm_cmplx_dot_prod_f32.c **** 
  35:Drivers/CMSIS/DSP/Source/ComplexMathFunctions/arm_cmplx_dot_prod_f32.c **** /**
  36:Drivers/CMSIS/DSP/Source/ComplexMathFunctions/arm_cmplx_dot_prod_f32.c ****  * @defgroup cmplx_dot_prod Complex Dot Product
  37:Drivers/CMSIS/DSP/Source/ComplexMathFunctions/arm_cmplx_dot_prod_f32.c ****  *
  38:Drivers/CMSIS/DSP/Source/ComplexMathFunctions/arm_cmplx_dot_prod_f32.c ****  * Computes the dot product of two complex vectors.
  39:Drivers/CMSIS/DSP/Source/ComplexMathFunctions/arm_cmplx_dot_prod_f32.c ****  * The vectors are multiplied element-by-element and then summed.
  40:Drivers/CMSIS/DSP/Source/ComplexMathFunctions/arm_cmplx_dot_prod_f32.c ****  *
  41:Drivers/CMSIS/DSP/Source/ComplexMathFunctions/arm_cmplx_dot_prod_f32.c ****  * The <code>pSrcA</code> points to the first complex input vector and
  42:Drivers/CMSIS/DSP/Source/ComplexMathFunctions/arm_cmplx_dot_prod_f32.c ****  * <code>pSrcB</code> points to the second complex input vector.
  43:Drivers/CMSIS/DSP/Source/ComplexMathFunctions/arm_cmplx_dot_prod_f32.c ****  * <code>numSamples</code> specifies the number of complex samples
  44:Drivers/CMSIS/DSP/Source/ComplexMathFunctions/arm_cmplx_dot_prod_f32.c ****  * and the data in each array is stored in an interleaved fashion
  45:Drivers/CMSIS/DSP/Source/ComplexMathFunctions/arm_cmplx_dot_prod_f32.c ****  * (real, imag, real, imag, ...).
  46:Drivers/CMSIS/DSP/Source/ComplexMathFunctions/arm_cmplx_dot_prod_f32.c ****  * Each array has a total of <code>2*numSamples</code> values.
  47:Drivers/CMSIS/DSP/Source/ComplexMathFunctions/arm_cmplx_dot_prod_f32.c ****  *
  48:Drivers/CMSIS/DSP/Source/ComplexMathFunctions/arm_cmplx_dot_prod_f32.c ****  * The underlying algorithm is used:
  49:Drivers/CMSIS/DSP/Source/ComplexMathFunctions/arm_cmplx_dot_prod_f32.c ****  * <pre>
  50:Drivers/CMSIS/DSP/Source/ComplexMathFunctions/arm_cmplx_dot_prod_f32.c ****  * realResult=0;
  51:Drivers/CMSIS/DSP/Source/ComplexMathFunctions/arm_cmplx_dot_prod_f32.c ****  * imagResult=0;
  52:Drivers/CMSIS/DSP/Source/ComplexMathFunctions/arm_cmplx_dot_prod_f32.c ****  * for(n=0; n<numSamples; n++) {
  53:Drivers/CMSIS/DSP/Source/ComplexMathFunctions/arm_cmplx_dot_prod_f32.c ****  *     realResult += pSrcA[(2*n)+0]*pSrcB[(2*n)+0] - pSrcA[(2*n)+1]*pSrcB[(2*n)+1];
  54:Drivers/CMSIS/DSP/Source/ComplexMathFunctions/arm_cmplx_dot_prod_f32.c ****  *     imagResult += pSrcA[(2*n)+0]*pSrcB[(2*n)+1] + pSrcA[(2*n)+1]*pSrcB[(2*n)+0];
  55:Drivers/CMSIS/DSP/Source/ComplexMathFunctions/arm_cmplx_dot_prod_f32.c ****  * }
  56:Drivers/CMSIS/DSP/Source/ComplexMathFunctions/arm_cmplx_dot_prod_f32.c ****  * </pre>
  57:Drivers/CMSIS/DSP/Source/ComplexMathFunctions/arm_cmplx_dot_prod_f32.c ****  *
  58:Drivers/CMSIS/DSP/Source/ComplexMathFunctions/arm_cmplx_dot_prod_f32.c ****  * There are separate functions for floating-point, Q15, and Q31 data types.
  59:Drivers/CMSIS/DSP/Source/ComplexMathFunctions/arm_cmplx_dot_prod_f32.c ****  */
  60:Drivers/CMSIS/DSP/Source/ComplexMathFunctions/arm_cmplx_dot_prod_f32.c **** 
  61:Drivers/CMSIS/DSP/Source/ComplexMathFunctions/arm_cmplx_dot_prod_f32.c **** /**
  62:Drivers/CMSIS/DSP/Source/ComplexMathFunctions/arm_cmplx_dot_prod_f32.c ****  * @addtogroup cmplx_dot_prod
  63:Drivers/CMSIS/DSP/Source/ComplexMathFunctions/arm_cmplx_dot_prod_f32.c ****  * @{
  64:Drivers/CMSIS/DSP/Source/ComplexMathFunctions/arm_cmplx_dot_prod_f32.c ****  */
  65:Drivers/CMSIS/DSP/Source/ComplexMathFunctions/arm_cmplx_dot_prod_f32.c **** 
  66:Drivers/CMSIS/DSP/Source/ComplexMathFunctions/arm_cmplx_dot_prod_f32.c **** /**
  67:Drivers/CMSIS/DSP/Source/ComplexMathFunctions/arm_cmplx_dot_prod_f32.c ****  * @brief  Floating-point complex dot product
  68:Drivers/CMSIS/DSP/Source/ComplexMathFunctions/arm_cmplx_dot_prod_f32.c ****  * @param  *pSrcA points to the first input vector
  69:Drivers/CMSIS/DSP/Source/ComplexMathFunctions/arm_cmplx_dot_prod_f32.c ****  * @param  *pSrcB points to the second input vector
  70:Drivers/CMSIS/DSP/Source/ComplexMathFunctions/arm_cmplx_dot_prod_f32.c ****  * @param  numSamples number of complex samples in each vector
  71:Drivers/CMSIS/DSP/Source/ComplexMathFunctions/arm_cmplx_dot_prod_f32.c ****  * @param  *realResult real part of the result returned here
  72:Drivers/CMSIS/DSP/Source/ComplexMathFunctions/arm_cmplx_dot_prod_f32.c ****  * @param  *imagResult imaginary part of the result returned here
  73:Drivers/CMSIS/DSP/Source/ComplexMathFunctions/arm_cmplx_dot_prod_f32.c ****  * @return none.
  74:Drivers/CMSIS/DSP/Source/ComplexMathFunctions/arm_cmplx_dot_prod_f32.c ****  */
  75:Drivers/CMSIS/DSP/Source/ComplexMathFunctions/arm_cmplx_dot_prod_f32.c **** 
  76:Drivers/CMSIS/DSP/Source/ComplexMathFunctions/arm_cmplx_dot_prod_f32.c **** void arm_cmplx_dot_prod_f32(
  77:Drivers/CMSIS/DSP/Source/ComplexMathFunctions/arm_cmplx_dot_prod_f32.c ****   float32_t * pSrcA,
  78:Drivers/CMSIS/DSP/Source/ComplexMathFunctions/arm_cmplx_dot_prod_f32.c ****   float32_t * pSrcB,
  79:Drivers/CMSIS/DSP/Source/ComplexMathFunctions/arm_cmplx_dot_prod_f32.c ****   uint32_t numSamples,
  80:Drivers/CMSIS/DSP/Source/ComplexMathFunctions/arm_cmplx_dot_prod_f32.c ****   float32_t * realResult,
  81:Drivers/CMSIS/DSP/Source/ComplexMathFunctions/arm_cmplx_dot_prod_f32.c ****   float32_t * imagResult)
  82:Drivers/CMSIS/DSP/Source/ComplexMathFunctions/arm_cmplx_dot_prod_f32.c **** {
  29              		.loc 1 82 1 view -0
  30              		.cfi_startproc
  31              		@ args = 4, pretend = 0, frame = 0
  32              		@ frame_needed = 0, uses_anonymous_args = 0
  33              		@ link register save eliminated.
ARM GAS  /var/folders/n6/c271nzx11xl4r4_m7sqjlt0m0000gn/T//ccW3yxpc.s 			page 3


  34              		.loc 1 82 1 is_stmt 0 view .LVU1
  35 0000 10B4     		push	{r4}
  36              		.cfi_def_cfa_offset 4
  37              		.cfi_offset 4, -4
  83:Drivers/CMSIS/DSP/Source/ComplexMathFunctions/arm_cmplx_dot_prod_f32.c ****   float32_t real_sum = 0.0f, imag_sum = 0.0f;    /* Temporary result storage */
  38              		.loc 1 83 3 is_stmt 1 view .LVU2
  39              	.LVL1:
  84:Drivers/CMSIS/DSP/Source/ComplexMathFunctions/arm_cmplx_dot_prod_f32.c ****   float32_t a0,b0,c0,d0;
  40              		.loc 1 84 3 view .LVU3
  85:Drivers/CMSIS/DSP/Source/ComplexMathFunctions/arm_cmplx_dot_prod_f32.c **** 
  86:Drivers/CMSIS/DSP/Source/ComplexMathFunctions/arm_cmplx_dot_prod_f32.c **** #if defined (ARM_MATH_DSP)
  87:Drivers/CMSIS/DSP/Source/ComplexMathFunctions/arm_cmplx_dot_prod_f32.c **** 
  88:Drivers/CMSIS/DSP/Source/ComplexMathFunctions/arm_cmplx_dot_prod_f32.c ****   /* Run the below code for Cortex-M4 and Cortex-M3 */
  89:Drivers/CMSIS/DSP/Source/ComplexMathFunctions/arm_cmplx_dot_prod_f32.c ****   uint32_t blkCnt;                               /* loop counter */
  41              		.loc 1 89 3 view .LVU4
  90:Drivers/CMSIS/DSP/Source/ComplexMathFunctions/arm_cmplx_dot_prod_f32.c **** 
  91:Drivers/CMSIS/DSP/Source/ComplexMathFunctions/arm_cmplx_dot_prod_f32.c ****   /*loop Unrolling */
  92:Drivers/CMSIS/DSP/Source/ComplexMathFunctions/arm_cmplx_dot_prod_f32.c ****   blkCnt = numSamples >> 2U;
  42              		.loc 1 92 3 view .LVU5
  43              		.loc 1 92 10 is_stmt 0 view .LVU6
  44 0002 9408     		lsrs	r4, r2, #2
  45              	.LVL2:
  93:Drivers/CMSIS/DSP/Source/ComplexMathFunctions/arm_cmplx_dot_prod_f32.c **** 
  94:Drivers/CMSIS/DSP/Source/ComplexMathFunctions/arm_cmplx_dot_prod_f32.c ****   /* First part of the processing with loop unrolling.  Compute 4 outputs at a time.
  95:Drivers/CMSIS/DSP/Source/ComplexMathFunctions/arm_cmplx_dot_prod_f32.c ****    ** a second loop below computes the remaining 1 to 3 samples. */
  96:Drivers/CMSIS/DSP/Source/ComplexMathFunctions/arm_cmplx_dot_prod_f32.c ****   while (blkCnt > 0U)
  46              		.loc 1 96 3 is_stmt 1 view .LVU7
  83:Drivers/CMSIS/DSP/Source/ComplexMathFunctions/arm_cmplx_dot_prod_f32.c ****   float32_t a0,b0,c0,d0;
  47              		.loc 1 83 30 is_stmt 0 view .LVU8
  48 0004 DFED4A7A 		vldr.32	s15, .L7
  83:Drivers/CMSIS/DSP/Source/ComplexMathFunctions/arm_cmplx_dot_prod_f32.c ****   float32_t a0,b0,c0,d0;
  49              		.loc 1 83 13 view .LVU9
  50 0008 B0EE677A 		vmov.f32	s14, s15
  51              		.loc 1 96 9 view .LVU10
  52 000c 62E0     		b	.L2
  53              	.LVL3:
  54              	.L3:
  97:Drivers/CMSIS/DSP/Source/ComplexMathFunctions/arm_cmplx_dot_prod_f32.c ****   {
  98:Drivers/CMSIS/DSP/Source/ComplexMathFunctions/arm_cmplx_dot_prod_f32.c ****       a0 = *pSrcA++;
  55              		.loc 1 98 7 is_stmt 1 view .LVU11
  56              		.loc 1 98 10 is_stmt 0 view .LVU12
  57 000e 90ED006A 		vldr.32	s12, [r0]
  58              	.LVL4:
  99:Drivers/CMSIS/DSP/Source/ComplexMathFunctions/arm_cmplx_dot_prod_f32.c ****       b0 = *pSrcA++;
  59              		.loc 1 99 7 is_stmt 1 view .LVU13
  60              		.loc 1 99 10 is_stmt 0 view .LVU14
  61 0012 D0ED016A 		vldr.32	s13, [r0, #4]
  62              	.LVL5:
 100:Drivers/CMSIS/DSP/Source/ComplexMathFunctions/arm_cmplx_dot_prod_f32.c ****       c0 = *pSrcB++;
  63              		.loc 1 100 7 is_stmt 1 view .LVU15
  64              		.loc 1 100 10 is_stmt 0 view .LVU16
  65 0016 D1ED004A 		vldr.32	s9, [r1]
  66              	.LVL6:
 101:Drivers/CMSIS/DSP/Source/ComplexMathFunctions/arm_cmplx_dot_prod_f32.c ****       d0 = *pSrcB++;
  67              		.loc 1 101 7 is_stmt 1 view .LVU17
  68              		.loc 1 101 10 is_stmt 0 view .LVU18
  69 001a 91ED015A 		vldr.32	s10, [r1, #4]
ARM GAS  /var/folders/n6/c271nzx11xl4r4_m7sqjlt0m0000gn/T//ccW3yxpc.s 			page 4


  70              	.LVL7:
 102:Drivers/CMSIS/DSP/Source/ComplexMathFunctions/arm_cmplx_dot_prod_f32.c **** 
 103:Drivers/CMSIS/DSP/Source/ComplexMathFunctions/arm_cmplx_dot_prod_f32.c ****       real_sum += a0 * c0;
  71              		.loc 1 103 7 is_stmt 1 view .LVU19
  72              		.loc 1 103 22 is_stmt 0 view .LVU20
  73 001e 66EE245A 		vmul.f32	s11, s12, s9
  74              		.loc 1 103 16 view .LVU21
  75 0022 75EE875A 		vadd.f32	s11, s11, s14
  76              	.LVL8:
 104:Drivers/CMSIS/DSP/Source/ComplexMathFunctions/arm_cmplx_dot_prod_f32.c ****       imag_sum += a0 * d0;
  77              		.loc 1 104 7 is_stmt 1 view .LVU22
  78              		.loc 1 104 22 is_stmt 0 view .LVU23
  79 0026 26EE056A 		vmul.f32	s12, s12, s10
  80              	.LVL9:
  81              		.loc 1 104 16 view .LVU24
  82 002a 36EE276A 		vadd.f32	s12, s12, s15
  83              	.LVL10:
 105:Drivers/CMSIS/DSP/Source/ComplexMathFunctions/arm_cmplx_dot_prod_f32.c ****       real_sum -= b0 * d0;
  84              		.loc 1 105 7 is_stmt 1 view .LVU25
  85              		.loc 1 105 22 is_stmt 0 view .LVU26
  86 002e 26EE855A 		vmul.f32	s10, s13, s10
  87              	.LVL11:
  88              		.loc 1 105 16 view .LVU27
  89 0032 75EEC55A 		vsub.f32	s11, s11, s10
  90              	.LVL12:
 106:Drivers/CMSIS/DSP/Source/ComplexMathFunctions/arm_cmplx_dot_prod_f32.c ****       imag_sum += b0 * c0;
  91              		.loc 1 106 7 is_stmt 1 view .LVU28
  92              		.loc 1 106 22 is_stmt 0 view .LVU29
  93 0036 66EEA46A 		vmul.f32	s13, s13, s9
  94              	.LVL13:
  95              		.loc 1 106 16 view .LVU30
  96 003a 76EE866A 		vadd.f32	s13, s13, s12
  97              	.LVL14:
 107:Drivers/CMSIS/DSP/Source/ComplexMathFunctions/arm_cmplx_dot_prod_f32.c **** 
 108:Drivers/CMSIS/DSP/Source/ComplexMathFunctions/arm_cmplx_dot_prod_f32.c ****       a0 = *pSrcA++;
  98              		.loc 1 108 7 is_stmt 1 view .LVU31
  99              		.loc 1 108 10 is_stmt 0 view .LVU32
 100 003e 90ED027A 		vldr.32	s14, [r0, #8]
 101              	.LVL15:
 109:Drivers/CMSIS/DSP/Source/ComplexMathFunctions/arm_cmplx_dot_prod_f32.c ****       b0 = *pSrcA++;
 102              		.loc 1 109 7 is_stmt 1 view .LVU33
 103              		.loc 1 109 10 is_stmt 0 view .LVU34
 104 0042 D0ED037A 		vldr.32	s15, [r0, #12]
 105              	.LVL16:
 110:Drivers/CMSIS/DSP/Source/ComplexMathFunctions/arm_cmplx_dot_prod_f32.c ****       c0 = *pSrcB++;
 106              		.loc 1 110 7 is_stmt 1 view .LVU35
 107              		.loc 1 110 10 is_stmt 0 view .LVU36
 108 0046 D1ED024A 		vldr.32	s9, [r1, #8]
 109              	.LVL17:
 111:Drivers/CMSIS/DSP/Source/ComplexMathFunctions/arm_cmplx_dot_prod_f32.c ****       d0 = *pSrcB++;
 110              		.loc 1 111 7 is_stmt 1 view .LVU37
 111              		.loc 1 111 10 is_stmt 0 view .LVU38
 112 004a 91ED035A 		vldr.32	s10, [r1, #12]
 113              	.LVL18:
 112:Drivers/CMSIS/DSP/Source/ComplexMathFunctions/arm_cmplx_dot_prod_f32.c **** 
 113:Drivers/CMSIS/DSP/Source/ComplexMathFunctions/arm_cmplx_dot_prod_f32.c ****       real_sum += a0 * c0;
 114              		.loc 1 113 7 is_stmt 1 view .LVU39
ARM GAS  /var/folders/n6/c271nzx11xl4r4_m7sqjlt0m0000gn/T//ccW3yxpc.s 			page 5


 115              		.loc 1 113 22 is_stmt 0 view .LVU40
 116 004e 27EE246A 		vmul.f32	s12, s14, s9
 117              		.loc 1 113 16 view .LVU41
 118 0052 36EE256A 		vadd.f32	s12, s12, s11
 119              	.LVL19:
 114:Drivers/CMSIS/DSP/Source/ComplexMathFunctions/arm_cmplx_dot_prod_f32.c ****       imag_sum += a0 * d0;
 120              		.loc 1 114 7 is_stmt 1 view .LVU42
 121              		.loc 1 114 22 is_stmt 0 view .LVU43
 122 0056 27EE057A 		vmul.f32	s14, s14, s10
 123              	.LVL20:
 124              		.loc 1 114 16 view .LVU44
 125 005a 37EE267A 		vadd.f32	s14, s14, s13
 126              	.LVL21:
 115:Drivers/CMSIS/DSP/Source/ComplexMathFunctions/arm_cmplx_dot_prod_f32.c ****       real_sum -= b0 * d0;
 127              		.loc 1 115 7 is_stmt 1 view .LVU45
 128              		.loc 1 115 22 is_stmt 0 view .LVU46
 129 005e 27EE855A 		vmul.f32	s10, s15, s10
 130              	.LVL22:
 131              		.loc 1 115 16 view .LVU47
 132 0062 36EE456A 		vsub.f32	s12, s12, s10
 133              	.LVL23:
 116:Drivers/CMSIS/DSP/Source/ComplexMathFunctions/arm_cmplx_dot_prod_f32.c ****       imag_sum += b0 * c0;
 134              		.loc 1 116 7 is_stmt 1 view .LVU48
 135              		.loc 1 116 22 is_stmt 0 view .LVU49
 136 0066 67EEA47A 		vmul.f32	s15, s15, s9
 137              	.LVL24:
 138              		.loc 1 116 16 view .LVU50
 139 006a 77EE876A 		vadd.f32	s13, s15, s14
 140              	.LVL25:
 117:Drivers/CMSIS/DSP/Source/ComplexMathFunctions/arm_cmplx_dot_prod_f32.c **** 
 118:Drivers/CMSIS/DSP/Source/ComplexMathFunctions/arm_cmplx_dot_prod_f32.c ****       a0 = *pSrcA++;
 141              		.loc 1 118 7 is_stmt 1 view .LVU51
 142              		.loc 1 118 10 is_stmt 0 view .LVU52
 143 006e 90ED047A 		vldr.32	s14, [r0, #16]
 144              	.LVL26:
 119:Drivers/CMSIS/DSP/Source/ComplexMathFunctions/arm_cmplx_dot_prod_f32.c ****       b0 = *pSrcA++;
 145              		.loc 1 119 7 is_stmt 1 view .LVU53
 146              		.loc 1 119 10 is_stmt 0 view .LVU54
 147 0072 D0ED057A 		vldr.32	s15, [r0, #20]
 148              	.LVL27:
 120:Drivers/CMSIS/DSP/Source/ComplexMathFunctions/arm_cmplx_dot_prod_f32.c ****       c0 = *pSrcB++;
 149              		.loc 1 120 7 is_stmt 1 view .LVU55
 150              		.loc 1 120 10 is_stmt 0 view .LVU56
 151 0076 D1ED044A 		vldr.32	s9, [r1, #16]
 152              	.LVL28:
 121:Drivers/CMSIS/DSP/Source/ComplexMathFunctions/arm_cmplx_dot_prod_f32.c ****       d0 = *pSrcB++;
 153              		.loc 1 121 7 is_stmt 1 view .LVU57
 154              		.loc 1 121 10 is_stmt 0 view .LVU58
 155 007a 91ED055A 		vldr.32	s10, [r1, #20]
 156              	.LVL29:
 122:Drivers/CMSIS/DSP/Source/ComplexMathFunctions/arm_cmplx_dot_prod_f32.c **** 
 123:Drivers/CMSIS/DSP/Source/ComplexMathFunctions/arm_cmplx_dot_prod_f32.c ****       real_sum += a0 * c0;
 157              		.loc 1 123 7 is_stmt 1 view .LVU59
 158              		.loc 1 123 22 is_stmt 0 view .LVU60
 159 007e 67EE245A 		vmul.f32	s11, s14, s9
 160              		.loc 1 123 16 view .LVU61
 161 0082 75EE865A 		vadd.f32	s11, s11, s12
ARM GAS  /var/folders/n6/c271nzx11xl4r4_m7sqjlt0m0000gn/T//ccW3yxpc.s 			page 6


 162              	.LVL30:
 124:Drivers/CMSIS/DSP/Source/ComplexMathFunctions/arm_cmplx_dot_prod_f32.c ****       imag_sum += a0 * d0;
 163              		.loc 1 124 7 is_stmt 1 view .LVU62
 164              		.loc 1 124 22 is_stmt 0 view .LVU63
 165 0086 27EE057A 		vmul.f32	s14, s14, s10
 166              	.LVL31:
 167              		.loc 1 124 16 view .LVU64
 168 008a 37EE267A 		vadd.f32	s14, s14, s13
 169              	.LVL32:
 125:Drivers/CMSIS/DSP/Source/ComplexMathFunctions/arm_cmplx_dot_prod_f32.c ****       real_sum -= b0 * d0;
 170              		.loc 1 125 7 is_stmt 1 view .LVU65
 171              		.loc 1 125 22 is_stmt 0 view .LVU66
 172 008e 27EE855A 		vmul.f32	s10, s15, s10
 173              	.LVL33:
 174              		.loc 1 125 16 view .LVU67
 175 0092 75EEC55A 		vsub.f32	s11, s11, s10
 176              	.LVL34:
 126:Drivers/CMSIS/DSP/Source/ComplexMathFunctions/arm_cmplx_dot_prod_f32.c ****       imag_sum += b0 * c0;
 177              		.loc 1 126 7 is_stmt 1 view .LVU68
 178              		.loc 1 126 22 is_stmt 0 view .LVU69
 179 0096 67EEA47A 		vmul.f32	s15, s15, s9
 180              	.LVL35:
 181              		.loc 1 126 16 view .LVU70
 182 009a 37EE876A 		vadd.f32	s12, s15, s14
 183              	.LVL36:
 127:Drivers/CMSIS/DSP/Source/ComplexMathFunctions/arm_cmplx_dot_prod_f32.c **** 
 128:Drivers/CMSIS/DSP/Source/ComplexMathFunctions/arm_cmplx_dot_prod_f32.c ****       a0 = *pSrcA++;
 184              		.loc 1 128 7 is_stmt 1 view .LVU71
 185              		.loc 1 128 10 is_stmt 0 view .LVU72
 186 009e D0ED066A 		vldr.32	s13, [r0, #24]
 187              	.LVL37:
 129:Drivers/CMSIS/DSP/Source/ComplexMathFunctions/arm_cmplx_dot_prod_f32.c ****       b0 = *pSrcA++;
 188              		.loc 1 129 7 is_stmt 1 view .LVU73
 189              		.loc 1 129 10 is_stmt 0 view .LVU74
 190 00a2 D0ED077A 		vldr.32	s15, [r0, #28]
 191              	.LVL38:
 130:Drivers/CMSIS/DSP/Source/ComplexMathFunctions/arm_cmplx_dot_prod_f32.c ****       c0 = *pSrcB++;
 192              		.loc 1 130 7 is_stmt 1 view .LVU75
 193              		.loc 1 130 10 is_stmt 0 view .LVU76
 194 00a6 D1ED064A 		vldr.32	s9, [r1, #24]
 195              	.LVL39:
 131:Drivers/CMSIS/DSP/Source/ComplexMathFunctions/arm_cmplx_dot_prod_f32.c ****       d0 = *pSrcB++;
 196              		.loc 1 131 7 is_stmt 1 view .LVU77
 197              		.loc 1 131 10 is_stmt 0 view .LVU78
 198 00aa 91ED075A 		vldr.32	s10, [r1, #28]
 199              	.LVL40:
 132:Drivers/CMSIS/DSP/Source/ComplexMathFunctions/arm_cmplx_dot_prod_f32.c **** 
 133:Drivers/CMSIS/DSP/Source/ComplexMathFunctions/arm_cmplx_dot_prod_f32.c ****       real_sum += a0 * c0;
 200              		.loc 1 133 7 is_stmt 1 view .LVU79
 201              		.loc 1 133 22 is_stmt 0 view .LVU80
 202 00ae 26EEA47A 		vmul.f32	s14, s13, s9
 203              		.loc 1 133 16 view .LVU81
 204 00b2 37EE257A 		vadd.f32	s14, s14, s11
 205              	.LVL41:
 134:Drivers/CMSIS/DSP/Source/ComplexMathFunctions/arm_cmplx_dot_prod_f32.c ****       imag_sum += a0 * d0;
 206              		.loc 1 134 7 is_stmt 1 view .LVU82
 207              		.loc 1 134 22 is_stmt 0 view .LVU83
ARM GAS  /var/folders/n6/c271nzx11xl4r4_m7sqjlt0m0000gn/T//ccW3yxpc.s 			page 7


 208 00b6 66EE856A 		vmul.f32	s13, s13, s10
 209              	.LVL42:
 210              		.loc 1 134 16 view .LVU84
 211 00ba 76EE866A 		vadd.f32	s13, s13, s12
 212              	.LVL43:
 135:Drivers/CMSIS/DSP/Source/ComplexMathFunctions/arm_cmplx_dot_prod_f32.c ****       real_sum -= b0 * d0;
 213              		.loc 1 135 7 is_stmt 1 view .LVU85
 214              		.loc 1 135 22 is_stmt 0 view .LVU86
 215 00be 27EE855A 		vmul.f32	s10, s15, s10
 216              	.LVL44:
 217              		.loc 1 135 16 view .LVU87
 218 00c2 37EE457A 		vsub.f32	s14, s14, s10
 219              	.LVL45:
 136:Drivers/CMSIS/DSP/Source/ComplexMathFunctions/arm_cmplx_dot_prod_f32.c ****       imag_sum += b0 * c0;
 220              		.loc 1 136 7 is_stmt 1 view .LVU88
 221              		.loc 1 136 22 is_stmt 0 view .LVU89
 222 00c6 67EEA47A 		vmul.f32	s15, s15, s9
 223              	.LVL46:
 224              		.loc 1 136 16 view .LVU90
 225 00ca 77EEA67A 		vadd.f32	s15, s15, s13
 226              	.LVL47:
 137:Drivers/CMSIS/DSP/Source/ComplexMathFunctions/arm_cmplx_dot_prod_f32.c **** 
 138:Drivers/CMSIS/DSP/Source/ComplexMathFunctions/arm_cmplx_dot_prod_f32.c ****       /* Decrement the loop counter */
 139:Drivers/CMSIS/DSP/Source/ComplexMathFunctions/arm_cmplx_dot_prod_f32.c ****       blkCnt--;
 227              		.loc 1 139 7 is_stmt 1 view .LVU91
 228              		.loc 1 139 13 is_stmt 0 view .LVU92
 229 00ce 013C     		subs	r4, r4, #1
 230              	.LVL48:
 131:Drivers/CMSIS/DSP/Source/ComplexMathFunctions/arm_cmplx_dot_prod_f32.c **** 
 231              		.loc 1 131 18 view .LVU93
 232 00d0 2031     		adds	r1, r1, #32
 233              	.LVL49:
 129:Drivers/CMSIS/DSP/Source/ComplexMathFunctions/arm_cmplx_dot_prod_f32.c ****       c0 = *pSrcB++;
 234              		.loc 1 129 18 view .LVU94
 235 00d2 2030     		adds	r0, r0, #32
 236              	.LVL50:
 237              	.L2:
  96:Drivers/CMSIS/DSP/Source/ComplexMathFunctions/arm_cmplx_dot_prod_f32.c ****   {
 238              		.loc 1 96 17 is_stmt 1 view .LVU95
 239 00d4 002C     		cmp	r4, #0
 240 00d6 9AD1     		bne	.L3
 140:Drivers/CMSIS/DSP/Source/ComplexMathFunctions/arm_cmplx_dot_prod_f32.c ****   }
 141:Drivers/CMSIS/DSP/Source/ComplexMathFunctions/arm_cmplx_dot_prod_f32.c **** 
 142:Drivers/CMSIS/DSP/Source/ComplexMathFunctions/arm_cmplx_dot_prod_f32.c ****   /* If the numSamples is not a multiple of 4, compute any remaining output samples here.
 143:Drivers/CMSIS/DSP/Source/ComplexMathFunctions/arm_cmplx_dot_prod_f32.c ****    ** No loop unrolling is used. */
 144:Drivers/CMSIS/DSP/Source/ComplexMathFunctions/arm_cmplx_dot_prod_f32.c ****   blkCnt = numSamples & 0x3U;
 241              		.loc 1 144 3 view .LVU96
 242              		.loc 1 144 10 is_stmt 0 view .LVU97
 243 00d8 02F00302 		and	r2, r2, #3
 244              	.LVL51:
 145:Drivers/CMSIS/DSP/Source/ComplexMathFunctions/arm_cmplx_dot_prod_f32.c **** 
 146:Drivers/CMSIS/DSP/Source/ComplexMathFunctions/arm_cmplx_dot_prod_f32.c ****   while (blkCnt > 0U)
 245              		.loc 1 146 3 is_stmt 1 view .LVU98
 246              		.loc 1 146 9 is_stmt 0 view .LVU99
 247 00dc 1EE0     		b	.L4
 248              	.L5:
 147:Drivers/CMSIS/DSP/Source/ComplexMathFunctions/arm_cmplx_dot_prod_f32.c ****   {
ARM GAS  /var/folders/n6/c271nzx11xl4r4_m7sqjlt0m0000gn/T//ccW3yxpc.s 			page 8


 148:Drivers/CMSIS/DSP/Source/ComplexMathFunctions/arm_cmplx_dot_prod_f32.c ****       a0 = *pSrcA++;
 249              		.loc 1 148 7 is_stmt 1 view .LVU100
 250              	.LVL52:
 251              		.loc 1 148 10 is_stmt 0 view .LVU101
 252 00de 00F1080C 		add	ip, r0, #8
 253 00e2 D0ED005A 		vldr.32	s11, [r0]
 254              	.LVL53:
 149:Drivers/CMSIS/DSP/Source/ComplexMathFunctions/arm_cmplx_dot_prod_f32.c ****       b0 = *pSrcA++;
 255              		.loc 1 149 7 is_stmt 1 view .LVU102
 256              		.loc 1 149 10 is_stmt 0 view .LVU103
 257 00e6 D0ED016A 		vldr.32	s13, [r0, #4]
 258              	.LVL54:
 150:Drivers/CMSIS/DSP/Source/ComplexMathFunctions/arm_cmplx_dot_prod_f32.c ****       c0 = *pSrcB++;
 259              		.loc 1 150 7 is_stmt 1 view .LVU104
 260              		.loc 1 150 10 is_stmt 0 view .LVU105
 261 00ea 0846     		mov	r0, r1
 262 00ec 0830     		adds	r0, r0, #8
 263 00ee 91ED005A 		vldr.32	s10, [r1]
 264              	.LVL55:
 151:Drivers/CMSIS/DSP/Source/ComplexMathFunctions/arm_cmplx_dot_prod_f32.c ****       d0 = *pSrcB++;
 265              		.loc 1 151 7 is_stmt 1 view .LVU106
 266              		.loc 1 151 10 is_stmt 0 view .LVU107
 267 00f2 91ED016A 		vldr.32	s12, [r1, #4]
 268              	.LVL56:
 152:Drivers/CMSIS/DSP/Source/ComplexMathFunctions/arm_cmplx_dot_prod_f32.c **** 
 153:Drivers/CMSIS/DSP/Source/ComplexMathFunctions/arm_cmplx_dot_prod_f32.c ****       real_sum += a0 * c0;
 269              		.loc 1 153 7 is_stmt 1 view .LVU108
 270              		.loc 1 153 22 is_stmt 0 view .LVU109
 271 00f6 65EE854A 		vmul.f32	s9, s11, s10
 272              		.loc 1 153 16 view .LVU110
 273 00fa 34EE877A 		vadd.f32	s14, s9, s14
 274              	.LVL57:
 154:Drivers/CMSIS/DSP/Source/ComplexMathFunctions/arm_cmplx_dot_prod_f32.c ****       imag_sum += a0 * d0;
 275              		.loc 1 154 7 is_stmt 1 view .LVU111
 276              		.loc 1 154 22 is_stmt 0 view .LVU112
 277 00fe 65EE865A 		vmul.f32	s11, s11, s12
 278              	.LVL58:
 279              		.loc 1 154 16 view .LVU113
 280 0102 75EEA77A 		vadd.f32	s15, s11, s15
 281              	.LVL59:
 155:Drivers/CMSIS/DSP/Source/ComplexMathFunctions/arm_cmplx_dot_prod_f32.c ****       real_sum -= b0 * d0;
 282              		.loc 1 155 7 is_stmt 1 view .LVU114
 283              		.loc 1 155 22 is_stmt 0 view .LVU115
 284 0106 26EE866A 		vmul.f32	s12, s13, s12
 285              	.LVL60:
 286              		.loc 1 155 16 view .LVU116
 287 010a 37EE467A 		vsub.f32	s14, s14, s12
 288              	.LVL61:
 156:Drivers/CMSIS/DSP/Source/ComplexMathFunctions/arm_cmplx_dot_prod_f32.c ****       imag_sum += b0 * c0;
 289              		.loc 1 156 7 is_stmt 1 view .LVU117
 290              		.loc 1 156 22 is_stmt 0 view .LVU118
 291 010e 66EE856A 		vmul.f32	s13, s13, s10
 292              	.LVL62:
 293              		.loc 1 156 16 view .LVU119
 294 0112 76EEA77A 		vadd.f32	s15, s13, s15
 295              	.LVL63:
 157:Drivers/CMSIS/DSP/Source/ComplexMathFunctions/arm_cmplx_dot_prod_f32.c **** 
ARM GAS  /var/folders/n6/c271nzx11xl4r4_m7sqjlt0m0000gn/T//ccW3yxpc.s 			page 9


 158:Drivers/CMSIS/DSP/Source/ComplexMathFunctions/arm_cmplx_dot_prod_f32.c ****       /* Decrement the loop counter */
 159:Drivers/CMSIS/DSP/Source/ComplexMathFunctions/arm_cmplx_dot_prod_f32.c ****       blkCnt--;
 296              		.loc 1 159 7 is_stmt 1 view .LVU120
 297              		.loc 1 159 13 is_stmt 0 view .LVU121
 298 0116 013A     		subs	r2, r2, #1
 299              	.LVL64:
 151:Drivers/CMSIS/DSP/Source/ComplexMathFunctions/arm_cmplx_dot_prod_f32.c **** 
 300              		.loc 1 151 18 view .LVU122
 301 0118 0146     		mov	r1, r0
 302              	.LVL65:
 149:Drivers/CMSIS/DSP/Source/ComplexMathFunctions/arm_cmplx_dot_prod_f32.c ****       c0 = *pSrcB++;
 303              		.loc 1 149 18 view .LVU123
 304 011a 6046     		mov	r0, ip
 305              	.LVL66:
 306              	.L4:
 146:Drivers/CMSIS/DSP/Source/ComplexMathFunctions/arm_cmplx_dot_prod_f32.c ****   {
 307              		.loc 1 146 17 is_stmt 1 view .LVU124
 308 011c 002A     		cmp	r2, #0
 309 011e DED1     		bne	.L5
 160:Drivers/CMSIS/DSP/Source/ComplexMathFunctions/arm_cmplx_dot_prod_f32.c ****   }
 161:Drivers/CMSIS/DSP/Source/ComplexMathFunctions/arm_cmplx_dot_prod_f32.c **** 
 162:Drivers/CMSIS/DSP/Source/ComplexMathFunctions/arm_cmplx_dot_prod_f32.c **** #else
 163:Drivers/CMSIS/DSP/Source/ComplexMathFunctions/arm_cmplx_dot_prod_f32.c **** 
 164:Drivers/CMSIS/DSP/Source/ComplexMathFunctions/arm_cmplx_dot_prod_f32.c ****   /* Run the below code for Cortex-M0 */
 165:Drivers/CMSIS/DSP/Source/ComplexMathFunctions/arm_cmplx_dot_prod_f32.c **** 
 166:Drivers/CMSIS/DSP/Source/ComplexMathFunctions/arm_cmplx_dot_prod_f32.c ****   while (numSamples > 0U)
 167:Drivers/CMSIS/DSP/Source/ComplexMathFunctions/arm_cmplx_dot_prod_f32.c ****   {
 168:Drivers/CMSIS/DSP/Source/ComplexMathFunctions/arm_cmplx_dot_prod_f32.c ****       a0 = *pSrcA++;
 169:Drivers/CMSIS/DSP/Source/ComplexMathFunctions/arm_cmplx_dot_prod_f32.c ****       b0 = *pSrcA++;
 170:Drivers/CMSIS/DSP/Source/ComplexMathFunctions/arm_cmplx_dot_prod_f32.c ****       c0 = *pSrcB++;
 171:Drivers/CMSIS/DSP/Source/ComplexMathFunctions/arm_cmplx_dot_prod_f32.c ****       d0 = *pSrcB++;
 172:Drivers/CMSIS/DSP/Source/ComplexMathFunctions/arm_cmplx_dot_prod_f32.c **** 
 173:Drivers/CMSIS/DSP/Source/ComplexMathFunctions/arm_cmplx_dot_prod_f32.c ****       real_sum += a0 * c0;
 174:Drivers/CMSIS/DSP/Source/ComplexMathFunctions/arm_cmplx_dot_prod_f32.c ****       imag_sum += a0 * d0;
 175:Drivers/CMSIS/DSP/Source/ComplexMathFunctions/arm_cmplx_dot_prod_f32.c ****       real_sum -= b0 * d0;
 176:Drivers/CMSIS/DSP/Source/ComplexMathFunctions/arm_cmplx_dot_prod_f32.c ****       imag_sum += b0 * c0;
 177:Drivers/CMSIS/DSP/Source/ComplexMathFunctions/arm_cmplx_dot_prod_f32.c **** 
 178:Drivers/CMSIS/DSP/Source/ComplexMathFunctions/arm_cmplx_dot_prod_f32.c ****       /* Decrement the loop counter */
 179:Drivers/CMSIS/DSP/Source/ComplexMathFunctions/arm_cmplx_dot_prod_f32.c ****       numSamples--;
 180:Drivers/CMSIS/DSP/Source/ComplexMathFunctions/arm_cmplx_dot_prod_f32.c ****   }
 181:Drivers/CMSIS/DSP/Source/ComplexMathFunctions/arm_cmplx_dot_prod_f32.c **** 
 182:Drivers/CMSIS/DSP/Source/ComplexMathFunctions/arm_cmplx_dot_prod_f32.c **** #endif /* #if defined (ARM_MATH_DSP) */
 183:Drivers/CMSIS/DSP/Source/ComplexMathFunctions/arm_cmplx_dot_prod_f32.c **** 
 184:Drivers/CMSIS/DSP/Source/ComplexMathFunctions/arm_cmplx_dot_prod_f32.c ****   /* Store the real and imaginary results in the destination buffers */
 185:Drivers/CMSIS/DSP/Source/ComplexMathFunctions/arm_cmplx_dot_prod_f32.c ****   *realResult = real_sum;
 310              		.loc 1 185 3 view .LVU125
 311              		.loc 1 185 15 is_stmt 0 view .LVU126
 312 0120 83ED007A 		vstr.32	s14, [r3]
 186:Drivers/CMSIS/DSP/Source/ComplexMathFunctions/arm_cmplx_dot_prod_f32.c ****   *imagResult = imag_sum;
 313              		.loc 1 186 3 is_stmt 1 view .LVU127
 314              		.loc 1 186 15 is_stmt 0 view .LVU128
 315 0124 019B     		ldr	r3, [sp, #4]
 316              	.LVL67:
 317              		.loc 1 186 15 view .LVU129
 318 0126 C3ED007A 		vstr.32	s15, [r3]
 187:Drivers/CMSIS/DSP/Source/ComplexMathFunctions/arm_cmplx_dot_prod_f32.c **** }
 319              		.loc 1 187 1 view .LVU130
ARM GAS  /var/folders/n6/c271nzx11xl4r4_m7sqjlt0m0000gn/T//ccW3yxpc.s 			page 10


 320 012a 5DF8044B 		ldr	r4, [sp], #4
 321              		.cfi_restore 4
 322              		.cfi_def_cfa_offset 0
 323              	.LVL68:
 324              		.loc 1 187 1 view .LVU131
 325 012e 7047     		bx	lr
 326              	.L8:
 327              		.align	2
 328              	.L7:
 329 0130 00000000 		.word	0
 330              		.cfi_endproc
 331              	.LFE135:
 333              		.text
 334              	.Letext0:
 335              		.file 2 "/Users/killian/Library/Application Support/Code/User/globalStorage/bmd.stm32-for-vscode/@
 336              		.file 3 "/Users/killian/Library/Application Support/Code/User/globalStorage/bmd.stm32-for-vscode/@
 337              		.file 4 "Drivers/CMSIS/DSP/Include/arm_math.h"
ARM GAS  /var/folders/n6/c271nzx11xl4r4_m7sqjlt0m0000gn/T//ccW3yxpc.s 			page 11


DEFINED SYMBOLS
                            *ABS*:00000000 arm_cmplx_dot_prod_f32.c
/var/folders/n6/c271nzx11xl4r4_m7sqjlt0m0000gn/T//ccW3yxpc.s:20     .text.arm_cmplx_dot_prod_f32:00000000 $t
/var/folders/n6/c271nzx11xl4r4_m7sqjlt0m0000gn/T//ccW3yxpc.s:26     .text.arm_cmplx_dot_prod_f32:00000000 arm_cmplx_dot_prod_f32
/var/folders/n6/c271nzx11xl4r4_m7sqjlt0m0000gn/T//ccW3yxpc.s:329    .text.arm_cmplx_dot_prod_f32:00000130 $d

NO UNDEFINED SYMBOLS
