ARM GAS  /var/folders/n6/c271nzx11xl4r4_m7sqjlt0m0000gn/T//ccw7TAzh.s 			page 1


   1              		.cpu cortex-m7
   2              		.arch armv7e-m
   3              		.fpu fpv5-d16
   4              		.eabi_attribute 28, 1
   5              		.eabi_attribute 20, 1
   6              		.eabi_attribute 21, 1
   7              		.eabi_attribute 23, 3
   8              		.eabi_attribute 24, 1
   9              		.eabi_attribute 25, 1
  10              		.eabi_attribute 26, 1
  11              		.eabi_attribute 30, 1
  12              		.eabi_attribute 34, 1
  13              		.eabi_attribute 18, 4
  14              		.file	"arm_conv_partial_f32.c"
  15              		.text
  16              	.Ltext0:
  17              		.cfi_sections	.debug_frame
  18              		.file 1 "Drivers/CMSIS/DSP/Source/FilteringFunctions/arm_conv_partial_f32.c"
  19              		.section	.text.arm_conv_partial_f32,"ax",%progbits
  20              		.align	1
  21              		.global	arm_conv_partial_f32
  22              		.syntax unified
  23              		.thumb
  24              		.thumb_func
  26              	arm_conv_partial_f32:
  27              	.LVL0:
  28              	.LFB135:
   1:Drivers/CMSIS/DSP/Source/FilteringFunctions/arm_conv_partial_f32.c **** /* ----------------------------------------------------------------------
   2:Drivers/CMSIS/DSP/Source/FilteringFunctions/arm_conv_partial_f32.c ****  * Project:      CMSIS DSP Library
   3:Drivers/CMSIS/DSP/Source/FilteringFunctions/arm_conv_partial_f32.c ****  * Title:        arm_conv_partial_f32.c
   4:Drivers/CMSIS/DSP/Source/FilteringFunctions/arm_conv_partial_f32.c ****  * Description:  Partial convolution of floating-point sequences
   5:Drivers/CMSIS/DSP/Source/FilteringFunctions/arm_conv_partial_f32.c ****  *
   6:Drivers/CMSIS/DSP/Source/FilteringFunctions/arm_conv_partial_f32.c ****  * $Date:        27. January 2017
   7:Drivers/CMSIS/DSP/Source/FilteringFunctions/arm_conv_partial_f32.c ****  * $Revision:    V.1.5.1
   8:Drivers/CMSIS/DSP/Source/FilteringFunctions/arm_conv_partial_f32.c ****  *
   9:Drivers/CMSIS/DSP/Source/FilteringFunctions/arm_conv_partial_f32.c ****  * Target Processor: Cortex-M cores
  10:Drivers/CMSIS/DSP/Source/FilteringFunctions/arm_conv_partial_f32.c ****  * -------------------------------------------------------------------- */
  11:Drivers/CMSIS/DSP/Source/FilteringFunctions/arm_conv_partial_f32.c **** /*
  12:Drivers/CMSIS/DSP/Source/FilteringFunctions/arm_conv_partial_f32.c ****  * Copyright (C) 2010-2017 ARM Limited or its affiliates. All rights reserved.
  13:Drivers/CMSIS/DSP/Source/FilteringFunctions/arm_conv_partial_f32.c ****  *
  14:Drivers/CMSIS/DSP/Source/FilteringFunctions/arm_conv_partial_f32.c ****  * SPDX-License-Identifier: Apache-2.0
  15:Drivers/CMSIS/DSP/Source/FilteringFunctions/arm_conv_partial_f32.c ****  *
  16:Drivers/CMSIS/DSP/Source/FilteringFunctions/arm_conv_partial_f32.c ****  * Licensed under the Apache License, Version 2.0 (the License); you may
  17:Drivers/CMSIS/DSP/Source/FilteringFunctions/arm_conv_partial_f32.c ****  * not use this file except in compliance with the License.
  18:Drivers/CMSIS/DSP/Source/FilteringFunctions/arm_conv_partial_f32.c ****  * You may obtain a copy of the License at
  19:Drivers/CMSIS/DSP/Source/FilteringFunctions/arm_conv_partial_f32.c ****  *
  20:Drivers/CMSIS/DSP/Source/FilteringFunctions/arm_conv_partial_f32.c ****  * www.apache.org/licenses/LICENSE-2.0
  21:Drivers/CMSIS/DSP/Source/FilteringFunctions/arm_conv_partial_f32.c ****  *
  22:Drivers/CMSIS/DSP/Source/FilteringFunctions/arm_conv_partial_f32.c ****  * Unless required by applicable law or agreed to in writing, software
  23:Drivers/CMSIS/DSP/Source/FilteringFunctions/arm_conv_partial_f32.c ****  * distributed under the License is distributed on an AS IS BASIS, WITHOUT
  24:Drivers/CMSIS/DSP/Source/FilteringFunctions/arm_conv_partial_f32.c ****  * WARRANTIES OR CONDITIONS OF ANY KIND, either express or implied.
  25:Drivers/CMSIS/DSP/Source/FilteringFunctions/arm_conv_partial_f32.c ****  * See the License for the specific language governing permissions and
  26:Drivers/CMSIS/DSP/Source/FilteringFunctions/arm_conv_partial_f32.c ****  * limitations under the License.
  27:Drivers/CMSIS/DSP/Source/FilteringFunctions/arm_conv_partial_f32.c ****  */
  28:Drivers/CMSIS/DSP/Source/FilteringFunctions/arm_conv_partial_f32.c **** 
  29:Drivers/CMSIS/DSP/Source/FilteringFunctions/arm_conv_partial_f32.c **** #include "arm_math.h"
  30:Drivers/CMSIS/DSP/Source/FilteringFunctions/arm_conv_partial_f32.c **** 
ARM GAS  /var/folders/n6/c271nzx11xl4r4_m7sqjlt0m0000gn/T//ccw7TAzh.s 			page 2


  31:Drivers/CMSIS/DSP/Source/FilteringFunctions/arm_conv_partial_f32.c **** /**
  32:Drivers/CMSIS/DSP/Source/FilteringFunctions/arm_conv_partial_f32.c ****  * @ingroup groupFilters
  33:Drivers/CMSIS/DSP/Source/FilteringFunctions/arm_conv_partial_f32.c ****  */
  34:Drivers/CMSIS/DSP/Source/FilteringFunctions/arm_conv_partial_f32.c **** 
  35:Drivers/CMSIS/DSP/Source/FilteringFunctions/arm_conv_partial_f32.c **** /**
  36:Drivers/CMSIS/DSP/Source/FilteringFunctions/arm_conv_partial_f32.c ****  * @defgroup PartialConv Partial Convolution
  37:Drivers/CMSIS/DSP/Source/FilteringFunctions/arm_conv_partial_f32.c ****  *
  38:Drivers/CMSIS/DSP/Source/FilteringFunctions/arm_conv_partial_f32.c ****  * Partial Convolution is equivalent to Convolution except that a subset of the output samples is g
  39:Drivers/CMSIS/DSP/Source/FilteringFunctions/arm_conv_partial_f32.c ****  * Each function has two additional arguments.
  40:Drivers/CMSIS/DSP/Source/FilteringFunctions/arm_conv_partial_f32.c ****  * <code>firstIndex</code> specifies the starting index of the subset of output samples.
  41:Drivers/CMSIS/DSP/Source/FilteringFunctions/arm_conv_partial_f32.c ****  * <code>numPoints</code> is the number of output samples to compute.
  42:Drivers/CMSIS/DSP/Source/FilteringFunctions/arm_conv_partial_f32.c ****  * The function computes the output in the range
  43:Drivers/CMSIS/DSP/Source/FilteringFunctions/arm_conv_partial_f32.c ****  * <code>[firstIndex, ..., firstIndex+numPoints-1]</code>.
  44:Drivers/CMSIS/DSP/Source/FilteringFunctions/arm_conv_partial_f32.c ****  * The output array <code>pDst</code> contains <code>numPoints</code> values.
  45:Drivers/CMSIS/DSP/Source/FilteringFunctions/arm_conv_partial_f32.c ****  *
  46:Drivers/CMSIS/DSP/Source/FilteringFunctions/arm_conv_partial_f32.c ****  * The allowable range of output indices is [0 srcALen+srcBLen-2].
  47:Drivers/CMSIS/DSP/Source/FilteringFunctions/arm_conv_partial_f32.c ****  * If the requested subset does not fall in this range then the functions return ARM_MATH_ARGUMENT_
  48:Drivers/CMSIS/DSP/Source/FilteringFunctions/arm_conv_partial_f32.c ****  * Otherwise the functions return ARM_MATH_SUCCESS.
  49:Drivers/CMSIS/DSP/Source/FilteringFunctions/arm_conv_partial_f32.c ****  * \note Refer arm_conv_f32() for details on fixed point behavior.
  50:Drivers/CMSIS/DSP/Source/FilteringFunctions/arm_conv_partial_f32.c ****  *
  51:Drivers/CMSIS/DSP/Source/FilteringFunctions/arm_conv_partial_f32.c ****  *
  52:Drivers/CMSIS/DSP/Source/FilteringFunctions/arm_conv_partial_f32.c ****  * <b>Fast Versions</b>
  53:Drivers/CMSIS/DSP/Source/FilteringFunctions/arm_conv_partial_f32.c ****  *
  54:Drivers/CMSIS/DSP/Source/FilteringFunctions/arm_conv_partial_f32.c ****  * \par
  55:Drivers/CMSIS/DSP/Source/FilteringFunctions/arm_conv_partial_f32.c ****  * Fast versions are supported for Q31 and Q15 of partial convolution.  Cycles for Fast versions ar
  56:Drivers/CMSIS/DSP/Source/FilteringFunctions/arm_conv_partial_f32.c ****  * the input signals should be scaled down to avoid intermediate overflows.
  57:Drivers/CMSIS/DSP/Source/FilteringFunctions/arm_conv_partial_f32.c ****  *
  58:Drivers/CMSIS/DSP/Source/FilteringFunctions/arm_conv_partial_f32.c ****  *
  59:Drivers/CMSIS/DSP/Source/FilteringFunctions/arm_conv_partial_f32.c ****  * <b>Opt Versions</b>
  60:Drivers/CMSIS/DSP/Source/FilteringFunctions/arm_conv_partial_f32.c ****  *
  61:Drivers/CMSIS/DSP/Source/FilteringFunctions/arm_conv_partial_f32.c ****  * \par
  62:Drivers/CMSIS/DSP/Source/FilteringFunctions/arm_conv_partial_f32.c ****  * Opt versions are supported for Q15 and Q7.  Design uses internal scratch buffer for getting good
  63:Drivers/CMSIS/DSP/Source/FilteringFunctions/arm_conv_partial_f32.c ****  * These versions are optimised in cycles and consumes more memory(Scratch memory) compared to Q15 
  64:Drivers/CMSIS/DSP/Source/FilteringFunctions/arm_conv_partial_f32.c ****  */
  65:Drivers/CMSIS/DSP/Source/FilteringFunctions/arm_conv_partial_f32.c **** 
  66:Drivers/CMSIS/DSP/Source/FilteringFunctions/arm_conv_partial_f32.c **** /**
  67:Drivers/CMSIS/DSP/Source/FilteringFunctions/arm_conv_partial_f32.c ****  * @addtogroup PartialConv
  68:Drivers/CMSIS/DSP/Source/FilteringFunctions/arm_conv_partial_f32.c ****  * @{
  69:Drivers/CMSIS/DSP/Source/FilteringFunctions/arm_conv_partial_f32.c ****  */
  70:Drivers/CMSIS/DSP/Source/FilteringFunctions/arm_conv_partial_f32.c **** 
  71:Drivers/CMSIS/DSP/Source/FilteringFunctions/arm_conv_partial_f32.c **** /**
  72:Drivers/CMSIS/DSP/Source/FilteringFunctions/arm_conv_partial_f32.c ****  * @brief Partial convolution of floating-point sequences.
  73:Drivers/CMSIS/DSP/Source/FilteringFunctions/arm_conv_partial_f32.c ****  * @param[in]       *pSrcA points to the first input sequence.
  74:Drivers/CMSIS/DSP/Source/FilteringFunctions/arm_conv_partial_f32.c ****  * @param[in]       srcALen length of the first input sequence.
  75:Drivers/CMSIS/DSP/Source/FilteringFunctions/arm_conv_partial_f32.c ****  * @param[in]       *pSrcB points to the second input sequence.
  76:Drivers/CMSIS/DSP/Source/FilteringFunctions/arm_conv_partial_f32.c ****  * @param[in]       srcBLen length of the second input sequence.
  77:Drivers/CMSIS/DSP/Source/FilteringFunctions/arm_conv_partial_f32.c ****  * @param[out]      *pDst points to the location where the output result is written.
  78:Drivers/CMSIS/DSP/Source/FilteringFunctions/arm_conv_partial_f32.c ****  * @param[in]       firstIndex is the first output sample to start with.
  79:Drivers/CMSIS/DSP/Source/FilteringFunctions/arm_conv_partial_f32.c ****  * @param[in]       numPoints is the number of output points to be computed.
  80:Drivers/CMSIS/DSP/Source/FilteringFunctions/arm_conv_partial_f32.c ****  * @return  Returns either ARM_MATH_SUCCESS if the function completed correctly or ARM_MATH_ARGUMEN
  81:Drivers/CMSIS/DSP/Source/FilteringFunctions/arm_conv_partial_f32.c ****  */
  82:Drivers/CMSIS/DSP/Source/FilteringFunctions/arm_conv_partial_f32.c **** 
  83:Drivers/CMSIS/DSP/Source/FilteringFunctions/arm_conv_partial_f32.c **** arm_status arm_conv_partial_f32(
  84:Drivers/CMSIS/DSP/Source/FilteringFunctions/arm_conv_partial_f32.c ****   float32_t * pSrcA,
  85:Drivers/CMSIS/DSP/Source/FilteringFunctions/arm_conv_partial_f32.c ****   uint32_t srcALen,
  86:Drivers/CMSIS/DSP/Source/FilteringFunctions/arm_conv_partial_f32.c ****   float32_t * pSrcB,
  87:Drivers/CMSIS/DSP/Source/FilteringFunctions/arm_conv_partial_f32.c ****   uint32_t srcBLen,
ARM GAS  /var/folders/n6/c271nzx11xl4r4_m7sqjlt0m0000gn/T//ccw7TAzh.s 			page 3


  88:Drivers/CMSIS/DSP/Source/FilteringFunctions/arm_conv_partial_f32.c ****   float32_t * pDst,
  89:Drivers/CMSIS/DSP/Source/FilteringFunctions/arm_conv_partial_f32.c ****   uint32_t firstIndex,
  90:Drivers/CMSIS/DSP/Source/FilteringFunctions/arm_conv_partial_f32.c ****   uint32_t numPoints)
  91:Drivers/CMSIS/DSP/Source/FilteringFunctions/arm_conv_partial_f32.c **** {
  29              		.loc 1 91 1 view -0
  30              		.cfi_startproc
  31              		@ args = 12, pretend = 0, frame = 8
  32              		@ frame_needed = 0, uses_anonymous_args = 0
  33              		.loc 1 91 1 is_stmt 0 view .LVU1
  34 0000 2DE9F04F 		push	{r4, r5, r6, r7, r8, r9, r10, fp, lr}
  35              		.cfi_def_cfa_offset 36
  36              		.cfi_offset 4, -36
  37              		.cfi_offset 5, -32
  38              		.cfi_offset 6, -28
  39              		.cfi_offset 7, -24
  40              		.cfi_offset 8, -20
  41              		.cfi_offset 9, -16
  42              		.cfi_offset 10, -12
  43              		.cfi_offset 11, -8
  44              		.cfi_offset 14, -4
  45 0004 83B0     		sub	sp, sp, #12
  46              		.cfi_def_cfa_offset 48
  47 0006 0C46     		mov	r4, r1
  48 0008 1146     		mov	r1, r2
  49              	.LVL1:
  50              		.loc 1 91 1 view .LVU2
  51 000a 9A46     		mov	r10, r3
  52 000c 0D9F     		ldr	r7, [sp, #52]
  53 000e 0E9B     		ldr	r3, [sp, #56]
  54              	.LVL2:
  92:Drivers/CMSIS/DSP/Source/FilteringFunctions/arm_conv_partial_f32.c **** 
  93:Drivers/CMSIS/DSP/Source/FilteringFunctions/arm_conv_partial_f32.c **** 
  94:Drivers/CMSIS/DSP/Source/FilteringFunctions/arm_conv_partial_f32.c **** #if defined (ARM_MATH_DSP)
  95:Drivers/CMSIS/DSP/Source/FilteringFunctions/arm_conv_partial_f32.c **** 
  96:Drivers/CMSIS/DSP/Source/FilteringFunctions/arm_conv_partial_f32.c ****   /* Run the below code for Cortex-M4 and Cortex-M3 */
  97:Drivers/CMSIS/DSP/Source/FilteringFunctions/arm_conv_partial_f32.c **** 
  98:Drivers/CMSIS/DSP/Source/FilteringFunctions/arm_conv_partial_f32.c ****   float32_t *pIn1 = pSrcA;                       /* inputA pointer */
  55              		.loc 1 98 3 is_stmt 1 view .LVU3
  99:Drivers/CMSIS/DSP/Source/FilteringFunctions/arm_conv_partial_f32.c ****   float32_t *pIn2 = pSrcB;                       /* inputB pointer */
  56              		.loc 1 99 3 view .LVU4
 100:Drivers/CMSIS/DSP/Source/FilteringFunctions/arm_conv_partial_f32.c ****   float32_t *pOut = pDst;                        /* output pointer */
  57              		.loc 1 100 3 view .LVU5
 101:Drivers/CMSIS/DSP/Source/FilteringFunctions/arm_conv_partial_f32.c ****   float32_t *px;                                 /* Intermediate inputA pointer */
  58              		.loc 1 101 3 view .LVU6
 102:Drivers/CMSIS/DSP/Source/FilteringFunctions/arm_conv_partial_f32.c ****   float32_t *py;                                 /* Intermediate inputB pointer */
  59              		.loc 1 102 3 view .LVU7
 103:Drivers/CMSIS/DSP/Source/FilteringFunctions/arm_conv_partial_f32.c ****   float32_t *pSrc1, *pSrc2;                      /* Intermediate pointers */
  60              		.loc 1 103 3 view .LVU8
 104:Drivers/CMSIS/DSP/Source/FilteringFunctions/arm_conv_partial_f32.c ****   float32_t sum, acc0, acc1, acc2, acc3;         /* Accumulator */
  61              		.loc 1 104 3 view .LVU9
 105:Drivers/CMSIS/DSP/Source/FilteringFunctions/arm_conv_partial_f32.c ****   float32_t x0, x1, x2, x3, c0;                  /* Temporary variables to hold state and coefficie
  62              		.loc 1 105 3 view .LVU10
 106:Drivers/CMSIS/DSP/Source/FilteringFunctions/arm_conv_partial_f32.c ****   uint32_t j, k, count = 0U, blkCnt, check;
  63              		.loc 1 106 3 view .LVU11
 107:Drivers/CMSIS/DSP/Source/FilteringFunctions/arm_conv_partial_f32.c ****   int32_t blockSize1, blockSize2, blockSize3;    /* loop counters */
  64              		.loc 1 107 3 view .LVU12
 108:Drivers/CMSIS/DSP/Source/FilteringFunctions/arm_conv_partial_f32.c ****   arm_status status;                             /* status of Partial convolution */
ARM GAS  /var/folders/n6/c271nzx11xl4r4_m7sqjlt0m0000gn/T//ccw7TAzh.s 			page 4


  65              		.loc 1 108 3 view .LVU13
 109:Drivers/CMSIS/DSP/Source/FilteringFunctions/arm_conv_partial_f32.c **** 
 110:Drivers/CMSIS/DSP/Source/FilteringFunctions/arm_conv_partial_f32.c **** 
 111:Drivers/CMSIS/DSP/Source/FilteringFunctions/arm_conv_partial_f32.c ****   /* Check for range of output samples to be calculated */
 112:Drivers/CMSIS/DSP/Source/FilteringFunctions/arm_conv_partial_f32.c ****   if ((firstIndex + numPoints) > ((srcALen + (srcBLen - 1U))))
  66              		.loc 1 112 3 view .LVU14
  67              		.loc 1 112 19 is_stmt 0 view .LVU15
  68 0010 FD18     		adds	r5, r7, r3
  69              		.loc 1 112 44 view .LVU16
  70 0012 0AEB0402 		add	r2, r10, r4
  71              	.LVL3:
  72              		.loc 1 112 44 view .LVU17
  73 0016 013A     		subs	r2, r2, #1
  74              		.loc 1 112 6 view .LVU18
  75 0018 9542     		cmp	r5, r2
  76 001a 00F20982 		bhi	.L42
 113:Drivers/CMSIS/DSP/Source/FilteringFunctions/arm_conv_partial_f32.c ****   {
 114:Drivers/CMSIS/DSP/Source/FilteringFunctions/arm_conv_partial_f32.c ****     /* Set status as ARM_MATH_ARGUMENT_ERROR */
 115:Drivers/CMSIS/DSP/Source/FilteringFunctions/arm_conv_partial_f32.c ****     status = ARM_MATH_ARGUMENT_ERROR;
 116:Drivers/CMSIS/DSP/Source/FilteringFunctions/arm_conv_partial_f32.c ****   }
 117:Drivers/CMSIS/DSP/Source/FilteringFunctions/arm_conv_partial_f32.c ****   else
 118:Drivers/CMSIS/DSP/Source/FilteringFunctions/arm_conv_partial_f32.c ****   {
 119:Drivers/CMSIS/DSP/Source/FilteringFunctions/arm_conv_partial_f32.c **** 
 120:Drivers/CMSIS/DSP/Source/FilteringFunctions/arm_conv_partial_f32.c ****     /* The algorithm implementation is based on the lengths of the inputs. */
 121:Drivers/CMSIS/DSP/Source/FilteringFunctions/arm_conv_partial_f32.c ****     /* srcB is always made to slide across srcA. */
 122:Drivers/CMSIS/DSP/Source/FilteringFunctions/arm_conv_partial_f32.c ****     /* So srcBLen is always considered as shorter or equal to srcALen */
 123:Drivers/CMSIS/DSP/Source/FilteringFunctions/arm_conv_partial_f32.c ****     if (srcALen >= srcBLen)
  77              		.loc 1 123 5 is_stmt 1 view .LVU19
  78              		.loc 1 123 8 is_stmt 0 view .LVU20
  79 001e A245     		cmp	r10, r4
  80 0020 05D8     		bhi	.L3
  81 0022 0A46     		mov	r2, r1
 124:Drivers/CMSIS/DSP/Source/FilteringFunctions/arm_conv_partial_f32.c ****     {
 125:Drivers/CMSIS/DSP/Source/FilteringFunctions/arm_conv_partial_f32.c ****       /* Initialization of inputA pointer */
 126:Drivers/CMSIS/DSP/Source/FilteringFunctions/arm_conv_partial_f32.c ****       pIn1 = pSrcA;
  82              		.loc 1 126 12 view .LVU21
  83 0024 0146     		mov	r1, r0
  84              	.LVL4:
 127:Drivers/CMSIS/DSP/Source/FilteringFunctions/arm_conv_partial_f32.c **** 
 128:Drivers/CMSIS/DSP/Source/FilteringFunctions/arm_conv_partial_f32.c ****       /* Initialization of inputB pointer */
 129:Drivers/CMSIS/DSP/Source/FilteringFunctions/arm_conv_partial_f32.c ****       pIn2 = pSrcB;
  85              		.loc 1 129 12 view .LVU22
  86 0026 1046     		mov	r0, r2
  87              	.LVL5:
 123:Drivers/CMSIS/DSP/Source/FilteringFunctions/arm_conv_partial_f32.c ****     {
  88              		.loc 1 123 8 view .LVU23
  89 0028 5246     		mov	r2, r10
  90              	.LVL6:
 123:Drivers/CMSIS/DSP/Source/FilteringFunctions/arm_conv_partial_f32.c ****     {
  91              		.loc 1 123 8 view .LVU24
  92 002a A246     		mov	r10, r4
  93              	.LVL7:
 123:Drivers/CMSIS/DSP/Source/FilteringFunctions/arm_conv_partial_f32.c ****     {
  94              		.loc 1 123 8 view .LVU25
  95 002c 1446     		mov	r4, r2
  96              	.LVL8:
  97              	.L3:
ARM GAS  /var/folders/n6/c271nzx11xl4r4_m7sqjlt0m0000gn/T//ccw7TAzh.s 			page 5


 130:Drivers/CMSIS/DSP/Source/FilteringFunctions/arm_conv_partial_f32.c ****     }
 131:Drivers/CMSIS/DSP/Source/FilteringFunctions/arm_conv_partial_f32.c ****     else
 132:Drivers/CMSIS/DSP/Source/FilteringFunctions/arm_conv_partial_f32.c ****     {
 133:Drivers/CMSIS/DSP/Source/FilteringFunctions/arm_conv_partial_f32.c ****       /* Initialization of inputA pointer */
 134:Drivers/CMSIS/DSP/Source/FilteringFunctions/arm_conv_partial_f32.c ****       pIn1 = pSrcB;
 135:Drivers/CMSIS/DSP/Source/FilteringFunctions/arm_conv_partial_f32.c **** 
 136:Drivers/CMSIS/DSP/Source/FilteringFunctions/arm_conv_partial_f32.c ****       /* Initialization of inputB pointer */
 137:Drivers/CMSIS/DSP/Source/FilteringFunctions/arm_conv_partial_f32.c ****       pIn2 = pSrcA;
 138:Drivers/CMSIS/DSP/Source/FilteringFunctions/arm_conv_partial_f32.c **** 
 139:Drivers/CMSIS/DSP/Source/FilteringFunctions/arm_conv_partial_f32.c ****       /* srcBLen is always considered as shorter or equal to srcALen */
 140:Drivers/CMSIS/DSP/Source/FilteringFunctions/arm_conv_partial_f32.c ****       j = srcBLen;
 141:Drivers/CMSIS/DSP/Source/FilteringFunctions/arm_conv_partial_f32.c ****       srcBLen = srcALen;
 142:Drivers/CMSIS/DSP/Source/FilteringFunctions/arm_conv_partial_f32.c ****       srcALen = j;
 143:Drivers/CMSIS/DSP/Source/FilteringFunctions/arm_conv_partial_f32.c ****     }
 144:Drivers/CMSIS/DSP/Source/FilteringFunctions/arm_conv_partial_f32.c **** 
 145:Drivers/CMSIS/DSP/Source/FilteringFunctions/arm_conv_partial_f32.c ****     /* Conditions to check which loopCounter holds
 146:Drivers/CMSIS/DSP/Source/FilteringFunctions/arm_conv_partial_f32.c ****      * the first and last indices of the output samples to be calculated. */
 147:Drivers/CMSIS/DSP/Source/FilteringFunctions/arm_conv_partial_f32.c ****     check = firstIndex + numPoints;
  98              		.loc 1 147 5 is_stmt 1 view .LVU26
 148:Drivers/CMSIS/DSP/Source/FilteringFunctions/arm_conv_partial_f32.c ****     blockSize3 = ((int32_t)check > (int32_t)srcALen) ? (int32_t)check - (int32_t)srcALen : 0;
  99              		.loc 1 148 5 view .LVU27
 100              		.loc 1 148 36 is_stmt 0 view .LVU28
 101 002e 5646     		mov	r6, r10
 102              		.loc 1 148 90 view .LVU29
 103 0030 5545     		cmp	r5, r10
 104 0032 11DD     		ble	.L43
 105              		.loc 1 148 90 discriminator 1 view .LVU30
 106 0034 A5EB0A02 		sub	r2, r5, r10
 107              	.L4:
 108              	.LVL9:
 149:Drivers/CMSIS/DSP/Source/FilteringFunctions/arm_conv_partial_f32.c ****     blockSize3 = ((int32_t)firstIndex > (int32_t)srcALen - 1) ? blockSize3 - (int32_t)firstIndex + 
 109              		.loc 1 149 5 is_stmt 1 view .LVU31
 110              		.loc 1 149 117 is_stmt 0 view .LVU32
 111 0038 BE42     		cmp	r6, r7
 112 003a 01DC     		bgt	.L5
 113              		.loc 1 149 76 discriminator 1 view .LVU33
 114 003c D21B     		subs	r2, r2, r7
 115              	.LVL10:
 116              		.loc 1 149 117 discriminator 1 view .LVU34
 117 003e 3244     		add	r2, r2, r6
 118              	.L5:
 119              	.LVL11:
 150:Drivers/CMSIS/DSP/Source/FilteringFunctions/arm_conv_partial_f32.c ****     blockSize1 = ((int32_t) srcBLen - 1) - (int32_t) firstIndex;
 120              		.loc 1 150 5 is_stmt 1 view .LVU35
 121              		.loc 1 150 42 is_stmt 0 view .LVU36
 122 0040 A4EB0709 		sub	r9, r4, r7
 123 0044 09F1FF39 		add	r9, r9, #-1
 124              	.LVL12:
 151:Drivers/CMSIS/DSP/Source/FilteringFunctions/arm_conv_partial_f32.c ****     blockSize1 = (blockSize1 > 0) ? ((check > (srcBLen - 1U)) ? blockSize1 :
 125              		.loc 1 151 5 is_stmt 1 view .LVU37
 152:Drivers/CMSIS/DSP/Source/FilteringFunctions/arm_conv_partial_f32.c ****                                      (int32_t) numPoints) : 0;
 126              		.loc 1 152 59 is_stmt 0 view .LVU38
 127 0048 B9F1000F 		cmp	r9, #0
 128 004c 06DD     		ble	.L44
 151:Drivers/CMSIS/DSP/Source/FilteringFunctions/arm_conv_partial_f32.c ****     blockSize1 = (blockSize1 > 0) ? ((check > (srcBLen - 1U)) ? blockSize1 :
 129              		.loc 1 151 56 view .LVU39
 130 004e 661E     		subs	r6, r4, #1
ARM GAS  /var/folders/n6/c271nzx11xl4r4_m7sqjlt0m0000gn/T//ccw7TAzh.s 			page 6


 151:Drivers/CMSIS/DSP/Source/FilteringFunctions/arm_conv_partial_f32.c ****     blockSize1 = (blockSize1 > 0) ? ((check > (srcBLen - 1U)) ? blockSize1 :
 131              		.loc 1 151 76 view .LVU40
 132 0050 B542     		cmp	r5, r6
 133 0052 05D8     		bhi	.L6
 151:Drivers/CMSIS/DSP/Source/FilteringFunctions/arm_conv_partial_f32.c ****     blockSize1 = (blockSize1 > 0) ? ((check > (srcBLen - 1U)) ? blockSize1 :
 134              		.loc 1 151 76 discriminator 2 view .LVU41
 135 0054 9946     		mov	r9, r3
 136              	.LVL13:
 151:Drivers/CMSIS/DSP/Source/FilteringFunctions/arm_conv_partial_f32.c ****     blockSize1 = (blockSize1 > 0) ? ((check > (srcBLen - 1U)) ? blockSize1 :
 137              		.loc 1 151 76 discriminator 2 view .LVU42
 138 0056 03E0     		b	.L6
 139              	.LVL14:
 140              	.L43:
 148:Drivers/CMSIS/DSP/Source/FilteringFunctions/arm_conv_partial_f32.c ****     blockSize3 = ((int32_t)firstIndex > (int32_t)srcALen - 1) ? blockSize3 - (int32_t)firstIndex + 
 141              		.loc 1 148 90 discriminator 2 view .LVU43
 142 0058 0022     		movs	r2, #0
 143 005a EDE7     		b	.L4
 144              	.LVL15:
 145              	.L44:
 146              		.loc 1 152 59 discriminator 1 view .LVU44
 147 005c 4FF00009 		mov	r9, #0
 148              	.LVL16:
 149              	.L6:
 153:Drivers/CMSIS/DSP/Source/FilteringFunctions/arm_conv_partial_f32.c ****     blockSize2 = ((int32_t) check - blockSize3) -
 150              		.loc 1 153 5 is_stmt 1 view .LVU45
 151              		.loc 1 153 35 is_stmt 0 view .LVU46
 152 0060 AB1A     		subs	r3, r5, r2
 154:Drivers/CMSIS/DSP/Source/FilteringFunctions/arm_conv_partial_f32.c ****       (blockSize1 + (int32_t) firstIndex);
 153              		.loc 1 154 19 view .LVU47
 154 0062 07EB0905 		add	r5, r7, r9
 155              	.LVL17:
 153:Drivers/CMSIS/DSP/Source/FilteringFunctions/arm_conv_partial_f32.c ****     blockSize2 = ((int32_t) check - blockSize3) -
 156              		.loc 1 153 16 view .LVU48
 157 0066 5B1B     		subs	r3, r3, r5
 158              	.LVL18:
 155:Drivers/CMSIS/DSP/Source/FilteringFunctions/arm_conv_partial_f32.c ****     blockSize2 = (blockSize2 > 0) ? blockSize2 : 0;
 159              		.loc 1 155 5 is_stmt 1 view .LVU49
 160              		.loc 1 155 16 is_stmt 0 view .LVU50
 161 0068 23EAE37C 		bic	ip, r3, r3, asr #31
 162              	.LVL19:
 156:Drivers/CMSIS/DSP/Source/FilteringFunctions/arm_conv_partial_f32.c **** 
 157:Drivers/CMSIS/DSP/Source/FilteringFunctions/arm_conv_partial_f32.c ****     /* conv(x,y) at n = x[n] * y[0] + x[n-1] * y[1] + x[n-2] * y[2] + ...+ x[n-N+1] * y[N -1] */
 158:Drivers/CMSIS/DSP/Source/FilteringFunctions/arm_conv_partial_f32.c ****     /* The function is internally
 159:Drivers/CMSIS/DSP/Source/FilteringFunctions/arm_conv_partial_f32.c ****      * divided into three stages according to the number of multiplications that has to be
 160:Drivers/CMSIS/DSP/Source/FilteringFunctions/arm_conv_partial_f32.c ****      * taken place between inputA samples and inputB samples. In the first stage of the
 161:Drivers/CMSIS/DSP/Source/FilteringFunctions/arm_conv_partial_f32.c ****      * algorithm, the multiplications increase by one for every iteration.
 162:Drivers/CMSIS/DSP/Source/FilteringFunctions/arm_conv_partial_f32.c ****      * In the second stage of the algorithm, srcBLen number of multiplications are done.
 163:Drivers/CMSIS/DSP/Source/FilteringFunctions/arm_conv_partial_f32.c ****      * In the third stage of the algorithm, the multiplications decrease by one
 164:Drivers/CMSIS/DSP/Source/FilteringFunctions/arm_conv_partial_f32.c ****      * for every iteration. */
 165:Drivers/CMSIS/DSP/Source/FilteringFunctions/arm_conv_partial_f32.c **** 
 166:Drivers/CMSIS/DSP/Source/FilteringFunctions/arm_conv_partial_f32.c ****     /* Set the output pointer to point to the firstIndex
 167:Drivers/CMSIS/DSP/Source/FilteringFunctions/arm_conv_partial_f32.c ****      * of the output sample to be calculated. */
 168:Drivers/CMSIS/DSP/Source/FilteringFunctions/arm_conv_partial_f32.c ****     pOut = pDst + firstIndex;
 163              		.loc 1 168 5 is_stmt 1 view .LVU51
 164              		.loc 1 168 10 is_stmt 0 view .LVU52
 165 006c 0C9B     		ldr	r3, [sp, #48]
 166 006e 03EB8703 		add	r3, r3, r7, lsl #2
ARM GAS  /var/folders/n6/c271nzx11xl4r4_m7sqjlt0m0000gn/T//ccw7TAzh.s 			page 7


 167              	.LVL20:
 169:Drivers/CMSIS/DSP/Source/FilteringFunctions/arm_conv_partial_f32.c **** 
 170:Drivers/CMSIS/DSP/Source/FilteringFunctions/arm_conv_partial_f32.c ****     /* --------------------------
 171:Drivers/CMSIS/DSP/Source/FilteringFunctions/arm_conv_partial_f32.c ****      * Initializations of stage1
 172:Drivers/CMSIS/DSP/Source/FilteringFunctions/arm_conv_partial_f32.c ****      * -------------------------*/
 173:Drivers/CMSIS/DSP/Source/FilteringFunctions/arm_conv_partial_f32.c **** 
 174:Drivers/CMSIS/DSP/Source/FilteringFunctions/arm_conv_partial_f32.c ****     /* sum = x[0] * y[0]
 175:Drivers/CMSIS/DSP/Source/FilteringFunctions/arm_conv_partial_f32.c ****      * sum = x[0] * y[1] + x[1] * y[0]
 176:Drivers/CMSIS/DSP/Source/FilteringFunctions/arm_conv_partial_f32.c ****      * ....
 177:Drivers/CMSIS/DSP/Source/FilteringFunctions/arm_conv_partial_f32.c ****      * sum = x[0] * y[srcBlen - 1] + x[1] * y[srcBlen - 2] +...+ x[srcBLen - 1] * y[0]
 178:Drivers/CMSIS/DSP/Source/FilteringFunctions/arm_conv_partial_f32.c ****      */
 179:Drivers/CMSIS/DSP/Source/FilteringFunctions/arm_conv_partial_f32.c **** 
 180:Drivers/CMSIS/DSP/Source/FilteringFunctions/arm_conv_partial_f32.c ****     /* In this stage the MAC operations are increased by 1 for every iteration.
 181:Drivers/CMSIS/DSP/Source/FilteringFunctions/arm_conv_partial_f32.c ****        The count variable holds the number of MAC operations performed.
 182:Drivers/CMSIS/DSP/Source/FilteringFunctions/arm_conv_partial_f32.c ****        Since the partial convolution starts from from firstIndex
 183:Drivers/CMSIS/DSP/Source/FilteringFunctions/arm_conv_partial_f32.c ****        Number of Macs to be performed is firstIndex + 1 */
 184:Drivers/CMSIS/DSP/Source/FilteringFunctions/arm_conv_partial_f32.c ****     count = 1U + firstIndex;
 168              		.loc 1 184 5 is_stmt 1 view .LVU53
 169              		.loc 1 184 11 is_stmt 0 view .LVU54
 170 0072 07F10108 		add	r8, r7, #1
 171              	.LVL21:
 185:Drivers/CMSIS/DSP/Source/FilteringFunctions/arm_conv_partial_f32.c **** 
 186:Drivers/CMSIS/DSP/Source/FilteringFunctions/arm_conv_partial_f32.c ****     /* Working pointer of inputA */
 187:Drivers/CMSIS/DSP/Source/FilteringFunctions/arm_conv_partial_f32.c ****     px = pIn1;
 172              		.loc 1 187 5 is_stmt 1 view .LVU55
 188:Drivers/CMSIS/DSP/Source/FilteringFunctions/arm_conv_partial_f32.c **** 
 189:Drivers/CMSIS/DSP/Source/FilteringFunctions/arm_conv_partial_f32.c ****     /* Working pointer of inputB */
 190:Drivers/CMSIS/DSP/Source/FilteringFunctions/arm_conv_partial_f32.c ****     pSrc1 = pIn2 + firstIndex;
 173              		.loc 1 190 5 view .LVU56
 174              		.loc 1 190 11 is_stmt 0 view .LVU57
 175 0076 00EB870B 		add	fp, r0, r7, lsl #2
 176              	.LVL22:
 191:Drivers/CMSIS/DSP/Source/FilteringFunctions/arm_conv_partial_f32.c ****     py = pSrc1;
 177              		.loc 1 191 5 is_stmt 1 view .LVU58
 192:Drivers/CMSIS/DSP/Source/FilteringFunctions/arm_conv_partial_f32.c **** 
 193:Drivers/CMSIS/DSP/Source/FilteringFunctions/arm_conv_partial_f32.c ****     /* ------------------------
 194:Drivers/CMSIS/DSP/Source/FilteringFunctions/arm_conv_partial_f32.c ****      * Stage1 process
 195:Drivers/CMSIS/DSP/Source/FilteringFunctions/arm_conv_partial_f32.c ****      * ----------------------*/
 196:Drivers/CMSIS/DSP/Source/FilteringFunctions/arm_conv_partial_f32.c **** 
 197:Drivers/CMSIS/DSP/Source/FilteringFunctions/arm_conv_partial_f32.c ****     /* The first stage starts here */
 198:Drivers/CMSIS/DSP/Source/FilteringFunctions/arm_conv_partial_f32.c ****     while (blockSize1 > 0)
 178              		.loc 1 198 5 view .LVU59
 179 007a 9646     		mov	lr, r2
 180 007c 0090     		str	r0, [sp]
 181              		.loc 1 198 11 is_stmt 0 view .LVU60
 182 007e 3CE0     		b	.L7
 183              	.LVL23:
 184              	.L9:
 199:Drivers/CMSIS/DSP/Source/FilteringFunctions/arm_conv_partial_f32.c ****     {
 200:Drivers/CMSIS/DSP/Source/FilteringFunctions/arm_conv_partial_f32.c ****       /* Accumulator is made zero for every iteration */
 201:Drivers/CMSIS/DSP/Source/FilteringFunctions/arm_conv_partial_f32.c ****       sum = 0.0f;
 202:Drivers/CMSIS/DSP/Source/FilteringFunctions/arm_conv_partial_f32.c **** 
 203:Drivers/CMSIS/DSP/Source/FilteringFunctions/arm_conv_partial_f32.c ****       /* Apply loop unrolling and compute 4 MACs simultaneously. */
 204:Drivers/CMSIS/DSP/Source/FilteringFunctions/arm_conv_partial_f32.c ****       k = count >> 2U;
 205:Drivers/CMSIS/DSP/Source/FilteringFunctions/arm_conv_partial_f32.c **** 
 206:Drivers/CMSIS/DSP/Source/FilteringFunctions/arm_conv_partial_f32.c ****       /* First part of the processing with loop unrolling.  Compute 4 MACs at a time.
 207:Drivers/CMSIS/DSP/Source/FilteringFunctions/arm_conv_partial_f32.c ****        ** a second loop below computes MACs for the remaining 1 to 3 samples. */
ARM GAS  /var/folders/n6/c271nzx11xl4r4_m7sqjlt0m0000gn/T//ccw7TAzh.s 			page 8


 208:Drivers/CMSIS/DSP/Source/FilteringFunctions/arm_conv_partial_f32.c ****       while (k > 0U)
 209:Drivers/CMSIS/DSP/Source/FilteringFunctions/arm_conv_partial_f32.c ****       {
 210:Drivers/CMSIS/DSP/Source/FilteringFunctions/arm_conv_partial_f32.c ****         /* x[0] * y[srcBLen - 1] */
 211:Drivers/CMSIS/DSP/Source/FilteringFunctions/arm_conv_partial_f32.c ****         sum += *px++ * *py--;
 185              		.loc 1 211 9 is_stmt 1 view .LVU61
 186              		.loc 1 211 16 is_stmt 0 view .LVU62
 187 0080 95ED007A 		vldr.32	s14, [r5]
 188              	.LVL24:
 189              		.loc 1 211 24 view .LVU63
 190 0084 D6ED006A 		vldr.32	s13, [r6]
 191              		.loc 1 211 22 view .LVU64
 192 0088 27EE267A 		vmul.f32	s14, s14, s13
 193              		.loc 1 211 13 view .LVU65
 194 008c 77EE877A 		vadd.f32	s15, s15, s14
 195              	.LVL25:
 212:Drivers/CMSIS/DSP/Source/FilteringFunctions/arm_conv_partial_f32.c **** 
 213:Drivers/CMSIS/DSP/Source/FilteringFunctions/arm_conv_partial_f32.c ****         /* x[1] * y[srcBLen - 2] */
 214:Drivers/CMSIS/DSP/Source/FilteringFunctions/arm_conv_partial_f32.c ****         sum += *px++ * *py--;
 196              		.loc 1 214 9 is_stmt 1 view .LVU66
 197              		.loc 1 214 16 is_stmt 0 view .LVU67
 198 0090 95ED017A 		vldr.32	s14, [r5, #4]
 199              	.LVL26:
 200              		.loc 1 214 24 view .LVU68
 201 0094 56ED016A 		vldr.32	s13, [r6, #-4]
 202              		.loc 1 214 22 view .LVU69
 203 0098 27EE267A 		vmul.f32	s14, s14, s13
 204              		.loc 1 214 13 view .LVU70
 205 009c 77EE877A 		vadd.f32	s15, s15, s14
 206              	.LVL27:
 215:Drivers/CMSIS/DSP/Source/FilteringFunctions/arm_conv_partial_f32.c **** 
 216:Drivers/CMSIS/DSP/Source/FilteringFunctions/arm_conv_partial_f32.c ****         /* x[2] * y[srcBLen - 3] */
 217:Drivers/CMSIS/DSP/Source/FilteringFunctions/arm_conv_partial_f32.c ****         sum += *px++ * *py--;
 207              		.loc 1 217 9 is_stmt 1 view .LVU71
 208              		.loc 1 217 16 is_stmt 0 view .LVU72
 209 00a0 95ED027A 		vldr.32	s14, [r5, #8]
 210              	.LVL28:
 211              		.loc 1 217 24 view .LVU73
 212 00a4 56ED026A 		vldr.32	s13, [r6, #-8]
 213              		.loc 1 217 22 view .LVU74
 214 00a8 27EE267A 		vmul.f32	s14, s14, s13
 215              		.loc 1 217 13 view .LVU75
 216 00ac 77EE877A 		vadd.f32	s15, s15, s14
 217              	.LVL29:
 218:Drivers/CMSIS/DSP/Source/FilteringFunctions/arm_conv_partial_f32.c **** 
 219:Drivers/CMSIS/DSP/Source/FilteringFunctions/arm_conv_partial_f32.c ****         /* x[3] * y[srcBLen - 4] */
 220:Drivers/CMSIS/DSP/Source/FilteringFunctions/arm_conv_partial_f32.c ****         sum += *px++ * *py--;
 218              		.loc 1 220 9 is_stmt 1 view .LVU76
 219              		.loc 1 220 16 is_stmt 0 view .LVU77
 220 00b0 95ED037A 		vldr.32	s14, [r5, #12]
 221              	.LVL30:
 222              		.loc 1 220 24 view .LVU78
 223 00b4 56ED036A 		vldr.32	s13, [r6, #-12]
 224              		.loc 1 220 22 view .LVU79
 225 00b8 27EE267A 		vmul.f32	s14, s14, s13
 226              		.loc 1 220 13 view .LVU80
 227 00bc 77EE877A 		vadd.f32	s15, s15, s14
 228              	.LVL31:
ARM GAS  /var/folders/n6/c271nzx11xl4r4_m7sqjlt0m0000gn/T//ccw7TAzh.s 			page 9


 221:Drivers/CMSIS/DSP/Source/FilteringFunctions/arm_conv_partial_f32.c **** 
 222:Drivers/CMSIS/DSP/Source/FilteringFunctions/arm_conv_partial_f32.c ****         /* Decrement the loop counter */
 223:Drivers/CMSIS/DSP/Source/FilteringFunctions/arm_conv_partial_f32.c ****         k--;
 229              		.loc 1 223 9 is_stmt 1 view .LVU81
 230              		.loc 1 223 10 is_stmt 0 view .LVU82
 231 00c0 013A     		subs	r2, r2, #1
 232              	.LVL32:
 220:Drivers/CMSIS/DSP/Source/FilteringFunctions/arm_conv_partial_f32.c **** 
 233              		.loc 1 220 27 view .LVU83
 234 00c2 103E     		subs	r6, r6, #16
 235              	.LVL33:
 220:Drivers/CMSIS/DSP/Source/FilteringFunctions/arm_conv_partial_f32.c **** 
 236              		.loc 1 220 19 view .LVU84
 237 00c4 1035     		adds	r5, r5, #16
 238              	.LVL34:
 239              	.L8:
 208:Drivers/CMSIS/DSP/Source/FilteringFunctions/arm_conv_partial_f32.c ****       {
 240              		.loc 1 208 16 is_stmt 1 view .LVU85
 241 00c6 002A     		cmp	r2, #0
 242 00c8 DAD1     		bne	.L9
 224:Drivers/CMSIS/DSP/Source/FilteringFunctions/arm_conv_partial_f32.c ****       }
 225:Drivers/CMSIS/DSP/Source/FilteringFunctions/arm_conv_partial_f32.c **** 
 226:Drivers/CMSIS/DSP/Source/FilteringFunctions/arm_conv_partial_f32.c ****       /* If the count is not a multiple of 4, compute any remaining MACs here.
 227:Drivers/CMSIS/DSP/Source/FilteringFunctions/arm_conv_partial_f32.c ****        ** No loop unrolling is used. */
 228:Drivers/CMSIS/DSP/Source/FilteringFunctions/arm_conv_partial_f32.c ****       k = count % 0x4U;
 243              		.loc 1 228 7 view .LVU86
 244              		.loc 1 228 9 is_stmt 0 view .LVU87
 245 00ca 08F00302 		and	r2, r8, #3
 246              	.LVL35:
 229:Drivers/CMSIS/DSP/Source/FilteringFunctions/arm_conv_partial_f32.c **** 
 230:Drivers/CMSIS/DSP/Source/FilteringFunctions/arm_conv_partial_f32.c ****       while (k > 0U)
 247              		.loc 1 230 7 is_stmt 1 view .LVU88
 248              		.loc 1 230 13 is_stmt 0 view .LVU89
 249 00ce 0AE0     		b	.L10
 250              	.L11:
 231:Drivers/CMSIS/DSP/Source/FilteringFunctions/arm_conv_partial_f32.c ****       {
 232:Drivers/CMSIS/DSP/Source/FilteringFunctions/arm_conv_partial_f32.c ****         /* Perform the multiply-accumulates */
 233:Drivers/CMSIS/DSP/Source/FilteringFunctions/arm_conv_partial_f32.c ****         sum += *px++ * *py--;
 251              		.loc 1 233 9 is_stmt 1 view .LVU90
 252              	.LVL36:
 253              		.loc 1 233 16 is_stmt 0 view .LVU91
 254 00d0 B5EC017A 		vldmia.32	r5!, {s14}
 255              	.LVL37:
 256              		.loc 1 233 24 view .LVU92
 257 00d4 3046     		mov	r0, r6
 258 00d6 043E     		subs	r6, r6, #4
 259              	.LVL38:
 260              		.loc 1 233 24 view .LVU93
 261 00d8 D0ED006A 		vldr.32	s13, [r0]
 262              		.loc 1 233 22 view .LVU94
 263 00dc 27EE267A 		vmul.f32	s14, s14, s13
 264              		.loc 1 233 13 view .LVU95
 265 00e0 77EE877A 		vadd.f32	s15, s15, s14
 266              	.LVL39:
 234:Drivers/CMSIS/DSP/Source/FilteringFunctions/arm_conv_partial_f32.c **** 
 235:Drivers/CMSIS/DSP/Source/FilteringFunctions/arm_conv_partial_f32.c ****         /* Decrement the loop counter */
 236:Drivers/CMSIS/DSP/Source/FilteringFunctions/arm_conv_partial_f32.c ****         k--;
ARM GAS  /var/folders/n6/c271nzx11xl4r4_m7sqjlt0m0000gn/T//ccw7TAzh.s 			page 10


 267              		.loc 1 236 9 is_stmt 1 view .LVU96
 268              		.loc 1 236 10 is_stmt 0 view .LVU97
 269 00e4 013A     		subs	r2, r2, #1
 270              	.LVL40:
 271              	.L10:
 230:Drivers/CMSIS/DSP/Source/FilteringFunctions/arm_conv_partial_f32.c ****       {
 272              		.loc 1 230 16 is_stmt 1 view .LVU98
 273 00e6 002A     		cmp	r2, #0
 274 00e8 F2D1     		bne	.L11
 237:Drivers/CMSIS/DSP/Source/FilteringFunctions/arm_conv_partial_f32.c ****       }
 238:Drivers/CMSIS/DSP/Source/FilteringFunctions/arm_conv_partial_f32.c **** 
 239:Drivers/CMSIS/DSP/Source/FilteringFunctions/arm_conv_partial_f32.c ****       /* Store the result in the accumulator in the destination buffer. */
 240:Drivers/CMSIS/DSP/Source/FilteringFunctions/arm_conv_partial_f32.c ****       *pOut++ = sum;
 275              		.loc 1 240 7 view .LVU99
 276              	.LVL41:
 277              		.loc 1 240 15 is_stmt 0 view .LVU100
 278 00ea E3EC017A 		vstmia.32	r3!, {s15}
 279              	.LVL42:
 241:Drivers/CMSIS/DSP/Source/FilteringFunctions/arm_conv_partial_f32.c **** 
 242:Drivers/CMSIS/DSP/Source/FilteringFunctions/arm_conv_partial_f32.c ****       /* Update the inputA and inputB pointers for next MAC calculation */
 243:Drivers/CMSIS/DSP/Source/FilteringFunctions/arm_conv_partial_f32.c ****       py = ++pSrc1;
 280              		.loc 1 243 7 is_stmt 1 view .LVU101
 281              		.loc 1 243 10 is_stmt 0 view .LVU102
 282 00ee 0BF1040B 		add	fp, fp, #4
 283              	.LVL43:
 244:Drivers/CMSIS/DSP/Source/FilteringFunctions/arm_conv_partial_f32.c ****       px = pIn1;
 284              		.loc 1 244 7 is_stmt 1 view .LVU103
 245:Drivers/CMSIS/DSP/Source/FilteringFunctions/arm_conv_partial_f32.c **** 
 246:Drivers/CMSIS/DSP/Source/FilteringFunctions/arm_conv_partial_f32.c ****       /* Increment the MAC count */
 247:Drivers/CMSIS/DSP/Source/FilteringFunctions/arm_conv_partial_f32.c ****       count++;
 285              		.loc 1 247 7 view .LVU104
 286              		.loc 1 247 12 is_stmt 0 view .LVU105
 287 00f2 08F10108 		add	r8, r8, #1
 288              	.LVL44:
 248:Drivers/CMSIS/DSP/Source/FilteringFunctions/arm_conv_partial_f32.c **** 
 249:Drivers/CMSIS/DSP/Source/FilteringFunctions/arm_conv_partial_f32.c ****       /* Decrement the loop counter */
 250:Drivers/CMSIS/DSP/Source/FilteringFunctions/arm_conv_partial_f32.c ****       blockSize1--;
 289              		.loc 1 250 7 is_stmt 1 view .LVU106
 290              		.loc 1 250 17 is_stmt 0 view .LVU107
 291 00f6 09F1FF39 		add	r9, r9, #-1
 292              	.LVL45:
 293              	.L7:
 198:Drivers/CMSIS/DSP/Source/FilteringFunctions/arm_conv_partial_f32.c ****     {
 294              		.loc 1 198 23 is_stmt 1 view .LVU108
 295 00fa B9F1000F 		cmp	r9, #0
 296 00fe 06DD     		ble	.L48
 201:Drivers/CMSIS/DSP/Source/FilteringFunctions/arm_conv_partial_f32.c **** 
 297              		.loc 1 201 7 view .LVU109
 298              	.LVL46:
 204:Drivers/CMSIS/DSP/Source/FilteringFunctions/arm_conv_partial_f32.c **** 
 299              		.loc 1 204 7 view .LVU110
 204:Drivers/CMSIS/DSP/Source/FilteringFunctions/arm_conv_partial_f32.c **** 
 300              		.loc 1 204 9 is_stmt 0 view .LVU111
 301 0100 4FEA9802 		lsr	r2, r8, #2
 302              	.LVL47:
 208:Drivers/CMSIS/DSP/Source/FilteringFunctions/arm_conv_partial_f32.c ****       {
 303              		.loc 1 208 7 is_stmt 1 view .LVU112
ARM GAS  /var/folders/n6/c271nzx11xl4r4_m7sqjlt0m0000gn/T//ccw7TAzh.s 			page 11


 208:Drivers/CMSIS/DSP/Source/FilteringFunctions/arm_conv_partial_f32.c ****       {
 304              		.loc 1 208 13 is_stmt 0 view .LVU113
 305 0104 5E46     		mov	r6, fp
 306 0106 0D46     		mov	r5, r1
 201:Drivers/CMSIS/DSP/Source/FilteringFunctions/arm_conv_partial_f32.c **** 
 307              		.loc 1 201 11 view .LVU114
 308 0108 DFEDCB7A 		vldr.32	s15, .L52
 208:Drivers/CMSIS/DSP/Source/FilteringFunctions/arm_conv_partial_f32.c ****       {
 309              		.loc 1 208 13 view .LVU115
 310 010c DBE7     		b	.L8
 311              	.LVL48:
 312              	.L48:
 251:Drivers/CMSIS/DSP/Source/FilteringFunctions/arm_conv_partial_f32.c ****     }
 252:Drivers/CMSIS/DSP/Source/FilteringFunctions/arm_conv_partial_f32.c **** 
 253:Drivers/CMSIS/DSP/Source/FilteringFunctions/arm_conv_partial_f32.c ****     /* --------------------------
 254:Drivers/CMSIS/DSP/Source/FilteringFunctions/arm_conv_partial_f32.c ****      * Initializations of stage2
 255:Drivers/CMSIS/DSP/Source/FilteringFunctions/arm_conv_partial_f32.c ****      * ------------------------*/
 256:Drivers/CMSIS/DSP/Source/FilteringFunctions/arm_conv_partial_f32.c **** 
 257:Drivers/CMSIS/DSP/Source/FilteringFunctions/arm_conv_partial_f32.c ****     /* sum = x[0] * y[srcBLen-1] + x[1] * y[srcBLen-2] +...+ x[srcBLen-1] * y[0]
 258:Drivers/CMSIS/DSP/Source/FilteringFunctions/arm_conv_partial_f32.c ****      * sum = x[1] * y[srcBLen-1] + x[2] * y[srcBLen-2] +...+ x[srcBLen] * y[0]
 259:Drivers/CMSIS/DSP/Source/FilteringFunctions/arm_conv_partial_f32.c ****      * ....
 260:Drivers/CMSIS/DSP/Source/FilteringFunctions/arm_conv_partial_f32.c ****      * sum = x[srcALen-srcBLen-2] * y[srcBLen-1] + x[srcALen] * y[srcBLen-2] +...+ x[srcALen-1] * y
 261:Drivers/CMSIS/DSP/Source/FilteringFunctions/arm_conv_partial_f32.c ****      */
 262:Drivers/CMSIS/DSP/Source/FilteringFunctions/arm_conv_partial_f32.c **** 
 263:Drivers/CMSIS/DSP/Source/FilteringFunctions/arm_conv_partial_f32.c ****     /* Working pointer of inputA */
 264:Drivers/CMSIS/DSP/Source/FilteringFunctions/arm_conv_partial_f32.c ****     if ((int32_t)firstIndex - (int32_t)srcBLen + 1 > 0)
 313              		.loc 1 264 8 view .LVU116
 314 010e 7246     		mov	r2, lr
 315 0110 0098     		ldr	r0, [sp]
 316              		.loc 1 264 5 is_stmt 1 view .LVU117
 317              		.loc 1 264 8 is_stmt 0 view .LVU118
 318 0112 B7EB0408 		subs	r8, r7, r4
 319              	.LVL49:
 320              		.loc 1 264 8 view .LVU119
 321 0116 14D4     		bmi	.L45
 322              	.LVL50:
 265:Drivers/CMSIS/DSP/Source/FilteringFunctions/arm_conv_partial_f32.c ****     {
 266:Drivers/CMSIS/DSP/Source/FilteringFunctions/arm_conv_partial_f32.c ****       px = pIn1 + firstIndex - srcBLen + 1;
 323              		.loc 1 266 7 is_stmt 1 view .LVU120
 324              		.loc 1 266 40 is_stmt 0 view .LVU121
 325 0118 08F1010E 		add	lr, r8, #1
 326              		.loc 1 266 10 view .LVU122
 327 011c 01EB8E0E 		add	lr, r1, lr, lsl #2
 328              	.LVL51:
 329              	.L13:
 267:Drivers/CMSIS/DSP/Source/FilteringFunctions/arm_conv_partial_f32.c ****     }
 268:Drivers/CMSIS/DSP/Source/FilteringFunctions/arm_conv_partial_f32.c ****     else
 269:Drivers/CMSIS/DSP/Source/FilteringFunctions/arm_conv_partial_f32.c ****     {
 270:Drivers/CMSIS/DSP/Source/FilteringFunctions/arm_conv_partial_f32.c ****       px = pIn1;
 271:Drivers/CMSIS/DSP/Source/FilteringFunctions/arm_conv_partial_f32.c ****     }
 272:Drivers/CMSIS/DSP/Source/FilteringFunctions/arm_conv_partial_f32.c **** 
 273:Drivers/CMSIS/DSP/Source/FilteringFunctions/arm_conv_partial_f32.c ****     /* Working pointer of inputB */
 274:Drivers/CMSIS/DSP/Source/FilteringFunctions/arm_conv_partial_f32.c ****     pSrc2 = pIn2 + (srcBLen - 1U);
 330              		.loc 1 274 5 is_stmt 1 view .LVU123
 331              		.loc 1 274 18 is_stmt 0 view .LVU124
 332 0120 6FF04045 		mvn	r5, #-1073741824
 333 0124 2544     		add	r5, r5, r4
ARM GAS  /var/folders/n6/c271nzx11xl4r4_m7sqjlt0m0000gn/T//ccw7TAzh.s 			page 12


 334              		.loc 1 274 11 view .LVU125
 335 0126 00EB8505 		add	r5, r0, r5, lsl #2
 336              	.LVL52:
 275:Drivers/CMSIS/DSP/Source/FilteringFunctions/arm_conv_partial_f32.c ****     py = pSrc2;
 337              		.loc 1 275 5 is_stmt 1 view .LVU126
 276:Drivers/CMSIS/DSP/Source/FilteringFunctions/arm_conv_partial_f32.c **** 
 277:Drivers/CMSIS/DSP/Source/FilteringFunctions/arm_conv_partial_f32.c ****     /* count is index by which the pointer pIn1 to be incremented */
 278:Drivers/CMSIS/DSP/Source/FilteringFunctions/arm_conv_partial_f32.c ****     count = 0U;
 338              		.loc 1 278 5 view .LVU127
 279:Drivers/CMSIS/DSP/Source/FilteringFunctions/arm_conv_partial_f32.c **** 
 280:Drivers/CMSIS/DSP/Source/FilteringFunctions/arm_conv_partial_f32.c ****     /* -------------------
 281:Drivers/CMSIS/DSP/Source/FilteringFunctions/arm_conv_partial_f32.c ****      * Stage2 process
 282:Drivers/CMSIS/DSP/Source/FilteringFunctions/arm_conv_partial_f32.c ****      * ------------------*/
 283:Drivers/CMSIS/DSP/Source/FilteringFunctions/arm_conv_partial_f32.c **** 
 284:Drivers/CMSIS/DSP/Source/FilteringFunctions/arm_conv_partial_f32.c ****     /* Stage2 depends on srcBLen as in this stage srcBLen number of MACS are performed.
 285:Drivers/CMSIS/DSP/Source/FilteringFunctions/arm_conv_partial_f32.c ****      * So, to loop unroll over blockSize2,
 286:Drivers/CMSIS/DSP/Source/FilteringFunctions/arm_conv_partial_f32.c ****      * srcBLen should be greater than or equal to 4 */
 287:Drivers/CMSIS/DSP/Source/FilteringFunctions/arm_conv_partial_f32.c ****     if (srcBLen >= 4U)
 339              		.loc 1 287 5 view .LVU128
 340              		.loc 1 287 8 is_stmt 0 view .LVU129
 341 012a 032C     		cmp	r4, #3
 342 012c 40F20881 		bls	.L14
 288:Drivers/CMSIS/DSP/Source/FilteringFunctions/arm_conv_partial_f32.c ****     {
 289:Drivers/CMSIS/DSP/Source/FilteringFunctions/arm_conv_partial_f32.c ****       /* Loop unroll over blockSize2, by 4 */
 290:Drivers/CMSIS/DSP/Source/FilteringFunctions/arm_conv_partial_f32.c ****       blkCnt = ((uint32_t) blockSize2 >> 2U);
 343              		.loc 1 290 7 is_stmt 1 view .LVU130
 344              		.loc 1 290 14 is_stmt 0 view .LVU131
 345 0130 4FEA9C09 		lsr	r9, ip, #2
 346              	.LVL53:
 291:Drivers/CMSIS/DSP/Source/FilteringFunctions/arm_conv_partial_f32.c **** 
 292:Drivers/CMSIS/DSP/Source/FilteringFunctions/arm_conv_partial_f32.c ****       while (blkCnt > 0U)
 347              		.loc 1 292 7 is_stmt 1 view .LVU132
 278:Drivers/CMSIS/DSP/Source/FilteringFunctions/arm_conv_partial_f32.c **** 
 348              		.loc 1 278 11 is_stmt 0 view .LVU133
 349 0134 0026     		movs	r6, #0
 350 0136 0192     		str	r2, [sp, #4]
 351 0138 0095     		str	r5, [sp]
 352              	.LVL54:
 278:Drivers/CMSIS/DSP/Source/FilteringFunctions/arm_conv_partial_f32.c **** 
 353              		.loc 1 278 11 view .LVU134
 354 013a 0A46     		mov	r2, r1
 355              	.LVL55:
 278:Drivers/CMSIS/DSP/Source/FilteringFunctions/arm_conv_partial_f32.c **** 
 356              		.loc 1 278 11 view .LVU135
 357 013c 4946     		mov	r1, r9
 358              	.LVL56:
 278:Drivers/CMSIS/DSP/Source/FilteringFunctions/arm_conv_partial_f32.c **** 
 359              		.loc 1 278 11 view .LVU136
 360 013e 9146     		mov	r9, r2
 361              	.LVL57:
 362              		.loc 1 292 13 view .LVU137
 363 0140 37E0     		b	.L15
 364              	.LVL58:
 365              	.L45:
 270:Drivers/CMSIS/DSP/Source/FilteringFunctions/arm_conv_partial_f32.c ****     }
 366              		.loc 1 270 10 view .LVU138
 367 0142 8E46     		mov	lr, r1
ARM GAS  /var/folders/n6/c271nzx11xl4r4_m7sqjlt0m0000gn/T//ccw7TAzh.s 			page 13


 368 0144 ECE7     		b	.L13
 369              	.LVL59:
 370              	.L18:
 293:Drivers/CMSIS/DSP/Source/FilteringFunctions/arm_conv_partial_f32.c ****       {
 294:Drivers/CMSIS/DSP/Source/FilteringFunctions/arm_conv_partial_f32.c ****         /* Set all accumulators to zero */
 295:Drivers/CMSIS/DSP/Source/FilteringFunctions/arm_conv_partial_f32.c ****         acc0 = 0.0f;
 296:Drivers/CMSIS/DSP/Source/FilteringFunctions/arm_conv_partial_f32.c ****         acc1 = 0.0f;
 297:Drivers/CMSIS/DSP/Source/FilteringFunctions/arm_conv_partial_f32.c ****         acc2 = 0.0f;
 298:Drivers/CMSIS/DSP/Source/FilteringFunctions/arm_conv_partial_f32.c ****         acc3 = 0.0f;
 299:Drivers/CMSIS/DSP/Source/FilteringFunctions/arm_conv_partial_f32.c **** 
 300:Drivers/CMSIS/DSP/Source/FilteringFunctions/arm_conv_partial_f32.c ****         /* read x[0], x[1], x[2] samples */
 301:Drivers/CMSIS/DSP/Source/FilteringFunctions/arm_conv_partial_f32.c ****         x0 = *(px++);
 302:Drivers/CMSIS/DSP/Source/FilteringFunctions/arm_conv_partial_f32.c ****         x1 = *(px++);
 303:Drivers/CMSIS/DSP/Source/FilteringFunctions/arm_conv_partial_f32.c ****         x2 = *(px++);
 304:Drivers/CMSIS/DSP/Source/FilteringFunctions/arm_conv_partial_f32.c **** 
 305:Drivers/CMSIS/DSP/Source/FilteringFunctions/arm_conv_partial_f32.c ****         /* Apply loop unrolling and compute 4 MACs simultaneously. */
 306:Drivers/CMSIS/DSP/Source/FilteringFunctions/arm_conv_partial_f32.c ****         k = srcBLen >> 2U;
 307:Drivers/CMSIS/DSP/Source/FilteringFunctions/arm_conv_partial_f32.c **** 
 308:Drivers/CMSIS/DSP/Source/FilteringFunctions/arm_conv_partial_f32.c ****         /* First part of the processing with loop unrolling.  Compute 4 MACs at a time.
 309:Drivers/CMSIS/DSP/Source/FilteringFunctions/arm_conv_partial_f32.c ****          ** a second loop below computes MACs for the remaining 1 to 3 samples. */
 310:Drivers/CMSIS/DSP/Source/FilteringFunctions/arm_conv_partial_f32.c ****         do
 311:Drivers/CMSIS/DSP/Source/FilteringFunctions/arm_conv_partial_f32.c ****         {
 312:Drivers/CMSIS/DSP/Source/FilteringFunctions/arm_conv_partial_f32.c ****           /* Read y[srcBLen - 1] sample */
 313:Drivers/CMSIS/DSP/Source/FilteringFunctions/arm_conv_partial_f32.c ****           c0 = *(py--);
 314:Drivers/CMSIS/DSP/Source/FilteringFunctions/arm_conv_partial_f32.c **** 
 315:Drivers/CMSIS/DSP/Source/FilteringFunctions/arm_conv_partial_f32.c ****           /* Read x[3] sample */
 316:Drivers/CMSIS/DSP/Source/FilteringFunctions/arm_conv_partial_f32.c ****           x3 = *(px++);
 317:Drivers/CMSIS/DSP/Source/FilteringFunctions/arm_conv_partial_f32.c **** 
 318:Drivers/CMSIS/DSP/Source/FilteringFunctions/arm_conv_partial_f32.c ****           /* Perform the multiply-accumulate */
 319:Drivers/CMSIS/DSP/Source/FilteringFunctions/arm_conv_partial_f32.c ****           /* acc0 +=  x[0] * y[srcBLen - 1] */
 320:Drivers/CMSIS/DSP/Source/FilteringFunctions/arm_conv_partial_f32.c ****           acc0 += x0 * c0;
 321:Drivers/CMSIS/DSP/Source/FilteringFunctions/arm_conv_partial_f32.c **** 
 322:Drivers/CMSIS/DSP/Source/FilteringFunctions/arm_conv_partial_f32.c ****           /* acc1 +=  x[1] * y[srcBLen - 1] */
 323:Drivers/CMSIS/DSP/Source/FilteringFunctions/arm_conv_partial_f32.c ****           acc1 += x1 * c0;
 324:Drivers/CMSIS/DSP/Source/FilteringFunctions/arm_conv_partial_f32.c **** 
 325:Drivers/CMSIS/DSP/Source/FilteringFunctions/arm_conv_partial_f32.c ****           /* acc2 +=  x[2] * y[srcBLen - 1] */
 326:Drivers/CMSIS/DSP/Source/FilteringFunctions/arm_conv_partial_f32.c ****           acc2 += x2 * c0;
 327:Drivers/CMSIS/DSP/Source/FilteringFunctions/arm_conv_partial_f32.c **** 
 328:Drivers/CMSIS/DSP/Source/FilteringFunctions/arm_conv_partial_f32.c ****           /* acc3 +=  x[3] * y[srcBLen - 1] */
 329:Drivers/CMSIS/DSP/Source/FilteringFunctions/arm_conv_partial_f32.c ****           acc3 += x3 * c0;
 330:Drivers/CMSIS/DSP/Source/FilteringFunctions/arm_conv_partial_f32.c **** 
 331:Drivers/CMSIS/DSP/Source/FilteringFunctions/arm_conv_partial_f32.c ****           /* Read y[srcBLen - 2] sample */
 332:Drivers/CMSIS/DSP/Source/FilteringFunctions/arm_conv_partial_f32.c ****           c0 = *(py--);
 333:Drivers/CMSIS/DSP/Source/FilteringFunctions/arm_conv_partial_f32.c **** 
 334:Drivers/CMSIS/DSP/Source/FilteringFunctions/arm_conv_partial_f32.c ****           /* Read x[4] sample */
 335:Drivers/CMSIS/DSP/Source/FilteringFunctions/arm_conv_partial_f32.c ****           x0 = *(px++);
 336:Drivers/CMSIS/DSP/Source/FilteringFunctions/arm_conv_partial_f32.c **** 
 337:Drivers/CMSIS/DSP/Source/FilteringFunctions/arm_conv_partial_f32.c ****           /* Perform the multiply-accumulate */
 338:Drivers/CMSIS/DSP/Source/FilteringFunctions/arm_conv_partial_f32.c ****           /* acc0 +=  x[1] * y[srcBLen - 2] */
 339:Drivers/CMSIS/DSP/Source/FilteringFunctions/arm_conv_partial_f32.c ****           acc0 += x1 * c0;
 340:Drivers/CMSIS/DSP/Source/FilteringFunctions/arm_conv_partial_f32.c ****           /* acc1 +=  x[2] * y[srcBLen - 2] */
 341:Drivers/CMSIS/DSP/Source/FilteringFunctions/arm_conv_partial_f32.c ****           acc1 += x2 * c0;
 342:Drivers/CMSIS/DSP/Source/FilteringFunctions/arm_conv_partial_f32.c ****           /* acc2 +=  x[3] * y[srcBLen - 2] */
 343:Drivers/CMSIS/DSP/Source/FilteringFunctions/arm_conv_partial_f32.c ****           acc2 += x3 * c0;
 344:Drivers/CMSIS/DSP/Source/FilteringFunctions/arm_conv_partial_f32.c ****           /* acc3 +=  x[4] * y[srcBLen - 2] */
 345:Drivers/CMSIS/DSP/Source/FilteringFunctions/arm_conv_partial_f32.c ****           acc3 += x0 * c0;
 346:Drivers/CMSIS/DSP/Source/FilteringFunctions/arm_conv_partial_f32.c **** 
ARM GAS  /var/folders/n6/c271nzx11xl4r4_m7sqjlt0m0000gn/T//ccw7TAzh.s 			page 14


 347:Drivers/CMSIS/DSP/Source/FilteringFunctions/arm_conv_partial_f32.c ****           /* Read y[srcBLen - 3] sample */
 348:Drivers/CMSIS/DSP/Source/FilteringFunctions/arm_conv_partial_f32.c ****           c0 = *(py--);
 349:Drivers/CMSIS/DSP/Source/FilteringFunctions/arm_conv_partial_f32.c **** 
 350:Drivers/CMSIS/DSP/Source/FilteringFunctions/arm_conv_partial_f32.c ****           /* Read x[5] sample */
 351:Drivers/CMSIS/DSP/Source/FilteringFunctions/arm_conv_partial_f32.c ****           x1 = *(px++);
 352:Drivers/CMSIS/DSP/Source/FilteringFunctions/arm_conv_partial_f32.c **** 
 353:Drivers/CMSIS/DSP/Source/FilteringFunctions/arm_conv_partial_f32.c ****           /* Perform the multiply-accumulates */
 354:Drivers/CMSIS/DSP/Source/FilteringFunctions/arm_conv_partial_f32.c ****           /* acc0 +=  x[2] * y[srcBLen - 3] */
 355:Drivers/CMSIS/DSP/Source/FilteringFunctions/arm_conv_partial_f32.c ****           acc0 += x2 * c0;
 356:Drivers/CMSIS/DSP/Source/FilteringFunctions/arm_conv_partial_f32.c ****           /* acc1 +=  x[3] * y[srcBLen - 2] */
 357:Drivers/CMSIS/DSP/Source/FilteringFunctions/arm_conv_partial_f32.c ****           acc1 += x3 * c0;
 358:Drivers/CMSIS/DSP/Source/FilteringFunctions/arm_conv_partial_f32.c ****           /* acc2 +=  x[4] * y[srcBLen - 2] */
 359:Drivers/CMSIS/DSP/Source/FilteringFunctions/arm_conv_partial_f32.c ****           acc2 += x0 * c0;
 360:Drivers/CMSIS/DSP/Source/FilteringFunctions/arm_conv_partial_f32.c ****           /* acc3 +=  x[5] * y[srcBLen - 2] */
 361:Drivers/CMSIS/DSP/Source/FilteringFunctions/arm_conv_partial_f32.c ****           acc3 += x1 * c0;
 362:Drivers/CMSIS/DSP/Source/FilteringFunctions/arm_conv_partial_f32.c **** 
 363:Drivers/CMSIS/DSP/Source/FilteringFunctions/arm_conv_partial_f32.c ****           /* Read y[srcBLen - 4] sample */
 364:Drivers/CMSIS/DSP/Source/FilteringFunctions/arm_conv_partial_f32.c ****           c0 = *(py--);
 365:Drivers/CMSIS/DSP/Source/FilteringFunctions/arm_conv_partial_f32.c **** 
 366:Drivers/CMSIS/DSP/Source/FilteringFunctions/arm_conv_partial_f32.c ****           /* Read x[6] sample */
 367:Drivers/CMSIS/DSP/Source/FilteringFunctions/arm_conv_partial_f32.c ****           x2 = *(px++);
 368:Drivers/CMSIS/DSP/Source/FilteringFunctions/arm_conv_partial_f32.c **** 
 369:Drivers/CMSIS/DSP/Source/FilteringFunctions/arm_conv_partial_f32.c ****           /* Perform the multiply-accumulates */
 370:Drivers/CMSIS/DSP/Source/FilteringFunctions/arm_conv_partial_f32.c ****           /* acc0 +=  x[3] * y[srcBLen - 4] */
 371:Drivers/CMSIS/DSP/Source/FilteringFunctions/arm_conv_partial_f32.c ****           acc0 += x3 * c0;
 372:Drivers/CMSIS/DSP/Source/FilteringFunctions/arm_conv_partial_f32.c ****           /* acc1 +=  x[4] * y[srcBLen - 4] */
 373:Drivers/CMSIS/DSP/Source/FilteringFunctions/arm_conv_partial_f32.c ****           acc1 += x0 * c0;
 374:Drivers/CMSIS/DSP/Source/FilteringFunctions/arm_conv_partial_f32.c ****           /* acc2 +=  x[5] * y[srcBLen - 4] */
 375:Drivers/CMSIS/DSP/Source/FilteringFunctions/arm_conv_partial_f32.c ****           acc2 += x1 * c0;
 376:Drivers/CMSIS/DSP/Source/FilteringFunctions/arm_conv_partial_f32.c ****           /* acc3 +=  x[6] * y[srcBLen - 4] */
 377:Drivers/CMSIS/DSP/Source/FilteringFunctions/arm_conv_partial_f32.c ****           acc3 += x2 * c0;
 378:Drivers/CMSIS/DSP/Source/FilteringFunctions/arm_conv_partial_f32.c **** 
 379:Drivers/CMSIS/DSP/Source/FilteringFunctions/arm_conv_partial_f32.c **** 
 380:Drivers/CMSIS/DSP/Source/FilteringFunctions/arm_conv_partial_f32.c ****         } while (--k);
 381:Drivers/CMSIS/DSP/Source/FilteringFunctions/arm_conv_partial_f32.c **** 
 382:Drivers/CMSIS/DSP/Source/FilteringFunctions/arm_conv_partial_f32.c ****         /* If the srcBLen is not a multiple of 4, compute any remaining MACs here.
 383:Drivers/CMSIS/DSP/Source/FilteringFunctions/arm_conv_partial_f32.c ****          ** No loop unrolling is used. */
 384:Drivers/CMSIS/DSP/Source/FilteringFunctions/arm_conv_partial_f32.c ****         k = srcBLen % 0x4U;
 385:Drivers/CMSIS/DSP/Source/FilteringFunctions/arm_conv_partial_f32.c **** 
 386:Drivers/CMSIS/DSP/Source/FilteringFunctions/arm_conv_partial_f32.c ****         while (k > 0U)
 387:Drivers/CMSIS/DSP/Source/FilteringFunctions/arm_conv_partial_f32.c ****         {
 388:Drivers/CMSIS/DSP/Source/FilteringFunctions/arm_conv_partial_f32.c ****           /* Read y[srcBLen - 5] sample */
 389:Drivers/CMSIS/DSP/Source/FilteringFunctions/arm_conv_partial_f32.c ****           c0 = *(py--);
 371              		.loc 1 389 11 is_stmt 1 view .LVU139
 372              		.loc 1 389 14 is_stmt 0 view .LVU140
 373 0146 8646     		mov	lr, r0
 374 0148 0438     		subs	r0, r0, #4
 375              	.LVL60:
 376              		.loc 1 389 14 view .LVU141
 377 014a 9EED007A 		vldr.32	s14, [lr]
 378              	.LVL61:
 390:Drivers/CMSIS/DSP/Source/FilteringFunctions/arm_conv_partial_f32.c **** 
 391:Drivers/CMSIS/DSP/Source/FilteringFunctions/arm_conv_partial_f32.c ****           /* Read x[7] sample */
 392:Drivers/CMSIS/DSP/Source/FilteringFunctions/arm_conv_partial_f32.c ****           x3 = *(px++);
 379              		.loc 1 392 11 is_stmt 1 view .LVU142
 380              		.loc 1 392 14 is_stmt 0 view .LVU143
 381 014e F2EC013A 		vldmia.32	r2!, {s7}
ARM GAS  /var/folders/n6/c271nzx11xl4r4_m7sqjlt0m0000gn/T//ccw7TAzh.s 			page 15


 382              	.LVL62:
 393:Drivers/CMSIS/DSP/Source/FilteringFunctions/arm_conv_partial_f32.c **** 
 394:Drivers/CMSIS/DSP/Source/FilteringFunctions/arm_conv_partial_f32.c ****           /* Perform the multiply-accumulates */
 395:Drivers/CMSIS/DSP/Source/FilteringFunctions/arm_conv_partial_f32.c ****           /* acc0 +=  x[4] * y[srcBLen - 5] */
 396:Drivers/CMSIS/DSP/Source/FilteringFunctions/arm_conv_partial_f32.c ****           acc0 += x0 * c0;
 383              		.loc 1 396 11 is_stmt 1 view .LVU144
 384              		.loc 1 396 22 is_stmt 0 view .LVU145
 385 0152 26EE076A 		vmul.f32	s12, s12, s14
 386              	.LVL63:
 387              		.loc 1 396 16 view .LVU146
 388 0156 76EE866A 		vadd.f32	s13, s13, s12
 389              	.LVL64:
 397:Drivers/CMSIS/DSP/Source/FilteringFunctions/arm_conv_partial_f32.c ****           /* acc1 +=  x[5] * y[srcBLen - 5] */
 398:Drivers/CMSIS/DSP/Source/FilteringFunctions/arm_conv_partial_f32.c ****           acc1 += x1 * c0;
 390              		.loc 1 398 11 is_stmt 1 view .LVU147
 391              		.loc 1 398 22 is_stmt 0 view .LVU148
 392 015a 25EE876A 		vmul.f32	s12, s11, s14
 393              		.loc 1 398 16 view .LVU149
 394 015e 74EE864A 		vadd.f32	s9, s9, s12
 395              	.LVL65:
 399:Drivers/CMSIS/DSP/Source/FilteringFunctions/arm_conv_partial_f32.c ****           /* acc2 +=  x[6] * y[srcBLen - 5] */
 400:Drivers/CMSIS/DSP/Source/FilteringFunctions/arm_conv_partial_f32.c ****           acc2 += x2 * c0;
 396              		.loc 1 400 11 is_stmt 1 view .LVU150
 397              		.loc 1 400 22 is_stmt 0 view .LVU151
 398 0162 24EE076A 		vmul.f32	s12, s8, s14
 399              		.loc 1 400 16 view .LVU152
 400 0166 35EE065A 		vadd.f32	s10, s10, s12
 401              	.LVL66:
 401:Drivers/CMSIS/DSP/Source/FilteringFunctions/arm_conv_partial_f32.c ****           /* acc3 +=  x[7] * y[srcBLen - 5] */
 402:Drivers/CMSIS/DSP/Source/FilteringFunctions/arm_conv_partial_f32.c ****           acc3 += x3 * c0;
 402              		.loc 1 402 11 is_stmt 1 view .LVU153
 403              		.loc 1 402 22 is_stmt 0 view .LVU154
 404 016a 27EE237A 		vmul.f32	s14, s14, s7
 405              	.LVL67:
 406              		.loc 1 402 16 view .LVU155
 407 016e 77EE877A 		vadd.f32	s15, s15, s14
 408              	.LVL68:
 403:Drivers/CMSIS/DSP/Source/FilteringFunctions/arm_conv_partial_f32.c **** 
 404:Drivers/CMSIS/DSP/Source/FilteringFunctions/arm_conv_partial_f32.c ****           /* Reuse the present samples for the next MAC */
 405:Drivers/CMSIS/DSP/Source/FilteringFunctions/arm_conv_partial_f32.c ****           x0 = x1;
 409              		.loc 1 405 11 is_stmt 1 view .LVU156
 406:Drivers/CMSIS/DSP/Source/FilteringFunctions/arm_conv_partial_f32.c ****           x1 = x2;
 410              		.loc 1 406 11 view .LVU157
 407:Drivers/CMSIS/DSP/Source/FilteringFunctions/arm_conv_partial_f32.c ****           x2 = x3;
 411              		.loc 1 407 11 view .LVU158
 408:Drivers/CMSIS/DSP/Source/FilteringFunctions/arm_conv_partial_f32.c **** 
 409:Drivers/CMSIS/DSP/Source/FilteringFunctions/arm_conv_partial_f32.c ****           /* Decrement the loop counter */
 410:Drivers/CMSIS/DSP/Source/FilteringFunctions/arm_conv_partial_f32.c ****           k--;
 412              		.loc 1 410 11 view .LVU159
 413              		.loc 1 410 12 is_stmt 0 view .LVU160
 414 0172 013D     		subs	r5, r5, #1
 415              	.LVL69:
 405:Drivers/CMSIS/DSP/Source/FilteringFunctions/arm_conv_partial_f32.c ****           x1 = x2;
 416              		.loc 1 405 14 view .LVU161
 417 0174 B0EE656A 		vmov.f32	s12, s11
 406:Drivers/CMSIS/DSP/Source/FilteringFunctions/arm_conv_partial_f32.c ****           x2 = x3;
 418              		.loc 1 406 14 view .LVU162
ARM GAS  /var/folders/n6/c271nzx11xl4r4_m7sqjlt0m0000gn/T//ccw7TAzh.s 			page 16


 419 0178 F0EE445A 		vmov.f32	s11, s8
 420              	.LVL70:
 407:Drivers/CMSIS/DSP/Source/FilteringFunctions/arm_conv_partial_f32.c **** 
 421              		.loc 1 407 14 view .LVU163
 422 017c B0EE634A 		vmov.f32	s8, s7
 423              	.LVL71:
 424              	.L17:
 386:Drivers/CMSIS/DSP/Source/FilteringFunctions/arm_conv_partial_f32.c ****         {
 425              		.loc 1 386 18 is_stmt 1 view .LVU164
 426 0180 002D     		cmp	r5, #0
 427 0182 E0D1     		bne	.L18
 411:Drivers/CMSIS/DSP/Source/FilteringFunctions/arm_conv_partial_f32.c ****         }
 412:Drivers/CMSIS/DSP/Source/FilteringFunctions/arm_conv_partial_f32.c **** 
 413:Drivers/CMSIS/DSP/Source/FilteringFunctions/arm_conv_partial_f32.c ****         /* Store the result in the accumulator in the destination buffer. */
 414:Drivers/CMSIS/DSP/Source/FilteringFunctions/arm_conv_partial_f32.c ****         *pOut++ = acc0;
 428              		.loc 1 414 9 view .LVU165
 429              	.LVL72:
 430              		.loc 1 414 17 is_stmt 0 view .LVU166
 431 0184 C3ED006A 		vstr.32	s13, [r3]
 415:Drivers/CMSIS/DSP/Source/FilteringFunctions/arm_conv_partial_f32.c ****         *pOut++ = acc1;
 432              		.loc 1 415 9 is_stmt 1 view .LVU167
 433              	.LVL73:
 434              		.loc 1 415 17 is_stmt 0 view .LVU168
 435 0188 C3ED014A 		vstr.32	s9, [r3, #4]
 416:Drivers/CMSIS/DSP/Source/FilteringFunctions/arm_conv_partial_f32.c ****         *pOut++ = acc2;
 436              		.loc 1 416 9 is_stmt 1 view .LVU169
 437              	.LVL74:
 438              		.loc 1 416 17 is_stmt 0 view .LVU170
 439 018c 83ED025A 		vstr.32	s10, [r3, #8]
 417:Drivers/CMSIS/DSP/Source/FilteringFunctions/arm_conv_partial_f32.c ****         *pOut++ = acc3;
 440              		.loc 1 417 9 is_stmt 1 view .LVU171
 441              		.loc 1 417 14 is_stmt 0 view .LVU172
 442 0190 03F11002 		add	r2, r3, #16
 443              	.LVL75:
 444              		.loc 1 417 17 view .LVU173
 445 0194 C3ED037A 		vstr.32	s15, [r3, #12]
 418:Drivers/CMSIS/DSP/Source/FilteringFunctions/arm_conv_partial_f32.c **** 
 419:Drivers/CMSIS/DSP/Source/FilteringFunctions/arm_conv_partial_f32.c ****         /* Increment the pointer pIn1 index, count by 1 */
 420:Drivers/CMSIS/DSP/Source/FilteringFunctions/arm_conv_partial_f32.c ****         count += 4U;
 446              		.loc 1 420 9 is_stmt 1 view .LVU174
 447              		.loc 1 420 15 is_stmt 0 view .LVU175
 448 0198 0436     		adds	r6, r6, #4
 449              	.LVL76:
 421:Drivers/CMSIS/DSP/Source/FilteringFunctions/arm_conv_partial_f32.c **** 
 422:Drivers/CMSIS/DSP/Source/FilteringFunctions/arm_conv_partial_f32.c ****         /* Update the inputA and inputB pointers for next MAC calculation */
 423:Drivers/CMSIS/DSP/Source/FilteringFunctions/arm_conv_partial_f32.c ****         if ((int32_t)firstIndex - (int32_t)srcBLen + 1 > 0)
 450              		.loc 1 423 9 is_stmt 1 view .LVU176
 451              		.loc 1 423 12 is_stmt 0 view .LVU177
 452 019a B8F1000F 		cmp	r8, #0
 453 019e 75DB     		blt	.L19
 424:Drivers/CMSIS/DSP/Source/FilteringFunctions/arm_conv_partial_f32.c ****         {
 425:Drivers/CMSIS/DSP/Source/FilteringFunctions/arm_conv_partial_f32.c ****           px = pIn1 + firstIndex - srcBLen + 1 + count;
 454              		.loc 1 425 11 is_stmt 1 view .LVU178
 455              		.loc 1 425 34 is_stmt 0 view .LVU179
 456 01a0 A7EB040E 		sub	lr, r7, r4
 457              		.loc 1 425 48 view .LVU180
 458 01a4 B644     		add	lr, lr, r6
ARM GAS  /var/folders/n6/c271nzx11xl4r4_m7sqjlt0m0000gn/T//ccw7TAzh.s 			page 17


 459 01a6 0EF1010E 		add	lr, lr, #1
 460              		.loc 1 425 14 view .LVU181
 461 01aa 09EB8E0E 		add	lr, r9, lr, lsl #2
 462              	.LVL77:
 463              	.L20:
 426:Drivers/CMSIS/DSP/Source/FilteringFunctions/arm_conv_partial_f32.c ****         }
 427:Drivers/CMSIS/DSP/Source/FilteringFunctions/arm_conv_partial_f32.c ****         else
 428:Drivers/CMSIS/DSP/Source/FilteringFunctions/arm_conv_partial_f32.c ****         {
 429:Drivers/CMSIS/DSP/Source/FilteringFunctions/arm_conv_partial_f32.c ****           px = pIn1 + count;
 430:Drivers/CMSIS/DSP/Source/FilteringFunctions/arm_conv_partial_f32.c ****         }
 431:Drivers/CMSIS/DSP/Source/FilteringFunctions/arm_conv_partial_f32.c ****         py = pSrc2;
 464              		.loc 1 431 9 is_stmt 1 view .LVU182
 432:Drivers/CMSIS/DSP/Source/FilteringFunctions/arm_conv_partial_f32.c **** 
 433:Drivers/CMSIS/DSP/Source/FilteringFunctions/arm_conv_partial_f32.c ****         /* Decrement the loop counter */
 434:Drivers/CMSIS/DSP/Source/FilteringFunctions/arm_conv_partial_f32.c ****         blkCnt--;
 465              		.loc 1 434 9 view .LVU183
 466              		.loc 1 434 15 is_stmt 0 view .LVU184
 467 01ae 0139     		subs	r1, r1, #1
 468              	.LVL78:
 417:Drivers/CMSIS/DSP/Source/FilteringFunctions/arm_conv_partial_f32.c **** 
 469              		.loc 1 417 14 view .LVU185
 470 01b0 1346     		mov	r3, r2
 471              	.LVL79:
 472              	.L15:
 292:Drivers/CMSIS/DSP/Source/FilteringFunctions/arm_conv_partial_f32.c ****       {
 473              		.loc 1 292 21 is_stmt 1 view .LVU186
 474 01b2 0029     		cmp	r1, #0
 475 01b4 6DD0     		beq	.L49
 295:Drivers/CMSIS/DSP/Source/FilteringFunctions/arm_conv_partial_f32.c ****         acc1 = 0.0f;
 476              		.loc 1 295 9 view .LVU187
 477              	.LVL80:
 296:Drivers/CMSIS/DSP/Source/FilteringFunctions/arm_conv_partial_f32.c ****         acc2 = 0.0f;
 478              		.loc 1 296 9 view .LVU188
 297:Drivers/CMSIS/DSP/Source/FilteringFunctions/arm_conv_partial_f32.c ****         acc3 = 0.0f;
 479              		.loc 1 297 9 view .LVU189
 298:Drivers/CMSIS/DSP/Source/FilteringFunctions/arm_conv_partial_f32.c **** 
 480              		.loc 1 298 9 view .LVU190
 301:Drivers/CMSIS/DSP/Source/FilteringFunctions/arm_conv_partial_f32.c ****         x1 = *(px++);
 481              		.loc 1 301 9 view .LVU191
 301:Drivers/CMSIS/DSP/Source/FilteringFunctions/arm_conv_partial_f32.c ****         x1 = *(px++);
 482              		.loc 1 301 12 is_stmt 0 view .LVU192
 483 01b6 9EED006A 		vldr.32	s12, [lr]
 484              	.LVL81:
 302:Drivers/CMSIS/DSP/Source/FilteringFunctions/arm_conv_partial_f32.c ****         x2 = *(px++);
 485              		.loc 1 302 9 is_stmt 1 view .LVU193
 302:Drivers/CMSIS/DSP/Source/FilteringFunctions/arm_conv_partial_f32.c ****         x2 = *(px++);
 486              		.loc 1 302 12 is_stmt 0 view .LVU194
 487 01ba DEED015A 		vldr.32	s11, [lr, #4]
 488              	.LVL82:
 303:Drivers/CMSIS/DSP/Source/FilteringFunctions/arm_conv_partial_f32.c **** 
 489              		.loc 1 303 9 is_stmt 1 view .LVU195
 303:Drivers/CMSIS/DSP/Source/FilteringFunctions/arm_conv_partial_f32.c **** 
 490              		.loc 1 303 18 is_stmt 0 view .LVU196
 491 01be 0EF10C02 		add	r2, lr, #12
 492              	.LVL83:
 303:Drivers/CMSIS/DSP/Source/FilteringFunctions/arm_conv_partial_f32.c **** 
 493              		.loc 1 303 12 view .LVU197
ARM GAS  /var/folders/n6/c271nzx11xl4r4_m7sqjlt0m0000gn/T//ccw7TAzh.s 			page 18


 494 01c2 9EED024A 		vldr.32	s8, [lr, #8]
 495              	.LVL84:
 306:Drivers/CMSIS/DSP/Source/FilteringFunctions/arm_conv_partial_f32.c **** 
 496              		.loc 1 306 9 is_stmt 1 view .LVU198
 306:Drivers/CMSIS/DSP/Source/FilteringFunctions/arm_conv_partial_f32.c **** 
 497              		.loc 1 306 11 is_stmt 0 view .LVU199
 498 01c6 4FEA940B 		lsr	fp, r4, #2
 499              	.LVL85:
 306:Drivers/CMSIS/DSP/Source/FilteringFunctions/arm_conv_partial_f32.c **** 
 500              		.loc 1 306 11 view .LVU200
 501 01ca 0098     		ldr	r0, [sp]
 298:Drivers/CMSIS/DSP/Source/FilteringFunctions/arm_conv_partial_f32.c **** 
 502              		.loc 1 298 14 view .LVU201
 503 01cc DFED9A7A 		vldr.32	s15, .L52
 297:Drivers/CMSIS/DSP/Source/FilteringFunctions/arm_conv_partial_f32.c ****         acc3 = 0.0f;
 504              		.loc 1 297 14 view .LVU202
 505 01d0 B0EE675A 		vmov.f32	s10, s15
 296:Drivers/CMSIS/DSP/Source/FilteringFunctions/arm_conv_partial_f32.c ****         acc2 = 0.0f;
 506              		.loc 1 296 14 view .LVU203
 507 01d4 F0EE674A 		vmov.f32	s9, s15
 295:Drivers/CMSIS/DSP/Source/FilteringFunctions/arm_conv_partial_f32.c ****         acc1 = 0.0f;
 508              		.loc 1 295 14 view .LVU204
 509 01d8 F0EE676A 		vmov.f32	s13, s15
 510              	.LVL86:
 511              	.L16:
 310:Drivers/CMSIS/DSP/Source/FilteringFunctions/arm_conv_partial_f32.c ****         {
 512              		.loc 1 310 9 is_stmt 1 view .LVU205
 313:Drivers/CMSIS/DSP/Source/FilteringFunctions/arm_conv_partial_f32.c **** 
 513              		.loc 1 313 11 view .LVU206
 313:Drivers/CMSIS/DSP/Source/FilteringFunctions/arm_conv_partial_f32.c **** 
 514              		.loc 1 313 14 is_stmt 0 view .LVU207
 515 01dc 90ED007A 		vldr.32	s14, [r0]
 516              	.LVL87:
 316:Drivers/CMSIS/DSP/Source/FilteringFunctions/arm_conv_partial_f32.c **** 
 517              		.loc 1 316 11 is_stmt 1 view .LVU208
 316:Drivers/CMSIS/DSP/Source/FilteringFunctions/arm_conv_partial_f32.c **** 
 518              		.loc 1 316 14 is_stmt 0 view .LVU209
 519 01e0 D2ED003A 		vldr.32	s7, [r2]
 520              	.LVL88:
 320:Drivers/CMSIS/DSP/Source/FilteringFunctions/arm_conv_partial_f32.c **** 
 521              		.loc 1 320 11 is_stmt 1 view .LVU210
 320:Drivers/CMSIS/DSP/Source/FilteringFunctions/arm_conv_partial_f32.c **** 
 522              		.loc 1 320 22 is_stmt 0 view .LVU211
 523 01e4 26EE076A 		vmul.f32	s12, s12, s14
 524              	.LVL89:
 320:Drivers/CMSIS/DSP/Source/FilteringFunctions/arm_conv_partial_f32.c **** 
 525              		.loc 1 320 16 view .LVU212
 526 01e8 76EE266A 		vadd.f32	s13, s12, s13
 527              	.LVL90:
 323:Drivers/CMSIS/DSP/Source/FilteringFunctions/arm_conv_partial_f32.c **** 
 528              		.loc 1 323 11 is_stmt 1 view .LVU213
 323:Drivers/CMSIS/DSP/Source/FilteringFunctions/arm_conv_partial_f32.c **** 
 529              		.loc 1 323 22 is_stmt 0 view .LVU214
 530 01ec 25EE876A 		vmul.f32	s12, s11, s14
 323:Drivers/CMSIS/DSP/Source/FilteringFunctions/arm_conv_partial_f32.c **** 
 531              		.loc 1 323 16 view .LVU215
 532 01f0 76EE244A 		vadd.f32	s9, s12, s9
ARM GAS  /var/folders/n6/c271nzx11xl4r4_m7sqjlt0m0000gn/T//ccw7TAzh.s 			page 19


 533              	.LVL91:
 326:Drivers/CMSIS/DSP/Source/FilteringFunctions/arm_conv_partial_f32.c **** 
 534              		.loc 1 326 11 is_stmt 1 view .LVU216
 326:Drivers/CMSIS/DSP/Source/FilteringFunctions/arm_conv_partial_f32.c **** 
 535              		.loc 1 326 22 is_stmt 0 view .LVU217
 536 01f4 24EE076A 		vmul.f32	s12, s8, s14
 326:Drivers/CMSIS/DSP/Source/FilteringFunctions/arm_conv_partial_f32.c **** 
 537              		.loc 1 326 16 view .LVU218
 538 01f8 36EE055A 		vadd.f32	s10, s12, s10
 539              	.LVL92:
 329:Drivers/CMSIS/DSP/Source/FilteringFunctions/arm_conv_partial_f32.c **** 
 540              		.loc 1 329 11 is_stmt 1 view .LVU219
 329:Drivers/CMSIS/DSP/Source/FilteringFunctions/arm_conv_partial_f32.c **** 
 541              		.loc 1 329 22 is_stmt 0 view .LVU220
 542 01fc 27EE237A 		vmul.f32	s14, s14, s7
 543              	.LVL93:
 329:Drivers/CMSIS/DSP/Source/FilteringFunctions/arm_conv_partial_f32.c **** 
 544              		.loc 1 329 16 view .LVU221
 545 0200 77EE277A 		vadd.f32	s15, s14, s15
 546              	.LVL94:
 332:Drivers/CMSIS/DSP/Source/FilteringFunctions/arm_conv_partial_f32.c **** 
 547              		.loc 1 332 11 is_stmt 1 view .LVU222
 332:Drivers/CMSIS/DSP/Source/FilteringFunctions/arm_conv_partial_f32.c **** 
 548              		.loc 1 332 14 is_stmt 0 view .LVU223
 549 0204 10ED017A 		vldr.32	s14, [r0, #-4]
 550              	.LVL95:
 335:Drivers/CMSIS/DSP/Source/FilteringFunctions/arm_conv_partial_f32.c **** 
 551              		.loc 1 335 11 is_stmt 1 view .LVU224
 335:Drivers/CMSIS/DSP/Source/FilteringFunctions/arm_conv_partial_f32.c **** 
 552              		.loc 1 335 14 is_stmt 0 view .LVU225
 553 0208 92ED016A 		vldr.32	s12, [r2, #4]
 554              	.LVL96:
 339:Drivers/CMSIS/DSP/Source/FilteringFunctions/arm_conv_partial_f32.c ****           /* acc1 +=  x[2] * y[srcBLen - 2] */
 555              		.loc 1 339 11 is_stmt 1 view .LVU226
 339:Drivers/CMSIS/DSP/Source/FilteringFunctions/arm_conv_partial_f32.c ****           /* acc1 +=  x[2] * y[srcBLen - 2] */
 556              		.loc 1 339 22 is_stmt 0 view .LVU227
 557 020c 65EE875A 		vmul.f32	s11, s11, s14
 558              	.LVL97:
 339:Drivers/CMSIS/DSP/Source/FilteringFunctions/arm_conv_partial_f32.c ****           /* acc1 +=  x[2] * y[srcBLen - 2] */
 559              		.loc 1 339 16 view .LVU228
 560 0210 75EEA62A 		vadd.f32	s5, s11, s13
 561              	.LVL98:
 341:Drivers/CMSIS/DSP/Source/FilteringFunctions/arm_conv_partial_f32.c ****           /* acc2 +=  x[3] * y[srcBLen - 2] */
 562              		.loc 1 341 11 is_stmt 1 view .LVU229
 341:Drivers/CMSIS/DSP/Source/FilteringFunctions/arm_conv_partial_f32.c ****           /* acc2 +=  x[3] * y[srcBLen - 2] */
 563              		.loc 1 341 22 is_stmt 0 view .LVU230
 564 0214 24EE073A 		vmul.f32	s6, s8, s14
 341:Drivers/CMSIS/DSP/Source/FilteringFunctions/arm_conv_partial_f32.c ****           /* acc2 +=  x[3] * y[srcBLen - 2] */
 565              		.loc 1 341 16 view .LVU231
 566 0218 33EE243A 		vadd.f32	s6, s6, s9
 567              	.LVL99:
 343:Drivers/CMSIS/DSP/Source/FilteringFunctions/arm_conv_partial_f32.c ****           /* acc3 +=  x[4] * y[srcBLen - 2] */
 568              		.loc 1 343 11 is_stmt 1 view .LVU232
 343:Drivers/CMSIS/DSP/Source/FilteringFunctions/arm_conv_partial_f32.c ****           /* acc3 +=  x[4] * y[srcBLen - 2] */
 569              		.loc 1 343 22 is_stmt 0 view .LVU233
 570 021c 63EE874A 		vmul.f32	s9, s7, s14
 343:Drivers/CMSIS/DSP/Source/FilteringFunctions/arm_conv_partial_f32.c ****           /* acc3 +=  x[4] * y[srcBLen - 2] */
ARM GAS  /var/folders/n6/c271nzx11xl4r4_m7sqjlt0m0000gn/T//ccw7TAzh.s 			page 20


 571              		.loc 1 343 16 view .LVU234
 572 0220 74EE854A 		vadd.f32	s9, s9, s10
 573              	.LVL100:
 345:Drivers/CMSIS/DSP/Source/FilteringFunctions/arm_conv_partial_f32.c **** 
 574              		.loc 1 345 11 is_stmt 1 view .LVU235
 345:Drivers/CMSIS/DSP/Source/FilteringFunctions/arm_conv_partial_f32.c **** 
 575              		.loc 1 345 22 is_stmt 0 view .LVU236
 576 0224 27EE067A 		vmul.f32	s14, s14, s12
 577              	.LVL101:
 345:Drivers/CMSIS/DSP/Source/FilteringFunctions/arm_conv_partial_f32.c **** 
 578              		.loc 1 345 16 view .LVU237
 579 0228 37EE277A 		vadd.f32	s14, s14, s15
 580              	.LVL102:
 348:Drivers/CMSIS/DSP/Source/FilteringFunctions/arm_conv_partial_f32.c **** 
 581              		.loc 1 348 11 is_stmt 1 view .LVU238
 348:Drivers/CMSIS/DSP/Source/FilteringFunctions/arm_conv_partial_f32.c **** 
 582              		.loc 1 348 14 is_stmt 0 view .LVU239
 583 022c 50ED027A 		vldr.32	s15, [r0, #-8]
 584              	.LVL103:
 351:Drivers/CMSIS/DSP/Source/FilteringFunctions/arm_conv_partial_f32.c **** 
 585              		.loc 1 351 11 is_stmt 1 view .LVU240
 351:Drivers/CMSIS/DSP/Source/FilteringFunctions/arm_conv_partial_f32.c **** 
 586              		.loc 1 351 14 is_stmt 0 view .LVU241
 587 0230 D2ED025A 		vldr.32	s11, [r2, #8]
 588              	.LVL104:
 355:Drivers/CMSIS/DSP/Source/FilteringFunctions/arm_conv_partial_f32.c ****           /* acc1 +=  x[3] * y[srcBLen - 2] */
 589              		.loc 1 355 11 is_stmt 1 view .LVU242
 355:Drivers/CMSIS/DSP/Source/FilteringFunctions/arm_conv_partial_f32.c ****           /* acc1 +=  x[3] * y[srcBLen - 2] */
 590              		.loc 1 355 22 is_stmt 0 view .LVU243
 591 0234 64EE276A 		vmul.f32	s13, s8, s15
 355:Drivers/CMSIS/DSP/Source/FilteringFunctions/arm_conv_partial_f32.c ****           /* acc1 +=  x[3] * y[srcBLen - 2] */
 592              		.loc 1 355 16 view .LVU244
 593 0238 76EEA26A 		vadd.f32	s13, s13, s5
 594              	.LVL105:
 357:Drivers/CMSIS/DSP/Source/FilteringFunctions/arm_conv_partial_f32.c ****           /* acc2 +=  x[4] * y[srcBLen - 2] */
 595              		.loc 1 357 11 is_stmt 1 view .LVU245
 357:Drivers/CMSIS/DSP/Source/FilteringFunctions/arm_conv_partial_f32.c ****           /* acc2 +=  x[4] * y[srcBLen - 2] */
 596              		.loc 1 357 22 is_stmt 0 view .LVU246
 597 023c 23EEA75A 		vmul.f32	s10, s7, s15
 357:Drivers/CMSIS/DSP/Source/FilteringFunctions/arm_conv_partial_f32.c ****           /* acc2 +=  x[4] * y[srcBLen - 2] */
 598              		.loc 1 357 16 view .LVU247
 599 0240 35EE035A 		vadd.f32	s10, s10, s6
 600              	.LVL106:
 359:Drivers/CMSIS/DSP/Source/FilteringFunctions/arm_conv_partial_f32.c ****           /* acc3 +=  x[5] * y[srcBLen - 2] */
 601              		.loc 1 359 11 is_stmt 1 view .LVU248
 359:Drivers/CMSIS/DSP/Source/FilteringFunctions/arm_conv_partial_f32.c ****           /* acc3 +=  x[5] * y[srcBLen - 2] */
 602              		.loc 1 359 22 is_stmt 0 view .LVU249
 603 0244 26EE273A 		vmul.f32	s6, s12, s15
 359:Drivers/CMSIS/DSP/Source/FilteringFunctions/arm_conv_partial_f32.c ****           /* acc3 +=  x[5] * y[srcBLen - 2] */
 604              		.loc 1 359 16 view .LVU250
 605 0248 33EE243A 		vadd.f32	s6, s6, s9
 606              	.LVL107:
 361:Drivers/CMSIS/DSP/Source/FilteringFunctions/arm_conv_partial_f32.c **** 
 607              		.loc 1 361 11 is_stmt 1 view .LVU251
 361:Drivers/CMSIS/DSP/Source/FilteringFunctions/arm_conv_partial_f32.c **** 
 608              		.loc 1 361 22 is_stmt 0 view .LVU252
 609 024c 67EEA57A 		vmul.f32	s15, s15, s11
ARM GAS  /var/folders/n6/c271nzx11xl4r4_m7sqjlt0m0000gn/T//ccw7TAzh.s 			page 21


 610              	.LVL108:
 361:Drivers/CMSIS/DSP/Source/FilteringFunctions/arm_conv_partial_f32.c **** 
 611              		.loc 1 361 16 view .LVU253
 612 0250 37EE877A 		vadd.f32	s14, s15, s14
 613              	.LVL109:
 364:Drivers/CMSIS/DSP/Source/FilteringFunctions/arm_conv_partial_f32.c **** 
 614              		.loc 1 364 11 is_stmt 1 view .LVU254
 364:Drivers/CMSIS/DSP/Source/FilteringFunctions/arm_conv_partial_f32.c **** 
 615              		.loc 1 364 14 is_stmt 0 view .LVU255
 616 0254 50ED037A 		vldr.32	s15, [r0, #-12]
 617 0258 1038     		subs	r0, r0, #16
 618              	.LVL110:
 367:Drivers/CMSIS/DSP/Source/FilteringFunctions/arm_conv_partial_f32.c **** 
 619              		.loc 1 367 11 is_stmt 1 view .LVU256
 367:Drivers/CMSIS/DSP/Source/FilteringFunctions/arm_conv_partial_f32.c **** 
 620              		.loc 1 367 14 is_stmt 0 view .LVU257
 621 025a 92ED034A 		vldr.32	s8, [r2, #12]
 622              	.LVL111:
 367:Drivers/CMSIS/DSP/Source/FilteringFunctions/arm_conv_partial_f32.c **** 
 623              		.loc 1 367 14 view .LVU258
 624 025e 1032     		adds	r2, r2, #16
 625              	.LVL112:
 371:Drivers/CMSIS/DSP/Source/FilteringFunctions/arm_conv_partial_f32.c ****           /* acc1 +=  x[4] * y[srcBLen - 4] */
 626              		.loc 1 371 11 is_stmt 1 view .LVU259
 371:Drivers/CMSIS/DSP/Source/FilteringFunctions/arm_conv_partial_f32.c ****           /* acc1 +=  x[4] * y[srcBLen - 4] */
 627              		.loc 1 371 22 is_stmt 0 view .LVU260
 628 0260 63EEA73A 		vmul.f32	s7, s7, s15
 629              	.LVL113:
 371:Drivers/CMSIS/DSP/Source/FilteringFunctions/arm_conv_partial_f32.c ****           /* acc1 +=  x[4] * y[srcBLen - 4] */
 630              		.loc 1 371 16 view .LVU261
 631 0264 73EEA66A 		vadd.f32	s13, s7, s13
 632              	.LVL114:
 373:Drivers/CMSIS/DSP/Source/FilteringFunctions/arm_conv_partial_f32.c ****           /* acc2 +=  x[5] * y[srcBLen - 4] */
 633              		.loc 1 373 11 is_stmt 1 view .LVU262
 373:Drivers/CMSIS/DSP/Source/FilteringFunctions/arm_conv_partial_f32.c ****           /* acc2 +=  x[5] * y[srcBLen - 4] */
 634              		.loc 1 373 22 is_stmt 0 view .LVU263
 635 0268 66EE274A 		vmul.f32	s9, s12, s15
 373:Drivers/CMSIS/DSP/Source/FilteringFunctions/arm_conv_partial_f32.c ****           /* acc2 +=  x[5] * y[srcBLen - 4] */
 636              		.loc 1 373 16 view .LVU264
 637 026c 74EE854A 		vadd.f32	s9, s9, s10
 638              	.LVL115:
 375:Drivers/CMSIS/DSP/Source/FilteringFunctions/arm_conv_partial_f32.c ****           /* acc3 +=  x[6] * y[srcBLen - 4] */
 639              		.loc 1 375 11 is_stmt 1 view .LVU265
 375:Drivers/CMSIS/DSP/Source/FilteringFunctions/arm_conv_partial_f32.c ****           /* acc3 +=  x[6] * y[srcBLen - 4] */
 640              		.loc 1 375 22 is_stmt 0 view .LVU266
 641 0270 25EEA75A 		vmul.f32	s10, s11, s15
 375:Drivers/CMSIS/DSP/Source/FilteringFunctions/arm_conv_partial_f32.c ****           /* acc3 +=  x[6] * y[srcBLen - 4] */
 642              		.loc 1 375 16 view .LVU267
 643 0274 35EE035A 		vadd.f32	s10, s10, s6
 644              	.LVL116:
 377:Drivers/CMSIS/DSP/Source/FilteringFunctions/arm_conv_partial_f32.c **** 
 645              		.loc 1 377 11 is_stmt 1 view .LVU268
 377:Drivers/CMSIS/DSP/Source/FilteringFunctions/arm_conv_partial_f32.c **** 
 646              		.loc 1 377 22 is_stmt 0 view .LVU269
 647 0278 67EE847A 		vmul.f32	s15, s15, s8
 648              	.LVL117:
 377:Drivers/CMSIS/DSP/Source/FilteringFunctions/arm_conv_partial_f32.c **** 
ARM GAS  /var/folders/n6/c271nzx11xl4r4_m7sqjlt0m0000gn/T//ccw7TAzh.s 			page 22


 649              		.loc 1 377 16 view .LVU270
 650 027c 77EE877A 		vadd.f32	s15, s15, s14
 651              	.LVL118:
 380:Drivers/CMSIS/DSP/Source/FilteringFunctions/arm_conv_partial_f32.c **** 
 652              		.loc 1 380 18 is_stmt 1 discriminator 1 view .LVU271
 380:Drivers/CMSIS/DSP/Source/FilteringFunctions/arm_conv_partial_f32.c **** 
 653              		.loc 1 380 18 is_stmt 0 discriminator 1 view .LVU272
 654 0280 BBF1010B 		subs	fp, fp, #1
 655              	.LVL119:
 380:Drivers/CMSIS/DSP/Source/FilteringFunctions/arm_conv_partial_f32.c **** 
 656              		.loc 1 380 18 discriminator 1 view .LVU273
 657 0284 AAD1     		bne	.L16
 384:Drivers/CMSIS/DSP/Source/FilteringFunctions/arm_conv_partial_f32.c **** 
 658              		.loc 1 384 9 is_stmt 1 view .LVU274
 384:Drivers/CMSIS/DSP/Source/FilteringFunctions/arm_conv_partial_f32.c **** 
 659              		.loc 1 384 11 is_stmt 0 view .LVU275
 660 0286 04F00305 		and	r5, r4, #3
 661              	.LVL120:
 386:Drivers/CMSIS/DSP/Source/FilteringFunctions/arm_conv_partial_f32.c ****         {
 662              		.loc 1 386 9 is_stmt 1 view .LVU276
 386:Drivers/CMSIS/DSP/Source/FilteringFunctions/arm_conv_partial_f32.c ****         {
 663              		.loc 1 386 15 is_stmt 0 view .LVU277
 664 028a 79E7     		b	.L17
 665              	.LVL121:
 666              	.L19:
 429:Drivers/CMSIS/DSP/Source/FilteringFunctions/arm_conv_partial_f32.c ****         }
 667              		.loc 1 429 11 is_stmt 1 view .LVU278
 429:Drivers/CMSIS/DSP/Source/FilteringFunctions/arm_conv_partial_f32.c ****         }
 668              		.loc 1 429 14 is_stmt 0 view .LVU279
 669 028c 09EB860E 		add	lr, r9, r6, lsl #2
 670              	.LVL122:
 429:Drivers/CMSIS/DSP/Source/FilteringFunctions/arm_conv_partial_f32.c ****         }
 671              		.loc 1 429 14 view .LVU280
 672 0290 8DE7     		b	.L20
 673              	.LVL123:
 674              	.L49:
 435:Drivers/CMSIS/DSP/Source/FilteringFunctions/arm_conv_partial_f32.c ****       }
 436:Drivers/CMSIS/DSP/Source/FilteringFunctions/arm_conv_partial_f32.c **** 
 437:Drivers/CMSIS/DSP/Source/FilteringFunctions/arm_conv_partial_f32.c ****       /* If the blockSize2 is not a multiple of 4, compute any remaining output samples here.
 438:Drivers/CMSIS/DSP/Source/FilteringFunctions/arm_conv_partial_f32.c ****        ** No loop unrolling is used. */
 439:Drivers/CMSIS/DSP/Source/FilteringFunctions/arm_conv_partial_f32.c ****       blkCnt = (uint32_t) blockSize2 % 0x4U;
 675              		.loc 1 439 14 view .LVU281
 676 0292 019A     		ldr	r2, [sp, #4]
 677 0294 009D     		ldr	r5, [sp]
 678 0296 4946     		mov	r1, r9
 679              	.LVL124:
 680              		.loc 1 439 7 is_stmt 1 view .LVU282
 681              		.loc 1 439 14 is_stmt 0 view .LVU283
 682 0298 0CF0030C 		and	ip, ip, #3
 683              	.LVL125:
 440:Drivers/CMSIS/DSP/Source/FilteringFunctions/arm_conv_partial_f32.c **** 
 441:Drivers/CMSIS/DSP/Source/FilteringFunctions/arm_conv_partial_f32.c ****       while (blkCnt > 0U)
 684              		.loc 1 441 7 is_stmt 1 view .LVU284
 685 029c B946     		mov	r9, r7
 686              	.LVL126:
 687              		.loc 1 441 7 is_stmt 0 view .LVU285
 688 029e 6746     		mov	r7, ip
ARM GAS  /var/folders/n6/c271nzx11xl4r4_m7sqjlt0m0000gn/T//ccw7TAzh.s 			page 23


 689              	.LVL127:
 690              		.loc 1 441 7 view .LVU286
 691 02a0 B446     		mov	ip, r6
 692              	.LVL128:
 693              		.loc 1 441 13 view .LVU287
 694 02a2 44E0     		b	.L22
 695              	.LVL129:
 696              	.L24:
 442:Drivers/CMSIS/DSP/Source/FilteringFunctions/arm_conv_partial_f32.c ****       {
 443:Drivers/CMSIS/DSP/Source/FilteringFunctions/arm_conv_partial_f32.c ****         /* Accumulator is made zero for every iteration */
 444:Drivers/CMSIS/DSP/Source/FilteringFunctions/arm_conv_partial_f32.c ****         sum = 0.0f;
 445:Drivers/CMSIS/DSP/Source/FilteringFunctions/arm_conv_partial_f32.c **** 
 446:Drivers/CMSIS/DSP/Source/FilteringFunctions/arm_conv_partial_f32.c ****         /* Apply loop unrolling and compute 4 MACs simultaneously. */
 447:Drivers/CMSIS/DSP/Source/FilteringFunctions/arm_conv_partial_f32.c ****         k = srcBLen >> 2U;
 448:Drivers/CMSIS/DSP/Source/FilteringFunctions/arm_conv_partial_f32.c **** 
 449:Drivers/CMSIS/DSP/Source/FilteringFunctions/arm_conv_partial_f32.c ****         /* First part of the processing with loop unrolling.  Compute 4 MACs at a time.
 450:Drivers/CMSIS/DSP/Source/FilteringFunctions/arm_conv_partial_f32.c ****          ** a second loop below computes MACs for the remaining 1 to 3 samples. */
 451:Drivers/CMSIS/DSP/Source/FilteringFunctions/arm_conv_partial_f32.c ****         while (k > 0U)
 452:Drivers/CMSIS/DSP/Source/FilteringFunctions/arm_conv_partial_f32.c ****         {
 453:Drivers/CMSIS/DSP/Source/FilteringFunctions/arm_conv_partial_f32.c ****           /* Perform the multiply-accumulates */
 454:Drivers/CMSIS/DSP/Source/FilteringFunctions/arm_conv_partial_f32.c ****           sum += *px++ * *py--;
 697              		.loc 1 454 11 is_stmt 1 view .LVU288
 698              		.loc 1 454 18 is_stmt 0 view .LVU289
 699 02a4 9EED007A 		vldr.32	s14, [lr]
 700              	.LVL130:
 701              		.loc 1 454 26 view .LVU290
 702 02a8 D0ED006A 		vldr.32	s13, [r0]
 703              		.loc 1 454 24 view .LVU291
 704 02ac 27EE267A 		vmul.f32	s14, s14, s13
 705              		.loc 1 454 15 view .LVU292
 706 02b0 77EE877A 		vadd.f32	s15, s15, s14
 707              	.LVL131:
 455:Drivers/CMSIS/DSP/Source/FilteringFunctions/arm_conv_partial_f32.c ****           sum += *px++ * *py--;
 708              		.loc 1 455 11 is_stmt 1 view .LVU293
 709              		.loc 1 455 18 is_stmt 0 view .LVU294
 710 02b4 9EED017A 		vldr.32	s14, [lr, #4]
 711              	.LVL132:
 712              		.loc 1 455 26 view .LVU295
 713 02b8 50ED016A 		vldr.32	s13, [r0, #-4]
 714              		.loc 1 455 24 view .LVU296
 715 02bc 27EE267A 		vmul.f32	s14, s14, s13
 716              		.loc 1 455 15 view .LVU297
 717 02c0 77EE877A 		vadd.f32	s15, s15, s14
 718              	.LVL133:
 456:Drivers/CMSIS/DSP/Source/FilteringFunctions/arm_conv_partial_f32.c ****           sum += *px++ * *py--;
 719              		.loc 1 456 11 is_stmt 1 view .LVU298
 720              		.loc 1 456 18 is_stmt 0 view .LVU299
 721 02c4 9EED027A 		vldr.32	s14, [lr, #8]
 722              	.LVL134:
 723              		.loc 1 456 26 view .LVU300
 724 02c8 50ED026A 		vldr.32	s13, [r0, #-8]
 725              		.loc 1 456 24 view .LVU301
 726 02cc 27EE267A 		vmul.f32	s14, s14, s13
 727              		.loc 1 456 15 view .LVU302
 728 02d0 77EE877A 		vadd.f32	s15, s15, s14
 729              	.LVL135:
 457:Drivers/CMSIS/DSP/Source/FilteringFunctions/arm_conv_partial_f32.c ****           sum += *px++ * *py--;
ARM GAS  /var/folders/n6/c271nzx11xl4r4_m7sqjlt0m0000gn/T//ccw7TAzh.s 			page 24


 730              		.loc 1 457 11 is_stmt 1 view .LVU303
 731              		.loc 1 457 18 is_stmt 0 view .LVU304
 732 02d4 9EED037A 		vldr.32	s14, [lr, #12]
 733              	.LVL136:
 734              		.loc 1 457 26 view .LVU305
 735 02d8 50ED036A 		vldr.32	s13, [r0, #-12]
 736              		.loc 1 457 24 view .LVU306
 737 02dc 27EE267A 		vmul.f32	s14, s14, s13
 738              		.loc 1 457 15 view .LVU307
 739 02e0 77EE877A 		vadd.f32	s15, s15, s14
 740              	.LVL137:
 458:Drivers/CMSIS/DSP/Source/FilteringFunctions/arm_conv_partial_f32.c **** 
 459:Drivers/CMSIS/DSP/Source/FilteringFunctions/arm_conv_partial_f32.c ****           /* Decrement the loop counter */
 460:Drivers/CMSIS/DSP/Source/FilteringFunctions/arm_conv_partial_f32.c ****           k--;
 741              		.loc 1 460 11 is_stmt 1 view .LVU308
 742              		.loc 1 460 12 is_stmt 0 view .LVU309
 743 02e4 013E     		subs	r6, r6, #1
 744              	.LVL138:
 457:Drivers/CMSIS/DSP/Source/FilteringFunctions/arm_conv_partial_f32.c ****           sum += *px++ * *py--;
 745              		.loc 1 457 29 view .LVU310
 746 02e6 1038     		subs	r0, r0, #16
 747              	.LVL139:
 457:Drivers/CMSIS/DSP/Source/FilteringFunctions/arm_conv_partial_f32.c ****           sum += *px++ * *py--;
 748              		.loc 1 457 21 view .LVU311
 749 02e8 0EF1100E 		add	lr, lr, #16
 750              	.LVL140:
 751              	.L23:
 451:Drivers/CMSIS/DSP/Source/FilteringFunctions/arm_conv_partial_f32.c ****         {
 752              		.loc 1 451 18 is_stmt 1 view .LVU312
 753 02ec 002E     		cmp	r6, #0
 754 02ee D9D1     		bne	.L24
 461:Drivers/CMSIS/DSP/Source/FilteringFunctions/arm_conv_partial_f32.c ****         }
 462:Drivers/CMSIS/DSP/Source/FilteringFunctions/arm_conv_partial_f32.c **** 
 463:Drivers/CMSIS/DSP/Source/FilteringFunctions/arm_conv_partial_f32.c ****         /* If the srcBLen is not a multiple of 4, compute any remaining MACs here.
 464:Drivers/CMSIS/DSP/Source/FilteringFunctions/arm_conv_partial_f32.c ****          ** No loop unrolling is used. */
 465:Drivers/CMSIS/DSP/Source/FilteringFunctions/arm_conv_partial_f32.c ****         k = srcBLen % 0x4U;
 755              		.loc 1 465 9 view .LVU313
 756              		.loc 1 465 11 is_stmt 0 view .LVU314
 757 02f0 04F00306 		and	r6, r4, #3
 758              	.LVL141:
 466:Drivers/CMSIS/DSP/Source/FilteringFunctions/arm_conv_partial_f32.c **** 
 467:Drivers/CMSIS/DSP/Source/FilteringFunctions/arm_conv_partial_f32.c ****         while (k > 0U)
 759              		.loc 1 467 9 is_stmt 1 view .LVU315
 760              		.loc 1 467 15 is_stmt 0 view .LVU316
 761 02f4 0AE0     		b	.L25
 762              	.L26:
 468:Drivers/CMSIS/DSP/Source/FilteringFunctions/arm_conv_partial_f32.c ****         {
 469:Drivers/CMSIS/DSP/Source/FilteringFunctions/arm_conv_partial_f32.c ****           /* Perform the multiply-accumulate */
 470:Drivers/CMSIS/DSP/Source/FilteringFunctions/arm_conv_partial_f32.c ****           sum += *px++ * *py--;
 763              		.loc 1 470 11 is_stmt 1 view .LVU317
 764              	.LVL142:
 765              		.loc 1 470 18 is_stmt 0 view .LVU318
 766 02f6 BEEC017A 		vldmia.32	lr!, {s14}
 767              	.LVL143:
 768              		.loc 1 470 26 view .LVU319
 769 02fa 8346     		mov	fp, r0
 770 02fc 0438     		subs	r0, r0, #4
ARM GAS  /var/folders/n6/c271nzx11xl4r4_m7sqjlt0m0000gn/T//ccw7TAzh.s 			page 25


 771              	.LVL144:
 772              		.loc 1 470 26 view .LVU320
 773 02fe DBED006A 		vldr.32	s13, [fp]
 774              		.loc 1 470 24 view .LVU321
 775 0302 27EE267A 		vmul.f32	s14, s14, s13
 776              		.loc 1 470 15 view .LVU322
 777 0306 77EE877A 		vadd.f32	s15, s15, s14
 778              	.LVL145:
 471:Drivers/CMSIS/DSP/Source/FilteringFunctions/arm_conv_partial_f32.c **** 
 472:Drivers/CMSIS/DSP/Source/FilteringFunctions/arm_conv_partial_f32.c ****           /* Decrement the loop counter */
 473:Drivers/CMSIS/DSP/Source/FilteringFunctions/arm_conv_partial_f32.c ****           k--;
 779              		.loc 1 473 11 is_stmt 1 view .LVU323
 780              		.loc 1 473 12 is_stmt 0 view .LVU324
 781 030a 013E     		subs	r6, r6, #1
 782              	.LVL146:
 783              	.L25:
 467:Drivers/CMSIS/DSP/Source/FilteringFunctions/arm_conv_partial_f32.c ****         {
 784              		.loc 1 467 18 is_stmt 1 view .LVU325
 785 030c 002E     		cmp	r6, #0
 786 030e F2D1     		bne	.L26
 474:Drivers/CMSIS/DSP/Source/FilteringFunctions/arm_conv_partial_f32.c ****         }
 475:Drivers/CMSIS/DSP/Source/FilteringFunctions/arm_conv_partial_f32.c **** 
 476:Drivers/CMSIS/DSP/Source/FilteringFunctions/arm_conv_partial_f32.c ****         /* Store the result in the accumulator in the destination buffer. */
 477:Drivers/CMSIS/DSP/Source/FilteringFunctions/arm_conv_partial_f32.c ****         *pOut++ = sum;
 787              		.loc 1 477 9 view .LVU326
 788              	.LVL147:
 789              		.loc 1 477 17 is_stmt 0 view .LVU327
 790 0310 E3EC017A 		vstmia.32	r3!, {s15}
 791              	.LVL148:
 478:Drivers/CMSIS/DSP/Source/FilteringFunctions/arm_conv_partial_f32.c **** 
 479:Drivers/CMSIS/DSP/Source/FilteringFunctions/arm_conv_partial_f32.c ****         /* Increment the MAC count */
 480:Drivers/CMSIS/DSP/Source/FilteringFunctions/arm_conv_partial_f32.c ****         count++;
 792              		.loc 1 480 9 is_stmt 1 view .LVU328
 793              		.loc 1 480 14 is_stmt 0 view .LVU329
 794 0314 0CF1010C 		add	ip, ip, #1
 795              	.LVL149:
 481:Drivers/CMSIS/DSP/Source/FilteringFunctions/arm_conv_partial_f32.c **** 
 482:Drivers/CMSIS/DSP/Source/FilteringFunctions/arm_conv_partial_f32.c ****         /* Update the inputA and inputB pointers for next MAC calculation */
 483:Drivers/CMSIS/DSP/Source/FilteringFunctions/arm_conv_partial_f32.c ****         if ((int32_t)firstIndex - (int32_t)srcBLen + 1 > 0)
 796              		.loc 1 483 9 is_stmt 1 view .LVU330
 797              		.loc 1 483 12 is_stmt 0 view .LVU331
 798 0318 B8F1000F 		cmp	r8, #0
 799 031c 0DDB     		blt	.L27
 484:Drivers/CMSIS/DSP/Source/FilteringFunctions/arm_conv_partial_f32.c ****         {
 485:Drivers/CMSIS/DSP/Source/FilteringFunctions/arm_conv_partial_f32.c ****           px = pIn1 + firstIndex - srcBLen + 1 + count;
 800              		.loc 1 485 11 is_stmt 1 view .LVU332
 801              		.loc 1 485 34 is_stmt 0 view .LVU333
 802 031e A9EB040E 		sub	lr, r9, r4
 803              	.LVL150:
 804              		.loc 1 485 48 view .LVU334
 805 0322 E644     		add	lr, lr, ip
 806 0324 0EF1010E 		add	lr, lr, #1
 807              		.loc 1 485 14 view .LVU335
 808 0328 01EB8E0E 		add	lr, r1, lr, lsl #2
 809              	.LVL151:
 810              	.L28:
 486:Drivers/CMSIS/DSP/Source/FilteringFunctions/arm_conv_partial_f32.c ****         }
ARM GAS  /var/folders/n6/c271nzx11xl4r4_m7sqjlt0m0000gn/T//ccw7TAzh.s 			page 26


 487:Drivers/CMSIS/DSP/Source/FilteringFunctions/arm_conv_partial_f32.c ****         else
 488:Drivers/CMSIS/DSP/Source/FilteringFunctions/arm_conv_partial_f32.c ****         {
 489:Drivers/CMSIS/DSP/Source/FilteringFunctions/arm_conv_partial_f32.c ****           px = pIn1 + count;
 490:Drivers/CMSIS/DSP/Source/FilteringFunctions/arm_conv_partial_f32.c ****         }
 491:Drivers/CMSIS/DSP/Source/FilteringFunctions/arm_conv_partial_f32.c ****         py = pSrc2;
 811              		.loc 1 491 9 is_stmt 1 view .LVU336
 492:Drivers/CMSIS/DSP/Source/FilteringFunctions/arm_conv_partial_f32.c **** 
 493:Drivers/CMSIS/DSP/Source/FilteringFunctions/arm_conv_partial_f32.c ****         /* Decrement the loop counter */
 494:Drivers/CMSIS/DSP/Source/FilteringFunctions/arm_conv_partial_f32.c ****         blkCnt--;
 812              		.loc 1 494 9 view .LVU337
 813              		.loc 1 494 15 is_stmt 0 view .LVU338
 814 032c 013F     		subs	r7, r7, #1
 815              	.LVL152:
 816              	.L22:
 441:Drivers/CMSIS/DSP/Source/FilteringFunctions/arm_conv_partial_f32.c ****       {
 817              		.loc 1 441 21 is_stmt 1 view .LVU339
 818 032e 97B3     		cbz	r7, .L30
 444:Drivers/CMSIS/DSP/Source/FilteringFunctions/arm_conv_partial_f32.c **** 
 819              		.loc 1 444 9 view .LVU340
 820              	.LVL153:
 447:Drivers/CMSIS/DSP/Source/FilteringFunctions/arm_conv_partial_f32.c **** 
 821              		.loc 1 447 9 view .LVU341
 447:Drivers/CMSIS/DSP/Source/FilteringFunctions/arm_conv_partial_f32.c **** 
 822              		.loc 1 447 11 is_stmt 0 view .LVU342
 823 0330 A608     		lsrs	r6, r4, #2
 824              	.LVL154:
 451:Drivers/CMSIS/DSP/Source/FilteringFunctions/arm_conv_partial_f32.c ****         {
 825              		.loc 1 451 9 is_stmt 1 view .LVU343
 451:Drivers/CMSIS/DSP/Source/FilteringFunctions/arm_conv_partial_f32.c ****         {
 826              		.loc 1 451 15 is_stmt 0 view .LVU344
 827 0332 2846     		mov	r0, r5
 444:Drivers/CMSIS/DSP/Source/FilteringFunctions/arm_conv_partial_f32.c **** 
 828              		.loc 1 444 13 view .LVU345
 829 0334 DFED407A 		vldr.32	s15, .L52
 451:Drivers/CMSIS/DSP/Source/FilteringFunctions/arm_conv_partial_f32.c ****         {
 830              		.loc 1 451 15 view .LVU346
 831 0338 D8E7     		b	.L23
 832              	.LVL155:
 833              	.L27:
 489:Drivers/CMSIS/DSP/Source/FilteringFunctions/arm_conv_partial_f32.c ****         }
 834              		.loc 1 489 11 is_stmt 1 view .LVU347
 489:Drivers/CMSIS/DSP/Source/FilteringFunctions/arm_conv_partial_f32.c ****         }
 835              		.loc 1 489 14 is_stmt 0 view .LVU348
 836 033a 01EB8C0E 		add	lr, r1, ip, lsl #2
 837              	.LVL156:
 489:Drivers/CMSIS/DSP/Source/FilteringFunctions/arm_conv_partial_f32.c ****         }
 838              		.loc 1 489 14 view .LVU349
 839 033e F5E7     		b	.L28
 840              	.LVL157:
 841              	.L14:
 495:Drivers/CMSIS/DSP/Source/FilteringFunctions/arm_conv_partial_f32.c ****       }
 496:Drivers/CMSIS/DSP/Source/FilteringFunctions/arm_conv_partial_f32.c ****     }
 497:Drivers/CMSIS/DSP/Source/FilteringFunctions/arm_conv_partial_f32.c ****     else
 498:Drivers/CMSIS/DSP/Source/FilteringFunctions/arm_conv_partial_f32.c ****     {
 499:Drivers/CMSIS/DSP/Source/FilteringFunctions/arm_conv_partial_f32.c ****       /* If the srcBLen is not a multiple of 4,
 500:Drivers/CMSIS/DSP/Source/FilteringFunctions/arm_conv_partial_f32.c ****        * the blockSize2 loop cannot be unrolled by 4 */
 501:Drivers/CMSIS/DSP/Source/FilteringFunctions/arm_conv_partial_f32.c ****       blkCnt = (uint32_t) blockSize2;
ARM GAS  /var/folders/n6/c271nzx11xl4r4_m7sqjlt0m0000gn/T//ccw7TAzh.s 			page 27


 842              		.loc 1 501 7 is_stmt 1 view .LVU350
 502:Drivers/CMSIS/DSP/Source/FilteringFunctions/arm_conv_partial_f32.c **** 
 503:Drivers/CMSIS/DSP/Source/FilteringFunctions/arm_conv_partial_f32.c ****       while (blkCnt > 0U)
 843              		.loc 1 503 7 view .LVU351
 278:Drivers/CMSIS/DSP/Source/FilteringFunctions/arm_conv_partial_f32.c **** 
 844              		.loc 1 278 11 is_stmt 0 view .LVU352
 845 0340 4FF00009 		mov	r9, #0
 846              	.LVL158:
 278:Drivers/CMSIS/DSP/Source/FilteringFunctions/arm_conv_partial_f32.c **** 
 847              		.loc 1 278 11 view .LVU353
 848 0344 6046     		mov	r0, ip
 849 0346 9C46     		mov	ip, r3
 850              	.LVL159:
 851              		.loc 1 503 13 view .LVU354
 852 0348 1BE0     		b	.L31
 853              	.LVL160:
 854              	.L32:
 504:Drivers/CMSIS/DSP/Source/FilteringFunctions/arm_conv_partial_f32.c ****       {
 505:Drivers/CMSIS/DSP/Source/FilteringFunctions/arm_conv_partial_f32.c ****         /* Accumulator is made zero for every iteration */
 506:Drivers/CMSIS/DSP/Source/FilteringFunctions/arm_conv_partial_f32.c ****         sum = 0.0f;
 507:Drivers/CMSIS/DSP/Source/FilteringFunctions/arm_conv_partial_f32.c **** 
 508:Drivers/CMSIS/DSP/Source/FilteringFunctions/arm_conv_partial_f32.c ****         /* srcBLen number of MACS should be performed */
 509:Drivers/CMSIS/DSP/Source/FilteringFunctions/arm_conv_partial_f32.c ****         k = srcBLen;
 510:Drivers/CMSIS/DSP/Source/FilteringFunctions/arm_conv_partial_f32.c **** 
 511:Drivers/CMSIS/DSP/Source/FilteringFunctions/arm_conv_partial_f32.c ****         while (k > 0U)
 512:Drivers/CMSIS/DSP/Source/FilteringFunctions/arm_conv_partial_f32.c ****         {
 513:Drivers/CMSIS/DSP/Source/FilteringFunctions/arm_conv_partial_f32.c ****           /* Perform the multiply-accumulate */
 514:Drivers/CMSIS/DSP/Source/FilteringFunctions/arm_conv_partial_f32.c ****           sum += *px++ * *py--;
 855              		.loc 1 514 11 is_stmt 1 view .LVU355
 856              		.loc 1 514 18 is_stmt 0 view .LVU356
 857 034a FEEC017A 		vldmia.32	lr!, {s15}
 858              	.LVL161:
 859              		.loc 1 514 26 view .LVU357
 860 034e B346     		mov	fp, r6
 861 0350 043E     		subs	r6, r6, #4
 862              	.LVL162:
 863              		.loc 1 514 26 view .LVU358
 864 0352 DBED006A 		vldr.32	s13, [fp]
 865              		.loc 1 514 24 view .LVU359
 866 0356 67EEA67A 		vmul.f32	s15, s15, s13
 867              		.loc 1 514 15 view .LVU360
 868 035a 37EE277A 		vadd.f32	s14, s14, s15
 869              	.LVL163:
 515:Drivers/CMSIS/DSP/Source/FilteringFunctions/arm_conv_partial_f32.c **** 
 516:Drivers/CMSIS/DSP/Source/FilteringFunctions/arm_conv_partial_f32.c ****           /* Decrement the loop counter */
 517:Drivers/CMSIS/DSP/Source/FilteringFunctions/arm_conv_partial_f32.c ****           k--;
 870              		.loc 1 517 11 is_stmt 1 view .LVU361
 871              		.loc 1 517 12 is_stmt 0 view .LVU362
 872 035e 013B     		subs	r3, r3, #1
 873              	.LVL164:
 874              	.L35:
 511:Drivers/CMSIS/DSP/Source/FilteringFunctions/arm_conv_partial_f32.c ****         {
 875              		.loc 1 511 18 is_stmt 1 view .LVU363
 876 0360 002B     		cmp	r3, #0
 877 0362 F2D1     		bne	.L32
 518:Drivers/CMSIS/DSP/Source/FilteringFunctions/arm_conv_partial_f32.c ****         }
 519:Drivers/CMSIS/DSP/Source/FilteringFunctions/arm_conv_partial_f32.c **** 
ARM GAS  /var/folders/n6/c271nzx11xl4r4_m7sqjlt0m0000gn/T//ccw7TAzh.s 			page 28


 520:Drivers/CMSIS/DSP/Source/FilteringFunctions/arm_conv_partial_f32.c ****         /* Store the result in the accumulator in the destination buffer. */
 521:Drivers/CMSIS/DSP/Source/FilteringFunctions/arm_conv_partial_f32.c ****         *pOut++ = sum;
 878              		.loc 1 521 9 view .LVU364
 879              	.LVL165:
 880              		.loc 1 521 17 is_stmt 0 view .LVU365
 881 0364 ACEC017A 		vstmia.32	ip!, {s14}
 882              	.LVL166:
 522:Drivers/CMSIS/DSP/Source/FilteringFunctions/arm_conv_partial_f32.c **** 
 523:Drivers/CMSIS/DSP/Source/FilteringFunctions/arm_conv_partial_f32.c ****         /* Increment the MAC count */
 524:Drivers/CMSIS/DSP/Source/FilteringFunctions/arm_conv_partial_f32.c ****         count++;
 883              		.loc 1 524 9 is_stmt 1 view .LVU366
 884              		.loc 1 524 14 is_stmt 0 view .LVU367
 885 0368 09F10109 		add	r9, r9, #1
 886              	.LVL167:
 525:Drivers/CMSIS/DSP/Source/FilteringFunctions/arm_conv_partial_f32.c **** 
 526:Drivers/CMSIS/DSP/Source/FilteringFunctions/arm_conv_partial_f32.c ****         /* Update the inputA and inputB pointers for next MAC calculation */
 527:Drivers/CMSIS/DSP/Source/FilteringFunctions/arm_conv_partial_f32.c ****         if ((int32_t)firstIndex - (int32_t)srcBLen + 1 > 0)
 887              		.loc 1 527 9 is_stmt 1 view .LVU368
 888              		.loc 1 527 12 is_stmt 0 view .LVU369
 889 036c B8F1000F 		cmp	r8, #0
 890 0370 0DDB     		blt	.L33
 528:Drivers/CMSIS/DSP/Source/FilteringFunctions/arm_conv_partial_f32.c ****         {
 529:Drivers/CMSIS/DSP/Source/FilteringFunctions/arm_conv_partial_f32.c ****           px = pIn1 + firstIndex - srcBLen + 1 + count;
 891              		.loc 1 529 11 is_stmt 1 view .LVU370
 892              		.loc 1 529 34 is_stmt 0 view .LVU371
 893 0372 A7EB040E 		sub	lr, r7, r4
 894              	.LVL168:
 895              		.loc 1 529 48 view .LVU372
 896 0376 CE44     		add	lr, lr, r9
 897 0378 0EF1010E 		add	lr, lr, #1
 898              		.loc 1 529 14 view .LVU373
 899 037c 01EB8E0E 		add	lr, r1, lr, lsl #2
 900              	.LVL169:
 901              	.L34:
 530:Drivers/CMSIS/DSP/Source/FilteringFunctions/arm_conv_partial_f32.c ****         }
 531:Drivers/CMSIS/DSP/Source/FilteringFunctions/arm_conv_partial_f32.c ****         else
 532:Drivers/CMSIS/DSP/Source/FilteringFunctions/arm_conv_partial_f32.c ****         {
 533:Drivers/CMSIS/DSP/Source/FilteringFunctions/arm_conv_partial_f32.c ****           px = pIn1 + count;
 534:Drivers/CMSIS/DSP/Source/FilteringFunctions/arm_conv_partial_f32.c ****         }
 535:Drivers/CMSIS/DSP/Source/FilteringFunctions/arm_conv_partial_f32.c ****         py = pSrc2;
 902              		.loc 1 535 9 is_stmt 1 view .LVU374
 536:Drivers/CMSIS/DSP/Source/FilteringFunctions/arm_conv_partial_f32.c **** 
 537:Drivers/CMSIS/DSP/Source/FilteringFunctions/arm_conv_partial_f32.c ****         /* Decrement the loop counter */
 538:Drivers/CMSIS/DSP/Source/FilteringFunctions/arm_conv_partial_f32.c ****         blkCnt--;
 903              		.loc 1 538 9 view .LVU375
 904              		.loc 1 538 15 is_stmt 0 view .LVU376
 905 0380 0138     		subs	r0, r0, #1
 906              	.LVL170:
 907              	.L31:
 503:Drivers/CMSIS/DSP/Source/FilteringFunctions/arm_conv_partial_f32.c ****       {
 908              		.loc 1 503 21 is_stmt 1 view .LVU377
 909 0382 38B1     		cbz	r0, .L50
 509:Drivers/CMSIS/DSP/Source/FilteringFunctions/arm_conv_partial_f32.c **** 
 910              		.loc 1 509 11 is_stmt 0 view .LVU378
 911 0384 2346     		mov	r3, r4
 912 0386 2E46     		mov	r6, r5
 506:Drivers/CMSIS/DSP/Source/FilteringFunctions/arm_conv_partial_f32.c **** 
ARM GAS  /var/folders/n6/c271nzx11xl4r4_m7sqjlt0m0000gn/T//ccw7TAzh.s 			page 29


 913              		.loc 1 506 13 view .LVU379
 914 0388 9FED2B7A 		vldr.32	s14, .L52
 915 038c E8E7     		b	.L35
 916              	.LVL171:
 917              	.L33:
 533:Drivers/CMSIS/DSP/Source/FilteringFunctions/arm_conv_partial_f32.c ****         }
 918              		.loc 1 533 11 is_stmt 1 view .LVU380
 533:Drivers/CMSIS/DSP/Source/FilteringFunctions/arm_conv_partial_f32.c ****         }
 919              		.loc 1 533 14 is_stmt 0 view .LVU381
 920 038e 01EB890E 		add	lr, r1, r9, lsl #2
 921              	.LVL172:
 533:Drivers/CMSIS/DSP/Source/FilteringFunctions/arm_conv_partial_f32.c ****         }
 922              		.loc 1 533 14 view .LVU382
 923 0392 F5E7     		b	.L34
 924              	.LVL173:
 925              	.L50:
 533:Drivers/CMSIS/DSP/Source/FilteringFunctions/arm_conv_partial_f32.c ****         }
 926              		.loc 1 533 14 view .LVU383
 927 0394 6346     		mov	r3, ip
 928              	.LVL174:
 929              	.L30:
 539:Drivers/CMSIS/DSP/Source/FilteringFunctions/arm_conv_partial_f32.c ****       }
 540:Drivers/CMSIS/DSP/Source/FilteringFunctions/arm_conv_partial_f32.c ****     }
 541:Drivers/CMSIS/DSP/Source/FilteringFunctions/arm_conv_partial_f32.c **** 
 542:Drivers/CMSIS/DSP/Source/FilteringFunctions/arm_conv_partial_f32.c **** 
 543:Drivers/CMSIS/DSP/Source/FilteringFunctions/arm_conv_partial_f32.c ****     /* --------------------------
 544:Drivers/CMSIS/DSP/Source/FilteringFunctions/arm_conv_partial_f32.c ****      * Initializations of stage3
 545:Drivers/CMSIS/DSP/Source/FilteringFunctions/arm_conv_partial_f32.c ****      * -------------------------*/
 546:Drivers/CMSIS/DSP/Source/FilteringFunctions/arm_conv_partial_f32.c **** 
 547:Drivers/CMSIS/DSP/Source/FilteringFunctions/arm_conv_partial_f32.c ****     /* sum += x[srcALen-srcBLen+1] * y[srcBLen-1] + x[srcALen-srcBLen+2] * y[srcBLen-2] +...+ x[src
 548:Drivers/CMSIS/DSP/Source/FilteringFunctions/arm_conv_partial_f32.c ****      * sum += x[srcALen-srcBLen+2] * y[srcBLen-1] + x[srcALen-srcBLen+3] * y[srcBLen-2] +...+ x[src
 549:Drivers/CMSIS/DSP/Source/FilteringFunctions/arm_conv_partial_f32.c ****      * ....
 550:Drivers/CMSIS/DSP/Source/FilteringFunctions/arm_conv_partial_f32.c ****      * sum +=  x[srcALen-2] * y[srcBLen-1] + x[srcALen-1] * y[srcBLen-2]
 551:Drivers/CMSIS/DSP/Source/FilteringFunctions/arm_conv_partial_f32.c ****      * sum +=  x[srcALen-1] * y[srcBLen-1]
 552:Drivers/CMSIS/DSP/Source/FilteringFunctions/arm_conv_partial_f32.c ****      */
 553:Drivers/CMSIS/DSP/Source/FilteringFunctions/arm_conv_partial_f32.c **** 
 554:Drivers/CMSIS/DSP/Source/FilteringFunctions/arm_conv_partial_f32.c ****     /* In this stage the MAC operations are decreased by 1 for every iteration.
 555:Drivers/CMSIS/DSP/Source/FilteringFunctions/arm_conv_partial_f32.c ****        The count variable holds the number of MAC operations performed */
 556:Drivers/CMSIS/DSP/Source/FilteringFunctions/arm_conv_partial_f32.c ****     count = srcBLen - 1U;
 930              		.loc 1 556 5 is_stmt 1 view .LVU384
 931              		.loc 1 556 11 is_stmt 0 view .LVU385
 932 0396 671E     		subs	r7, r4, #1
 933              	.LVL175:
 557:Drivers/CMSIS/DSP/Source/FilteringFunctions/arm_conv_partial_f32.c **** 
 558:Drivers/CMSIS/DSP/Source/FilteringFunctions/arm_conv_partial_f32.c ****     /* Working pointer of inputA */
 559:Drivers/CMSIS/DSP/Source/FilteringFunctions/arm_conv_partial_f32.c ****     pSrc1 = (pIn1 + srcALen) - (srcBLen - 1U);
 934              		.loc 1 559 5 is_stmt 1 view .LVU386
 935              		.loc 1 559 30 is_stmt 0 view .LVU387
 936 0398 AAEB0400 		sub	r0, r10, r4
 937 039c 0130     		adds	r0, r0, #1
 938              		.loc 1 559 11 view .LVU388
 939 039e 01EB8001 		add	r1, r1, r0, lsl #2
 940              	.LVL176:
 560:Drivers/CMSIS/DSP/Source/FilteringFunctions/arm_conv_partial_f32.c ****     px = pSrc1;
 941              		.loc 1 560 5 is_stmt 1 view .LVU389
 561:Drivers/CMSIS/DSP/Source/FilteringFunctions/arm_conv_partial_f32.c **** 
 562:Drivers/CMSIS/DSP/Source/FilteringFunctions/arm_conv_partial_f32.c ****     /* Working pointer of inputB */
ARM GAS  /var/folders/n6/c271nzx11xl4r4_m7sqjlt0m0000gn/T//ccw7TAzh.s 			page 30


 563:Drivers/CMSIS/DSP/Source/FilteringFunctions/arm_conv_partial_f32.c ****     pSrc2 = pIn2 + (srcBLen - 1U);
 942              		.loc 1 563 5 view .LVU390
 564:Drivers/CMSIS/DSP/Source/FilteringFunctions/arm_conv_partial_f32.c ****     py = pSrc2;
 943              		.loc 1 564 5 view .LVU391
 565:Drivers/CMSIS/DSP/Source/FilteringFunctions/arm_conv_partial_f32.c **** 
 566:Drivers/CMSIS/DSP/Source/FilteringFunctions/arm_conv_partial_f32.c ****     while (blockSize3 > 0)
 944              		.loc 1 566 5 view .LVU392
 945              		.loc 1 566 11 is_stmt 0 view .LVU393
 946 03a2 39E0     		b	.L36
 947              	.LVL177:
 948              	.L38:
 567:Drivers/CMSIS/DSP/Source/FilteringFunctions/arm_conv_partial_f32.c ****     {
 568:Drivers/CMSIS/DSP/Source/FilteringFunctions/arm_conv_partial_f32.c ****       /* Accumulator is made zero for every iteration */
 569:Drivers/CMSIS/DSP/Source/FilteringFunctions/arm_conv_partial_f32.c ****       sum = 0.0f;
 570:Drivers/CMSIS/DSP/Source/FilteringFunctions/arm_conv_partial_f32.c **** 
 571:Drivers/CMSIS/DSP/Source/FilteringFunctions/arm_conv_partial_f32.c ****       /* Apply loop unrolling and compute 4 MACs simultaneously. */
 572:Drivers/CMSIS/DSP/Source/FilteringFunctions/arm_conv_partial_f32.c ****       k = count >> 2U;
 573:Drivers/CMSIS/DSP/Source/FilteringFunctions/arm_conv_partial_f32.c **** 
 574:Drivers/CMSIS/DSP/Source/FilteringFunctions/arm_conv_partial_f32.c ****       /* First part of the processing with loop unrolling.  Compute 4 MACs at a time.
 575:Drivers/CMSIS/DSP/Source/FilteringFunctions/arm_conv_partial_f32.c ****        ** a second loop below computes MACs for the remaining 1 to 3 samples. */
 576:Drivers/CMSIS/DSP/Source/FilteringFunctions/arm_conv_partial_f32.c ****       while (k > 0U)
 577:Drivers/CMSIS/DSP/Source/FilteringFunctions/arm_conv_partial_f32.c ****       {
 578:Drivers/CMSIS/DSP/Source/FilteringFunctions/arm_conv_partial_f32.c ****         /* sum += x[srcALen - srcBLen + 1] * y[srcBLen - 1] */
 579:Drivers/CMSIS/DSP/Source/FilteringFunctions/arm_conv_partial_f32.c ****         sum += *px++ * *py--;
 949              		.loc 1 579 9 is_stmt 1 view .LVU394
 950              		.loc 1 579 16 is_stmt 0 view .LVU395
 951 03a4 90ED007A 		vldr.32	s14, [r0]
 952              	.LVL178:
 953              		.loc 1 579 24 view .LVU396
 954 03a8 D4ED006A 		vldr.32	s13, [r4]
 955              		.loc 1 579 22 view .LVU397
 956 03ac 27EE267A 		vmul.f32	s14, s14, s13
 957              		.loc 1 579 13 view .LVU398
 958 03b0 77EE877A 		vadd.f32	s15, s15, s14
 959              	.LVL179:
 580:Drivers/CMSIS/DSP/Source/FilteringFunctions/arm_conv_partial_f32.c **** 
 581:Drivers/CMSIS/DSP/Source/FilteringFunctions/arm_conv_partial_f32.c ****         /* sum += x[srcALen - srcBLen + 2] * y[srcBLen - 2] */
 582:Drivers/CMSIS/DSP/Source/FilteringFunctions/arm_conv_partial_f32.c ****         sum += *px++ * *py--;
 960              		.loc 1 582 9 is_stmt 1 view .LVU399
 961              		.loc 1 582 16 is_stmt 0 view .LVU400
 962 03b4 90ED017A 		vldr.32	s14, [r0, #4]
 963              	.LVL180:
 964              		.loc 1 582 24 view .LVU401
 965 03b8 54ED016A 		vldr.32	s13, [r4, #-4]
 966              		.loc 1 582 22 view .LVU402
 967 03bc 27EE267A 		vmul.f32	s14, s14, s13
 968              		.loc 1 582 13 view .LVU403
 969 03c0 77EE877A 		vadd.f32	s15, s15, s14
 970              	.LVL181:
 583:Drivers/CMSIS/DSP/Source/FilteringFunctions/arm_conv_partial_f32.c **** 
 584:Drivers/CMSIS/DSP/Source/FilteringFunctions/arm_conv_partial_f32.c ****         /* sum += x[srcALen - srcBLen + 3] * y[srcBLen - 3] */
 585:Drivers/CMSIS/DSP/Source/FilteringFunctions/arm_conv_partial_f32.c ****         sum += *px++ * *py--;
 971              		.loc 1 585 9 is_stmt 1 view .LVU404
 972              		.loc 1 585 16 is_stmt 0 view .LVU405
 973 03c4 90ED027A 		vldr.32	s14, [r0, #8]
 974              	.LVL182:
 975              		.loc 1 585 24 view .LVU406
ARM GAS  /var/folders/n6/c271nzx11xl4r4_m7sqjlt0m0000gn/T//ccw7TAzh.s 			page 31


 976 03c8 54ED026A 		vldr.32	s13, [r4, #-8]
 977              		.loc 1 585 22 view .LVU407
 978 03cc 27EE267A 		vmul.f32	s14, s14, s13
 979              		.loc 1 585 13 view .LVU408
 980 03d0 77EE877A 		vadd.f32	s15, s15, s14
 981              	.LVL183:
 586:Drivers/CMSIS/DSP/Source/FilteringFunctions/arm_conv_partial_f32.c **** 
 587:Drivers/CMSIS/DSP/Source/FilteringFunctions/arm_conv_partial_f32.c ****         /* sum += x[srcALen - srcBLen + 4] * y[srcBLen - 4] */
 588:Drivers/CMSIS/DSP/Source/FilteringFunctions/arm_conv_partial_f32.c ****         sum += *px++ * *py--;
 982              		.loc 1 588 9 is_stmt 1 view .LVU409
 983              		.loc 1 588 16 is_stmt 0 view .LVU410
 984 03d4 90ED037A 		vldr.32	s14, [r0, #12]
 985              	.LVL184:
 986              		.loc 1 588 24 view .LVU411
 987 03d8 54ED036A 		vldr.32	s13, [r4, #-12]
 988              		.loc 1 588 22 view .LVU412
 989 03dc 27EE267A 		vmul.f32	s14, s14, s13
 990              		.loc 1 588 13 view .LVU413
 991 03e0 77EE877A 		vadd.f32	s15, s15, s14
 992              	.LVL185:
 589:Drivers/CMSIS/DSP/Source/FilteringFunctions/arm_conv_partial_f32.c **** 
 590:Drivers/CMSIS/DSP/Source/FilteringFunctions/arm_conv_partial_f32.c ****         /* Decrement the loop counter */
 591:Drivers/CMSIS/DSP/Source/FilteringFunctions/arm_conv_partial_f32.c ****         k--;
 993              		.loc 1 591 9 is_stmt 1 view .LVU414
 994              		.loc 1 591 10 is_stmt 0 view .LVU415
 995 03e4 013E     		subs	r6, r6, #1
 996              	.LVL186:
 588:Drivers/CMSIS/DSP/Source/FilteringFunctions/arm_conv_partial_f32.c **** 
 997              		.loc 1 588 27 view .LVU416
 998 03e6 103C     		subs	r4, r4, #16
 999              	.LVL187:
 588:Drivers/CMSIS/DSP/Source/FilteringFunctions/arm_conv_partial_f32.c **** 
 1000              		.loc 1 588 19 view .LVU417
 1001 03e8 1030     		adds	r0, r0, #16
 1002              	.LVL188:
 1003              	.L37:
 576:Drivers/CMSIS/DSP/Source/FilteringFunctions/arm_conv_partial_f32.c ****       {
 1004              		.loc 1 576 16 is_stmt 1 view .LVU418
 1005 03ea 002E     		cmp	r6, #0
 1006 03ec DAD1     		bne	.L38
 592:Drivers/CMSIS/DSP/Source/FilteringFunctions/arm_conv_partial_f32.c ****       }
 593:Drivers/CMSIS/DSP/Source/FilteringFunctions/arm_conv_partial_f32.c **** 
 594:Drivers/CMSIS/DSP/Source/FilteringFunctions/arm_conv_partial_f32.c ****       /* If the count is not a multiple of 4, compute any remaining MACs here.
 595:Drivers/CMSIS/DSP/Source/FilteringFunctions/arm_conv_partial_f32.c ****        ** No loop unrolling is used. */
 596:Drivers/CMSIS/DSP/Source/FilteringFunctions/arm_conv_partial_f32.c ****       k = count % 0x4U;
 1007              		.loc 1 596 7 view .LVU419
 1008              		.loc 1 596 9 is_stmt 0 view .LVU420
 1009 03ee 07F00306 		and	r6, r7, #3
 1010              	.LVL189:
 597:Drivers/CMSIS/DSP/Source/FilteringFunctions/arm_conv_partial_f32.c **** 
 598:Drivers/CMSIS/DSP/Source/FilteringFunctions/arm_conv_partial_f32.c ****       while (k > 0U)
 1011              		.loc 1 598 7 is_stmt 1 view .LVU421
 1012              		.loc 1 598 13 is_stmt 0 view .LVU422
 1013 03f2 0AE0     		b	.L39
 1014              	.L40:
 599:Drivers/CMSIS/DSP/Source/FilteringFunctions/arm_conv_partial_f32.c ****       {
 600:Drivers/CMSIS/DSP/Source/FilteringFunctions/arm_conv_partial_f32.c ****         /* Perform the multiply-accumulates */
ARM GAS  /var/folders/n6/c271nzx11xl4r4_m7sqjlt0m0000gn/T//ccw7TAzh.s 			page 32


 601:Drivers/CMSIS/DSP/Source/FilteringFunctions/arm_conv_partial_f32.c ****         /* sum +=  x[srcALen-1] * y[srcBLen-1] */
 602:Drivers/CMSIS/DSP/Source/FilteringFunctions/arm_conv_partial_f32.c ****         sum += *px++ * *py--;
 1015              		.loc 1 602 9 is_stmt 1 view .LVU423
 1016              	.LVL190:
 1017              		.loc 1 602 16 is_stmt 0 view .LVU424
 1018 03f4 B0EC017A 		vldmia.32	r0!, {s14}
 1019              	.LVL191:
 1020              		.loc 1 602 24 view .LVU425
 1021 03f8 A446     		mov	ip, r4
 1022 03fa 043C     		subs	r4, r4, #4
 1023              	.LVL192:
 1024              		.loc 1 602 24 view .LVU426
 1025 03fc DCED006A 		vldr.32	s13, [ip]
 1026              		.loc 1 602 22 view .LVU427
 1027 0400 27EE267A 		vmul.f32	s14, s14, s13
 1028              		.loc 1 602 13 view .LVU428
 1029 0404 77EE877A 		vadd.f32	s15, s15, s14
 1030              	.LVL193:
 603:Drivers/CMSIS/DSP/Source/FilteringFunctions/arm_conv_partial_f32.c **** 
 604:Drivers/CMSIS/DSP/Source/FilteringFunctions/arm_conv_partial_f32.c ****         /* Decrement the loop counter */
 605:Drivers/CMSIS/DSP/Source/FilteringFunctions/arm_conv_partial_f32.c ****         k--;
 1031              		.loc 1 605 9 is_stmt 1 view .LVU429
 1032              		.loc 1 605 10 is_stmt 0 view .LVU430
 1033 0408 013E     		subs	r6, r6, #1
 1034              	.LVL194:
 1035              	.L39:
 598:Drivers/CMSIS/DSP/Source/FilteringFunctions/arm_conv_partial_f32.c ****       {
 1036              		.loc 1 598 16 is_stmt 1 view .LVU431
 1037 040a 002E     		cmp	r6, #0
 1038 040c F2D1     		bne	.L40
 606:Drivers/CMSIS/DSP/Source/FilteringFunctions/arm_conv_partial_f32.c ****       }
 607:Drivers/CMSIS/DSP/Source/FilteringFunctions/arm_conv_partial_f32.c **** 
 608:Drivers/CMSIS/DSP/Source/FilteringFunctions/arm_conv_partial_f32.c ****       /* Store the result in the accumulator in the destination buffer. */
 609:Drivers/CMSIS/DSP/Source/FilteringFunctions/arm_conv_partial_f32.c ****       *pOut++ = sum;
 1039              		.loc 1 609 7 view .LVU432
 1040              	.LVL195:
 1041              		.loc 1 609 15 is_stmt 0 view .LVU433
 1042 040e E3EC017A 		vstmia.32	r3!, {s15}
 1043              	.LVL196:
 610:Drivers/CMSIS/DSP/Source/FilteringFunctions/arm_conv_partial_f32.c **** 
 611:Drivers/CMSIS/DSP/Source/FilteringFunctions/arm_conv_partial_f32.c ****       /* Update the inputA and inputB pointers for next MAC calculation */
 612:Drivers/CMSIS/DSP/Source/FilteringFunctions/arm_conv_partial_f32.c ****       px = ++pSrc1;
 1044              		.loc 1 612 7 is_stmt 1 view .LVU434
 1045              		.loc 1 612 10 is_stmt 0 view .LVU435
 1046 0412 0431     		adds	r1, r1, #4
 1047              	.LVL197:
 613:Drivers/CMSIS/DSP/Source/FilteringFunctions/arm_conv_partial_f32.c ****       py = pSrc2;
 1048              		.loc 1 613 7 is_stmt 1 view .LVU436
 614:Drivers/CMSIS/DSP/Source/FilteringFunctions/arm_conv_partial_f32.c **** 
 615:Drivers/CMSIS/DSP/Source/FilteringFunctions/arm_conv_partial_f32.c ****       /* Decrement the MAC count */
 616:Drivers/CMSIS/DSP/Source/FilteringFunctions/arm_conv_partial_f32.c ****       count--;
 1049              		.loc 1 616 7 view .LVU437
 1050              		.loc 1 616 12 is_stmt 0 view .LVU438
 1051 0414 013F     		subs	r7, r7, #1
 1052              	.LVL198:
 617:Drivers/CMSIS/DSP/Source/FilteringFunctions/arm_conv_partial_f32.c **** 
 618:Drivers/CMSIS/DSP/Source/FilteringFunctions/arm_conv_partial_f32.c ****       /* Decrement the loop counter */
ARM GAS  /var/folders/n6/c271nzx11xl4r4_m7sqjlt0m0000gn/T//ccw7TAzh.s 			page 33


 619:Drivers/CMSIS/DSP/Source/FilteringFunctions/arm_conv_partial_f32.c ****       blockSize3--;
 1053              		.loc 1 619 7 is_stmt 1 view .LVU439
 1054              		.loc 1 619 17 is_stmt 0 view .LVU440
 1055 0416 013A     		subs	r2, r2, #1
 1056              	.LVL199:
 1057              	.L36:
 566:Drivers/CMSIS/DSP/Source/FilteringFunctions/arm_conv_partial_f32.c ****     {
 1058              		.loc 1 566 23 is_stmt 1 view .LVU441
 1059 0418 002A     		cmp	r2, #0
 1060 041a 05DD     		ble	.L51
 569:Drivers/CMSIS/DSP/Source/FilteringFunctions/arm_conv_partial_f32.c **** 
 1061              		.loc 1 569 7 view .LVU442
 1062              	.LVL200:
 572:Drivers/CMSIS/DSP/Source/FilteringFunctions/arm_conv_partial_f32.c **** 
 1063              		.loc 1 572 7 view .LVU443
 572:Drivers/CMSIS/DSP/Source/FilteringFunctions/arm_conv_partial_f32.c **** 
 1064              		.loc 1 572 9 is_stmt 0 view .LVU444
 1065 041c BE08     		lsrs	r6, r7, #2
 1066              	.LVL201:
 576:Drivers/CMSIS/DSP/Source/FilteringFunctions/arm_conv_partial_f32.c ****       {
 1067              		.loc 1 576 7 is_stmt 1 view .LVU445
 576:Drivers/CMSIS/DSP/Source/FilteringFunctions/arm_conv_partial_f32.c ****       {
 1068              		.loc 1 576 13 is_stmt 0 view .LVU446
 1069 041e 2C46     		mov	r4, r5
 1070 0420 0846     		mov	r0, r1
 569:Drivers/CMSIS/DSP/Source/FilteringFunctions/arm_conv_partial_f32.c **** 
 1071              		.loc 1 569 11 view .LVU447
 1072 0422 DFED057A 		vldr.32	s15, .L52
 576:Drivers/CMSIS/DSP/Source/FilteringFunctions/arm_conv_partial_f32.c ****       {
 1073              		.loc 1 576 13 view .LVU448
 1074 0426 E0E7     		b	.L37
 1075              	.LVL202:
 1076              	.L51:
 620:Drivers/CMSIS/DSP/Source/FilteringFunctions/arm_conv_partial_f32.c **** 
 621:Drivers/CMSIS/DSP/Source/FilteringFunctions/arm_conv_partial_f32.c ****     }
 622:Drivers/CMSIS/DSP/Source/FilteringFunctions/arm_conv_partial_f32.c **** 
 623:Drivers/CMSIS/DSP/Source/FilteringFunctions/arm_conv_partial_f32.c ****     /* set status as ARM_MATH_SUCCESS */
 624:Drivers/CMSIS/DSP/Source/FilteringFunctions/arm_conv_partial_f32.c ****     status = ARM_MATH_SUCCESS;
 1077              		.loc 1 624 12 view .LVU449
 1078 0428 0020     		movs	r0, #0
 1079              	.LVL203:
 1080              	.L2:
 625:Drivers/CMSIS/DSP/Source/FilteringFunctions/arm_conv_partial_f32.c ****   }
 626:Drivers/CMSIS/DSP/Source/FilteringFunctions/arm_conv_partial_f32.c **** 
 627:Drivers/CMSIS/DSP/Source/FilteringFunctions/arm_conv_partial_f32.c ****   /* Return to application */
 628:Drivers/CMSIS/DSP/Source/FilteringFunctions/arm_conv_partial_f32.c ****   return (status);
 1081              		.loc 1 628 3 is_stmt 1 view .LVU450
 629:Drivers/CMSIS/DSP/Source/FilteringFunctions/arm_conv_partial_f32.c **** 
 630:Drivers/CMSIS/DSP/Source/FilteringFunctions/arm_conv_partial_f32.c **** #else
 631:Drivers/CMSIS/DSP/Source/FilteringFunctions/arm_conv_partial_f32.c **** 
 632:Drivers/CMSIS/DSP/Source/FilteringFunctions/arm_conv_partial_f32.c ****   /* Run the below code for Cortex-M0 */
 633:Drivers/CMSIS/DSP/Source/FilteringFunctions/arm_conv_partial_f32.c **** 
 634:Drivers/CMSIS/DSP/Source/FilteringFunctions/arm_conv_partial_f32.c ****   float32_t *pIn1 = pSrcA;                       /* inputA pointer */
 635:Drivers/CMSIS/DSP/Source/FilteringFunctions/arm_conv_partial_f32.c ****   float32_t *pIn2 = pSrcB;                       /* inputB pointer */
 636:Drivers/CMSIS/DSP/Source/FilteringFunctions/arm_conv_partial_f32.c ****   float32_t sum;                                 /* Accumulator */
 637:Drivers/CMSIS/DSP/Source/FilteringFunctions/arm_conv_partial_f32.c ****   uint32_t i, j;                                 /* loop counters */
 638:Drivers/CMSIS/DSP/Source/FilteringFunctions/arm_conv_partial_f32.c ****   arm_status status;                             /* status of Partial convolution */
ARM GAS  /var/folders/n6/c271nzx11xl4r4_m7sqjlt0m0000gn/T//ccw7TAzh.s 			page 34


 639:Drivers/CMSIS/DSP/Source/FilteringFunctions/arm_conv_partial_f32.c **** 
 640:Drivers/CMSIS/DSP/Source/FilteringFunctions/arm_conv_partial_f32.c ****   /* Check for range of output samples to be calculated */
 641:Drivers/CMSIS/DSP/Source/FilteringFunctions/arm_conv_partial_f32.c ****   if ((firstIndex + numPoints) > ((srcALen + (srcBLen - 1U))))
 642:Drivers/CMSIS/DSP/Source/FilteringFunctions/arm_conv_partial_f32.c ****   {
 643:Drivers/CMSIS/DSP/Source/FilteringFunctions/arm_conv_partial_f32.c ****     /* Set status as ARM_ARGUMENT_ERROR */
 644:Drivers/CMSIS/DSP/Source/FilteringFunctions/arm_conv_partial_f32.c ****     status = ARM_MATH_ARGUMENT_ERROR;
 645:Drivers/CMSIS/DSP/Source/FilteringFunctions/arm_conv_partial_f32.c ****   }
 646:Drivers/CMSIS/DSP/Source/FilteringFunctions/arm_conv_partial_f32.c ****   else
 647:Drivers/CMSIS/DSP/Source/FilteringFunctions/arm_conv_partial_f32.c ****   {
 648:Drivers/CMSIS/DSP/Source/FilteringFunctions/arm_conv_partial_f32.c ****     /* Loop to calculate convolution for output length number of values */
 649:Drivers/CMSIS/DSP/Source/FilteringFunctions/arm_conv_partial_f32.c ****     for (i = firstIndex; i <= (firstIndex + numPoints - 1); i++)
 650:Drivers/CMSIS/DSP/Source/FilteringFunctions/arm_conv_partial_f32.c ****     {
 651:Drivers/CMSIS/DSP/Source/FilteringFunctions/arm_conv_partial_f32.c ****       /* Initialize sum with zero to carry on MAC operations */
 652:Drivers/CMSIS/DSP/Source/FilteringFunctions/arm_conv_partial_f32.c ****       sum = 0.0f;
 653:Drivers/CMSIS/DSP/Source/FilteringFunctions/arm_conv_partial_f32.c **** 
 654:Drivers/CMSIS/DSP/Source/FilteringFunctions/arm_conv_partial_f32.c ****       /* Loop to perform MAC operations according to convolution equation */
 655:Drivers/CMSIS/DSP/Source/FilteringFunctions/arm_conv_partial_f32.c ****       for (j = 0U; j <= i; j++)
 656:Drivers/CMSIS/DSP/Source/FilteringFunctions/arm_conv_partial_f32.c ****       {
 657:Drivers/CMSIS/DSP/Source/FilteringFunctions/arm_conv_partial_f32.c ****         /* Check the array limitations for inputs */
 658:Drivers/CMSIS/DSP/Source/FilteringFunctions/arm_conv_partial_f32.c ****         if ((((i - j) < srcBLen) && (j < srcALen)))
 659:Drivers/CMSIS/DSP/Source/FilteringFunctions/arm_conv_partial_f32.c ****         {
 660:Drivers/CMSIS/DSP/Source/FilteringFunctions/arm_conv_partial_f32.c ****           /* z[i] += x[i-j] * y[j] */
 661:Drivers/CMSIS/DSP/Source/FilteringFunctions/arm_conv_partial_f32.c ****           sum += pIn1[j] * pIn2[i - j];
 662:Drivers/CMSIS/DSP/Source/FilteringFunctions/arm_conv_partial_f32.c ****         }
 663:Drivers/CMSIS/DSP/Source/FilteringFunctions/arm_conv_partial_f32.c ****       }
 664:Drivers/CMSIS/DSP/Source/FilteringFunctions/arm_conv_partial_f32.c ****       /* Store the output in the destination buffer */
 665:Drivers/CMSIS/DSP/Source/FilteringFunctions/arm_conv_partial_f32.c ****       pDst[i] = sum;
 666:Drivers/CMSIS/DSP/Source/FilteringFunctions/arm_conv_partial_f32.c ****     }
 667:Drivers/CMSIS/DSP/Source/FilteringFunctions/arm_conv_partial_f32.c ****     /* set status as ARM_SUCCESS as there are no argument errors */
 668:Drivers/CMSIS/DSP/Source/FilteringFunctions/arm_conv_partial_f32.c ****     status = ARM_MATH_SUCCESS;
 669:Drivers/CMSIS/DSP/Source/FilteringFunctions/arm_conv_partial_f32.c ****   }
 670:Drivers/CMSIS/DSP/Source/FilteringFunctions/arm_conv_partial_f32.c ****   return (status);
 671:Drivers/CMSIS/DSP/Source/FilteringFunctions/arm_conv_partial_f32.c **** 
 672:Drivers/CMSIS/DSP/Source/FilteringFunctions/arm_conv_partial_f32.c **** #endif /*   #if defined (ARM_MATH_DSP) */
 673:Drivers/CMSIS/DSP/Source/FilteringFunctions/arm_conv_partial_f32.c **** 
 674:Drivers/CMSIS/DSP/Source/FilteringFunctions/arm_conv_partial_f32.c **** }
 1082              		.loc 1 674 1 is_stmt 0 view .LVU451
 1083 042a 03B0     		add	sp, sp, #12
 1084              		.cfi_remember_state
 1085              		.cfi_def_cfa_offset 36
 1086              		@ sp needed
 1087 042c BDE8F08F 		pop	{r4, r5, r6, r7, r8, r9, r10, fp, pc}
 1088              	.LVL204:
 1089              	.L42:
 1090              		.cfi_restore_state
 115:Drivers/CMSIS/DSP/Source/FilteringFunctions/arm_conv_partial_f32.c ****   }
 1091              		.loc 1 115 12 view .LVU452
 1092 0430 4FF0FF30 		mov	r0, #-1
 1093              	.LVL205:
 115:Drivers/CMSIS/DSP/Source/FilteringFunctions/arm_conv_partial_f32.c ****   }
 1094              		.loc 1 115 12 view .LVU453
 1095 0434 F9E7     		b	.L2
 1096              	.L53:
 1097 0436 00BF     		.align	2
 1098              	.L52:
 1099 0438 00000000 		.word	0
 1100              		.cfi_endproc
ARM GAS  /var/folders/n6/c271nzx11xl4r4_m7sqjlt0m0000gn/T//ccw7TAzh.s 			page 35


 1101              	.LFE135:
 1103              		.text
 1104              	.Letext0:
 1105              		.file 2 "/Users/killian/Library/Application Support/Code/User/globalStorage/bmd.stm32-for-vscode/@
 1106              		.file 3 "/Users/killian/Library/Application Support/Code/User/globalStorage/bmd.stm32-for-vscode/@
 1107              		.file 4 "Drivers/CMSIS/DSP/Include/arm_math.h"
ARM GAS  /var/folders/n6/c271nzx11xl4r4_m7sqjlt0m0000gn/T//ccw7TAzh.s 			page 36

