ARM GAS  /var/folders/n6/c271nzx11xl4r4_m7sqjlt0m0000gn/T//ccgyIYpV.s 			page 1


   1              		.cpu cortex-m7
   2              		.arch armv7e-m
   3              		.fpu fpv5-d16
   4              		.eabi_attribute 28, 1
   5              		.eabi_attribute 20, 1
   6              		.eabi_attribute 21, 1
   7              		.eabi_attribute 23, 3
   8              		.eabi_attribute 24, 1
   9              		.eabi_attribute 25, 1
  10              		.eabi_attribute 26, 1
  11              		.eabi_attribute 30, 1
  12              		.eabi_attribute 34, 1
  13              		.eabi_attribute 18, 4
  14              		.file	"arm_fir_decimate_init_q31.c"
  15              		.text
  16              	.Ltext0:
  17              		.cfi_sections	.debug_frame
  18              		.file 1 "Drivers/CMSIS/DSP/Source/FilteringFunctions/arm_fir_decimate_init_q31.c"
  19              		.section	.text.arm_fir_decimate_init_q31,"ax",%progbits
  20              		.align	1
  21              		.global	arm_fir_decimate_init_q31
  22              		.syntax unified
  23              		.thumb
  24              		.thumb_func
  26              	arm_fir_decimate_init_q31:
  27              	.LVL0:
  28              	.LFB135:
   1:Drivers/CMSIS/DSP/Source/FilteringFunctions/arm_fir_decimate_init_q31.c **** /* ----------------------------------------------------------------------
   2:Drivers/CMSIS/DSP/Source/FilteringFunctions/arm_fir_decimate_init_q31.c ****  * Project:      CMSIS DSP Library
   3:Drivers/CMSIS/DSP/Source/FilteringFunctions/arm_fir_decimate_init_q31.c ****  * Title:        arm_fir_decimate_init_q31.c
   4:Drivers/CMSIS/DSP/Source/FilteringFunctions/arm_fir_decimate_init_q31.c ****  * Description:  Initialization function for Q31 FIR Decimation filter
   5:Drivers/CMSIS/DSP/Source/FilteringFunctions/arm_fir_decimate_init_q31.c ****  *
   6:Drivers/CMSIS/DSP/Source/FilteringFunctions/arm_fir_decimate_init_q31.c ****  * $Date:        27. January 2017
   7:Drivers/CMSIS/DSP/Source/FilteringFunctions/arm_fir_decimate_init_q31.c ****  * $Revision:    V.1.5.1
   8:Drivers/CMSIS/DSP/Source/FilteringFunctions/arm_fir_decimate_init_q31.c ****  *
   9:Drivers/CMSIS/DSP/Source/FilteringFunctions/arm_fir_decimate_init_q31.c ****  * Target Processor: Cortex-M cores
  10:Drivers/CMSIS/DSP/Source/FilteringFunctions/arm_fir_decimate_init_q31.c ****  * -------------------------------------------------------------------- */
  11:Drivers/CMSIS/DSP/Source/FilteringFunctions/arm_fir_decimate_init_q31.c **** /*
  12:Drivers/CMSIS/DSP/Source/FilteringFunctions/arm_fir_decimate_init_q31.c ****  * Copyright (C) 2010-2017 ARM Limited or its affiliates. All rights reserved.
  13:Drivers/CMSIS/DSP/Source/FilteringFunctions/arm_fir_decimate_init_q31.c ****  *
  14:Drivers/CMSIS/DSP/Source/FilteringFunctions/arm_fir_decimate_init_q31.c ****  * SPDX-License-Identifier: Apache-2.0
  15:Drivers/CMSIS/DSP/Source/FilteringFunctions/arm_fir_decimate_init_q31.c ****  *
  16:Drivers/CMSIS/DSP/Source/FilteringFunctions/arm_fir_decimate_init_q31.c ****  * Licensed under the Apache License, Version 2.0 (the License); you may
  17:Drivers/CMSIS/DSP/Source/FilteringFunctions/arm_fir_decimate_init_q31.c ****  * not use this file except in compliance with the License.
  18:Drivers/CMSIS/DSP/Source/FilteringFunctions/arm_fir_decimate_init_q31.c ****  * You may obtain a copy of the License at
  19:Drivers/CMSIS/DSP/Source/FilteringFunctions/arm_fir_decimate_init_q31.c ****  *
  20:Drivers/CMSIS/DSP/Source/FilteringFunctions/arm_fir_decimate_init_q31.c ****  * www.apache.org/licenses/LICENSE-2.0
  21:Drivers/CMSIS/DSP/Source/FilteringFunctions/arm_fir_decimate_init_q31.c ****  *
  22:Drivers/CMSIS/DSP/Source/FilteringFunctions/arm_fir_decimate_init_q31.c ****  * Unless required by applicable law or agreed to in writing, software
  23:Drivers/CMSIS/DSP/Source/FilteringFunctions/arm_fir_decimate_init_q31.c ****  * distributed under the License is distributed on an AS IS BASIS, WITHOUT
  24:Drivers/CMSIS/DSP/Source/FilteringFunctions/arm_fir_decimate_init_q31.c ****  * WARRANTIES OR CONDITIONS OF ANY KIND, either express or implied.
  25:Drivers/CMSIS/DSP/Source/FilteringFunctions/arm_fir_decimate_init_q31.c ****  * See the License for the specific language governing permissions and
  26:Drivers/CMSIS/DSP/Source/FilteringFunctions/arm_fir_decimate_init_q31.c ****  * limitations under the License.
  27:Drivers/CMSIS/DSP/Source/FilteringFunctions/arm_fir_decimate_init_q31.c ****  */
  28:Drivers/CMSIS/DSP/Source/FilteringFunctions/arm_fir_decimate_init_q31.c **** 
  29:Drivers/CMSIS/DSP/Source/FilteringFunctions/arm_fir_decimate_init_q31.c **** #include "arm_math.h"
  30:Drivers/CMSIS/DSP/Source/FilteringFunctions/arm_fir_decimate_init_q31.c **** 
ARM GAS  /var/folders/n6/c271nzx11xl4r4_m7sqjlt0m0000gn/T//ccgyIYpV.s 			page 2


  31:Drivers/CMSIS/DSP/Source/FilteringFunctions/arm_fir_decimate_init_q31.c **** /**
  32:Drivers/CMSIS/DSP/Source/FilteringFunctions/arm_fir_decimate_init_q31.c ****  * @ingroup groupFilters
  33:Drivers/CMSIS/DSP/Source/FilteringFunctions/arm_fir_decimate_init_q31.c ****  */
  34:Drivers/CMSIS/DSP/Source/FilteringFunctions/arm_fir_decimate_init_q31.c **** 
  35:Drivers/CMSIS/DSP/Source/FilteringFunctions/arm_fir_decimate_init_q31.c **** /**
  36:Drivers/CMSIS/DSP/Source/FilteringFunctions/arm_fir_decimate_init_q31.c ****  * @addtogroup FIR_decimate
  37:Drivers/CMSIS/DSP/Source/FilteringFunctions/arm_fir_decimate_init_q31.c ****  * @{
  38:Drivers/CMSIS/DSP/Source/FilteringFunctions/arm_fir_decimate_init_q31.c ****  */
  39:Drivers/CMSIS/DSP/Source/FilteringFunctions/arm_fir_decimate_init_q31.c **** 
  40:Drivers/CMSIS/DSP/Source/FilteringFunctions/arm_fir_decimate_init_q31.c **** /**
  41:Drivers/CMSIS/DSP/Source/FilteringFunctions/arm_fir_decimate_init_q31.c ****  * @brief  Initialization function for the Q31 FIR decimator.
  42:Drivers/CMSIS/DSP/Source/FilteringFunctions/arm_fir_decimate_init_q31.c ****  * @param[in,out] *S points to an instance of the Q31 FIR decimator structure.
  43:Drivers/CMSIS/DSP/Source/FilteringFunctions/arm_fir_decimate_init_q31.c ****  * @param[in] numTaps  number of coefficients in the filter.
  44:Drivers/CMSIS/DSP/Source/FilteringFunctions/arm_fir_decimate_init_q31.c ****  * @param[in] M  decimation factor.
  45:Drivers/CMSIS/DSP/Source/FilteringFunctions/arm_fir_decimate_init_q31.c ****  * @param[in] *pCoeffs points to the filter coefficients.
  46:Drivers/CMSIS/DSP/Source/FilteringFunctions/arm_fir_decimate_init_q31.c ****  * @param[in] *pState points to the state buffer.
  47:Drivers/CMSIS/DSP/Source/FilteringFunctions/arm_fir_decimate_init_q31.c ****  * @param[in] blockSize number of input samples to process per call.
  48:Drivers/CMSIS/DSP/Source/FilteringFunctions/arm_fir_decimate_init_q31.c ****  * @return    The function returns ARM_MATH_SUCCESS if initialization was successful or ARM_MATH_LE
  49:Drivers/CMSIS/DSP/Source/FilteringFunctions/arm_fir_decimate_init_q31.c ****  * <code>blockSize</code> is not a multiple of <code>M</code>.
  50:Drivers/CMSIS/DSP/Source/FilteringFunctions/arm_fir_decimate_init_q31.c ****  *
  51:Drivers/CMSIS/DSP/Source/FilteringFunctions/arm_fir_decimate_init_q31.c ****  * <b>Description:</b>
  52:Drivers/CMSIS/DSP/Source/FilteringFunctions/arm_fir_decimate_init_q31.c ****  * \par
  53:Drivers/CMSIS/DSP/Source/FilteringFunctions/arm_fir_decimate_init_q31.c ****  * <code>pCoeffs</code> points to the array of filter coefficients stored in time reversed order:
  54:Drivers/CMSIS/DSP/Source/FilteringFunctions/arm_fir_decimate_init_q31.c ****  * <pre>
  55:Drivers/CMSIS/DSP/Source/FilteringFunctions/arm_fir_decimate_init_q31.c ****  *    {b[numTaps-1], b[numTaps-2], b[N-2], ..., b[1], b[0]}
  56:Drivers/CMSIS/DSP/Source/FilteringFunctions/arm_fir_decimate_init_q31.c ****  * </pre>
  57:Drivers/CMSIS/DSP/Source/FilteringFunctions/arm_fir_decimate_init_q31.c ****  * \par
  58:Drivers/CMSIS/DSP/Source/FilteringFunctions/arm_fir_decimate_init_q31.c ****  * <code>pState</code> points to the array of state variables.
  59:Drivers/CMSIS/DSP/Source/FilteringFunctions/arm_fir_decimate_init_q31.c ****  * <code>pState</code> is of length <code>numTaps+blockSize-1</code> words where <code>blockSize</c
  60:Drivers/CMSIS/DSP/Source/FilteringFunctions/arm_fir_decimate_init_q31.c ****  * <code>M</code> is the decimation factor.
  61:Drivers/CMSIS/DSP/Source/FilteringFunctions/arm_fir_decimate_init_q31.c ****  */
  62:Drivers/CMSIS/DSP/Source/FilteringFunctions/arm_fir_decimate_init_q31.c **** 
  63:Drivers/CMSIS/DSP/Source/FilteringFunctions/arm_fir_decimate_init_q31.c **** arm_status arm_fir_decimate_init_q31(
  64:Drivers/CMSIS/DSP/Source/FilteringFunctions/arm_fir_decimate_init_q31.c ****   arm_fir_decimate_instance_q31 * S,
  65:Drivers/CMSIS/DSP/Source/FilteringFunctions/arm_fir_decimate_init_q31.c ****   uint16_t numTaps,
  66:Drivers/CMSIS/DSP/Source/FilteringFunctions/arm_fir_decimate_init_q31.c ****   uint8_t M,
  67:Drivers/CMSIS/DSP/Source/FilteringFunctions/arm_fir_decimate_init_q31.c ****   q31_t * pCoeffs,
  68:Drivers/CMSIS/DSP/Source/FilteringFunctions/arm_fir_decimate_init_q31.c ****   q31_t * pState,
  69:Drivers/CMSIS/DSP/Source/FilteringFunctions/arm_fir_decimate_init_q31.c ****   uint32_t blockSize)
  70:Drivers/CMSIS/DSP/Source/FilteringFunctions/arm_fir_decimate_init_q31.c **** {
  29              		.loc 1 70 1 view -0
  30              		.cfi_startproc
  31              		@ args = 8, pretend = 0, frame = 0
  32              		@ frame_needed = 0, uses_anonymous_args = 0
  33              		.loc 1 70 1 is_stmt 0 view .LVU1
  34 0000 70B5     		push	{r4, r5, r6, lr}
  35              		.cfi_def_cfa_offset 16
  36              		.cfi_offset 4, -16
  37              		.cfi_offset 5, -12
  38              		.cfi_offset 6, -8
  39              		.cfi_offset 14, -4
  40 0002 0446     		mov	r4, r0
  41 0004 1546     		mov	r5, r2
  42 0006 049E     		ldr	r6, [sp, #16]
  43 0008 0598     		ldr	r0, [sp, #20]
  44              	.LVL1:
  71:Drivers/CMSIS/DSP/Source/FilteringFunctions/arm_fir_decimate_init_q31.c ****   arm_status status;
ARM GAS  /var/folders/n6/c271nzx11xl4r4_m7sqjlt0m0000gn/T//ccgyIYpV.s 			page 3


  45              		.loc 1 71 3 is_stmt 1 view .LVU2
  72:Drivers/CMSIS/DSP/Source/FilteringFunctions/arm_fir_decimate_init_q31.c **** 
  73:Drivers/CMSIS/DSP/Source/FilteringFunctions/arm_fir_decimate_init_q31.c ****   /* The size of the input block must be a multiple of the decimation factor */
  74:Drivers/CMSIS/DSP/Source/FilteringFunctions/arm_fir_decimate_init_q31.c ****   if ((blockSize % M) != 0U)
  46              		.loc 1 74 3 view .LVU3
  47              		.loc 1 74 18 is_stmt 0 view .LVU4
  48 000a B0FBF2F2 		udiv	r2, r0, r2
  49              	.LVL2:
  50              		.loc 1 74 18 view .LVU5
  51 000e 05FB1202 		mls	r2, r5, r2, r0
  52              		.loc 1 74 6 view .LVU6
  53 0012 62B9     		cbnz	r2, .L3
  75:Drivers/CMSIS/DSP/Source/FilteringFunctions/arm_fir_decimate_init_q31.c ****   {
  76:Drivers/CMSIS/DSP/Source/FilteringFunctions/arm_fir_decimate_init_q31.c ****     /* Set status as ARM_MATH_LENGTH_ERROR */
  77:Drivers/CMSIS/DSP/Source/FilteringFunctions/arm_fir_decimate_init_q31.c ****     status = ARM_MATH_LENGTH_ERROR;
  78:Drivers/CMSIS/DSP/Source/FilteringFunctions/arm_fir_decimate_init_q31.c ****   }
  79:Drivers/CMSIS/DSP/Source/FilteringFunctions/arm_fir_decimate_init_q31.c ****   else
  80:Drivers/CMSIS/DSP/Source/FilteringFunctions/arm_fir_decimate_init_q31.c ****   {
  81:Drivers/CMSIS/DSP/Source/FilteringFunctions/arm_fir_decimate_init_q31.c ****     /* Assign filter taps */
  82:Drivers/CMSIS/DSP/Source/FilteringFunctions/arm_fir_decimate_init_q31.c ****     S->numTaps = numTaps;
  54              		.loc 1 82 5 is_stmt 1 view .LVU7
  55              		.loc 1 82 16 is_stmt 0 view .LVU8
  56 0014 6180     		strh	r1, [r4, #2]	@ movhi
  83:Drivers/CMSIS/DSP/Source/FilteringFunctions/arm_fir_decimate_init_q31.c **** 
  84:Drivers/CMSIS/DSP/Source/FilteringFunctions/arm_fir_decimate_init_q31.c ****     /* Assign coefficient pointer */
  85:Drivers/CMSIS/DSP/Source/FilteringFunctions/arm_fir_decimate_init_q31.c ****     S->pCoeffs = pCoeffs;
  57              		.loc 1 85 5 is_stmt 1 view .LVU9
  58              		.loc 1 85 16 is_stmt 0 view .LVU10
  59 0016 6360     		str	r3, [r4, #4]
  86:Drivers/CMSIS/DSP/Source/FilteringFunctions/arm_fir_decimate_init_q31.c **** 
  87:Drivers/CMSIS/DSP/Source/FilteringFunctions/arm_fir_decimate_init_q31.c ****     /* Clear the state buffer.  The size is always (blockSize + numTaps - 1) */
  88:Drivers/CMSIS/DSP/Source/FilteringFunctions/arm_fir_decimate_init_q31.c ****     memset(pState, 0, (numTaps + (blockSize - 1)) * sizeof(q31_t));
  60              		.loc 1 88 5 is_stmt 1 view .LVU11
  61              		.loc 1 88 32 is_stmt 0 view .LVU12
  62 0018 0144     		add	r1, r1, r0
  63              	.LVL3:
  64              		.loc 1 88 32 view .LVU13
  65 001a 0139     		subs	r1, r1, #1
  66              		.loc 1 88 5 view .LVU14
  67 001c 8A00     		lsls	r2, r1, #2
  68 001e 0021     		movs	r1, #0
  69 0020 3046     		mov	r0, r6
  70 0022 FFF7FEFF 		bl	memset
  71              	.LVL4:
  89:Drivers/CMSIS/DSP/Source/FilteringFunctions/arm_fir_decimate_init_q31.c **** 
  90:Drivers/CMSIS/DSP/Source/FilteringFunctions/arm_fir_decimate_init_q31.c ****     /* Assign state pointer */
  91:Drivers/CMSIS/DSP/Source/FilteringFunctions/arm_fir_decimate_init_q31.c ****     S->pState = pState;
  72              		.loc 1 91 5 is_stmt 1 view .LVU15
  73              		.loc 1 91 15 is_stmt 0 view .LVU16
  74 0026 A660     		str	r6, [r4, #8]
  92:Drivers/CMSIS/DSP/Source/FilteringFunctions/arm_fir_decimate_init_q31.c **** 
  93:Drivers/CMSIS/DSP/Source/FilteringFunctions/arm_fir_decimate_init_q31.c ****     /* Assign Decimation factor */
  94:Drivers/CMSIS/DSP/Source/FilteringFunctions/arm_fir_decimate_init_q31.c ****     S->M = M;
  75              		.loc 1 94 5 is_stmt 1 view .LVU17
  76              		.loc 1 94 10 is_stmt 0 view .LVU18
  77 0028 2570     		strb	r5, [r4]
  95:Drivers/CMSIS/DSP/Source/FilteringFunctions/arm_fir_decimate_init_q31.c **** 
ARM GAS  /var/folders/n6/c271nzx11xl4r4_m7sqjlt0m0000gn/T//ccgyIYpV.s 			page 4


  96:Drivers/CMSIS/DSP/Source/FilteringFunctions/arm_fir_decimate_init_q31.c ****     status = ARM_MATH_SUCCESS;
  78              		.loc 1 96 5 is_stmt 1 view .LVU19
  79              	.LVL5:
  80              		.loc 1 96 12 is_stmt 0 view .LVU20
  81 002a 0020     		movs	r0, #0
  82              	.LVL6:
  83              	.L2:
  97:Drivers/CMSIS/DSP/Source/FilteringFunctions/arm_fir_decimate_init_q31.c ****   }
  98:Drivers/CMSIS/DSP/Source/FilteringFunctions/arm_fir_decimate_init_q31.c **** 
  99:Drivers/CMSIS/DSP/Source/FilteringFunctions/arm_fir_decimate_init_q31.c ****   return (status);
  84              		.loc 1 99 3 is_stmt 1 view .LVU21
 100:Drivers/CMSIS/DSP/Source/FilteringFunctions/arm_fir_decimate_init_q31.c **** 
 101:Drivers/CMSIS/DSP/Source/FilteringFunctions/arm_fir_decimate_init_q31.c **** }
  85              		.loc 1 101 1 is_stmt 0 view .LVU22
  86 002c 70BD     		pop	{r4, r5, r6, pc}
  87              	.LVL7:
  88              	.L3:
  77:Drivers/CMSIS/DSP/Source/FilteringFunctions/arm_fir_decimate_init_q31.c ****   }
  89              		.loc 1 77 12 view .LVU23
  90 002e 6FF00100 		mvn	r0, #1
  91 0032 FBE7     		b	.L2
  92              		.cfi_endproc
  93              	.LFE135:
  95              		.text
  96              	.Letext0:
  97              		.file 2 "/Users/killian/Library/Application Support/Code/User/globalStorage/bmd.stm32-for-vscode/@
  98              		.file 3 "/Users/killian/Library/Application Support/Code/User/globalStorage/bmd.stm32-for-vscode/@
  99              		.file 4 "/Users/killian/Library/Application Support/Code/User/globalStorage/bmd.stm32-for-vscode/@
 100              		.file 5 "Drivers/CMSIS/DSP/Include/arm_math.h"
 101              		.file 6 "/Users/killian/Library/Application Support/Code/User/globalStorage/bmd.stm32-for-vscode/@
 102              		.file 7 "<built-in>"
ARM GAS  /var/folders/n6/c271nzx11xl4r4_m7sqjlt0m0000gn/T//ccgyIYpV.s 			page 5

