ARM GAS  /var/folders/n6/c271nzx11xl4r4_m7sqjlt0m0000gn/T//ccDne89y.s 			page 1


   1              		.cpu cortex-m7
   2              		.arch armv7e-m
   3              		.fpu fpv5-d16
   4              		.eabi_attribute 28, 1
   5              		.eabi_attribute 20, 1
   6              		.eabi_attribute 21, 1
   7              		.eabi_attribute 23, 3
   8              		.eabi_attribute 24, 1
   9              		.eabi_attribute 25, 1
  10              		.eabi_attribute 26, 1
  11              		.eabi_attribute 30, 1
  12              		.eabi_attribute 34, 1
  13              		.eabi_attribute 18, 4
  14              		.file	"arm_correlate_q31.c"
  15              		.text
  16              	.Ltext0:
  17              		.cfi_sections	.debug_frame
  18              		.file 1 "Drivers/CMSIS/DSP/Source/FilteringFunctions/arm_correlate_q31.c"
  19              		.section	.text.arm_correlate_q31,"ax",%progbits
  20              		.align	1
  21              		.global	arm_correlate_q31
  22              		.syntax unified
  23              		.thumb
  24              		.thumb_func
  26              	arm_correlate_q31:
  27              	.LVL0:
  28              	.LFB135:
   1:Drivers/CMSIS/DSP/Source/FilteringFunctions/arm_correlate_q31.c **** /* ----------------------------------------------------------------------
   2:Drivers/CMSIS/DSP/Source/FilteringFunctions/arm_correlate_q31.c ****  * Project:      CMSIS DSP Library
   3:Drivers/CMSIS/DSP/Source/FilteringFunctions/arm_correlate_q31.c ****  * Title:        arm_correlate_q31.c
   4:Drivers/CMSIS/DSP/Source/FilteringFunctions/arm_correlate_q31.c ****  * Description:  Correlation of Q31 sequences
   5:Drivers/CMSIS/DSP/Source/FilteringFunctions/arm_correlate_q31.c ****  *
   6:Drivers/CMSIS/DSP/Source/FilteringFunctions/arm_correlate_q31.c ****  * $Date:        27. January 2017
   7:Drivers/CMSIS/DSP/Source/FilteringFunctions/arm_correlate_q31.c ****  * $Revision:    V.1.5.1
   8:Drivers/CMSIS/DSP/Source/FilteringFunctions/arm_correlate_q31.c ****  *
   9:Drivers/CMSIS/DSP/Source/FilteringFunctions/arm_correlate_q31.c ****  * Target Processor: Cortex-M cores
  10:Drivers/CMSIS/DSP/Source/FilteringFunctions/arm_correlate_q31.c ****  * -------------------------------------------------------------------- */
  11:Drivers/CMSIS/DSP/Source/FilteringFunctions/arm_correlate_q31.c **** /*
  12:Drivers/CMSIS/DSP/Source/FilteringFunctions/arm_correlate_q31.c ****  * Copyright (C) 2010-2017 ARM Limited or its affiliates. All rights reserved.
  13:Drivers/CMSIS/DSP/Source/FilteringFunctions/arm_correlate_q31.c ****  *
  14:Drivers/CMSIS/DSP/Source/FilteringFunctions/arm_correlate_q31.c ****  * SPDX-License-Identifier: Apache-2.0
  15:Drivers/CMSIS/DSP/Source/FilteringFunctions/arm_correlate_q31.c ****  *
  16:Drivers/CMSIS/DSP/Source/FilteringFunctions/arm_correlate_q31.c ****  * Licensed under the Apache License, Version 2.0 (the License); you may
  17:Drivers/CMSIS/DSP/Source/FilteringFunctions/arm_correlate_q31.c ****  * not use this file except in compliance with the License.
  18:Drivers/CMSIS/DSP/Source/FilteringFunctions/arm_correlate_q31.c ****  * You may obtain a copy of the License at
  19:Drivers/CMSIS/DSP/Source/FilteringFunctions/arm_correlate_q31.c ****  *
  20:Drivers/CMSIS/DSP/Source/FilteringFunctions/arm_correlate_q31.c ****  * www.apache.org/licenses/LICENSE-2.0
  21:Drivers/CMSIS/DSP/Source/FilteringFunctions/arm_correlate_q31.c ****  *
  22:Drivers/CMSIS/DSP/Source/FilteringFunctions/arm_correlate_q31.c ****  * Unless required by applicable law or agreed to in writing, software
  23:Drivers/CMSIS/DSP/Source/FilteringFunctions/arm_correlate_q31.c ****  * distributed under the License is distributed on an AS IS BASIS, WITHOUT
  24:Drivers/CMSIS/DSP/Source/FilteringFunctions/arm_correlate_q31.c ****  * WARRANTIES OR CONDITIONS OF ANY KIND, either express or implied.
  25:Drivers/CMSIS/DSP/Source/FilteringFunctions/arm_correlate_q31.c ****  * See the License for the specific language governing permissions and
  26:Drivers/CMSIS/DSP/Source/FilteringFunctions/arm_correlate_q31.c ****  * limitations under the License.
  27:Drivers/CMSIS/DSP/Source/FilteringFunctions/arm_correlate_q31.c ****  */
  28:Drivers/CMSIS/DSP/Source/FilteringFunctions/arm_correlate_q31.c **** 
  29:Drivers/CMSIS/DSP/Source/FilteringFunctions/arm_correlate_q31.c **** #include "arm_math.h"
  30:Drivers/CMSIS/DSP/Source/FilteringFunctions/arm_correlate_q31.c **** 
ARM GAS  /var/folders/n6/c271nzx11xl4r4_m7sqjlt0m0000gn/T//ccDne89y.s 			page 2


  31:Drivers/CMSIS/DSP/Source/FilteringFunctions/arm_correlate_q31.c **** /**
  32:Drivers/CMSIS/DSP/Source/FilteringFunctions/arm_correlate_q31.c ****  * @ingroup groupFilters
  33:Drivers/CMSIS/DSP/Source/FilteringFunctions/arm_correlate_q31.c ****  */
  34:Drivers/CMSIS/DSP/Source/FilteringFunctions/arm_correlate_q31.c **** 
  35:Drivers/CMSIS/DSP/Source/FilteringFunctions/arm_correlate_q31.c **** /**
  36:Drivers/CMSIS/DSP/Source/FilteringFunctions/arm_correlate_q31.c ****  * @addtogroup Corr
  37:Drivers/CMSIS/DSP/Source/FilteringFunctions/arm_correlate_q31.c ****  * @{
  38:Drivers/CMSIS/DSP/Source/FilteringFunctions/arm_correlate_q31.c ****  */
  39:Drivers/CMSIS/DSP/Source/FilteringFunctions/arm_correlate_q31.c **** 
  40:Drivers/CMSIS/DSP/Source/FilteringFunctions/arm_correlate_q31.c **** /**
  41:Drivers/CMSIS/DSP/Source/FilteringFunctions/arm_correlate_q31.c ****  * @brief Correlation of Q31 sequences.
  42:Drivers/CMSIS/DSP/Source/FilteringFunctions/arm_correlate_q31.c ****  * @param[in] *pSrcA points to the first input sequence.
  43:Drivers/CMSIS/DSP/Source/FilteringFunctions/arm_correlate_q31.c ****  * @param[in] srcALen length of the first input sequence.
  44:Drivers/CMSIS/DSP/Source/FilteringFunctions/arm_correlate_q31.c ****  * @param[in] *pSrcB points to the second input sequence.
  45:Drivers/CMSIS/DSP/Source/FilteringFunctions/arm_correlate_q31.c ****  * @param[in] srcBLen length of the second input sequence.
  46:Drivers/CMSIS/DSP/Source/FilteringFunctions/arm_correlate_q31.c ****  * @param[out] *pDst points to the location where the output result is written.  Length 2 * max(src
  47:Drivers/CMSIS/DSP/Source/FilteringFunctions/arm_correlate_q31.c ****  * @return none.
  48:Drivers/CMSIS/DSP/Source/FilteringFunctions/arm_correlate_q31.c ****  *
  49:Drivers/CMSIS/DSP/Source/FilteringFunctions/arm_correlate_q31.c ****  * @details
  50:Drivers/CMSIS/DSP/Source/FilteringFunctions/arm_correlate_q31.c ****  * <b>Scaling and Overflow Behavior:</b>
  51:Drivers/CMSIS/DSP/Source/FilteringFunctions/arm_correlate_q31.c ****  *
  52:Drivers/CMSIS/DSP/Source/FilteringFunctions/arm_correlate_q31.c ****  * \par
  53:Drivers/CMSIS/DSP/Source/FilteringFunctions/arm_correlate_q31.c ****  * The function is implemented using an internal 64-bit accumulator.
  54:Drivers/CMSIS/DSP/Source/FilteringFunctions/arm_correlate_q31.c ****  * The accumulator has a 2.62 format and maintains full precision of the intermediate multiplicatio
  55:Drivers/CMSIS/DSP/Source/FilteringFunctions/arm_correlate_q31.c ****  * There is no saturation on intermediate additions.
  56:Drivers/CMSIS/DSP/Source/FilteringFunctions/arm_correlate_q31.c ****  * Thus, if the accumulator overflows it wraps around and distorts the result.
  57:Drivers/CMSIS/DSP/Source/FilteringFunctions/arm_correlate_q31.c ****  * The input signals should be scaled down to avoid intermediate overflows.
  58:Drivers/CMSIS/DSP/Source/FilteringFunctions/arm_correlate_q31.c ****  * Scale down one of the inputs by 1/min(srcALen, srcBLen)to avoid overflows since a
  59:Drivers/CMSIS/DSP/Source/FilteringFunctions/arm_correlate_q31.c ****  * maximum of min(srcALen, srcBLen) number of additions is carried internally.
  60:Drivers/CMSIS/DSP/Source/FilteringFunctions/arm_correlate_q31.c ****  * The 2.62 accumulator is right shifted by 31 bits and saturated to 1.31 format to yield the final
  61:Drivers/CMSIS/DSP/Source/FilteringFunctions/arm_correlate_q31.c ****  *
  62:Drivers/CMSIS/DSP/Source/FilteringFunctions/arm_correlate_q31.c ****  * \par
  63:Drivers/CMSIS/DSP/Source/FilteringFunctions/arm_correlate_q31.c ****  * See <code>arm_correlate_fast_q31()</code> for a faster but less precise implementation of this f
  64:Drivers/CMSIS/DSP/Source/FilteringFunctions/arm_correlate_q31.c ****  */
  65:Drivers/CMSIS/DSP/Source/FilteringFunctions/arm_correlate_q31.c **** 
  66:Drivers/CMSIS/DSP/Source/FilteringFunctions/arm_correlate_q31.c **** void arm_correlate_q31(
  67:Drivers/CMSIS/DSP/Source/FilteringFunctions/arm_correlate_q31.c ****   q31_t * pSrcA,
  68:Drivers/CMSIS/DSP/Source/FilteringFunctions/arm_correlate_q31.c ****   uint32_t srcALen,
  69:Drivers/CMSIS/DSP/Source/FilteringFunctions/arm_correlate_q31.c ****   q31_t * pSrcB,
  70:Drivers/CMSIS/DSP/Source/FilteringFunctions/arm_correlate_q31.c ****   uint32_t srcBLen,
  71:Drivers/CMSIS/DSP/Source/FilteringFunctions/arm_correlate_q31.c ****   q31_t * pDst)
  72:Drivers/CMSIS/DSP/Source/FilteringFunctions/arm_correlate_q31.c **** {
  29              		.loc 1 72 1 view -0
  30              		.cfi_startproc
  31              		@ args = 4, pretend = 0, frame = 56
  32              		@ frame_needed = 0, uses_anonymous_args = 0
  33              		.loc 1 72 1 is_stmt 0 view .LVU1
  34 0000 2DE9F04F 		push	{r4, r5, r6, r7, r8, r9, r10, fp, lr}
  35              		.cfi_def_cfa_offset 36
  36              		.cfi_offset 4, -36
  37              		.cfi_offset 5, -32
  38              		.cfi_offset 6, -28
  39              		.cfi_offset 7, -24
  40              		.cfi_offset 8, -20
  41              		.cfi_offset 9, -16
  42              		.cfi_offset 10, -12
  43              		.cfi_offset 11, -8
ARM GAS  /var/folders/n6/c271nzx11xl4r4_m7sqjlt0m0000gn/T//ccDne89y.s 			page 3


  44              		.cfi_offset 14, -4
  45 0004 8FB0     		sub	sp, sp, #60
  46              		.cfi_def_cfa_offset 96
  47 0006 0790     		str	r0, [sp, #28]
  48 0008 0592     		str	r2, [sp, #20]
  49 000a 0693     		str	r3, [sp, #24]
  73:Drivers/CMSIS/DSP/Source/FilteringFunctions/arm_correlate_q31.c **** 
  74:Drivers/CMSIS/DSP/Source/FilteringFunctions/arm_correlate_q31.c **** #if defined (ARM_MATH_DSP)
  75:Drivers/CMSIS/DSP/Source/FilteringFunctions/arm_correlate_q31.c **** 
  76:Drivers/CMSIS/DSP/Source/FilteringFunctions/arm_correlate_q31.c ****   /* Run the below code for Cortex-M4 and Cortex-M3 */
  77:Drivers/CMSIS/DSP/Source/FilteringFunctions/arm_correlate_q31.c **** 
  78:Drivers/CMSIS/DSP/Source/FilteringFunctions/arm_correlate_q31.c ****   q31_t *pIn1;                                   /* inputA pointer               */
  50              		.loc 1 78 3 is_stmt 1 view .LVU2
  79:Drivers/CMSIS/DSP/Source/FilteringFunctions/arm_correlate_q31.c ****   q31_t *pIn2;                                   /* inputB pointer               */
  51              		.loc 1 79 3 view .LVU3
  80:Drivers/CMSIS/DSP/Source/FilteringFunctions/arm_correlate_q31.c ****   q31_t *pOut = pDst;                            /* output pointer               */
  52              		.loc 1 80 3 view .LVU4
  53              	.LVL1:
  81:Drivers/CMSIS/DSP/Source/FilteringFunctions/arm_correlate_q31.c ****   q31_t *px;                                     /* Intermediate inputA pointer  */
  54              		.loc 1 81 3 view .LVU5
  82:Drivers/CMSIS/DSP/Source/FilteringFunctions/arm_correlate_q31.c ****   q31_t *py;                                     /* Intermediate inputB pointer  */
  55              		.loc 1 82 3 view .LVU6
  83:Drivers/CMSIS/DSP/Source/FilteringFunctions/arm_correlate_q31.c ****   q31_t *pSrc1;                                  /* Intermediate pointers        */
  56              		.loc 1 83 3 view .LVU7
  84:Drivers/CMSIS/DSP/Source/FilteringFunctions/arm_correlate_q31.c ****   q63_t sum, acc0, acc1, acc2;                   /* Accumulators                  */
  57              		.loc 1 84 3 view .LVU8
  85:Drivers/CMSIS/DSP/Source/FilteringFunctions/arm_correlate_q31.c ****   q31_t x0, x1, x2, c0;                          /* temporary variables for holding input and coeff
  58              		.loc 1 85 3 view .LVU9
  86:Drivers/CMSIS/DSP/Source/FilteringFunctions/arm_correlate_q31.c ****   uint32_t j, k = 0U, count, blkCnt, outBlockSize, blockSize1, blockSize2, blockSize3;  /* loop cou
  59              		.loc 1 86 3 view .LVU10
  87:Drivers/CMSIS/DSP/Source/FilteringFunctions/arm_correlate_q31.c ****   int32_t inc = 1;                               /* Destination address modifier */
  60              		.loc 1 87 3 view .LVU11
  88:Drivers/CMSIS/DSP/Source/FilteringFunctions/arm_correlate_q31.c **** 
  89:Drivers/CMSIS/DSP/Source/FilteringFunctions/arm_correlate_q31.c **** 
  90:Drivers/CMSIS/DSP/Source/FilteringFunctions/arm_correlate_q31.c ****   /* The algorithm implementation is based on the lengths of the inputs. */
  91:Drivers/CMSIS/DSP/Source/FilteringFunctions/arm_correlate_q31.c ****   /* srcB is always made to slide across srcA. */
  92:Drivers/CMSIS/DSP/Source/FilteringFunctions/arm_correlate_q31.c ****   /* So srcBLen is always considered as shorter or equal to srcALen */
  93:Drivers/CMSIS/DSP/Source/FilteringFunctions/arm_correlate_q31.c ****   /* But CORR(x, y) is reverse of CORR(y, x) */
  94:Drivers/CMSIS/DSP/Source/FilteringFunctions/arm_correlate_q31.c ****   /* So, when srcBLen > srcALen, output pointer is made to point to the end of the output buffer */
  95:Drivers/CMSIS/DSP/Source/FilteringFunctions/arm_correlate_q31.c ****   /* and the destination pointer modifier, inc is set to -1 */
  96:Drivers/CMSIS/DSP/Source/FilteringFunctions/arm_correlate_q31.c ****   /* If srcALen > srcBLen, zero pad has to be done to srcB to make the two inputs of same length */
  97:Drivers/CMSIS/DSP/Source/FilteringFunctions/arm_correlate_q31.c ****   /* But to improve the performance,
  98:Drivers/CMSIS/DSP/Source/FilteringFunctions/arm_correlate_q31.c ****    * we include zeroes in the output instead of zero padding either of the the inputs*/
  99:Drivers/CMSIS/DSP/Source/FilteringFunctions/arm_correlate_q31.c ****   /* If srcALen > srcBLen,
 100:Drivers/CMSIS/DSP/Source/FilteringFunctions/arm_correlate_q31.c ****    * (srcALen - srcBLen) zeroes has to included in the starting of the output buffer */
 101:Drivers/CMSIS/DSP/Source/FilteringFunctions/arm_correlate_q31.c ****   /* If srcALen < srcBLen,
 102:Drivers/CMSIS/DSP/Source/FilteringFunctions/arm_correlate_q31.c ****    * (srcALen - srcBLen) zeroes has to included in the ending of the output buffer */
 103:Drivers/CMSIS/DSP/Source/FilteringFunctions/arm_correlate_q31.c ****   if (srcALen >= srcBLen)
  61              		.loc 1 103 3 view .LVU12
  62              		.loc 1 103 6 is_stmt 0 view .LVU13
  63 000c 9942     		cmp	r1, r3
  64 000e 1DD3     		bcc	.L2
  65 0010 1A46     		mov	r2, r3
  66              	.LVL2:
 104:Drivers/CMSIS/DSP/Source/FilteringFunctions/arm_correlate_q31.c ****   {
 105:Drivers/CMSIS/DSP/Source/FilteringFunctions/arm_correlate_q31.c ****     /* Initialization of inputA pointer */
 106:Drivers/CMSIS/DSP/Source/FilteringFunctions/arm_correlate_q31.c ****     pIn1 = (pSrcA);
ARM GAS  /var/folders/n6/c271nzx11xl4r4_m7sqjlt0m0000gn/T//ccDne89y.s 			page 4


  67              		.loc 1 106 5 is_stmt 1 view .LVU14
 107:Drivers/CMSIS/DSP/Source/FilteringFunctions/arm_correlate_q31.c **** 
 108:Drivers/CMSIS/DSP/Source/FilteringFunctions/arm_correlate_q31.c ****     /* Initialization of inputB pointer */
 109:Drivers/CMSIS/DSP/Source/FilteringFunctions/arm_correlate_q31.c ****     pIn2 = (pSrcB);
  68              		.loc 1 109 5 view .LVU15
 110:Drivers/CMSIS/DSP/Source/FilteringFunctions/arm_correlate_q31.c **** 
 111:Drivers/CMSIS/DSP/Source/FilteringFunctions/arm_correlate_q31.c ****     /* Number of output samples is calculated */
 112:Drivers/CMSIS/DSP/Source/FilteringFunctions/arm_correlate_q31.c ****     outBlockSize = (2U * srcALen) - 1U;
  69              		.loc 1 112 5 view .LVU16
  70              		.loc 1 112 24 is_stmt 0 view .LVU17
  71 0012 4B00     		lsls	r3, r1, #1
  72              	.LVL3:
  73              		.loc 1 112 18 view .LVU18
  74 0014 013B     		subs	r3, r3, #1
  75              	.LVL4:
 113:Drivers/CMSIS/DSP/Source/FilteringFunctions/arm_correlate_q31.c **** 
 114:Drivers/CMSIS/DSP/Source/FilteringFunctions/arm_correlate_q31.c ****     /* When srcALen > srcBLen, zero padding is done to srcB
 115:Drivers/CMSIS/DSP/Source/FilteringFunctions/arm_correlate_q31.c ****      * to make their lengths equal.
 116:Drivers/CMSIS/DSP/Source/FilteringFunctions/arm_correlate_q31.c ****      * Instead, (outBlockSize - (srcALen + srcBLen - 1))
 117:Drivers/CMSIS/DSP/Source/FilteringFunctions/arm_correlate_q31.c ****      * number of output samples are made zero */
 118:Drivers/CMSIS/DSP/Source/FilteringFunctions/arm_correlate_q31.c ****     j = outBlockSize - (srcALen + (srcBLen - 1U));
  76              		.loc 1 118 5 is_stmt 1 view .LVU19
  77              		.loc 1 118 33 is_stmt 0 view .LVU20
  78 0016 8A18     		adds	r2, r1, r2
  79              	.LVL5:
  80              		.loc 1 118 22 view .LVU21
  81 0018 9B1A     		subs	r3, r3, r2
  82              	.LVL6:
  83              		.loc 1 118 7 view .LVU22
  84 001a 0133     		adds	r3, r3, #1
  85              	.LVL7:
 119:Drivers/CMSIS/DSP/Source/FilteringFunctions/arm_correlate_q31.c **** 
 120:Drivers/CMSIS/DSP/Source/FilteringFunctions/arm_correlate_q31.c ****     /* Updating the pointer position to non zero value */
 121:Drivers/CMSIS/DSP/Source/FilteringFunctions/arm_correlate_q31.c ****     pOut += j;
  86              		.loc 1 121 5 is_stmt 1 view .LVU23
  87              		.loc 1 121 10 is_stmt 0 view .LVU24
  88 001c 189A     		ldr	r2, [sp, #96]
  89 001e 02EB8305 		add	r5, r2, r3, lsl #2
  90              	.LVL8:
  87:Drivers/CMSIS/DSP/Source/FilteringFunctions/arm_correlate_q31.c **** 
  91              		.loc 1 87 11 view .LVU25
  92 0022 4FF0010B 		mov	fp, #1
  93              	.LVL9:
  94              	.L3:
 122:Drivers/CMSIS/DSP/Source/FilteringFunctions/arm_correlate_q31.c **** 
 123:Drivers/CMSIS/DSP/Source/FilteringFunctions/arm_correlate_q31.c ****   }
 124:Drivers/CMSIS/DSP/Source/FilteringFunctions/arm_correlate_q31.c ****   else
 125:Drivers/CMSIS/DSP/Source/FilteringFunctions/arm_correlate_q31.c ****   {
 126:Drivers/CMSIS/DSP/Source/FilteringFunctions/arm_correlate_q31.c ****     /* Initialization of inputA pointer */
 127:Drivers/CMSIS/DSP/Source/FilteringFunctions/arm_correlate_q31.c ****     pIn1 = (pSrcB);
 128:Drivers/CMSIS/DSP/Source/FilteringFunctions/arm_correlate_q31.c **** 
 129:Drivers/CMSIS/DSP/Source/FilteringFunctions/arm_correlate_q31.c ****     /* Initialization of inputB pointer */
 130:Drivers/CMSIS/DSP/Source/FilteringFunctions/arm_correlate_q31.c ****     pIn2 = (pSrcA);
 131:Drivers/CMSIS/DSP/Source/FilteringFunctions/arm_correlate_q31.c **** 
 132:Drivers/CMSIS/DSP/Source/FilteringFunctions/arm_correlate_q31.c ****     /* srcBLen is always considered as shorter or equal to srcALen */
 133:Drivers/CMSIS/DSP/Source/FilteringFunctions/arm_correlate_q31.c ****     j = srcBLen;
 134:Drivers/CMSIS/DSP/Source/FilteringFunctions/arm_correlate_q31.c ****     srcBLen = srcALen;
ARM GAS  /var/folders/n6/c271nzx11xl4r4_m7sqjlt0m0000gn/T//ccDne89y.s 			page 5


 135:Drivers/CMSIS/DSP/Source/FilteringFunctions/arm_correlate_q31.c ****     srcALen = j;
 136:Drivers/CMSIS/DSP/Source/FilteringFunctions/arm_correlate_q31.c **** 
 137:Drivers/CMSIS/DSP/Source/FilteringFunctions/arm_correlate_q31.c ****     /* CORR(x, y) = Reverse order(CORR(y, x)) */
 138:Drivers/CMSIS/DSP/Source/FilteringFunctions/arm_correlate_q31.c ****     /* Hence set the destination pointer to point to the last output sample */
 139:Drivers/CMSIS/DSP/Source/FilteringFunctions/arm_correlate_q31.c ****     pOut = pDst + ((srcALen + srcBLen) - 2U);
 140:Drivers/CMSIS/DSP/Source/FilteringFunctions/arm_correlate_q31.c **** 
 141:Drivers/CMSIS/DSP/Source/FilteringFunctions/arm_correlate_q31.c ****     /* Destination address modifier is set to -1 */
 142:Drivers/CMSIS/DSP/Source/FilteringFunctions/arm_correlate_q31.c ****     inc = -1;
 143:Drivers/CMSIS/DSP/Source/FilteringFunctions/arm_correlate_q31.c **** 
 144:Drivers/CMSIS/DSP/Source/FilteringFunctions/arm_correlate_q31.c ****   }
 145:Drivers/CMSIS/DSP/Source/FilteringFunctions/arm_correlate_q31.c **** 
 146:Drivers/CMSIS/DSP/Source/FilteringFunctions/arm_correlate_q31.c ****   /* The function is internally
 147:Drivers/CMSIS/DSP/Source/FilteringFunctions/arm_correlate_q31.c ****    * divided into three parts according to the number of multiplications that has to be
 148:Drivers/CMSIS/DSP/Source/FilteringFunctions/arm_correlate_q31.c ****    * taken place between inputA samples and inputB samples. In the first part of the
 149:Drivers/CMSIS/DSP/Source/FilteringFunctions/arm_correlate_q31.c ****    * algorithm, the multiplications increase by one for every iteration.
 150:Drivers/CMSIS/DSP/Source/FilteringFunctions/arm_correlate_q31.c ****    * In the second part of the algorithm, srcBLen number of multiplications are done.
 151:Drivers/CMSIS/DSP/Source/FilteringFunctions/arm_correlate_q31.c ****    * In the third part of the algorithm, the multiplications decrease by one
 152:Drivers/CMSIS/DSP/Source/FilteringFunctions/arm_correlate_q31.c ****    * for every iteration.*/
 153:Drivers/CMSIS/DSP/Source/FilteringFunctions/arm_correlate_q31.c ****   /* The algorithm is implemented in three stages.
 154:Drivers/CMSIS/DSP/Source/FilteringFunctions/arm_correlate_q31.c ****    * The loop counters of each stage is initiated here. */
 155:Drivers/CMSIS/DSP/Source/FilteringFunctions/arm_correlate_q31.c ****   blockSize1 = srcBLen - 1U;
  95              		.loc 1 155 3 is_stmt 1 view .LVU26
  96              		.loc 1 155 14 is_stmt 0 view .LVU27
  97 0026 069B     		ldr	r3, [sp, #24]
  98 0028 5C1E     		subs	r4, r3, #1
  99              	.LVL10:
 156:Drivers/CMSIS/DSP/Source/FilteringFunctions/arm_correlate_q31.c ****   blockSize2 = srcALen - (srcBLen - 1U);
 100              		.loc 1 156 3 is_stmt 1 view .LVU28
 101              		.loc 1 156 24 is_stmt 0 view .LVU29
 102 002a C91A     		subs	r1, r1, r3
 103              	.LVL11:
 104              		.loc 1 156 14 view .LVU30
 105 002c 01F1010E 		add	lr, r1, #1
 106              	.LVL12:
 157:Drivers/CMSIS/DSP/Source/FilteringFunctions/arm_correlate_q31.c ****   blockSize3 = blockSize1;
 107              		.loc 1 157 3 is_stmt 1 view .LVU31
 158:Drivers/CMSIS/DSP/Source/FilteringFunctions/arm_correlate_q31.c **** 
 159:Drivers/CMSIS/DSP/Source/FilteringFunctions/arm_correlate_q31.c ****   /* --------------------------
 160:Drivers/CMSIS/DSP/Source/FilteringFunctions/arm_correlate_q31.c ****    * Initializations of stage1
 161:Drivers/CMSIS/DSP/Source/FilteringFunctions/arm_correlate_q31.c ****    * -------------------------*/
 162:Drivers/CMSIS/DSP/Source/FilteringFunctions/arm_correlate_q31.c **** 
 163:Drivers/CMSIS/DSP/Source/FilteringFunctions/arm_correlate_q31.c ****   /* sum = x[0] * y[srcBlen - 1]
 164:Drivers/CMSIS/DSP/Source/FilteringFunctions/arm_correlate_q31.c ****    * sum = x[0] * y[srcBlen - 2] + x[1] * y[srcBlen - 1]
 165:Drivers/CMSIS/DSP/Source/FilteringFunctions/arm_correlate_q31.c ****    * ....
 166:Drivers/CMSIS/DSP/Source/FilteringFunctions/arm_correlate_q31.c ****    * sum = x[0] * y[0] + x[1] * y[1] +...+ x[srcBLen - 1] * y[srcBLen - 1]
 167:Drivers/CMSIS/DSP/Source/FilteringFunctions/arm_correlate_q31.c ****    */
 168:Drivers/CMSIS/DSP/Source/FilteringFunctions/arm_correlate_q31.c **** 
 169:Drivers/CMSIS/DSP/Source/FilteringFunctions/arm_correlate_q31.c ****   /* In this stage the MAC operations are increased by 1 for every iteration.
 170:Drivers/CMSIS/DSP/Source/FilteringFunctions/arm_correlate_q31.c ****      The count variable holds the number of MAC operations performed */
 171:Drivers/CMSIS/DSP/Source/FilteringFunctions/arm_correlate_q31.c ****   count = 1U;
 108              		.loc 1 171 3 view .LVU32
 172:Drivers/CMSIS/DSP/Source/FilteringFunctions/arm_correlate_q31.c **** 
 173:Drivers/CMSIS/DSP/Source/FilteringFunctions/arm_correlate_q31.c ****   /* Working pointer of inputA */
 174:Drivers/CMSIS/DSP/Source/FilteringFunctions/arm_correlate_q31.c ****   px = pIn1;
 109              		.loc 1 174 3 view .LVU33
 175:Drivers/CMSIS/DSP/Source/FilteringFunctions/arm_correlate_q31.c **** 
 176:Drivers/CMSIS/DSP/Source/FilteringFunctions/arm_correlate_q31.c ****   /* Working pointer of inputB */
ARM GAS  /var/folders/n6/c271nzx11xl4r4_m7sqjlt0m0000gn/T//ccDne89y.s 			page 6


 177:Drivers/CMSIS/DSP/Source/FilteringFunctions/arm_correlate_q31.c ****   pSrc1 = pIn2 + (srcBLen - 1U);
 110              		.loc 1 177 3 view .LVU34
 111              		.loc 1 177 16 is_stmt 0 view .LVU35
 112 0030 6FF04047 		mvn	r7, #-1073741824
 113 0034 1F44     		add	r7, r7, r3
 114              		.loc 1 177 9 view .LVU36
 115 0036 059B     		ldr	r3, [sp, #20]
 116 0038 03EB8701 		add	r1, r3, r7, lsl #2
 117              	.LVL13:
 178:Drivers/CMSIS/DSP/Source/FilteringFunctions/arm_correlate_q31.c ****   py = pSrc1;
 118              		.loc 1 178 3 is_stmt 1 view .LVU37
 179:Drivers/CMSIS/DSP/Source/FilteringFunctions/arm_correlate_q31.c **** 
 180:Drivers/CMSIS/DSP/Source/FilteringFunctions/arm_correlate_q31.c ****   /* ------------------------
 181:Drivers/CMSIS/DSP/Source/FilteringFunctions/arm_correlate_q31.c ****    * Stage1 process
 182:Drivers/CMSIS/DSP/Source/FilteringFunctions/arm_correlate_q31.c ****    * ----------------------*/
 183:Drivers/CMSIS/DSP/Source/FilteringFunctions/arm_correlate_q31.c **** 
 184:Drivers/CMSIS/DSP/Source/FilteringFunctions/arm_correlate_q31.c ****   /* The first stage starts here */
 185:Drivers/CMSIS/DSP/Source/FilteringFunctions/arm_correlate_q31.c ****   while (blockSize1 > 0U)
 119              		.loc 1 185 3 view .LVU38
 178:Drivers/CMSIS/DSP/Source/FilteringFunctions/arm_correlate_q31.c ****   py = pSrc1;
 120              		.loc 1 178 6 is_stmt 0 view .LVU39
 121 003c 0A46     		mov	r2, r1
 171:Drivers/CMSIS/DSP/Source/FilteringFunctions/arm_correlate_q31.c **** 
 122              		.loc 1 171 9 view .LVU40
 123 003e 0126     		movs	r6, #1
 124 0040 0095     		str	r5, [sp]
 125 0042 2546     		mov	r5, r4
 126              	.LVL14:
 171:Drivers/CMSIS/DSP/Source/FilteringFunctions/arm_correlate_q31.c **** 
 127              		.loc 1 171 9 view .LVU41
 128 0044 2046     		mov	r0, r4
 129 0046 F246     		mov	r10, lr
 130 0048 8846     		mov	r8, r1
 131              		.loc 1 185 9 view .LVU42
 132 004a 80E0     		b	.L4
 133              	.LVL15:
 134              	.L2:
 127:Drivers/CMSIS/DSP/Source/FilteringFunctions/arm_correlate_q31.c **** 
 135              		.loc 1 127 5 is_stmt 1 view .LVU43
 130:Drivers/CMSIS/DSP/Source/FilteringFunctions/arm_correlate_q31.c **** 
 136              		.loc 1 130 5 view .LVU44
 133:Drivers/CMSIS/DSP/Source/FilteringFunctions/arm_correlate_q31.c ****     srcBLen = srcALen;
 137              		.loc 1 133 5 view .LVU45
 134:Drivers/CMSIS/DSP/Source/FilteringFunctions/arm_correlate_q31.c ****     srcALen = j;
 138              		.loc 1 134 5 view .LVU46
 135:Drivers/CMSIS/DSP/Source/FilteringFunctions/arm_correlate_q31.c **** 
 139              		.loc 1 135 5 view .LVU47
 139:Drivers/CMSIS/DSP/Source/FilteringFunctions/arm_correlate_q31.c **** 
 140              		.loc 1 139 5 view .LVU48
 139:Drivers/CMSIS/DSP/Source/FilteringFunctions/arm_correlate_q31.c **** 
 141              		.loc 1 139 29 is_stmt 0 view .LVU49
 142 004c 0698     		ldr	r0, [sp, #24]
 143              	.LVL16:
 139:Drivers/CMSIS/DSP/Source/FilteringFunctions/arm_correlate_q31.c **** 
 144              		.loc 1 139 29 view .LVU50
 145 004e 0A18     		adds	r2, r1, r0
 146              	.LVL17:
ARM GAS  /var/folders/n6/c271nzx11xl4r4_m7sqjlt0m0000gn/T//ccDne89y.s 			page 7


 139:Drivers/CMSIS/DSP/Source/FilteringFunctions/arm_correlate_q31.c **** 
 147              		.loc 1 139 17 view .LVU51
 148 0050 4D4D     		ldr	r5, .L42
 149 0052 1544     		add	r5, r5, r2
 139:Drivers/CMSIS/DSP/Source/FilteringFunctions/arm_correlate_q31.c **** 
 150              		.loc 1 139 10 view .LVU52
 151 0054 189B     		ldr	r3, [sp, #96]
 152 0056 03EB8505 		add	r5, r3, r5, lsl #2
 153              	.LVL18:
 142:Drivers/CMSIS/DSP/Source/FilteringFunctions/arm_correlate_q31.c **** 
 154              		.loc 1 142 5 is_stmt 1 view .LVU53
 139:Drivers/CMSIS/DSP/Source/FilteringFunctions/arm_correlate_q31.c **** 
 155              		.loc 1 139 10 is_stmt 0 view .LVU54
 156 005a 079B     		ldr	r3, [sp, #28]
 127:Drivers/CMSIS/DSP/Source/FilteringFunctions/arm_correlate_q31.c **** 
 157              		.loc 1 127 10 view .LVU55
 158 005c 059A     		ldr	r2, [sp, #20]
 159 005e 0792     		str	r2, [sp, #28]
 160              	.LVL19:
 130:Drivers/CMSIS/DSP/Source/FilteringFunctions/arm_correlate_q31.c **** 
 161              		.loc 1 130 10 view .LVU56
 162 0060 0593     		str	r3, [sp, #20]
 163              	.LVL20:
 139:Drivers/CMSIS/DSP/Source/FilteringFunctions/arm_correlate_q31.c **** 
 164              		.loc 1 139 10 view .LVU57
 165 0062 0B46     		mov	r3, r1
 166              	.LVL21:
 135:Drivers/CMSIS/DSP/Source/FilteringFunctions/arm_correlate_q31.c **** 
 167              		.loc 1 135 13 view .LVU58
 168 0064 0146     		mov	r1, r0
 169              	.LVL22:
 134:Drivers/CMSIS/DSP/Source/FilteringFunctions/arm_correlate_q31.c ****     srcALen = j;
 170              		.loc 1 134 13 view .LVU59
 171 0066 0693     		str	r3, [sp, #24]
 172              	.LVL23:
 142:Drivers/CMSIS/DSP/Source/FilteringFunctions/arm_correlate_q31.c **** 
 173              		.loc 1 142 9 view .LVU60
 174 0068 4FF0FF3B 		mov	fp, #-1
 175 006c DBE7     		b	.L3
 176              	.LVL24:
 177              	.L6:
 186:Drivers/CMSIS/DSP/Source/FilteringFunctions/arm_correlate_q31.c ****   {
 187:Drivers/CMSIS/DSP/Source/FilteringFunctions/arm_correlate_q31.c ****     /* Accumulator is made zero for every iteration */
 188:Drivers/CMSIS/DSP/Source/FilteringFunctions/arm_correlate_q31.c ****     sum = 0;
 189:Drivers/CMSIS/DSP/Source/FilteringFunctions/arm_correlate_q31.c **** 
 190:Drivers/CMSIS/DSP/Source/FilteringFunctions/arm_correlate_q31.c ****     /* Apply loop unrolling and compute 4 MACs simultaneously. */
 191:Drivers/CMSIS/DSP/Source/FilteringFunctions/arm_correlate_q31.c ****     k = count >> 2;
 192:Drivers/CMSIS/DSP/Source/FilteringFunctions/arm_correlate_q31.c **** 
 193:Drivers/CMSIS/DSP/Source/FilteringFunctions/arm_correlate_q31.c ****     /* First part of the processing with loop unrolling.  Compute 4 MACs at a time.
 194:Drivers/CMSIS/DSP/Source/FilteringFunctions/arm_correlate_q31.c ****      ** a second loop below computes MACs for the remaining 1 to 3 samples. */
 195:Drivers/CMSIS/DSP/Source/FilteringFunctions/arm_correlate_q31.c ****     while (k > 0U)
 196:Drivers/CMSIS/DSP/Source/FilteringFunctions/arm_correlate_q31.c ****     {
 197:Drivers/CMSIS/DSP/Source/FilteringFunctions/arm_correlate_q31.c ****       /* x[0] * y[srcBLen - 4] */
 198:Drivers/CMSIS/DSP/Source/FilteringFunctions/arm_correlate_q31.c ****       sum += (q63_t) * px++ * (*py++);
 178              		.loc 1 198 7 is_stmt 1 view .LVU61
 179              		.loc 1 198 22 is_stmt 0 view .LVU62
 180 006e DCF80060 		ldr	r6, [ip]
ARM GAS  /var/folders/n6/c271nzx11xl4r4_m7sqjlt0m0000gn/T//ccDne89y.s 			page 8


 181              		.loc 1 198 14 view .LVU63
 182 0072 4FEAE67E 		asr	lr, r6, #31
 183              	.LVL25:
 184              		.loc 1 198 32 view .LVU64
 185 0076 1768     		ldr	r7, [r2]
 186 0078 FC17     		asrs	r4, r7, #31
 187              		.loc 1 198 29 view .LVU65
 188 007a 06FB04F4 		mul	r4, r6, r4
 189 007e 07FB0E44 		mla	r4, r7, lr, r4
 190 0082 A6FB07E6 		umull	lr, r6, r6, r7
 191 0086 2644     		add	r6, r6, r4
 192              		.loc 1 198 11 view .LVU66
 193 0088 13EB0E04 		adds	r4, r3, lr
 194 008c 46EB0907 		adc	r7, r6, r9
 195              	.LVL26:
 199:Drivers/CMSIS/DSP/Source/FilteringFunctions/arm_correlate_q31.c ****       /* x[1] * y[srcBLen - 3] */
 200:Drivers/CMSIS/DSP/Source/FilteringFunctions/arm_correlate_q31.c ****       sum += (q63_t) * px++ * (*py++);
 196              		.loc 1 200 7 is_stmt 1 view .LVU67
 197              		.loc 1 200 22 is_stmt 0 view .LVU68
 198 0090 DCF80460 		ldr	r6, [ip, #4]
 199              		.loc 1 200 14 view .LVU69
 200 0094 4FEAE679 		asr	r9, r6, #31
 201              	.LVL27:
 202              		.loc 1 200 32 view .LVU70
 203 0098 5368     		ldr	r3, [r2, #4]
 204 009a 4FEAE37E 		asr	lr, r3, #31
 205              		.loc 1 200 29 view .LVU71
 206 009e 06FB0EFE 		mul	lr, r6, lr
 207 00a2 03FB09EE 		mla	lr, r3, r9, lr
 208 00a6 A6FB0336 		umull	r3, r6, r6, r3
 209 00aa 7644     		add	r6, r6, lr
 210              		.loc 1 200 11 view .LVU72
 211 00ac E318     		adds	r3, r4, r3
 212 00ae 46EB0706 		adc	r6, r6, r7
 213              	.LVL28:
 201:Drivers/CMSIS/DSP/Source/FilteringFunctions/arm_correlate_q31.c ****       /* x[2] * y[srcBLen - 2] */
 202:Drivers/CMSIS/DSP/Source/FilteringFunctions/arm_correlate_q31.c ****       sum += (q63_t) * px++ * (*py++);
 214              		.loc 1 202 7 is_stmt 1 view .LVU73
 215              		.loc 1 202 22 is_stmt 0 view .LVU74
 216 00b2 DCF80840 		ldr	r4, [ip, #8]
 217              		.loc 1 202 14 view .LVU75
 218 00b6 4FEAE479 		asr	r9, r4, #31
 219              	.LVL29:
 220              		.loc 1 202 32 view .LVU76
 221 00ba 9768     		ldr	r7, [r2, #8]
 222 00bc 4FEAE77E 		asr	lr, r7, #31
 223              		.loc 1 202 29 view .LVU77
 224 00c0 04FB0EFE 		mul	lr, r4, lr
 225 00c4 07FB09EE 		mla	lr, r7, r9, lr
 226 00c8 A4FB0774 		umull	r7, r4, r4, r7
 227 00cc 7444     		add	r4, r4, lr
 228              		.loc 1 202 11 view .LVU78
 229 00ce DF19     		adds	r7, r3, r7
 230 00d0 44EB0606 		adc	r6, r4, r6
 231              	.LVL30:
 203:Drivers/CMSIS/DSP/Source/FilteringFunctions/arm_correlate_q31.c ****       /* x[3] * y[srcBLen - 1] */
 204:Drivers/CMSIS/DSP/Source/FilteringFunctions/arm_correlate_q31.c ****       sum += (q63_t) * px++ * (*py++);
ARM GAS  /var/folders/n6/c271nzx11xl4r4_m7sqjlt0m0000gn/T//ccDne89y.s 			page 9


 232              		.loc 1 204 7 is_stmt 1 view .LVU79
 233              		.loc 1 204 22 is_stmt 0 view .LVU80
 234 00d4 DCF80C30 		ldr	r3, [ip, #12]
 235              		.loc 1 204 14 view .LVU81
 236 00d8 4FEAE379 		asr	r9, r3, #31
 237              	.LVL31:
 238              		.loc 1 204 32 view .LVU82
 239 00dc D468     		ldr	r4, [r2, #12]
 240 00de 4FEAE47E 		asr	lr, r4, #31
 241              		.loc 1 204 29 view .LVU83
 242 00e2 03FB0EFE 		mul	lr, r3, lr
 243 00e6 04FB09EE 		mla	lr, r4, r9, lr
 244 00ea A3FB0449 		umull	r4, r9, r3, r4
 245 00ee F144     		add	r9, r9, lr
 246              		.loc 1 204 11 view .LVU84
 247 00f0 3B19     		adds	r3, r7, r4
 248 00f2 49EB0609 		adc	r9, r9, r6
 249              	.LVL32:
 205:Drivers/CMSIS/DSP/Source/FilteringFunctions/arm_correlate_q31.c **** 
 206:Drivers/CMSIS/DSP/Source/FilteringFunctions/arm_correlate_q31.c ****       /* Decrement the loop counter */
 207:Drivers/CMSIS/DSP/Source/FilteringFunctions/arm_correlate_q31.c ****       k--;
 250              		.loc 1 207 7 is_stmt 1 view .LVU85
 251              		.loc 1 207 8 is_stmt 0 view .LVU86
 252 00f6 0139     		subs	r1, r1, #1
 253              	.LVL33:
 204:Drivers/CMSIS/DSP/Source/FilteringFunctions/arm_correlate_q31.c **** 
 254              		.loc 1 204 35 view .LVU87
 255 00f8 1032     		adds	r2, r2, #16
 256              	.LVL34:
 204:Drivers/CMSIS/DSP/Source/FilteringFunctions/arm_correlate_q31.c **** 
 257              		.loc 1 204 26 view .LVU88
 258 00fa 0CF1100C 		add	ip, ip, #16
 259              	.LVL35:
 260              	.L5:
 195:Drivers/CMSIS/DSP/Source/FilteringFunctions/arm_correlate_q31.c ****     {
 261              		.loc 1 195 14 is_stmt 1 view .LVU89
 262 00fe 0029     		cmp	r1, #0
 263 0100 B5D1     		bne	.L6
 208:Drivers/CMSIS/DSP/Source/FilteringFunctions/arm_correlate_q31.c ****     }
 209:Drivers/CMSIS/DSP/Source/FilteringFunctions/arm_correlate_q31.c **** 
 210:Drivers/CMSIS/DSP/Source/FilteringFunctions/arm_correlate_q31.c ****     /* If the count is not a multiple of 4, compute any remaining MACs here.
 211:Drivers/CMSIS/DSP/Source/FilteringFunctions/arm_correlate_q31.c ****      ** No loop unrolling is used. */
 212:Drivers/CMSIS/DSP/Source/FilteringFunctions/arm_correlate_q31.c ****     k = count % 0x4U;
 264              		.loc 1 212 7 is_stmt 0 view .LVU90
 265 0102 019E     		ldr	r6, [sp, #4]
 266              		.loc 1 212 5 is_stmt 1 view .LVU91
 267              		.loc 1 212 7 is_stmt 0 view .LVU92
 268 0104 06F00307 		and	r7, r6, #3
 269              	.LVL36:
 213:Drivers/CMSIS/DSP/Source/FilteringFunctions/arm_correlate_q31.c **** 
 214:Drivers/CMSIS/DSP/Source/FilteringFunctions/arm_correlate_q31.c ****     while (k > 0U)
 270              		.loc 1 214 5 is_stmt 1 view .LVU93
 271              		.loc 1 214 11 is_stmt 0 view .LVU94
 272 0108 12E0     		b	.L7
 273              	.L8:
 215:Drivers/CMSIS/DSP/Source/FilteringFunctions/arm_correlate_q31.c ****     {
 216:Drivers/CMSIS/DSP/Source/FilteringFunctions/arm_correlate_q31.c ****       /* Perform the multiply-accumulates */
ARM GAS  /var/folders/n6/c271nzx11xl4r4_m7sqjlt0m0000gn/T//ccDne89y.s 			page 10


 217:Drivers/CMSIS/DSP/Source/FilteringFunctions/arm_correlate_q31.c ****       /* x[0] * y[srcBLen - 1] */
 218:Drivers/CMSIS/DSP/Source/FilteringFunctions/arm_correlate_q31.c ****       sum += (q63_t) * px++ * (*py++);
 274              		.loc 1 218 7 is_stmt 1 view .LVU95
 275              	.LVL37:
 276              		.loc 1 218 22 is_stmt 0 view .LVU96
 277 010a 5CF8041B 		ldr	r1, [ip], #4
 278              	.LVL38:
 279              		.loc 1 218 14 view .LVU97
 280 010e 4FEAE17E 		asr	lr, r1, #31
 281              	.LVL39:
 282              		.loc 1 218 32 view .LVU98
 283 0112 52F8044B 		ldr	r4, [r2], #4
 284              	.LVL40:
 285              		.loc 1 218 32 view .LVU99
 286 0116 E617     		asrs	r6, r4, #31
 287              		.loc 1 218 29 view .LVU100
 288 0118 01FB06F6 		mul	r6, r1, r6
 289 011c 04FB0E66 		mla	r6, r4, lr, r6
 290 0120 A1FB0414 		umull	r1, r4, r1, r4
 291 0124 3444     		add	r4, r4, r6
 292              		.loc 1 218 11 view .LVU101
 293 0126 5918     		adds	r1, r3, r1
 294 0128 0B46     		mov	r3, r1
 295              	.LVL41:
 296              		.loc 1 218 11 view .LVU102
 297 012a 44EB0909 		adc	r9, r4, r9
 298              	.LVL42:
 219:Drivers/CMSIS/DSP/Source/FilteringFunctions/arm_correlate_q31.c **** 
 220:Drivers/CMSIS/DSP/Source/FilteringFunctions/arm_correlate_q31.c ****       /* Decrement the loop counter */
 221:Drivers/CMSIS/DSP/Source/FilteringFunctions/arm_correlate_q31.c ****       k--;
 299              		.loc 1 221 7 is_stmt 1 view .LVU103
 300              		.loc 1 221 8 is_stmt 0 view .LVU104
 301 012e 013F     		subs	r7, r7, #1
 302              	.LVL43:
 303              	.L7:
 214:Drivers/CMSIS/DSP/Source/FilteringFunctions/arm_correlate_q31.c ****     {
 304              		.loc 1 214 14 is_stmt 1 view .LVU105
 305 0130 002F     		cmp	r7, #0
 306 0132 EAD1     		bne	.L8
 222:Drivers/CMSIS/DSP/Source/FilteringFunctions/arm_correlate_q31.c ****     }
 223:Drivers/CMSIS/DSP/Source/FilteringFunctions/arm_correlate_q31.c **** 
 224:Drivers/CMSIS/DSP/Source/FilteringFunctions/arm_correlate_q31.c ****     /* Store the result in the accumulator in the destination buffer. */
 225:Drivers/CMSIS/DSP/Source/FilteringFunctions/arm_correlate_q31.c ****     *pOut = (q31_t) (sum >> 31);
 307              		.loc 1 225 26 is_stmt 0 view .LVU106
 308 0134 019E     		ldr	r6, [sp, #4]
 309              		.loc 1 225 5 is_stmt 1 view .LVU107
 310              		.loc 1 225 26 is_stmt 0 view .LVU108
 311 0136 DB0F     		lsrs	r3, r3, #31
 312              	.LVL44:
 313              		.loc 1 225 26 view .LVU109
 314 0138 43EA4903 		orr	r3, r3, r9, lsl #1
 315              		.loc 1 225 11 view .LVU110
 316 013c 009A     		ldr	r2, [sp]
 317              	.LVL45:
 318              		.loc 1 225 11 view .LVU111
 319 013e 1360     		str	r3, [r2]
 226:Drivers/CMSIS/DSP/Source/FilteringFunctions/arm_correlate_q31.c ****     /* Destination pointer is updated according to the address modifier, inc */
ARM GAS  /var/folders/n6/c271nzx11xl4r4_m7sqjlt0m0000gn/T//ccDne89y.s 			page 11


 227:Drivers/CMSIS/DSP/Source/FilteringFunctions/arm_correlate_q31.c ****     pOut += inc;
 320              		.loc 1 227 5 is_stmt 1 view .LVU112
 321              		.loc 1 227 10 is_stmt 0 view .LVU113
 322 0140 02EB8B03 		add	r3, r2, fp, lsl #2
 323 0144 0093     		str	r3, [sp]
 324              	.LVL46:
 228:Drivers/CMSIS/DSP/Source/FilteringFunctions/arm_correlate_q31.c **** 
 229:Drivers/CMSIS/DSP/Source/FilteringFunctions/arm_correlate_q31.c ****     /* Update the inputA and inputB pointers for next MAC calculation */
 230:Drivers/CMSIS/DSP/Source/FilteringFunctions/arm_correlate_q31.c ****     py = pSrc1 - count;
 325              		.loc 1 230 5 is_stmt 1 view .LVU114
 326              		.loc 1 230 8 is_stmt 0 view .LVU115
 327 0146 A8EB8602 		sub	r2, r8, r6, lsl #2
 328              	.LVL47:
 231:Drivers/CMSIS/DSP/Source/FilteringFunctions/arm_correlate_q31.c ****     px = pIn1;
 329              		.loc 1 231 5 is_stmt 1 view .LVU116
 232:Drivers/CMSIS/DSP/Source/FilteringFunctions/arm_correlate_q31.c **** 
 233:Drivers/CMSIS/DSP/Source/FilteringFunctions/arm_correlate_q31.c ****     /* Increment the MAC count */
 234:Drivers/CMSIS/DSP/Source/FilteringFunctions/arm_correlate_q31.c ****     count++;
 330              		.loc 1 234 5 view .LVU117
 331              		.loc 1 234 10 is_stmt 0 view .LVU118
 332 014a 0136     		adds	r6, r6, #1
 333              	.LVL48:
 235:Drivers/CMSIS/DSP/Source/FilteringFunctions/arm_correlate_q31.c **** 
 236:Drivers/CMSIS/DSP/Source/FilteringFunctions/arm_correlate_q31.c ****     /* Decrement the loop counter */
 237:Drivers/CMSIS/DSP/Source/FilteringFunctions/arm_correlate_q31.c ****     blockSize1--;
 334              		.loc 1 237 5 is_stmt 1 view .LVU119
 335              		.loc 1 237 15 is_stmt 0 view .LVU120
 336 014c 013D     		subs	r5, r5, #1
 337              	.LVL49:
 338              	.L4:
 185:Drivers/CMSIS/DSP/Source/FilteringFunctions/arm_correlate_q31.c ****   {
 339              		.loc 1 185 21 is_stmt 1 view .LVU121
 340 014e 35B1     		cbz	r5, .L34
 188:Drivers/CMSIS/DSP/Source/FilteringFunctions/arm_correlate_q31.c **** 
 341              		.loc 1 188 5 view .LVU122
 342              	.LVL50:
 191:Drivers/CMSIS/DSP/Source/FilteringFunctions/arm_correlate_q31.c **** 
 343              		.loc 1 191 5 view .LVU123
 191:Drivers/CMSIS/DSP/Source/FilteringFunctions/arm_correlate_q31.c **** 
 344              		.loc 1 191 7 is_stmt 0 view .LVU124
 345 0150 B108     		lsrs	r1, r6, #2
 346              	.LVL51:
 195:Drivers/CMSIS/DSP/Source/FilteringFunctions/arm_correlate_q31.c ****     {
 347              		.loc 1 195 5 is_stmt 1 view .LVU125
 195:Drivers/CMSIS/DSP/Source/FilteringFunctions/arm_correlate_q31.c ****     {
 348              		.loc 1 195 11 is_stmt 0 view .LVU126
 349 0152 DDF81CC0 		ldr	ip, [sp, #28]
 188:Drivers/CMSIS/DSP/Source/FilteringFunctions/arm_correlate_q31.c **** 
 350              		.loc 1 188 9 view .LVU127
 351 0156 0023     		movs	r3, #0
 352 0158 9946     		mov	r9, r3
 353 015a 0196     		str	r6, [sp, #4]
 195:Drivers/CMSIS/DSP/Source/FilteringFunctions/arm_correlate_q31.c ****     {
 354              		.loc 1 195 11 view .LVU128
 355 015c CFE7     		b	.L5
 356              	.LVL52:
 357              	.L34:
ARM GAS  /var/folders/n6/c271nzx11xl4r4_m7sqjlt0m0000gn/T//ccDne89y.s 			page 12


 238:Drivers/CMSIS/DSP/Source/FilteringFunctions/arm_correlate_q31.c ****   }
 239:Drivers/CMSIS/DSP/Source/FilteringFunctions/arm_correlate_q31.c **** 
 240:Drivers/CMSIS/DSP/Source/FilteringFunctions/arm_correlate_q31.c ****   /* --------------------------
 241:Drivers/CMSIS/DSP/Source/FilteringFunctions/arm_correlate_q31.c ****    * Initializations of stage2
 242:Drivers/CMSIS/DSP/Source/FilteringFunctions/arm_correlate_q31.c ****    * ------------------------*/
 243:Drivers/CMSIS/DSP/Source/FilteringFunctions/arm_correlate_q31.c **** 
 244:Drivers/CMSIS/DSP/Source/FilteringFunctions/arm_correlate_q31.c ****   /* sum = x[0] * y[0] + x[1] * y[1] +...+ x[srcBLen-1] * y[srcBLen-1]
 245:Drivers/CMSIS/DSP/Source/FilteringFunctions/arm_correlate_q31.c ****    * sum = x[1] * y[0] + x[2] * y[1] +...+ x[srcBLen] * y[srcBLen-1]
 246:Drivers/CMSIS/DSP/Source/FilteringFunctions/arm_correlate_q31.c ****    * ....
 247:Drivers/CMSIS/DSP/Source/FilteringFunctions/arm_correlate_q31.c ****    * sum = x[srcALen-srcBLen-2] * y[0] + x[srcALen-srcBLen-1] * y[1] +...+ x[srcALen-1] * y[srcBLen
 248:Drivers/CMSIS/DSP/Source/FilteringFunctions/arm_correlate_q31.c ****    */
 249:Drivers/CMSIS/DSP/Source/FilteringFunctions/arm_correlate_q31.c **** 
 250:Drivers/CMSIS/DSP/Source/FilteringFunctions/arm_correlate_q31.c ****   /* Working pointer of inputA */
 251:Drivers/CMSIS/DSP/Source/FilteringFunctions/arm_correlate_q31.c ****   px = pIn1;
 252:Drivers/CMSIS/DSP/Source/FilteringFunctions/arm_correlate_q31.c **** 
 253:Drivers/CMSIS/DSP/Source/FilteringFunctions/arm_correlate_q31.c ****   /* Working pointer of inputB */
 254:Drivers/CMSIS/DSP/Source/FilteringFunctions/arm_correlate_q31.c ****   py = pIn2;
 255:Drivers/CMSIS/DSP/Source/FilteringFunctions/arm_correlate_q31.c **** 
 256:Drivers/CMSIS/DSP/Source/FilteringFunctions/arm_correlate_q31.c ****   /* count is index by which the pointer pIn1 to be incremented */
 257:Drivers/CMSIS/DSP/Source/FilteringFunctions/arm_correlate_q31.c ****   count = 0U;
 258:Drivers/CMSIS/DSP/Source/FilteringFunctions/arm_correlate_q31.c **** 
 259:Drivers/CMSIS/DSP/Source/FilteringFunctions/arm_correlate_q31.c ****   /* -------------------
 260:Drivers/CMSIS/DSP/Source/FilteringFunctions/arm_correlate_q31.c ****    * Stage2 process
 261:Drivers/CMSIS/DSP/Source/FilteringFunctions/arm_correlate_q31.c ****    * ------------------*/
 262:Drivers/CMSIS/DSP/Source/FilteringFunctions/arm_correlate_q31.c **** 
 263:Drivers/CMSIS/DSP/Source/FilteringFunctions/arm_correlate_q31.c ****   /* Stage2 depends on srcBLen as in this stage srcBLen number of MACS are performed.
 264:Drivers/CMSIS/DSP/Source/FilteringFunctions/arm_correlate_q31.c ****    * So, to loop unroll over blockSize2,
 265:Drivers/CMSIS/DSP/Source/FilteringFunctions/arm_correlate_q31.c ****    * srcBLen should be greater than or equal to 4 */
 266:Drivers/CMSIS/DSP/Source/FilteringFunctions/arm_correlate_q31.c ****   if (srcBLen >= 4U)
 358              		.loc 1 266 6 view .LVU129
 359 015e 0446     		mov	r4, r0
 360 0160 D646     		mov	lr, r10
 361 0162 AA46     		mov	r10, r5
 362              	.LVL53:
 363              		.loc 1 266 6 view .LVU130
 364 0164 009D     		ldr	r5, [sp]
 365              	.LVL54:
 251:Drivers/CMSIS/DSP/Source/FilteringFunctions/arm_correlate_q31.c **** 
 366              		.loc 1 251 3 is_stmt 1 view .LVU131
 254:Drivers/CMSIS/DSP/Source/FilteringFunctions/arm_correlate_q31.c **** 
 367              		.loc 1 254 3 view .LVU132
 257:Drivers/CMSIS/DSP/Source/FilteringFunctions/arm_correlate_q31.c **** 
 368              		.loc 1 257 3 view .LVU133
 369              		.loc 1 266 3 view .LVU134
 370              		.loc 1 266 6 is_stmt 0 view .LVU135
 371 0166 069B     		ldr	r3, [sp, #24]
 372 0168 032B     		cmp	r3, #3
 373 016a 40F2ED81 		bls	.L31
 267:Drivers/CMSIS/DSP/Source/FilteringFunctions/arm_correlate_q31.c ****   {
 268:Drivers/CMSIS/DSP/Source/FilteringFunctions/arm_correlate_q31.c ****     /* Loop unroll by 3 */
 269:Drivers/CMSIS/DSP/Source/FilteringFunctions/arm_correlate_q31.c ****     blkCnt = blockSize2 / 3;
 374              		.loc 1 269 5 is_stmt 1 view .LVU136
 375              		.loc 1 269 12 is_stmt 0 view .LVU137
 376 016e 074B     		ldr	r3, .L42+4
 377 0170 A3FB0E23 		umull	r2, r3, r3, lr
 378 0174 5B08     		lsrs	r3, r3, #1
 379 0176 0893     		str	r3, [sp, #32]
ARM GAS  /var/folders/n6/c271nzx11xl4r4_m7sqjlt0m0000gn/T//ccDne89y.s 			page 13


 380              	.LVL55:
 270:Drivers/CMSIS/DSP/Source/FilteringFunctions/arm_correlate_q31.c **** 
 271:Drivers/CMSIS/DSP/Source/FilteringFunctions/arm_correlate_q31.c ****     while (blkCnt > 0U)
 381              		.loc 1 271 5 is_stmt 1 view .LVU138
 251:Drivers/CMSIS/DSP/Source/FilteringFunctions/arm_correlate_q31.c **** 
 382              		.loc 1 251 6 is_stmt 0 view .LVU139
 383 0178 079A     		ldr	r2, [sp, #28]
 384 017a CDF824A0 		str	r10, [sp, #36]
 385 017e 0C90     		str	r0, [sp, #48]
 386 0180 5C46     		mov	r4, fp
 387 0182 CDF834E0 		str	lr, [sp, #52]
 388              		.loc 1 271 11 view .LVU140
 389 0186 24E0     		b	.L11
 390              	.L43:
 391              		.align	2
 392              	.L42:
 393 0188 FEFFFF3F 		.word	1073741822
 394 018c ABAAAAAA 		.word	-1431655765
 395              	.LVL56:
 396              	.L36:
 272:Drivers/CMSIS/DSP/Source/FilteringFunctions/arm_correlate_q31.c ****     {
 273:Drivers/CMSIS/DSP/Source/FilteringFunctions/arm_correlate_q31.c ****       /* Set all accumulators to zero */
 274:Drivers/CMSIS/DSP/Source/FilteringFunctions/arm_correlate_q31.c ****       acc0 = 0;
 275:Drivers/CMSIS/DSP/Source/FilteringFunctions/arm_correlate_q31.c ****       acc1 = 0;
 276:Drivers/CMSIS/DSP/Source/FilteringFunctions/arm_correlate_q31.c ****       acc2 = 0;
 277:Drivers/CMSIS/DSP/Source/FilteringFunctions/arm_correlate_q31.c **** 
 278:Drivers/CMSIS/DSP/Source/FilteringFunctions/arm_correlate_q31.c ****       /* read x[0], x[1] samples */
 279:Drivers/CMSIS/DSP/Source/FilteringFunctions/arm_correlate_q31.c ****       x0 = *(px++);
 280:Drivers/CMSIS/DSP/Source/FilteringFunctions/arm_correlate_q31.c ****       x1 = *(px++);
 281:Drivers/CMSIS/DSP/Source/FilteringFunctions/arm_correlate_q31.c **** 
 282:Drivers/CMSIS/DSP/Source/FilteringFunctions/arm_correlate_q31.c ****       /* Apply loop unrolling and compute 3 MACs simultaneously. */
 283:Drivers/CMSIS/DSP/Source/FilteringFunctions/arm_correlate_q31.c ****       k = srcBLen / 3;
 284:Drivers/CMSIS/DSP/Source/FilteringFunctions/arm_correlate_q31.c **** 
 285:Drivers/CMSIS/DSP/Source/FilteringFunctions/arm_correlate_q31.c ****       /* First part of the processing with loop unrolling.  Compute 3 MACs at a time.
 286:Drivers/CMSIS/DSP/Source/FilteringFunctions/arm_correlate_q31.c ****        ** a second loop below computes MACs for the remaining 1 to 2 samples. */
 287:Drivers/CMSIS/DSP/Source/FilteringFunctions/arm_correlate_q31.c ****       do
 288:Drivers/CMSIS/DSP/Source/FilteringFunctions/arm_correlate_q31.c ****       {
 289:Drivers/CMSIS/DSP/Source/FilteringFunctions/arm_correlate_q31.c ****         /* Read y[0] sample */
 290:Drivers/CMSIS/DSP/Source/FilteringFunctions/arm_correlate_q31.c ****         c0 = *(py);
 291:Drivers/CMSIS/DSP/Source/FilteringFunctions/arm_correlate_q31.c **** 
 292:Drivers/CMSIS/DSP/Source/FilteringFunctions/arm_correlate_q31.c ****         /* Read x[2] sample */
 293:Drivers/CMSIS/DSP/Source/FilteringFunctions/arm_correlate_q31.c ****         x2 = *(px);
 294:Drivers/CMSIS/DSP/Source/FilteringFunctions/arm_correlate_q31.c **** 
 295:Drivers/CMSIS/DSP/Source/FilteringFunctions/arm_correlate_q31.c ****         /* Perform the multiply-accumulate */
 296:Drivers/CMSIS/DSP/Source/FilteringFunctions/arm_correlate_q31.c ****         /* acc0 +=  x[0] * y[0] */
 297:Drivers/CMSIS/DSP/Source/FilteringFunctions/arm_correlate_q31.c ****         acc0 += ((q63_t) x0 * c0);
 298:Drivers/CMSIS/DSP/Source/FilteringFunctions/arm_correlate_q31.c ****         /* acc1 +=  x[1] * y[0] */
 299:Drivers/CMSIS/DSP/Source/FilteringFunctions/arm_correlate_q31.c ****         acc1 += ((q63_t) x1 * c0);
 300:Drivers/CMSIS/DSP/Source/FilteringFunctions/arm_correlate_q31.c ****         /* acc2 +=  x[2] * y[0] */
 301:Drivers/CMSIS/DSP/Source/FilteringFunctions/arm_correlate_q31.c ****         acc2 += ((q63_t) x2 * c0);
 302:Drivers/CMSIS/DSP/Source/FilteringFunctions/arm_correlate_q31.c **** 
 303:Drivers/CMSIS/DSP/Source/FilteringFunctions/arm_correlate_q31.c ****         /* Read y[1] sample */
 304:Drivers/CMSIS/DSP/Source/FilteringFunctions/arm_correlate_q31.c ****         c0 = *(py + 1U);
 305:Drivers/CMSIS/DSP/Source/FilteringFunctions/arm_correlate_q31.c **** 
 306:Drivers/CMSIS/DSP/Source/FilteringFunctions/arm_correlate_q31.c ****         /* Read x[3] sample */
 307:Drivers/CMSIS/DSP/Source/FilteringFunctions/arm_correlate_q31.c ****         x0 = *(px + 1U);
 308:Drivers/CMSIS/DSP/Source/FilteringFunctions/arm_correlate_q31.c **** 
ARM GAS  /var/folders/n6/c271nzx11xl4r4_m7sqjlt0m0000gn/T//ccDne89y.s 			page 14


 309:Drivers/CMSIS/DSP/Source/FilteringFunctions/arm_correlate_q31.c ****         /* Perform the multiply-accumulates */
 310:Drivers/CMSIS/DSP/Source/FilteringFunctions/arm_correlate_q31.c ****         /* acc0 +=  x[1] * y[1] */
 311:Drivers/CMSIS/DSP/Source/FilteringFunctions/arm_correlate_q31.c ****         acc0 += ((q63_t) x1 * c0);
 312:Drivers/CMSIS/DSP/Source/FilteringFunctions/arm_correlate_q31.c ****         /* acc1 +=  x[2] * y[1] */
 313:Drivers/CMSIS/DSP/Source/FilteringFunctions/arm_correlate_q31.c ****         acc1 += ((q63_t) x2 * c0);
 314:Drivers/CMSIS/DSP/Source/FilteringFunctions/arm_correlate_q31.c ****         /* acc2 +=  x[3] * y[1] */
 315:Drivers/CMSIS/DSP/Source/FilteringFunctions/arm_correlate_q31.c ****         acc2 += ((q63_t) x0 * c0);
 316:Drivers/CMSIS/DSP/Source/FilteringFunctions/arm_correlate_q31.c **** 
 317:Drivers/CMSIS/DSP/Source/FilteringFunctions/arm_correlate_q31.c ****         /* Read y[2] sample */
 318:Drivers/CMSIS/DSP/Source/FilteringFunctions/arm_correlate_q31.c ****         c0 = *(py + 2U);
 319:Drivers/CMSIS/DSP/Source/FilteringFunctions/arm_correlate_q31.c **** 
 320:Drivers/CMSIS/DSP/Source/FilteringFunctions/arm_correlate_q31.c ****         /* Read x[4] sample */
 321:Drivers/CMSIS/DSP/Source/FilteringFunctions/arm_correlate_q31.c ****         x1 = *(px + 2U);
 322:Drivers/CMSIS/DSP/Source/FilteringFunctions/arm_correlate_q31.c **** 
 323:Drivers/CMSIS/DSP/Source/FilteringFunctions/arm_correlate_q31.c ****         /* Perform the multiply-accumulates */
 324:Drivers/CMSIS/DSP/Source/FilteringFunctions/arm_correlate_q31.c ****         /* acc0 +=  x[2] * y[2] */
 325:Drivers/CMSIS/DSP/Source/FilteringFunctions/arm_correlate_q31.c ****         acc0 += ((q63_t) x2 * c0);
 326:Drivers/CMSIS/DSP/Source/FilteringFunctions/arm_correlate_q31.c ****         /* acc1 +=  x[3] * y[2] */
 327:Drivers/CMSIS/DSP/Source/FilteringFunctions/arm_correlate_q31.c ****         acc1 += ((q63_t) x0 * c0);
 328:Drivers/CMSIS/DSP/Source/FilteringFunctions/arm_correlate_q31.c ****         /* acc2 +=  x[4] * y[2] */
 329:Drivers/CMSIS/DSP/Source/FilteringFunctions/arm_correlate_q31.c ****         acc2 += ((q63_t) x1 * c0);
 330:Drivers/CMSIS/DSP/Source/FilteringFunctions/arm_correlate_q31.c **** 
 331:Drivers/CMSIS/DSP/Source/FilteringFunctions/arm_correlate_q31.c ****         /* update scratch pointers */
 332:Drivers/CMSIS/DSP/Source/FilteringFunctions/arm_correlate_q31.c ****         px += 3U;
 333:Drivers/CMSIS/DSP/Source/FilteringFunctions/arm_correlate_q31.c ****         py += 3U;
 334:Drivers/CMSIS/DSP/Source/FilteringFunctions/arm_correlate_q31.c **** 
 335:Drivers/CMSIS/DSP/Source/FilteringFunctions/arm_correlate_q31.c ****       } while (--k);
 336:Drivers/CMSIS/DSP/Source/FilteringFunctions/arm_correlate_q31.c **** 
 337:Drivers/CMSIS/DSP/Source/FilteringFunctions/arm_correlate_q31.c ****       /* If the srcBLen is not a multiple of 3, compute any remaining MACs here.
 338:Drivers/CMSIS/DSP/Source/FilteringFunctions/arm_correlate_q31.c ****        ** No loop unrolling is used. */
 339:Drivers/CMSIS/DSP/Source/FilteringFunctions/arm_correlate_q31.c ****       k = srcBLen - (3 * (srcBLen / 3));
 340:Drivers/CMSIS/DSP/Source/FilteringFunctions/arm_correlate_q31.c **** 
 341:Drivers/CMSIS/DSP/Source/FilteringFunctions/arm_correlate_q31.c ****       while (k > 0U)
 342:Drivers/CMSIS/DSP/Source/FilteringFunctions/arm_correlate_q31.c ****       {
 343:Drivers/CMSIS/DSP/Source/FilteringFunctions/arm_correlate_q31.c ****         /* Read y[4] sample */
 344:Drivers/CMSIS/DSP/Source/FilteringFunctions/arm_correlate_q31.c ****         c0 = *(py++);
 345:Drivers/CMSIS/DSP/Source/FilteringFunctions/arm_correlate_q31.c **** 
 346:Drivers/CMSIS/DSP/Source/FilteringFunctions/arm_correlate_q31.c ****         /* Read x[7] sample */
 347:Drivers/CMSIS/DSP/Source/FilteringFunctions/arm_correlate_q31.c ****         x2 = *(px++);
 348:Drivers/CMSIS/DSP/Source/FilteringFunctions/arm_correlate_q31.c **** 
 349:Drivers/CMSIS/DSP/Source/FilteringFunctions/arm_correlate_q31.c ****         /* Perform the multiply-accumulates */
 350:Drivers/CMSIS/DSP/Source/FilteringFunctions/arm_correlate_q31.c ****         /* acc0 +=  x[4] * y[4] */
 351:Drivers/CMSIS/DSP/Source/FilteringFunctions/arm_correlate_q31.c ****         acc0 += ((q63_t) x0 * c0);
 352:Drivers/CMSIS/DSP/Source/FilteringFunctions/arm_correlate_q31.c ****         /* acc1 +=  x[5] * y[4] */
 353:Drivers/CMSIS/DSP/Source/FilteringFunctions/arm_correlate_q31.c ****         acc1 += ((q63_t) x1 * c0);
 354:Drivers/CMSIS/DSP/Source/FilteringFunctions/arm_correlate_q31.c ****         /* acc2 +=  x[6] * y[4] */
 355:Drivers/CMSIS/DSP/Source/FilteringFunctions/arm_correlate_q31.c ****         acc2 += ((q63_t) x2 * c0);
 356:Drivers/CMSIS/DSP/Source/FilteringFunctions/arm_correlate_q31.c **** 
 357:Drivers/CMSIS/DSP/Source/FilteringFunctions/arm_correlate_q31.c ****         /* Reuse the present samples for the next MAC */
 358:Drivers/CMSIS/DSP/Source/FilteringFunctions/arm_correlate_q31.c ****         x0 = x1;
 359:Drivers/CMSIS/DSP/Source/FilteringFunctions/arm_correlate_q31.c ****         x1 = x2;
 360:Drivers/CMSIS/DSP/Source/FilteringFunctions/arm_correlate_q31.c **** 
 361:Drivers/CMSIS/DSP/Source/FilteringFunctions/arm_correlate_q31.c ****         /* Decrement the loop counter */
 362:Drivers/CMSIS/DSP/Source/FilteringFunctions/arm_correlate_q31.c ****         k--;
 363:Drivers/CMSIS/DSP/Source/FilteringFunctions/arm_correlate_q31.c ****       }
 364:Drivers/CMSIS/DSP/Source/FilteringFunctions/arm_correlate_q31.c **** 
 365:Drivers/CMSIS/DSP/Source/FilteringFunctions/arm_correlate_q31.c ****       /* Store the result in the accumulator in the destination buffer. */
ARM GAS  /var/folders/n6/c271nzx11xl4r4_m7sqjlt0m0000gn/T//ccDne89y.s 			page 15


 366:Drivers/CMSIS/DSP/Source/FilteringFunctions/arm_correlate_q31.c ****       *pOut = (q31_t) (acc0 >> 31);
 397              		.loc 1 366 29 view .LVU141
 398 0190 039D     		ldr	r5, [sp, #12]
 399 0192 049C     		ldr	r4, [sp, #16]
 400              	.LVL57:
 401              		.loc 1 366 29 view .LVU142
 402 0194 0098     		ldr	r0, [sp]
 403              		.loc 1 366 7 is_stmt 1 view .LVU143
 404              		.loc 1 366 29 is_stmt 0 view .LVU144
 405 0196 019B     		ldr	r3, [sp, #4]
 406              	.LVL58:
 407              		.loc 1 366 29 view .LVU145
 408 0198 DB0F     		lsrs	r3, r3, #31
 409 019a 43EA4B03 		orr	r3, r3, fp, lsl #1
 410              		.loc 1 366 13 view .LVU146
 411 019e 2B60     		str	r3, [r5]
 367:Drivers/CMSIS/DSP/Source/FilteringFunctions/arm_correlate_q31.c ****       /* Destination pointer is updated according to the address modifier, inc */
 368:Drivers/CMSIS/DSP/Source/FilteringFunctions/arm_correlate_q31.c ****       pOut += inc;
 412              		.loc 1 368 7 is_stmt 1 view .LVU147
 413              	.LVL59:
 369:Drivers/CMSIS/DSP/Source/FilteringFunctions/arm_correlate_q31.c **** 
 370:Drivers/CMSIS/DSP/Source/FilteringFunctions/arm_correlate_q31.c ****       *pOut = (q31_t) (acc1 >> 31);
 414              		.loc 1 370 7 view .LVU148
 415              		.loc 1 370 29 is_stmt 0 view .LVU149
 416 01a0 029B     		ldr	r3, [sp, #8]
 417 01a2 DB0F     		lsrs	r3, r3, #31
 418 01a4 43EA4903 		orr	r3, r3, r9, lsl #1
 419              		.loc 1 370 13 view .LVU150
 420 01a8 45F82430 		str	r3, [r5, r4, lsl #2]
 371:Drivers/CMSIS/DSP/Source/FilteringFunctions/arm_correlate_q31.c ****       pOut += inc;
 421              		.loc 1 371 7 is_stmt 1 view .LVU151
 422              		.loc 1 371 12 is_stmt 0 view .LVU152
 423 01ac 05EBC402 		add	r2, r5, r4, lsl #3
 424              	.LVL60:
 372:Drivers/CMSIS/DSP/Source/FilteringFunctions/arm_correlate_q31.c **** 
 373:Drivers/CMSIS/DSP/Source/FilteringFunctions/arm_correlate_q31.c ****       *pOut = (q31_t) (acc2 >> 31);
 425              		.loc 1 373 7 is_stmt 1 view .LVU153
 426              		.loc 1 373 29 is_stmt 0 view .LVU154
 427 01b0 4FEADA73 		lsr	r3, r10, #31
 428 01b4 43EA4003 		orr	r3, r3, r0, lsl #1
 429              		.loc 1 373 13 view .LVU155
 430 01b8 45F83430 		str	r3, [r5, r4, lsl #3]
 374:Drivers/CMSIS/DSP/Source/FilteringFunctions/arm_correlate_q31.c ****       pOut += inc;
 431              		.loc 1 374 7 is_stmt 1 view .LVU156
 432              		.loc 1 374 12 is_stmt 0 view .LVU157
 433 01bc 02EB8405 		add	r5, r2, r4, lsl #2
 434              	.LVL61:
 375:Drivers/CMSIS/DSP/Source/FilteringFunctions/arm_correlate_q31.c **** 
 376:Drivers/CMSIS/DSP/Source/FilteringFunctions/arm_correlate_q31.c ****       /* Increment the pointer pIn1 index, count by 3 */
 377:Drivers/CMSIS/DSP/Source/FilteringFunctions/arm_correlate_q31.c ****       count += 3U;
 435              		.loc 1 377 7 is_stmt 1 view .LVU158
 436              		.loc 1 377 13 is_stmt 0 view .LVU159
 437 01c0 099B     		ldr	r3, [sp, #36]
 438 01c2 0333     		adds	r3, r3, #3
 439 01c4 0993     		str	r3, [sp, #36]
 440              	.LVL62:
 378:Drivers/CMSIS/DSP/Source/FilteringFunctions/arm_correlate_q31.c **** 
ARM GAS  /var/folders/n6/c271nzx11xl4r4_m7sqjlt0m0000gn/T//ccDne89y.s 			page 16


 379:Drivers/CMSIS/DSP/Source/FilteringFunctions/arm_correlate_q31.c ****       /* Update the inputA and inputB pointers for next MAC calculation */
 380:Drivers/CMSIS/DSP/Source/FilteringFunctions/arm_correlate_q31.c ****       px = pIn1 + count;
 441              		.loc 1 380 7 is_stmt 1 view .LVU160
 442              		.loc 1 380 10 is_stmt 0 view .LVU161
 443 01c6 079A     		ldr	r2, [sp, #28]
 444 01c8 02EB8302 		add	r2, r2, r3, lsl #2
 445              	.LVL63:
 381:Drivers/CMSIS/DSP/Source/FilteringFunctions/arm_correlate_q31.c ****       py = pIn2;
 446              		.loc 1 381 7 is_stmt 1 view .LVU162
 382:Drivers/CMSIS/DSP/Source/FilteringFunctions/arm_correlate_q31.c **** 
 383:Drivers/CMSIS/DSP/Source/FilteringFunctions/arm_correlate_q31.c **** 
 384:Drivers/CMSIS/DSP/Source/FilteringFunctions/arm_correlate_q31.c ****       /* Decrement the loop counter */
 385:Drivers/CMSIS/DSP/Source/FilteringFunctions/arm_correlate_q31.c ****       blkCnt--;
 447              		.loc 1 385 7 view .LVU163
 448              		.loc 1 385 13 is_stmt 0 view .LVU164
 449 01cc 089B     		ldr	r3, [sp, #32]
 450              	.LVL64:
 451              		.loc 1 385 13 view .LVU165
 452 01ce 013B     		subs	r3, r3, #1
 453 01d0 0893     		str	r3, [sp, #32]
 454              	.LVL65:
 455              	.L11:
 271:Drivers/CMSIS/DSP/Source/FilteringFunctions/arm_correlate_q31.c ****     {
 456              		.loc 1 271 19 is_stmt 1 view .LVU166
 457 01d2 089B     		ldr	r3, [sp, #32]
 458 01d4 002B     		cmp	r3, #0
 459 01d6 00F0EE80 		beq	.L35
 274:Drivers/CMSIS/DSP/Source/FilteringFunctions/arm_correlate_q31.c ****       acc1 = 0;
 460              		.loc 1 274 7 view .LVU167
 461              	.LVL66:
 275:Drivers/CMSIS/DSP/Source/FilteringFunctions/arm_correlate_q31.c ****       acc2 = 0;
 462              		.loc 1 275 7 view .LVU168
 276:Drivers/CMSIS/DSP/Source/FilteringFunctions/arm_correlate_q31.c **** 
 463              		.loc 1 276 7 view .LVU169
 279:Drivers/CMSIS/DSP/Source/FilteringFunctions/arm_correlate_q31.c ****       x1 = *(px++);
 464              		.loc 1 279 7 view .LVU170
 279:Drivers/CMSIS/DSP/Source/FilteringFunctions/arm_correlate_q31.c ****       x1 = *(px++);
 465              		.loc 1 279 10 is_stmt 0 view .LVU171
 466 01da 1346     		mov	r3, r2
 467 01dc 53F8081B 		ldr	r1, [r3], #8
 468 01e0 0093     		str	r3, [sp]
 469              	.LVL67:
 280:Drivers/CMSIS/DSP/Source/FilteringFunctions/arm_correlate_q31.c **** 
 470              		.loc 1 280 7 is_stmt 1 view .LVU172
 280:Drivers/CMSIS/DSP/Source/FilteringFunctions/arm_correlate_q31.c **** 
 471              		.loc 1 280 10 is_stmt 0 view .LVU173
 472 01e2 5268     		ldr	r2, [r2, #4]
 473              	.LVL68:
 283:Drivers/CMSIS/DSP/Source/FilteringFunctions/arm_correlate_q31.c **** 
 474              		.loc 1 283 7 is_stmt 1 view .LVU174
 283:Drivers/CMSIS/DSP/Source/FilteringFunctions/arm_correlate_q31.c **** 
 475              		.loc 1 283 9 is_stmt 0 view .LVU175
 476 01e4 BF4B     		ldr	r3, .L44
 477              	.LVL69:
 283:Drivers/CMSIS/DSP/Source/FilteringFunctions/arm_correlate_q31.c **** 
 478              		.loc 1 283 9 view .LVU176
 479 01e6 0698     		ldr	r0, [sp, #24]
ARM GAS  /var/folders/n6/c271nzx11xl4r4_m7sqjlt0m0000gn/T//ccDne89y.s 			page 17


 480 01e8 A3FB0003 		umull	r0, r3, r3, r0
 481 01ec 5B08     		lsrs	r3, r3, #1
 482 01ee 0393     		str	r3, [sp, #12]
 483              	.LVL70:
 283:Drivers/CMSIS/DSP/Source/FilteringFunctions/arm_correlate_q31.c **** 
 484              		.loc 1 283 9 view .LVU177
 485 01f0 059B     		ldr	r3, [sp, #20]
 486              	.LVL71:
 276:Drivers/CMSIS/DSP/Source/FilteringFunctions/arm_correlate_q31.c **** 
 487              		.loc 1 276 12 view .LVU178
 488 01f2 4FF0000A 		mov	r10, #0
 489 01f6 5046     		mov	r0, r10
 275:Drivers/CMSIS/DSP/Source/FilteringFunctions/arm_correlate_q31.c ****       acc2 = 0;
 490              		.loc 1 275 12 view .LVU179
 491 01f8 CDF808A0 		str	r10, [sp, #8]
 492 01fc D146     		mov	r9, r10
 274:Drivers/CMSIS/DSP/Source/FilteringFunctions/arm_correlate_q31.c ****       acc1 = 0;
 493              		.loc 1 274 12 view .LVU180
 494 01fe CDF804A0 		str	r10, [sp, #4]
 495 0202 0A95     		str	r5, [sp, #40]
 496 0204 9846     		mov	r8, r3
 497 0206 0B94     		str	r4, [sp, #44]
 498 0208 D646     		mov	lr, r10
 499              	.LVL72:
 500              	.L12:
 287:Drivers/CMSIS/DSP/Source/FilteringFunctions/arm_correlate_q31.c ****       {
 501              		.loc 1 287 7 is_stmt 1 view .LVU181
 290:Drivers/CMSIS/DSP/Source/FilteringFunctions/arm_correlate_q31.c **** 
 502              		.loc 1 290 9 view .LVU182
 290:Drivers/CMSIS/DSP/Source/FilteringFunctions/arm_correlate_q31.c **** 
 503              		.loc 1 290 12 is_stmt 0 view .LVU183
 504 020a D8F80040 		ldr	r4, [r8]
 505              	.LVL73:
 293:Drivers/CMSIS/DSP/Source/FilteringFunctions/arm_correlate_q31.c **** 
 506              		.loc 1 293 9 is_stmt 1 view .LVU184
 293:Drivers/CMSIS/DSP/Source/FilteringFunctions/arm_correlate_q31.c **** 
 507              		.loc 1 293 12 is_stmt 0 view .LVU185
 508 020e 009B     		ldr	r3, [sp]
 509 0210 1B68     		ldr	r3, [r3]
 510              	.LVL74:
 297:Drivers/CMSIS/DSP/Source/FilteringFunctions/arm_correlate_q31.c ****         /* acc1 +=  x[1] * y[0] */
 511              		.loc 1 297 9 is_stmt 1 view .LVU186
 297:Drivers/CMSIS/DSP/Source/FilteringFunctions/arm_correlate_q31.c ****         /* acc1 +=  x[1] * y[0] */
 512              		.loc 1 297 18 is_stmt 0 view .LVU187
 513 0212 CD17     		asrs	r5, r1, #31
 297:Drivers/CMSIS/DSP/Source/FilteringFunctions/arm_correlate_q31.c ****         /* acc1 +=  x[1] * y[0] */
 514              		.loc 1 297 29 view .LVU188
 515 0214 E617     		asrs	r6, r4, #31
 516 0216 01FB06F7 		mul	r7, r1, r6
 517 021a 04FB0577 		mla	r7, r4, r5, r7
 518 021e A1FB0451 		umull	r5, r1, r1, r4
 519              	.LVL75:
 297:Drivers/CMSIS/DSP/Source/FilteringFunctions/arm_correlate_q31.c ****         /* acc1 +=  x[1] * y[0] */
 520              		.loc 1 297 29 view .LVU189
 521 0222 3944     		add	r1, r1, r7
 297:Drivers/CMSIS/DSP/Source/FilteringFunctions/arm_correlate_q31.c ****         /* acc1 +=  x[1] * y[0] */
 522              		.loc 1 297 14 view .LVU190
ARM GAS  /var/folders/n6/c271nzx11xl4r4_m7sqjlt0m0000gn/T//ccDne89y.s 			page 18


 523 0224 019F     		ldr	r7, [sp, #4]
 524 0226 ED19     		adds	r5, r5, r7
 525 0228 0195     		str	r5, [sp, #4]
 526              	.LVL76:
 297:Drivers/CMSIS/DSP/Source/FilteringFunctions/arm_correlate_q31.c ****         /* acc1 +=  x[1] * y[0] */
 527              		.loc 1 297 14 view .LVU191
 528 022a 41EB0907 		adc	r7, r1, r9
 529              	.LVL77:
 297:Drivers/CMSIS/DSP/Source/FilteringFunctions/arm_correlate_q31.c ****         /* acc1 +=  x[1] * y[0] */
 530              		.loc 1 297 14 view .LVU192
 531 022e 0497     		str	r7, [sp, #16]
 532              	.LVL78:
 299:Drivers/CMSIS/DSP/Source/FilteringFunctions/arm_correlate_q31.c ****         /* acc2 +=  x[2] * y[0] */
 533              		.loc 1 299 9 is_stmt 1 view .LVU193
 299:Drivers/CMSIS/DSP/Source/FilteringFunctions/arm_correlate_q31.c ****         /* acc2 +=  x[2] * y[0] */
 534              		.loc 1 299 18 is_stmt 0 view .LVU194
 535 0230 4FEAE27C 		asr	ip, r2, #31
 299:Drivers/CMSIS/DSP/Source/FilteringFunctions/arm_correlate_q31.c ****         /* acc2 +=  x[2] * y[0] */
 536              		.loc 1 299 29 view .LVU195
 537 0234 04FB0CF9 		mul	r9, r4, ip
 538 0238 02FB0699 		mla	r9, r2, r6, r9
 539 023c A4FB0271 		umull	r7, r1, r4, r2
 540              	.LVL79:
 299:Drivers/CMSIS/DSP/Source/FilteringFunctions/arm_correlate_q31.c ****         /* acc2 +=  x[2] * y[0] */
 541              		.loc 1 299 29 view .LVU196
 542 0240 4944     		add	r1, r1, r9
 299:Drivers/CMSIS/DSP/Source/FilteringFunctions/arm_correlate_q31.c ****         /* acc2 +=  x[2] * y[0] */
 543              		.loc 1 299 14 view .LVU197
 544 0242 029D     		ldr	r5, [sp, #8]
 545              	.LVL80:
 299:Drivers/CMSIS/DSP/Source/FilteringFunctions/arm_correlate_q31.c ****         /* acc2 +=  x[2] * y[0] */
 546              		.loc 1 299 14 view .LVU198
 547 0244 7F19     		adds	r7, r7, r5
 548 0246 41EB0E0E 		adc	lr, r1, lr
 549              	.LVL81:
 301:Drivers/CMSIS/DSP/Source/FilteringFunctions/arm_correlate_q31.c **** 
 550              		.loc 1 301 9 is_stmt 1 view .LVU199
 301:Drivers/CMSIS/DSP/Source/FilteringFunctions/arm_correlate_q31.c **** 
 551              		.loc 1 301 18 is_stmt 0 view .LVU200
 552 024a 4FEAE379 		asr	r9, r3, #31
 301:Drivers/CMSIS/DSP/Source/FilteringFunctions/arm_correlate_q31.c **** 
 553              		.loc 1 301 29 view .LVU201
 554 024e 04FB09F1 		mul	r1, r4, r9
 555 0252 03FB0611 		mla	r1, r3, r6, r1
 556 0256 A4FB0364 		umull	r6, r4, r4, r3
 557              	.LVL82:
 301:Drivers/CMSIS/DSP/Source/FilteringFunctions/arm_correlate_q31.c **** 
 558              		.loc 1 301 29 view .LVU202
 559 025a 0C44     		add	r4, r4, r1
 301:Drivers/CMSIS/DSP/Source/FilteringFunctions/arm_correlate_q31.c **** 
 560              		.loc 1 301 14 view .LVU203
 561 025c 16EB0A06 		adds	r6, r6, r10
 562 0260 44EB0000 		adc	r0, r4, r0
 563              	.LVL83:
 304:Drivers/CMSIS/DSP/Source/FilteringFunctions/arm_correlate_q31.c **** 
 564              		.loc 1 304 9 is_stmt 1 view .LVU204
 304:Drivers/CMSIS/DSP/Source/FilteringFunctions/arm_correlate_q31.c **** 
ARM GAS  /var/folders/n6/c271nzx11xl4r4_m7sqjlt0m0000gn/T//ccDne89y.s 			page 19


 565              		.loc 1 304 12 is_stmt 0 view .LVU205
 566 0264 D8F80440 		ldr	r4, [r8, #4]
 567              	.LVL84:
 307:Drivers/CMSIS/DSP/Source/FilteringFunctions/arm_correlate_q31.c **** 
 568              		.loc 1 307 9 is_stmt 1 view .LVU206
 307:Drivers/CMSIS/DSP/Source/FilteringFunctions/arm_correlate_q31.c **** 
 569              		.loc 1 307 12 is_stmt 0 view .LVU207
 570 0268 0099     		ldr	r1, [sp]
 571 026a 4968     		ldr	r1, [r1, #4]
 572              	.LVL85:
 311:Drivers/CMSIS/DSP/Source/FilteringFunctions/arm_correlate_q31.c ****         /* acc1 +=  x[2] * y[1] */
 573              		.loc 1 311 9 is_stmt 1 view .LVU208
 311:Drivers/CMSIS/DSP/Source/FilteringFunctions/arm_correlate_q31.c ****         /* acc1 +=  x[2] * y[1] */
 574              		.loc 1 311 29 is_stmt 0 view .LVU209
 575 026c 4FEAE47A 		asr	r10, r4, #31
 576 0270 02FB0AFB 		mul	fp, r2, r10
 577 0274 04FB0CBB 		mla	fp, r4, ip, fp
 578 0278 A2FB042C 		umull	r2, ip, r2, r4
 579              	.LVL86:
 311:Drivers/CMSIS/DSP/Source/FilteringFunctions/arm_correlate_q31.c ****         /* acc1 +=  x[2] * y[1] */
 580              		.loc 1 311 29 view .LVU210
 581 027c DC44     		add	ip, ip, fp
 311:Drivers/CMSIS/DSP/Source/FilteringFunctions/arm_correlate_q31.c ****         /* acc1 +=  x[2] * y[1] */
 582              		.loc 1 311 14 view .LVU211
 583 027e 019D     		ldr	r5, [sp, #4]
 584 0280 5519     		adds	r5, r2, r5
 585 0282 049A     		ldr	r2, [sp, #16]
 586 0284 4CEB0202 		adc	r2, ip, r2
 587 0288 0292     		str	r2, [sp, #8]
 588              	.LVL87:
 313:Drivers/CMSIS/DSP/Source/FilteringFunctions/arm_correlate_q31.c ****         /* acc2 +=  x[3] * y[1] */
 589              		.loc 1 313 9 is_stmt 1 view .LVU212
 313:Drivers/CMSIS/DSP/Source/FilteringFunctions/arm_correlate_q31.c ****         /* acc2 +=  x[3] * y[1] */
 590              		.loc 1 313 29 is_stmt 0 view .LVU213
 591 028a 03FB0AFB 		mul	fp, r3, r10
 592 028e 04FB09BB 		mla	fp, r4, r9, fp
 593 0292 A3FB042C 		umull	r2, ip, r3, r4
 594              	.LVL88:
 313:Drivers/CMSIS/DSP/Source/FilteringFunctions/arm_correlate_q31.c ****         /* acc2 +=  x[3] * y[1] */
 595              		.loc 1 313 29 view .LVU214
 596 0296 DC44     		add	ip, ip, fp
 313:Drivers/CMSIS/DSP/Source/FilteringFunctions/arm_correlate_q31.c ****         /* acc2 +=  x[3] * y[1] */
 597              		.loc 1 313 14 view .LVU215
 598 0298 D719     		adds	r7, r2, r7
 599              	.LVL89:
 313:Drivers/CMSIS/DSP/Source/FilteringFunctions/arm_correlate_q31.c ****         /* acc2 +=  x[3] * y[1] */
 600              		.loc 1 313 14 view .LVU216
 601 029a 4CEB0E0C 		adc	ip, ip, lr
 602              	.LVL90:
 315:Drivers/CMSIS/DSP/Source/FilteringFunctions/arm_correlate_q31.c **** 
 603              		.loc 1 315 9 is_stmt 1 view .LVU217
 315:Drivers/CMSIS/DSP/Source/FilteringFunctions/arm_correlate_q31.c **** 
 604              		.loc 1 315 18 is_stmt 0 view .LVU218
 605 029e 4FEAE17E 		asr	lr, r1, #31
 315:Drivers/CMSIS/DSP/Source/FilteringFunctions/arm_correlate_q31.c **** 
 606              		.loc 1 315 29 view .LVU219
 607 02a2 04FB0EF2 		mul	r2, r4, lr
ARM GAS  /var/folders/n6/c271nzx11xl4r4_m7sqjlt0m0000gn/T//ccDne89y.s 			page 20


 608 02a6 01FB0A2A 		mla	r10, r1, r10, r2
 609 02aa A4FB0124 		umull	r2, r4, r4, r1
 610              	.LVL91:
 315:Drivers/CMSIS/DSP/Source/FilteringFunctions/arm_correlate_q31.c **** 
 611              		.loc 1 315 29 view .LVU220
 612 02ae 5444     		add	r4, r4, r10
 315:Drivers/CMSIS/DSP/Source/FilteringFunctions/arm_correlate_q31.c **** 
 613              		.loc 1 315 14 view .LVU221
 614 02b0 9619     		adds	r6, r2, r6
 615              	.LVL92:
 315:Drivers/CMSIS/DSP/Source/FilteringFunctions/arm_correlate_q31.c **** 
 616              		.loc 1 315 14 view .LVU222
 617 02b2 44EB000B 		adc	fp, r4, r0
 618              	.LVL93:
 318:Drivers/CMSIS/DSP/Source/FilteringFunctions/arm_correlate_q31.c **** 
 619              		.loc 1 318 9 is_stmt 1 view .LVU223
 318:Drivers/CMSIS/DSP/Source/FilteringFunctions/arm_correlate_q31.c **** 
 620              		.loc 1 318 12 is_stmt 0 view .LVU224
 621 02b6 D8F80800 		ldr	r0, [r8, #8]
 622              	.LVL94:
 321:Drivers/CMSIS/DSP/Source/FilteringFunctions/arm_correlate_q31.c **** 
 623              		.loc 1 321 9 is_stmt 1 view .LVU225
 321:Drivers/CMSIS/DSP/Source/FilteringFunctions/arm_correlate_q31.c **** 
 624              		.loc 1 321 12 is_stmt 0 view .LVU226
 625 02ba 009A     		ldr	r2, [sp]
 626 02bc 9268     		ldr	r2, [r2, #8]
 627              	.LVL95:
 325:Drivers/CMSIS/DSP/Source/FilteringFunctions/arm_correlate_q31.c ****         /* acc1 +=  x[3] * y[2] */
 628              		.loc 1 325 9 is_stmt 1 view .LVU227
 325:Drivers/CMSIS/DSP/Source/FilteringFunctions/arm_correlate_q31.c ****         /* acc1 +=  x[3] * y[2] */
 629              		.loc 1 325 29 is_stmt 0 view .LVU228
 630 02be C417     		asrs	r4, r0, #31
 631 02c0 03FB04FA 		mul	r10, r3, r4
 632 02c4 00FB09A9 		mla	r9, r0, r9, r10
 633 02c8 A3FB003A 		umull	r3, r10, r3, r0
 634              	.LVL96:
 325:Drivers/CMSIS/DSP/Source/FilteringFunctions/arm_correlate_q31.c ****         /* acc1 +=  x[3] * y[2] */
 635              		.loc 1 325 29 view .LVU229
 636 02cc D144     		add	r9, r9, r10
 325:Drivers/CMSIS/DSP/Source/FilteringFunctions/arm_correlate_q31.c ****         /* acc1 +=  x[3] * y[2] */
 637              		.loc 1 325 14 view .LVU230
 638 02ce 5B19     		adds	r3, r3, r5
 639 02d0 0193     		str	r3, [sp, #4]
 640 02d2 029D     		ldr	r5, [sp, #8]
 641              	.LVL97:
 325:Drivers/CMSIS/DSP/Source/FilteringFunctions/arm_correlate_q31.c ****         /* acc1 +=  x[3] * y[2] */
 642              		.loc 1 325 14 view .LVU231
 643 02d4 49EB0509 		adc	r9, r9, r5
 644              	.LVL98:
 327:Drivers/CMSIS/DSP/Source/FilteringFunctions/arm_correlate_q31.c ****         /* acc2 +=  x[4] * y[2] */
 645              		.loc 1 327 9 is_stmt 1 view .LVU232
 327:Drivers/CMSIS/DSP/Source/FilteringFunctions/arm_correlate_q31.c ****         /* acc2 +=  x[4] * y[2] */
 646              		.loc 1 327 29 is_stmt 0 view .LVU233
 647 02d8 01FB04F3 		mul	r3, r1, r4
 648              	.LVL99:
 327:Drivers/CMSIS/DSP/Source/FilteringFunctions/arm_correlate_q31.c ****         /* acc2 +=  x[4] * y[2] */
 649              		.loc 1 327 29 view .LVU234
ARM GAS  /var/folders/n6/c271nzx11xl4r4_m7sqjlt0m0000gn/T//ccDne89y.s 			page 21


 650 02dc 00FB0E33 		mla	r3, r0, lr, r3
 651 02e0 A1FB005E 		umull	r5, lr, r1, r0
 652 02e4 7344     		add	r3, r3, lr
 327:Drivers/CMSIS/DSP/Source/FilteringFunctions/arm_correlate_q31.c ****         /* acc2 +=  x[4] * y[2] */
 653              		.loc 1 327 14 view .LVU235
 654 02e6 ED19     		adds	r5, r5, r7
 655 02e8 0295     		str	r5, [sp, #8]
 656 02ea 43EB0C0E 		adc	lr, r3, ip
 657              	.LVL100:
 329:Drivers/CMSIS/DSP/Source/FilteringFunctions/arm_correlate_q31.c **** 
 658              		.loc 1 329 9 is_stmt 1 view .LVU236
 329:Drivers/CMSIS/DSP/Source/FilteringFunctions/arm_correlate_q31.c **** 
 659              		.loc 1 329 18 is_stmt 0 view .LVU237
 660 02ee D317     		asrs	r3, r2, #31
 329:Drivers/CMSIS/DSP/Source/FilteringFunctions/arm_correlate_q31.c **** 
 661              		.loc 1 329 29 view .LVU238
 662 02f0 00FB03F3 		mul	r3, r0, r3
 663 02f4 02FB0433 		mla	r3, r2, r4, r3
 664 02f8 A0FB0240 		umull	r4, r0, r0, r2
 665              	.LVL101:
 329:Drivers/CMSIS/DSP/Source/FilteringFunctions/arm_correlate_q31.c **** 
 666              		.loc 1 329 29 view .LVU239
 667 02fc 1844     		add	r0, r0, r3
 329:Drivers/CMSIS/DSP/Source/FilteringFunctions/arm_correlate_q31.c **** 
 668              		.loc 1 329 14 view .LVU240
 669 02fe 14EB060A 		adds	r10, r4, r6
 670 0302 40EB0B00 		adc	r0, r0, fp
 671              	.LVL102:
 332:Drivers/CMSIS/DSP/Source/FilteringFunctions/arm_correlate_q31.c ****         py += 3U;
 672              		.loc 1 332 9 is_stmt 1 view .LVU241
 332:Drivers/CMSIS/DSP/Source/FilteringFunctions/arm_correlate_q31.c ****         py += 3U;
 673              		.loc 1 332 12 is_stmt 0 view .LVU242
 674 0306 009B     		ldr	r3, [sp]
 675 0308 0C33     		adds	r3, r3, #12
 676 030a 0093     		str	r3, [sp]
 677              	.LVL103:
 333:Drivers/CMSIS/DSP/Source/FilteringFunctions/arm_correlate_q31.c **** 
 678              		.loc 1 333 9 is_stmt 1 view .LVU243
 333:Drivers/CMSIS/DSP/Source/FilteringFunctions/arm_correlate_q31.c **** 
 679              		.loc 1 333 12 is_stmt 0 view .LVU244
 680 030c 08F10C08 		add	r8, r8, #12
 681              	.LVL104:
 335:Drivers/CMSIS/DSP/Source/FilteringFunctions/arm_correlate_q31.c **** 
 682              		.loc 1 335 16 is_stmt 1 discriminator 1 view .LVU245
 335:Drivers/CMSIS/DSP/Source/FilteringFunctions/arm_correlate_q31.c **** 
 683              		.loc 1 335 16 is_stmt 0 discriminator 1 view .LVU246
 684 0310 039B     		ldr	r3, [sp, #12]
 685              	.LVL105:
 335:Drivers/CMSIS/DSP/Source/FilteringFunctions/arm_correlate_q31.c **** 
 686              		.loc 1 335 16 discriminator 1 view .LVU247
 687 0312 013B     		subs	r3, r3, #1
 688              	.LVL106:
 335:Drivers/CMSIS/DSP/Source/FilteringFunctions/arm_correlate_q31.c **** 
 689              		.loc 1 335 16 discriminator 1 view .LVU248
 690 0314 0393     		str	r3, [sp, #12]
 691 0316 7FF478AF 		bne	.L12
 339:Drivers/CMSIS/DSP/Source/FilteringFunctions/arm_correlate_q31.c **** 
ARM GAS  /var/folders/n6/c271nzx11xl4r4_m7sqjlt0m0000gn/T//ccDne89y.s 			page 22


 692              		.loc 1 339 9 view .LVU249
 693 031a 0A9D     		ldr	r5, [sp, #40]
 694              	.LVL107:
 339:Drivers/CMSIS/DSP/Source/FilteringFunctions/arm_correlate_q31.c **** 
 695              		.loc 1 339 9 view .LVU250
 696 031c 0B9C     		ldr	r4, [sp, #44]
 697 031e CB46     		mov	fp, r9
 698 0320 F146     		mov	r9, lr
 699              	.LVL108:
 339:Drivers/CMSIS/DSP/Source/FilteringFunctions/arm_correlate_q31.c **** 
 700              		.loc 1 339 7 is_stmt 1 view .LVU251
 339:Drivers/CMSIS/DSP/Source/FilteringFunctions/arm_correlate_q31.c **** 
 701              		.loc 1 339 9 is_stmt 0 view .LVU252
 702 0322 704E     		ldr	r6, .L44
 703 0324 069F     		ldr	r7, [sp, #24]
 704 0326 A6FB0763 		umull	r6, r3, r6, r7
 705              	.LVL109:
 339:Drivers/CMSIS/DSP/Source/FilteringFunctions/arm_correlate_q31.c **** 
 706              		.loc 1 339 9 view .LVU253
 707 032a 23F00107 		bic	r7, r3, #1
 708 032e 07EB5307 		add	r7, r7, r3, lsr #1
 709 0332 069E     		ldr	r6, [sp, #24]
 710 0334 F71B     		subs	r7, r6, r7
 711              	.LVL110:
 341:Drivers/CMSIS/DSP/Source/FilteringFunctions/arm_correlate_q31.c ****       {
 712              		.loc 1 341 7 is_stmt 1 view .LVU254
 713 0336 0395     		str	r5, [sp, #12]
 714 0338 4346     		mov	r3, r8
 715 033a 0494     		str	r4, [sp, #16]
 716 033c 009C     		ldr	r4, [sp]
 717 033e 0090     		str	r0, [sp]
 718              	.LVL111:
 719              	.L13:
 341:Drivers/CMSIS/DSP/Source/FilteringFunctions/arm_correlate_q31.c ****       {
 720              		.loc 1 341 16 view .LVU255
 721 0340 002F     		cmp	r7, #0
 722 0342 3FF425AF 		beq	.L36
 344:Drivers/CMSIS/DSP/Source/FilteringFunctions/arm_correlate_q31.c **** 
 723              		.loc 1 344 9 view .LVU256
 344:Drivers/CMSIS/DSP/Source/FilteringFunctions/arm_correlate_q31.c **** 
 724              		.loc 1 344 18 is_stmt 0 view .LVU257
 725 0346 9C46     		mov	ip, r3
 726              	.LVL112:
 344:Drivers/CMSIS/DSP/Source/FilteringFunctions/arm_correlate_q31.c **** 
 727              		.loc 1 344 12 view .LVU258
 728 0348 5CF8043B 		ldr	r3, [ip], #4
 729              	.LVL113:
 347:Drivers/CMSIS/DSP/Source/FilteringFunctions/arm_correlate_q31.c **** 
 730              		.loc 1 347 9 is_stmt 1 view .LVU259
 347:Drivers/CMSIS/DSP/Source/FilteringFunctions/arm_correlate_q31.c **** 
 731              		.loc 1 347 18 is_stmt 0 view .LVU260
 732 034c 2646     		mov	r6, r4
 733              	.LVL114:
 347:Drivers/CMSIS/DSP/Source/FilteringFunctions/arm_correlate_q31.c **** 
 734              		.loc 1 347 12 view .LVU261
 735 034e 56F8044B 		ldr	r4, [r6], #4
 736              	.LVL115:
ARM GAS  /var/folders/n6/c271nzx11xl4r4_m7sqjlt0m0000gn/T//ccDne89y.s 			page 23


 351:Drivers/CMSIS/DSP/Source/FilteringFunctions/arm_correlate_q31.c ****         /* acc1 +=  x[5] * y[4] */
 737              		.loc 1 351 9 is_stmt 1 view .LVU262
 351:Drivers/CMSIS/DSP/Source/FilteringFunctions/arm_correlate_q31.c ****         /* acc1 +=  x[5] * y[4] */
 738              		.loc 1 351 18 is_stmt 0 view .LVU263
 739 0352 4FEAE178 		asr	r8, r1, #31
 351:Drivers/CMSIS/DSP/Source/FilteringFunctions/arm_correlate_q31.c ****         /* acc1 +=  x[5] * y[4] */
 740              		.loc 1 351 29 view .LVU264
 741 0356 4FEAE37E 		asr	lr, r3, #31
 742 035a 01FB0EF5 		mul	r5, r1, lr
 743 035e 03FB0855 		mla	r5, r3, r8, r5
 744 0362 A1FB0318 		umull	r1, r8, r1, r3
 745              	.LVL116:
 351:Drivers/CMSIS/DSP/Source/FilteringFunctions/arm_correlate_q31.c ****         /* acc1 +=  x[5] * y[4] */
 746              		.loc 1 351 29 view .LVU265
 747 0366 4544     		add	r5, r5, r8
 351:Drivers/CMSIS/DSP/Source/FilteringFunctions/arm_correlate_q31.c ****         /* acc1 +=  x[5] * y[4] */
 748              		.loc 1 351 14 view .LVU266
 749 0368 0198     		ldr	r0, [sp, #4]
 750 036a 0918     		adds	r1, r1, r0
 751 036c 0191     		str	r1, [sp, #4]
 752              	.LVL117:
 351:Drivers/CMSIS/DSP/Source/FilteringFunctions/arm_correlate_q31.c ****         /* acc1 +=  x[5] * y[4] */
 753              		.loc 1 351 14 view .LVU267
 754 036e 45EB0B0B 		adc	fp, r5, fp
 755              	.LVL118:
 353:Drivers/CMSIS/DSP/Source/FilteringFunctions/arm_correlate_q31.c ****         /* acc2 +=  x[6] * y[4] */
 756              		.loc 1 353 9 is_stmt 1 view .LVU268
 353:Drivers/CMSIS/DSP/Source/FilteringFunctions/arm_correlate_q31.c ****         /* acc2 +=  x[6] * y[4] */
 757              		.loc 1 353 18 is_stmt 0 view .LVU269
 758 0372 D117     		asrs	r1, r2, #31
 759              	.LVL119:
 353:Drivers/CMSIS/DSP/Source/FilteringFunctions/arm_correlate_q31.c ****         /* acc2 +=  x[6] * y[4] */
 760              		.loc 1 353 29 view .LVU270
 761 0374 03FB01F1 		mul	r1, r3, r1
 762 0378 02FB0E11 		mla	r1, r2, lr, r1
 763 037c A3FB0258 		umull	r5, r8, r3, r2
 764 0380 4144     		add	r1, r1, r8
 353:Drivers/CMSIS/DSP/Source/FilteringFunctions/arm_correlate_q31.c ****         /* acc2 +=  x[6] * y[4] */
 765              		.loc 1 353 14 view .LVU271
 766 0382 0298     		ldr	r0, [sp, #8]
 767 0384 2D18     		adds	r5, r5, r0
 768 0386 0295     		str	r5, [sp, #8]
 769              	.LVL120:
 353:Drivers/CMSIS/DSP/Source/FilteringFunctions/arm_correlate_q31.c ****         /* acc2 +=  x[6] * y[4] */
 770              		.loc 1 353 14 view .LVU272
 771 0388 41EB0909 		adc	r9, r1, r9
 772              	.LVL121:
 355:Drivers/CMSIS/DSP/Source/FilteringFunctions/arm_correlate_q31.c **** 
 773              		.loc 1 355 9 is_stmt 1 view .LVU273
 355:Drivers/CMSIS/DSP/Source/FilteringFunctions/arm_correlate_q31.c **** 
 774              		.loc 1 355 18 is_stmt 0 view .LVU274
 775 038c E117     		asrs	r1, r4, #31
 355:Drivers/CMSIS/DSP/Source/FilteringFunctions/arm_correlate_q31.c **** 
 776              		.loc 1 355 29 view .LVU275
 777 038e 03FB01F1 		mul	r1, r3, r1
 778 0392 04FB0E11 		mla	r1, r4, lr, r1
 779 0396 A3FB0435 		umull	r3, r5, r3, r4
ARM GAS  /var/folders/n6/c271nzx11xl4r4_m7sqjlt0m0000gn/T//ccDne89y.s 			page 24


 780              	.LVL122:
 355:Drivers/CMSIS/DSP/Source/FilteringFunctions/arm_correlate_q31.c **** 
 781              		.loc 1 355 29 view .LVU276
 782 039a 2944     		add	r1, r1, r5
 355:Drivers/CMSIS/DSP/Source/FilteringFunctions/arm_correlate_q31.c **** 
 783              		.loc 1 355 14 view .LVU277
 784 039c 13EB0A03 		adds	r3, r3, r10
 785 03a0 9A46     		mov	r10, r3
 786              	.LVL123:
 355:Drivers/CMSIS/DSP/Source/FilteringFunctions/arm_correlate_q31.c **** 
 787              		.loc 1 355 14 view .LVU278
 788 03a2 009B     		ldr	r3, [sp]
 789 03a4 41EB0303 		adc	r3, r1, r3
 790 03a8 0093     		str	r3, [sp]
 358:Drivers/CMSIS/DSP/Source/FilteringFunctions/arm_correlate_q31.c ****         x1 = x2;
 791              		.loc 1 358 9 is_stmt 1 view .LVU279
 792              	.LVL124:
 359:Drivers/CMSIS/DSP/Source/FilteringFunctions/arm_correlate_q31.c **** 
 793              		.loc 1 359 9 view .LVU280
 362:Drivers/CMSIS/DSP/Source/FilteringFunctions/arm_correlate_q31.c ****       }
 794              		.loc 1 362 9 view .LVU281
 362:Drivers/CMSIS/DSP/Source/FilteringFunctions/arm_correlate_q31.c ****       }
 795              		.loc 1 362 10 is_stmt 0 view .LVU282
 796 03aa 013F     		subs	r7, r7, #1
 797              	.LVL125:
 358:Drivers/CMSIS/DSP/Source/FilteringFunctions/arm_correlate_q31.c ****         x1 = x2;
 798              		.loc 1 358 12 view .LVU283
 799 03ac 1146     		mov	r1, r2
 359:Drivers/CMSIS/DSP/Source/FilteringFunctions/arm_correlate_q31.c **** 
 800              		.loc 1 359 12 view .LVU284
 801 03ae 2246     		mov	r2, r4
 802              	.LVL126:
 344:Drivers/CMSIS/DSP/Source/FilteringFunctions/arm_correlate_q31.c **** 
 803              		.loc 1 344 18 view .LVU285
 804 03b0 6346     		mov	r3, ip
 347:Drivers/CMSIS/DSP/Source/FilteringFunctions/arm_correlate_q31.c **** 
 805              		.loc 1 347 18 view .LVU286
 806 03b2 3446     		mov	r4, r6
 807              	.LVL127:
 347:Drivers/CMSIS/DSP/Source/FilteringFunctions/arm_correlate_q31.c **** 
 808              		.loc 1 347 18 view .LVU287
 809 03b4 C4E7     		b	.L13
 810              	.LVL128:
 811              	.L35:
 386:Drivers/CMSIS/DSP/Source/FilteringFunctions/arm_correlate_q31.c ****     }
 387:Drivers/CMSIS/DSP/Source/FilteringFunctions/arm_correlate_q31.c **** 
 388:Drivers/CMSIS/DSP/Source/FilteringFunctions/arm_correlate_q31.c ****     /* If the blockSize2 is not a multiple of 3, compute any remaining output samples here.
 389:Drivers/CMSIS/DSP/Source/FilteringFunctions/arm_correlate_q31.c ****      ** No loop unrolling is used. */
 390:Drivers/CMSIS/DSP/Source/FilteringFunctions/arm_correlate_q31.c ****     blkCnt = blockSize2 - 3 * (blockSize2 / 3);
 812              		.loc 1 390 12 view .LVU288
 813 03b6 DDF824A0 		ldr	r10, [sp, #36]
 814 03ba A346     		mov	fp, r4
 815 03bc 0C9C     		ldr	r4, [sp, #48]
 816 03be DDF834E0 		ldr	lr, [sp, #52]
 817              		.loc 1 390 5 is_stmt 1 view .LVU289
 818              		.loc 1 390 12 is_stmt 0 view .LVU290
 819 03c2 A3F15533 		sub	r3, r3, #1431655765
ARM GAS  /var/folders/n6/c271nzx11xl4r4_m7sqjlt0m0000gn/T//ccDne89y.s 			page 25


 820              	.LVL129:
 821              		.loc 1 390 12 view .LVU291
 822 03c6 A3FB0E13 		umull	r1, r3, r3, lr
 823 03ca 23F0010C 		bic	ip, r3, #1
 824 03ce 0CEB530C 		add	ip, ip, r3, lsr #1
 825 03d2 AEEB0C01 		sub	r1, lr, ip
 826              	.LVL130:
 391:Drivers/CMSIS/DSP/Source/FilteringFunctions/arm_correlate_q31.c **** 
 392:Drivers/CMSIS/DSP/Source/FilteringFunctions/arm_correlate_q31.c ****     while (blkCnt > 0U)
 827              		.loc 1 392 5 is_stmt 1 view .LVU292
 828 03d6 0095     		str	r5, [sp]
 829 03d8 CDF804A0 		str	r10, [sp, #4]
 830 03dc 0294     		str	r4, [sp, #8]
 831 03de DDF81C90 		ldr	r9, [sp, #28]
 832 03e2 069F     		ldr	r7, [sp, #24]
 833              		.loc 1 392 11 is_stmt 0 view .LVU293
 834 03e4 27E0     		b	.L16
 835              	.LVL131:
 836              	.L39:
 393:Drivers/CMSIS/DSP/Source/FilteringFunctions/arm_correlate_q31.c ****     {
 394:Drivers/CMSIS/DSP/Source/FilteringFunctions/arm_correlate_q31.c ****       /* Accumulator is made zero for every iteration */
 395:Drivers/CMSIS/DSP/Source/FilteringFunctions/arm_correlate_q31.c ****       sum = 0;
 396:Drivers/CMSIS/DSP/Source/FilteringFunctions/arm_correlate_q31.c **** 
 397:Drivers/CMSIS/DSP/Source/FilteringFunctions/arm_correlate_q31.c ****       /* Apply loop unrolling and compute 4 MACs simultaneously. */
 398:Drivers/CMSIS/DSP/Source/FilteringFunctions/arm_correlate_q31.c ****       k = srcBLen >> 2U;
 399:Drivers/CMSIS/DSP/Source/FilteringFunctions/arm_correlate_q31.c **** 
 400:Drivers/CMSIS/DSP/Source/FilteringFunctions/arm_correlate_q31.c ****       /* First part of the processing with loop unrolling.  Compute 4 MACs at a time.
 401:Drivers/CMSIS/DSP/Source/FilteringFunctions/arm_correlate_q31.c ****        ** a second loop below computes MACs for the remaining 1 to 3 samples. */
 402:Drivers/CMSIS/DSP/Source/FilteringFunctions/arm_correlate_q31.c ****       while (k > 0U)
 403:Drivers/CMSIS/DSP/Source/FilteringFunctions/arm_correlate_q31.c ****       {
 404:Drivers/CMSIS/DSP/Source/FilteringFunctions/arm_correlate_q31.c ****         /* Perform the multiply-accumulates */
 405:Drivers/CMSIS/DSP/Source/FilteringFunctions/arm_correlate_q31.c ****         sum += (q63_t) * px++ * (*py++);
 406:Drivers/CMSIS/DSP/Source/FilteringFunctions/arm_correlate_q31.c ****         sum += (q63_t) * px++ * (*py++);
 407:Drivers/CMSIS/DSP/Source/FilteringFunctions/arm_correlate_q31.c ****         sum += (q63_t) * px++ * (*py++);
 408:Drivers/CMSIS/DSP/Source/FilteringFunctions/arm_correlate_q31.c ****         sum += (q63_t) * px++ * (*py++);
 409:Drivers/CMSIS/DSP/Source/FilteringFunctions/arm_correlate_q31.c **** 
 410:Drivers/CMSIS/DSP/Source/FilteringFunctions/arm_correlate_q31.c ****         /* Decrement the loop counter */
 411:Drivers/CMSIS/DSP/Source/FilteringFunctions/arm_correlate_q31.c ****         k--;
 412:Drivers/CMSIS/DSP/Source/FilteringFunctions/arm_correlate_q31.c ****       }
 413:Drivers/CMSIS/DSP/Source/FilteringFunctions/arm_correlate_q31.c **** 
 414:Drivers/CMSIS/DSP/Source/FilteringFunctions/arm_correlate_q31.c ****       /* If the srcBLen is not a multiple of 4, compute any remaining MACs here.
 415:Drivers/CMSIS/DSP/Source/FilteringFunctions/arm_correlate_q31.c ****        ** No loop unrolling is used. */
 416:Drivers/CMSIS/DSP/Source/FilteringFunctions/arm_correlate_q31.c ****       k = srcBLen % 0x4U;
 837              		.loc 1 416 9 view .LVU294
 838 03e6 4346     		mov	r3, r8
 839              		.loc 1 416 7 is_stmt 1 view .LVU295
 840              		.loc 1 416 9 is_stmt 0 view .LVU296
 841 03e8 07F00300 		and	r0, r7, #3
 842              	.LVL132:
 417:Drivers/CMSIS/DSP/Source/FilteringFunctions/arm_correlate_q31.c **** 
 418:Drivers/CMSIS/DSP/Source/FilteringFunctions/arm_correlate_q31.c ****       while (k > 0U)
 843              		.loc 1 418 7 is_stmt 1 view .LVU297
 844 03ec 9046     		mov	r8, r2
 845              	.LVL133:
 846              	.L19:
 847              		.loc 1 418 16 view .LVU298
 848 03ee A0B1     		cbz	r0, .L37
ARM GAS  /var/folders/n6/c271nzx11xl4r4_m7sqjlt0m0000gn/T//ccDne89y.s 			page 26


 419:Drivers/CMSIS/DSP/Source/FilteringFunctions/arm_correlate_q31.c ****       {
 420:Drivers/CMSIS/DSP/Source/FilteringFunctions/arm_correlate_q31.c ****         /* Perform the multiply-accumulate */
 421:Drivers/CMSIS/DSP/Source/FilteringFunctions/arm_correlate_q31.c ****         sum += (q63_t) * px++ * (*py++);
 849              		.loc 1 421 9 view .LVU299
 850              	.LVL134:
 851              		.loc 1 421 24 is_stmt 0 view .LVU300
 852 03f0 58F8045B 		ldr	r5, [r8], #4
 853              	.LVL135:
 854              		.loc 1 421 16 view .LVU301
 855 03f4 4FEAE57A 		asr	r10, r5, #31
 856              	.LVL136:
 857              		.loc 1 421 34 view .LVU302
 858 03f8 56F8042B 		ldr	r2, [r6], #4
 859              	.LVL137:
 860              		.loc 1 421 34 view .LVU303
 861 03fc 4FEAE27C 		asr	ip, r2, #31
 862              		.loc 1 421 31 view .LVU304
 863 0400 05FB0CFC 		mul	ip, r5, ip
 864 0404 02FB0ACC 		mla	ip, r2, r10, ip
 865 0408 A5FB0252 		umull	r5, r2, r5, r2
 866 040c 9444     		add	ip, ip, r2
 867              		.loc 1 421 13 view .LVU305
 868 040e 5D19     		adds	r5, r3, r5
 869 0410 2B46     		mov	r3, r5
 870              	.LVL138:
 871              		.loc 1 421 13 view .LVU306
 872 0412 4CEB0404 		adc	r4, ip, r4
 873              	.LVL139:
 422:Drivers/CMSIS/DSP/Source/FilteringFunctions/arm_correlate_q31.c **** 
 423:Drivers/CMSIS/DSP/Source/FilteringFunctions/arm_correlate_q31.c ****         /* Decrement the loop counter */
 424:Drivers/CMSIS/DSP/Source/FilteringFunctions/arm_correlate_q31.c ****         k--;
 874              		.loc 1 424 9 is_stmt 1 view .LVU307
 875              		.loc 1 424 10 is_stmt 0 view .LVU308
 876 0416 0138     		subs	r0, r0, #1
 877              	.LVL140:
 878              		.loc 1 424 10 view .LVU309
 879 0418 E9E7     		b	.L19
 880              	.L37:
 425:Drivers/CMSIS/DSP/Source/FilteringFunctions/arm_correlate_q31.c ****       }
 426:Drivers/CMSIS/DSP/Source/FilteringFunctions/arm_correlate_q31.c **** 
 427:Drivers/CMSIS/DSP/Source/FilteringFunctions/arm_correlate_q31.c ****       /* Store the result in the accumulator in the destination buffer. */
 428:Drivers/CMSIS/DSP/Source/FilteringFunctions/arm_correlate_q31.c ****       *pOut = (q31_t) (sum >> 31);
 881              		.loc 1 428 7 is_stmt 1 view .LVU310
 882              		.loc 1 428 28 is_stmt 0 view .LVU311
 883 041a DB0F     		lsrs	r3, r3, #31
 884              	.LVL141:
 885              		.loc 1 428 28 view .LVU312
 886 041c 43EA4403 		orr	r3, r3, r4, lsl #1
 887              		.loc 1 428 13 view .LVU313
 888 0420 009A     		ldr	r2, [sp]
 889 0422 1360     		str	r3, [r2]
 429:Drivers/CMSIS/DSP/Source/FilteringFunctions/arm_correlate_q31.c ****       /* Destination pointer is updated according to the address modifier, inc */
 430:Drivers/CMSIS/DSP/Source/FilteringFunctions/arm_correlate_q31.c ****       pOut += inc;
 890              		.loc 1 430 7 is_stmt 1 view .LVU314
 891              		.loc 1 430 12 is_stmt 0 view .LVU315
 892 0424 02EB8B03 		add	r3, r2, fp, lsl #2
 893 0428 0093     		str	r3, [sp]
ARM GAS  /var/folders/n6/c271nzx11xl4r4_m7sqjlt0m0000gn/T//ccDne89y.s 			page 27


 894              	.LVL142:
 431:Drivers/CMSIS/DSP/Source/FilteringFunctions/arm_correlate_q31.c **** 
 432:Drivers/CMSIS/DSP/Source/FilteringFunctions/arm_correlate_q31.c ****       /* Increment the MAC count */
 433:Drivers/CMSIS/DSP/Source/FilteringFunctions/arm_correlate_q31.c ****       count++;
 895              		.loc 1 433 7 is_stmt 1 view .LVU316
 896              		.loc 1 433 12 is_stmt 0 view .LVU317
 897 042a 019B     		ldr	r3, [sp, #4]
 898              	.LVL143:
 899              		.loc 1 433 12 view .LVU318
 900 042c 0133     		adds	r3, r3, #1
 901 042e 0193     		str	r3, [sp, #4]
 902              	.LVL144:
 434:Drivers/CMSIS/DSP/Source/FilteringFunctions/arm_correlate_q31.c **** 
 435:Drivers/CMSIS/DSP/Source/FilteringFunctions/arm_correlate_q31.c ****       /* Update the inputA and inputB pointers for next MAC calculation */
 436:Drivers/CMSIS/DSP/Source/FilteringFunctions/arm_correlate_q31.c ****       px = pIn1 + count;
 903              		.loc 1 436 7 is_stmt 1 view .LVU319
 904              		.loc 1 436 10 is_stmt 0 view .LVU320
 905 0430 09EB8302 		add	r2, r9, r3, lsl #2
 906              	.LVL145:
 437:Drivers/CMSIS/DSP/Source/FilteringFunctions/arm_correlate_q31.c ****       py = pIn2;
 907              		.loc 1 437 7 is_stmt 1 view .LVU321
 438:Drivers/CMSIS/DSP/Source/FilteringFunctions/arm_correlate_q31.c **** 
 439:Drivers/CMSIS/DSP/Source/FilteringFunctions/arm_correlate_q31.c ****       /* Decrement the loop counter */
 440:Drivers/CMSIS/DSP/Source/FilteringFunctions/arm_correlate_q31.c ****       blkCnt--;
 908              		.loc 1 440 7 view .LVU322
 909              		.loc 1 440 13 is_stmt 0 view .LVU323
 910 0434 0139     		subs	r1, r1, #1
 911              	.LVL146:
 912              	.L16:
 392:Drivers/CMSIS/DSP/Source/FilteringFunctions/arm_correlate_q31.c ****     {
 913              		.loc 1 392 19 is_stmt 1 view .LVU324
 914 0436 0029     		cmp	r1, #0
 915 0438 4DD0     		beq	.L38
 395:Drivers/CMSIS/DSP/Source/FilteringFunctions/arm_correlate_q31.c **** 
 916              		.loc 1 395 7 view .LVU325
 917              	.LVL147:
 398:Drivers/CMSIS/DSP/Source/FilteringFunctions/arm_correlate_q31.c **** 
 918              		.loc 1 398 7 view .LVU326
 398:Drivers/CMSIS/DSP/Source/FilteringFunctions/arm_correlate_q31.c **** 
 919              		.loc 1 398 9 is_stmt 0 view .LVU327
 920 043a B808     		lsrs	r0, r7, #2
 921              	.LVL148:
 402:Drivers/CMSIS/DSP/Source/FilteringFunctions/arm_correlate_q31.c ****       {
 922              		.loc 1 402 7 is_stmt 1 view .LVU328
 402:Drivers/CMSIS/DSP/Source/FilteringFunctions/arm_correlate_q31.c ****       {
 923              		.loc 1 402 13 is_stmt 0 view .LVU329
 924 043c 059E     		ldr	r6, [sp, #20]
 395:Drivers/CMSIS/DSP/Source/FilteringFunctions/arm_correlate_q31.c **** 
 925              		.loc 1 395 11 view .LVU330
 926 043e 0023     		movs	r3, #0
 927 0440 1C46     		mov	r4, r3
 928 0442 9846     		mov	r8, r3
 929              	.LVL149:
 930              	.L17:
 402:Drivers/CMSIS/DSP/Source/FilteringFunctions/arm_correlate_q31.c ****       {
 931              		.loc 1 402 16 is_stmt 1 view .LVU331
 932 0444 0028     		cmp	r0, #0
ARM GAS  /var/folders/n6/c271nzx11xl4r4_m7sqjlt0m0000gn/T//ccDne89y.s 			page 28


 933 0446 CED0     		beq	.L39
 405:Drivers/CMSIS/DSP/Source/FilteringFunctions/arm_correlate_q31.c ****         sum += (q63_t) * px++ * (*py++);
 934              		.loc 1 405 9 view .LVU332
 935              	.LVL150:
 405:Drivers/CMSIS/DSP/Source/FilteringFunctions/arm_correlate_q31.c ****         sum += (q63_t) * px++ * (*py++);
 936              		.loc 1 405 24 is_stmt 0 view .LVU333
 937 0448 1568     		ldr	r5, [r2]
 405:Drivers/CMSIS/DSP/Source/FilteringFunctions/arm_correlate_q31.c ****         sum += (q63_t) * px++ * (*py++);
 938              		.loc 1 405 16 view .LVU334
 939 044a 4FEAE57A 		asr	r10, r5, #31
 940              	.LVL151:
 405:Drivers/CMSIS/DSP/Source/FilteringFunctions/arm_correlate_q31.c ****         sum += (q63_t) * px++ * (*py++);
 941              		.loc 1 405 34 view .LVU335
 942 044e 3368     		ldr	r3, [r6]
 943 0450 4FEAE37C 		asr	ip, r3, #31
 405:Drivers/CMSIS/DSP/Source/FilteringFunctions/arm_correlate_q31.c ****         sum += (q63_t) * px++ * (*py++);
 944              		.loc 1 405 31 view .LVU336
 945 0454 05FB0CFC 		mul	ip, r5, ip
 946 0458 03FB0ACA 		mla	r10, r3, r10, ip
 947 045c A5FB033C 		umull	r3, ip, r5, r3
 948 0460 D444     		add	ip, ip, r10
 405:Drivers/CMSIS/DSP/Source/FilteringFunctions/arm_correlate_q31.c ****         sum += (q63_t) * px++ * (*py++);
 949              		.loc 1 405 13 view .LVU337
 950 0462 18EB0308 		adds	r8, r8, r3
 951              	.LVL152:
 405:Drivers/CMSIS/DSP/Source/FilteringFunctions/arm_correlate_q31.c ****         sum += (q63_t) * px++ * (*py++);
 952              		.loc 1 405 13 view .LVU338
 953 0466 4CEB040C 		adc	ip, ip, r4
 954              	.LVL153:
 406:Drivers/CMSIS/DSP/Source/FilteringFunctions/arm_correlate_q31.c ****         sum += (q63_t) * px++ * (*py++);
 955              		.loc 1 406 9 is_stmt 1 view .LVU339
 406:Drivers/CMSIS/DSP/Source/FilteringFunctions/arm_correlate_q31.c ****         sum += (q63_t) * px++ * (*py++);
 956              		.loc 1 406 24 is_stmt 0 view .LVU340
 957 046a 5468     		ldr	r4, [r2, #4]
 406:Drivers/CMSIS/DSP/Source/FilteringFunctions/arm_correlate_q31.c ****         sum += (q63_t) * px++ * (*py++);
 958              		.loc 1 406 16 view .LVU341
 959 046c 4FEAE47A 		asr	r10, r4, #31
 960              	.LVL154:
 406:Drivers/CMSIS/DSP/Source/FilteringFunctions/arm_correlate_q31.c ****         sum += (q63_t) * px++ * (*py++);
 961              		.loc 1 406 34 view .LVU342
 962 0470 7368     		ldr	r3, [r6, #4]
 963 0472 DD17     		asrs	r5, r3, #31
 406:Drivers/CMSIS/DSP/Source/FilteringFunctions/arm_correlate_q31.c ****         sum += (q63_t) * px++ * (*py++);
 964              		.loc 1 406 31 view .LVU343
 965 0474 04FB05F5 		mul	r5, r4, r5
 966 0478 03FB0A55 		mla	r5, r3, r10, r5
 967 047c A4FB0334 		umull	r3, r4, r4, r3
 968 0480 2C44     		add	r4, r4, r5
 406:Drivers/CMSIS/DSP/Source/FilteringFunctions/arm_correlate_q31.c ****         sum += (q63_t) * px++ * (*py++);
 969              		.loc 1 406 13 view .LVU344
 970 0482 18EB0308 		adds	r8, r8, r3
 971              	.LVL155:
 406:Drivers/CMSIS/DSP/Source/FilteringFunctions/arm_correlate_q31.c ****         sum += (q63_t) * px++ * (*py++);
 972              		.loc 1 406 13 view .LVU345
 973 0486 44EB0C04 		adc	r4, r4, ip
 974              	.LVL156:
 407:Drivers/CMSIS/DSP/Source/FilteringFunctions/arm_correlate_q31.c ****         sum += (q63_t) * px++ * (*py++);
ARM GAS  /var/folders/n6/c271nzx11xl4r4_m7sqjlt0m0000gn/T//ccDne89y.s 			page 29


 975              		.loc 1 407 9 is_stmt 1 view .LVU346
 407:Drivers/CMSIS/DSP/Source/FilteringFunctions/arm_correlate_q31.c ****         sum += (q63_t) * px++ * (*py++);
 976              		.loc 1 407 24 is_stmt 0 view .LVU347
 977 048a 9368     		ldr	r3, [r2, #8]
 407:Drivers/CMSIS/DSP/Source/FilteringFunctions/arm_correlate_q31.c ****         sum += (q63_t) * px++ * (*py++);
 978              		.loc 1 407 16 view .LVU348
 979 048c 4FEAE37A 		asr	r10, r3, #31
 980              	.LVL157:
 407:Drivers/CMSIS/DSP/Source/FilteringFunctions/arm_correlate_q31.c ****         sum += (q63_t) * px++ * (*py++);
 981              		.loc 1 407 34 view .LVU349
 982 0490 B568     		ldr	r5, [r6, #8]
 983 0492 4FEAE57C 		asr	ip, r5, #31
 407:Drivers/CMSIS/DSP/Source/FilteringFunctions/arm_correlate_q31.c ****         sum += (q63_t) * px++ * (*py++);
 984              		.loc 1 407 31 view .LVU350
 985 0496 03FB0CFC 		mul	ip, r3, ip
 986 049a 05FB0ACC 		mla	ip, r5, r10, ip
 987 049e A3FB0553 		umull	r5, r3, r3, r5
 988 04a2 6344     		add	r3, r3, ip
 407:Drivers/CMSIS/DSP/Source/FilteringFunctions/arm_correlate_q31.c ****         sum += (q63_t) * px++ * (*py++);
 989              		.loc 1 407 13 view .LVU351
 990 04a4 18EB050C 		adds	ip, r8, r5
 991 04a8 43EB0403 		adc	r3, r3, r4
 992              	.LVL158:
 408:Drivers/CMSIS/DSP/Source/FilteringFunctions/arm_correlate_q31.c **** 
 993              		.loc 1 408 9 is_stmt 1 view .LVU352
 408:Drivers/CMSIS/DSP/Source/FilteringFunctions/arm_correlate_q31.c **** 
 994              		.loc 1 408 24 is_stmt 0 view .LVU353
 995 04ac D468     		ldr	r4, [r2, #12]
 408:Drivers/CMSIS/DSP/Source/FilteringFunctions/arm_correlate_q31.c **** 
 996              		.loc 1 408 16 view .LVU354
 997 04ae 4FEAE47A 		asr	r10, r4, #31
 998              	.LVL159:
 408:Drivers/CMSIS/DSP/Source/FilteringFunctions/arm_correlate_q31.c **** 
 999              		.loc 1 408 34 view .LVU355
 1000 04b2 F568     		ldr	r5, [r6, #12]
 1001 04b4 4FEAE578 		asr	r8, r5, #31
 408:Drivers/CMSIS/DSP/Source/FilteringFunctions/arm_correlate_q31.c **** 
 1002              		.loc 1 408 31 view .LVU356
 1003 04b8 04FB08F8 		mul	r8, r4, r8
 1004 04bc 05FB0A88 		mla	r8, r5, r10, r8
 1005 04c0 A4FB0554 		umull	r5, r4, r4, r5
 1006 04c4 4444     		add	r4, r4, r8
 408:Drivers/CMSIS/DSP/Source/FilteringFunctions/arm_correlate_q31.c **** 
 1007              		.loc 1 408 13 view .LVU357
 1008 04c6 1CEB0508 		adds	r8, ip, r5
 1009 04ca 44EB0304 		adc	r4, r4, r3
 1010              	.LVL160:
 411:Drivers/CMSIS/DSP/Source/FilteringFunctions/arm_correlate_q31.c ****       }
 1011              		.loc 1 411 9 is_stmt 1 view .LVU358
 411:Drivers/CMSIS/DSP/Source/FilteringFunctions/arm_correlate_q31.c ****       }
 1012              		.loc 1 411 10 is_stmt 0 view .LVU359
 1013 04ce 0138     		subs	r0, r0, #1
 1014              	.LVL161:
 408:Drivers/CMSIS/DSP/Source/FilteringFunctions/arm_correlate_q31.c **** 
 1015              		.loc 1 408 37 view .LVU360
 1016 04d0 1036     		adds	r6, r6, #16
 1017              	.LVL162:
ARM GAS  /var/folders/n6/c271nzx11xl4r4_m7sqjlt0m0000gn/T//ccDne89y.s 			page 30


 408:Drivers/CMSIS/DSP/Source/FilteringFunctions/arm_correlate_q31.c **** 
 1018              		.loc 1 408 28 view .LVU361
 1019 04d2 1032     		adds	r2, r2, #16
 1020              	.LVL163:
 408:Drivers/CMSIS/DSP/Source/FilteringFunctions/arm_correlate_q31.c **** 
 1021              		.loc 1 408 28 view .LVU362
 1022 04d4 B6E7     		b	.L17
 1023              	.LVL164:
 1024              	.L38:
 408:Drivers/CMSIS/DSP/Source/FilteringFunctions/arm_correlate_q31.c **** 
 1025              		.loc 1 408 28 view .LVU363
 1026 04d6 009D     		ldr	r5, [sp]
 1027 04d8 029C     		ldr	r4, [sp, #8]
 1028              	.LVL165:
 1029              	.L22:
 441:Drivers/CMSIS/DSP/Source/FilteringFunctions/arm_correlate_q31.c ****     }
 442:Drivers/CMSIS/DSP/Source/FilteringFunctions/arm_correlate_q31.c ****   }
 443:Drivers/CMSIS/DSP/Source/FilteringFunctions/arm_correlate_q31.c ****   else
 444:Drivers/CMSIS/DSP/Source/FilteringFunctions/arm_correlate_q31.c ****   {
 445:Drivers/CMSIS/DSP/Source/FilteringFunctions/arm_correlate_q31.c ****     /* If the srcBLen is not a multiple of 4,
 446:Drivers/CMSIS/DSP/Source/FilteringFunctions/arm_correlate_q31.c ****      * the blockSize2 loop cannot be unrolled by 4 */
 447:Drivers/CMSIS/DSP/Source/FilteringFunctions/arm_correlate_q31.c ****     blkCnt = blockSize2;
 448:Drivers/CMSIS/DSP/Source/FilteringFunctions/arm_correlate_q31.c **** 
 449:Drivers/CMSIS/DSP/Source/FilteringFunctions/arm_correlate_q31.c ****     while (blkCnt > 0U)
 450:Drivers/CMSIS/DSP/Source/FilteringFunctions/arm_correlate_q31.c ****     {
 451:Drivers/CMSIS/DSP/Source/FilteringFunctions/arm_correlate_q31.c ****       /* Accumulator is made zero for every iteration */
 452:Drivers/CMSIS/DSP/Source/FilteringFunctions/arm_correlate_q31.c ****       sum = 0;
 453:Drivers/CMSIS/DSP/Source/FilteringFunctions/arm_correlate_q31.c **** 
 454:Drivers/CMSIS/DSP/Source/FilteringFunctions/arm_correlate_q31.c ****       /* Loop over srcBLen */
 455:Drivers/CMSIS/DSP/Source/FilteringFunctions/arm_correlate_q31.c ****       k = srcBLen;
 456:Drivers/CMSIS/DSP/Source/FilteringFunctions/arm_correlate_q31.c **** 
 457:Drivers/CMSIS/DSP/Source/FilteringFunctions/arm_correlate_q31.c ****       while (k > 0U)
 458:Drivers/CMSIS/DSP/Source/FilteringFunctions/arm_correlate_q31.c ****       {
 459:Drivers/CMSIS/DSP/Source/FilteringFunctions/arm_correlate_q31.c ****         /* Perform the multiply-accumulate */
 460:Drivers/CMSIS/DSP/Source/FilteringFunctions/arm_correlate_q31.c ****         sum += (q63_t) * px++ * (*py++);
 461:Drivers/CMSIS/DSP/Source/FilteringFunctions/arm_correlate_q31.c **** 
 462:Drivers/CMSIS/DSP/Source/FilteringFunctions/arm_correlate_q31.c ****         /* Decrement the loop counter */
 463:Drivers/CMSIS/DSP/Source/FilteringFunctions/arm_correlate_q31.c ****         k--;
 464:Drivers/CMSIS/DSP/Source/FilteringFunctions/arm_correlate_q31.c ****       }
 465:Drivers/CMSIS/DSP/Source/FilteringFunctions/arm_correlate_q31.c **** 
 466:Drivers/CMSIS/DSP/Source/FilteringFunctions/arm_correlate_q31.c ****       /* Store the result in the accumulator in the destination buffer. */
 467:Drivers/CMSIS/DSP/Source/FilteringFunctions/arm_correlate_q31.c ****       *pOut = (q31_t) (sum >> 31);
 468:Drivers/CMSIS/DSP/Source/FilteringFunctions/arm_correlate_q31.c ****       /* Destination pointer is updated according to the address modifier, inc */
 469:Drivers/CMSIS/DSP/Source/FilteringFunctions/arm_correlate_q31.c ****       pOut += inc;
 470:Drivers/CMSIS/DSP/Source/FilteringFunctions/arm_correlate_q31.c **** 
 471:Drivers/CMSIS/DSP/Source/FilteringFunctions/arm_correlate_q31.c ****       /* Increment the MAC count */
 472:Drivers/CMSIS/DSP/Source/FilteringFunctions/arm_correlate_q31.c ****       count++;
 473:Drivers/CMSIS/DSP/Source/FilteringFunctions/arm_correlate_q31.c **** 
 474:Drivers/CMSIS/DSP/Source/FilteringFunctions/arm_correlate_q31.c ****       /* Update the inputA and inputB pointers for next MAC calculation */
 475:Drivers/CMSIS/DSP/Source/FilteringFunctions/arm_correlate_q31.c ****       px = pIn1 + count;
 476:Drivers/CMSIS/DSP/Source/FilteringFunctions/arm_correlate_q31.c ****       py = pIn2;
 477:Drivers/CMSIS/DSP/Source/FilteringFunctions/arm_correlate_q31.c **** 
 478:Drivers/CMSIS/DSP/Source/FilteringFunctions/arm_correlate_q31.c ****       /* Decrement the loop counter */
 479:Drivers/CMSIS/DSP/Source/FilteringFunctions/arm_correlate_q31.c ****       blkCnt--;
 480:Drivers/CMSIS/DSP/Source/FilteringFunctions/arm_correlate_q31.c ****     }
 481:Drivers/CMSIS/DSP/Source/FilteringFunctions/arm_correlate_q31.c ****   }
 482:Drivers/CMSIS/DSP/Source/FilteringFunctions/arm_correlate_q31.c **** 
ARM GAS  /var/folders/n6/c271nzx11xl4r4_m7sqjlt0m0000gn/T//ccDne89y.s 			page 31


 483:Drivers/CMSIS/DSP/Source/FilteringFunctions/arm_correlate_q31.c ****   /* --------------------------
 484:Drivers/CMSIS/DSP/Source/FilteringFunctions/arm_correlate_q31.c ****    * Initializations of stage3
 485:Drivers/CMSIS/DSP/Source/FilteringFunctions/arm_correlate_q31.c ****    * -------------------------*/
 486:Drivers/CMSIS/DSP/Source/FilteringFunctions/arm_correlate_q31.c **** 
 487:Drivers/CMSIS/DSP/Source/FilteringFunctions/arm_correlate_q31.c ****   /* sum += x[srcALen-srcBLen+1] * y[0] + x[srcALen-srcBLen+2] * y[1] +...+ x[srcALen-1] * y[srcBLe
 488:Drivers/CMSIS/DSP/Source/FilteringFunctions/arm_correlate_q31.c ****    * sum += x[srcALen-srcBLen+2] * y[0] + x[srcALen-srcBLen+3] * y[1] +...+ x[srcALen-1] * y[srcBLe
 489:Drivers/CMSIS/DSP/Source/FilteringFunctions/arm_correlate_q31.c ****    * ....
 490:Drivers/CMSIS/DSP/Source/FilteringFunctions/arm_correlate_q31.c ****    * sum +=  x[srcALen-2] * y[0] + x[srcALen-1] * y[1]
 491:Drivers/CMSIS/DSP/Source/FilteringFunctions/arm_correlate_q31.c ****    * sum +=  x[srcALen-1] * y[0]
 492:Drivers/CMSIS/DSP/Source/FilteringFunctions/arm_correlate_q31.c ****    */
 493:Drivers/CMSIS/DSP/Source/FilteringFunctions/arm_correlate_q31.c **** 
 494:Drivers/CMSIS/DSP/Source/FilteringFunctions/arm_correlate_q31.c ****   /* In this stage the MAC operations are decreased by 1 for every iteration.
 495:Drivers/CMSIS/DSP/Source/FilteringFunctions/arm_correlate_q31.c ****      The count variable holds the number of MAC operations performed */
 496:Drivers/CMSIS/DSP/Source/FilteringFunctions/arm_correlate_q31.c ****   count = srcBLen - 1U;
 1030              		.loc 1 496 3 is_stmt 1 view .LVU364
 497:Drivers/CMSIS/DSP/Source/FilteringFunctions/arm_correlate_q31.c **** 
 498:Drivers/CMSIS/DSP/Source/FilteringFunctions/arm_correlate_q31.c ****   /* Working pointer of inputA */
 499:Drivers/CMSIS/DSP/Source/FilteringFunctions/arm_correlate_q31.c ****   pSrc1 = pIn1 + (srcALen - (srcBLen - 1U));
 1031              		.loc 1 499 3 view .LVU365
 1032              		.loc 1 499 9 is_stmt 0 view .LVU366
 1033 04da 079B     		ldr	r3, [sp, #28]
 1034 04dc 03EB8E0C 		add	ip, r3, lr, lsl #2
 1035              	.LVL166:
 500:Drivers/CMSIS/DSP/Source/FilteringFunctions/arm_correlate_q31.c ****   px = pSrc1;
 1036              		.loc 1 500 3 is_stmt 1 view .LVU367
 501:Drivers/CMSIS/DSP/Source/FilteringFunctions/arm_correlate_q31.c **** 
 502:Drivers/CMSIS/DSP/Source/FilteringFunctions/arm_correlate_q31.c ****   /* Working pointer of inputB */
 503:Drivers/CMSIS/DSP/Source/FilteringFunctions/arm_correlate_q31.c ****   py = pIn2;
 1037              		.loc 1 503 3 view .LVU368
 504:Drivers/CMSIS/DSP/Source/FilteringFunctions/arm_correlate_q31.c **** 
 505:Drivers/CMSIS/DSP/Source/FilteringFunctions/arm_correlate_q31.c ****   /* -------------------
 506:Drivers/CMSIS/DSP/Source/FilteringFunctions/arm_correlate_q31.c ****    * Stage3 process
 507:Drivers/CMSIS/DSP/Source/FilteringFunctions/arm_correlate_q31.c ****    * ------------------*/
 508:Drivers/CMSIS/DSP/Source/FilteringFunctions/arm_correlate_q31.c **** 
 509:Drivers/CMSIS/DSP/Source/FilteringFunctions/arm_correlate_q31.c ****   while (blockSize3 > 0U)
 1038              		.loc 1 509 3 view .LVU369
 157:Drivers/CMSIS/DSP/Source/FilteringFunctions/arm_correlate_q31.c **** 
 1039              		.loc 1 157 14 is_stmt 0 view .LVU370
 1040 04e0 2746     		mov	r7, r4
 1041              		.loc 1 509 9 view .LVU371
 1042 04e2 B7E0     		b	.L25
 1043              	.L45:
 1044              		.align	2
 1045              	.L44:
 1046 04e4 ABAAAAAA 		.word	-1431655765
 1047              	.LVL167:
 1048              	.L23:
 460:Drivers/CMSIS/DSP/Source/FilteringFunctions/arm_correlate_q31.c **** 
 1049              		.loc 1 460 9 is_stmt 1 view .LVU372
 460:Drivers/CMSIS/DSP/Source/FilteringFunctions/arm_correlate_q31.c **** 
 1050              		.loc 1 460 24 is_stmt 0 view .LVU373
 1051 04e8 56F8042B 		ldr	r2, [r6], #4
 1052              	.LVL168:
 460:Drivers/CMSIS/DSP/Source/FilteringFunctions/arm_correlate_q31.c **** 
 1053              		.loc 1 460 16 view .LVU374
 1054 04ec 4FEAE27A 		asr	r10, r2, #31
 1055              	.LVL169:
ARM GAS  /var/folders/n6/c271nzx11xl4r4_m7sqjlt0m0000gn/T//ccDne89y.s 			page 32


 460:Drivers/CMSIS/DSP/Source/FilteringFunctions/arm_correlate_q31.c **** 
 1056              		.loc 1 460 34 view .LVU375
 1057 04f0 54F8041B 		ldr	r1, [r4], #4
 1058              	.LVL170:
 460:Drivers/CMSIS/DSP/Source/FilteringFunctions/arm_correlate_q31.c **** 
 1059              		.loc 1 460 34 view .LVU376
 1060 04f4 4FEAE17E 		asr	lr, r1, #31
 460:Drivers/CMSIS/DSP/Source/FilteringFunctions/arm_correlate_q31.c **** 
 1061              		.loc 1 460 31 view .LVU377
 1062 04f8 02FB0EFE 		mul	lr, r2, lr
 1063 04fc 01FB0AEE 		mla	lr, r1, r10, lr
 1064 0500 A2FB0121 		umull	r2, r1, r2, r1
 1065 0504 7144     		add	r1, r1, lr
 460:Drivers/CMSIS/DSP/Source/FilteringFunctions/arm_correlate_q31.c **** 
 1066              		.loc 1 460 13 view .LVU378
 1067 0506 9A18     		adds	r2, r3, r2
 1068 0508 1346     		mov	r3, r2
 1069              	.LVL171:
 460:Drivers/CMSIS/DSP/Source/FilteringFunctions/arm_correlate_q31.c **** 
 1070              		.loc 1 460 13 view .LVU379
 1071 050a 41EB0C0C 		adc	ip, r1, ip
 1072              	.LVL172:
 463:Drivers/CMSIS/DSP/Source/FilteringFunctions/arm_correlate_q31.c ****       }
 1073              		.loc 1 463 9 is_stmt 1 view .LVU380
 463:Drivers/CMSIS/DSP/Source/FilteringFunctions/arm_correlate_q31.c ****       }
 1074              		.loc 1 463 10 is_stmt 0 view .LVU381
 1075 050e 0138     		subs	r0, r0, #1
 1076              	.LVL173:
 1077              	.L24:
 457:Drivers/CMSIS/DSP/Source/FilteringFunctions/arm_correlate_q31.c ****       {
 1078              		.loc 1 457 16 is_stmt 1 view .LVU382
 1079 0510 0028     		cmp	r0, #0
 1080 0512 E9D1     		bne	.L23
 467:Drivers/CMSIS/DSP/Source/FilteringFunctions/arm_correlate_q31.c ****       /* Destination pointer is updated according to the address modifier, inc */
 1081              		.loc 1 467 28 is_stmt 0 view .LVU383
 1082 0514 DDF800E0 		ldr	lr, [sp]
 1083 0518 DDF804A0 		ldr	r10, [sp, #4]
 467:Drivers/CMSIS/DSP/Source/FilteringFunctions/arm_correlate_q31.c ****       /* Destination pointer is updated according to the address modifier, inc */
 1084              		.loc 1 467 7 is_stmt 1 view .LVU384
 467:Drivers/CMSIS/DSP/Source/FilteringFunctions/arm_correlate_q31.c ****       /* Destination pointer is updated according to the address modifier, inc */
 1085              		.loc 1 467 28 is_stmt 0 view .LVU385
 1086 051c DB0F     		lsrs	r3, r3, #31
 1087              	.LVL174:
 467:Drivers/CMSIS/DSP/Source/FilteringFunctions/arm_correlate_q31.c ****       /* Destination pointer is updated according to the address modifier, inc */
 1088              		.loc 1 467 28 view .LVU386
 1089 051e 43EA4C03 		orr	r3, r3, ip, lsl #1
 467:Drivers/CMSIS/DSP/Source/FilteringFunctions/arm_correlate_q31.c ****       /* Destination pointer is updated according to the address modifier, inc */
 1090              		.loc 1 467 13 view .LVU387
 1091 0522 CEF80030 		str	r3, [lr]
 469:Drivers/CMSIS/DSP/Source/FilteringFunctions/arm_correlate_q31.c **** 
 1092              		.loc 1 469 7 is_stmt 1 view .LVU388
 469:Drivers/CMSIS/DSP/Source/FilteringFunctions/arm_correlate_q31.c **** 
 1093              		.loc 1 469 12 is_stmt 0 view .LVU389
 1094 0526 0EEB8B0E 		add	lr, lr, fp, lsl #2
 1095              	.LVL175:
 472:Drivers/CMSIS/DSP/Source/FilteringFunctions/arm_correlate_q31.c **** 
 1096              		.loc 1 472 7 is_stmt 1 view .LVU390
ARM GAS  /var/folders/n6/c271nzx11xl4r4_m7sqjlt0m0000gn/T//ccDne89y.s 			page 33


 472:Drivers/CMSIS/DSP/Source/FilteringFunctions/arm_correlate_q31.c **** 
 1097              		.loc 1 472 12 is_stmt 0 view .LVU391
 1098 052a 0AF1010A 		add	r10, r10, #1
 1099              	.LVL176:
 475:Drivers/CMSIS/DSP/Source/FilteringFunctions/arm_correlate_q31.c ****       py = pIn2;
 1100              		.loc 1 475 7 is_stmt 1 view .LVU392
 475:Drivers/CMSIS/DSP/Source/FilteringFunctions/arm_correlate_q31.c ****       py = pIn2;
 1101              		.loc 1 475 10 is_stmt 0 view .LVU393
 1102 052e 08EB8A06 		add	r6, r8, r10, lsl #2
 1103              	.LVL177:
 476:Drivers/CMSIS/DSP/Source/FilteringFunctions/arm_correlate_q31.c **** 
 1104              		.loc 1 476 7 is_stmt 1 view .LVU394
 479:Drivers/CMSIS/DSP/Source/FilteringFunctions/arm_correlate_q31.c ****     }
 1105              		.loc 1 479 7 view .LVU395
 479:Drivers/CMSIS/DSP/Source/FilteringFunctions/arm_correlate_q31.c ****     }
 1106              		.loc 1 479 13 is_stmt 0 view .LVU396
 1107 0532 013D     		subs	r5, r5, #1
 1108              	.LVL178:
 1109              	.L10:
 449:Drivers/CMSIS/DSP/Source/FilteringFunctions/arm_correlate_q31.c ****     {
 1110              		.loc 1 449 19 is_stmt 1 view .LVU397
 1111 0534 8DB1     		cbz	r5, .L40
 455:Drivers/CMSIS/DSP/Source/FilteringFunctions/arm_correlate_q31.c **** 
 1112              		.loc 1 455 9 is_stmt 0 view .LVU398
 1113 0536 0698     		ldr	r0, [sp, #24]
 1114 0538 059C     		ldr	r4, [sp, #20]
 452:Drivers/CMSIS/DSP/Source/FilteringFunctions/arm_correlate_q31.c **** 
 1115              		.loc 1 452 11 view .LVU399
 1116 053a 0023     		movs	r3, #0
 1117 053c 9C46     		mov	ip, r3
 1118 053e CDF800E0 		str	lr, [sp]
 1119 0542 CDF804A0 		str	r10, [sp, #4]
 1120 0546 E3E7     		b	.L24
 1121              	.LVL179:
 1122              	.L31:
 447:Drivers/CMSIS/DSP/Source/FilteringFunctions/arm_correlate_q31.c **** 
 1123              		.loc 1 447 12 view .LVU400
 1124 0548 7046     		mov	r0, lr
 1125              	.LVL180:
 251:Drivers/CMSIS/DSP/Source/FilteringFunctions/arm_correlate_q31.c **** 
 1126              		.loc 1 251 6 view .LVU401
 1127 054a DDF81C80 		ldr	r8, [sp, #28]
 1128              	.LVL181:
 251:Drivers/CMSIS/DSP/Source/FilteringFunctions/arm_correlate_q31.c **** 
 1129              		.loc 1 251 6 view .LVU402
 1130 054e 4646     		mov	r6, r8
 1131 0550 2746     		mov	r7, r4
 1132 0552 F146     		mov	r9, lr
 1133 0554 AE46     		mov	lr, r5
 1134              	.LVL182:
 251:Drivers/CMSIS/DSP/Source/FilteringFunctions/arm_correlate_q31.c **** 
 1135              		.loc 1 251 6 view .LVU403
 1136 0556 0546     		mov	r5, r0
 1137 0558 ECE7     		b	.L10
 1138              	.LVL183:
 1139              	.L40:
 251:Drivers/CMSIS/DSP/Source/FilteringFunctions/arm_correlate_q31.c **** 
ARM GAS  /var/folders/n6/c271nzx11xl4r4_m7sqjlt0m0000gn/T//ccDne89y.s 			page 34


 1140              		.loc 1 251 6 view .LVU404
 1141 055a 7546     		mov	r5, lr
 1142              	.LVL184:
 251:Drivers/CMSIS/DSP/Source/FilteringFunctions/arm_correlate_q31.c **** 
 1143              		.loc 1 251 6 view .LVU405
 1144 055c 3C46     		mov	r4, r7
 1145 055e CE46     		mov	lr, r9
 1146              	.LVL185:
 251:Drivers/CMSIS/DSP/Source/FilteringFunctions/arm_correlate_q31.c **** 
 1147              		.loc 1 251 6 view .LVU406
 1148 0560 BBE7     		b	.L22
 1149              	.LVL186:
 1150              	.L27:
 510:Drivers/CMSIS/DSP/Source/FilteringFunctions/arm_correlate_q31.c ****   {
 511:Drivers/CMSIS/DSP/Source/FilteringFunctions/arm_correlate_q31.c ****     /* Accumulator is made zero for every iteration */
 512:Drivers/CMSIS/DSP/Source/FilteringFunctions/arm_correlate_q31.c ****     sum = 0;
 513:Drivers/CMSIS/DSP/Source/FilteringFunctions/arm_correlate_q31.c **** 
 514:Drivers/CMSIS/DSP/Source/FilteringFunctions/arm_correlate_q31.c ****     /* Apply loop unrolling and compute 4 MACs simultaneously. */
 515:Drivers/CMSIS/DSP/Source/FilteringFunctions/arm_correlate_q31.c ****     k = count >> 2U;
 516:Drivers/CMSIS/DSP/Source/FilteringFunctions/arm_correlate_q31.c **** 
 517:Drivers/CMSIS/DSP/Source/FilteringFunctions/arm_correlate_q31.c ****     /* First part of the processing with loop unrolling.  Compute 4 MACs at a time.
 518:Drivers/CMSIS/DSP/Source/FilteringFunctions/arm_correlate_q31.c ****      ** a second loop below computes MACs for the remaining 1 to 3 samples. */
 519:Drivers/CMSIS/DSP/Source/FilteringFunctions/arm_correlate_q31.c ****     while (k > 0U)
 520:Drivers/CMSIS/DSP/Source/FilteringFunctions/arm_correlate_q31.c ****     {
 521:Drivers/CMSIS/DSP/Source/FilteringFunctions/arm_correlate_q31.c ****       /* Perform the multiply-accumulates */
 522:Drivers/CMSIS/DSP/Source/FilteringFunctions/arm_correlate_q31.c ****       /* sum += x[srcALen - srcBLen + 4] * y[3] */
 523:Drivers/CMSIS/DSP/Source/FilteringFunctions/arm_correlate_q31.c ****       sum += (q63_t) * px++ * (*py++);
 1151              		.loc 1 523 7 is_stmt 1 view .LVU407
 1152              		.loc 1 523 22 is_stmt 0 view .LVU408
 1153 0562 0168     		ldr	r1, [r0]
 1154              		.loc 1 523 14 view .LVU409
 1155 0564 4FEAE17A 		asr	r10, r1, #31
 1156              	.LVL187:
 1157              		.loc 1 523 32 view .LVU410
 1158 0568 D6F80080 		ldr	r8, [r6]
 1159 056c 4FEAE872 		asr	r2, r8, #31
 1160              		.loc 1 523 29 view .LVU411
 1161 0570 01FB02F2 		mul	r2, r1, r2
 1162 0574 08FB0A22 		mla	r2, r8, r10, r2
 1163 0578 A1FB0881 		umull	r8, r1, r1, r8
 1164 057c 1144     		add	r1, r1, r2
 1165              		.loc 1 523 11 view .LVU412
 1166 057e 13EB0803 		adds	r3, r3, r8
 1167              	.LVL188:
 1168              		.loc 1 523 11 view .LVU413
 1169 0582 41EB0901 		adc	r1, r1, r9
 1170              	.LVL189:
 524:Drivers/CMSIS/DSP/Source/FilteringFunctions/arm_correlate_q31.c ****       /* sum += x[srcALen - srcBLen + 3] * y[2] */
 525:Drivers/CMSIS/DSP/Source/FilteringFunctions/arm_correlate_q31.c ****       sum += (q63_t) * px++ * (*py++);
 1171              		.loc 1 525 7 is_stmt 1 view .LVU414
 1172              		.loc 1 525 22 is_stmt 0 view .LVU415
 1173 0586 D0F80480 		ldr	r8, [r0, #4]
 1174              		.loc 1 525 14 view .LVU416
 1175 058a 4FEAE87A 		asr	r10, r8, #31
 1176              	.LVL190:
 1177              		.loc 1 525 32 view .LVU417
 1178 058e D6F80490 		ldr	r9, [r6, #4]
ARM GAS  /var/folders/n6/c271nzx11xl4r4_m7sqjlt0m0000gn/T//ccDne89y.s 			page 35


 1179 0592 4FEAE972 		asr	r2, r9, #31
 1180              		.loc 1 525 29 view .LVU418
 1181 0596 08FB02F2 		mul	r2, r8, r2
 1182 059a 09FB0A22 		mla	r2, r9, r10, r2
 1183 059e A8FB0989 		umull	r8, r9, r8, r9
 1184 05a2 4A44     		add	r2, r2, r9
 1185              		.loc 1 525 11 view .LVU419
 1186 05a4 13EB0803 		adds	r3, r3, r8
 1187              	.LVL191:
 1188              		.loc 1 525 11 view .LVU420
 1189 05a8 42EB0102 		adc	r2, r2, r1
 1190              	.LVL192:
 526:Drivers/CMSIS/DSP/Source/FilteringFunctions/arm_correlate_q31.c ****       /* sum += x[srcALen - srcBLen + 2] * y[1] */
 527:Drivers/CMSIS/DSP/Source/FilteringFunctions/arm_correlate_q31.c ****       sum += (q63_t) * px++ * (*py++);
 1191              		.loc 1 527 7 is_stmt 1 view .LVU421
 1192              		.loc 1 527 22 is_stmt 0 view .LVU422
 1193 05ac 8168     		ldr	r1, [r0, #8]
 1194              		.loc 1 527 14 view .LVU423
 1195 05ae 4FEAE17A 		asr	r10, r1, #31
 1196              	.LVL193:
 1197              		.loc 1 527 32 view .LVU424
 1198 05b2 D6F80880 		ldr	r8, [r6, #8]
 1199 05b6 4FEAE879 		asr	r9, r8, #31
 1200              		.loc 1 527 29 view .LVU425
 1201 05ba 01FB09F9 		mul	r9, r1, r9
 1202 05be 08FB0A99 		mla	r9, r8, r10, r9
 1203 05c2 A1FB0881 		umull	r8, r1, r1, r8
 1204 05c6 4944     		add	r1, r1, r9
 1205              		.loc 1 527 11 view .LVU426
 1206 05c8 13EB0808 		adds	r8, r3, r8
 1207 05cc 41EB0201 		adc	r1, r1, r2
 1208              	.LVL194:
 528:Drivers/CMSIS/DSP/Source/FilteringFunctions/arm_correlate_q31.c ****       /* sum += x[srcALen - srcBLen + 1] * y[0] */
 529:Drivers/CMSIS/DSP/Source/FilteringFunctions/arm_correlate_q31.c ****       sum += (q63_t) * px++ * (*py++);
 1209              		.loc 1 529 7 is_stmt 1 view .LVU427
 1210              		.loc 1 529 22 is_stmt 0 view .LVU428
 1211 05d0 C268     		ldr	r2, [r0, #12]
 1212              		.loc 1 529 14 view .LVU429
 1213 05d2 4FEAE27A 		asr	r10, r2, #31
 1214              	.LVL195:
 1215              		.loc 1 529 32 view .LVU430
 1216 05d6 D6F80C90 		ldr	r9, [r6, #12]
 1217 05da 4FEAE973 		asr	r3, r9, #31
 1218              		.loc 1 529 29 view .LVU431
 1219 05de 02FB03F3 		mul	r3, r2, r3
 1220 05e2 09FB0A33 		mla	r3, r9, r10, r3
 1221 05e6 A2FB0929 		umull	r2, r9, r2, r9
 1222 05ea 9944     		add	r9, r9, r3
 1223              		.loc 1 529 11 view .LVU432
 1224 05ec 18EB0203 		adds	r3, r8, r2
 1225 05f0 49EB0109 		adc	r9, r9, r1
 1226              	.LVL196:
 530:Drivers/CMSIS/DSP/Source/FilteringFunctions/arm_correlate_q31.c **** 
 531:Drivers/CMSIS/DSP/Source/FilteringFunctions/arm_correlate_q31.c ****       /* Decrement the loop counter */
 532:Drivers/CMSIS/DSP/Source/FilteringFunctions/arm_correlate_q31.c ****       k--;
 1227              		.loc 1 532 7 is_stmt 1 view .LVU433
 1228              		.loc 1 532 8 is_stmt 0 view .LVU434
ARM GAS  /var/folders/n6/c271nzx11xl4r4_m7sqjlt0m0000gn/T//ccDne89y.s 			page 36


 1229 05f4 013C     		subs	r4, r4, #1
 1230              	.LVL197:
 529:Drivers/CMSIS/DSP/Source/FilteringFunctions/arm_correlate_q31.c **** 
 1231              		.loc 1 529 35 view .LVU435
 1232 05f6 1036     		adds	r6, r6, #16
 1233              	.LVL198:
 529:Drivers/CMSIS/DSP/Source/FilteringFunctions/arm_correlate_q31.c **** 
 1234              		.loc 1 529 26 view .LVU436
 1235 05f8 1030     		adds	r0, r0, #16
 1236              	.LVL199:
 1237              	.L26:
 519:Drivers/CMSIS/DSP/Source/FilteringFunctions/arm_correlate_q31.c ****     {
 1238              		.loc 1 519 14 is_stmt 1 view .LVU437
 1239 05fa 002C     		cmp	r4, #0
 1240 05fc B1D1     		bne	.L27
 533:Drivers/CMSIS/DSP/Source/FilteringFunctions/arm_correlate_q31.c ****     }
 534:Drivers/CMSIS/DSP/Source/FilteringFunctions/arm_correlate_q31.c **** 
 535:Drivers/CMSIS/DSP/Source/FilteringFunctions/arm_correlate_q31.c ****     /* If the count is not a multiple of 4, compute any remaining MACs here.
 536:Drivers/CMSIS/DSP/Source/FilteringFunctions/arm_correlate_q31.c ****      ** No loop unrolling is used. */
 537:Drivers/CMSIS/DSP/Source/FilteringFunctions/arm_correlate_q31.c ****     k = count % 0x4U;
 1241              		.loc 1 537 7 is_stmt 0 view .LVU438
 1242 05fe 7446     		mov	r4, lr
 1243              	.LVL200:
 1244              		.loc 1 537 7 view .LVU439
 1245 0600 4946     		mov	r1, r9
 1246              		.loc 1 537 5 is_stmt 1 view .LVU440
 1247              		.loc 1 537 7 is_stmt 0 view .LVU441
 1248 0602 0EF00308 		and	r8, lr, #3
 1249              	.LVL201:
 538:Drivers/CMSIS/DSP/Source/FilteringFunctions/arm_correlate_q31.c **** 
 539:Drivers/CMSIS/DSP/Source/FilteringFunctions/arm_correlate_q31.c ****     while (k > 0U)
 1250              		.loc 1 539 5 is_stmt 1 view .LVU442
 1251 0606 8146     		mov	r9, r0
 1252              	.LVL202:
 1253              		.loc 1 539 5 is_stmt 0 view .LVU443
 1254 0608 1A46     		mov	r2, r3
 1255 060a 4346     		mov	r3, r8
 1256              	.LVL203:
 1257              		.loc 1 539 5 view .LVU444
 1258 060c 9046     		mov	r8, r2
 1259              	.LVL204:
 1260              		.loc 1 539 11 view .LVU445
 1261 060e 14E0     		b	.L28
 1262              	.LVL205:
 1263              	.L29:
 540:Drivers/CMSIS/DSP/Source/FilteringFunctions/arm_correlate_q31.c ****     {
 541:Drivers/CMSIS/DSP/Source/FilteringFunctions/arm_correlate_q31.c ****       /* Perform the multiply-accumulates */
 542:Drivers/CMSIS/DSP/Source/FilteringFunctions/arm_correlate_q31.c ****       sum += (q63_t) * px++ * (*py++);
 1264              		.loc 1 542 7 is_stmt 1 view .LVU446
 1265              		.loc 1 542 22 is_stmt 0 view .LVU447
 1266 0610 59F8042B 		ldr	r2, [r9], #4
 1267              	.LVL206:
 1268              		.loc 1 542 14 view .LVU448
 1269 0614 4FEAE27A 		asr	r10, r2, #31
 1270              	.LVL207:
 1271              		.loc 1 542 32 view .LVU449
 1272 0618 56F8040B 		ldr	r0, [r6], #4
ARM GAS  /var/folders/n6/c271nzx11xl4r4_m7sqjlt0m0000gn/T//ccDne89y.s 			page 37


 1273              	.LVL208:
 1274              		.loc 1 542 32 view .LVU450
 1275 061c 4FEAE07E 		asr	lr, r0, #31
 1276              		.loc 1 542 29 view .LVU451
 1277 0620 02FB0EFE 		mul	lr, r2, lr
 1278 0624 00FB0AEE 		mla	lr, r0, r10, lr
 1279 0628 A2FB0020 		umull	r2, r0, r2, r0
 1280 062c 8644     		add	lr, lr, r0
 1281              		.loc 1 542 11 view .LVU452
 1282 062e 18EB0202 		adds	r2, r8, r2
 1283 0632 9046     		mov	r8, r2
 1284              	.LVL209:
 1285              		.loc 1 542 11 view .LVU453
 1286 0634 4EEB0101 		adc	r1, lr, r1
 1287              	.LVL210:
 543:Drivers/CMSIS/DSP/Source/FilteringFunctions/arm_correlate_q31.c **** 
 544:Drivers/CMSIS/DSP/Source/FilteringFunctions/arm_correlate_q31.c ****       /* Decrement the loop counter */
 545:Drivers/CMSIS/DSP/Source/FilteringFunctions/arm_correlate_q31.c ****       k--;
 1288              		.loc 1 545 7 is_stmt 1 view .LVU454
 1289              		.loc 1 545 8 is_stmt 0 view .LVU455
 1290 0638 013B     		subs	r3, r3, #1
 1291              	.LVL211:
 1292              	.L28:
 539:Drivers/CMSIS/DSP/Source/FilteringFunctions/arm_correlate_q31.c ****     {
 1293              		.loc 1 539 14 is_stmt 1 view .LVU456
 1294 063a 002B     		cmp	r3, #0
 1295 063c E8D1     		bne	.L29
 546:Drivers/CMSIS/DSP/Source/FilteringFunctions/arm_correlate_q31.c ****     }
 547:Drivers/CMSIS/DSP/Source/FilteringFunctions/arm_correlate_q31.c **** 
 548:Drivers/CMSIS/DSP/Source/FilteringFunctions/arm_correlate_q31.c ****     /* Store the result in the accumulator in the destination buffer. */
 549:Drivers/CMSIS/DSP/Source/FilteringFunctions/arm_correlate_q31.c ****     *pOut = (q31_t) (sum >> 31);
 1296              		.loc 1 549 26 is_stmt 0 view .LVU457
 1297 063e 4346     		mov	r3, r8
 1298              	.LVL212:
 1299              		.loc 1 549 5 is_stmt 1 view .LVU458
 1300              		.loc 1 549 26 is_stmt 0 view .LVU459
 1301 0640 DB0F     		lsrs	r3, r3, #31
 1302 0642 43EA4103 		orr	r3, r3, r1, lsl #1
 1303              		.loc 1 549 11 view .LVU460
 1304 0646 2B60     		str	r3, [r5]
 550:Drivers/CMSIS/DSP/Source/FilteringFunctions/arm_correlate_q31.c ****     /* Destination pointer is updated according to the address modifier, inc */
 551:Drivers/CMSIS/DSP/Source/FilteringFunctions/arm_correlate_q31.c ****     pOut += inc;
 1305              		.loc 1 551 5 is_stmt 1 view .LVU461
 1306              		.loc 1 551 10 is_stmt 0 view .LVU462
 1307 0648 05EB8B05 		add	r5, r5, fp, lsl #2
 1308              	.LVL213:
 552:Drivers/CMSIS/DSP/Source/FilteringFunctions/arm_correlate_q31.c **** 
 553:Drivers/CMSIS/DSP/Source/FilteringFunctions/arm_correlate_q31.c ****     /* Update the inputA and inputB pointers for next MAC calculation */
 554:Drivers/CMSIS/DSP/Source/FilteringFunctions/arm_correlate_q31.c ****     px = ++pSrc1;
 1309              		.loc 1 554 5 is_stmt 1 view .LVU463
 1310              		.loc 1 554 8 is_stmt 0 view .LVU464
 1311 064c 0CF1040C 		add	ip, ip, #4
 1312              	.LVL214:
 555:Drivers/CMSIS/DSP/Source/FilteringFunctions/arm_correlate_q31.c ****     py = pIn2;
 1313              		.loc 1 555 5 is_stmt 1 view .LVU465
 556:Drivers/CMSIS/DSP/Source/FilteringFunctions/arm_correlate_q31.c **** 
 557:Drivers/CMSIS/DSP/Source/FilteringFunctions/arm_correlate_q31.c ****     /* Decrement the MAC count */
ARM GAS  /var/folders/n6/c271nzx11xl4r4_m7sqjlt0m0000gn/T//ccDne89y.s 			page 38


 558:Drivers/CMSIS/DSP/Source/FilteringFunctions/arm_correlate_q31.c ****     count--;
 1314              		.loc 1 558 5 view .LVU466
 1315              		.loc 1 558 10 is_stmt 0 view .LVU467
 1316 0650 013C     		subs	r4, r4, #1
 1317              	.LVL215:
 559:Drivers/CMSIS/DSP/Source/FilteringFunctions/arm_correlate_q31.c **** 
 560:Drivers/CMSIS/DSP/Source/FilteringFunctions/arm_correlate_q31.c ****     /* Decrement the loop counter */
 561:Drivers/CMSIS/DSP/Source/FilteringFunctions/arm_correlate_q31.c ****     blockSize3--;
 1318              		.loc 1 561 5 is_stmt 1 view .LVU468
 1319              		.loc 1 561 15 is_stmt 0 view .LVU469
 1320 0652 013F     		subs	r7, r7, #1
 1321              	.LVL216:
 1322              	.L25:
 509:Drivers/CMSIS/DSP/Source/FilteringFunctions/arm_correlate_q31.c ****   {
 1323              		.loc 1 509 21 is_stmt 1 view .LVU470
 1324 0654 47B1     		cbz	r7, .L41
 512:Drivers/CMSIS/DSP/Source/FilteringFunctions/arm_correlate_q31.c **** 
 1325              		.loc 1 512 5 view .LVU471
 1326              	.LVL217:
 515:Drivers/CMSIS/DSP/Source/FilteringFunctions/arm_correlate_q31.c **** 
 1327              		.loc 1 515 5 view .LVU472
 515:Drivers/CMSIS/DSP/Source/FilteringFunctions/arm_correlate_q31.c **** 
 1328              		.loc 1 515 7 is_stmt 0 view .LVU473
 1329 0656 4FEA9408 		lsr	r8, r4, #2
 1330              	.LVL218:
 519:Drivers/CMSIS/DSP/Source/FilteringFunctions/arm_correlate_q31.c ****     {
 1331              		.loc 1 519 5 is_stmt 1 view .LVU474
 519:Drivers/CMSIS/DSP/Source/FilteringFunctions/arm_correlate_q31.c ****     {
 1332              		.loc 1 519 11 is_stmt 0 view .LVU475
 1333 065a 059E     		ldr	r6, [sp, #20]
 1334 065c 6046     		mov	r0, ip
 512:Drivers/CMSIS/DSP/Source/FilteringFunctions/arm_correlate_q31.c **** 
 1335              		.loc 1 512 9 view .LVU476
 1336 065e 0023     		movs	r3, #0
 1337 0660 A646     		mov	lr, r4
 1338 0662 4446     		mov	r4, r8
 1339              	.LVL219:
 512:Drivers/CMSIS/DSP/Source/FilteringFunctions/arm_correlate_q31.c **** 
 1340              		.loc 1 512 9 view .LVU477
 1341 0664 9946     		mov	r9, r3
 519:Drivers/CMSIS/DSP/Source/FilteringFunctions/arm_correlate_q31.c ****     {
 1342              		.loc 1 519 11 view .LVU478
 1343 0666 C8E7     		b	.L26
 1344              	.LVL220:
 1345              	.L41:
 562:Drivers/CMSIS/DSP/Source/FilteringFunctions/arm_correlate_q31.c ****   }
 563:Drivers/CMSIS/DSP/Source/FilteringFunctions/arm_correlate_q31.c **** 
 564:Drivers/CMSIS/DSP/Source/FilteringFunctions/arm_correlate_q31.c **** #else
 565:Drivers/CMSIS/DSP/Source/FilteringFunctions/arm_correlate_q31.c **** 
 566:Drivers/CMSIS/DSP/Source/FilteringFunctions/arm_correlate_q31.c ****   /* Run the below code for Cortex-M0 */
 567:Drivers/CMSIS/DSP/Source/FilteringFunctions/arm_correlate_q31.c **** 
 568:Drivers/CMSIS/DSP/Source/FilteringFunctions/arm_correlate_q31.c ****   q31_t *pIn1 = pSrcA;                           /* inputA pointer               */
 569:Drivers/CMSIS/DSP/Source/FilteringFunctions/arm_correlate_q31.c ****   q31_t *pIn2 = pSrcB + (srcBLen - 1U);          /* inputB pointer               */
 570:Drivers/CMSIS/DSP/Source/FilteringFunctions/arm_correlate_q31.c ****   q63_t sum;                                     /* Accumulators                  */
 571:Drivers/CMSIS/DSP/Source/FilteringFunctions/arm_correlate_q31.c ****   uint32_t i = 0U, j;                            /* loop counters */
 572:Drivers/CMSIS/DSP/Source/FilteringFunctions/arm_correlate_q31.c ****   uint32_t inv = 0U;                             /* Reverse order flag */
 573:Drivers/CMSIS/DSP/Source/FilteringFunctions/arm_correlate_q31.c ****   uint32_t tot = 0U;                             /* Length */
ARM GAS  /var/folders/n6/c271nzx11xl4r4_m7sqjlt0m0000gn/T//ccDne89y.s 			page 39


 574:Drivers/CMSIS/DSP/Source/FilteringFunctions/arm_correlate_q31.c **** 
 575:Drivers/CMSIS/DSP/Source/FilteringFunctions/arm_correlate_q31.c ****   /* The algorithm implementation is based on the lengths of the inputs. */
 576:Drivers/CMSIS/DSP/Source/FilteringFunctions/arm_correlate_q31.c ****   /* srcB is always made to slide across srcA. */
 577:Drivers/CMSIS/DSP/Source/FilteringFunctions/arm_correlate_q31.c ****   /* So srcBLen is always considered as shorter or equal to srcALen */
 578:Drivers/CMSIS/DSP/Source/FilteringFunctions/arm_correlate_q31.c ****   /* But CORR(x, y) is reverse of CORR(y, x) */
 579:Drivers/CMSIS/DSP/Source/FilteringFunctions/arm_correlate_q31.c ****   /* So, when srcBLen > srcALen, output pointer is made to point to the end of the output buffer */
 580:Drivers/CMSIS/DSP/Source/FilteringFunctions/arm_correlate_q31.c ****   /* and a varaible, inv is set to 1 */
 581:Drivers/CMSIS/DSP/Source/FilteringFunctions/arm_correlate_q31.c ****   /* If lengths are not equal then zero pad has to be done to  make the two
 582:Drivers/CMSIS/DSP/Source/FilteringFunctions/arm_correlate_q31.c ****    * inputs of same length. But to improve the performance, we include zeroes
 583:Drivers/CMSIS/DSP/Source/FilteringFunctions/arm_correlate_q31.c ****    * in the output instead of zero padding either of the the inputs*/
 584:Drivers/CMSIS/DSP/Source/FilteringFunctions/arm_correlate_q31.c ****   /* If srcALen > srcBLen, (srcALen - srcBLen) zeroes has to included in the
 585:Drivers/CMSIS/DSP/Source/FilteringFunctions/arm_correlate_q31.c ****    * starting of the output buffer */
 586:Drivers/CMSIS/DSP/Source/FilteringFunctions/arm_correlate_q31.c ****   /* If srcALen < srcBLen, (srcALen - srcBLen) zeroes has to included in the
 587:Drivers/CMSIS/DSP/Source/FilteringFunctions/arm_correlate_q31.c ****    * ending of the output buffer */
 588:Drivers/CMSIS/DSP/Source/FilteringFunctions/arm_correlate_q31.c ****   /* Once the zero padding is done the remaining of the output is calcualted
 589:Drivers/CMSIS/DSP/Source/FilteringFunctions/arm_correlate_q31.c ****    * using correlation but with the shorter signal time shifted. */
 590:Drivers/CMSIS/DSP/Source/FilteringFunctions/arm_correlate_q31.c **** 
 591:Drivers/CMSIS/DSP/Source/FilteringFunctions/arm_correlate_q31.c ****   /* Calculate the length of the remaining sequence */
 592:Drivers/CMSIS/DSP/Source/FilteringFunctions/arm_correlate_q31.c ****   tot = ((srcALen + srcBLen) - 2U);
 593:Drivers/CMSIS/DSP/Source/FilteringFunctions/arm_correlate_q31.c **** 
 594:Drivers/CMSIS/DSP/Source/FilteringFunctions/arm_correlate_q31.c ****   if (srcALen > srcBLen)
 595:Drivers/CMSIS/DSP/Source/FilteringFunctions/arm_correlate_q31.c ****   {
 596:Drivers/CMSIS/DSP/Source/FilteringFunctions/arm_correlate_q31.c ****     /* Calculating the number of zeros to be padded to the output */
 597:Drivers/CMSIS/DSP/Source/FilteringFunctions/arm_correlate_q31.c ****     j = srcALen - srcBLen;
 598:Drivers/CMSIS/DSP/Source/FilteringFunctions/arm_correlate_q31.c **** 
 599:Drivers/CMSIS/DSP/Source/FilteringFunctions/arm_correlate_q31.c ****     /* Initialise the pointer after zero padding */
 600:Drivers/CMSIS/DSP/Source/FilteringFunctions/arm_correlate_q31.c ****     pDst += j;
 601:Drivers/CMSIS/DSP/Source/FilteringFunctions/arm_correlate_q31.c ****   }
 602:Drivers/CMSIS/DSP/Source/FilteringFunctions/arm_correlate_q31.c **** 
 603:Drivers/CMSIS/DSP/Source/FilteringFunctions/arm_correlate_q31.c ****   else if (srcALen < srcBLen)
 604:Drivers/CMSIS/DSP/Source/FilteringFunctions/arm_correlate_q31.c ****   {
 605:Drivers/CMSIS/DSP/Source/FilteringFunctions/arm_correlate_q31.c ****     /* Initialization to inputB pointer */
 606:Drivers/CMSIS/DSP/Source/FilteringFunctions/arm_correlate_q31.c ****     pIn1 = pSrcB;
 607:Drivers/CMSIS/DSP/Source/FilteringFunctions/arm_correlate_q31.c **** 
 608:Drivers/CMSIS/DSP/Source/FilteringFunctions/arm_correlate_q31.c ****     /* Initialization to the end of inputA pointer */
 609:Drivers/CMSIS/DSP/Source/FilteringFunctions/arm_correlate_q31.c ****     pIn2 = pSrcA + (srcALen - 1U);
 610:Drivers/CMSIS/DSP/Source/FilteringFunctions/arm_correlate_q31.c **** 
 611:Drivers/CMSIS/DSP/Source/FilteringFunctions/arm_correlate_q31.c ****     /* Initialisation of the pointer after zero padding */
 612:Drivers/CMSIS/DSP/Source/FilteringFunctions/arm_correlate_q31.c ****     pDst = pDst + tot;
 613:Drivers/CMSIS/DSP/Source/FilteringFunctions/arm_correlate_q31.c **** 
 614:Drivers/CMSIS/DSP/Source/FilteringFunctions/arm_correlate_q31.c ****     /* Swapping the lengths */
 615:Drivers/CMSIS/DSP/Source/FilteringFunctions/arm_correlate_q31.c ****     j = srcALen;
 616:Drivers/CMSIS/DSP/Source/FilteringFunctions/arm_correlate_q31.c ****     srcALen = srcBLen;
 617:Drivers/CMSIS/DSP/Source/FilteringFunctions/arm_correlate_q31.c ****     srcBLen = j;
 618:Drivers/CMSIS/DSP/Source/FilteringFunctions/arm_correlate_q31.c **** 
 619:Drivers/CMSIS/DSP/Source/FilteringFunctions/arm_correlate_q31.c ****     /* Setting the reverse flag */
 620:Drivers/CMSIS/DSP/Source/FilteringFunctions/arm_correlate_q31.c ****     inv = 1;
 621:Drivers/CMSIS/DSP/Source/FilteringFunctions/arm_correlate_q31.c **** 
 622:Drivers/CMSIS/DSP/Source/FilteringFunctions/arm_correlate_q31.c ****   }
 623:Drivers/CMSIS/DSP/Source/FilteringFunctions/arm_correlate_q31.c **** 
 624:Drivers/CMSIS/DSP/Source/FilteringFunctions/arm_correlate_q31.c ****   /* Loop to calculate correlation for output length number of times */
 625:Drivers/CMSIS/DSP/Source/FilteringFunctions/arm_correlate_q31.c ****   for (i = 0U; i <= tot; i++)
 626:Drivers/CMSIS/DSP/Source/FilteringFunctions/arm_correlate_q31.c ****   {
 627:Drivers/CMSIS/DSP/Source/FilteringFunctions/arm_correlate_q31.c ****     /* Initialize sum with zero to carry on MAC operations */
 628:Drivers/CMSIS/DSP/Source/FilteringFunctions/arm_correlate_q31.c ****     sum = 0;
 629:Drivers/CMSIS/DSP/Source/FilteringFunctions/arm_correlate_q31.c **** 
 630:Drivers/CMSIS/DSP/Source/FilteringFunctions/arm_correlate_q31.c ****     /* Loop to perform MAC operations according to correlation equation */
ARM GAS  /var/folders/n6/c271nzx11xl4r4_m7sqjlt0m0000gn/T//ccDne89y.s 			page 40


 631:Drivers/CMSIS/DSP/Source/FilteringFunctions/arm_correlate_q31.c ****     for (j = 0U; j <= i; j++)
 632:Drivers/CMSIS/DSP/Source/FilteringFunctions/arm_correlate_q31.c ****     {
 633:Drivers/CMSIS/DSP/Source/FilteringFunctions/arm_correlate_q31.c ****       /* Check the array limitations */
 634:Drivers/CMSIS/DSP/Source/FilteringFunctions/arm_correlate_q31.c ****       if ((((i - j) < srcBLen) && (j < srcALen)))
 635:Drivers/CMSIS/DSP/Source/FilteringFunctions/arm_correlate_q31.c ****       {
 636:Drivers/CMSIS/DSP/Source/FilteringFunctions/arm_correlate_q31.c ****         /* z[i] += x[i-j] * y[j] */
 637:Drivers/CMSIS/DSP/Source/FilteringFunctions/arm_correlate_q31.c ****         sum += ((q63_t) pIn1[j] * pIn2[-((int32_t) i - j)]);
 638:Drivers/CMSIS/DSP/Source/FilteringFunctions/arm_correlate_q31.c ****       }
 639:Drivers/CMSIS/DSP/Source/FilteringFunctions/arm_correlate_q31.c ****     }
 640:Drivers/CMSIS/DSP/Source/FilteringFunctions/arm_correlate_q31.c ****     /* Store the output in the destination buffer */
 641:Drivers/CMSIS/DSP/Source/FilteringFunctions/arm_correlate_q31.c ****     if (inv == 1)
 642:Drivers/CMSIS/DSP/Source/FilteringFunctions/arm_correlate_q31.c ****       *pDst-- = (q31_t) (sum >> 31U);
 643:Drivers/CMSIS/DSP/Source/FilteringFunctions/arm_correlate_q31.c ****     else
 644:Drivers/CMSIS/DSP/Source/FilteringFunctions/arm_correlate_q31.c ****       *pDst++ = (q31_t) (sum >> 31U);
 645:Drivers/CMSIS/DSP/Source/FilteringFunctions/arm_correlate_q31.c ****   }
 646:Drivers/CMSIS/DSP/Source/FilteringFunctions/arm_correlate_q31.c **** 
 647:Drivers/CMSIS/DSP/Source/FilteringFunctions/arm_correlate_q31.c **** #endif /*   #if defined (ARM_MATH_DSP) */
 648:Drivers/CMSIS/DSP/Source/FilteringFunctions/arm_correlate_q31.c **** 
 649:Drivers/CMSIS/DSP/Source/FilteringFunctions/arm_correlate_q31.c **** }
 1346              		.loc 1 649 1 view .LVU479
 1347 0668 0FB0     		add	sp, sp, #60
 1348              		.cfi_def_cfa_offset 36
 1349              		@ sp needed
 1350 066a BDE8F08F 		pop	{r4, r5, r6, r7, r8, r9, r10, fp, pc}
 1351              		.loc 1 649 1 view .LVU480
 1352              		.cfi_endproc
 1353              	.LFE135:
 1355 066e 00BF     		.text
 1356              	.Letext0:
 1357              		.file 2 "/Users/killian/Library/Application Support/Code/User/globalStorage/bmd.stm32-for-vscode/@
 1358              		.file 3 "/Users/killian/Library/Application Support/Code/User/globalStorage/bmd.stm32-for-vscode/@
 1359              		.file 4 "Drivers/CMSIS/DSP/Include/arm_math.h"
ARM GAS  /var/folders/n6/c271nzx11xl4r4_m7sqjlt0m0000gn/T//ccDne89y.s 			page 41

