ARM GAS  /var/folders/n6/c271nzx11xl4r4_m7sqjlt0m0000gn/T//cczj4u4V.s 			page 1


   1              		.cpu cortex-m7
   2              		.arch armv7e-m
   3              		.fpu fpv5-d16
   4              		.eabi_attribute 28, 1
   5              		.eabi_attribute 20, 1
   6              		.eabi_attribute 21, 1
   7              		.eabi_attribute 23, 3
   8              		.eabi_attribute 24, 1
   9              		.eabi_attribute 25, 1
  10              		.eabi_attribute 26, 1
  11              		.eabi_attribute 30, 1
  12              		.eabi_attribute 34, 1
  13              		.eabi_attribute 18, 4
  14              		.file	"arm_float_to_q7.c"
  15              		.text
  16              	.Ltext0:
  17              		.cfi_sections	.debug_frame
  18              		.file 1 "Drivers/CMSIS/DSP/Source/SupportFunctions/arm_float_to_q7.c"
  19              		.section	.text.arm_float_to_q7,"ax",%progbits
  20              		.align	1
  21              		.global	arm_float_to_q7
  22              		.syntax unified
  23              		.thumb
  24              		.thumb_func
  26              	arm_float_to_q7:
  27              	.LVL0:
  28              	.LFB135:
   1:Drivers/CMSIS/DSP/Source/SupportFunctions/arm_float_to_q7.c **** /* ----------------------------------------------------------------------
   2:Drivers/CMSIS/DSP/Source/SupportFunctions/arm_float_to_q7.c ****  * Project:      CMSIS DSP Library
   3:Drivers/CMSIS/DSP/Source/SupportFunctions/arm_float_to_q7.c ****  * Title:        arm_float_to_q7.c
   4:Drivers/CMSIS/DSP/Source/SupportFunctions/arm_float_to_q7.c ****  * Description:  Converts the elements of the floating-point vector to Q7 vector
   5:Drivers/CMSIS/DSP/Source/SupportFunctions/arm_float_to_q7.c ****  *
   6:Drivers/CMSIS/DSP/Source/SupportFunctions/arm_float_to_q7.c ****  * $Date:        27. January 2017
   7:Drivers/CMSIS/DSP/Source/SupportFunctions/arm_float_to_q7.c ****  * $Revision:    V.1.5.1
   8:Drivers/CMSIS/DSP/Source/SupportFunctions/arm_float_to_q7.c ****  *
   9:Drivers/CMSIS/DSP/Source/SupportFunctions/arm_float_to_q7.c ****  * Target Processor: Cortex-M cores
  10:Drivers/CMSIS/DSP/Source/SupportFunctions/arm_float_to_q7.c ****  * -------------------------------------------------------------------- */
  11:Drivers/CMSIS/DSP/Source/SupportFunctions/arm_float_to_q7.c **** /*
  12:Drivers/CMSIS/DSP/Source/SupportFunctions/arm_float_to_q7.c ****  * Copyright (C) 2010-2017 ARM Limited or its affiliates. All rights reserved.
  13:Drivers/CMSIS/DSP/Source/SupportFunctions/arm_float_to_q7.c ****  *
  14:Drivers/CMSIS/DSP/Source/SupportFunctions/arm_float_to_q7.c ****  * SPDX-License-Identifier: Apache-2.0
  15:Drivers/CMSIS/DSP/Source/SupportFunctions/arm_float_to_q7.c ****  *
  16:Drivers/CMSIS/DSP/Source/SupportFunctions/arm_float_to_q7.c ****  * Licensed under the Apache License, Version 2.0 (the License); you may
  17:Drivers/CMSIS/DSP/Source/SupportFunctions/arm_float_to_q7.c ****  * not use this file except in compliance with the License.
  18:Drivers/CMSIS/DSP/Source/SupportFunctions/arm_float_to_q7.c ****  * You may obtain a copy of the License at
  19:Drivers/CMSIS/DSP/Source/SupportFunctions/arm_float_to_q7.c ****  *
  20:Drivers/CMSIS/DSP/Source/SupportFunctions/arm_float_to_q7.c ****  * www.apache.org/licenses/LICENSE-2.0
  21:Drivers/CMSIS/DSP/Source/SupportFunctions/arm_float_to_q7.c ****  *
  22:Drivers/CMSIS/DSP/Source/SupportFunctions/arm_float_to_q7.c ****  * Unless required by applicable law or agreed to in writing, software
  23:Drivers/CMSIS/DSP/Source/SupportFunctions/arm_float_to_q7.c ****  * distributed under the License is distributed on an AS IS BASIS, WITHOUT
  24:Drivers/CMSIS/DSP/Source/SupportFunctions/arm_float_to_q7.c ****  * WARRANTIES OR CONDITIONS OF ANY KIND, either express or implied.
  25:Drivers/CMSIS/DSP/Source/SupportFunctions/arm_float_to_q7.c ****  * See the License for the specific language governing permissions and
  26:Drivers/CMSIS/DSP/Source/SupportFunctions/arm_float_to_q7.c ****  * limitations under the License.
  27:Drivers/CMSIS/DSP/Source/SupportFunctions/arm_float_to_q7.c ****  */
  28:Drivers/CMSIS/DSP/Source/SupportFunctions/arm_float_to_q7.c **** 
  29:Drivers/CMSIS/DSP/Source/SupportFunctions/arm_float_to_q7.c **** #include "arm_math.h"
  30:Drivers/CMSIS/DSP/Source/SupportFunctions/arm_float_to_q7.c **** 
ARM GAS  /var/folders/n6/c271nzx11xl4r4_m7sqjlt0m0000gn/T//cczj4u4V.s 			page 2


  31:Drivers/CMSIS/DSP/Source/SupportFunctions/arm_float_to_q7.c **** /**
  32:Drivers/CMSIS/DSP/Source/SupportFunctions/arm_float_to_q7.c ****  * @ingroup groupSupport
  33:Drivers/CMSIS/DSP/Source/SupportFunctions/arm_float_to_q7.c ****  */
  34:Drivers/CMSIS/DSP/Source/SupportFunctions/arm_float_to_q7.c **** 
  35:Drivers/CMSIS/DSP/Source/SupportFunctions/arm_float_to_q7.c **** /**
  36:Drivers/CMSIS/DSP/Source/SupportFunctions/arm_float_to_q7.c ****  * @addtogroup float_to_x
  37:Drivers/CMSIS/DSP/Source/SupportFunctions/arm_float_to_q7.c ****  * @{
  38:Drivers/CMSIS/DSP/Source/SupportFunctions/arm_float_to_q7.c ****  */
  39:Drivers/CMSIS/DSP/Source/SupportFunctions/arm_float_to_q7.c **** 
  40:Drivers/CMSIS/DSP/Source/SupportFunctions/arm_float_to_q7.c **** /**
  41:Drivers/CMSIS/DSP/Source/SupportFunctions/arm_float_to_q7.c ****  * @brief Converts the elements of the floating-point vector to Q7 vector.
  42:Drivers/CMSIS/DSP/Source/SupportFunctions/arm_float_to_q7.c ****  * @param[in]       *pSrc points to the floating-point input vector
  43:Drivers/CMSIS/DSP/Source/SupportFunctions/arm_float_to_q7.c ****  * @param[out]      *pDst points to the Q7 output vector
  44:Drivers/CMSIS/DSP/Source/SupportFunctions/arm_float_to_q7.c ****  * @param[in]       blockSize length of the input vector
  45:Drivers/CMSIS/DSP/Source/SupportFunctions/arm_float_to_q7.c ****  * @return none.
  46:Drivers/CMSIS/DSP/Source/SupportFunctions/arm_float_to_q7.c ****  *
  47:Drivers/CMSIS/DSP/Source/SupportFunctions/arm_float_to_q7.c ****  *\par Description:
  48:Drivers/CMSIS/DSP/Source/SupportFunctions/arm_float_to_q7.c ****  * \par
  49:Drivers/CMSIS/DSP/Source/SupportFunctions/arm_float_to_q7.c ****  * The equation used for the conversion process is:
  50:Drivers/CMSIS/DSP/Source/SupportFunctions/arm_float_to_q7.c ****  * <pre>
  51:Drivers/CMSIS/DSP/Source/SupportFunctions/arm_float_to_q7.c ****  * 	pDst[n] = (q7_t)(pSrc[n] * 128);   0 <= n < blockSize.
  52:Drivers/CMSIS/DSP/Source/SupportFunctions/arm_float_to_q7.c ****  * </pre>
  53:Drivers/CMSIS/DSP/Source/SupportFunctions/arm_float_to_q7.c ****  * \par Scaling and Overflow Behavior:
  54:Drivers/CMSIS/DSP/Source/SupportFunctions/arm_float_to_q7.c ****  * \par
  55:Drivers/CMSIS/DSP/Source/SupportFunctions/arm_float_to_q7.c ****  * The function uses saturating arithmetic.
  56:Drivers/CMSIS/DSP/Source/SupportFunctions/arm_float_to_q7.c ****  * Results outside of the allowable Q7 range [0x80 0x7F] will be saturated.
  57:Drivers/CMSIS/DSP/Source/SupportFunctions/arm_float_to_q7.c ****  * \note
  58:Drivers/CMSIS/DSP/Source/SupportFunctions/arm_float_to_q7.c ****  * In order to apply rounding, the library should be rebuilt with the ROUNDING macro
  59:Drivers/CMSIS/DSP/Source/SupportFunctions/arm_float_to_q7.c ****  * defined in the preprocessor section of project options.
  60:Drivers/CMSIS/DSP/Source/SupportFunctions/arm_float_to_q7.c ****  */
  61:Drivers/CMSIS/DSP/Source/SupportFunctions/arm_float_to_q7.c **** 
  62:Drivers/CMSIS/DSP/Source/SupportFunctions/arm_float_to_q7.c **** 
  63:Drivers/CMSIS/DSP/Source/SupportFunctions/arm_float_to_q7.c **** void arm_float_to_q7(
  64:Drivers/CMSIS/DSP/Source/SupportFunctions/arm_float_to_q7.c ****   float32_t * pSrc,
  65:Drivers/CMSIS/DSP/Source/SupportFunctions/arm_float_to_q7.c ****   q7_t * pDst,
  66:Drivers/CMSIS/DSP/Source/SupportFunctions/arm_float_to_q7.c ****   uint32_t blockSize)
  67:Drivers/CMSIS/DSP/Source/SupportFunctions/arm_float_to_q7.c **** {
  29              		.loc 1 67 1 view -0
  30              		.cfi_startproc
  31              		@ args = 0, pretend = 0, frame = 0
  32              		@ frame_needed = 0, uses_anonymous_args = 0
  33              		@ link register save eliminated.
  34              		.loc 1 67 1 is_stmt 0 view .LVU1
  35 0000 10B4     		push	{r4}
  36              		.cfi_def_cfa_offset 4
  37              		.cfi_offset 4, -4
  68:Drivers/CMSIS/DSP/Source/SupportFunctions/arm_float_to_q7.c ****   float32_t *pIn = pSrc;                         /* Src pointer */
  38              		.loc 1 68 3 is_stmt 1 view .LVU2
  39              	.LVL1:
  69:Drivers/CMSIS/DSP/Source/SupportFunctions/arm_float_to_q7.c ****   uint32_t blkCnt;                               /* loop counter */
  40              		.loc 1 69 3 view .LVU3
  70:Drivers/CMSIS/DSP/Source/SupportFunctions/arm_float_to_q7.c **** 
  71:Drivers/CMSIS/DSP/Source/SupportFunctions/arm_float_to_q7.c **** #ifdef ARM_MATH_ROUNDING
  72:Drivers/CMSIS/DSP/Source/SupportFunctions/arm_float_to_q7.c **** 
  73:Drivers/CMSIS/DSP/Source/SupportFunctions/arm_float_to_q7.c ****   float32_t in;
  74:Drivers/CMSIS/DSP/Source/SupportFunctions/arm_float_to_q7.c **** 
  75:Drivers/CMSIS/DSP/Source/SupportFunctions/arm_float_to_q7.c **** #endif /*      #ifdef ARM_MATH_ROUNDING        */
ARM GAS  /var/folders/n6/c271nzx11xl4r4_m7sqjlt0m0000gn/T//cczj4u4V.s 			page 3


  76:Drivers/CMSIS/DSP/Source/SupportFunctions/arm_float_to_q7.c **** 
  77:Drivers/CMSIS/DSP/Source/SupportFunctions/arm_float_to_q7.c **** #if defined (ARM_MATH_DSP)
  78:Drivers/CMSIS/DSP/Source/SupportFunctions/arm_float_to_q7.c **** 
  79:Drivers/CMSIS/DSP/Source/SupportFunctions/arm_float_to_q7.c ****   /* Run the below code for Cortex-M4 and Cortex-M3 */
  80:Drivers/CMSIS/DSP/Source/SupportFunctions/arm_float_to_q7.c **** 
  81:Drivers/CMSIS/DSP/Source/SupportFunctions/arm_float_to_q7.c ****   /*loop Unrolling */
  82:Drivers/CMSIS/DSP/Source/SupportFunctions/arm_float_to_q7.c ****   blkCnt = blockSize >> 2U;
  41              		.loc 1 82 3 view .LVU4
  42              		.loc 1 82 10 is_stmt 0 view .LVU5
  43 0002 9408     		lsrs	r4, r2, #2
  44              	.LVL2:
  83:Drivers/CMSIS/DSP/Source/SupportFunctions/arm_float_to_q7.c **** 
  84:Drivers/CMSIS/DSP/Source/SupportFunctions/arm_float_to_q7.c ****   /* First part of the processing with loop unrolling.  Compute 4 outputs at a time.
  85:Drivers/CMSIS/DSP/Source/SupportFunctions/arm_float_to_q7.c ****    ** a second loop below computes the remaining 1 to 3 samples. */
  86:Drivers/CMSIS/DSP/Source/SupportFunctions/arm_float_to_q7.c ****   while (blkCnt > 0U)
  45              		.loc 1 86 3 is_stmt 1 view .LVU6
  46              		.loc 1 86 9 is_stmt 0 view .LVU7
  47 0004 26E0     		b	.L2
  48              	.LVL3:
  49              	.L3:
  87:Drivers/CMSIS/DSP/Source/SupportFunctions/arm_float_to_q7.c ****   {
  88:Drivers/CMSIS/DSP/Source/SupportFunctions/arm_float_to_q7.c **** 
  89:Drivers/CMSIS/DSP/Source/SupportFunctions/arm_float_to_q7.c **** #ifdef ARM_MATH_ROUNDING
  90:Drivers/CMSIS/DSP/Source/SupportFunctions/arm_float_to_q7.c ****     /* C = A * 128 */
  91:Drivers/CMSIS/DSP/Source/SupportFunctions/arm_float_to_q7.c ****     /* convert from float to q7 and then store the results in the destination buffer */
  92:Drivers/CMSIS/DSP/Source/SupportFunctions/arm_float_to_q7.c ****     in = *pIn++;
  93:Drivers/CMSIS/DSP/Source/SupportFunctions/arm_float_to_q7.c ****     in = (in * 128);
  94:Drivers/CMSIS/DSP/Source/SupportFunctions/arm_float_to_q7.c ****     in += in > 0.0f ? 0.5f : -0.5f;
  95:Drivers/CMSIS/DSP/Source/SupportFunctions/arm_float_to_q7.c ****     *pDst++ = (q7_t) (__SSAT((q15_t) (in), 8));
  96:Drivers/CMSIS/DSP/Source/SupportFunctions/arm_float_to_q7.c **** 
  97:Drivers/CMSIS/DSP/Source/SupportFunctions/arm_float_to_q7.c ****     in = *pIn++;
  98:Drivers/CMSIS/DSP/Source/SupportFunctions/arm_float_to_q7.c ****     in = (in * 128);
  99:Drivers/CMSIS/DSP/Source/SupportFunctions/arm_float_to_q7.c ****     in += in > 0.0f ? 0.5f : -0.5f;
 100:Drivers/CMSIS/DSP/Source/SupportFunctions/arm_float_to_q7.c ****     *pDst++ = (q7_t) (__SSAT((q15_t) (in), 8));
 101:Drivers/CMSIS/DSP/Source/SupportFunctions/arm_float_to_q7.c **** 
 102:Drivers/CMSIS/DSP/Source/SupportFunctions/arm_float_to_q7.c ****     in = *pIn++;
 103:Drivers/CMSIS/DSP/Source/SupportFunctions/arm_float_to_q7.c ****     in = (in * 128);
 104:Drivers/CMSIS/DSP/Source/SupportFunctions/arm_float_to_q7.c ****     in += in > 0.0f ? 0.5f : -0.5f;
 105:Drivers/CMSIS/DSP/Source/SupportFunctions/arm_float_to_q7.c ****     *pDst++ = (q7_t) (__SSAT((q15_t) (in), 8));
 106:Drivers/CMSIS/DSP/Source/SupportFunctions/arm_float_to_q7.c **** 
 107:Drivers/CMSIS/DSP/Source/SupportFunctions/arm_float_to_q7.c ****     in = *pIn++;
 108:Drivers/CMSIS/DSP/Source/SupportFunctions/arm_float_to_q7.c ****     in = (in * 128);
 109:Drivers/CMSIS/DSP/Source/SupportFunctions/arm_float_to_q7.c ****     in += in > 0.0f ? 0.5f : -0.5f;
 110:Drivers/CMSIS/DSP/Source/SupportFunctions/arm_float_to_q7.c ****     *pDst++ = (q7_t) (__SSAT((q15_t) (in), 8));
 111:Drivers/CMSIS/DSP/Source/SupportFunctions/arm_float_to_q7.c **** 
 112:Drivers/CMSIS/DSP/Source/SupportFunctions/arm_float_to_q7.c **** #else
 113:Drivers/CMSIS/DSP/Source/SupportFunctions/arm_float_to_q7.c **** 
 114:Drivers/CMSIS/DSP/Source/SupportFunctions/arm_float_to_q7.c ****     /* C = A * 128 */
 115:Drivers/CMSIS/DSP/Source/SupportFunctions/arm_float_to_q7.c ****     /* convert from float to q7 and then store the results in the destination buffer */
 116:Drivers/CMSIS/DSP/Source/SupportFunctions/arm_float_to_q7.c ****     *pDst++ = __SSAT((q31_t) (*pIn++ * 128.0f), 8);
  50              		.loc 1 116 5 is_stmt 1 view .LVU8
  51              	.LBB2:
  52              		.loc 1 116 15 view .LVU9
  53              		.loc 1 116 15 is_stmt 0 view .LVU10
  54 0006 D0ED007A 		vldr.32	s15, [r0]
  55 000a FEEEEC7A 		vcvt.s32.f32	s15, s15, #7
  56              	.LVL4:
ARM GAS  /var/folders/n6/c271nzx11xl4r4_m7sqjlt0m0000gn/T//cczj4u4V.s 			page 4


  57              		.loc 1 116 15 is_stmt 1 view .LVU11
  58 000e 17EE903A 		vmov	r3, s15	@ int
  59              		.syntax unified
  60              	@ 116 "Drivers/CMSIS/DSP/Source/SupportFunctions/arm_float_to_q7.c" 1
  61 0012 03F30703 		ssat r3, #8, r3
  62              	@ 0 "" 2
  63              	.LVL5:
  64              		.loc 1 116 15 view .LVU12
  65              		.loc 1 116 15 is_stmt 0 view .LVU13
  66              		.thumb
  67              		.syntax unified
  68              	.LBE2:
  69              		.loc 1 116 13 view .LVU14
  70 0016 0B70     		strb	r3, [r1]
 117:Drivers/CMSIS/DSP/Source/SupportFunctions/arm_float_to_q7.c ****     *pDst++ = __SSAT((q31_t) (*pIn++ * 128.0f), 8);
  71              		.loc 1 117 5 is_stmt 1 view .LVU15
  72              	.LBB3:
  73              		.loc 1 117 15 view .LVU16
  74              	.LVL6:
  75              		.loc 1 117 15 is_stmt 0 view .LVU17
  76 0018 D0ED017A 		vldr.32	s15, [r0, #4]
  77              	.LVL7:
  78              		.loc 1 117 15 view .LVU18
  79 001c FEEEEC7A 		vcvt.s32.f32	s15, s15, #7
  80              	.LVL8:
  81              		.loc 1 117 15 is_stmt 1 view .LVU19
  82 0020 17EE903A 		vmov	r3, s15	@ int
  83              	.LVL9:
  84              		.loc 1 117 15 is_stmt 0 view .LVU20
  85              		.syntax unified
  86              	@ 117 "Drivers/CMSIS/DSP/Source/SupportFunctions/arm_float_to_q7.c" 1
  87 0024 03F30703 		ssat r3, #8, r3
  88              	@ 0 "" 2
  89              	.LVL10:
  90              		.loc 1 117 15 is_stmt 1 view .LVU21
  91              		.loc 1 117 15 is_stmt 0 view .LVU22
  92              		.thumb
  93              		.syntax unified
  94              	.LBE3:
  95              		.loc 1 117 13 view .LVU23
  96 0028 4B70     		strb	r3, [r1, #1]
 118:Drivers/CMSIS/DSP/Source/SupportFunctions/arm_float_to_q7.c ****     *pDst++ = __SSAT((q31_t) (*pIn++ * 128.0f), 8);
  97              		.loc 1 118 5 is_stmt 1 view .LVU24
  98              	.LBB4:
  99              		.loc 1 118 15 view .LVU25
 100              	.LVL11:
 101              		.loc 1 118 15 is_stmt 0 view .LVU26
 102 002a D0ED027A 		vldr.32	s15, [r0, #8]
 103              	.LVL12:
 104              		.loc 1 118 15 view .LVU27
 105 002e FEEEEC7A 		vcvt.s32.f32	s15, s15, #7
 106              	.LVL13:
 107              		.loc 1 118 15 is_stmt 1 view .LVU28
 108 0032 17EE903A 		vmov	r3, s15	@ int
 109              	.LVL14:
 110              		.loc 1 118 15 is_stmt 0 view .LVU29
 111              		.syntax unified
ARM GAS  /var/folders/n6/c271nzx11xl4r4_m7sqjlt0m0000gn/T//cczj4u4V.s 			page 5


 112              	@ 118 "Drivers/CMSIS/DSP/Source/SupportFunctions/arm_float_to_q7.c" 1
 113 0036 03F30703 		ssat r3, #8, r3
 114              	@ 0 "" 2
 115              	.LVL15:
 116              		.loc 1 118 15 is_stmt 1 view .LVU30
 117              		.loc 1 118 15 is_stmt 0 view .LVU31
 118              		.thumb
 119              		.syntax unified
 120              	.LBE4:
 121              		.loc 1 118 13 view .LVU32
 122 003a 8B70     		strb	r3, [r1, #2]
 119:Drivers/CMSIS/DSP/Source/SupportFunctions/arm_float_to_q7.c ****     *pDst++ = __SSAT((q31_t) (*pIn++ * 128.0f), 8);
 123              		.loc 1 119 5 is_stmt 1 view .LVU33
 124              	.LBB5:
 125              		.loc 1 119 15 view .LVU34
 126              	.LVL16:
 127              		.loc 1 119 15 is_stmt 0 view .LVU35
 128 003c D0ED037A 		vldr.32	s15, [r0, #12]
 129              	.LVL17:
 130              		.loc 1 119 15 view .LVU36
 131 0040 FEEEEC7A 		vcvt.s32.f32	s15, s15, #7
 132              	.LVL18:
 133              		.loc 1 119 15 is_stmt 1 view .LVU37
 134 0044 17EE903A 		vmov	r3, s15	@ int
 135              	.LVL19:
 136              		.loc 1 119 15 is_stmt 0 view .LVU38
 137              		.syntax unified
 138              	@ 119 "Drivers/CMSIS/DSP/Source/SupportFunctions/arm_float_to_q7.c" 1
 139 0048 03F30703 		ssat r3, #8, r3
 140              	@ 0 "" 2
 141              	.LVL20:
 142              		.loc 1 119 15 is_stmt 1 view .LVU39
 143              		.loc 1 119 15 is_stmt 0 view .LVU40
 144              		.thumb
 145              		.syntax unified
 146              	.LBE5:
 147              		.loc 1 119 13 view .LVU41
 148 004c CB70     		strb	r3, [r1, #3]
 120:Drivers/CMSIS/DSP/Source/SupportFunctions/arm_float_to_q7.c **** 
 121:Drivers/CMSIS/DSP/Source/SupportFunctions/arm_float_to_q7.c **** #endif /*      #ifdef ARM_MATH_ROUNDING        */
 122:Drivers/CMSIS/DSP/Source/SupportFunctions/arm_float_to_q7.c **** 
 123:Drivers/CMSIS/DSP/Source/SupportFunctions/arm_float_to_q7.c ****     /* Decrement the loop counter */
 124:Drivers/CMSIS/DSP/Source/SupportFunctions/arm_float_to_q7.c ****     blkCnt--;
 149              		.loc 1 124 5 is_stmt 1 view .LVU42
 150              		.loc 1 124 11 is_stmt 0 view .LVU43
 151 004e 013C     		subs	r4, r4, #1
 152              	.LVL21:
 153              	.LBB6:
 119:Drivers/CMSIS/DSP/Source/SupportFunctions/arm_float_to_q7.c ****     *pDst++ = __SSAT((q31_t) (*pIn++ * 128.0f), 8);
 154              		.loc 1 119 15 view .LVU44
 155 0050 1030     		adds	r0, r0, #16
 156              	.LVL22:
 119:Drivers/CMSIS/DSP/Source/SupportFunctions/arm_float_to_q7.c ****     *pDst++ = __SSAT((q31_t) (*pIn++ * 128.0f), 8);
 157              		.loc 1 119 15 view .LVU45
 158              	.LBE6:
 119:Drivers/CMSIS/DSP/Source/SupportFunctions/arm_float_to_q7.c ****     *pDst++ = __SSAT((q31_t) (*pIn++ * 128.0f), 8);
 159              		.loc 1 119 10 view .LVU46
ARM GAS  /var/folders/n6/c271nzx11xl4r4_m7sqjlt0m0000gn/T//cczj4u4V.s 			page 6


 160 0052 0431     		adds	r1, r1, #4
 161              	.LVL23:
 162              	.L2:
  86:Drivers/CMSIS/DSP/Source/SupportFunctions/arm_float_to_q7.c ****   {
 163              		.loc 1 86 17 is_stmt 1 view .LVU47
 164 0054 002C     		cmp	r4, #0
 165 0056 D6D1     		bne	.L3
 125:Drivers/CMSIS/DSP/Source/SupportFunctions/arm_float_to_q7.c ****   }
 126:Drivers/CMSIS/DSP/Source/SupportFunctions/arm_float_to_q7.c **** 
 127:Drivers/CMSIS/DSP/Source/SupportFunctions/arm_float_to_q7.c ****   /* If the blockSize is not a multiple of 4, compute any remaining output samples here.
 128:Drivers/CMSIS/DSP/Source/SupportFunctions/arm_float_to_q7.c ****    ** No loop unrolling is used. */
 129:Drivers/CMSIS/DSP/Source/SupportFunctions/arm_float_to_q7.c ****   blkCnt = blockSize % 0x4U;
 166              		.loc 1 129 3 view .LVU48
 167              		.loc 1 129 10 is_stmt 0 view .LVU49
 168 0058 02F00302 		and	r2, r2, #3
 169              	.LVL24:
 130:Drivers/CMSIS/DSP/Source/SupportFunctions/arm_float_to_q7.c **** 
 131:Drivers/CMSIS/DSP/Source/SupportFunctions/arm_float_to_q7.c ****   while (blkCnt > 0U)
 170              		.loc 1 131 3 is_stmt 1 view .LVU50
 171              		.loc 1 131 9 is_stmt 0 view .LVU51
 172 005c 0AE0     		b	.L4
 173              	.L5:
 132:Drivers/CMSIS/DSP/Source/SupportFunctions/arm_float_to_q7.c ****   {
 133:Drivers/CMSIS/DSP/Source/SupportFunctions/arm_float_to_q7.c **** 
 134:Drivers/CMSIS/DSP/Source/SupportFunctions/arm_float_to_q7.c **** #ifdef ARM_MATH_ROUNDING
 135:Drivers/CMSIS/DSP/Source/SupportFunctions/arm_float_to_q7.c ****     /* C = A * 128 */
 136:Drivers/CMSIS/DSP/Source/SupportFunctions/arm_float_to_q7.c ****     /* convert from float to q7 and then store the results in the destination buffer */
 137:Drivers/CMSIS/DSP/Source/SupportFunctions/arm_float_to_q7.c ****     in = *pIn++;
 138:Drivers/CMSIS/DSP/Source/SupportFunctions/arm_float_to_q7.c ****     in = (in * 128);
 139:Drivers/CMSIS/DSP/Source/SupportFunctions/arm_float_to_q7.c ****     in += in > 0.0f ? 0.5f : -0.5f;
 140:Drivers/CMSIS/DSP/Source/SupportFunctions/arm_float_to_q7.c ****     *pDst++ = (q7_t) (__SSAT((q15_t) (in), 8));
 141:Drivers/CMSIS/DSP/Source/SupportFunctions/arm_float_to_q7.c **** 
 142:Drivers/CMSIS/DSP/Source/SupportFunctions/arm_float_to_q7.c **** #else
 143:Drivers/CMSIS/DSP/Source/SupportFunctions/arm_float_to_q7.c **** 
 144:Drivers/CMSIS/DSP/Source/SupportFunctions/arm_float_to_q7.c ****     /* C = A * 128 */
 145:Drivers/CMSIS/DSP/Source/SupportFunctions/arm_float_to_q7.c ****     /* convert from float to q7 and then store the results in the destination buffer */
 146:Drivers/CMSIS/DSP/Source/SupportFunctions/arm_float_to_q7.c ****     *pDst++ = __SSAT((q31_t) (*pIn++ * 128.0f), 8);
 174              		.loc 1 146 5 is_stmt 1 view .LVU52
 175              	.LBB7:
 176              		.loc 1 146 15 view .LVU53
 177              	.LVL25:
 178              		.loc 1 146 15 is_stmt 0 view .LVU54
 179 005e F0EC017A 		vldmia.32	r0!, {s15}
 180              	.LVL26:
 181              		.loc 1 146 15 view .LVU55
 182 0062 FEEEEC7A 		vcvt.s32.f32	s15, s15, #7
 183              	.LVL27:
 184              		.loc 1 146 15 is_stmt 1 view .LVU56
 185 0066 17EE903A 		vmov	r3, s15	@ int
 186              		.syntax unified
 187              	@ 146 "Drivers/CMSIS/DSP/Source/SupportFunctions/arm_float_to_q7.c" 1
 188 006a 03F30703 		ssat r3, #8, r3
 189              	@ 0 "" 2
 190              	.LVL28:
 191              		.loc 1 146 15 view .LVU57
 192              		.loc 1 146 15 is_stmt 0 view .LVU58
 193              		.thumb
ARM GAS  /var/folders/n6/c271nzx11xl4r4_m7sqjlt0m0000gn/T//cczj4u4V.s 			page 7


 194              		.syntax unified
 195              	.LBE7:
 196              		.loc 1 146 13 view .LVU59
 197 006e 01F8013B 		strb	r3, [r1], #1
 198              	.LVL29:
 147:Drivers/CMSIS/DSP/Source/SupportFunctions/arm_float_to_q7.c **** 
 148:Drivers/CMSIS/DSP/Source/SupportFunctions/arm_float_to_q7.c **** #endif /*      #ifdef ARM_MATH_ROUNDING        */
 149:Drivers/CMSIS/DSP/Source/SupportFunctions/arm_float_to_q7.c **** 
 150:Drivers/CMSIS/DSP/Source/SupportFunctions/arm_float_to_q7.c ****     /* Decrement the loop counter */
 151:Drivers/CMSIS/DSP/Source/SupportFunctions/arm_float_to_q7.c ****     blkCnt--;
 199              		.loc 1 151 5 is_stmt 1 view .LVU60
 200              		.loc 1 151 11 is_stmt 0 view .LVU61
 201 0072 013A     		subs	r2, r2, #1
 202              	.LVL30:
 203              	.L4:
 131:Drivers/CMSIS/DSP/Source/SupportFunctions/arm_float_to_q7.c ****   {
 204              		.loc 1 131 17 is_stmt 1 view .LVU62
 205 0074 002A     		cmp	r2, #0
 206 0076 F2D1     		bne	.L5
 152:Drivers/CMSIS/DSP/Source/SupportFunctions/arm_float_to_q7.c ****   }
 153:Drivers/CMSIS/DSP/Source/SupportFunctions/arm_float_to_q7.c **** 
 154:Drivers/CMSIS/DSP/Source/SupportFunctions/arm_float_to_q7.c **** 
 155:Drivers/CMSIS/DSP/Source/SupportFunctions/arm_float_to_q7.c **** #else
 156:Drivers/CMSIS/DSP/Source/SupportFunctions/arm_float_to_q7.c **** 
 157:Drivers/CMSIS/DSP/Source/SupportFunctions/arm_float_to_q7.c ****   /* Run the below code for Cortex-M0 */
 158:Drivers/CMSIS/DSP/Source/SupportFunctions/arm_float_to_q7.c **** 
 159:Drivers/CMSIS/DSP/Source/SupportFunctions/arm_float_to_q7.c **** 
 160:Drivers/CMSIS/DSP/Source/SupportFunctions/arm_float_to_q7.c ****   /* Loop over blockSize number of values */
 161:Drivers/CMSIS/DSP/Source/SupportFunctions/arm_float_to_q7.c ****   blkCnt = blockSize;
 162:Drivers/CMSIS/DSP/Source/SupportFunctions/arm_float_to_q7.c **** 
 163:Drivers/CMSIS/DSP/Source/SupportFunctions/arm_float_to_q7.c ****   while (blkCnt > 0U)
 164:Drivers/CMSIS/DSP/Source/SupportFunctions/arm_float_to_q7.c ****   {
 165:Drivers/CMSIS/DSP/Source/SupportFunctions/arm_float_to_q7.c **** #ifdef ARM_MATH_ROUNDING
 166:Drivers/CMSIS/DSP/Source/SupportFunctions/arm_float_to_q7.c ****     /* C = A * 128 */
 167:Drivers/CMSIS/DSP/Source/SupportFunctions/arm_float_to_q7.c ****     /* convert from float to q7 and then store the results in the destination buffer */
 168:Drivers/CMSIS/DSP/Source/SupportFunctions/arm_float_to_q7.c ****     in = *pIn++;
 169:Drivers/CMSIS/DSP/Source/SupportFunctions/arm_float_to_q7.c ****     in = (in * 128.0f);
 170:Drivers/CMSIS/DSP/Source/SupportFunctions/arm_float_to_q7.c ****     in += in > 0 ? 0.5f : -0.5f;
 171:Drivers/CMSIS/DSP/Source/SupportFunctions/arm_float_to_q7.c ****     *pDst++ = (q7_t) (__SSAT((q31_t) (in), 8));
 172:Drivers/CMSIS/DSP/Source/SupportFunctions/arm_float_to_q7.c **** 
 173:Drivers/CMSIS/DSP/Source/SupportFunctions/arm_float_to_q7.c **** #else
 174:Drivers/CMSIS/DSP/Source/SupportFunctions/arm_float_to_q7.c **** 
 175:Drivers/CMSIS/DSP/Source/SupportFunctions/arm_float_to_q7.c ****     /* C = A * 128 */
 176:Drivers/CMSIS/DSP/Source/SupportFunctions/arm_float_to_q7.c ****     /* convert from float to q7 and then store the results in the destination buffer */
 177:Drivers/CMSIS/DSP/Source/SupportFunctions/arm_float_to_q7.c ****     *pDst++ = (q7_t) __SSAT((q31_t) (*pIn++ * 128.0f), 8);
 178:Drivers/CMSIS/DSP/Source/SupportFunctions/arm_float_to_q7.c **** 
 179:Drivers/CMSIS/DSP/Source/SupportFunctions/arm_float_to_q7.c **** #endif /*      #ifdef ARM_MATH_ROUNDING        */
 180:Drivers/CMSIS/DSP/Source/SupportFunctions/arm_float_to_q7.c **** 
 181:Drivers/CMSIS/DSP/Source/SupportFunctions/arm_float_to_q7.c ****     /* Decrement the loop counter */
 182:Drivers/CMSIS/DSP/Source/SupportFunctions/arm_float_to_q7.c ****     blkCnt--;
 183:Drivers/CMSIS/DSP/Source/SupportFunctions/arm_float_to_q7.c ****   }
 184:Drivers/CMSIS/DSP/Source/SupportFunctions/arm_float_to_q7.c **** 
 185:Drivers/CMSIS/DSP/Source/SupportFunctions/arm_float_to_q7.c **** #endif /* #if defined (ARM_MATH_DSP) */
 186:Drivers/CMSIS/DSP/Source/SupportFunctions/arm_float_to_q7.c **** 
 187:Drivers/CMSIS/DSP/Source/SupportFunctions/arm_float_to_q7.c **** }
 207              		.loc 1 187 1 is_stmt 0 view .LVU63
 208 0078 5DF8044B 		ldr	r4, [sp], #4
ARM GAS  /var/folders/n6/c271nzx11xl4r4_m7sqjlt0m0000gn/T//cczj4u4V.s 			page 8


 209              		.cfi_restore 4
 210              		.cfi_def_cfa_offset 0
 211 007c 7047     		bx	lr
 212              		.cfi_endproc
 213              	.LFE135:
 215              		.text
 216              	.Letext0:
 217              		.file 2 "/Users/killian/Library/Application Support/Code/User/globalStorage/bmd.stm32-for-vscode/@
 218              		.file 3 "/Users/killian/Library/Application Support/Code/User/globalStorage/bmd.stm32-for-vscode/@
 219              		.file 4 "Drivers/CMSIS/DSP/Include/arm_math.h"
ARM GAS  /var/folders/n6/c271nzx11xl4r4_m7sqjlt0m0000gn/T//cczj4u4V.s 			page 9


DEFINED SYMBOLS
                            *ABS*:00000000 arm_float_to_q7.c
/var/folders/n6/c271nzx11xl4r4_m7sqjlt0m0000gn/T//cczj4u4V.s:20     .text.arm_float_to_q7:00000000 $t
/var/folders/n6/c271nzx11xl4r4_m7sqjlt0m0000gn/T//cczj4u4V.s:26     .text.arm_float_to_q7:00000000 arm_float_to_q7

NO UNDEFINED SYMBOLS
