ARM GAS  /var/folders/n6/c271nzx11xl4r4_m7sqjlt0m0000gn/T//cc9tggTv.s 			page 1


   1              		.cpu cortex-m7
   2              		.arch armv7e-m
   3              		.fpu fpv5-d16
   4              		.eabi_attribute 28, 1
   5              		.eabi_attribute 20, 1
   6              		.eabi_attribute 21, 1
   7              		.eabi_attribute 23, 3
   8              		.eabi_attribute 24, 1
   9              		.eabi_attribute 25, 1
  10              		.eabi_attribute 26, 1
  11              		.eabi_attribute 30, 1
  12              		.eabi_attribute 34, 1
  13              		.eabi_attribute 18, 4
  14              		.file	"arm_conv_partial_q15.c"
  15              		.text
  16              	.Ltext0:
  17              		.cfi_sections	.debug_frame
  18              		.file 1 "Drivers/CMSIS/DSP/Source/FilteringFunctions/arm_conv_partial_q15.c"
  19              		.section	.text.arm_conv_partial_q15,"ax",%progbits
  20              		.align	1
  21              		.global	arm_conv_partial_q15
  22              		.syntax unified
  23              		.thumb
  24              		.thumb_func
  26              	arm_conv_partial_q15:
  27              	.LVL0:
  28              	.LFB135:
   1:Drivers/CMSIS/DSP/Source/FilteringFunctions/arm_conv_partial_q15.c **** /* ----------------------------------------------------------------------
   2:Drivers/CMSIS/DSP/Source/FilteringFunctions/arm_conv_partial_q15.c ****  * Project:      CMSIS DSP Library
   3:Drivers/CMSIS/DSP/Source/FilteringFunctions/arm_conv_partial_q15.c ****  * Title:        arm_conv_partial_q15.c
   4:Drivers/CMSIS/DSP/Source/FilteringFunctions/arm_conv_partial_q15.c ****  * Description:  Partial convolution of Q15 sequences
   5:Drivers/CMSIS/DSP/Source/FilteringFunctions/arm_conv_partial_q15.c ****  *
   6:Drivers/CMSIS/DSP/Source/FilteringFunctions/arm_conv_partial_q15.c ****  * $Date:        27. January 2017
   7:Drivers/CMSIS/DSP/Source/FilteringFunctions/arm_conv_partial_q15.c ****  * $Revision:    V.1.5.1
   8:Drivers/CMSIS/DSP/Source/FilteringFunctions/arm_conv_partial_q15.c ****  *
   9:Drivers/CMSIS/DSP/Source/FilteringFunctions/arm_conv_partial_q15.c ****  * Target Processor: Cortex-M cores
  10:Drivers/CMSIS/DSP/Source/FilteringFunctions/arm_conv_partial_q15.c ****  * -------------------------------------------------------------------- */
  11:Drivers/CMSIS/DSP/Source/FilteringFunctions/arm_conv_partial_q15.c **** /*
  12:Drivers/CMSIS/DSP/Source/FilteringFunctions/arm_conv_partial_q15.c ****  * Copyright (C) 2010-2017 ARM Limited or its affiliates. All rights reserved.
  13:Drivers/CMSIS/DSP/Source/FilteringFunctions/arm_conv_partial_q15.c ****  *
  14:Drivers/CMSIS/DSP/Source/FilteringFunctions/arm_conv_partial_q15.c ****  * SPDX-License-Identifier: Apache-2.0
  15:Drivers/CMSIS/DSP/Source/FilteringFunctions/arm_conv_partial_q15.c ****  *
  16:Drivers/CMSIS/DSP/Source/FilteringFunctions/arm_conv_partial_q15.c ****  * Licensed under the Apache License, Version 2.0 (the License); you may
  17:Drivers/CMSIS/DSP/Source/FilteringFunctions/arm_conv_partial_q15.c ****  * not use this file except in compliance with the License.
  18:Drivers/CMSIS/DSP/Source/FilteringFunctions/arm_conv_partial_q15.c ****  * You may obtain a copy of the License at
  19:Drivers/CMSIS/DSP/Source/FilteringFunctions/arm_conv_partial_q15.c ****  *
  20:Drivers/CMSIS/DSP/Source/FilteringFunctions/arm_conv_partial_q15.c ****  * www.apache.org/licenses/LICENSE-2.0
  21:Drivers/CMSIS/DSP/Source/FilteringFunctions/arm_conv_partial_q15.c ****  *
  22:Drivers/CMSIS/DSP/Source/FilteringFunctions/arm_conv_partial_q15.c ****  * Unless required by applicable law or agreed to in writing, software
  23:Drivers/CMSIS/DSP/Source/FilteringFunctions/arm_conv_partial_q15.c ****  * distributed under the License is distributed on an AS IS BASIS, WITHOUT
  24:Drivers/CMSIS/DSP/Source/FilteringFunctions/arm_conv_partial_q15.c ****  * WARRANTIES OR CONDITIONS OF ANY KIND, either express or implied.
  25:Drivers/CMSIS/DSP/Source/FilteringFunctions/arm_conv_partial_q15.c ****  * See the License for the specific language governing permissions and
  26:Drivers/CMSIS/DSP/Source/FilteringFunctions/arm_conv_partial_q15.c ****  * limitations under the License.
  27:Drivers/CMSIS/DSP/Source/FilteringFunctions/arm_conv_partial_q15.c ****  */
  28:Drivers/CMSIS/DSP/Source/FilteringFunctions/arm_conv_partial_q15.c **** 
  29:Drivers/CMSIS/DSP/Source/FilteringFunctions/arm_conv_partial_q15.c **** #include "arm_math.h"
  30:Drivers/CMSIS/DSP/Source/FilteringFunctions/arm_conv_partial_q15.c **** 
ARM GAS  /var/folders/n6/c271nzx11xl4r4_m7sqjlt0m0000gn/T//cc9tggTv.s 			page 2


  31:Drivers/CMSIS/DSP/Source/FilteringFunctions/arm_conv_partial_q15.c **** /**
  32:Drivers/CMSIS/DSP/Source/FilteringFunctions/arm_conv_partial_q15.c ****  * @ingroup groupFilters
  33:Drivers/CMSIS/DSP/Source/FilteringFunctions/arm_conv_partial_q15.c ****  */
  34:Drivers/CMSIS/DSP/Source/FilteringFunctions/arm_conv_partial_q15.c **** 
  35:Drivers/CMSIS/DSP/Source/FilteringFunctions/arm_conv_partial_q15.c **** /**
  36:Drivers/CMSIS/DSP/Source/FilteringFunctions/arm_conv_partial_q15.c ****  * @addtogroup PartialConv
  37:Drivers/CMSIS/DSP/Source/FilteringFunctions/arm_conv_partial_q15.c ****  * @{
  38:Drivers/CMSIS/DSP/Source/FilteringFunctions/arm_conv_partial_q15.c ****  */
  39:Drivers/CMSIS/DSP/Source/FilteringFunctions/arm_conv_partial_q15.c **** 
  40:Drivers/CMSIS/DSP/Source/FilteringFunctions/arm_conv_partial_q15.c **** /**
  41:Drivers/CMSIS/DSP/Source/FilteringFunctions/arm_conv_partial_q15.c ****  * @brief Partial convolution of Q15 sequences.
  42:Drivers/CMSIS/DSP/Source/FilteringFunctions/arm_conv_partial_q15.c ****  * @param[in]       *pSrcA points to the first input sequence.
  43:Drivers/CMSIS/DSP/Source/FilteringFunctions/arm_conv_partial_q15.c ****  * @param[in]       srcALen length of the first input sequence.
  44:Drivers/CMSIS/DSP/Source/FilteringFunctions/arm_conv_partial_q15.c ****  * @param[in]       *pSrcB points to the second input sequence.
  45:Drivers/CMSIS/DSP/Source/FilteringFunctions/arm_conv_partial_q15.c ****  * @param[in]       srcBLen length of the second input sequence.
  46:Drivers/CMSIS/DSP/Source/FilteringFunctions/arm_conv_partial_q15.c ****  * @param[out]      *pDst points to the location where the output result is written.
  47:Drivers/CMSIS/DSP/Source/FilteringFunctions/arm_conv_partial_q15.c ****  * @param[in]       firstIndex is the first output sample to start with.
  48:Drivers/CMSIS/DSP/Source/FilteringFunctions/arm_conv_partial_q15.c ****  * @param[in]       numPoints is the number of output points to be computed.
  49:Drivers/CMSIS/DSP/Source/FilteringFunctions/arm_conv_partial_q15.c ****  * @return  Returns either ARM_MATH_SUCCESS if the function completed correctly or ARM_MATH_ARGUMEN
  50:Drivers/CMSIS/DSP/Source/FilteringFunctions/arm_conv_partial_q15.c ****  *
  51:Drivers/CMSIS/DSP/Source/FilteringFunctions/arm_conv_partial_q15.c ****  * Refer to <code>arm_conv_partial_fast_q15()</code> for a faster but less precise version of this 
  52:Drivers/CMSIS/DSP/Source/FilteringFunctions/arm_conv_partial_q15.c ****  *
  53:Drivers/CMSIS/DSP/Source/FilteringFunctions/arm_conv_partial_q15.c ****  * \par
  54:Drivers/CMSIS/DSP/Source/FilteringFunctions/arm_conv_partial_q15.c ****  * Refer the function <code>arm_conv_partial_opt_q15()</code> for a faster implementation of this f
  55:Drivers/CMSIS/DSP/Source/FilteringFunctions/arm_conv_partial_q15.c ****  *
  56:Drivers/CMSIS/DSP/Source/FilteringFunctions/arm_conv_partial_q15.c ****  */
  57:Drivers/CMSIS/DSP/Source/FilteringFunctions/arm_conv_partial_q15.c **** 
  58:Drivers/CMSIS/DSP/Source/FilteringFunctions/arm_conv_partial_q15.c **** arm_status arm_conv_partial_q15(
  59:Drivers/CMSIS/DSP/Source/FilteringFunctions/arm_conv_partial_q15.c ****   q15_t * pSrcA,
  60:Drivers/CMSIS/DSP/Source/FilteringFunctions/arm_conv_partial_q15.c ****   uint32_t srcALen,
  61:Drivers/CMSIS/DSP/Source/FilteringFunctions/arm_conv_partial_q15.c ****   q15_t * pSrcB,
  62:Drivers/CMSIS/DSP/Source/FilteringFunctions/arm_conv_partial_q15.c ****   uint32_t srcBLen,
  63:Drivers/CMSIS/DSP/Source/FilteringFunctions/arm_conv_partial_q15.c ****   q15_t * pDst,
  64:Drivers/CMSIS/DSP/Source/FilteringFunctions/arm_conv_partial_q15.c ****   uint32_t firstIndex,
  65:Drivers/CMSIS/DSP/Source/FilteringFunctions/arm_conv_partial_q15.c ****   uint32_t numPoints)
  66:Drivers/CMSIS/DSP/Source/FilteringFunctions/arm_conv_partial_q15.c **** {
  29              		.loc 1 66 1 view -0
  30              		.cfi_startproc
  31              		@ args = 12, pretend = 0, frame = 88
  32              		@ frame_needed = 0, uses_anonymous_args = 0
  33              		.loc 1 66 1 is_stmt 0 view .LVU1
  34 0000 2DE9F04F 		push	{r4, r5, r6, r7, r8, r9, r10, fp, lr}
  35              		.cfi_def_cfa_offset 36
  36              		.cfi_offset 4, -36
  37              		.cfi_offset 5, -32
  38              		.cfi_offset 6, -28
  39              		.cfi_offset 7, -24
  40              		.cfi_offset 8, -20
  41              		.cfi_offset 9, -16
  42              		.cfi_offset 10, -12
  43              		.cfi_offset 11, -8
  44              		.cfi_offset 14, -4
  45 0004 97B0     		sub	sp, sp, #92
  46              		.cfi_def_cfa_offset 128
  47 0006 0446     		mov	r4, r0
  48 0008 0846     		mov	r0, r1
  49              	.LVL1:
ARM GAS  /var/folders/n6/c271nzx11xl4r4_m7sqjlt0m0000gn/T//cc9tggTv.s 			page 3


  50              		.loc 1 66 1 view .LVU2
  51 000a 0F91     		str	r1, [sp, #60]
  52 000c 1646     		mov	r6, r2
  53 000e 0D92     		str	r2, [sp, #52]
  54 0010 9846     		mov	r8, r3
  55 0012 229B     		ldr	r3, [sp, #136]
  56              	.LVL2:
  67:Drivers/CMSIS/DSP/Source/FilteringFunctions/arm_conv_partial_q15.c **** 
  68:Drivers/CMSIS/DSP/Source/FilteringFunctions/arm_conv_partial_q15.c **** 
  69:Drivers/CMSIS/DSP/Source/FilteringFunctions/arm_conv_partial_q15.c **** #if (defined(ARM_MATH_CM7) || defined(ARM_MATH_CM4) || defined(ARM_MATH_CM3)) && !defined(UNALIGNED
  70:Drivers/CMSIS/DSP/Source/FilteringFunctions/arm_conv_partial_q15.c **** 
  71:Drivers/CMSIS/DSP/Source/FilteringFunctions/arm_conv_partial_q15.c ****   /* Run the below code for Cortex-M4 and Cortex-M3 */
  72:Drivers/CMSIS/DSP/Source/FilteringFunctions/arm_conv_partial_q15.c **** 
  73:Drivers/CMSIS/DSP/Source/FilteringFunctions/arm_conv_partial_q15.c ****   q15_t *pIn1;                                   /* inputA pointer               */
  57              		.loc 1 73 3 is_stmt 1 view .LVU3
  74:Drivers/CMSIS/DSP/Source/FilteringFunctions/arm_conv_partial_q15.c ****   q15_t *pIn2;                                   /* inputB pointer               */
  58              		.loc 1 74 3 view .LVU4
  75:Drivers/CMSIS/DSP/Source/FilteringFunctions/arm_conv_partial_q15.c ****   q15_t *pOut = pDst;                            /* output pointer               */
  59              		.loc 1 75 3 view .LVU5
  76:Drivers/CMSIS/DSP/Source/FilteringFunctions/arm_conv_partial_q15.c ****   q63_t sum, acc0, acc1, acc2, acc3;             /* Accumulator                  */
  60              		.loc 1 76 3 view .LVU6
  77:Drivers/CMSIS/DSP/Source/FilteringFunctions/arm_conv_partial_q15.c ****   q15_t *px;                                     /* Intermediate inputA pointer  */
  61              		.loc 1 77 3 view .LVU7
  78:Drivers/CMSIS/DSP/Source/FilteringFunctions/arm_conv_partial_q15.c ****   q15_t *py;                                     /* Intermediate inputB pointer  */
  62              		.loc 1 78 3 view .LVU8
  79:Drivers/CMSIS/DSP/Source/FilteringFunctions/arm_conv_partial_q15.c ****   q15_t *pSrc1, *pSrc2;                          /* Intermediate pointers        */
  63              		.loc 1 79 3 view .LVU9
  80:Drivers/CMSIS/DSP/Source/FilteringFunctions/arm_conv_partial_q15.c ****   q31_t x0, x1, x2, x3, c0;                      /* Temporary input variables */
  64              		.loc 1 80 3 view .LVU10
  81:Drivers/CMSIS/DSP/Source/FilteringFunctions/arm_conv_partial_q15.c ****   uint32_t j, k, count, check, blkCnt;
  65              		.loc 1 81 3 view .LVU11
  82:Drivers/CMSIS/DSP/Source/FilteringFunctions/arm_conv_partial_q15.c ****   int32_t blockSize1, blockSize2, blockSize3;    /* loop counter                 */
  66              		.loc 1 82 3 view .LVU12
  83:Drivers/CMSIS/DSP/Source/FilteringFunctions/arm_conv_partial_q15.c ****   arm_status status;                             /* status of Partial convolution */
  67              		.loc 1 83 3 view .LVU13
  84:Drivers/CMSIS/DSP/Source/FilteringFunctions/arm_conv_partial_q15.c **** 
  85:Drivers/CMSIS/DSP/Source/FilteringFunctions/arm_conv_partial_q15.c ****   /* Check for range of output samples to be calculated */
  86:Drivers/CMSIS/DSP/Source/FilteringFunctions/arm_conv_partial_q15.c ****   if ((firstIndex + numPoints) > ((srcALen + (srcBLen - 1U))))
  68              		.loc 1 86 3 view .LVU14
  69              		.loc 1 86 19 is_stmt 0 view .LVU15
  70 0014 219D     		ldr	r5, [sp, #132]
  71 0016 EA18     		adds	r2, r5, r3
  72              	.LVL3:
  73              		.loc 1 86 44 view .LVU16
  74 0018 4144     		add	r1, r8, r1
  75              	.LVL4:
  76              		.loc 1 86 44 view .LVU17
  77 001a 0139     		subs	r1, r1, #1
  78              		.loc 1 86 6 view .LVU18
  79 001c 8A42     		cmp	r2, r1
  80 001e 00F2ED82 		bhi	.L51
  87:Drivers/CMSIS/DSP/Source/FilteringFunctions/arm_conv_partial_q15.c ****   {
  88:Drivers/CMSIS/DSP/Source/FilteringFunctions/arm_conv_partial_q15.c ****     /* Set status as ARM_MATH_ARGUMENT_ERROR */
  89:Drivers/CMSIS/DSP/Source/FilteringFunctions/arm_conv_partial_q15.c ****     status = ARM_MATH_ARGUMENT_ERROR;
  90:Drivers/CMSIS/DSP/Source/FilteringFunctions/arm_conv_partial_q15.c ****   }
  91:Drivers/CMSIS/DSP/Source/FilteringFunctions/arm_conv_partial_q15.c ****   else
  92:Drivers/CMSIS/DSP/Source/FilteringFunctions/arm_conv_partial_q15.c ****   {
ARM GAS  /var/folders/n6/c271nzx11xl4r4_m7sqjlt0m0000gn/T//cc9tggTv.s 			page 4


  93:Drivers/CMSIS/DSP/Source/FilteringFunctions/arm_conv_partial_q15.c **** 
  94:Drivers/CMSIS/DSP/Source/FilteringFunctions/arm_conv_partial_q15.c ****     /* The algorithm implementation is based on the lengths of the inputs. */
  95:Drivers/CMSIS/DSP/Source/FilteringFunctions/arm_conv_partial_q15.c ****     /* srcB is always made to slide across srcA. */
  96:Drivers/CMSIS/DSP/Source/FilteringFunctions/arm_conv_partial_q15.c ****     /* So srcBLen is always considered as shorter or equal to srcALen */
  97:Drivers/CMSIS/DSP/Source/FilteringFunctions/arm_conv_partial_q15.c ****     if (srcALen >= srcBLen)
  81              		.loc 1 97 5 is_stmt 1 view .LVU19
  82              		.loc 1 97 8 is_stmt 0 view .LVU20
  83 0022 8045     		cmp	r8, r0
  84 0024 04D8     		bhi	.L3
  98:Drivers/CMSIS/DSP/Source/FilteringFunctions/arm_conv_partial_q15.c ****     {
  99:Drivers/CMSIS/DSP/Source/FilteringFunctions/arm_conv_partial_q15.c ****       /* Initialization of inputA pointer */
 100:Drivers/CMSIS/DSP/Source/FilteringFunctions/arm_conv_partial_q15.c ****       pIn1 = pSrcA;
  85              		.loc 1 100 12 view .LVU21
  86 0026 0D94     		str	r4, [sp, #52]
 101:Drivers/CMSIS/DSP/Source/FilteringFunctions/arm_conv_partial_q15.c **** 
 102:Drivers/CMSIS/DSP/Source/FilteringFunctions/arm_conv_partial_q15.c ****       /* Initialization of inputB pointer */
 103:Drivers/CMSIS/DSP/Source/FilteringFunctions/arm_conv_partial_q15.c ****       pIn2 = pSrcB;
  87              		.loc 1 103 12 view .LVU22
  88 0028 3446     		mov	r4, r6
  89              	.LVL5:
  97:Drivers/CMSIS/DSP/Source/FilteringFunctions/arm_conv_partial_q15.c ****     {
  90              		.loc 1 97 8 view .LVU23
  91 002a 4146     		mov	r1, r8
  92 002c 8046     		mov	r8, r0
  93              	.LVL6:
  97:Drivers/CMSIS/DSP/Source/FilteringFunctions/arm_conv_partial_q15.c ****     {
  94              		.loc 1 97 8 view .LVU24
  95 002e 0F91     		str	r1, [sp, #60]
  96              	.LVL7:
  97              	.L3:
 104:Drivers/CMSIS/DSP/Source/FilteringFunctions/arm_conv_partial_q15.c ****     }
 105:Drivers/CMSIS/DSP/Source/FilteringFunctions/arm_conv_partial_q15.c ****     else
 106:Drivers/CMSIS/DSP/Source/FilteringFunctions/arm_conv_partial_q15.c ****     {
 107:Drivers/CMSIS/DSP/Source/FilteringFunctions/arm_conv_partial_q15.c ****       /* Initialization of inputA pointer */
 108:Drivers/CMSIS/DSP/Source/FilteringFunctions/arm_conv_partial_q15.c ****       pIn1 = pSrcB;
 109:Drivers/CMSIS/DSP/Source/FilteringFunctions/arm_conv_partial_q15.c **** 
 110:Drivers/CMSIS/DSP/Source/FilteringFunctions/arm_conv_partial_q15.c ****       /* Initialization of inputB pointer */
 111:Drivers/CMSIS/DSP/Source/FilteringFunctions/arm_conv_partial_q15.c ****       pIn2 = pSrcA;
 112:Drivers/CMSIS/DSP/Source/FilteringFunctions/arm_conv_partial_q15.c **** 
 113:Drivers/CMSIS/DSP/Source/FilteringFunctions/arm_conv_partial_q15.c ****       /* srcBLen is always considered as shorter or equal to srcALen */
 114:Drivers/CMSIS/DSP/Source/FilteringFunctions/arm_conv_partial_q15.c ****       j = srcBLen;
 115:Drivers/CMSIS/DSP/Source/FilteringFunctions/arm_conv_partial_q15.c ****       srcBLen = srcALen;
 116:Drivers/CMSIS/DSP/Source/FilteringFunctions/arm_conv_partial_q15.c ****       srcALen = j;
 117:Drivers/CMSIS/DSP/Source/FilteringFunctions/arm_conv_partial_q15.c ****     }
 118:Drivers/CMSIS/DSP/Source/FilteringFunctions/arm_conv_partial_q15.c **** 
 119:Drivers/CMSIS/DSP/Source/FilteringFunctions/arm_conv_partial_q15.c ****     /* Conditions to check which loopCounter holds
 120:Drivers/CMSIS/DSP/Source/FilteringFunctions/arm_conv_partial_q15.c ****      * the first and last indices of the output samples to be calculated. */
 121:Drivers/CMSIS/DSP/Source/FilteringFunctions/arm_conv_partial_q15.c ****     check = firstIndex + numPoints;
  98              		.loc 1 121 5 is_stmt 1 view .LVU25
 122:Drivers/CMSIS/DSP/Source/FilteringFunctions/arm_conv_partial_q15.c ****     blockSize3 = ((int32_t)check > (int32_t)srcALen) ? (int32_t)check - (int32_t)srcALen : 0;
  99              		.loc 1 122 5 view .LVU26
 100              		.loc 1 122 36 is_stmt 0 view .LVU27
 101 0030 4046     		mov	r0, r8
 102              		.loc 1 122 90 view .LVU28
 103 0032 4245     		cmp	r2, r8
 104 0034 14DD     		ble	.L52
 105              		.loc 1 122 90 discriminator 1 view .LVU29
ARM GAS  /var/folders/n6/c271nzx11xl4r4_m7sqjlt0m0000gn/T//cc9tggTv.s 			page 5


 106 0036 A2EB0801 		sub	r1, r2, r8
 107              	.L4:
 108              	.LVL8:
 123:Drivers/CMSIS/DSP/Source/FilteringFunctions/arm_conv_partial_q15.c ****     blockSize3 = ((int32_t)firstIndex > (int32_t)srcALen - 1) ? blockSize3 - (int32_t)firstIndex + 
 109              		.loc 1 123 5 is_stmt 1 view .LVU30
 110              		.loc 1 123 117 is_stmt 0 view .LVU31
 111 003a 219D     		ldr	r5, [sp, #132]
 112 003c A842     		cmp	r0, r5
 113 003e 01DC     		bgt	.L5
 114              		.loc 1 123 76 discriminator 1 view .LVU32
 115 0040 491B     		subs	r1, r1, r5
 116              	.LVL9:
 117              		.loc 1 123 117 discriminator 1 view .LVU33
 118 0042 0144     		add	r1, r1, r0
 119              	.L5:
 120              	.LVL10:
 124:Drivers/CMSIS/DSP/Source/FilteringFunctions/arm_conv_partial_q15.c ****     blockSize1 = (((int32_t) srcBLen - 1) - (int32_t) firstIndex);
 121              		.loc 1 124 5 is_stmt 1 view .LVU34
 122              		.loc 1 124 43 is_stmt 0 view .LVU35
 123 0044 0F98     		ldr	r0, [sp, #60]
 124 0046 219D     		ldr	r5, [sp, #132]
 125 0048 A0EB050C 		sub	ip, r0, r5
 126 004c 0CF1FF3C 		add	ip, ip, #-1
 127              	.LVL11:
 125:Drivers/CMSIS/DSP/Source/FilteringFunctions/arm_conv_partial_q15.c ****     blockSize1 = (blockSize1 > 0) ? ((check > (srcBLen - 1U)) ? blockSize1 :
 128              		.loc 1 125 5 is_stmt 1 view .LVU36
 126:Drivers/CMSIS/DSP/Source/FilteringFunctions/arm_conv_partial_q15.c ****                                      (int32_t) numPoints) : 0;
 129              		.loc 1 126 59 is_stmt 0 view .LVU37
 130 0050 BCF1000F 		cmp	ip, #0
 131 0054 06DD     		ble	.L53
 125:Drivers/CMSIS/DSP/Source/FilteringFunctions/arm_conv_partial_q15.c ****     blockSize1 = (blockSize1 > 0) ? ((check > (srcBLen - 1U)) ? blockSize1 :
 132              		.loc 1 125 56 view .LVU38
 133 0056 0138     		subs	r0, r0, #1
 125:Drivers/CMSIS/DSP/Source/FilteringFunctions/arm_conv_partial_q15.c ****     blockSize1 = (blockSize1 > 0) ? ((check > (srcBLen - 1U)) ? blockSize1 :
 134              		.loc 1 125 76 view .LVU39
 135 0058 8242     		cmp	r2, r0
 136 005a 05D8     		bhi	.L6
 125:Drivers/CMSIS/DSP/Source/FilteringFunctions/arm_conv_partial_q15.c ****     blockSize1 = (blockSize1 > 0) ? ((check > (srcBLen - 1U)) ? blockSize1 :
 137              		.loc 1 125 76 discriminator 2 view .LVU40
 138 005c 9C46     		mov	ip, r3
 139              	.LVL12:
 125:Drivers/CMSIS/DSP/Source/FilteringFunctions/arm_conv_partial_q15.c ****     blockSize1 = (blockSize1 > 0) ? ((check > (srcBLen - 1U)) ? blockSize1 :
 140              		.loc 1 125 76 discriminator 2 view .LVU41
 141 005e 03E0     		b	.L6
 142              	.LVL13:
 143              	.L52:
 122:Drivers/CMSIS/DSP/Source/FilteringFunctions/arm_conv_partial_q15.c ****     blockSize3 = ((int32_t)firstIndex > (int32_t)srcALen - 1) ? blockSize3 - (int32_t)firstIndex + 
 144              		.loc 1 122 90 discriminator 2 view .LVU42
 145 0060 0021     		movs	r1, #0
 146 0062 EAE7     		b	.L4
 147              	.LVL14:
 148              	.L53:
 149              		.loc 1 126 59 discriminator 1 view .LVU43
 150 0064 4FF0000C 		mov	ip, #0
 151              	.LVL15:
 152              	.L6:
 127:Drivers/CMSIS/DSP/Source/FilteringFunctions/arm_conv_partial_q15.c ****     blockSize2 = (int32_t) check - ((blockSize3 + blockSize1) +
ARM GAS  /var/folders/n6/c271nzx11xl4r4_m7sqjlt0m0000gn/T//cc9tggTv.s 			page 6


 153              		.loc 1 127 5 is_stmt 1 view .LVU44
 154              		.loc 1 127 49 is_stmt 0 view .LVU45
 155 0068 01EB0C03 		add	r3, r1, ip
 156              		.loc 1 127 63 view .LVU46
 157 006c 2198     		ldr	r0, [sp, #132]
 158 006e 0344     		add	r3, r3, r0
 159              		.loc 1 127 16 view .LVU47
 160 0070 D21A     		subs	r2, r2, r3
 161              	.LVL16:
 128:Drivers/CMSIS/DSP/Source/FilteringFunctions/arm_conv_partial_q15.c ****                                     (int32_t) firstIndex);
 129:Drivers/CMSIS/DSP/Source/FilteringFunctions/arm_conv_partial_q15.c ****     blockSize2 = (blockSize2 > 0) ? blockSize2 : 0;
 162              		.loc 1 129 5 is_stmt 1 view .LVU48
 163              		.loc 1 129 16 is_stmt 0 view .LVU49
 164 0072 22EAE277 		bic	r7, r2, r2, asr #31
 165              	.LVL17:
 130:Drivers/CMSIS/DSP/Source/FilteringFunctions/arm_conv_partial_q15.c **** 
 131:Drivers/CMSIS/DSP/Source/FilteringFunctions/arm_conv_partial_q15.c ****     /* conv(x,y) at n = x[n] * y[0] + x[n-1] * y[1] + x[n-2] * y[2] + ...+ x[n-N+1] * y[N -1] */
 132:Drivers/CMSIS/DSP/Source/FilteringFunctions/arm_conv_partial_q15.c ****     /* The function is internally
 133:Drivers/CMSIS/DSP/Source/FilteringFunctions/arm_conv_partial_q15.c ****      * divided into three stages according to the number of multiplications that has to be
 134:Drivers/CMSIS/DSP/Source/FilteringFunctions/arm_conv_partial_q15.c ****      * taken place between inputA samples and inputB samples. In the first stage of the
 135:Drivers/CMSIS/DSP/Source/FilteringFunctions/arm_conv_partial_q15.c ****      * algorithm, the multiplications increase by one for every iteration.
 136:Drivers/CMSIS/DSP/Source/FilteringFunctions/arm_conv_partial_q15.c ****      * In the second stage of the algorithm, srcBLen number of multiplications are done.
 137:Drivers/CMSIS/DSP/Source/FilteringFunctions/arm_conv_partial_q15.c ****      * In the third stage of the algorithm, the multiplications decrease by one
 138:Drivers/CMSIS/DSP/Source/FilteringFunctions/arm_conv_partial_q15.c ****      * for every iteration. */
 139:Drivers/CMSIS/DSP/Source/FilteringFunctions/arm_conv_partial_q15.c **** 
 140:Drivers/CMSIS/DSP/Source/FilteringFunctions/arm_conv_partial_q15.c ****     /* Set the output pointer to point to the firstIndex
 141:Drivers/CMSIS/DSP/Source/FilteringFunctions/arm_conv_partial_q15.c ****      * of the output sample to be calculated. */
 142:Drivers/CMSIS/DSP/Source/FilteringFunctions/arm_conv_partial_q15.c ****     pOut = pDst + firstIndex;
 166              		.loc 1 142 5 is_stmt 1 view .LVU50
 167              		.loc 1 142 17 is_stmt 0 view .LVU51
 168 0076 209B     		ldr	r3, [sp, #128]
 169 0078 03EB4003 		add	r3, r3, r0, lsl #1
 170 007c 0993     		str	r3, [sp, #36]
 171              	.LVL18:
 143:Drivers/CMSIS/DSP/Source/FilteringFunctions/arm_conv_partial_q15.c **** 
 144:Drivers/CMSIS/DSP/Source/FilteringFunctions/arm_conv_partial_q15.c ****     /* --------------------------
 145:Drivers/CMSIS/DSP/Source/FilteringFunctions/arm_conv_partial_q15.c ****      * Initializations of stage1
 146:Drivers/CMSIS/DSP/Source/FilteringFunctions/arm_conv_partial_q15.c ****      * -------------------------*/
 147:Drivers/CMSIS/DSP/Source/FilteringFunctions/arm_conv_partial_q15.c **** 
 148:Drivers/CMSIS/DSP/Source/FilteringFunctions/arm_conv_partial_q15.c ****     /* sum = x[0] * y[0]
 149:Drivers/CMSIS/DSP/Source/FilteringFunctions/arm_conv_partial_q15.c ****      * sum = x[0] * y[1] + x[1] * y[0]
 150:Drivers/CMSIS/DSP/Source/FilteringFunctions/arm_conv_partial_q15.c ****      * ....
 151:Drivers/CMSIS/DSP/Source/FilteringFunctions/arm_conv_partial_q15.c ****      * sum = x[0] * y[srcBlen - 1] + x[1] * y[srcBlen - 2] +...+ x[srcBLen - 1] * y[0]
 152:Drivers/CMSIS/DSP/Source/FilteringFunctions/arm_conv_partial_q15.c ****      */
 153:Drivers/CMSIS/DSP/Source/FilteringFunctions/arm_conv_partial_q15.c **** 
 154:Drivers/CMSIS/DSP/Source/FilteringFunctions/arm_conv_partial_q15.c ****     /* In this stage the MAC operations are increased by 1 for every iteration.
 155:Drivers/CMSIS/DSP/Source/FilteringFunctions/arm_conv_partial_q15.c ****        The count variable holds the number of MAC operations performed.
 156:Drivers/CMSIS/DSP/Source/FilteringFunctions/arm_conv_partial_q15.c ****        Since the partial convolution starts from firstIndex
 157:Drivers/CMSIS/DSP/Source/FilteringFunctions/arm_conv_partial_q15.c ****        Number of Macs to be performed is firstIndex + 1 */
 158:Drivers/CMSIS/DSP/Source/FilteringFunctions/arm_conv_partial_q15.c ****     count = 1U + firstIndex;
 172              		.loc 1 158 5 is_stmt 1 view .LVU52
 173              		.loc 1 158 11 is_stmt 0 view .LVU53
 174 007e 0346     		mov	r3, r0
 175              	.LVL19:
 176              		.loc 1 158 11 view .LVU54
 177 0080 461C     		adds	r6, r0, #1
 178              	.LVL20:
ARM GAS  /var/folders/n6/c271nzx11xl4r4_m7sqjlt0m0000gn/T//cc9tggTv.s 			page 7


 159:Drivers/CMSIS/DSP/Source/FilteringFunctions/arm_conv_partial_q15.c **** 
 160:Drivers/CMSIS/DSP/Source/FilteringFunctions/arm_conv_partial_q15.c ****     /* Working pointer of inputA */
 161:Drivers/CMSIS/DSP/Source/FilteringFunctions/arm_conv_partial_q15.c ****     px = pIn1;
 179              		.loc 1 161 5 is_stmt 1 view .LVU55
 162:Drivers/CMSIS/DSP/Source/FilteringFunctions/arm_conv_partial_q15.c **** 
 163:Drivers/CMSIS/DSP/Source/FilteringFunctions/arm_conv_partial_q15.c ****     /* Working pointer of inputB */
 164:Drivers/CMSIS/DSP/Source/FilteringFunctions/arm_conv_partial_q15.c ****     pSrc2 = pIn2 + firstIndex;
 180              		.loc 1 164 5 view .LVU56
 181              		.loc 1 164 11 is_stmt 0 view .LVU57
 182 0082 04EB400E 		add	lr, r4, r0, lsl #1
 183              	.LVL21:
 165:Drivers/CMSIS/DSP/Source/FilteringFunctions/arm_conv_partial_q15.c ****     py = pSrc2;
 184              		.loc 1 165 5 is_stmt 1 view .LVU58
 166:Drivers/CMSIS/DSP/Source/FilteringFunctions/arm_conv_partial_q15.c **** 
 167:Drivers/CMSIS/DSP/Source/FilteringFunctions/arm_conv_partial_q15.c ****     /* ------------------------
 168:Drivers/CMSIS/DSP/Source/FilteringFunctions/arm_conv_partial_q15.c ****      * Stage1 process
 169:Drivers/CMSIS/DSP/Source/FilteringFunctions/arm_conv_partial_q15.c ****      * ----------------------*/
 170:Drivers/CMSIS/DSP/Source/FilteringFunctions/arm_conv_partial_q15.c **** 
 171:Drivers/CMSIS/DSP/Source/FilteringFunctions/arm_conv_partial_q15.c ****     /* For loop unrolling by 4, this stage is divided into two. */
 172:Drivers/CMSIS/DSP/Source/FilteringFunctions/arm_conv_partial_q15.c ****     /* First part of this stage computes the MAC operations less than 4 */
 173:Drivers/CMSIS/DSP/Source/FilteringFunctions/arm_conv_partial_q15.c ****     /* Second part of this stage computes the MAC operations greater than or equal to 4 */
 174:Drivers/CMSIS/DSP/Source/FilteringFunctions/arm_conv_partial_q15.c **** 
 175:Drivers/CMSIS/DSP/Source/FilteringFunctions/arm_conv_partial_q15.c ****     /* The first part of the stage starts here */
 176:Drivers/CMSIS/DSP/Source/FilteringFunctions/arm_conv_partial_q15.c ****     while ((count < 4U) && (blockSize1 > 0))
 185              		.loc 1 176 5 view .LVU59
 186 0086 8946     		mov	r9, r1
 187              		.loc 1 176 11 is_stmt 0 view .LVU60
 188 0088 16E0     		b	.L7
 189              	.LVL22:
 190              	.L8:
 177:Drivers/CMSIS/DSP/Source/FilteringFunctions/arm_conv_partial_q15.c ****     {
 178:Drivers/CMSIS/DSP/Source/FilteringFunctions/arm_conv_partial_q15.c ****       /* Accumulator is made zero for every iteration */
 179:Drivers/CMSIS/DSP/Source/FilteringFunctions/arm_conv_partial_q15.c ****       sum = 0;
 180:Drivers/CMSIS/DSP/Source/FilteringFunctions/arm_conv_partial_q15.c **** 
 181:Drivers/CMSIS/DSP/Source/FilteringFunctions/arm_conv_partial_q15.c ****       /* Loop over number of MAC operations between
 182:Drivers/CMSIS/DSP/Source/FilteringFunctions/arm_conv_partial_q15.c ****        * inputA samples and inputB samples */
 183:Drivers/CMSIS/DSP/Source/FilteringFunctions/arm_conv_partial_q15.c ****       k = count;
 184:Drivers/CMSIS/DSP/Source/FilteringFunctions/arm_conv_partial_q15.c **** 
 185:Drivers/CMSIS/DSP/Source/FilteringFunctions/arm_conv_partial_q15.c ****       while (k > 0U)
 186:Drivers/CMSIS/DSP/Source/FilteringFunctions/arm_conv_partial_q15.c ****       {
 187:Drivers/CMSIS/DSP/Source/FilteringFunctions/arm_conv_partial_q15.c ****         /* Perform the multiply-accumulates */
 188:Drivers/CMSIS/DSP/Source/FilteringFunctions/arm_conv_partial_q15.c ****         sum = __SMLALD(*px++, *py--, sum);
 191              		.loc 1 188 9 is_stmt 1 view .LVU61
 192              		.loc 1 188 24 is_stmt 0 view .LVU62
 193 008a 31F902EB 		ldrsh	lr, [r1], #2
 194              	.LVL23:
 195              		.loc 1 188 31 view .LVU63
 196 008e 30F902A9 		ldrsh	r10, [r0], #-2
 197              	.LVL24:
 198              	.LBB76:
 199              	.LBI76:
 200              		.file 2 "Drivers/CMSIS/Include/cmsis_gcc.h"
   1:Drivers/CMSIS/Include/cmsis_gcc.h **** /**************************************************************************//**
   2:Drivers/CMSIS/Include/cmsis_gcc.h ****  * @file     cmsis_gcc.h
   3:Drivers/CMSIS/Include/cmsis_gcc.h ****  * @brief    CMSIS compiler GCC header file
   4:Drivers/CMSIS/Include/cmsis_gcc.h ****  * @version  V5.0.4
   5:Drivers/CMSIS/Include/cmsis_gcc.h ****  * @date     09. April 2018
ARM GAS  /var/folders/n6/c271nzx11xl4r4_m7sqjlt0m0000gn/T//cc9tggTv.s 			page 8


   6:Drivers/CMSIS/Include/cmsis_gcc.h ****  ******************************************************************************/
   7:Drivers/CMSIS/Include/cmsis_gcc.h **** /*
   8:Drivers/CMSIS/Include/cmsis_gcc.h ****  * Copyright (c) 2009-2018 Arm Limited. All rights reserved.
   9:Drivers/CMSIS/Include/cmsis_gcc.h ****  *
  10:Drivers/CMSIS/Include/cmsis_gcc.h ****  * SPDX-License-Identifier: Apache-2.0
  11:Drivers/CMSIS/Include/cmsis_gcc.h ****  *
  12:Drivers/CMSIS/Include/cmsis_gcc.h ****  * Licensed under the Apache License, Version 2.0 (the License); you may
  13:Drivers/CMSIS/Include/cmsis_gcc.h ****  * not use this file except in compliance with the License.
  14:Drivers/CMSIS/Include/cmsis_gcc.h ****  * You may obtain a copy of the License at
  15:Drivers/CMSIS/Include/cmsis_gcc.h ****  *
  16:Drivers/CMSIS/Include/cmsis_gcc.h ****  * www.apache.org/licenses/LICENSE-2.0
  17:Drivers/CMSIS/Include/cmsis_gcc.h ****  *
  18:Drivers/CMSIS/Include/cmsis_gcc.h ****  * Unless required by applicable law or agreed to in writing, software
  19:Drivers/CMSIS/Include/cmsis_gcc.h ****  * distributed under the License is distributed on an AS IS BASIS, WITHOUT
  20:Drivers/CMSIS/Include/cmsis_gcc.h ****  * WARRANTIES OR CONDITIONS OF ANY KIND, either express or implied.
  21:Drivers/CMSIS/Include/cmsis_gcc.h ****  * See the License for the specific language governing permissions and
  22:Drivers/CMSIS/Include/cmsis_gcc.h ****  * limitations under the License.
  23:Drivers/CMSIS/Include/cmsis_gcc.h ****  */
  24:Drivers/CMSIS/Include/cmsis_gcc.h **** 
  25:Drivers/CMSIS/Include/cmsis_gcc.h **** #ifndef __CMSIS_GCC_H
  26:Drivers/CMSIS/Include/cmsis_gcc.h **** #define __CMSIS_GCC_H
  27:Drivers/CMSIS/Include/cmsis_gcc.h **** 
  28:Drivers/CMSIS/Include/cmsis_gcc.h **** /* ignore some GCC warnings */
  29:Drivers/CMSIS/Include/cmsis_gcc.h **** #pragma GCC diagnostic push
  30:Drivers/CMSIS/Include/cmsis_gcc.h **** #pragma GCC diagnostic ignored "-Wsign-conversion"
  31:Drivers/CMSIS/Include/cmsis_gcc.h **** #pragma GCC diagnostic ignored "-Wconversion"
  32:Drivers/CMSIS/Include/cmsis_gcc.h **** #pragma GCC diagnostic ignored "-Wunused-parameter"
  33:Drivers/CMSIS/Include/cmsis_gcc.h **** 
  34:Drivers/CMSIS/Include/cmsis_gcc.h **** /* Fallback for __has_builtin */
  35:Drivers/CMSIS/Include/cmsis_gcc.h **** #ifndef __has_builtin
  36:Drivers/CMSIS/Include/cmsis_gcc.h ****   #define __has_builtin(x) (0)
  37:Drivers/CMSIS/Include/cmsis_gcc.h **** #endif
  38:Drivers/CMSIS/Include/cmsis_gcc.h **** 
  39:Drivers/CMSIS/Include/cmsis_gcc.h **** /* CMSIS compiler specific defines */
  40:Drivers/CMSIS/Include/cmsis_gcc.h **** #ifndef   __ASM
  41:Drivers/CMSIS/Include/cmsis_gcc.h ****   #define __ASM                                  __asm
  42:Drivers/CMSIS/Include/cmsis_gcc.h **** #endif
  43:Drivers/CMSIS/Include/cmsis_gcc.h **** #ifndef   __INLINE
  44:Drivers/CMSIS/Include/cmsis_gcc.h ****   #define __INLINE                               inline
  45:Drivers/CMSIS/Include/cmsis_gcc.h **** #endif
  46:Drivers/CMSIS/Include/cmsis_gcc.h **** #ifndef   __STATIC_INLINE
  47:Drivers/CMSIS/Include/cmsis_gcc.h ****   #define __STATIC_INLINE                        static inline
  48:Drivers/CMSIS/Include/cmsis_gcc.h **** #endif
  49:Drivers/CMSIS/Include/cmsis_gcc.h **** #ifndef   __STATIC_FORCEINLINE                 
  50:Drivers/CMSIS/Include/cmsis_gcc.h ****   #define __STATIC_FORCEINLINE                   __attribute__((always_inline)) static inline
  51:Drivers/CMSIS/Include/cmsis_gcc.h **** #endif                                           
  52:Drivers/CMSIS/Include/cmsis_gcc.h **** #ifndef   __NO_RETURN
  53:Drivers/CMSIS/Include/cmsis_gcc.h ****   #define __NO_RETURN                            __attribute__((__noreturn__))
  54:Drivers/CMSIS/Include/cmsis_gcc.h **** #endif
  55:Drivers/CMSIS/Include/cmsis_gcc.h **** #ifndef   __USED
  56:Drivers/CMSIS/Include/cmsis_gcc.h ****   #define __USED                                 __attribute__((used))
  57:Drivers/CMSIS/Include/cmsis_gcc.h **** #endif
  58:Drivers/CMSIS/Include/cmsis_gcc.h **** #ifndef   __WEAK
  59:Drivers/CMSIS/Include/cmsis_gcc.h ****   #define __WEAK                                 __attribute__((weak))
  60:Drivers/CMSIS/Include/cmsis_gcc.h **** #endif
  61:Drivers/CMSIS/Include/cmsis_gcc.h **** #ifndef   __PACKED
  62:Drivers/CMSIS/Include/cmsis_gcc.h ****   #define __PACKED                               __attribute__((packed, aligned(1)))
ARM GAS  /var/folders/n6/c271nzx11xl4r4_m7sqjlt0m0000gn/T//cc9tggTv.s 			page 9


  63:Drivers/CMSIS/Include/cmsis_gcc.h **** #endif
  64:Drivers/CMSIS/Include/cmsis_gcc.h **** #ifndef   __PACKED_STRUCT
  65:Drivers/CMSIS/Include/cmsis_gcc.h ****   #define __PACKED_STRUCT                        struct __attribute__((packed, aligned(1)))
  66:Drivers/CMSIS/Include/cmsis_gcc.h **** #endif
  67:Drivers/CMSIS/Include/cmsis_gcc.h **** #ifndef   __PACKED_UNION
  68:Drivers/CMSIS/Include/cmsis_gcc.h ****   #define __PACKED_UNION                         union __attribute__((packed, aligned(1)))
  69:Drivers/CMSIS/Include/cmsis_gcc.h **** #endif
  70:Drivers/CMSIS/Include/cmsis_gcc.h **** #ifndef   __UNALIGNED_UINT32        /* deprecated */
  71:Drivers/CMSIS/Include/cmsis_gcc.h ****   #pragma GCC diagnostic push
  72:Drivers/CMSIS/Include/cmsis_gcc.h ****   #pragma GCC diagnostic ignored "-Wpacked"
  73:Drivers/CMSIS/Include/cmsis_gcc.h ****   #pragma GCC diagnostic ignored "-Wattributes"
  74:Drivers/CMSIS/Include/cmsis_gcc.h ****   struct __attribute__((packed)) T_UINT32 { uint32_t v; };
  75:Drivers/CMSIS/Include/cmsis_gcc.h ****   #pragma GCC diagnostic pop
  76:Drivers/CMSIS/Include/cmsis_gcc.h ****   #define __UNALIGNED_UINT32(x)                  (((struct T_UINT32 *)(x))->v)
  77:Drivers/CMSIS/Include/cmsis_gcc.h **** #endif
  78:Drivers/CMSIS/Include/cmsis_gcc.h **** #ifndef   __UNALIGNED_UINT16_WRITE
  79:Drivers/CMSIS/Include/cmsis_gcc.h ****   #pragma GCC diagnostic push
  80:Drivers/CMSIS/Include/cmsis_gcc.h ****   #pragma GCC diagnostic ignored "-Wpacked"
  81:Drivers/CMSIS/Include/cmsis_gcc.h ****   #pragma GCC diagnostic ignored "-Wattributes"
  82:Drivers/CMSIS/Include/cmsis_gcc.h ****   __PACKED_STRUCT T_UINT16_WRITE { uint16_t v; };
  83:Drivers/CMSIS/Include/cmsis_gcc.h ****   #pragma GCC diagnostic pop
  84:Drivers/CMSIS/Include/cmsis_gcc.h ****   #define __UNALIGNED_UINT16_WRITE(addr, val)    (void)((((struct T_UINT16_WRITE *)(void *)(addr))-
  85:Drivers/CMSIS/Include/cmsis_gcc.h **** #endif
  86:Drivers/CMSIS/Include/cmsis_gcc.h **** #ifndef   __UNALIGNED_UINT16_READ
  87:Drivers/CMSIS/Include/cmsis_gcc.h ****   #pragma GCC diagnostic push
  88:Drivers/CMSIS/Include/cmsis_gcc.h ****   #pragma GCC diagnostic ignored "-Wpacked"
  89:Drivers/CMSIS/Include/cmsis_gcc.h ****   #pragma GCC diagnostic ignored "-Wattributes"
  90:Drivers/CMSIS/Include/cmsis_gcc.h ****   __PACKED_STRUCT T_UINT16_READ { uint16_t v; };
  91:Drivers/CMSIS/Include/cmsis_gcc.h ****   #pragma GCC diagnostic pop
  92:Drivers/CMSIS/Include/cmsis_gcc.h ****   #define __UNALIGNED_UINT16_READ(addr)          (((const struct T_UINT16_READ *)(const void *)(add
  93:Drivers/CMSIS/Include/cmsis_gcc.h **** #endif
  94:Drivers/CMSIS/Include/cmsis_gcc.h **** #ifndef   __UNALIGNED_UINT32_WRITE
  95:Drivers/CMSIS/Include/cmsis_gcc.h ****   #pragma GCC diagnostic push
  96:Drivers/CMSIS/Include/cmsis_gcc.h ****   #pragma GCC diagnostic ignored "-Wpacked"
  97:Drivers/CMSIS/Include/cmsis_gcc.h ****   #pragma GCC diagnostic ignored "-Wattributes"
  98:Drivers/CMSIS/Include/cmsis_gcc.h ****   __PACKED_STRUCT T_UINT32_WRITE { uint32_t v; };
  99:Drivers/CMSIS/Include/cmsis_gcc.h ****   #pragma GCC diagnostic pop
 100:Drivers/CMSIS/Include/cmsis_gcc.h ****   #define __UNALIGNED_UINT32_WRITE(addr, val)    (void)((((struct T_UINT32_WRITE *)(void *)(addr))-
 101:Drivers/CMSIS/Include/cmsis_gcc.h **** #endif
 102:Drivers/CMSIS/Include/cmsis_gcc.h **** #ifndef   __UNALIGNED_UINT32_READ
 103:Drivers/CMSIS/Include/cmsis_gcc.h ****   #pragma GCC diagnostic push
 104:Drivers/CMSIS/Include/cmsis_gcc.h ****   #pragma GCC diagnostic ignored "-Wpacked"
 105:Drivers/CMSIS/Include/cmsis_gcc.h ****   #pragma GCC diagnostic ignored "-Wattributes"
 106:Drivers/CMSIS/Include/cmsis_gcc.h ****   __PACKED_STRUCT T_UINT32_READ { uint32_t v; };
 107:Drivers/CMSIS/Include/cmsis_gcc.h ****   #pragma GCC diagnostic pop
 108:Drivers/CMSIS/Include/cmsis_gcc.h ****   #define __UNALIGNED_UINT32_READ(addr)          (((const struct T_UINT32_READ *)(const void *)(add
 109:Drivers/CMSIS/Include/cmsis_gcc.h **** #endif
 110:Drivers/CMSIS/Include/cmsis_gcc.h **** #ifndef   __ALIGNED
 111:Drivers/CMSIS/Include/cmsis_gcc.h ****   #define __ALIGNED(x)                           __attribute__((aligned(x)))
 112:Drivers/CMSIS/Include/cmsis_gcc.h **** #endif
 113:Drivers/CMSIS/Include/cmsis_gcc.h **** #ifndef   __RESTRICT
 114:Drivers/CMSIS/Include/cmsis_gcc.h ****   #define __RESTRICT                             __restrict
 115:Drivers/CMSIS/Include/cmsis_gcc.h **** #endif
 116:Drivers/CMSIS/Include/cmsis_gcc.h **** 
 117:Drivers/CMSIS/Include/cmsis_gcc.h **** 
 118:Drivers/CMSIS/Include/cmsis_gcc.h **** /* ###########################  Core Function Access  ########################### */
 119:Drivers/CMSIS/Include/cmsis_gcc.h **** /** \ingroup  CMSIS_Core_FunctionInterface
ARM GAS  /var/folders/n6/c271nzx11xl4r4_m7sqjlt0m0000gn/T//cc9tggTv.s 			page 10


 120:Drivers/CMSIS/Include/cmsis_gcc.h ****     \defgroup CMSIS_Core_RegAccFunctions CMSIS Core Register Access Functions
 121:Drivers/CMSIS/Include/cmsis_gcc.h ****   @{
 122:Drivers/CMSIS/Include/cmsis_gcc.h ****  */
 123:Drivers/CMSIS/Include/cmsis_gcc.h **** 
 124:Drivers/CMSIS/Include/cmsis_gcc.h **** /**
 125:Drivers/CMSIS/Include/cmsis_gcc.h ****   \brief   Enable IRQ Interrupts
 126:Drivers/CMSIS/Include/cmsis_gcc.h ****   \details Enables IRQ interrupts by clearing the I-bit in the CPSR.
 127:Drivers/CMSIS/Include/cmsis_gcc.h ****            Can only be executed in Privileged modes.
 128:Drivers/CMSIS/Include/cmsis_gcc.h ****  */
 129:Drivers/CMSIS/Include/cmsis_gcc.h **** __STATIC_FORCEINLINE void __enable_irq(void)
 130:Drivers/CMSIS/Include/cmsis_gcc.h **** {
 131:Drivers/CMSIS/Include/cmsis_gcc.h ****   __ASM volatile ("cpsie i" : : : "memory");
 132:Drivers/CMSIS/Include/cmsis_gcc.h **** }
 133:Drivers/CMSIS/Include/cmsis_gcc.h **** 
 134:Drivers/CMSIS/Include/cmsis_gcc.h **** 
 135:Drivers/CMSIS/Include/cmsis_gcc.h **** /**
 136:Drivers/CMSIS/Include/cmsis_gcc.h ****   \brief   Disable IRQ Interrupts
 137:Drivers/CMSIS/Include/cmsis_gcc.h ****   \details Disables IRQ interrupts by setting the I-bit in the CPSR.
 138:Drivers/CMSIS/Include/cmsis_gcc.h ****            Can only be executed in Privileged modes.
 139:Drivers/CMSIS/Include/cmsis_gcc.h ****  */
 140:Drivers/CMSIS/Include/cmsis_gcc.h **** __STATIC_FORCEINLINE void __disable_irq(void)
 141:Drivers/CMSIS/Include/cmsis_gcc.h **** {
 142:Drivers/CMSIS/Include/cmsis_gcc.h ****   __ASM volatile ("cpsid i" : : : "memory");
 143:Drivers/CMSIS/Include/cmsis_gcc.h **** }
 144:Drivers/CMSIS/Include/cmsis_gcc.h **** 
 145:Drivers/CMSIS/Include/cmsis_gcc.h **** 
 146:Drivers/CMSIS/Include/cmsis_gcc.h **** /**
 147:Drivers/CMSIS/Include/cmsis_gcc.h ****   \brief   Get Control Register
 148:Drivers/CMSIS/Include/cmsis_gcc.h ****   \details Returns the content of the Control Register.
 149:Drivers/CMSIS/Include/cmsis_gcc.h ****   \return               Control Register value
 150:Drivers/CMSIS/Include/cmsis_gcc.h ****  */
 151:Drivers/CMSIS/Include/cmsis_gcc.h **** __STATIC_FORCEINLINE uint32_t __get_CONTROL(void)
 152:Drivers/CMSIS/Include/cmsis_gcc.h **** {
 153:Drivers/CMSIS/Include/cmsis_gcc.h ****   uint32_t result;
 154:Drivers/CMSIS/Include/cmsis_gcc.h **** 
 155:Drivers/CMSIS/Include/cmsis_gcc.h ****   __ASM volatile ("MRS %0, control" : "=r" (result) );
 156:Drivers/CMSIS/Include/cmsis_gcc.h ****   return(result);
 157:Drivers/CMSIS/Include/cmsis_gcc.h **** }
 158:Drivers/CMSIS/Include/cmsis_gcc.h **** 
 159:Drivers/CMSIS/Include/cmsis_gcc.h **** 
 160:Drivers/CMSIS/Include/cmsis_gcc.h **** #if (defined (__ARM_FEATURE_CMSE ) && (__ARM_FEATURE_CMSE == 3))
 161:Drivers/CMSIS/Include/cmsis_gcc.h **** /**
 162:Drivers/CMSIS/Include/cmsis_gcc.h ****   \brief   Get Control Register (non-secure)
 163:Drivers/CMSIS/Include/cmsis_gcc.h ****   \details Returns the content of the non-secure Control Register when in secure mode.
 164:Drivers/CMSIS/Include/cmsis_gcc.h ****   \return               non-secure Control Register value
 165:Drivers/CMSIS/Include/cmsis_gcc.h ****  */
 166:Drivers/CMSIS/Include/cmsis_gcc.h **** __STATIC_FORCEINLINE uint32_t __TZ_get_CONTROL_NS(void)
 167:Drivers/CMSIS/Include/cmsis_gcc.h **** {
 168:Drivers/CMSIS/Include/cmsis_gcc.h ****   uint32_t result;
 169:Drivers/CMSIS/Include/cmsis_gcc.h **** 
 170:Drivers/CMSIS/Include/cmsis_gcc.h ****   __ASM volatile ("MRS %0, control_ns" : "=r" (result) );
 171:Drivers/CMSIS/Include/cmsis_gcc.h ****   return(result);
 172:Drivers/CMSIS/Include/cmsis_gcc.h **** }
 173:Drivers/CMSIS/Include/cmsis_gcc.h **** #endif
 174:Drivers/CMSIS/Include/cmsis_gcc.h **** 
 175:Drivers/CMSIS/Include/cmsis_gcc.h **** 
 176:Drivers/CMSIS/Include/cmsis_gcc.h **** /**
ARM GAS  /var/folders/n6/c271nzx11xl4r4_m7sqjlt0m0000gn/T//cc9tggTv.s 			page 11


 177:Drivers/CMSIS/Include/cmsis_gcc.h ****   \brief   Set Control Register
 178:Drivers/CMSIS/Include/cmsis_gcc.h ****   \details Writes the given value to the Control Register.
 179:Drivers/CMSIS/Include/cmsis_gcc.h ****   \param [in]    control  Control Register value to set
 180:Drivers/CMSIS/Include/cmsis_gcc.h ****  */
 181:Drivers/CMSIS/Include/cmsis_gcc.h **** __STATIC_FORCEINLINE void __set_CONTROL(uint32_t control)
 182:Drivers/CMSIS/Include/cmsis_gcc.h **** {
 183:Drivers/CMSIS/Include/cmsis_gcc.h ****   __ASM volatile ("MSR control, %0" : : "r" (control) : "memory");
 184:Drivers/CMSIS/Include/cmsis_gcc.h **** }
 185:Drivers/CMSIS/Include/cmsis_gcc.h **** 
 186:Drivers/CMSIS/Include/cmsis_gcc.h **** 
 187:Drivers/CMSIS/Include/cmsis_gcc.h **** #if (defined (__ARM_FEATURE_CMSE ) && (__ARM_FEATURE_CMSE == 3))
 188:Drivers/CMSIS/Include/cmsis_gcc.h **** /**
 189:Drivers/CMSIS/Include/cmsis_gcc.h ****   \brief   Set Control Register (non-secure)
 190:Drivers/CMSIS/Include/cmsis_gcc.h ****   \details Writes the given value to the non-secure Control Register when in secure state.
 191:Drivers/CMSIS/Include/cmsis_gcc.h ****   \param [in]    control  Control Register value to set
 192:Drivers/CMSIS/Include/cmsis_gcc.h ****  */
 193:Drivers/CMSIS/Include/cmsis_gcc.h **** __STATIC_FORCEINLINE void __TZ_set_CONTROL_NS(uint32_t control)
 194:Drivers/CMSIS/Include/cmsis_gcc.h **** {
 195:Drivers/CMSIS/Include/cmsis_gcc.h ****   __ASM volatile ("MSR control_ns, %0" : : "r" (control) : "memory");
 196:Drivers/CMSIS/Include/cmsis_gcc.h **** }
 197:Drivers/CMSIS/Include/cmsis_gcc.h **** #endif
 198:Drivers/CMSIS/Include/cmsis_gcc.h **** 
 199:Drivers/CMSIS/Include/cmsis_gcc.h **** 
 200:Drivers/CMSIS/Include/cmsis_gcc.h **** /**
 201:Drivers/CMSIS/Include/cmsis_gcc.h ****   \brief   Get IPSR Register
 202:Drivers/CMSIS/Include/cmsis_gcc.h ****   \details Returns the content of the IPSR Register.
 203:Drivers/CMSIS/Include/cmsis_gcc.h ****   \return               IPSR Register value
 204:Drivers/CMSIS/Include/cmsis_gcc.h ****  */
 205:Drivers/CMSIS/Include/cmsis_gcc.h **** __STATIC_FORCEINLINE uint32_t __get_IPSR(void)
 206:Drivers/CMSIS/Include/cmsis_gcc.h **** {
 207:Drivers/CMSIS/Include/cmsis_gcc.h ****   uint32_t result;
 208:Drivers/CMSIS/Include/cmsis_gcc.h **** 
 209:Drivers/CMSIS/Include/cmsis_gcc.h ****   __ASM volatile ("MRS %0, ipsr" : "=r" (result) );
 210:Drivers/CMSIS/Include/cmsis_gcc.h ****   return(result);
 211:Drivers/CMSIS/Include/cmsis_gcc.h **** }
 212:Drivers/CMSIS/Include/cmsis_gcc.h **** 
 213:Drivers/CMSIS/Include/cmsis_gcc.h **** 
 214:Drivers/CMSIS/Include/cmsis_gcc.h **** /**
 215:Drivers/CMSIS/Include/cmsis_gcc.h ****   \brief   Get APSR Register
 216:Drivers/CMSIS/Include/cmsis_gcc.h ****   \details Returns the content of the APSR Register.
 217:Drivers/CMSIS/Include/cmsis_gcc.h ****   \return               APSR Register value
 218:Drivers/CMSIS/Include/cmsis_gcc.h ****  */
 219:Drivers/CMSIS/Include/cmsis_gcc.h **** __STATIC_FORCEINLINE uint32_t __get_APSR(void)
 220:Drivers/CMSIS/Include/cmsis_gcc.h **** {
 221:Drivers/CMSIS/Include/cmsis_gcc.h ****   uint32_t result;
 222:Drivers/CMSIS/Include/cmsis_gcc.h **** 
 223:Drivers/CMSIS/Include/cmsis_gcc.h ****   __ASM volatile ("MRS %0, apsr" : "=r" (result) );
 224:Drivers/CMSIS/Include/cmsis_gcc.h ****   return(result);
 225:Drivers/CMSIS/Include/cmsis_gcc.h **** }
 226:Drivers/CMSIS/Include/cmsis_gcc.h **** 
 227:Drivers/CMSIS/Include/cmsis_gcc.h **** 
 228:Drivers/CMSIS/Include/cmsis_gcc.h **** /**
 229:Drivers/CMSIS/Include/cmsis_gcc.h ****   \brief   Get xPSR Register
 230:Drivers/CMSIS/Include/cmsis_gcc.h ****   \details Returns the content of the xPSR Register.
 231:Drivers/CMSIS/Include/cmsis_gcc.h ****   \return               xPSR Register value
 232:Drivers/CMSIS/Include/cmsis_gcc.h ****  */
 233:Drivers/CMSIS/Include/cmsis_gcc.h **** __STATIC_FORCEINLINE uint32_t __get_xPSR(void)
ARM GAS  /var/folders/n6/c271nzx11xl4r4_m7sqjlt0m0000gn/T//cc9tggTv.s 			page 12


 234:Drivers/CMSIS/Include/cmsis_gcc.h **** {
 235:Drivers/CMSIS/Include/cmsis_gcc.h ****   uint32_t result;
 236:Drivers/CMSIS/Include/cmsis_gcc.h **** 
 237:Drivers/CMSIS/Include/cmsis_gcc.h ****   __ASM volatile ("MRS %0, xpsr" : "=r" (result) );
 238:Drivers/CMSIS/Include/cmsis_gcc.h ****   return(result);
 239:Drivers/CMSIS/Include/cmsis_gcc.h **** }
 240:Drivers/CMSIS/Include/cmsis_gcc.h **** 
 241:Drivers/CMSIS/Include/cmsis_gcc.h **** 
 242:Drivers/CMSIS/Include/cmsis_gcc.h **** /**
 243:Drivers/CMSIS/Include/cmsis_gcc.h ****   \brief   Get Process Stack Pointer
 244:Drivers/CMSIS/Include/cmsis_gcc.h ****   \details Returns the current value of the Process Stack Pointer (PSP).
 245:Drivers/CMSIS/Include/cmsis_gcc.h ****   \return               PSP Register value
 246:Drivers/CMSIS/Include/cmsis_gcc.h ****  */
 247:Drivers/CMSIS/Include/cmsis_gcc.h **** __STATIC_FORCEINLINE uint32_t __get_PSP(void)
 248:Drivers/CMSIS/Include/cmsis_gcc.h **** {
 249:Drivers/CMSIS/Include/cmsis_gcc.h ****   uint32_t result;
 250:Drivers/CMSIS/Include/cmsis_gcc.h **** 
 251:Drivers/CMSIS/Include/cmsis_gcc.h ****   __ASM volatile ("MRS %0, psp"  : "=r" (result) );
 252:Drivers/CMSIS/Include/cmsis_gcc.h ****   return(result);
 253:Drivers/CMSIS/Include/cmsis_gcc.h **** }
 254:Drivers/CMSIS/Include/cmsis_gcc.h **** 
 255:Drivers/CMSIS/Include/cmsis_gcc.h **** 
 256:Drivers/CMSIS/Include/cmsis_gcc.h **** #if (defined (__ARM_FEATURE_CMSE ) && (__ARM_FEATURE_CMSE == 3))
 257:Drivers/CMSIS/Include/cmsis_gcc.h **** /**
 258:Drivers/CMSIS/Include/cmsis_gcc.h ****   \brief   Get Process Stack Pointer (non-secure)
 259:Drivers/CMSIS/Include/cmsis_gcc.h ****   \details Returns the current value of the non-secure Process Stack Pointer (PSP) when in secure s
 260:Drivers/CMSIS/Include/cmsis_gcc.h ****   \return               PSP Register value
 261:Drivers/CMSIS/Include/cmsis_gcc.h ****  */
 262:Drivers/CMSIS/Include/cmsis_gcc.h **** __STATIC_FORCEINLINE uint32_t __TZ_get_PSP_NS(void)
 263:Drivers/CMSIS/Include/cmsis_gcc.h **** {
 264:Drivers/CMSIS/Include/cmsis_gcc.h ****   uint32_t result;
 265:Drivers/CMSIS/Include/cmsis_gcc.h **** 
 266:Drivers/CMSIS/Include/cmsis_gcc.h ****   __ASM volatile ("MRS %0, psp_ns"  : "=r" (result) );
 267:Drivers/CMSIS/Include/cmsis_gcc.h ****   return(result);
 268:Drivers/CMSIS/Include/cmsis_gcc.h **** }
 269:Drivers/CMSIS/Include/cmsis_gcc.h **** #endif
 270:Drivers/CMSIS/Include/cmsis_gcc.h **** 
 271:Drivers/CMSIS/Include/cmsis_gcc.h **** 
 272:Drivers/CMSIS/Include/cmsis_gcc.h **** /**
 273:Drivers/CMSIS/Include/cmsis_gcc.h ****   \brief   Set Process Stack Pointer
 274:Drivers/CMSIS/Include/cmsis_gcc.h ****   \details Assigns the given value to the Process Stack Pointer (PSP).
 275:Drivers/CMSIS/Include/cmsis_gcc.h ****   \param [in]    topOfProcStack  Process Stack Pointer value to set
 276:Drivers/CMSIS/Include/cmsis_gcc.h ****  */
 277:Drivers/CMSIS/Include/cmsis_gcc.h **** __STATIC_FORCEINLINE void __set_PSP(uint32_t topOfProcStack)
 278:Drivers/CMSIS/Include/cmsis_gcc.h **** {
 279:Drivers/CMSIS/Include/cmsis_gcc.h ****   __ASM volatile ("MSR psp, %0" : : "r" (topOfProcStack) : );
 280:Drivers/CMSIS/Include/cmsis_gcc.h **** }
 281:Drivers/CMSIS/Include/cmsis_gcc.h **** 
 282:Drivers/CMSIS/Include/cmsis_gcc.h **** 
 283:Drivers/CMSIS/Include/cmsis_gcc.h **** #if (defined (__ARM_FEATURE_CMSE ) && (__ARM_FEATURE_CMSE == 3))
 284:Drivers/CMSIS/Include/cmsis_gcc.h **** /**
 285:Drivers/CMSIS/Include/cmsis_gcc.h ****   \brief   Set Process Stack Pointer (non-secure)
 286:Drivers/CMSIS/Include/cmsis_gcc.h ****   \details Assigns the given value to the non-secure Process Stack Pointer (PSP) when in secure sta
 287:Drivers/CMSIS/Include/cmsis_gcc.h ****   \param [in]    topOfProcStack  Process Stack Pointer value to set
 288:Drivers/CMSIS/Include/cmsis_gcc.h ****  */
 289:Drivers/CMSIS/Include/cmsis_gcc.h **** __STATIC_FORCEINLINE void __TZ_set_PSP_NS(uint32_t topOfProcStack)
 290:Drivers/CMSIS/Include/cmsis_gcc.h **** {
ARM GAS  /var/folders/n6/c271nzx11xl4r4_m7sqjlt0m0000gn/T//cc9tggTv.s 			page 13


 291:Drivers/CMSIS/Include/cmsis_gcc.h ****   __ASM volatile ("MSR psp_ns, %0" : : "r" (topOfProcStack) : );
 292:Drivers/CMSIS/Include/cmsis_gcc.h **** }
 293:Drivers/CMSIS/Include/cmsis_gcc.h **** #endif
 294:Drivers/CMSIS/Include/cmsis_gcc.h **** 
 295:Drivers/CMSIS/Include/cmsis_gcc.h **** 
 296:Drivers/CMSIS/Include/cmsis_gcc.h **** /**
 297:Drivers/CMSIS/Include/cmsis_gcc.h ****   \brief   Get Main Stack Pointer
 298:Drivers/CMSIS/Include/cmsis_gcc.h ****   \details Returns the current value of the Main Stack Pointer (MSP).
 299:Drivers/CMSIS/Include/cmsis_gcc.h ****   \return               MSP Register value
 300:Drivers/CMSIS/Include/cmsis_gcc.h ****  */
 301:Drivers/CMSIS/Include/cmsis_gcc.h **** __STATIC_FORCEINLINE uint32_t __get_MSP(void)
 302:Drivers/CMSIS/Include/cmsis_gcc.h **** {
 303:Drivers/CMSIS/Include/cmsis_gcc.h ****   uint32_t result;
 304:Drivers/CMSIS/Include/cmsis_gcc.h **** 
 305:Drivers/CMSIS/Include/cmsis_gcc.h ****   __ASM volatile ("MRS %0, msp" : "=r" (result) );
 306:Drivers/CMSIS/Include/cmsis_gcc.h ****   return(result);
 307:Drivers/CMSIS/Include/cmsis_gcc.h **** }
 308:Drivers/CMSIS/Include/cmsis_gcc.h **** 
 309:Drivers/CMSIS/Include/cmsis_gcc.h **** 
 310:Drivers/CMSIS/Include/cmsis_gcc.h **** #if (defined (__ARM_FEATURE_CMSE ) && (__ARM_FEATURE_CMSE == 3))
 311:Drivers/CMSIS/Include/cmsis_gcc.h **** /**
 312:Drivers/CMSIS/Include/cmsis_gcc.h ****   \brief   Get Main Stack Pointer (non-secure)
 313:Drivers/CMSIS/Include/cmsis_gcc.h ****   \details Returns the current value of the non-secure Main Stack Pointer (MSP) when in secure stat
 314:Drivers/CMSIS/Include/cmsis_gcc.h ****   \return               MSP Register value
 315:Drivers/CMSIS/Include/cmsis_gcc.h ****  */
 316:Drivers/CMSIS/Include/cmsis_gcc.h **** __STATIC_FORCEINLINE uint32_t __TZ_get_MSP_NS(void)
 317:Drivers/CMSIS/Include/cmsis_gcc.h **** {
 318:Drivers/CMSIS/Include/cmsis_gcc.h ****   uint32_t result;
 319:Drivers/CMSIS/Include/cmsis_gcc.h **** 
 320:Drivers/CMSIS/Include/cmsis_gcc.h ****   __ASM volatile ("MRS %0, msp_ns" : "=r" (result) );
 321:Drivers/CMSIS/Include/cmsis_gcc.h ****   return(result);
 322:Drivers/CMSIS/Include/cmsis_gcc.h **** }
 323:Drivers/CMSIS/Include/cmsis_gcc.h **** #endif
 324:Drivers/CMSIS/Include/cmsis_gcc.h **** 
 325:Drivers/CMSIS/Include/cmsis_gcc.h **** 
 326:Drivers/CMSIS/Include/cmsis_gcc.h **** /**
 327:Drivers/CMSIS/Include/cmsis_gcc.h ****   \brief   Set Main Stack Pointer
 328:Drivers/CMSIS/Include/cmsis_gcc.h ****   \details Assigns the given value to the Main Stack Pointer (MSP).
 329:Drivers/CMSIS/Include/cmsis_gcc.h ****   \param [in]    topOfMainStack  Main Stack Pointer value to set
 330:Drivers/CMSIS/Include/cmsis_gcc.h ****  */
 331:Drivers/CMSIS/Include/cmsis_gcc.h **** __STATIC_FORCEINLINE void __set_MSP(uint32_t topOfMainStack)
 332:Drivers/CMSIS/Include/cmsis_gcc.h **** {
 333:Drivers/CMSIS/Include/cmsis_gcc.h ****   __ASM volatile ("MSR msp, %0" : : "r" (topOfMainStack) : );
 334:Drivers/CMSIS/Include/cmsis_gcc.h **** }
 335:Drivers/CMSIS/Include/cmsis_gcc.h **** 
 336:Drivers/CMSIS/Include/cmsis_gcc.h **** 
 337:Drivers/CMSIS/Include/cmsis_gcc.h **** #if (defined (__ARM_FEATURE_CMSE ) && (__ARM_FEATURE_CMSE == 3))
 338:Drivers/CMSIS/Include/cmsis_gcc.h **** /**
 339:Drivers/CMSIS/Include/cmsis_gcc.h ****   \brief   Set Main Stack Pointer (non-secure)
 340:Drivers/CMSIS/Include/cmsis_gcc.h ****   \details Assigns the given value to the non-secure Main Stack Pointer (MSP) when in secure state.
 341:Drivers/CMSIS/Include/cmsis_gcc.h ****   \param [in]    topOfMainStack  Main Stack Pointer value to set
 342:Drivers/CMSIS/Include/cmsis_gcc.h ****  */
 343:Drivers/CMSIS/Include/cmsis_gcc.h **** __STATIC_FORCEINLINE void __TZ_set_MSP_NS(uint32_t topOfMainStack)
 344:Drivers/CMSIS/Include/cmsis_gcc.h **** {
 345:Drivers/CMSIS/Include/cmsis_gcc.h ****   __ASM volatile ("MSR msp_ns, %0" : : "r" (topOfMainStack) : );
 346:Drivers/CMSIS/Include/cmsis_gcc.h **** }
 347:Drivers/CMSIS/Include/cmsis_gcc.h **** #endif
ARM GAS  /var/folders/n6/c271nzx11xl4r4_m7sqjlt0m0000gn/T//cc9tggTv.s 			page 14


 348:Drivers/CMSIS/Include/cmsis_gcc.h **** 
 349:Drivers/CMSIS/Include/cmsis_gcc.h **** 
 350:Drivers/CMSIS/Include/cmsis_gcc.h **** #if (defined (__ARM_FEATURE_CMSE ) && (__ARM_FEATURE_CMSE == 3))
 351:Drivers/CMSIS/Include/cmsis_gcc.h **** /**
 352:Drivers/CMSIS/Include/cmsis_gcc.h ****   \brief   Get Stack Pointer (non-secure)
 353:Drivers/CMSIS/Include/cmsis_gcc.h ****   \details Returns the current value of the non-secure Stack Pointer (SP) when in secure state.
 354:Drivers/CMSIS/Include/cmsis_gcc.h ****   \return               SP Register value
 355:Drivers/CMSIS/Include/cmsis_gcc.h ****  */
 356:Drivers/CMSIS/Include/cmsis_gcc.h **** __STATIC_FORCEINLINE uint32_t __TZ_get_SP_NS(void)
 357:Drivers/CMSIS/Include/cmsis_gcc.h **** {
 358:Drivers/CMSIS/Include/cmsis_gcc.h ****   uint32_t result;
 359:Drivers/CMSIS/Include/cmsis_gcc.h **** 
 360:Drivers/CMSIS/Include/cmsis_gcc.h ****   __ASM volatile ("MRS %0, sp_ns" : "=r" (result) );
 361:Drivers/CMSIS/Include/cmsis_gcc.h ****   return(result);
 362:Drivers/CMSIS/Include/cmsis_gcc.h **** }
 363:Drivers/CMSIS/Include/cmsis_gcc.h **** 
 364:Drivers/CMSIS/Include/cmsis_gcc.h **** 
 365:Drivers/CMSIS/Include/cmsis_gcc.h **** /**
 366:Drivers/CMSIS/Include/cmsis_gcc.h ****   \brief   Set Stack Pointer (non-secure)
 367:Drivers/CMSIS/Include/cmsis_gcc.h ****   \details Assigns the given value to the non-secure Stack Pointer (SP) when in secure state.
 368:Drivers/CMSIS/Include/cmsis_gcc.h ****   \param [in]    topOfStack  Stack Pointer value to set
 369:Drivers/CMSIS/Include/cmsis_gcc.h ****  */
 370:Drivers/CMSIS/Include/cmsis_gcc.h **** __STATIC_FORCEINLINE void __TZ_set_SP_NS(uint32_t topOfStack)
 371:Drivers/CMSIS/Include/cmsis_gcc.h **** {
 372:Drivers/CMSIS/Include/cmsis_gcc.h ****   __ASM volatile ("MSR sp_ns, %0" : : "r" (topOfStack) : );
 373:Drivers/CMSIS/Include/cmsis_gcc.h **** }
 374:Drivers/CMSIS/Include/cmsis_gcc.h **** #endif
 375:Drivers/CMSIS/Include/cmsis_gcc.h **** 
 376:Drivers/CMSIS/Include/cmsis_gcc.h **** 
 377:Drivers/CMSIS/Include/cmsis_gcc.h **** /**
 378:Drivers/CMSIS/Include/cmsis_gcc.h ****   \brief   Get Priority Mask
 379:Drivers/CMSIS/Include/cmsis_gcc.h ****   \details Returns the current state of the priority mask bit from the Priority Mask Register.
 380:Drivers/CMSIS/Include/cmsis_gcc.h ****   \return               Priority Mask value
 381:Drivers/CMSIS/Include/cmsis_gcc.h ****  */
 382:Drivers/CMSIS/Include/cmsis_gcc.h **** __STATIC_FORCEINLINE uint32_t __get_PRIMASK(void)
 383:Drivers/CMSIS/Include/cmsis_gcc.h **** {
 384:Drivers/CMSIS/Include/cmsis_gcc.h ****   uint32_t result;
 385:Drivers/CMSIS/Include/cmsis_gcc.h **** 
 386:Drivers/CMSIS/Include/cmsis_gcc.h ****   __ASM volatile ("MRS %0, primask" : "=r" (result) :: "memory");
 387:Drivers/CMSIS/Include/cmsis_gcc.h ****   return(result);
 388:Drivers/CMSIS/Include/cmsis_gcc.h **** }
 389:Drivers/CMSIS/Include/cmsis_gcc.h **** 
 390:Drivers/CMSIS/Include/cmsis_gcc.h **** 
 391:Drivers/CMSIS/Include/cmsis_gcc.h **** #if (defined (__ARM_FEATURE_CMSE ) && (__ARM_FEATURE_CMSE == 3))
 392:Drivers/CMSIS/Include/cmsis_gcc.h **** /**
 393:Drivers/CMSIS/Include/cmsis_gcc.h ****   \brief   Get Priority Mask (non-secure)
 394:Drivers/CMSIS/Include/cmsis_gcc.h ****   \details Returns the current state of the non-secure priority mask bit from the Priority Mask Reg
 395:Drivers/CMSIS/Include/cmsis_gcc.h ****   \return               Priority Mask value
 396:Drivers/CMSIS/Include/cmsis_gcc.h ****  */
 397:Drivers/CMSIS/Include/cmsis_gcc.h **** __STATIC_FORCEINLINE uint32_t __TZ_get_PRIMASK_NS(void)
 398:Drivers/CMSIS/Include/cmsis_gcc.h **** {
 399:Drivers/CMSIS/Include/cmsis_gcc.h ****   uint32_t result;
 400:Drivers/CMSIS/Include/cmsis_gcc.h **** 
 401:Drivers/CMSIS/Include/cmsis_gcc.h ****   __ASM volatile ("MRS %0, primask_ns" : "=r" (result) :: "memory");
 402:Drivers/CMSIS/Include/cmsis_gcc.h ****   return(result);
 403:Drivers/CMSIS/Include/cmsis_gcc.h **** }
 404:Drivers/CMSIS/Include/cmsis_gcc.h **** #endif
ARM GAS  /var/folders/n6/c271nzx11xl4r4_m7sqjlt0m0000gn/T//cc9tggTv.s 			page 15


 405:Drivers/CMSIS/Include/cmsis_gcc.h **** 
 406:Drivers/CMSIS/Include/cmsis_gcc.h **** 
 407:Drivers/CMSIS/Include/cmsis_gcc.h **** /**
 408:Drivers/CMSIS/Include/cmsis_gcc.h ****   \brief   Set Priority Mask
 409:Drivers/CMSIS/Include/cmsis_gcc.h ****   \details Assigns the given value to the Priority Mask Register.
 410:Drivers/CMSIS/Include/cmsis_gcc.h ****   \param [in]    priMask  Priority Mask
 411:Drivers/CMSIS/Include/cmsis_gcc.h ****  */
 412:Drivers/CMSIS/Include/cmsis_gcc.h **** __STATIC_FORCEINLINE void __set_PRIMASK(uint32_t priMask)
 413:Drivers/CMSIS/Include/cmsis_gcc.h **** {
 414:Drivers/CMSIS/Include/cmsis_gcc.h ****   __ASM volatile ("MSR primask, %0" : : "r" (priMask) : "memory");
 415:Drivers/CMSIS/Include/cmsis_gcc.h **** }
 416:Drivers/CMSIS/Include/cmsis_gcc.h **** 
 417:Drivers/CMSIS/Include/cmsis_gcc.h **** 
 418:Drivers/CMSIS/Include/cmsis_gcc.h **** #if (defined (__ARM_FEATURE_CMSE ) && (__ARM_FEATURE_CMSE == 3))
 419:Drivers/CMSIS/Include/cmsis_gcc.h **** /**
 420:Drivers/CMSIS/Include/cmsis_gcc.h ****   \brief   Set Priority Mask (non-secure)
 421:Drivers/CMSIS/Include/cmsis_gcc.h ****   \details Assigns the given value to the non-secure Priority Mask Register when in secure state.
 422:Drivers/CMSIS/Include/cmsis_gcc.h ****   \param [in]    priMask  Priority Mask
 423:Drivers/CMSIS/Include/cmsis_gcc.h ****  */
 424:Drivers/CMSIS/Include/cmsis_gcc.h **** __STATIC_FORCEINLINE void __TZ_set_PRIMASK_NS(uint32_t priMask)
 425:Drivers/CMSIS/Include/cmsis_gcc.h **** {
 426:Drivers/CMSIS/Include/cmsis_gcc.h ****   __ASM volatile ("MSR primask_ns, %0" : : "r" (priMask) : "memory");
 427:Drivers/CMSIS/Include/cmsis_gcc.h **** }
 428:Drivers/CMSIS/Include/cmsis_gcc.h **** #endif
 429:Drivers/CMSIS/Include/cmsis_gcc.h **** 
 430:Drivers/CMSIS/Include/cmsis_gcc.h **** 
 431:Drivers/CMSIS/Include/cmsis_gcc.h **** #if ((defined (__ARM_ARCH_7M__      ) && (__ARM_ARCH_7M__      == 1)) || \
 432:Drivers/CMSIS/Include/cmsis_gcc.h ****      (defined (__ARM_ARCH_7EM__     ) && (__ARM_ARCH_7EM__     == 1)) || \
 433:Drivers/CMSIS/Include/cmsis_gcc.h ****      (defined (__ARM_ARCH_8M_MAIN__ ) && (__ARM_ARCH_8M_MAIN__ == 1))    )
 434:Drivers/CMSIS/Include/cmsis_gcc.h **** /**
 435:Drivers/CMSIS/Include/cmsis_gcc.h ****   \brief   Enable FIQ
 436:Drivers/CMSIS/Include/cmsis_gcc.h ****   \details Enables FIQ interrupts by clearing the F-bit in the CPSR.
 437:Drivers/CMSIS/Include/cmsis_gcc.h ****            Can only be executed in Privileged modes.
 438:Drivers/CMSIS/Include/cmsis_gcc.h ****  */
 439:Drivers/CMSIS/Include/cmsis_gcc.h **** __STATIC_FORCEINLINE void __enable_fault_irq(void)
 440:Drivers/CMSIS/Include/cmsis_gcc.h **** {
 441:Drivers/CMSIS/Include/cmsis_gcc.h ****   __ASM volatile ("cpsie f" : : : "memory");
 442:Drivers/CMSIS/Include/cmsis_gcc.h **** }
 443:Drivers/CMSIS/Include/cmsis_gcc.h **** 
 444:Drivers/CMSIS/Include/cmsis_gcc.h **** 
 445:Drivers/CMSIS/Include/cmsis_gcc.h **** /**
 446:Drivers/CMSIS/Include/cmsis_gcc.h ****   \brief   Disable FIQ
 447:Drivers/CMSIS/Include/cmsis_gcc.h ****   \details Disables FIQ interrupts by setting the F-bit in the CPSR.
 448:Drivers/CMSIS/Include/cmsis_gcc.h ****            Can only be executed in Privileged modes.
 449:Drivers/CMSIS/Include/cmsis_gcc.h ****  */
 450:Drivers/CMSIS/Include/cmsis_gcc.h **** __STATIC_FORCEINLINE void __disable_fault_irq(void)
 451:Drivers/CMSIS/Include/cmsis_gcc.h **** {
 452:Drivers/CMSIS/Include/cmsis_gcc.h ****   __ASM volatile ("cpsid f" : : : "memory");
 453:Drivers/CMSIS/Include/cmsis_gcc.h **** }
 454:Drivers/CMSIS/Include/cmsis_gcc.h **** 
 455:Drivers/CMSIS/Include/cmsis_gcc.h **** 
 456:Drivers/CMSIS/Include/cmsis_gcc.h **** /**
 457:Drivers/CMSIS/Include/cmsis_gcc.h ****   \brief   Get Base Priority
 458:Drivers/CMSIS/Include/cmsis_gcc.h ****   \details Returns the current value of the Base Priority register.
 459:Drivers/CMSIS/Include/cmsis_gcc.h ****   \return               Base Priority register value
 460:Drivers/CMSIS/Include/cmsis_gcc.h ****  */
 461:Drivers/CMSIS/Include/cmsis_gcc.h **** __STATIC_FORCEINLINE uint32_t __get_BASEPRI(void)
ARM GAS  /var/folders/n6/c271nzx11xl4r4_m7sqjlt0m0000gn/T//cc9tggTv.s 			page 16


 462:Drivers/CMSIS/Include/cmsis_gcc.h **** {
 463:Drivers/CMSIS/Include/cmsis_gcc.h ****   uint32_t result;
 464:Drivers/CMSIS/Include/cmsis_gcc.h **** 
 465:Drivers/CMSIS/Include/cmsis_gcc.h ****   __ASM volatile ("MRS %0, basepri" : "=r" (result) );
 466:Drivers/CMSIS/Include/cmsis_gcc.h ****   return(result);
 467:Drivers/CMSIS/Include/cmsis_gcc.h **** }
 468:Drivers/CMSIS/Include/cmsis_gcc.h **** 
 469:Drivers/CMSIS/Include/cmsis_gcc.h **** 
 470:Drivers/CMSIS/Include/cmsis_gcc.h **** #if (defined (__ARM_FEATURE_CMSE ) && (__ARM_FEATURE_CMSE == 3))
 471:Drivers/CMSIS/Include/cmsis_gcc.h **** /**
 472:Drivers/CMSIS/Include/cmsis_gcc.h ****   \brief   Get Base Priority (non-secure)
 473:Drivers/CMSIS/Include/cmsis_gcc.h ****   \details Returns the current value of the non-secure Base Priority register when in secure state.
 474:Drivers/CMSIS/Include/cmsis_gcc.h ****   \return               Base Priority register value
 475:Drivers/CMSIS/Include/cmsis_gcc.h ****  */
 476:Drivers/CMSIS/Include/cmsis_gcc.h **** __STATIC_FORCEINLINE uint32_t __TZ_get_BASEPRI_NS(void)
 477:Drivers/CMSIS/Include/cmsis_gcc.h **** {
 478:Drivers/CMSIS/Include/cmsis_gcc.h ****   uint32_t result;
 479:Drivers/CMSIS/Include/cmsis_gcc.h **** 
 480:Drivers/CMSIS/Include/cmsis_gcc.h ****   __ASM volatile ("MRS %0, basepri_ns" : "=r" (result) );
 481:Drivers/CMSIS/Include/cmsis_gcc.h ****   return(result);
 482:Drivers/CMSIS/Include/cmsis_gcc.h **** }
 483:Drivers/CMSIS/Include/cmsis_gcc.h **** #endif
 484:Drivers/CMSIS/Include/cmsis_gcc.h **** 
 485:Drivers/CMSIS/Include/cmsis_gcc.h **** 
 486:Drivers/CMSIS/Include/cmsis_gcc.h **** /**
 487:Drivers/CMSIS/Include/cmsis_gcc.h ****   \brief   Set Base Priority
 488:Drivers/CMSIS/Include/cmsis_gcc.h ****   \details Assigns the given value to the Base Priority register.
 489:Drivers/CMSIS/Include/cmsis_gcc.h ****   \param [in]    basePri  Base Priority value to set
 490:Drivers/CMSIS/Include/cmsis_gcc.h ****  */
 491:Drivers/CMSIS/Include/cmsis_gcc.h **** __STATIC_FORCEINLINE void __set_BASEPRI(uint32_t basePri)
 492:Drivers/CMSIS/Include/cmsis_gcc.h **** {
 493:Drivers/CMSIS/Include/cmsis_gcc.h ****   __ASM volatile ("MSR basepri, %0" : : "r" (basePri) : "memory");
 494:Drivers/CMSIS/Include/cmsis_gcc.h **** }
 495:Drivers/CMSIS/Include/cmsis_gcc.h **** 
 496:Drivers/CMSIS/Include/cmsis_gcc.h **** 
 497:Drivers/CMSIS/Include/cmsis_gcc.h **** #if (defined (__ARM_FEATURE_CMSE ) && (__ARM_FEATURE_CMSE == 3))
 498:Drivers/CMSIS/Include/cmsis_gcc.h **** /**
 499:Drivers/CMSIS/Include/cmsis_gcc.h ****   \brief   Set Base Priority (non-secure)
 500:Drivers/CMSIS/Include/cmsis_gcc.h ****   \details Assigns the given value to the non-secure Base Priority register when in secure state.
 501:Drivers/CMSIS/Include/cmsis_gcc.h ****   \param [in]    basePri  Base Priority value to set
 502:Drivers/CMSIS/Include/cmsis_gcc.h ****  */
 503:Drivers/CMSIS/Include/cmsis_gcc.h **** __STATIC_FORCEINLINE void __TZ_set_BASEPRI_NS(uint32_t basePri)
 504:Drivers/CMSIS/Include/cmsis_gcc.h **** {
 505:Drivers/CMSIS/Include/cmsis_gcc.h ****   __ASM volatile ("MSR basepri_ns, %0" : : "r" (basePri) : "memory");
 506:Drivers/CMSIS/Include/cmsis_gcc.h **** }
 507:Drivers/CMSIS/Include/cmsis_gcc.h **** #endif
 508:Drivers/CMSIS/Include/cmsis_gcc.h **** 
 509:Drivers/CMSIS/Include/cmsis_gcc.h **** 
 510:Drivers/CMSIS/Include/cmsis_gcc.h **** /**
 511:Drivers/CMSIS/Include/cmsis_gcc.h ****   \brief   Set Base Priority with condition
 512:Drivers/CMSIS/Include/cmsis_gcc.h ****   \details Assigns the given value to the Base Priority register only if BASEPRI masking is disable
 513:Drivers/CMSIS/Include/cmsis_gcc.h ****            or the new value increases the BASEPRI priority level.
 514:Drivers/CMSIS/Include/cmsis_gcc.h ****   \param [in]    basePri  Base Priority value to set
 515:Drivers/CMSIS/Include/cmsis_gcc.h ****  */
 516:Drivers/CMSIS/Include/cmsis_gcc.h **** __STATIC_FORCEINLINE void __set_BASEPRI_MAX(uint32_t basePri)
 517:Drivers/CMSIS/Include/cmsis_gcc.h **** {
 518:Drivers/CMSIS/Include/cmsis_gcc.h ****   __ASM volatile ("MSR basepri_max, %0" : : "r" (basePri) : "memory");
ARM GAS  /var/folders/n6/c271nzx11xl4r4_m7sqjlt0m0000gn/T//cc9tggTv.s 			page 17


 519:Drivers/CMSIS/Include/cmsis_gcc.h **** }
 520:Drivers/CMSIS/Include/cmsis_gcc.h **** 
 521:Drivers/CMSIS/Include/cmsis_gcc.h **** 
 522:Drivers/CMSIS/Include/cmsis_gcc.h **** /**
 523:Drivers/CMSIS/Include/cmsis_gcc.h ****   \brief   Get Fault Mask
 524:Drivers/CMSIS/Include/cmsis_gcc.h ****   \details Returns the current value of the Fault Mask register.
 525:Drivers/CMSIS/Include/cmsis_gcc.h ****   \return               Fault Mask register value
 526:Drivers/CMSIS/Include/cmsis_gcc.h ****  */
 527:Drivers/CMSIS/Include/cmsis_gcc.h **** __STATIC_FORCEINLINE uint32_t __get_FAULTMASK(void)
 528:Drivers/CMSIS/Include/cmsis_gcc.h **** {
 529:Drivers/CMSIS/Include/cmsis_gcc.h ****   uint32_t result;
 530:Drivers/CMSIS/Include/cmsis_gcc.h **** 
 531:Drivers/CMSIS/Include/cmsis_gcc.h ****   __ASM volatile ("MRS %0, faultmask" : "=r" (result) );
 532:Drivers/CMSIS/Include/cmsis_gcc.h ****   return(result);
 533:Drivers/CMSIS/Include/cmsis_gcc.h **** }
 534:Drivers/CMSIS/Include/cmsis_gcc.h **** 
 535:Drivers/CMSIS/Include/cmsis_gcc.h **** 
 536:Drivers/CMSIS/Include/cmsis_gcc.h **** #if (defined (__ARM_FEATURE_CMSE ) && (__ARM_FEATURE_CMSE == 3))
 537:Drivers/CMSIS/Include/cmsis_gcc.h **** /**
 538:Drivers/CMSIS/Include/cmsis_gcc.h ****   \brief   Get Fault Mask (non-secure)
 539:Drivers/CMSIS/Include/cmsis_gcc.h ****   \details Returns the current value of the non-secure Fault Mask register when in secure state.
 540:Drivers/CMSIS/Include/cmsis_gcc.h ****   \return               Fault Mask register value
 541:Drivers/CMSIS/Include/cmsis_gcc.h ****  */
 542:Drivers/CMSIS/Include/cmsis_gcc.h **** __STATIC_FORCEINLINE uint32_t __TZ_get_FAULTMASK_NS(void)
 543:Drivers/CMSIS/Include/cmsis_gcc.h **** {
 544:Drivers/CMSIS/Include/cmsis_gcc.h ****   uint32_t result;
 545:Drivers/CMSIS/Include/cmsis_gcc.h **** 
 546:Drivers/CMSIS/Include/cmsis_gcc.h ****   __ASM volatile ("MRS %0, faultmask_ns" : "=r" (result) );
 547:Drivers/CMSIS/Include/cmsis_gcc.h ****   return(result);
 548:Drivers/CMSIS/Include/cmsis_gcc.h **** }
 549:Drivers/CMSIS/Include/cmsis_gcc.h **** #endif
 550:Drivers/CMSIS/Include/cmsis_gcc.h **** 
 551:Drivers/CMSIS/Include/cmsis_gcc.h **** 
 552:Drivers/CMSIS/Include/cmsis_gcc.h **** /**
 553:Drivers/CMSIS/Include/cmsis_gcc.h ****   \brief   Set Fault Mask
 554:Drivers/CMSIS/Include/cmsis_gcc.h ****   \details Assigns the given value to the Fault Mask register.
 555:Drivers/CMSIS/Include/cmsis_gcc.h ****   \param [in]    faultMask  Fault Mask value to set
 556:Drivers/CMSIS/Include/cmsis_gcc.h ****  */
 557:Drivers/CMSIS/Include/cmsis_gcc.h **** __STATIC_FORCEINLINE void __set_FAULTMASK(uint32_t faultMask)
 558:Drivers/CMSIS/Include/cmsis_gcc.h **** {
 559:Drivers/CMSIS/Include/cmsis_gcc.h ****   __ASM volatile ("MSR faultmask, %0" : : "r" (faultMask) : "memory");
 560:Drivers/CMSIS/Include/cmsis_gcc.h **** }
 561:Drivers/CMSIS/Include/cmsis_gcc.h **** 
 562:Drivers/CMSIS/Include/cmsis_gcc.h **** 
 563:Drivers/CMSIS/Include/cmsis_gcc.h **** #if (defined (__ARM_FEATURE_CMSE ) && (__ARM_FEATURE_CMSE == 3))
 564:Drivers/CMSIS/Include/cmsis_gcc.h **** /**
 565:Drivers/CMSIS/Include/cmsis_gcc.h ****   \brief   Set Fault Mask (non-secure)
 566:Drivers/CMSIS/Include/cmsis_gcc.h ****   \details Assigns the given value to the non-secure Fault Mask register when in secure state.
 567:Drivers/CMSIS/Include/cmsis_gcc.h ****   \param [in]    faultMask  Fault Mask value to set
 568:Drivers/CMSIS/Include/cmsis_gcc.h ****  */
 569:Drivers/CMSIS/Include/cmsis_gcc.h **** __STATIC_FORCEINLINE void __TZ_set_FAULTMASK_NS(uint32_t faultMask)
 570:Drivers/CMSIS/Include/cmsis_gcc.h **** {
 571:Drivers/CMSIS/Include/cmsis_gcc.h ****   __ASM volatile ("MSR faultmask_ns, %0" : : "r" (faultMask) : "memory");
 572:Drivers/CMSIS/Include/cmsis_gcc.h **** }
 573:Drivers/CMSIS/Include/cmsis_gcc.h **** #endif
 574:Drivers/CMSIS/Include/cmsis_gcc.h **** 
 575:Drivers/CMSIS/Include/cmsis_gcc.h **** #endif /* ((defined (__ARM_ARCH_7M__      ) && (__ARM_ARCH_7M__      == 1)) || \
ARM GAS  /var/folders/n6/c271nzx11xl4r4_m7sqjlt0m0000gn/T//cc9tggTv.s 			page 18


 576:Drivers/CMSIS/Include/cmsis_gcc.h ****            (defined (__ARM_ARCH_7EM__     ) && (__ARM_ARCH_7EM__     == 1)) || \
 577:Drivers/CMSIS/Include/cmsis_gcc.h ****            (defined (__ARM_ARCH_8M_MAIN__ ) && (__ARM_ARCH_8M_MAIN__ == 1))    ) */
 578:Drivers/CMSIS/Include/cmsis_gcc.h **** 
 579:Drivers/CMSIS/Include/cmsis_gcc.h **** 
 580:Drivers/CMSIS/Include/cmsis_gcc.h **** #if ((defined (__ARM_ARCH_8M_MAIN__ ) && (__ARM_ARCH_8M_MAIN__ == 1)) || \
 581:Drivers/CMSIS/Include/cmsis_gcc.h ****      (defined (__ARM_ARCH_8M_BASE__ ) && (__ARM_ARCH_8M_BASE__ == 1))    )
 582:Drivers/CMSIS/Include/cmsis_gcc.h **** 
 583:Drivers/CMSIS/Include/cmsis_gcc.h **** /**
 584:Drivers/CMSIS/Include/cmsis_gcc.h ****   \brief   Get Process Stack Pointer Limit
 585:Drivers/CMSIS/Include/cmsis_gcc.h ****   Devices without ARMv8-M Main Extensions (i.e. Cortex-M23) lack the non-secure
 586:Drivers/CMSIS/Include/cmsis_gcc.h ****   Stack Pointer Limit register hence zero is returned always in non-secure
 587:Drivers/CMSIS/Include/cmsis_gcc.h ****   mode.
 588:Drivers/CMSIS/Include/cmsis_gcc.h ****   
 589:Drivers/CMSIS/Include/cmsis_gcc.h ****   \details Returns the current value of the Process Stack Pointer Limit (PSPLIM).
 590:Drivers/CMSIS/Include/cmsis_gcc.h ****   \return               PSPLIM Register value
 591:Drivers/CMSIS/Include/cmsis_gcc.h ****  */
 592:Drivers/CMSIS/Include/cmsis_gcc.h **** __STATIC_FORCEINLINE uint32_t __get_PSPLIM(void)
 593:Drivers/CMSIS/Include/cmsis_gcc.h **** {
 594:Drivers/CMSIS/Include/cmsis_gcc.h **** #if (!(defined (__ARM_ARCH_8M_MAIN__ ) && (__ARM_ARCH_8M_MAIN__ == 1)) && \
 595:Drivers/CMSIS/Include/cmsis_gcc.h ****     (!defined (__ARM_FEATURE_CMSE) || (__ARM_FEATURE_CMSE < 3)))
 596:Drivers/CMSIS/Include/cmsis_gcc.h ****     // without main extensions, the non-secure PSPLIM is RAZ/WI
 597:Drivers/CMSIS/Include/cmsis_gcc.h ****   return 0U;
 598:Drivers/CMSIS/Include/cmsis_gcc.h **** #else
 599:Drivers/CMSIS/Include/cmsis_gcc.h ****   uint32_t result;
 600:Drivers/CMSIS/Include/cmsis_gcc.h ****   __ASM volatile ("MRS %0, psplim"  : "=r" (result) );
 601:Drivers/CMSIS/Include/cmsis_gcc.h ****   return result;
 602:Drivers/CMSIS/Include/cmsis_gcc.h **** #endif
 603:Drivers/CMSIS/Include/cmsis_gcc.h **** }
 604:Drivers/CMSIS/Include/cmsis_gcc.h **** 
 605:Drivers/CMSIS/Include/cmsis_gcc.h **** #if (defined (__ARM_FEATURE_CMSE) && (__ARM_FEATURE_CMSE == 3))
 606:Drivers/CMSIS/Include/cmsis_gcc.h **** /**
 607:Drivers/CMSIS/Include/cmsis_gcc.h ****   \brief   Get Process Stack Pointer Limit (non-secure)
 608:Drivers/CMSIS/Include/cmsis_gcc.h ****   Devices without ARMv8-M Main Extensions (i.e. Cortex-M23) lack the non-secure
 609:Drivers/CMSIS/Include/cmsis_gcc.h ****   Stack Pointer Limit register hence zero is returned always.
 610:Drivers/CMSIS/Include/cmsis_gcc.h **** 
 611:Drivers/CMSIS/Include/cmsis_gcc.h ****   \details Returns the current value of the non-secure Process Stack Pointer Limit (PSPLIM) when in
 612:Drivers/CMSIS/Include/cmsis_gcc.h ****   \return               PSPLIM Register value
 613:Drivers/CMSIS/Include/cmsis_gcc.h ****  */
 614:Drivers/CMSIS/Include/cmsis_gcc.h **** __STATIC_FORCEINLINE uint32_t __TZ_get_PSPLIM_NS(void)
 615:Drivers/CMSIS/Include/cmsis_gcc.h **** {
 616:Drivers/CMSIS/Include/cmsis_gcc.h **** #if (!(defined (__ARM_ARCH_8M_MAIN__ ) && (__ARM_ARCH_8M_MAIN__ == 1)))
 617:Drivers/CMSIS/Include/cmsis_gcc.h ****   // without main extensions, the non-secure PSPLIM is RAZ/WI
 618:Drivers/CMSIS/Include/cmsis_gcc.h ****   return 0U;
 619:Drivers/CMSIS/Include/cmsis_gcc.h **** #else
 620:Drivers/CMSIS/Include/cmsis_gcc.h ****   uint32_t result;
 621:Drivers/CMSIS/Include/cmsis_gcc.h ****   __ASM volatile ("MRS %0, psplim_ns"  : "=r" (result) );
 622:Drivers/CMSIS/Include/cmsis_gcc.h ****   return result;
 623:Drivers/CMSIS/Include/cmsis_gcc.h **** #endif
 624:Drivers/CMSIS/Include/cmsis_gcc.h **** }
 625:Drivers/CMSIS/Include/cmsis_gcc.h **** #endif
 626:Drivers/CMSIS/Include/cmsis_gcc.h **** 
 627:Drivers/CMSIS/Include/cmsis_gcc.h **** 
 628:Drivers/CMSIS/Include/cmsis_gcc.h **** /**
 629:Drivers/CMSIS/Include/cmsis_gcc.h ****   \brief   Set Process Stack Pointer Limit
 630:Drivers/CMSIS/Include/cmsis_gcc.h ****   Devices without ARMv8-M Main Extensions (i.e. Cortex-M23) lack the non-secure
 631:Drivers/CMSIS/Include/cmsis_gcc.h ****   Stack Pointer Limit register hence the write is silently ignored in non-secure
 632:Drivers/CMSIS/Include/cmsis_gcc.h ****   mode.
ARM GAS  /var/folders/n6/c271nzx11xl4r4_m7sqjlt0m0000gn/T//cc9tggTv.s 			page 19


 633:Drivers/CMSIS/Include/cmsis_gcc.h ****   
 634:Drivers/CMSIS/Include/cmsis_gcc.h ****   \details Assigns the given value to the Process Stack Pointer Limit (PSPLIM).
 635:Drivers/CMSIS/Include/cmsis_gcc.h ****   \param [in]    ProcStackPtrLimit  Process Stack Pointer Limit value to set
 636:Drivers/CMSIS/Include/cmsis_gcc.h ****  */
 637:Drivers/CMSIS/Include/cmsis_gcc.h **** __STATIC_FORCEINLINE void __set_PSPLIM(uint32_t ProcStackPtrLimit)
 638:Drivers/CMSIS/Include/cmsis_gcc.h **** {
 639:Drivers/CMSIS/Include/cmsis_gcc.h **** #if (!(defined (__ARM_ARCH_8M_MAIN__ ) && (__ARM_ARCH_8M_MAIN__ == 1)) && \
 640:Drivers/CMSIS/Include/cmsis_gcc.h ****     (!defined (__ARM_FEATURE_CMSE) || (__ARM_FEATURE_CMSE < 3)))
 641:Drivers/CMSIS/Include/cmsis_gcc.h ****   // without main extensions, the non-secure PSPLIM is RAZ/WI
 642:Drivers/CMSIS/Include/cmsis_gcc.h ****   (void)ProcStackPtrLimit;
 643:Drivers/CMSIS/Include/cmsis_gcc.h **** #else
 644:Drivers/CMSIS/Include/cmsis_gcc.h ****   __ASM volatile ("MSR psplim, %0" : : "r" (ProcStackPtrLimit));
 645:Drivers/CMSIS/Include/cmsis_gcc.h **** #endif
 646:Drivers/CMSIS/Include/cmsis_gcc.h **** }
 647:Drivers/CMSIS/Include/cmsis_gcc.h **** 
 648:Drivers/CMSIS/Include/cmsis_gcc.h **** 
 649:Drivers/CMSIS/Include/cmsis_gcc.h **** #if (defined (__ARM_FEATURE_CMSE  ) && (__ARM_FEATURE_CMSE   == 3))
 650:Drivers/CMSIS/Include/cmsis_gcc.h **** /**
 651:Drivers/CMSIS/Include/cmsis_gcc.h ****   \brief   Set Process Stack Pointer (non-secure)
 652:Drivers/CMSIS/Include/cmsis_gcc.h ****   Devices without ARMv8-M Main Extensions (i.e. Cortex-M23) lack the non-secure
 653:Drivers/CMSIS/Include/cmsis_gcc.h ****   Stack Pointer Limit register hence the write is silently ignored.
 654:Drivers/CMSIS/Include/cmsis_gcc.h **** 
 655:Drivers/CMSIS/Include/cmsis_gcc.h ****   \details Assigns the given value to the non-secure Process Stack Pointer Limit (PSPLIM) when in s
 656:Drivers/CMSIS/Include/cmsis_gcc.h ****   \param [in]    ProcStackPtrLimit  Process Stack Pointer Limit value to set
 657:Drivers/CMSIS/Include/cmsis_gcc.h ****  */
 658:Drivers/CMSIS/Include/cmsis_gcc.h **** __STATIC_FORCEINLINE void __TZ_set_PSPLIM_NS(uint32_t ProcStackPtrLimit)
 659:Drivers/CMSIS/Include/cmsis_gcc.h **** {
 660:Drivers/CMSIS/Include/cmsis_gcc.h **** #if (!(defined (__ARM_ARCH_8M_MAIN__ ) && (__ARM_ARCH_8M_MAIN__ == 1)))
 661:Drivers/CMSIS/Include/cmsis_gcc.h ****   // without main extensions, the non-secure PSPLIM is RAZ/WI
 662:Drivers/CMSIS/Include/cmsis_gcc.h ****   (void)ProcStackPtrLimit;
 663:Drivers/CMSIS/Include/cmsis_gcc.h **** #else
 664:Drivers/CMSIS/Include/cmsis_gcc.h ****   __ASM volatile ("MSR psplim_ns, %0\n" : : "r" (ProcStackPtrLimit));
 665:Drivers/CMSIS/Include/cmsis_gcc.h **** #endif
 666:Drivers/CMSIS/Include/cmsis_gcc.h **** }
 667:Drivers/CMSIS/Include/cmsis_gcc.h **** #endif
 668:Drivers/CMSIS/Include/cmsis_gcc.h **** 
 669:Drivers/CMSIS/Include/cmsis_gcc.h **** 
 670:Drivers/CMSIS/Include/cmsis_gcc.h **** /**
 671:Drivers/CMSIS/Include/cmsis_gcc.h ****   \brief   Get Main Stack Pointer Limit
 672:Drivers/CMSIS/Include/cmsis_gcc.h ****   Devices without ARMv8-M Main Extensions (i.e. Cortex-M23) lack the non-secure
 673:Drivers/CMSIS/Include/cmsis_gcc.h ****   Stack Pointer Limit register hence zero is returned always in non-secure
 674:Drivers/CMSIS/Include/cmsis_gcc.h ****   mode.
 675:Drivers/CMSIS/Include/cmsis_gcc.h **** 
 676:Drivers/CMSIS/Include/cmsis_gcc.h ****   \details Returns the current value of the Main Stack Pointer Limit (MSPLIM).
 677:Drivers/CMSIS/Include/cmsis_gcc.h ****   \return               MSPLIM Register value
 678:Drivers/CMSIS/Include/cmsis_gcc.h ****  */
 679:Drivers/CMSIS/Include/cmsis_gcc.h **** __STATIC_FORCEINLINE uint32_t __get_MSPLIM(void)
 680:Drivers/CMSIS/Include/cmsis_gcc.h **** {
 681:Drivers/CMSIS/Include/cmsis_gcc.h **** #if (!(defined (__ARM_ARCH_8M_MAIN__ ) && (__ARM_ARCH_8M_MAIN__ == 1)) && \
 682:Drivers/CMSIS/Include/cmsis_gcc.h ****     (!defined (__ARM_FEATURE_CMSE) || (__ARM_FEATURE_CMSE < 3)))
 683:Drivers/CMSIS/Include/cmsis_gcc.h ****   // without main extensions, the non-secure MSPLIM is RAZ/WI
 684:Drivers/CMSIS/Include/cmsis_gcc.h ****   return 0U;
 685:Drivers/CMSIS/Include/cmsis_gcc.h **** #else
 686:Drivers/CMSIS/Include/cmsis_gcc.h ****   uint32_t result;
 687:Drivers/CMSIS/Include/cmsis_gcc.h ****   __ASM volatile ("MRS %0, msplim" : "=r" (result) );
 688:Drivers/CMSIS/Include/cmsis_gcc.h ****   return result;
 689:Drivers/CMSIS/Include/cmsis_gcc.h **** #endif
ARM GAS  /var/folders/n6/c271nzx11xl4r4_m7sqjlt0m0000gn/T//cc9tggTv.s 			page 20


 690:Drivers/CMSIS/Include/cmsis_gcc.h **** }
 691:Drivers/CMSIS/Include/cmsis_gcc.h **** 
 692:Drivers/CMSIS/Include/cmsis_gcc.h **** 
 693:Drivers/CMSIS/Include/cmsis_gcc.h **** #if (defined (__ARM_FEATURE_CMSE  ) && (__ARM_FEATURE_CMSE   == 3))
 694:Drivers/CMSIS/Include/cmsis_gcc.h **** /**
 695:Drivers/CMSIS/Include/cmsis_gcc.h ****   \brief   Get Main Stack Pointer Limit (non-secure)
 696:Drivers/CMSIS/Include/cmsis_gcc.h ****   Devices without ARMv8-M Main Extensions (i.e. Cortex-M23) lack the non-secure
 697:Drivers/CMSIS/Include/cmsis_gcc.h ****   Stack Pointer Limit register hence zero is returned always.
 698:Drivers/CMSIS/Include/cmsis_gcc.h **** 
 699:Drivers/CMSIS/Include/cmsis_gcc.h ****   \details Returns the current value of the non-secure Main Stack Pointer Limit(MSPLIM) when in sec
 700:Drivers/CMSIS/Include/cmsis_gcc.h ****   \return               MSPLIM Register value
 701:Drivers/CMSIS/Include/cmsis_gcc.h ****  */
 702:Drivers/CMSIS/Include/cmsis_gcc.h **** __STATIC_FORCEINLINE uint32_t __TZ_get_MSPLIM_NS(void)
 703:Drivers/CMSIS/Include/cmsis_gcc.h **** {
 704:Drivers/CMSIS/Include/cmsis_gcc.h **** #if (!(defined (__ARM_ARCH_8M_MAIN__ ) && (__ARM_ARCH_8M_MAIN__ == 1)))
 705:Drivers/CMSIS/Include/cmsis_gcc.h ****   // without main extensions, the non-secure MSPLIM is RAZ/WI
 706:Drivers/CMSIS/Include/cmsis_gcc.h ****   return 0U;
 707:Drivers/CMSIS/Include/cmsis_gcc.h **** #else
 708:Drivers/CMSIS/Include/cmsis_gcc.h ****   uint32_t result;
 709:Drivers/CMSIS/Include/cmsis_gcc.h ****   __ASM volatile ("MRS %0, msplim_ns" : "=r" (result) );
 710:Drivers/CMSIS/Include/cmsis_gcc.h ****   return result;
 711:Drivers/CMSIS/Include/cmsis_gcc.h **** #endif
 712:Drivers/CMSIS/Include/cmsis_gcc.h **** }
 713:Drivers/CMSIS/Include/cmsis_gcc.h **** #endif
 714:Drivers/CMSIS/Include/cmsis_gcc.h **** 
 715:Drivers/CMSIS/Include/cmsis_gcc.h **** 
 716:Drivers/CMSIS/Include/cmsis_gcc.h **** /**
 717:Drivers/CMSIS/Include/cmsis_gcc.h ****   \brief   Set Main Stack Pointer Limit
 718:Drivers/CMSIS/Include/cmsis_gcc.h ****   Devices without ARMv8-M Main Extensions (i.e. Cortex-M23) lack the non-secure
 719:Drivers/CMSIS/Include/cmsis_gcc.h ****   Stack Pointer Limit register hence the write is silently ignored in non-secure
 720:Drivers/CMSIS/Include/cmsis_gcc.h ****   mode.
 721:Drivers/CMSIS/Include/cmsis_gcc.h **** 
 722:Drivers/CMSIS/Include/cmsis_gcc.h ****   \details Assigns the given value to the Main Stack Pointer Limit (MSPLIM).
 723:Drivers/CMSIS/Include/cmsis_gcc.h ****   \param [in]    MainStackPtrLimit  Main Stack Pointer Limit value to set
 724:Drivers/CMSIS/Include/cmsis_gcc.h ****  */
 725:Drivers/CMSIS/Include/cmsis_gcc.h **** __STATIC_FORCEINLINE void __set_MSPLIM(uint32_t MainStackPtrLimit)
 726:Drivers/CMSIS/Include/cmsis_gcc.h **** {
 727:Drivers/CMSIS/Include/cmsis_gcc.h **** #if (!(defined (__ARM_ARCH_8M_MAIN__ ) && (__ARM_ARCH_8M_MAIN__ == 1)) && \
 728:Drivers/CMSIS/Include/cmsis_gcc.h ****     (!defined (__ARM_FEATURE_CMSE) || (__ARM_FEATURE_CMSE < 3)))
 729:Drivers/CMSIS/Include/cmsis_gcc.h ****   // without main extensions, the non-secure MSPLIM is RAZ/WI
 730:Drivers/CMSIS/Include/cmsis_gcc.h ****   (void)MainStackPtrLimit;
 731:Drivers/CMSIS/Include/cmsis_gcc.h **** #else
 732:Drivers/CMSIS/Include/cmsis_gcc.h ****   __ASM volatile ("MSR msplim, %0" : : "r" (MainStackPtrLimit));
 733:Drivers/CMSIS/Include/cmsis_gcc.h **** #endif
 734:Drivers/CMSIS/Include/cmsis_gcc.h **** }
 735:Drivers/CMSIS/Include/cmsis_gcc.h **** 
 736:Drivers/CMSIS/Include/cmsis_gcc.h **** 
 737:Drivers/CMSIS/Include/cmsis_gcc.h **** #if (defined (__ARM_FEATURE_CMSE  ) && (__ARM_FEATURE_CMSE   == 3))
 738:Drivers/CMSIS/Include/cmsis_gcc.h **** /**
 739:Drivers/CMSIS/Include/cmsis_gcc.h ****   \brief   Set Main Stack Pointer Limit (non-secure)
 740:Drivers/CMSIS/Include/cmsis_gcc.h ****   Devices without ARMv8-M Main Extensions (i.e. Cortex-M23) lack the non-secure
 741:Drivers/CMSIS/Include/cmsis_gcc.h ****   Stack Pointer Limit register hence the write is silently ignored.
 742:Drivers/CMSIS/Include/cmsis_gcc.h **** 
 743:Drivers/CMSIS/Include/cmsis_gcc.h ****   \details Assigns the given value to the non-secure Main Stack Pointer Limit (MSPLIM) when in secu
 744:Drivers/CMSIS/Include/cmsis_gcc.h ****   \param [in]    MainStackPtrLimit  Main Stack Pointer value to set
 745:Drivers/CMSIS/Include/cmsis_gcc.h ****  */
 746:Drivers/CMSIS/Include/cmsis_gcc.h **** __STATIC_FORCEINLINE void __TZ_set_MSPLIM_NS(uint32_t MainStackPtrLimit)
ARM GAS  /var/folders/n6/c271nzx11xl4r4_m7sqjlt0m0000gn/T//cc9tggTv.s 			page 21


 747:Drivers/CMSIS/Include/cmsis_gcc.h **** {
 748:Drivers/CMSIS/Include/cmsis_gcc.h **** #if (!(defined (__ARM_ARCH_8M_MAIN__ ) && (__ARM_ARCH_8M_MAIN__ == 1)))
 749:Drivers/CMSIS/Include/cmsis_gcc.h ****   // without main extensions, the non-secure MSPLIM is RAZ/WI
 750:Drivers/CMSIS/Include/cmsis_gcc.h ****   (void)MainStackPtrLimit;
 751:Drivers/CMSIS/Include/cmsis_gcc.h **** #else
 752:Drivers/CMSIS/Include/cmsis_gcc.h ****   __ASM volatile ("MSR msplim_ns, %0" : : "r" (MainStackPtrLimit));
 753:Drivers/CMSIS/Include/cmsis_gcc.h **** #endif
 754:Drivers/CMSIS/Include/cmsis_gcc.h **** }
 755:Drivers/CMSIS/Include/cmsis_gcc.h **** #endif
 756:Drivers/CMSIS/Include/cmsis_gcc.h **** 
 757:Drivers/CMSIS/Include/cmsis_gcc.h **** #endif /* ((defined (__ARM_ARCH_8M_MAIN__ ) && (__ARM_ARCH_8M_MAIN__ == 1)) || \
 758:Drivers/CMSIS/Include/cmsis_gcc.h ****            (defined (__ARM_ARCH_8M_BASE__ ) && (__ARM_ARCH_8M_BASE__ == 1))    ) */
 759:Drivers/CMSIS/Include/cmsis_gcc.h **** 
 760:Drivers/CMSIS/Include/cmsis_gcc.h **** 
 761:Drivers/CMSIS/Include/cmsis_gcc.h **** /**
 762:Drivers/CMSIS/Include/cmsis_gcc.h ****   \brief   Get FPSCR
 763:Drivers/CMSIS/Include/cmsis_gcc.h ****   \details Returns the current value of the Floating Point Status/Control register.
 764:Drivers/CMSIS/Include/cmsis_gcc.h ****   \return               Floating Point Status/Control register value
 765:Drivers/CMSIS/Include/cmsis_gcc.h ****  */
 766:Drivers/CMSIS/Include/cmsis_gcc.h **** __STATIC_FORCEINLINE uint32_t __get_FPSCR(void)
 767:Drivers/CMSIS/Include/cmsis_gcc.h **** {
 768:Drivers/CMSIS/Include/cmsis_gcc.h **** #if ((defined (__FPU_PRESENT) && (__FPU_PRESENT == 1U)) && \
 769:Drivers/CMSIS/Include/cmsis_gcc.h ****      (defined (__FPU_USED   ) && (__FPU_USED    == 1U))     )
 770:Drivers/CMSIS/Include/cmsis_gcc.h **** #if __has_builtin(__builtin_arm_get_fpscr) 
 771:Drivers/CMSIS/Include/cmsis_gcc.h **** // Re-enable using built-in when GCC has been fixed
 772:Drivers/CMSIS/Include/cmsis_gcc.h **** // || (__GNUC__ > 7) || (__GNUC__ == 7 && __GNUC_MINOR__ >= 2)
 773:Drivers/CMSIS/Include/cmsis_gcc.h ****   /* see https://gcc.gnu.org/ml/gcc-patches/2017-04/msg00443.html */
 774:Drivers/CMSIS/Include/cmsis_gcc.h ****   return __builtin_arm_get_fpscr();
 775:Drivers/CMSIS/Include/cmsis_gcc.h **** #else
 776:Drivers/CMSIS/Include/cmsis_gcc.h ****   uint32_t result;
 777:Drivers/CMSIS/Include/cmsis_gcc.h **** 
 778:Drivers/CMSIS/Include/cmsis_gcc.h ****   __ASM volatile ("VMRS %0, fpscr" : "=r" (result) );
 779:Drivers/CMSIS/Include/cmsis_gcc.h ****   return(result);
 780:Drivers/CMSIS/Include/cmsis_gcc.h **** #endif
 781:Drivers/CMSIS/Include/cmsis_gcc.h **** #else
 782:Drivers/CMSIS/Include/cmsis_gcc.h ****   return(0U);
 783:Drivers/CMSIS/Include/cmsis_gcc.h **** #endif
 784:Drivers/CMSIS/Include/cmsis_gcc.h **** }
 785:Drivers/CMSIS/Include/cmsis_gcc.h **** 
 786:Drivers/CMSIS/Include/cmsis_gcc.h **** 
 787:Drivers/CMSIS/Include/cmsis_gcc.h **** /**
 788:Drivers/CMSIS/Include/cmsis_gcc.h ****   \brief   Set FPSCR
 789:Drivers/CMSIS/Include/cmsis_gcc.h ****   \details Assigns the given value to the Floating Point Status/Control register.
 790:Drivers/CMSIS/Include/cmsis_gcc.h ****   \param [in]    fpscr  Floating Point Status/Control value to set
 791:Drivers/CMSIS/Include/cmsis_gcc.h ****  */
 792:Drivers/CMSIS/Include/cmsis_gcc.h **** __STATIC_FORCEINLINE void __set_FPSCR(uint32_t fpscr)
 793:Drivers/CMSIS/Include/cmsis_gcc.h **** {
 794:Drivers/CMSIS/Include/cmsis_gcc.h **** #if ((defined (__FPU_PRESENT) && (__FPU_PRESENT == 1U)) && \
 795:Drivers/CMSIS/Include/cmsis_gcc.h ****      (defined (__FPU_USED   ) && (__FPU_USED    == 1U))     )
 796:Drivers/CMSIS/Include/cmsis_gcc.h **** #if __has_builtin(__builtin_arm_set_fpscr)
 797:Drivers/CMSIS/Include/cmsis_gcc.h **** // Re-enable using built-in when GCC has been fixed
 798:Drivers/CMSIS/Include/cmsis_gcc.h **** // || (__GNUC__ > 7) || (__GNUC__ == 7 && __GNUC_MINOR__ >= 2)
 799:Drivers/CMSIS/Include/cmsis_gcc.h ****   /* see https://gcc.gnu.org/ml/gcc-patches/2017-04/msg00443.html */
 800:Drivers/CMSIS/Include/cmsis_gcc.h ****   __builtin_arm_set_fpscr(fpscr);
 801:Drivers/CMSIS/Include/cmsis_gcc.h **** #else
 802:Drivers/CMSIS/Include/cmsis_gcc.h ****   __ASM volatile ("VMSR fpscr, %0" : : "r" (fpscr) : "vfpcc", "memory");
 803:Drivers/CMSIS/Include/cmsis_gcc.h **** #endif
ARM GAS  /var/folders/n6/c271nzx11xl4r4_m7sqjlt0m0000gn/T//cc9tggTv.s 			page 22


 804:Drivers/CMSIS/Include/cmsis_gcc.h **** #else
 805:Drivers/CMSIS/Include/cmsis_gcc.h ****   (void)fpscr;
 806:Drivers/CMSIS/Include/cmsis_gcc.h **** #endif
 807:Drivers/CMSIS/Include/cmsis_gcc.h **** }
 808:Drivers/CMSIS/Include/cmsis_gcc.h **** 
 809:Drivers/CMSIS/Include/cmsis_gcc.h **** 
 810:Drivers/CMSIS/Include/cmsis_gcc.h **** /*@} end of CMSIS_Core_RegAccFunctions */
 811:Drivers/CMSIS/Include/cmsis_gcc.h **** 
 812:Drivers/CMSIS/Include/cmsis_gcc.h **** 
 813:Drivers/CMSIS/Include/cmsis_gcc.h **** /* ##########################  Core Instruction Access  ######################### */
 814:Drivers/CMSIS/Include/cmsis_gcc.h **** /** \defgroup CMSIS_Core_InstructionInterface CMSIS Core Instruction Interface
 815:Drivers/CMSIS/Include/cmsis_gcc.h ****   Access to dedicated instructions
 816:Drivers/CMSIS/Include/cmsis_gcc.h ****   @{
 817:Drivers/CMSIS/Include/cmsis_gcc.h **** */
 818:Drivers/CMSIS/Include/cmsis_gcc.h **** 
 819:Drivers/CMSIS/Include/cmsis_gcc.h **** /* Define macros for porting to both thumb1 and thumb2.
 820:Drivers/CMSIS/Include/cmsis_gcc.h ****  * For thumb1, use low register (r0-r7), specified by constraint "l"
 821:Drivers/CMSIS/Include/cmsis_gcc.h ****  * Otherwise, use general registers, specified by constraint "r" */
 822:Drivers/CMSIS/Include/cmsis_gcc.h **** #if defined (__thumb__) && !defined (__thumb2__)
 823:Drivers/CMSIS/Include/cmsis_gcc.h **** #define __CMSIS_GCC_OUT_REG(r) "=l" (r)
 824:Drivers/CMSIS/Include/cmsis_gcc.h **** #define __CMSIS_GCC_RW_REG(r) "+l" (r)
 825:Drivers/CMSIS/Include/cmsis_gcc.h **** #define __CMSIS_GCC_USE_REG(r) "l" (r)
 826:Drivers/CMSIS/Include/cmsis_gcc.h **** #else
 827:Drivers/CMSIS/Include/cmsis_gcc.h **** #define __CMSIS_GCC_OUT_REG(r) "=r" (r)
 828:Drivers/CMSIS/Include/cmsis_gcc.h **** #define __CMSIS_GCC_RW_REG(r) "+r" (r)
 829:Drivers/CMSIS/Include/cmsis_gcc.h **** #define __CMSIS_GCC_USE_REG(r) "r" (r)
 830:Drivers/CMSIS/Include/cmsis_gcc.h **** #endif
 831:Drivers/CMSIS/Include/cmsis_gcc.h **** 
 832:Drivers/CMSIS/Include/cmsis_gcc.h **** /**
 833:Drivers/CMSIS/Include/cmsis_gcc.h ****   \brief   No Operation
 834:Drivers/CMSIS/Include/cmsis_gcc.h ****   \details No Operation does nothing. This instruction can be used for code alignment purposes.
 835:Drivers/CMSIS/Include/cmsis_gcc.h ****  */
 836:Drivers/CMSIS/Include/cmsis_gcc.h **** #define __NOP()                             __ASM volatile ("nop")
 837:Drivers/CMSIS/Include/cmsis_gcc.h **** 
 838:Drivers/CMSIS/Include/cmsis_gcc.h **** /**
 839:Drivers/CMSIS/Include/cmsis_gcc.h ****   \brief   Wait For Interrupt
 840:Drivers/CMSIS/Include/cmsis_gcc.h ****   \details Wait For Interrupt is a hint instruction that suspends execution until one of a number o
 841:Drivers/CMSIS/Include/cmsis_gcc.h ****  */
 842:Drivers/CMSIS/Include/cmsis_gcc.h **** #define __WFI()                             __ASM volatile ("wfi")
 843:Drivers/CMSIS/Include/cmsis_gcc.h **** 
 844:Drivers/CMSIS/Include/cmsis_gcc.h **** 
 845:Drivers/CMSIS/Include/cmsis_gcc.h **** /**
 846:Drivers/CMSIS/Include/cmsis_gcc.h ****   \brief   Wait For Event
 847:Drivers/CMSIS/Include/cmsis_gcc.h ****   \details Wait For Event is a hint instruction that permits the processor to enter
 848:Drivers/CMSIS/Include/cmsis_gcc.h ****            a low-power state until one of a number of events occurs.
 849:Drivers/CMSIS/Include/cmsis_gcc.h ****  */
 850:Drivers/CMSIS/Include/cmsis_gcc.h **** #define __WFE()                             __ASM volatile ("wfe")
 851:Drivers/CMSIS/Include/cmsis_gcc.h **** 
 852:Drivers/CMSIS/Include/cmsis_gcc.h **** 
 853:Drivers/CMSIS/Include/cmsis_gcc.h **** /**
 854:Drivers/CMSIS/Include/cmsis_gcc.h ****   \brief   Send Event
 855:Drivers/CMSIS/Include/cmsis_gcc.h ****   \details Send Event is a hint instruction. It causes an event to be signaled to the CPU.
 856:Drivers/CMSIS/Include/cmsis_gcc.h ****  */
 857:Drivers/CMSIS/Include/cmsis_gcc.h **** #define __SEV()                             __ASM volatile ("sev")
 858:Drivers/CMSIS/Include/cmsis_gcc.h **** 
 859:Drivers/CMSIS/Include/cmsis_gcc.h **** 
 860:Drivers/CMSIS/Include/cmsis_gcc.h **** /**
ARM GAS  /var/folders/n6/c271nzx11xl4r4_m7sqjlt0m0000gn/T//cc9tggTv.s 			page 23


 861:Drivers/CMSIS/Include/cmsis_gcc.h ****   \brief   Instruction Synchronization Barrier
 862:Drivers/CMSIS/Include/cmsis_gcc.h ****   \details Instruction Synchronization Barrier flushes the pipeline in the processor,
 863:Drivers/CMSIS/Include/cmsis_gcc.h ****            so that all instructions following the ISB are fetched from cache or memory,
 864:Drivers/CMSIS/Include/cmsis_gcc.h ****            after the instruction has been completed.
 865:Drivers/CMSIS/Include/cmsis_gcc.h ****  */
 866:Drivers/CMSIS/Include/cmsis_gcc.h **** __STATIC_FORCEINLINE void __ISB(void)
 867:Drivers/CMSIS/Include/cmsis_gcc.h **** {
 868:Drivers/CMSIS/Include/cmsis_gcc.h ****   __ASM volatile ("isb 0xF":::"memory");
 869:Drivers/CMSIS/Include/cmsis_gcc.h **** }
 870:Drivers/CMSIS/Include/cmsis_gcc.h **** 
 871:Drivers/CMSIS/Include/cmsis_gcc.h **** 
 872:Drivers/CMSIS/Include/cmsis_gcc.h **** /**
 873:Drivers/CMSIS/Include/cmsis_gcc.h ****   \brief   Data Synchronization Barrier
 874:Drivers/CMSIS/Include/cmsis_gcc.h ****   \details Acts as a special kind of Data Memory Barrier.
 875:Drivers/CMSIS/Include/cmsis_gcc.h ****            It completes when all explicit memory accesses before this instruction complete.
 876:Drivers/CMSIS/Include/cmsis_gcc.h ****  */
 877:Drivers/CMSIS/Include/cmsis_gcc.h **** __STATIC_FORCEINLINE void __DSB(void)
 878:Drivers/CMSIS/Include/cmsis_gcc.h **** {
 879:Drivers/CMSIS/Include/cmsis_gcc.h ****   __ASM volatile ("dsb 0xF":::"memory");
 880:Drivers/CMSIS/Include/cmsis_gcc.h **** }
 881:Drivers/CMSIS/Include/cmsis_gcc.h **** 
 882:Drivers/CMSIS/Include/cmsis_gcc.h **** 
 883:Drivers/CMSIS/Include/cmsis_gcc.h **** /**
 884:Drivers/CMSIS/Include/cmsis_gcc.h ****   \brief   Data Memory Barrier
 885:Drivers/CMSIS/Include/cmsis_gcc.h ****   \details Ensures the apparent order of the explicit memory operations before
 886:Drivers/CMSIS/Include/cmsis_gcc.h ****            and after the instruction, without ensuring their completion.
 887:Drivers/CMSIS/Include/cmsis_gcc.h ****  */
 888:Drivers/CMSIS/Include/cmsis_gcc.h **** __STATIC_FORCEINLINE void __DMB(void)
 889:Drivers/CMSIS/Include/cmsis_gcc.h **** {
 890:Drivers/CMSIS/Include/cmsis_gcc.h ****   __ASM volatile ("dmb 0xF":::"memory");
 891:Drivers/CMSIS/Include/cmsis_gcc.h **** }
 892:Drivers/CMSIS/Include/cmsis_gcc.h **** 
 893:Drivers/CMSIS/Include/cmsis_gcc.h **** 
 894:Drivers/CMSIS/Include/cmsis_gcc.h **** /**
 895:Drivers/CMSIS/Include/cmsis_gcc.h ****   \brief   Reverse byte order (32 bit)
 896:Drivers/CMSIS/Include/cmsis_gcc.h ****   \details Reverses the byte order in unsigned integer value. For example, 0x12345678 becomes 0x785
 897:Drivers/CMSIS/Include/cmsis_gcc.h ****   \param [in]    value  Value to reverse
 898:Drivers/CMSIS/Include/cmsis_gcc.h ****   \return               Reversed value
 899:Drivers/CMSIS/Include/cmsis_gcc.h ****  */
 900:Drivers/CMSIS/Include/cmsis_gcc.h **** __STATIC_FORCEINLINE uint32_t __REV(uint32_t value)
 901:Drivers/CMSIS/Include/cmsis_gcc.h **** {
 902:Drivers/CMSIS/Include/cmsis_gcc.h **** #if (__GNUC__ > 4) || (__GNUC__ == 4 && __GNUC_MINOR__ >= 5)
 903:Drivers/CMSIS/Include/cmsis_gcc.h ****   return __builtin_bswap32(value);
 904:Drivers/CMSIS/Include/cmsis_gcc.h **** #else
 905:Drivers/CMSIS/Include/cmsis_gcc.h ****   uint32_t result;
 906:Drivers/CMSIS/Include/cmsis_gcc.h **** 
 907:Drivers/CMSIS/Include/cmsis_gcc.h ****   __ASM volatile ("rev %0, %1" : __CMSIS_GCC_OUT_REG (result) : __CMSIS_GCC_USE_REG (value) );
 908:Drivers/CMSIS/Include/cmsis_gcc.h ****   return result;
 909:Drivers/CMSIS/Include/cmsis_gcc.h **** #endif
 910:Drivers/CMSIS/Include/cmsis_gcc.h **** }
 911:Drivers/CMSIS/Include/cmsis_gcc.h **** 
 912:Drivers/CMSIS/Include/cmsis_gcc.h **** 
 913:Drivers/CMSIS/Include/cmsis_gcc.h **** /**
 914:Drivers/CMSIS/Include/cmsis_gcc.h ****   \brief   Reverse byte order (16 bit)
 915:Drivers/CMSIS/Include/cmsis_gcc.h ****   \details Reverses the byte order within each halfword of a word. For example, 0x12345678 becomes 
 916:Drivers/CMSIS/Include/cmsis_gcc.h ****   \param [in]    value  Value to reverse
 917:Drivers/CMSIS/Include/cmsis_gcc.h ****   \return               Reversed value
ARM GAS  /var/folders/n6/c271nzx11xl4r4_m7sqjlt0m0000gn/T//cc9tggTv.s 			page 24


 918:Drivers/CMSIS/Include/cmsis_gcc.h ****  */
 919:Drivers/CMSIS/Include/cmsis_gcc.h **** __STATIC_FORCEINLINE uint32_t __REV16(uint32_t value)
 920:Drivers/CMSIS/Include/cmsis_gcc.h **** {
 921:Drivers/CMSIS/Include/cmsis_gcc.h ****   uint32_t result;
 922:Drivers/CMSIS/Include/cmsis_gcc.h **** 
 923:Drivers/CMSIS/Include/cmsis_gcc.h ****   __ASM volatile ("rev16 %0, %1" : __CMSIS_GCC_OUT_REG (result) : __CMSIS_GCC_USE_REG (value) );
 924:Drivers/CMSIS/Include/cmsis_gcc.h ****   return result;
 925:Drivers/CMSIS/Include/cmsis_gcc.h **** }
 926:Drivers/CMSIS/Include/cmsis_gcc.h **** 
 927:Drivers/CMSIS/Include/cmsis_gcc.h **** 
 928:Drivers/CMSIS/Include/cmsis_gcc.h **** /**
 929:Drivers/CMSIS/Include/cmsis_gcc.h ****   \brief   Reverse byte order (16 bit)
 930:Drivers/CMSIS/Include/cmsis_gcc.h ****   \details Reverses the byte order in a 16-bit value and returns the signed 16-bit result. For exam
 931:Drivers/CMSIS/Include/cmsis_gcc.h ****   \param [in]    value  Value to reverse
 932:Drivers/CMSIS/Include/cmsis_gcc.h ****   \return               Reversed value
 933:Drivers/CMSIS/Include/cmsis_gcc.h ****  */
 934:Drivers/CMSIS/Include/cmsis_gcc.h **** __STATIC_FORCEINLINE int16_t __REVSH(int16_t value)
 935:Drivers/CMSIS/Include/cmsis_gcc.h **** {
 936:Drivers/CMSIS/Include/cmsis_gcc.h **** #if (__GNUC__ > 4) || (__GNUC__ == 4 && __GNUC_MINOR__ >= 8)
 937:Drivers/CMSIS/Include/cmsis_gcc.h ****   return (int16_t)__builtin_bswap16(value);
 938:Drivers/CMSIS/Include/cmsis_gcc.h **** #else
 939:Drivers/CMSIS/Include/cmsis_gcc.h ****   int16_t result;
 940:Drivers/CMSIS/Include/cmsis_gcc.h **** 
 941:Drivers/CMSIS/Include/cmsis_gcc.h ****   __ASM volatile ("revsh %0, %1" : __CMSIS_GCC_OUT_REG (result) : __CMSIS_GCC_USE_REG (value) );
 942:Drivers/CMSIS/Include/cmsis_gcc.h ****   return result;
 943:Drivers/CMSIS/Include/cmsis_gcc.h **** #endif
 944:Drivers/CMSIS/Include/cmsis_gcc.h **** }
 945:Drivers/CMSIS/Include/cmsis_gcc.h **** 
 946:Drivers/CMSIS/Include/cmsis_gcc.h **** 
 947:Drivers/CMSIS/Include/cmsis_gcc.h **** /**
 948:Drivers/CMSIS/Include/cmsis_gcc.h ****   \brief   Rotate Right in unsigned value (32 bit)
 949:Drivers/CMSIS/Include/cmsis_gcc.h ****   \details Rotate Right (immediate) provides the value of the contents of a register rotated by a v
 950:Drivers/CMSIS/Include/cmsis_gcc.h ****   \param [in]    op1  Value to rotate
 951:Drivers/CMSIS/Include/cmsis_gcc.h ****   \param [in]    op2  Number of Bits to rotate
 952:Drivers/CMSIS/Include/cmsis_gcc.h ****   \return               Rotated value
 953:Drivers/CMSIS/Include/cmsis_gcc.h ****  */
 954:Drivers/CMSIS/Include/cmsis_gcc.h **** __STATIC_FORCEINLINE uint32_t __ROR(uint32_t op1, uint32_t op2)
 955:Drivers/CMSIS/Include/cmsis_gcc.h **** {
 956:Drivers/CMSIS/Include/cmsis_gcc.h ****   op2 %= 32U;
 957:Drivers/CMSIS/Include/cmsis_gcc.h ****   if (op2 == 0U)
 958:Drivers/CMSIS/Include/cmsis_gcc.h ****   {
 959:Drivers/CMSIS/Include/cmsis_gcc.h ****     return op1;
 960:Drivers/CMSIS/Include/cmsis_gcc.h ****   }
 961:Drivers/CMSIS/Include/cmsis_gcc.h ****   return (op1 >> op2) | (op1 << (32U - op2));
 962:Drivers/CMSIS/Include/cmsis_gcc.h **** }
 963:Drivers/CMSIS/Include/cmsis_gcc.h **** 
 964:Drivers/CMSIS/Include/cmsis_gcc.h **** 
 965:Drivers/CMSIS/Include/cmsis_gcc.h **** /**
 966:Drivers/CMSIS/Include/cmsis_gcc.h ****   \brief   Breakpoint
 967:Drivers/CMSIS/Include/cmsis_gcc.h ****   \details Causes the processor to enter Debug state.
 968:Drivers/CMSIS/Include/cmsis_gcc.h ****            Debug tools can use this to investigate system state when the instruction at a particula
 969:Drivers/CMSIS/Include/cmsis_gcc.h ****   \param [in]    value  is ignored by the processor.
 970:Drivers/CMSIS/Include/cmsis_gcc.h ****                  If required, a debugger can use it to store additional information about the break
 971:Drivers/CMSIS/Include/cmsis_gcc.h ****  */
 972:Drivers/CMSIS/Include/cmsis_gcc.h **** #define __BKPT(value)                       __ASM volatile ("bkpt "#value)
 973:Drivers/CMSIS/Include/cmsis_gcc.h **** 
 974:Drivers/CMSIS/Include/cmsis_gcc.h **** 
ARM GAS  /var/folders/n6/c271nzx11xl4r4_m7sqjlt0m0000gn/T//cc9tggTv.s 			page 25


 975:Drivers/CMSIS/Include/cmsis_gcc.h **** /**
 976:Drivers/CMSIS/Include/cmsis_gcc.h ****   \brief   Reverse bit order of value
 977:Drivers/CMSIS/Include/cmsis_gcc.h ****   \details Reverses the bit order of the given value.
 978:Drivers/CMSIS/Include/cmsis_gcc.h ****   \param [in]    value  Value to reverse
 979:Drivers/CMSIS/Include/cmsis_gcc.h ****   \return               Reversed value
 980:Drivers/CMSIS/Include/cmsis_gcc.h ****  */
 981:Drivers/CMSIS/Include/cmsis_gcc.h **** __STATIC_FORCEINLINE uint32_t __RBIT(uint32_t value)
 982:Drivers/CMSIS/Include/cmsis_gcc.h **** {
 983:Drivers/CMSIS/Include/cmsis_gcc.h ****   uint32_t result;
 984:Drivers/CMSIS/Include/cmsis_gcc.h **** 
 985:Drivers/CMSIS/Include/cmsis_gcc.h **** #if ((defined (__ARM_ARCH_7M__      ) && (__ARM_ARCH_7M__      == 1)) || \
 986:Drivers/CMSIS/Include/cmsis_gcc.h ****      (defined (__ARM_ARCH_7EM__     ) && (__ARM_ARCH_7EM__     == 1)) || \
 987:Drivers/CMSIS/Include/cmsis_gcc.h ****      (defined (__ARM_ARCH_8M_MAIN__ ) && (__ARM_ARCH_8M_MAIN__ == 1))    )
 988:Drivers/CMSIS/Include/cmsis_gcc.h ****    __ASM volatile ("rbit %0, %1" : "=r" (result) : "r" (value) );
 989:Drivers/CMSIS/Include/cmsis_gcc.h **** #else
 990:Drivers/CMSIS/Include/cmsis_gcc.h ****   uint32_t s = (4U /*sizeof(v)*/ * 8U) - 1U; /* extra shift needed at end */
 991:Drivers/CMSIS/Include/cmsis_gcc.h **** 
 992:Drivers/CMSIS/Include/cmsis_gcc.h ****   result = value;                      /* r will be reversed bits of v; first get LSB of v */
 993:Drivers/CMSIS/Include/cmsis_gcc.h ****   for (value >>= 1U; value != 0U; value >>= 1U)
 994:Drivers/CMSIS/Include/cmsis_gcc.h ****   {
 995:Drivers/CMSIS/Include/cmsis_gcc.h ****     result <<= 1U;
 996:Drivers/CMSIS/Include/cmsis_gcc.h ****     result |= value & 1U;
 997:Drivers/CMSIS/Include/cmsis_gcc.h ****     s--;
 998:Drivers/CMSIS/Include/cmsis_gcc.h ****   }
 999:Drivers/CMSIS/Include/cmsis_gcc.h ****   result <<= s;                        /* shift when v's highest bits are zero */
1000:Drivers/CMSIS/Include/cmsis_gcc.h **** #endif
1001:Drivers/CMSIS/Include/cmsis_gcc.h ****   return result;
1002:Drivers/CMSIS/Include/cmsis_gcc.h **** }
1003:Drivers/CMSIS/Include/cmsis_gcc.h **** 
1004:Drivers/CMSIS/Include/cmsis_gcc.h **** 
1005:Drivers/CMSIS/Include/cmsis_gcc.h **** /**
1006:Drivers/CMSIS/Include/cmsis_gcc.h ****   \brief   Count leading zeros
1007:Drivers/CMSIS/Include/cmsis_gcc.h ****   \details Counts the number of leading zeros of a data value.
1008:Drivers/CMSIS/Include/cmsis_gcc.h ****   \param [in]  value  Value to count the leading zeros
1009:Drivers/CMSIS/Include/cmsis_gcc.h ****   \return             number of leading zeros in value
1010:Drivers/CMSIS/Include/cmsis_gcc.h ****  */
1011:Drivers/CMSIS/Include/cmsis_gcc.h **** #define __CLZ             (uint8_t)__builtin_clz
1012:Drivers/CMSIS/Include/cmsis_gcc.h **** 
1013:Drivers/CMSIS/Include/cmsis_gcc.h **** 
1014:Drivers/CMSIS/Include/cmsis_gcc.h **** #if ((defined (__ARM_ARCH_7M__      ) && (__ARM_ARCH_7M__      == 1)) || \
1015:Drivers/CMSIS/Include/cmsis_gcc.h ****      (defined (__ARM_ARCH_7EM__     ) && (__ARM_ARCH_7EM__     == 1)) || \
1016:Drivers/CMSIS/Include/cmsis_gcc.h ****      (defined (__ARM_ARCH_8M_MAIN__ ) && (__ARM_ARCH_8M_MAIN__ == 1)) || \
1017:Drivers/CMSIS/Include/cmsis_gcc.h ****      (defined (__ARM_ARCH_8M_BASE__ ) && (__ARM_ARCH_8M_BASE__ == 1))    )
1018:Drivers/CMSIS/Include/cmsis_gcc.h **** /**
1019:Drivers/CMSIS/Include/cmsis_gcc.h ****   \brief   LDR Exclusive (8 bit)
1020:Drivers/CMSIS/Include/cmsis_gcc.h ****   \details Executes a exclusive LDR instruction for 8 bit value.
1021:Drivers/CMSIS/Include/cmsis_gcc.h ****   \param [in]    ptr  Pointer to data
1022:Drivers/CMSIS/Include/cmsis_gcc.h ****   \return             value of type uint8_t at (*ptr)
1023:Drivers/CMSIS/Include/cmsis_gcc.h ****  */
1024:Drivers/CMSIS/Include/cmsis_gcc.h **** __STATIC_FORCEINLINE uint8_t __LDREXB(volatile uint8_t *addr)
1025:Drivers/CMSIS/Include/cmsis_gcc.h **** {
1026:Drivers/CMSIS/Include/cmsis_gcc.h ****     uint32_t result;
1027:Drivers/CMSIS/Include/cmsis_gcc.h **** 
1028:Drivers/CMSIS/Include/cmsis_gcc.h **** #if (__GNUC__ > 4) || (__GNUC__ == 4 && __GNUC_MINOR__ >= 8)
1029:Drivers/CMSIS/Include/cmsis_gcc.h ****    __ASM volatile ("ldrexb %0, %1" : "=r" (result) : "Q" (*addr) );
1030:Drivers/CMSIS/Include/cmsis_gcc.h **** #else
1031:Drivers/CMSIS/Include/cmsis_gcc.h ****     /* Prior to GCC 4.8, "Q" will be expanded to [rx, #0] which is not
ARM GAS  /var/folders/n6/c271nzx11xl4r4_m7sqjlt0m0000gn/T//cc9tggTv.s 			page 26


1032:Drivers/CMSIS/Include/cmsis_gcc.h ****        accepted by assembler. So has to use following less efficient pattern.
1033:Drivers/CMSIS/Include/cmsis_gcc.h ****     */
1034:Drivers/CMSIS/Include/cmsis_gcc.h ****    __ASM volatile ("ldrexb %0, [%1]" : "=r" (result) : "r" (addr) : "memory" );
1035:Drivers/CMSIS/Include/cmsis_gcc.h **** #endif
1036:Drivers/CMSIS/Include/cmsis_gcc.h ****    return ((uint8_t) result);    /* Add explicit type cast here */
1037:Drivers/CMSIS/Include/cmsis_gcc.h **** }
1038:Drivers/CMSIS/Include/cmsis_gcc.h **** 
1039:Drivers/CMSIS/Include/cmsis_gcc.h **** 
1040:Drivers/CMSIS/Include/cmsis_gcc.h **** /**
1041:Drivers/CMSIS/Include/cmsis_gcc.h ****   \brief   LDR Exclusive (16 bit)
1042:Drivers/CMSIS/Include/cmsis_gcc.h ****   \details Executes a exclusive LDR instruction for 16 bit values.
1043:Drivers/CMSIS/Include/cmsis_gcc.h ****   \param [in]    ptr  Pointer to data
1044:Drivers/CMSIS/Include/cmsis_gcc.h ****   \return        value of type uint16_t at (*ptr)
1045:Drivers/CMSIS/Include/cmsis_gcc.h ****  */
1046:Drivers/CMSIS/Include/cmsis_gcc.h **** __STATIC_FORCEINLINE uint16_t __LDREXH(volatile uint16_t *addr)
1047:Drivers/CMSIS/Include/cmsis_gcc.h **** {
1048:Drivers/CMSIS/Include/cmsis_gcc.h ****     uint32_t result;
1049:Drivers/CMSIS/Include/cmsis_gcc.h **** 
1050:Drivers/CMSIS/Include/cmsis_gcc.h **** #if (__GNUC__ > 4) || (__GNUC__ == 4 && __GNUC_MINOR__ >= 8)
1051:Drivers/CMSIS/Include/cmsis_gcc.h ****    __ASM volatile ("ldrexh %0, %1" : "=r" (result) : "Q" (*addr) );
1052:Drivers/CMSIS/Include/cmsis_gcc.h **** #else
1053:Drivers/CMSIS/Include/cmsis_gcc.h ****     /* Prior to GCC 4.8, "Q" will be expanded to [rx, #0] which is not
1054:Drivers/CMSIS/Include/cmsis_gcc.h ****        accepted by assembler. So has to use following less efficient pattern.
1055:Drivers/CMSIS/Include/cmsis_gcc.h ****     */
1056:Drivers/CMSIS/Include/cmsis_gcc.h ****    __ASM volatile ("ldrexh %0, [%1]" : "=r" (result) : "r" (addr) : "memory" );
1057:Drivers/CMSIS/Include/cmsis_gcc.h **** #endif
1058:Drivers/CMSIS/Include/cmsis_gcc.h ****    return ((uint16_t) result);    /* Add explicit type cast here */
1059:Drivers/CMSIS/Include/cmsis_gcc.h **** }
1060:Drivers/CMSIS/Include/cmsis_gcc.h **** 
1061:Drivers/CMSIS/Include/cmsis_gcc.h **** 
1062:Drivers/CMSIS/Include/cmsis_gcc.h **** /**
1063:Drivers/CMSIS/Include/cmsis_gcc.h ****   \brief   LDR Exclusive (32 bit)
1064:Drivers/CMSIS/Include/cmsis_gcc.h ****   \details Executes a exclusive LDR instruction for 32 bit values.
1065:Drivers/CMSIS/Include/cmsis_gcc.h ****   \param [in]    ptr  Pointer to data
1066:Drivers/CMSIS/Include/cmsis_gcc.h ****   \return        value of type uint32_t at (*ptr)
1067:Drivers/CMSIS/Include/cmsis_gcc.h ****  */
1068:Drivers/CMSIS/Include/cmsis_gcc.h **** __STATIC_FORCEINLINE uint32_t __LDREXW(volatile uint32_t *addr)
1069:Drivers/CMSIS/Include/cmsis_gcc.h **** {
1070:Drivers/CMSIS/Include/cmsis_gcc.h ****     uint32_t result;
1071:Drivers/CMSIS/Include/cmsis_gcc.h **** 
1072:Drivers/CMSIS/Include/cmsis_gcc.h ****    __ASM volatile ("ldrex %0, %1" : "=r" (result) : "Q" (*addr) );
1073:Drivers/CMSIS/Include/cmsis_gcc.h ****    return(result);
1074:Drivers/CMSIS/Include/cmsis_gcc.h **** }
1075:Drivers/CMSIS/Include/cmsis_gcc.h **** 
1076:Drivers/CMSIS/Include/cmsis_gcc.h **** 
1077:Drivers/CMSIS/Include/cmsis_gcc.h **** /**
1078:Drivers/CMSIS/Include/cmsis_gcc.h ****   \brief   STR Exclusive (8 bit)
1079:Drivers/CMSIS/Include/cmsis_gcc.h ****   \details Executes a exclusive STR instruction for 8 bit values.
1080:Drivers/CMSIS/Include/cmsis_gcc.h ****   \param [in]  value  Value to store
1081:Drivers/CMSIS/Include/cmsis_gcc.h ****   \param [in]    ptr  Pointer to location
1082:Drivers/CMSIS/Include/cmsis_gcc.h ****   \return          0  Function succeeded
1083:Drivers/CMSIS/Include/cmsis_gcc.h ****   \return          1  Function failed
1084:Drivers/CMSIS/Include/cmsis_gcc.h ****  */
1085:Drivers/CMSIS/Include/cmsis_gcc.h **** __STATIC_FORCEINLINE uint32_t __STREXB(uint8_t value, volatile uint8_t *addr)
1086:Drivers/CMSIS/Include/cmsis_gcc.h **** {
1087:Drivers/CMSIS/Include/cmsis_gcc.h ****    uint32_t result;
1088:Drivers/CMSIS/Include/cmsis_gcc.h **** 
ARM GAS  /var/folders/n6/c271nzx11xl4r4_m7sqjlt0m0000gn/T//cc9tggTv.s 			page 27


1089:Drivers/CMSIS/Include/cmsis_gcc.h ****    __ASM volatile ("strexb %0, %2, %1" : "=&r" (result), "=Q" (*addr) : "r" ((uint32_t)value) );
1090:Drivers/CMSIS/Include/cmsis_gcc.h ****    return(result);
1091:Drivers/CMSIS/Include/cmsis_gcc.h **** }
1092:Drivers/CMSIS/Include/cmsis_gcc.h **** 
1093:Drivers/CMSIS/Include/cmsis_gcc.h **** 
1094:Drivers/CMSIS/Include/cmsis_gcc.h **** /**
1095:Drivers/CMSIS/Include/cmsis_gcc.h ****   \brief   STR Exclusive (16 bit)
1096:Drivers/CMSIS/Include/cmsis_gcc.h ****   \details Executes a exclusive STR instruction for 16 bit values.
1097:Drivers/CMSIS/Include/cmsis_gcc.h ****   \param [in]  value  Value to store
1098:Drivers/CMSIS/Include/cmsis_gcc.h ****   \param [in]    ptr  Pointer to location
1099:Drivers/CMSIS/Include/cmsis_gcc.h ****   \return          0  Function succeeded
1100:Drivers/CMSIS/Include/cmsis_gcc.h ****   \return          1  Function failed
1101:Drivers/CMSIS/Include/cmsis_gcc.h ****  */
1102:Drivers/CMSIS/Include/cmsis_gcc.h **** __STATIC_FORCEINLINE uint32_t __STREXH(uint16_t value, volatile uint16_t *addr)
1103:Drivers/CMSIS/Include/cmsis_gcc.h **** {
1104:Drivers/CMSIS/Include/cmsis_gcc.h ****    uint32_t result;
1105:Drivers/CMSIS/Include/cmsis_gcc.h **** 
1106:Drivers/CMSIS/Include/cmsis_gcc.h ****    __ASM volatile ("strexh %0, %2, %1" : "=&r" (result), "=Q" (*addr) : "r" ((uint32_t)value) );
1107:Drivers/CMSIS/Include/cmsis_gcc.h ****    return(result);
1108:Drivers/CMSIS/Include/cmsis_gcc.h **** }
1109:Drivers/CMSIS/Include/cmsis_gcc.h **** 
1110:Drivers/CMSIS/Include/cmsis_gcc.h **** 
1111:Drivers/CMSIS/Include/cmsis_gcc.h **** /**
1112:Drivers/CMSIS/Include/cmsis_gcc.h ****   \brief   STR Exclusive (32 bit)
1113:Drivers/CMSIS/Include/cmsis_gcc.h ****   \details Executes a exclusive STR instruction for 32 bit values.
1114:Drivers/CMSIS/Include/cmsis_gcc.h ****   \param [in]  value  Value to store
1115:Drivers/CMSIS/Include/cmsis_gcc.h ****   \param [in]    ptr  Pointer to location
1116:Drivers/CMSIS/Include/cmsis_gcc.h ****   \return          0  Function succeeded
1117:Drivers/CMSIS/Include/cmsis_gcc.h ****   \return          1  Function failed
1118:Drivers/CMSIS/Include/cmsis_gcc.h ****  */
1119:Drivers/CMSIS/Include/cmsis_gcc.h **** __STATIC_FORCEINLINE uint32_t __STREXW(uint32_t value, volatile uint32_t *addr)
1120:Drivers/CMSIS/Include/cmsis_gcc.h **** {
1121:Drivers/CMSIS/Include/cmsis_gcc.h ****    uint32_t result;
1122:Drivers/CMSIS/Include/cmsis_gcc.h **** 
1123:Drivers/CMSIS/Include/cmsis_gcc.h ****    __ASM volatile ("strex %0, %2, %1" : "=&r" (result), "=Q" (*addr) : "r" (value) );
1124:Drivers/CMSIS/Include/cmsis_gcc.h ****    return(result);
1125:Drivers/CMSIS/Include/cmsis_gcc.h **** }
1126:Drivers/CMSIS/Include/cmsis_gcc.h **** 
1127:Drivers/CMSIS/Include/cmsis_gcc.h **** 
1128:Drivers/CMSIS/Include/cmsis_gcc.h **** /**
1129:Drivers/CMSIS/Include/cmsis_gcc.h ****   \brief   Remove the exclusive lock
1130:Drivers/CMSIS/Include/cmsis_gcc.h ****   \details Removes the exclusive lock which is created by LDREX.
1131:Drivers/CMSIS/Include/cmsis_gcc.h ****  */
1132:Drivers/CMSIS/Include/cmsis_gcc.h **** __STATIC_FORCEINLINE void __CLREX(void)
1133:Drivers/CMSIS/Include/cmsis_gcc.h **** {
1134:Drivers/CMSIS/Include/cmsis_gcc.h ****   __ASM volatile ("clrex" ::: "memory");
1135:Drivers/CMSIS/Include/cmsis_gcc.h **** }
1136:Drivers/CMSIS/Include/cmsis_gcc.h **** 
1137:Drivers/CMSIS/Include/cmsis_gcc.h **** #endif /* ((defined (__ARM_ARCH_7M__      ) && (__ARM_ARCH_7M__      == 1)) || \
1138:Drivers/CMSIS/Include/cmsis_gcc.h ****            (defined (__ARM_ARCH_7EM__     ) && (__ARM_ARCH_7EM__     == 1)) || \
1139:Drivers/CMSIS/Include/cmsis_gcc.h ****            (defined (__ARM_ARCH_8M_MAIN__ ) && (__ARM_ARCH_8M_MAIN__ == 1)) || \
1140:Drivers/CMSIS/Include/cmsis_gcc.h ****            (defined (__ARM_ARCH_8M_BASE__ ) && (__ARM_ARCH_8M_BASE__ == 1))    ) */
1141:Drivers/CMSIS/Include/cmsis_gcc.h **** 
1142:Drivers/CMSIS/Include/cmsis_gcc.h **** 
1143:Drivers/CMSIS/Include/cmsis_gcc.h **** #if ((defined (__ARM_ARCH_7M__      ) && (__ARM_ARCH_7M__      == 1)) || \
1144:Drivers/CMSIS/Include/cmsis_gcc.h ****      (defined (__ARM_ARCH_7EM__     ) && (__ARM_ARCH_7EM__     == 1)) || \
1145:Drivers/CMSIS/Include/cmsis_gcc.h ****      (defined (__ARM_ARCH_8M_MAIN__ ) && (__ARM_ARCH_8M_MAIN__ == 1))    )
ARM GAS  /var/folders/n6/c271nzx11xl4r4_m7sqjlt0m0000gn/T//cc9tggTv.s 			page 28


1146:Drivers/CMSIS/Include/cmsis_gcc.h **** /**
1147:Drivers/CMSIS/Include/cmsis_gcc.h ****   \brief   Signed Saturate
1148:Drivers/CMSIS/Include/cmsis_gcc.h ****   \details Saturates a signed value.
1149:Drivers/CMSIS/Include/cmsis_gcc.h ****   \param [in]  ARG1  Value to be saturated
1150:Drivers/CMSIS/Include/cmsis_gcc.h ****   \param [in]  ARG2  Bit position to saturate to (1..32)
1151:Drivers/CMSIS/Include/cmsis_gcc.h ****   \return             Saturated value
1152:Drivers/CMSIS/Include/cmsis_gcc.h ****  */
1153:Drivers/CMSIS/Include/cmsis_gcc.h **** #define __SSAT(ARG1,ARG2) \
1154:Drivers/CMSIS/Include/cmsis_gcc.h **** __extension__ \
1155:Drivers/CMSIS/Include/cmsis_gcc.h **** ({                          \
1156:Drivers/CMSIS/Include/cmsis_gcc.h ****   int32_t __RES, __ARG1 = (ARG1); \
1157:Drivers/CMSIS/Include/cmsis_gcc.h ****   __ASM ("ssat %0, %1, %2" : "=r" (__RES) :  "I" (ARG2), "r" (__ARG1) ); \
1158:Drivers/CMSIS/Include/cmsis_gcc.h ****   __RES; \
1159:Drivers/CMSIS/Include/cmsis_gcc.h ****  })
1160:Drivers/CMSIS/Include/cmsis_gcc.h **** 
1161:Drivers/CMSIS/Include/cmsis_gcc.h **** 
1162:Drivers/CMSIS/Include/cmsis_gcc.h **** /**
1163:Drivers/CMSIS/Include/cmsis_gcc.h ****   \brief   Unsigned Saturate
1164:Drivers/CMSIS/Include/cmsis_gcc.h ****   \details Saturates an unsigned value.
1165:Drivers/CMSIS/Include/cmsis_gcc.h ****   \param [in]  ARG1  Value to be saturated
1166:Drivers/CMSIS/Include/cmsis_gcc.h ****   \param [in]  ARG2  Bit position to saturate to (0..31)
1167:Drivers/CMSIS/Include/cmsis_gcc.h ****   \return             Saturated value
1168:Drivers/CMSIS/Include/cmsis_gcc.h ****  */
1169:Drivers/CMSIS/Include/cmsis_gcc.h **** #define __USAT(ARG1,ARG2) \
1170:Drivers/CMSIS/Include/cmsis_gcc.h ****  __extension__ \
1171:Drivers/CMSIS/Include/cmsis_gcc.h **** ({                          \
1172:Drivers/CMSIS/Include/cmsis_gcc.h ****   uint32_t __RES, __ARG1 = (ARG1); \
1173:Drivers/CMSIS/Include/cmsis_gcc.h ****   __ASM ("usat %0, %1, %2" : "=r" (__RES) :  "I" (ARG2), "r" (__ARG1) ); \
1174:Drivers/CMSIS/Include/cmsis_gcc.h ****   __RES; \
1175:Drivers/CMSIS/Include/cmsis_gcc.h ****  })
1176:Drivers/CMSIS/Include/cmsis_gcc.h **** 
1177:Drivers/CMSIS/Include/cmsis_gcc.h **** 
1178:Drivers/CMSIS/Include/cmsis_gcc.h **** /**
1179:Drivers/CMSIS/Include/cmsis_gcc.h ****   \brief   Rotate Right with Extend (32 bit)
1180:Drivers/CMSIS/Include/cmsis_gcc.h ****   \details Moves each bit of a bitstring right by one bit.
1181:Drivers/CMSIS/Include/cmsis_gcc.h ****            The carry input is shifted in at the left end of the bitstring.
1182:Drivers/CMSIS/Include/cmsis_gcc.h ****   \param [in]    value  Value to rotate
1183:Drivers/CMSIS/Include/cmsis_gcc.h ****   \return               Rotated value
1184:Drivers/CMSIS/Include/cmsis_gcc.h ****  */
1185:Drivers/CMSIS/Include/cmsis_gcc.h **** __STATIC_FORCEINLINE uint32_t __RRX(uint32_t value)
1186:Drivers/CMSIS/Include/cmsis_gcc.h **** {
1187:Drivers/CMSIS/Include/cmsis_gcc.h ****   uint32_t result;
1188:Drivers/CMSIS/Include/cmsis_gcc.h **** 
1189:Drivers/CMSIS/Include/cmsis_gcc.h ****   __ASM volatile ("rrx %0, %1" : __CMSIS_GCC_OUT_REG (result) : __CMSIS_GCC_USE_REG (value) );
1190:Drivers/CMSIS/Include/cmsis_gcc.h ****   return(result);
1191:Drivers/CMSIS/Include/cmsis_gcc.h **** }
1192:Drivers/CMSIS/Include/cmsis_gcc.h **** 
1193:Drivers/CMSIS/Include/cmsis_gcc.h **** 
1194:Drivers/CMSIS/Include/cmsis_gcc.h **** /**
1195:Drivers/CMSIS/Include/cmsis_gcc.h ****   \brief   LDRT Unprivileged (8 bit)
1196:Drivers/CMSIS/Include/cmsis_gcc.h ****   \details Executes a Unprivileged LDRT instruction for 8 bit value.
1197:Drivers/CMSIS/Include/cmsis_gcc.h ****   \param [in]    ptr  Pointer to data
1198:Drivers/CMSIS/Include/cmsis_gcc.h ****   \return             value of type uint8_t at (*ptr)
1199:Drivers/CMSIS/Include/cmsis_gcc.h ****  */
1200:Drivers/CMSIS/Include/cmsis_gcc.h **** __STATIC_FORCEINLINE uint8_t __LDRBT(volatile uint8_t *ptr)
1201:Drivers/CMSIS/Include/cmsis_gcc.h **** {
1202:Drivers/CMSIS/Include/cmsis_gcc.h ****     uint32_t result;
ARM GAS  /var/folders/n6/c271nzx11xl4r4_m7sqjlt0m0000gn/T//cc9tggTv.s 			page 29


1203:Drivers/CMSIS/Include/cmsis_gcc.h **** 
1204:Drivers/CMSIS/Include/cmsis_gcc.h **** #if (__GNUC__ > 4) || (__GNUC__ == 4 && __GNUC_MINOR__ >= 8)
1205:Drivers/CMSIS/Include/cmsis_gcc.h ****    __ASM volatile ("ldrbt %0, %1" : "=r" (result) : "Q" (*ptr) );
1206:Drivers/CMSIS/Include/cmsis_gcc.h **** #else
1207:Drivers/CMSIS/Include/cmsis_gcc.h ****     /* Prior to GCC 4.8, "Q" will be expanded to [rx, #0] which is not
1208:Drivers/CMSIS/Include/cmsis_gcc.h ****        accepted by assembler. So has to use following less efficient pattern.
1209:Drivers/CMSIS/Include/cmsis_gcc.h ****     */
1210:Drivers/CMSIS/Include/cmsis_gcc.h ****    __ASM volatile ("ldrbt %0, [%1]" : "=r" (result) : "r" (ptr) : "memory" );
1211:Drivers/CMSIS/Include/cmsis_gcc.h **** #endif
1212:Drivers/CMSIS/Include/cmsis_gcc.h ****    return ((uint8_t) result);    /* Add explicit type cast here */
1213:Drivers/CMSIS/Include/cmsis_gcc.h **** }
1214:Drivers/CMSIS/Include/cmsis_gcc.h **** 
1215:Drivers/CMSIS/Include/cmsis_gcc.h **** 
1216:Drivers/CMSIS/Include/cmsis_gcc.h **** /**
1217:Drivers/CMSIS/Include/cmsis_gcc.h ****   \brief   LDRT Unprivileged (16 bit)
1218:Drivers/CMSIS/Include/cmsis_gcc.h ****   \details Executes a Unprivileged LDRT instruction for 16 bit values.
1219:Drivers/CMSIS/Include/cmsis_gcc.h ****   \param [in]    ptr  Pointer to data
1220:Drivers/CMSIS/Include/cmsis_gcc.h ****   \return        value of type uint16_t at (*ptr)
1221:Drivers/CMSIS/Include/cmsis_gcc.h ****  */
1222:Drivers/CMSIS/Include/cmsis_gcc.h **** __STATIC_FORCEINLINE uint16_t __LDRHT(volatile uint16_t *ptr)
1223:Drivers/CMSIS/Include/cmsis_gcc.h **** {
1224:Drivers/CMSIS/Include/cmsis_gcc.h ****     uint32_t result;
1225:Drivers/CMSIS/Include/cmsis_gcc.h **** 
1226:Drivers/CMSIS/Include/cmsis_gcc.h **** #if (__GNUC__ > 4) || (__GNUC__ == 4 && __GNUC_MINOR__ >= 8)
1227:Drivers/CMSIS/Include/cmsis_gcc.h ****    __ASM volatile ("ldrht %0, %1" : "=r" (result) : "Q" (*ptr) );
1228:Drivers/CMSIS/Include/cmsis_gcc.h **** #else
1229:Drivers/CMSIS/Include/cmsis_gcc.h ****     /* Prior to GCC 4.8, "Q" will be expanded to [rx, #0] which is not
1230:Drivers/CMSIS/Include/cmsis_gcc.h ****        accepted by assembler. So has to use following less efficient pattern.
1231:Drivers/CMSIS/Include/cmsis_gcc.h ****     */
1232:Drivers/CMSIS/Include/cmsis_gcc.h ****    __ASM volatile ("ldrht %0, [%1]" : "=r" (result) : "r" (ptr) : "memory" );
1233:Drivers/CMSIS/Include/cmsis_gcc.h **** #endif
1234:Drivers/CMSIS/Include/cmsis_gcc.h ****    return ((uint16_t) result);    /* Add explicit type cast here */
1235:Drivers/CMSIS/Include/cmsis_gcc.h **** }
1236:Drivers/CMSIS/Include/cmsis_gcc.h **** 
1237:Drivers/CMSIS/Include/cmsis_gcc.h **** 
1238:Drivers/CMSIS/Include/cmsis_gcc.h **** /**
1239:Drivers/CMSIS/Include/cmsis_gcc.h ****   \brief   LDRT Unprivileged (32 bit)
1240:Drivers/CMSIS/Include/cmsis_gcc.h ****   \details Executes a Unprivileged LDRT instruction for 32 bit values.
1241:Drivers/CMSIS/Include/cmsis_gcc.h ****   \param [in]    ptr  Pointer to data
1242:Drivers/CMSIS/Include/cmsis_gcc.h ****   \return        value of type uint32_t at (*ptr)
1243:Drivers/CMSIS/Include/cmsis_gcc.h ****  */
1244:Drivers/CMSIS/Include/cmsis_gcc.h **** __STATIC_FORCEINLINE uint32_t __LDRT(volatile uint32_t *ptr)
1245:Drivers/CMSIS/Include/cmsis_gcc.h **** {
1246:Drivers/CMSIS/Include/cmsis_gcc.h ****     uint32_t result;
1247:Drivers/CMSIS/Include/cmsis_gcc.h **** 
1248:Drivers/CMSIS/Include/cmsis_gcc.h ****    __ASM volatile ("ldrt %0, %1" : "=r" (result) : "Q" (*ptr) );
1249:Drivers/CMSIS/Include/cmsis_gcc.h ****    return(result);
1250:Drivers/CMSIS/Include/cmsis_gcc.h **** }
1251:Drivers/CMSIS/Include/cmsis_gcc.h **** 
1252:Drivers/CMSIS/Include/cmsis_gcc.h **** 
1253:Drivers/CMSIS/Include/cmsis_gcc.h **** /**
1254:Drivers/CMSIS/Include/cmsis_gcc.h ****   \brief   STRT Unprivileged (8 bit)
1255:Drivers/CMSIS/Include/cmsis_gcc.h ****   \details Executes a Unprivileged STRT instruction for 8 bit values.
1256:Drivers/CMSIS/Include/cmsis_gcc.h ****   \param [in]  value  Value to store
1257:Drivers/CMSIS/Include/cmsis_gcc.h ****   \param [in]    ptr  Pointer to location
1258:Drivers/CMSIS/Include/cmsis_gcc.h ****  */
1259:Drivers/CMSIS/Include/cmsis_gcc.h **** __STATIC_FORCEINLINE void __STRBT(uint8_t value, volatile uint8_t *ptr)
ARM GAS  /var/folders/n6/c271nzx11xl4r4_m7sqjlt0m0000gn/T//cc9tggTv.s 			page 30


1260:Drivers/CMSIS/Include/cmsis_gcc.h **** {
1261:Drivers/CMSIS/Include/cmsis_gcc.h ****    __ASM volatile ("strbt %1, %0" : "=Q" (*ptr) : "r" ((uint32_t)value) );
1262:Drivers/CMSIS/Include/cmsis_gcc.h **** }
1263:Drivers/CMSIS/Include/cmsis_gcc.h **** 
1264:Drivers/CMSIS/Include/cmsis_gcc.h **** 
1265:Drivers/CMSIS/Include/cmsis_gcc.h **** /**
1266:Drivers/CMSIS/Include/cmsis_gcc.h ****   \brief   STRT Unprivileged (16 bit)
1267:Drivers/CMSIS/Include/cmsis_gcc.h ****   \details Executes a Unprivileged STRT instruction for 16 bit values.
1268:Drivers/CMSIS/Include/cmsis_gcc.h ****   \param [in]  value  Value to store
1269:Drivers/CMSIS/Include/cmsis_gcc.h ****   \param [in]    ptr  Pointer to location
1270:Drivers/CMSIS/Include/cmsis_gcc.h ****  */
1271:Drivers/CMSIS/Include/cmsis_gcc.h **** __STATIC_FORCEINLINE void __STRHT(uint16_t value, volatile uint16_t *ptr)
1272:Drivers/CMSIS/Include/cmsis_gcc.h **** {
1273:Drivers/CMSIS/Include/cmsis_gcc.h ****    __ASM volatile ("strht %1, %0" : "=Q" (*ptr) : "r" ((uint32_t)value) );
1274:Drivers/CMSIS/Include/cmsis_gcc.h **** }
1275:Drivers/CMSIS/Include/cmsis_gcc.h **** 
1276:Drivers/CMSIS/Include/cmsis_gcc.h **** 
1277:Drivers/CMSIS/Include/cmsis_gcc.h **** /**
1278:Drivers/CMSIS/Include/cmsis_gcc.h ****   \brief   STRT Unprivileged (32 bit)
1279:Drivers/CMSIS/Include/cmsis_gcc.h ****   \details Executes a Unprivileged STRT instruction for 32 bit values.
1280:Drivers/CMSIS/Include/cmsis_gcc.h ****   \param [in]  value  Value to store
1281:Drivers/CMSIS/Include/cmsis_gcc.h ****   \param [in]    ptr  Pointer to location
1282:Drivers/CMSIS/Include/cmsis_gcc.h ****  */
1283:Drivers/CMSIS/Include/cmsis_gcc.h **** __STATIC_FORCEINLINE void __STRT(uint32_t value, volatile uint32_t *ptr)
1284:Drivers/CMSIS/Include/cmsis_gcc.h **** {
1285:Drivers/CMSIS/Include/cmsis_gcc.h ****    __ASM volatile ("strt %1, %0" : "=Q" (*ptr) : "r" (value) );
1286:Drivers/CMSIS/Include/cmsis_gcc.h **** }
1287:Drivers/CMSIS/Include/cmsis_gcc.h **** 
1288:Drivers/CMSIS/Include/cmsis_gcc.h **** #else  /* ((defined (__ARM_ARCH_7M__      ) && (__ARM_ARCH_7M__      == 1)) || \
1289:Drivers/CMSIS/Include/cmsis_gcc.h ****            (defined (__ARM_ARCH_7EM__     ) && (__ARM_ARCH_7EM__     == 1)) || \
1290:Drivers/CMSIS/Include/cmsis_gcc.h ****            (defined (__ARM_ARCH_8M_MAIN__ ) && (__ARM_ARCH_8M_MAIN__ == 1))    ) */
1291:Drivers/CMSIS/Include/cmsis_gcc.h **** 
1292:Drivers/CMSIS/Include/cmsis_gcc.h **** /**
1293:Drivers/CMSIS/Include/cmsis_gcc.h ****   \brief   Signed Saturate
1294:Drivers/CMSIS/Include/cmsis_gcc.h ****   \details Saturates a signed value.
1295:Drivers/CMSIS/Include/cmsis_gcc.h ****   \param [in]  value  Value to be saturated
1296:Drivers/CMSIS/Include/cmsis_gcc.h ****   \param [in]    sat  Bit position to saturate to (1..32)
1297:Drivers/CMSIS/Include/cmsis_gcc.h ****   \return             Saturated value
1298:Drivers/CMSIS/Include/cmsis_gcc.h ****  */
1299:Drivers/CMSIS/Include/cmsis_gcc.h **** __STATIC_FORCEINLINE int32_t __SSAT(int32_t val, uint32_t sat)
1300:Drivers/CMSIS/Include/cmsis_gcc.h **** {
1301:Drivers/CMSIS/Include/cmsis_gcc.h ****   if ((sat >= 1U) && (sat <= 32U))
1302:Drivers/CMSIS/Include/cmsis_gcc.h ****   {
1303:Drivers/CMSIS/Include/cmsis_gcc.h ****     const int32_t max = (int32_t)((1U << (sat - 1U)) - 1U);
1304:Drivers/CMSIS/Include/cmsis_gcc.h ****     const int32_t min = -1 - max ;
1305:Drivers/CMSIS/Include/cmsis_gcc.h ****     if (val > max)
1306:Drivers/CMSIS/Include/cmsis_gcc.h ****     {
1307:Drivers/CMSIS/Include/cmsis_gcc.h ****       return max;
1308:Drivers/CMSIS/Include/cmsis_gcc.h ****     }
1309:Drivers/CMSIS/Include/cmsis_gcc.h ****     else if (val < min)
1310:Drivers/CMSIS/Include/cmsis_gcc.h ****     {
1311:Drivers/CMSIS/Include/cmsis_gcc.h ****       return min;
1312:Drivers/CMSIS/Include/cmsis_gcc.h ****     }
1313:Drivers/CMSIS/Include/cmsis_gcc.h ****   }
1314:Drivers/CMSIS/Include/cmsis_gcc.h ****   return val;
1315:Drivers/CMSIS/Include/cmsis_gcc.h **** }
1316:Drivers/CMSIS/Include/cmsis_gcc.h **** 
ARM GAS  /var/folders/n6/c271nzx11xl4r4_m7sqjlt0m0000gn/T//cc9tggTv.s 			page 31


1317:Drivers/CMSIS/Include/cmsis_gcc.h **** /**
1318:Drivers/CMSIS/Include/cmsis_gcc.h ****   \brief   Unsigned Saturate
1319:Drivers/CMSIS/Include/cmsis_gcc.h ****   \details Saturates an unsigned value.
1320:Drivers/CMSIS/Include/cmsis_gcc.h ****   \param [in]  value  Value to be saturated
1321:Drivers/CMSIS/Include/cmsis_gcc.h ****   \param [in]    sat  Bit position to saturate to (0..31)
1322:Drivers/CMSIS/Include/cmsis_gcc.h ****   \return             Saturated value
1323:Drivers/CMSIS/Include/cmsis_gcc.h ****  */
1324:Drivers/CMSIS/Include/cmsis_gcc.h **** __STATIC_FORCEINLINE uint32_t __USAT(int32_t val, uint32_t sat)
1325:Drivers/CMSIS/Include/cmsis_gcc.h **** {
1326:Drivers/CMSIS/Include/cmsis_gcc.h ****   if (sat <= 31U)
1327:Drivers/CMSIS/Include/cmsis_gcc.h ****   {
1328:Drivers/CMSIS/Include/cmsis_gcc.h ****     const uint32_t max = ((1U << sat) - 1U);
1329:Drivers/CMSIS/Include/cmsis_gcc.h ****     if (val > (int32_t)max)
1330:Drivers/CMSIS/Include/cmsis_gcc.h ****     {
1331:Drivers/CMSIS/Include/cmsis_gcc.h ****       return max;
1332:Drivers/CMSIS/Include/cmsis_gcc.h ****     }
1333:Drivers/CMSIS/Include/cmsis_gcc.h ****     else if (val < 0)
1334:Drivers/CMSIS/Include/cmsis_gcc.h ****     {
1335:Drivers/CMSIS/Include/cmsis_gcc.h ****       return 0U;
1336:Drivers/CMSIS/Include/cmsis_gcc.h ****     }
1337:Drivers/CMSIS/Include/cmsis_gcc.h ****   }
1338:Drivers/CMSIS/Include/cmsis_gcc.h ****   return (uint32_t)val;
1339:Drivers/CMSIS/Include/cmsis_gcc.h **** }
1340:Drivers/CMSIS/Include/cmsis_gcc.h **** 
1341:Drivers/CMSIS/Include/cmsis_gcc.h **** #endif /* ((defined (__ARM_ARCH_7M__      ) && (__ARM_ARCH_7M__      == 1)) || \
1342:Drivers/CMSIS/Include/cmsis_gcc.h ****            (defined (__ARM_ARCH_7EM__     ) && (__ARM_ARCH_7EM__     == 1)) || \
1343:Drivers/CMSIS/Include/cmsis_gcc.h ****            (defined (__ARM_ARCH_8M_MAIN__ ) && (__ARM_ARCH_8M_MAIN__ == 1))    ) */
1344:Drivers/CMSIS/Include/cmsis_gcc.h **** 
1345:Drivers/CMSIS/Include/cmsis_gcc.h **** 
1346:Drivers/CMSIS/Include/cmsis_gcc.h **** #if ((defined (__ARM_ARCH_8M_MAIN__ ) && (__ARM_ARCH_8M_MAIN__ == 1)) || \
1347:Drivers/CMSIS/Include/cmsis_gcc.h ****      (defined (__ARM_ARCH_8M_BASE__ ) && (__ARM_ARCH_8M_BASE__ == 1))    )
1348:Drivers/CMSIS/Include/cmsis_gcc.h **** /**
1349:Drivers/CMSIS/Include/cmsis_gcc.h ****   \brief   Load-Acquire (8 bit)
1350:Drivers/CMSIS/Include/cmsis_gcc.h ****   \details Executes a LDAB instruction for 8 bit value.
1351:Drivers/CMSIS/Include/cmsis_gcc.h ****   \param [in]    ptr  Pointer to data
1352:Drivers/CMSIS/Include/cmsis_gcc.h ****   \return             value of type uint8_t at (*ptr)
1353:Drivers/CMSIS/Include/cmsis_gcc.h ****  */
1354:Drivers/CMSIS/Include/cmsis_gcc.h **** __STATIC_FORCEINLINE uint8_t __LDAB(volatile uint8_t *ptr)
1355:Drivers/CMSIS/Include/cmsis_gcc.h **** {
1356:Drivers/CMSIS/Include/cmsis_gcc.h ****     uint32_t result;
1357:Drivers/CMSIS/Include/cmsis_gcc.h **** 
1358:Drivers/CMSIS/Include/cmsis_gcc.h ****    __ASM volatile ("ldab %0, %1" : "=r" (result) : "Q" (*ptr) );
1359:Drivers/CMSIS/Include/cmsis_gcc.h ****    return ((uint8_t) result);
1360:Drivers/CMSIS/Include/cmsis_gcc.h **** }
1361:Drivers/CMSIS/Include/cmsis_gcc.h **** 
1362:Drivers/CMSIS/Include/cmsis_gcc.h **** 
1363:Drivers/CMSIS/Include/cmsis_gcc.h **** /**
1364:Drivers/CMSIS/Include/cmsis_gcc.h ****   \brief   Load-Acquire (16 bit)
1365:Drivers/CMSIS/Include/cmsis_gcc.h ****   \details Executes a LDAH instruction for 16 bit values.
1366:Drivers/CMSIS/Include/cmsis_gcc.h ****   \param [in]    ptr  Pointer to data
1367:Drivers/CMSIS/Include/cmsis_gcc.h ****   \return        value of type uint16_t at (*ptr)
1368:Drivers/CMSIS/Include/cmsis_gcc.h ****  */
1369:Drivers/CMSIS/Include/cmsis_gcc.h **** __STATIC_FORCEINLINE uint16_t __LDAH(volatile uint16_t *ptr)
1370:Drivers/CMSIS/Include/cmsis_gcc.h **** {
1371:Drivers/CMSIS/Include/cmsis_gcc.h ****     uint32_t result;
1372:Drivers/CMSIS/Include/cmsis_gcc.h **** 
1373:Drivers/CMSIS/Include/cmsis_gcc.h ****    __ASM volatile ("ldah %0, %1" : "=r" (result) : "Q" (*ptr) );
ARM GAS  /var/folders/n6/c271nzx11xl4r4_m7sqjlt0m0000gn/T//cc9tggTv.s 			page 32


1374:Drivers/CMSIS/Include/cmsis_gcc.h ****    return ((uint16_t) result);
1375:Drivers/CMSIS/Include/cmsis_gcc.h **** }
1376:Drivers/CMSIS/Include/cmsis_gcc.h **** 
1377:Drivers/CMSIS/Include/cmsis_gcc.h **** 
1378:Drivers/CMSIS/Include/cmsis_gcc.h **** /**
1379:Drivers/CMSIS/Include/cmsis_gcc.h ****   \brief   Load-Acquire (32 bit)
1380:Drivers/CMSIS/Include/cmsis_gcc.h ****   \details Executes a LDA instruction for 32 bit values.
1381:Drivers/CMSIS/Include/cmsis_gcc.h ****   \param [in]    ptr  Pointer to data
1382:Drivers/CMSIS/Include/cmsis_gcc.h ****   \return        value of type uint32_t at (*ptr)
1383:Drivers/CMSIS/Include/cmsis_gcc.h ****  */
1384:Drivers/CMSIS/Include/cmsis_gcc.h **** __STATIC_FORCEINLINE uint32_t __LDA(volatile uint32_t *ptr)
1385:Drivers/CMSIS/Include/cmsis_gcc.h **** {
1386:Drivers/CMSIS/Include/cmsis_gcc.h ****     uint32_t result;
1387:Drivers/CMSIS/Include/cmsis_gcc.h **** 
1388:Drivers/CMSIS/Include/cmsis_gcc.h ****    __ASM volatile ("lda %0, %1" : "=r" (result) : "Q" (*ptr) );
1389:Drivers/CMSIS/Include/cmsis_gcc.h ****    return(result);
1390:Drivers/CMSIS/Include/cmsis_gcc.h **** }
1391:Drivers/CMSIS/Include/cmsis_gcc.h **** 
1392:Drivers/CMSIS/Include/cmsis_gcc.h **** 
1393:Drivers/CMSIS/Include/cmsis_gcc.h **** /**
1394:Drivers/CMSIS/Include/cmsis_gcc.h ****   \brief   Store-Release (8 bit)
1395:Drivers/CMSIS/Include/cmsis_gcc.h ****   \details Executes a STLB instruction for 8 bit values.
1396:Drivers/CMSIS/Include/cmsis_gcc.h ****   \param [in]  value  Value to store
1397:Drivers/CMSIS/Include/cmsis_gcc.h ****   \param [in]    ptr  Pointer to location
1398:Drivers/CMSIS/Include/cmsis_gcc.h ****  */
1399:Drivers/CMSIS/Include/cmsis_gcc.h **** __STATIC_FORCEINLINE void __STLB(uint8_t value, volatile uint8_t *ptr)
1400:Drivers/CMSIS/Include/cmsis_gcc.h **** {
1401:Drivers/CMSIS/Include/cmsis_gcc.h ****    __ASM volatile ("stlb %1, %0" : "=Q" (*ptr) : "r" ((uint32_t)value) );
1402:Drivers/CMSIS/Include/cmsis_gcc.h **** }
1403:Drivers/CMSIS/Include/cmsis_gcc.h **** 
1404:Drivers/CMSIS/Include/cmsis_gcc.h **** 
1405:Drivers/CMSIS/Include/cmsis_gcc.h **** /**
1406:Drivers/CMSIS/Include/cmsis_gcc.h ****   \brief   Store-Release (16 bit)
1407:Drivers/CMSIS/Include/cmsis_gcc.h ****   \details Executes a STLH instruction for 16 bit values.
1408:Drivers/CMSIS/Include/cmsis_gcc.h ****   \param [in]  value  Value to store
1409:Drivers/CMSIS/Include/cmsis_gcc.h ****   \param [in]    ptr  Pointer to location
1410:Drivers/CMSIS/Include/cmsis_gcc.h ****  */
1411:Drivers/CMSIS/Include/cmsis_gcc.h **** __STATIC_FORCEINLINE void __STLH(uint16_t value, volatile uint16_t *ptr)
1412:Drivers/CMSIS/Include/cmsis_gcc.h **** {
1413:Drivers/CMSIS/Include/cmsis_gcc.h ****    __ASM volatile ("stlh %1, %0" : "=Q" (*ptr) : "r" ((uint32_t)value) );
1414:Drivers/CMSIS/Include/cmsis_gcc.h **** }
1415:Drivers/CMSIS/Include/cmsis_gcc.h **** 
1416:Drivers/CMSIS/Include/cmsis_gcc.h **** 
1417:Drivers/CMSIS/Include/cmsis_gcc.h **** /**
1418:Drivers/CMSIS/Include/cmsis_gcc.h ****   \brief   Store-Release (32 bit)
1419:Drivers/CMSIS/Include/cmsis_gcc.h ****   \details Executes a STL instruction for 32 bit values.
1420:Drivers/CMSIS/Include/cmsis_gcc.h ****   \param [in]  value  Value to store
1421:Drivers/CMSIS/Include/cmsis_gcc.h ****   \param [in]    ptr  Pointer to location
1422:Drivers/CMSIS/Include/cmsis_gcc.h ****  */
1423:Drivers/CMSIS/Include/cmsis_gcc.h **** __STATIC_FORCEINLINE void __STL(uint32_t value, volatile uint32_t *ptr)
1424:Drivers/CMSIS/Include/cmsis_gcc.h **** {
1425:Drivers/CMSIS/Include/cmsis_gcc.h ****    __ASM volatile ("stl %1, %0" : "=Q" (*ptr) : "r" ((uint32_t)value) );
1426:Drivers/CMSIS/Include/cmsis_gcc.h **** }
1427:Drivers/CMSIS/Include/cmsis_gcc.h **** 
1428:Drivers/CMSIS/Include/cmsis_gcc.h **** 
1429:Drivers/CMSIS/Include/cmsis_gcc.h **** /**
1430:Drivers/CMSIS/Include/cmsis_gcc.h ****   \brief   Load-Acquire Exclusive (8 bit)
ARM GAS  /var/folders/n6/c271nzx11xl4r4_m7sqjlt0m0000gn/T//cc9tggTv.s 			page 33


1431:Drivers/CMSIS/Include/cmsis_gcc.h ****   \details Executes a LDAB exclusive instruction for 8 bit value.
1432:Drivers/CMSIS/Include/cmsis_gcc.h ****   \param [in]    ptr  Pointer to data
1433:Drivers/CMSIS/Include/cmsis_gcc.h ****   \return             value of type uint8_t at (*ptr)
1434:Drivers/CMSIS/Include/cmsis_gcc.h ****  */
1435:Drivers/CMSIS/Include/cmsis_gcc.h **** __STATIC_FORCEINLINE uint8_t __LDAEXB(volatile uint8_t *ptr)
1436:Drivers/CMSIS/Include/cmsis_gcc.h **** {
1437:Drivers/CMSIS/Include/cmsis_gcc.h ****     uint32_t result;
1438:Drivers/CMSIS/Include/cmsis_gcc.h **** 
1439:Drivers/CMSIS/Include/cmsis_gcc.h ****    __ASM volatile ("ldaexb %0, %1" : "=r" (result) : "Q" (*ptr) );
1440:Drivers/CMSIS/Include/cmsis_gcc.h ****    return ((uint8_t) result);
1441:Drivers/CMSIS/Include/cmsis_gcc.h **** }
1442:Drivers/CMSIS/Include/cmsis_gcc.h **** 
1443:Drivers/CMSIS/Include/cmsis_gcc.h **** 
1444:Drivers/CMSIS/Include/cmsis_gcc.h **** /**
1445:Drivers/CMSIS/Include/cmsis_gcc.h ****   \brief   Load-Acquire Exclusive (16 bit)
1446:Drivers/CMSIS/Include/cmsis_gcc.h ****   \details Executes a LDAH exclusive instruction for 16 bit values.
1447:Drivers/CMSIS/Include/cmsis_gcc.h ****   \param [in]    ptr  Pointer to data
1448:Drivers/CMSIS/Include/cmsis_gcc.h ****   \return        value of type uint16_t at (*ptr)
1449:Drivers/CMSIS/Include/cmsis_gcc.h ****  */
1450:Drivers/CMSIS/Include/cmsis_gcc.h **** __STATIC_FORCEINLINE uint16_t __LDAEXH(volatile uint16_t *ptr)
1451:Drivers/CMSIS/Include/cmsis_gcc.h **** {
1452:Drivers/CMSIS/Include/cmsis_gcc.h ****     uint32_t result;
1453:Drivers/CMSIS/Include/cmsis_gcc.h **** 
1454:Drivers/CMSIS/Include/cmsis_gcc.h ****    __ASM volatile ("ldaexh %0, %1" : "=r" (result) : "Q" (*ptr) );
1455:Drivers/CMSIS/Include/cmsis_gcc.h ****    return ((uint16_t) result);
1456:Drivers/CMSIS/Include/cmsis_gcc.h **** }
1457:Drivers/CMSIS/Include/cmsis_gcc.h **** 
1458:Drivers/CMSIS/Include/cmsis_gcc.h **** 
1459:Drivers/CMSIS/Include/cmsis_gcc.h **** /**
1460:Drivers/CMSIS/Include/cmsis_gcc.h ****   \brief   Load-Acquire Exclusive (32 bit)
1461:Drivers/CMSIS/Include/cmsis_gcc.h ****   \details Executes a LDA exclusive instruction for 32 bit values.
1462:Drivers/CMSIS/Include/cmsis_gcc.h ****   \param [in]    ptr  Pointer to data
1463:Drivers/CMSIS/Include/cmsis_gcc.h ****   \return        value of type uint32_t at (*ptr)
1464:Drivers/CMSIS/Include/cmsis_gcc.h ****  */
1465:Drivers/CMSIS/Include/cmsis_gcc.h **** __STATIC_FORCEINLINE uint32_t __LDAEX(volatile uint32_t *ptr)
1466:Drivers/CMSIS/Include/cmsis_gcc.h **** {
1467:Drivers/CMSIS/Include/cmsis_gcc.h ****     uint32_t result;
1468:Drivers/CMSIS/Include/cmsis_gcc.h **** 
1469:Drivers/CMSIS/Include/cmsis_gcc.h ****    __ASM volatile ("ldaex %0, %1" : "=r" (result) : "Q" (*ptr) );
1470:Drivers/CMSIS/Include/cmsis_gcc.h ****    return(result);
1471:Drivers/CMSIS/Include/cmsis_gcc.h **** }
1472:Drivers/CMSIS/Include/cmsis_gcc.h **** 
1473:Drivers/CMSIS/Include/cmsis_gcc.h **** 
1474:Drivers/CMSIS/Include/cmsis_gcc.h **** /**
1475:Drivers/CMSIS/Include/cmsis_gcc.h ****   \brief   Store-Release Exclusive (8 bit)
1476:Drivers/CMSIS/Include/cmsis_gcc.h ****   \details Executes a STLB exclusive instruction for 8 bit values.
1477:Drivers/CMSIS/Include/cmsis_gcc.h ****   \param [in]  value  Value to store
1478:Drivers/CMSIS/Include/cmsis_gcc.h ****   \param [in]    ptr  Pointer to location
1479:Drivers/CMSIS/Include/cmsis_gcc.h ****   \return          0  Function succeeded
1480:Drivers/CMSIS/Include/cmsis_gcc.h ****   \return          1  Function failed
1481:Drivers/CMSIS/Include/cmsis_gcc.h ****  */
1482:Drivers/CMSIS/Include/cmsis_gcc.h **** __STATIC_FORCEINLINE uint32_t __STLEXB(uint8_t value, volatile uint8_t *ptr)
1483:Drivers/CMSIS/Include/cmsis_gcc.h **** {
1484:Drivers/CMSIS/Include/cmsis_gcc.h ****    uint32_t result;
1485:Drivers/CMSIS/Include/cmsis_gcc.h **** 
1486:Drivers/CMSIS/Include/cmsis_gcc.h ****    __ASM volatile ("stlexb %0, %2, %1" : "=&r" (result), "=Q" (*ptr) : "r" ((uint32_t)value) );
1487:Drivers/CMSIS/Include/cmsis_gcc.h ****    return(result);
ARM GAS  /var/folders/n6/c271nzx11xl4r4_m7sqjlt0m0000gn/T//cc9tggTv.s 			page 34


1488:Drivers/CMSIS/Include/cmsis_gcc.h **** }
1489:Drivers/CMSIS/Include/cmsis_gcc.h **** 
1490:Drivers/CMSIS/Include/cmsis_gcc.h **** 
1491:Drivers/CMSIS/Include/cmsis_gcc.h **** /**
1492:Drivers/CMSIS/Include/cmsis_gcc.h ****   \brief   Store-Release Exclusive (16 bit)
1493:Drivers/CMSIS/Include/cmsis_gcc.h ****   \details Executes a STLH exclusive instruction for 16 bit values.
1494:Drivers/CMSIS/Include/cmsis_gcc.h ****   \param [in]  value  Value to store
1495:Drivers/CMSIS/Include/cmsis_gcc.h ****   \param [in]    ptr  Pointer to location
1496:Drivers/CMSIS/Include/cmsis_gcc.h ****   \return          0  Function succeeded
1497:Drivers/CMSIS/Include/cmsis_gcc.h ****   \return          1  Function failed
1498:Drivers/CMSIS/Include/cmsis_gcc.h ****  */
1499:Drivers/CMSIS/Include/cmsis_gcc.h **** __STATIC_FORCEINLINE uint32_t __STLEXH(uint16_t value, volatile uint16_t *ptr)
1500:Drivers/CMSIS/Include/cmsis_gcc.h **** {
1501:Drivers/CMSIS/Include/cmsis_gcc.h ****    uint32_t result;
1502:Drivers/CMSIS/Include/cmsis_gcc.h **** 
1503:Drivers/CMSIS/Include/cmsis_gcc.h ****    __ASM volatile ("stlexh %0, %2, %1" : "=&r" (result), "=Q" (*ptr) : "r" ((uint32_t)value) );
1504:Drivers/CMSIS/Include/cmsis_gcc.h ****    return(result);
1505:Drivers/CMSIS/Include/cmsis_gcc.h **** }
1506:Drivers/CMSIS/Include/cmsis_gcc.h **** 
1507:Drivers/CMSIS/Include/cmsis_gcc.h **** 
1508:Drivers/CMSIS/Include/cmsis_gcc.h **** /**
1509:Drivers/CMSIS/Include/cmsis_gcc.h ****   \brief   Store-Release Exclusive (32 bit)
1510:Drivers/CMSIS/Include/cmsis_gcc.h ****   \details Executes a STL exclusive instruction for 32 bit values.
1511:Drivers/CMSIS/Include/cmsis_gcc.h ****   \param [in]  value  Value to store
1512:Drivers/CMSIS/Include/cmsis_gcc.h ****   \param [in]    ptr  Pointer to location
1513:Drivers/CMSIS/Include/cmsis_gcc.h ****   \return          0  Function succeeded
1514:Drivers/CMSIS/Include/cmsis_gcc.h ****   \return          1  Function failed
1515:Drivers/CMSIS/Include/cmsis_gcc.h ****  */
1516:Drivers/CMSIS/Include/cmsis_gcc.h **** __STATIC_FORCEINLINE uint32_t __STLEX(uint32_t value, volatile uint32_t *ptr)
1517:Drivers/CMSIS/Include/cmsis_gcc.h **** {
1518:Drivers/CMSIS/Include/cmsis_gcc.h ****    uint32_t result;
1519:Drivers/CMSIS/Include/cmsis_gcc.h **** 
1520:Drivers/CMSIS/Include/cmsis_gcc.h ****    __ASM volatile ("stlex %0, %2, %1" : "=&r" (result), "=Q" (*ptr) : "r" ((uint32_t)value) );
1521:Drivers/CMSIS/Include/cmsis_gcc.h ****    return(result);
1522:Drivers/CMSIS/Include/cmsis_gcc.h **** }
1523:Drivers/CMSIS/Include/cmsis_gcc.h **** 
1524:Drivers/CMSIS/Include/cmsis_gcc.h **** #endif /* ((defined (__ARM_ARCH_8M_MAIN__ ) && (__ARM_ARCH_8M_MAIN__ == 1)) || \
1525:Drivers/CMSIS/Include/cmsis_gcc.h ****            (defined (__ARM_ARCH_8M_BASE__ ) && (__ARM_ARCH_8M_BASE__ == 1))    ) */
1526:Drivers/CMSIS/Include/cmsis_gcc.h **** 
1527:Drivers/CMSIS/Include/cmsis_gcc.h **** /*@}*/ /* end of group CMSIS_Core_InstructionInterface */
1528:Drivers/CMSIS/Include/cmsis_gcc.h **** 
1529:Drivers/CMSIS/Include/cmsis_gcc.h **** 
1530:Drivers/CMSIS/Include/cmsis_gcc.h **** /* ###################  Compiler specific Intrinsics  ########################### */
1531:Drivers/CMSIS/Include/cmsis_gcc.h **** /** \defgroup CMSIS_SIMD_intrinsics CMSIS SIMD Intrinsics
1532:Drivers/CMSIS/Include/cmsis_gcc.h ****   Access to dedicated SIMD instructions
1533:Drivers/CMSIS/Include/cmsis_gcc.h ****   @{
1534:Drivers/CMSIS/Include/cmsis_gcc.h **** */
1535:Drivers/CMSIS/Include/cmsis_gcc.h **** 
1536:Drivers/CMSIS/Include/cmsis_gcc.h **** #if (defined (__ARM_FEATURE_DSP) && (__ARM_FEATURE_DSP == 1))
1537:Drivers/CMSIS/Include/cmsis_gcc.h **** 
1538:Drivers/CMSIS/Include/cmsis_gcc.h **** __STATIC_FORCEINLINE uint32_t __SADD8(uint32_t op1, uint32_t op2)
1539:Drivers/CMSIS/Include/cmsis_gcc.h **** {
1540:Drivers/CMSIS/Include/cmsis_gcc.h ****   uint32_t result;
1541:Drivers/CMSIS/Include/cmsis_gcc.h **** 
1542:Drivers/CMSIS/Include/cmsis_gcc.h ****   __ASM volatile ("sadd8 %0, %1, %2" : "=r" (result) : "r" (op1), "r" (op2) );
1543:Drivers/CMSIS/Include/cmsis_gcc.h ****   return(result);
1544:Drivers/CMSIS/Include/cmsis_gcc.h **** }
ARM GAS  /var/folders/n6/c271nzx11xl4r4_m7sqjlt0m0000gn/T//cc9tggTv.s 			page 35


1545:Drivers/CMSIS/Include/cmsis_gcc.h **** 
1546:Drivers/CMSIS/Include/cmsis_gcc.h **** __STATIC_FORCEINLINE uint32_t __QADD8(uint32_t op1, uint32_t op2)
1547:Drivers/CMSIS/Include/cmsis_gcc.h **** {
1548:Drivers/CMSIS/Include/cmsis_gcc.h ****   uint32_t result;
1549:Drivers/CMSIS/Include/cmsis_gcc.h **** 
1550:Drivers/CMSIS/Include/cmsis_gcc.h ****   __ASM volatile ("qadd8 %0, %1, %2" : "=r" (result) : "r" (op1), "r" (op2) );
1551:Drivers/CMSIS/Include/cmsis_gcc.h ****   return(result);
1552:Drivers/CMSIS/Include/cmsis_gcc.h **** }
1553:Drivers/CMSIS/Include/cmsis_gcc.h **** 
1554:Drivers/CMSIS/Include/cmsis_gcc.h **** __STATIC_FORCEINLINE uint32_t __SHADD8(uint32_t op1, uint32_t op2)
1555:Drivers/CMSIS/Include/cmsis_gcc.h **** {
1556:Drivers/CMSIS/Include/cmsis_gcc.h ****   uint32_t result;
1557:Drivers/CMSIS/Include/cmsis_gcc.h **** 
1558:Drivers/CMSIS/Include/cmsis_gcc.h ****   __ASM volatile ("shadd8 %0, %1, %2" : "=r" (result) : "r" (op1), "r" (op2) );
1559:Drivers/CMSIS/Include/cmsis_gcc.h ****   return(result);
1560:Drivers/CMSIS/Include/cmsis_gcc.h **** }
1561:Drivers/CMSIS/Include/cmsis_gcc.h **** 
1562:Drivers/CMSIS/Include/cmsis_gcc.h **** __STATIC_FORCEINLINE uint32_t __UADD8(uint32_t op1, uint32_t op2)
1563:Drivers/CMSIS/Include/cmsis_gcc.h **** {
1564:Drivers/CMSIS/Include/cmsis_gcc.h ****   uint32_t result;
1565:Drivers/CMSIS/Include/cmsis_gcc.h **** 
1566:Drivers/CMSIS/Include/cmsis_gcc.h ****   __ASM volatile ("uadd8 %0, %1, %2" : "=r" (result) : "r" (op1), "r" (op2) );
1567:Drivers/CMSIS/Include/cmsis_gcc.h ****   return(result);
1568:Drivers/CMSIS/Include/cmsis_gcc.h **** }
1569:Drivers/CMSIS/Include/cmsis_gcc.h **** 
1570:Drivers/CMSIS/Include/cmsis_gcc.h **** __STATIC_FORCEINLINE uint32_t __UQADD8(uint32_t op1, uint32_t op2)
1571:Drivers/CMSIS/Include/cmsis_gcc.h **** {
1572:Drivers/CMSIS/Include/cmsis_gcc.h ****   uint32_t result;
1573:Drivers/CMSIS/Include/cmsis_gcc.h **** 
1574:Drivers/CMSIS/Include/cmsis_gcc.h ****   __ASM volatile ("uqadd8 %0, %1, %2" : "=r" (result) : "r" (op1), "r" (op2) );
1575:Drivers/CMSIS/Include/cmsis_gcc.h ****   return(result);
1576:Drivers/CMSIS/Include/cmsis_gcc.h **** }
1577:Drivers/CMSIS/Include/cmsis_gcc.h **** 
1578:Drivers/CMSIS/Include/cmsis_gcc.h **** __STATIC_FORCEINLINE uint32_t __UHADD8(uint32_t op1, uint32_t op2)
1579:Drivers/CMSIS/Include/cmsis_gcc.h **** {
1580:Drivers/CMSIS/Include/cmsis_gcc.h ****   uint32_t result;
1581:Drivers/CMSIS/Include/cmsis_gcc.h **** 
1582:Drivers/CMSIS/Include/cmsis_gcc.h ****   __ASM volatile ("uhadd8 %0, %1, %2" : "=r" (result) : "r" (op1), "r" (op2) );
1583:Drivers/CMSIS/Include/cmsis_gcc.h ****   return(result);
1584:Drivers/CMSIS/Include/cmsis_gcc.h **** }
1585:Drivers/CMSIS/Include/cmsis_gcc.h **** 
1586:Drivers/CMSIS/Include/cmsis_gcc.h **** 
1587:Drivers/CMSIS/Include/cmsis_gcc.h **** __STATIC_FORCEINLINE uint32_t __SSUB8(uint32_t op1, uint32_t op2)
1588:Drivers/CMSIS/Include/cmsis_gcc.h **** {
1589:Drivers/CMSIS/Include/cmsis_gcc.h ****   uint32_t result;
1590:Drivers/CMSIS/Include/cmsis_gcc.h **** 
1591:Drivers/CMSIS/Include/cmsis_gcc.h ****   __ASM volatile ("ssub8 %0, %1, %2" : "=r" (result) : "r" (op1), "r" (op2) );
1592:Drivers/CMSIS/Include/cmsis_gcc.h ****   return(result);
1593:Drivers/CMSIS/Include/cmsis_gcc.h **** }
1594:Drivers/CMSIS/Include/cmsis_gcc.h **** 
1595:Drivers/CMSIS/Include/cmsis_gcc.h **** __STATIC_FORCEINLINE uint32_t __QSUB8(uint32_t op1, uint32_t op2)
1596:Drivers/CMSIS/Include/cmsis_gcc.h **** {
1597:Drivers/CMSIS/Include/cmsis_gcc.h ****   uint32_t result;
1598:Drivers/CMSIS/Include/cmsis_gcc.h **** 
1599:Drivers/CMSIS/Include/cmsis_gcc.h ****   __ASM volatile ("qsub8 %0, %1, %2" : "=r" (result) : "r" (op1), "r" (op2) );
1600:Drivers/CMSIS/Include/cmsis_gcc.h ****   return(result);
1601:Drivers/CMSIS/Include/cmsis_gcc.h **** }
ARM GAS  /var/folders/n6/c271nzx11xl4r4_m7sqjlt0m0000gn/T//cc9tggTv.s 			page 36


1602:Drivers/CMSIS/Include/cmsis_gcc.h **** 
1603:Drivers/CMSIS/Include/cmsis_gcc.h **** __STATIC_FORCEINLINE uint32_t __SHSUB8(uint32_t op1, uint32_t op2)
1604:Drivers/CMSIS/Include/cmsis_gcc.h **** {
1605:Drivers/CMSIS/Include/cmsis_gcc.h ****   uint32_t result;
1606:Drivers/CMSIS/Include/cmsis_gcc.h **** 
1607:Drivers/CMSIS/Include/cmsis_gcc.h ****   __ASM volatile ("shsub8 %0, %1, %2" : "=r" (result) : "r" (op1), "r" (op2) );
1608:Drivers/CMSIS/Include/cmsis_gcc.h ****   return(result);
1609:Drivers/CMSIS/Include/cmsis_gcc.h **** }
1610:Drivers/CMSIS/Include/cmsis_gcc.h **** 
1611:Drivers/CMSIS/Include/cmsis_gcc.h **** __STATIC_FORCEINLINE uint32_t __USUB8(uint32_t op1, uint32_t op2)
1612:Drivers/CMSIS/Include/cmsis_gcc.h **** {
1613:Drivers/CMSIS/Include/cmsis_gcc.h ****   uint32_t result;
1614:Drivers/CMSIS/Include/cmsis_gcc.h **** 
1615:Drivers/CMSIS/Include/cmsis_gcc.h ****   __ASM volatile ("usub8 %0, %1, %2" : "=r" (result) : "r" (op1), "r" (op2) );
1616:Drivers/CMSIS/Include/cmsis_gcc.h ****   return(result);
1617:Drivers/CMSIS/Include/cmsis_gcc.h **** }
1618:Drivers/CMSIS/Include/cmsis_gcc.h **** 
1619:Drivers/CMSIS/Include/cmsis_gcc.h **** __STATIC_FORCEINLINE uint32_t __UQSUB8(uint32_t op1, uint32_t op2)
1620:Drivers/CMSIS/Include/cmsis_gcc.h **** {
1621:Drivers/CMSIS/Include/cmsis_gcc.h ****   uint32_t result;
1622:Drivers/CMSIS/Include/cmsis_gcc.h **** 
1623:Drivers/CMSIS/Include/cmsis_gcc.h ****   __ASM volatile ("uqsub8 %0, %1, %2" : "=r" (result) : "r" (op1), "r" (op2) );
1624:Drivers/CMSIS/Include/cmsis_gcc.h ****   return(result);
1625:Drivers/CMSIS/Include/cmsis_gcc.h **** }
1626:Drivers/CMSIS/Include/cmsis_gcc.h **** 
1627:Drivers/CMSIS/Include/cmsis_gcc.h **** __STATIC_FORCEINLINE uint32_t __UHSUB8(uint32_t op1, uint32_t op2)
1628:Drivers/CMSIS/Include/cmsis_gcc.h **** {
1629:Drivers/CMSIS/Include/cmsis_gcc.h ****   uint32_t result;
1630:Drivers/CMSIS/Include/cmsis_gcc.h **** 
1631:Drivers/CMSIS/Include/cmsis_gcc.h ****   __ASM volatile ("uhsub8 %0, %1, %2" : "=r" (result) : "r" (op1), "r" (op2) );
1632:Drivers/CMSIS/Include/cmsis_gcc.h ****   return(result);
1633:Drivers/CMSIS/Include/cmsis_gcc.h **** }
1634:Drivers/CMSIS/Include/cmsis_gcc.h **** 
1635:Drivers/CMSIS/Include/cmsis_gcc.h **** 
1636:Drivers/CMSIS/Include/cmsis_gcc.h **** __STATIC_FORCEINLINE uint32_t __SADD16(uint32_t op1, uint32_t op2)
1637:Drivers/CMSIS/Include/cmsis_gcc.h **** {
1638:Drivers/CMSIS/Include/cmsis_gcc.h ****   uint32_t result;
1639:Drivers/CMSIS/Include/cmsis_gcc.h **** 
1640:Drivers/CMSIS/Include/cmsis_gcc.h ****   __ASM volatile ("sadd16 %0, %1, %2" : "=r" (result) : "r" (op1), "r" (op2) );
1641:Drivers/CMSIS/Include/cmsis_gcc.h ****   return(result);
1642:Drivers/CMSIS/Include/cmsis_gcc.h **** }
1643:Drivers/CMSIS/Include/cmsis_gcc.h **** 
1644:Drivers/CMSIS/Include/cmsis_gcc.h **** __STATIC_FORCEINLINE uint32_t __QADD16(uint32_t op1, uint32_t op2)
1645:Drivers/CMSIS/Include/cmsis_gcc.h **** {
1646:Drivers/CMSIS/Include/cmsis_gcc.h ****   uint32_t result;
1647:Drivers/CMSIS/Include/cmsis_gcc.h **** 
1648:Drivers/CMSIS/Include/cmsis_gcc.h ****   __ASM volatile ("qadd16 %0, %1, %2" : "=r" (result) : "r" (op1), "r" (op2) );
1649:Drivers/CMSIS/Include/cmsis_gcc.h ****   return(result);
1650:Drivers/CMSIS/Include/cmsis_gcc.h **** }
1651:Drivers/CMSIS/Include/cmsis_gcc.h **** 
1652:Drivers/CMSIS/Include/cmsis_gcc.h **** __STATIC_FORCEINLINE uint32_t __SHADD16(uint32_t op1, uint32_t op2)
1653:Drivers/CMSIS/Include/cmsis_gcc.h **** {
1654:Drivers/CMSIS/Include/cmsis_gcc.h ****   uint32_t result;
1655:Drivers/CMSIS/Include/cmsis_gcc.h **** 
1656:Drivers/CMSIS/Include/cmsis_gcc.h ****   __ASM volatile ("shadd16 %0, %1, %2" : "=r" (result) : "r" (op1), "r" (op2) );
1657:Drivers/CMSIS/Include/cmsis_gcc.h ****   return(result);
1658:Drivers/CMSIS/Include/cmsis_gcc.h **** }
ARM GAS  /var/folders/n6/c271nzx11xl4r4_m7sqjlt0m0000gn/T//cc9tggTv.s 			page 37


1659:Drivers/CMSIS/Include/cmsis_gcc.h **** 
1660:Drivers/CMSIS/Include/cmsis_gcc.h **** __STATIC_FORCEINLINE uint32_t __UADD16(uint32_t op1, uint32_t op2)
1661:Drivers/CMSIS/Include/cmsis_gcc.h **** {
1662:Drivers/CMSIS/Include/cmsis_gcc.h ****   uint32_t result;
1663:Drivers/CMSIS/Include/cmsis_gcc.h **** 
1664:Drivers/CMSIS/Include/cmsis_gcc.h ****   __ASM volatile ("uadd16 %0, %1, %2" : "=r" (result) : "r" (op1), "r" (op2) );
1665:Drivers/CMSIS/Include/cmsis_gcc.h ****   return(result);
1666:Drivers/CMSIS/Include/cmsis_gcc.h **** }
1667:Drivers/CMSIS/Include/cmsis_gcc.h **** 
1668:Drivers/CMSIS/Include/cmsis_gcc.h **** __STATIC_FORCEINLINE uint32_t __UQADD16(uint32_t op1, uint32_t op2)
1669:Drivers/CMSIS/Include/cmsis_gcc.h **** {
1670:Drivers/CMSIS/Include/cmsis_gcc.h ****   uint32_t result;
1671:Drivers/CMSIS/Include/cmsis_gcc.h **** 
1672:Drivers/CMSIS/Include/cmsis_gcc.h ****   __ASM volatile ("uqadd16 %0, %1, %2" : "=r" (result) : "r" (op1), "r" (op2) );
1673:Drivers/CMSIS/Include/cmsis_gcc.h ****   return(result);
1674:Drivers/CMSIS/Include/cmsis_gcc.h **** }
1675:Drivers/CMSIS/Include/cmsis_gcc.h **** 
1676:Drivers/CMSIS/Include/cmsis_gcc.h **** __STATIC_FORCEINLINE uint32_t __UHADD16(uint32_t op1, uint32_t op2)
1677:Drivers/CMSIS/Include/cmsis_gcc.h **** {
1678:Drivers/CMSIS/Include/cmsis_gcc.h ****   uint32_t result;
1679:Drivers/CMSIS/Include/cmsis_gcc.h **** 
1680:Drivers/CMSIS/Include/cmsis_gcc.h ****   __ASM volatile ("uhadd16 %0, %1, %2" : "=r" (result) : "r" (op1), "r" (op2) );
1681:Drivers/CMSIS/Include/cmsis_gcc.h ****   return(result);
1682:Drivers/CMSIS/Include/cmsis_gcc.h **** }
1683:Drivers/CMSIS/Include/cmsis_gcc.h **** 
1684:Drivers/CMSIS/Include/cmsis_gcc.h **** __STATIC_FORCEINLINE uint32_t __SSUB16(uint32_t op1, uint32_t op2)
1685:Drivers/CMSIS/Include/cmsis_gcc.h **** {
1686:Drivers/CMSIS/Include/cmsis_gcc.h ****   uint32_t result;
1687:Drivers/CMSIS/Include/cmsis_gcc.h **** 
1688:Drivers/CMSIS/Include/cmsis_gcc.h ****   __ASM volatile ("ssub16 %0, %1, %2" : "=r" (result) : "r" (op1), "r" (op2) );
1689:Drivers/CMSIS/Include/cmsis_gcc.h ****   return(result);
1690:Drivers/CMSIS/Include/cmsis_gcc.h **** }
1691:Drivers/CMSIS/Include/cmsis_gcc.h **** 
1692:Drivers/CMSIS/Include/cmsis_gcc.h **** __STATIC_FORCEINLINE uint32_t __QSUB16(uint32_t op1, uint32_t op2)
1693:Drivers/CMSIS/Include/cmsis_gcc.h **** {
1694:Drivers/CMSIS/Include/cmsis_gcc.h ****   uint32_t result;
1695:Drivers/CMSIS/Include/cmsis_gcc.h **** 
1696:Drivers/CMSIS/Include/cmsis_gcc.h ****   __ASM volatile ("qsub16 %0, %1, %2" : "=r" (result) : "r" (op1), "r" (op2) );
1697:Drivers/CMSIS/Include/cmsis_gcc.h ****   return(result);
1698:Drivers/CMSIS/Include/cmsis_gcc.h **** }
1699:Drivers/CMSIS/Include/cmsis_gcc.h **** 
1700:Drivers/CMSIS/Include/cmsis_gcc.h **** __STATIC_FORCEINLINE uint32_t __SHSUB16(uint32_t op1, uint32_t op2)
1701:Drivers/CMSIS/Include/cmsis_gcc.h **** {
1702:Drivers/CMSIS/Include/cmsis_gcc.h ****   uint32_t result;
1703:Drivers/CMSIS/Include/cmsis_gcc.h **** 
1704:Drivers/CMSIS/Include/cmsis_gcc.h ****   __ASM volatile ("shsub16 %0, %1, %2" : "=r" (result) : "r" (op1), "r" (op2) );
1705:Drivers/CMSIS/Include/cmsis_gcc.h ****   return(result);
1706:Drivers/CMSIS/Include/cmsis_gcc.h **** }
1707:Drivers/CMSIS/Include/cmsis_gcc.h **** 
1708:Drivers/CMSIS/Include/cmsis_gcc.h **** __STATIC_FORCEINLINE uint32_t __USUB16(uint32_t op1, uint32_t op2)
1709:Drivers/CMSIS/Include/cmsis_gcc.h **** {
1710:Drivers/CMSIS/Include/cmsis_gcc.h ****   uint32_t result;
1711:Drivers/CMSIS/Include/cmsis_gcc.h **** 
1712:Drivers/CMSIS/Include/cmsis_gcc.h ****   __ASM volatile ("usub16 %0, %1, %2" : "=r" (result) : "r" (op1), "r" (op2) );
1713:Drivers/CMSIS/Include/cmsis_gcc.h ****   return(result);
1714:Drivers/CMSIS/Include/cmsis_gcc.h **** }
1715:Drivers/CMSIS/Include/cmsis_gcc.h **** 
ARM GAS  /var/folders/n6/c271nzx11xl4r4_m7sqjlt0m0000gn/T//cc9tggTv.s 			page 38


1716:Drivers/CMSIS/Include/cmsis_gcc.h **** __STATIC_FORCEINLINE uint32_t __UQSUB16(uint32_t op1, uint32_t op2)
1717:Drivers/CMSIS/Include/cmsis_gcc.h **** {
1718:Drivers/CMSIS/Include/cmsis_gcc.h ****   uint32_t result;
1719:Drivers/CMSIS/Include/cmsis_gcc.h **** 
1720:Drivers/CMSIS/Include/cmsis_gcc.h ****   __ASM volatile ("uqsub16 %0, %1, %2" : "=r" (result) : "r" (op1), "r" (op2) );
1721:Drivers/CMSIS/Include/cmsis_gcc.h ****   return(result);
1722:Drivers/CMSIS/Include/cmsis_gcc.h **** }
1723:Drivers/CMSIS/Include/cmsis_gcc.h **** 
1724:Drivers/CMSIS/Include/cmsis_gcc.h **** __STATIC_FORCEINLINE uint32_t __UHSUB16(uint32_t op1, uint32_t op2)
1725:Drivers/CMSIS/Include/cmsis_gcc.h **** {
1726:Drivers/CMSIS/Include/cmsis_gcc.h ****   uint32_t result;
1727:Drivers/CMSIS/Include/cmsis_gcc.h **** 
1728:Drivers/CMSIS/Include/cmsis_gcc.h ****   __ASM volatile ("uhsub16 %0, %1, %2" : "=r" (result) : "r" (op1), "r" (op2) );
1729:Drivers/CMSIS/Include/cmsis_gcc.h ****   return(result);
1730:Drivers/CMSIS/Include/cmsis_gcc.h **** }
1731:Drivers/CMSIS/Include/cmsis_gcc.h **** 
1732:Drivers/CMSIS/Include/cmsis_gcc.h **** __STATIC_FORCEINLINE uint32_t __SASX(uint32_t op1, uint32_t op2)
1733:Drivers/CMSIS/Include/cmsis_gcc.h **** {
1734:Drivers/CMSIS/Include/cmsis_gcc.h ****   uint32_t result;
1735:Drivers/CMSIS/Include/cmsis_gcc.h **** 
1736:Drivers/CMSIS/Include/cmsis_gcc.h ****   __ASM volatile ("sasx %0, %1, %2" : "=r" (result) : "r" (op1), "r" (op2) );
1737:Drivers/CMSIS/Include/cmsis_gcc.h ****   return(result);
1738:Drivers/CMSIS/Include/cmsis_gcc.h **** }
1739:Drivers/CMSIS/Include/cmsis_gcc.h **** 
1740:Drivers/CMSIS/Include/cmsis_gcc.h **** __STATIC_FORCEINLINE uint32_t __QASX(uint32_t op1, uint32_t op2)
1741:Drivers/CMSIS/Include/cmsis_gcc.h **** {
1742:Drivers/CMSIS/Include/cmsis_gcc.h ****   uint32_t result;
1743:Drivers/CMSIS/Include/cmsis_gcc.h **** 
1744:Drivers/CMSIS/Include/cmsis_gcc.h ****   __ASM volatile ("qasx %0, %1, %2" : "=r" (result) : "r" (op1), "r" (op2) );
1745:Drivers/CMSIS/Include/cmsis_gcc.h ****   return(result);
1746:Drivers/CMSIS/Include/cmsis_gcc.h **** }
1747:Drivers/CMSIS/Include/cmsis_gcc.h **** 
1748:Drivers/CMSIS/Include/cmsis_gcc.h **** __STATIC_FORCEINLINE uint32_t __SHASX(uint32_t op1, uint32_t op2)
1749:Drivers/CMSIS/Include/cmsis_gcc.h **** {
1750:Drivers/CMSIS/Include/cmsis_gcc.h ****   uint32_t result;
1751:Drivers/CMSIS/Include/cmsis_gcc.h **** 
1752:Drivers/CMSIS/Include/cmsis_gcc.h ****   __ASM volatile ("shasx %0, %1, %2" : "=r" (result) : "r" (op1), "r" (op2) );
1753:Drivers/CMSIS/Include/cmsis_gcc.h ****   return(result);
1754:Drivers/CMSIS/Include/cmsis_gcc.h **** }
1755:Drivers/CMSIS/Include/cmsis_gcc.h **** 
1756:Drivers/CMSIS/Include/cmsis_gcc.h **** __STATIC_FORCEINLINE uint32_t __UASX(uint32_t op1, uint32_t op2)
1757:Drivers/CMSIS/Include/cmsis_gcc.h **** {
1758:Drivers/CMSIS/Include/cmsis_gcc.h ****   uint32_t result;
1759:Drivers/CMSIS/Include/cmsis_gcc.h **** 
1760:Drivers/CMSIS/Include/cmsis_gcc.h ****   __ASM volatile ("uasx %0, %1, %2" : "=r" (result) : "r" (op1), "r" (op2) );
1761:Drivers/CMSIS/Include/cmsis_gcc.h ****   return(result);
1762:Drivers/CMSIS/Include/cmsis_gcc.h **** }
1763:Drivers/CMSIS/Include/cmsis_gcc.h **** 
1764:Drivers/CMSIS/Include/cmsis_gcc.h **** __STATIC_FORCEINLINE uint32_t __UQASX(uint32_t op1, uint32_t op2)
1765:Drivers/CMSIS/Include/cmsis_gcc.h **** {
1766:Drivers/CMSIS/Include/cmsis_gcc.h ****   uint32_t result;
1767:Drivers/CMSIS/Include/cmsis_gcc.h **** 
1768:Drivers/CMSIS/Include/cmsis_gcc.h ****   __ASM volatile ("uqasx %0, %1, %2" : "=r" (result) : "r" (op1), "r" (op2) );
1769:Drivers/CMSIS/Include/cmsis_gcc.h ****   return(result);
1770:Drivers/CMSIS/Include/cmsis_gcc.h **** }
1771:Drivers/CMSIS/Include/cmsis_gcc.h **** 
1772:Drivers/CMSIS/Include/cmsis_gcc.h **** __STATIC_FORCEINLINE uint32_t __UHASX(uint32_t op1, uint32_t op2)
ARM GAS  /var/folders/n6/c271nzx11xl4r4_m7sqjlt0m0000gn/T//cc9tggTv.s 			page 39


1773:Drivers/CMSIS/Include/cmsis_gcc.h **** {
1774:Drivers/CMSIS/Include/cmsis_gcc.h ****   uint32_t result;
1775:Drivers/CMSIS/Include/cmsis_gcc.h **** 
1776:Drivers/CMSIS/Include/cmsis_gcc.h ****   __ASM volatile ("uhasx %0, %1, %2" : "=r" (result) : "r" (op1), "r" (op2) );
1777:Drivers/CMSIS/Include/cmsis_gcc.h ****   return(result);
1778:Drivers/CMSIS/Include/cmsis_gcc.h **** }
1779:Drivers/CMSIS/Include/cmsis_gcc.h **** 
1780:Drivers/CMSIS/Include/cmsis_gcc.h **** __STATIC_FORCEINLINE uint32_t __SSAX(uint32_t op1, uint32_t op2)
1781:Drivers/CMSIS/Include/cmsis_gcc.h **** {
1782:Drivers/CMSIS/Include/cmsis_gcc.h ****   uint32_t result;
1783:Drivers/CMSIS/Include/cmsis_gcc.h **** 
1784:Drivers/CMSIS/Include/cmsis_gcc.h ****   __ASM volatile ("ssax %0, %1, %2" : "=r" (result) : "r" (op1), "r" (op2) );
1785:Drivers/CMSIS/Include/cmsis_gcc.h ****   return(result);
1786:Drivers/CMSIS/Include/cmsis_gcc.h **** }
1787:Drivers/CMSIS/Include/cmsis_gcc.h **** 
1788:Drivers/CMSIS/Include/cmsis_gcc.h **** __STATIC_FORCEINLINE uint32_t __QSAX(uint32_t op1, uint32_t op2)
1789:Drivers/CMSIS/Include/cmsis_gcc.h **** {
1790:Drivers/CMSIS/Include/cmsis_gcc.h ****   uint32_t result;
1791:Drivers/CMSIS/Include/cmsis_gcc.h **** 
1792:Drivers/CMSIS/Include/cmsis_gcc.h ****   __ASM volatile ("qsax %0, %1, %2" : "=r" (result) : "r" (op1), "r" (op2) );
1793:Drivers/CMSIS/Include/cmsis_gcc.h ****   return(result);
1794:Drivers/CMSIS/Include/cmsis_gcc.h **** }
1795:Drivers/CMSIS/Include/cmsis_gcc.h **** 
1796:Drivers/CMSIS/Include/cmsis_gcc.h **** __STATIC_FORCEINLINE uint32_t __SHSAX(uint32_t op1, uint32_t op2)
1797:Drivers/CMSIS/Include/cmsis_gcc.h **** {
1798:Drivers/CMSIS/Include/cmsis_gcc.h ****   uint32_t result;
1799:Drivers/CMSIS/Include/cmsis_gcc.h **** 
1800:Drivers/CMSIS/Include/cmsis_gcc.h ****   __ASM volatile ("shsax %0, %1, %2" : "=r" (result) : "r" (op1), "r" (op2) );
1801:Drivers/CMSIS/Include/cmsis_gcc.h ****   return(result);
1802:Drivers/CMSIS/Include/cmsis_gcc.h **** }
1803:Drivers/CMSIS/Include/cmsis_gcc.h **** 
1804:Drivers/CMSIS/Include/cmsis_gcc.h **** __STATIC_FORCEINLINE uint32_t __USAX(uint32_t op1, uint32_t op2)
1805:Drivers/CMSIS/Include/cmsis_gcc.h **** {
1806:Drivers/CMSIS/Include/cmsis_gcc.h ****   uint32_t result;
1807:Drivers/CMSIS/Include/cmsis_gcc.h **** 
1808:Drivers/CMSIS/Include/cmsis_gcc.h ****   __ASM volatile ("usax %0, %1, %2" : "=r" (result) : "r" (op1), "r" (op2) );
1809:Drivers/CMSIS/Include/cmsis_gcc.h ****   return(result);
1810:Drivers/CMSIS/Include/cmsis_gcc.h **** }
1811:Drivers/CMSIS/Include/cmsis_gcc.h **** 
1812:Drivers/CMSIS/Include/cmsis_gcc.h **** __STATIC_FORCEINLINE uint32_t __UQSAX(uint32_t op1, uint32_t op2)
1813:Drivers/CMSIS/Include/cmsis_gcc.h **** {
1814:Drivers/CMSIS/Include/cmsis_gcc.h ****   uint32_t result;
1815:Drivers/CMSIS/Include/cmsis_gcc.h **** 
1816:Drivers/CMSIS/Include/cmsis_gcc.h ****   __ASM volatile ("uqsax %0, %1, %2" : "=r" (result) : "r" (op1), "r" (op2) );
1817:Drivers/CMSIS/Include/cmsis_gcc.h ****   return(result);
1818:Drivers/CMSIS/Include/cmsis_gcc.h **** }
1819:Drivers/CMSIS/Include/cmsis_gcc.h **** 
1820:Drivers/CMSIS/Include/cmsis_gcc.h **** __STATIC_FORCEINLINE uint32_t __UHSAX(uint32_t op1, uint32_t op2)
1821:Drivers/CMSIS/Include/cmsis_gcc.h **** {
1822:Drivers/CMSIS/Include/cmsis_gcc.h ****   uint32_t result;
1823:Drivers/CMSIS/Include/cmsis_gcc.h **** 
1824:Drivers/CMSIS/Include/cmsis_gcc.h ****   __ASM volatile ("uhsax %0, %1, %2" : "=r" (result) : "r" (op1), "r" (op2) );
1825:Drivers/CMSIS/Include/cmsis_gcc.h ****   return(result);
1826:Drivers/CMSIS/Include/cmsis_gcc.h **** }
1827:Drivers/CMSIS/Include/cmsis_gcc.h **** 
1828:Drivers/CMSIS/Include/cmsis_gcc.h **** __STATIC_FORCEINLINE uint32_t __USAD8(uint32_t op1, uint32_t op2)
1829:Drivers/CMSIS/Include/cmsis_gcc.h **** {
ARM GAS  /var/folders/n6/c271nzx11xl4r4_m7sqjlt0m0000gn/T//cc9tggTv.s 			page 40


1830:Drivers/CMSIS/Include/cmsis_gcc.h ****   uint32_t result;
1831:Drivers/CMSIS/Include/cmsis_gcc.h **** 
1832:Drivers/CMSIS/Include/cmsis_gcc.h ****   __ASM volatile ("usad8 %0, %1, %2" : "=r" (result) : "r" (op1), "r" (op2) );
1833:Drivers/CMSIS/Include/cmsis_gcc.h ****   return(result);
1834:Drivers/CMSIS/Include/cmsis_gcc.h **** }
1835:Drivers/CMSIS/Include/cmsis_gcc.h **** 
1836:Drivers/CMSIS/Include/cmsis_gcc.h **** __STATIC_FORCEINLINE uint32_t __USADA8(uint32_t op1, uint32_t op2, uint32_t op3)
1837:Drivers/CMSIS/Include/cmsis_gcc.h **** {
1838:Drivers/CMSIS/Include/cmsis_gcc.h ****   uint32_t result;
1839:Drivers/CMSIS/Include/cmsis_gcc.h **** 
1840:Drivers/CMSIS/Include/cmsis_gcc.h ****   __ASM volatile ("usada8 %0, %1, %2, %3" : "=r" (result) : "r" (op1), "r" (op2), "r" (op3) );
1841:Drivers/CMSIS/Include/cmsis_gcc.h ****   return(result);
1842:Drivers/CMSIS/Include/cmsis_gcc.h **** }
1843:Drivers/CMSIS/Include/cmsis_gcc.h **** 
1844:Drivers/CMSIS/Include/cmsis_gcc.h **** #define __SSAT16(ARG1,ARG2) \
1845:Drivers/CMSIS/Include/cmsis_gcc.h **** ({                          \
1846:Drivers/CMSIS/Include/cmsis_gcc.h ****   int32_t __RES, __ARG1 = (ARG1); \
1847:Drivers/CMSIS/Include/cmsis_gcc.h ****   __ASM ("ssat16 %0, %1, %2" : "=r" (__RES) :  "I" (ARG2), "r" (__ARG1) ); \
1848:Drivers/CMSIS/Include/cmsis_gcc.h ****   __RES; \
1849:Drivers/CMSIS/Include/cmsis_gcc.h ****  })
1850:Drivers/CMSIS/Include/cmsis_gcc.h **** 
1851:Drivers/CMSIS/Include/cmsis_gcc.h **** #define __USAT16(ARG1,ARG2) \
1852:Drivers/CMSIS/Include/cmsis_gcc.h **** ({                          \
1853:Drivers/CMSIS/Include/cmsis_gcc.h ****   uint32_t __RES, __ARG1 = (ARG1); \
1854:Drivers/CMSIS/Include/cmsis_gcc.h ****   __ASM ("usat16 %0, %1, %2" : "=r" (__RES) :  "I" (ARG2), "r" (__ARG1) ); \
1855:Drivers/CMSIS/Include/cmsis_gcc.h ****   __RES; \
1856:Drivers/CMSIS/Include/cmsis_gcc.h ****  })
1857:Drivers/CMSIS/Include/cmsis_gcc.h **** 
1858:Drivers/CMSIS/Include/cmsis_gcc.h **** __STATIC_FORCEINLINE uint32_t __UXTB16(uint32_t op1)
1859:Drivers/CMSIS/Include/cmsis_gcc.h **** {
1860:Drivers/CMSIS/Include/cmsis_gcc.h ****   uint32_t result;
1861:Drivers/CMSIS/Include/cmsis_gcc.h **** 
1862:Drivers/CMSIS/Include/cmsis_gcc.h ****   __ASM volatile ("uxtb16 %0, %1" : "=r" (result) : "r" (op1));
1863:Drivers/CMSIS/Include/cmsis_gcc.h ****   return(result);
1864:Drivers/CMSIS/Include/cmsis_gcc.h **** }
1865:Drivers/CMSIS/Include/cmsis_gcc.h **** 
1866:Drivers/CMSIS/Include/cmsis_gcc.h **** __STATIC_FORCEINLINE uint32_t __UXTAB16(uint32_t op1, uint32_t op2)
1867:Drivers/CMSIS/Include/cmsis_gcc.h **** {
1868:Drivers/CMSIS/Include/cmsis_gcc.h ****   uint32_t result;
1869:Drivers/CMSIS/Include/cmsis_gcc.h **** 
1870:Drivers/CMSIS/Include/cmsis_gcc.h ****   __ASM volatile ("uxtab16 %0, %1, %2" : "=r" (result) : "r" (op1), "r" (op2) );
1871:Drivers/CMSIS/Include/cmsis_gcc.h ****   return(result);
1872:Drivers/CMSIS/Include/cmsis_gcc.h **** }
1873:Drivers/CMSIS/Include/cmsis_gcc.h **** 
1874:Drivers/CMSIS/Include/cmsis_gcc.h **** __STATIC_FORCEINLINE uint32_t __SXTB16(uint32_t op1)
1875:Drivers/CMSIS/Include/cmsis_gcc.h **** {
1876:Drivers/CMSIS/Include/cmsis_gcc.h ****   uint32_t result;
1877:Drivers/CMSIS/Include/cmsis_gcc.h **** 
1878:Drivers/CMSIS/Include/cmsis_gcc.h ****   __ASM volatile ("sxtb16 %0, %1" : "=r" (result) : "r" (op1));
1879:Drivers/CMSIS/Include/cmsis_gcc.h ****   return(result);
1880:Drivers/CMSIS/Include/cmsis_gcc.h **** }
1881:Drivers/CMSIS/Include/cmsis_gcc.h **** 
1882:Drivers/CMSIS/Include/cmsis_gcc.h **** __STATIC_FORCEINLINE uint32_t __SXTAB16(uint32_t op1, uint32_t op2)
1883:Drivers/CMSIS/Include/cmsis_gcc.h **** {
1884:Drivers/CMSIS/Include/cmsis_gcc.h ****   uint32_t result;
1885:Drivers/CMSIS/Include/cmsis_gcc.h **** 
1886:Drivers/CMSIS/Include/cmsis_gcc.h ****   __ASM volatile ("sxtab16 %0, %1, %2" : "=r" (result) : "r" (op1), "r" (op2) );
ARM GAS  /var/folders/n6/c271nzx11xl4r4_m7sqjlt0m0000gn/T//cc9tggTv.s 			page 41


1887:Drivers/CMSIS/Include/cmsis_gcc.h ****   return(result);
1888:Drivers/CMSIS/Include/cmsis_gcc.h **** }
1889:Drivers/CMSIS/Include/cmsis_gcc.h **** 
1890:Drivers/CMSIS/Include/cmsis_gcc.h **** __STATIC_FORCEINLINE uint32_t __SMUAD  (uint32_t op1, uint32_t op2)
1891:Drivers/CMSIS/Include/cmsis_gcc.h **** {
1892:Drivers/CMSIS/Include/cmsis_gcc.h ****   uint32_t result;
1893:Drivers/CMSIS/Include/cmsis_gcc.h **** 
1894:Drivers/CMSIS/Include/cmsis_gcc.h ****   __ASM volatile ("smuad %0, %1, %2" : "=r" (result) : "r" (op1), "r" (op2) );
1895:Drivers/CMSIS/Include/cmsis_gcc.h ****   return(result);
1896:Drivers/CMSIS/Include/cmsis_gcc.h **** }
1897:Drivers/CMSIS/Include/cmsis_gcc.h **** 
1898:Drivers/CMSIS/Include/cmsis_gcc.h **** __STATIC_FORCEINLINE uint32_t __SMUADX (uint32_t op1, uint32_t op2)
1899:Drivers/CMSIS/Include/cmsis_gcc.h **** {
1900:Drivers/CMSIS/Include/cmsis_gcc.h ****   uint32_t result;
1901:Drivers/CMSIS/Include/cmsis_gcc.h **** 
1902:Drivers/CMSIS/Include/cmsis_gcc.h ****   __ASM volatile ("smuadx %0, %1, %2" : "=r" (result) : "r" (op1), "r" (op2) );
1903:Drivers/CMSIS/Include/cmsis_gcc.h ****   return(result);
1904:Drivers/CMSIS/Include/cmsis_gcc.h **** }
1905:Drivers/CMSIS/Include/cmsis_gcc.h **** 
1906:Drivers/CMSIS/Include/cmsis_gcc.h **** __STATIC_FORCEINLINE uint32_t __SMLAD (uint32_t op1, uint32_t op2, uint32_t op3)
1907:Drivers/CMSIS/Include/cmsis_gcc.h **** {
1908:Drivers/CMSIS/Include/cmsis_gcc.h ****   uint32_t result;
1909:Drivers/CMSIS/Include/cmsis_gcc.h **** 
1910:Drivers/CMSIS/Include/cmsis_gcc.h ****   __ASM volatile ("smlad %0, %1, %2, %3" : "=r" (result) : "r" (op1), "r" (op2), "r" (op3) );
1911:Drivers/CMSIS/Include/cmsis_gcc.h ****   return(result);
1912:Drivers/CMSIS/Include/cmsis_gcc.h **** }
1913:Drivers/CMSIS/Include/cmsis_gcc.h **** 
1914:Drivers/CMSIS/Include/cmsis_gcc.h **** __STATIC_FORCEINLINE uint32_t __SMLADX (uint32_t op1, uint32_t op2, uint32_t op3)
1915:Drivers/CMSIS/Include/cmsis_gcc.h **** {
1916:Drivers/CMSIS/Include/cmsis_gcc.h ****   uint32_t result;
1917:Drivers/CMSIS/Include/cmsis_gcc.h **** 
1918:Drivers/CMSIS/Include/cmsis_gcc.h ****   __ASM volatile ("smladx %0, %1, %2, %3" : "=r" (result) : "r" (op1), "r" (op2), "r" (op3) );
1919:Drivers/CMSIS/Include/cmsis_gcc.h ****   return(result);
1920:Drivers/CMSIS/Include/cmsis_gcc.h **** }
1921:Drivers/CMSIS/Include/cmsis_gcc.h **** 
1922:Drivers/CMSIS/Include/cmsis_gcc.h **** __STATIC_FORCEINLINE uint64_t __SMLALD (uint32_t op1, uint32_t op2, uint64_t acc)
 201              		.loc 2 1922 31 is_stmt 1 view .LVU64
 202              	.LBB77:
1923:Drivers/CMSIS/Include/cmsis_gcc.h **** {
1924:Drivers/CMSIS/Include/cmsis_gcc.h ****   union llreg_u{
 203              		.loc 2 1924 3 view .LVU65
1925:Drivers/CMSIS/Include/cmsis_gcc.h ****     uint32_t w32[2];
1926:Drivers/CMSIS/Include/cmsis_gcc.h ****     uint64_t w64;
1927:Drivers/CMSIS/Include/cmsis_gcc.h ****   } llr;
1928:Drivers/CMSIS/Include/cmsis_gcc.h ****   llr.w64 = acc;
 204              		.loc 2 1928 3 view .LVU66
1929:Drivers/CMSIS/Include/cmsis_gcc.h **** 
1930:Drivers/CMSIS/Include/cmsis_gcc.h **** #ifndef __ARMEB__   /* Little endian */
1931:Drivers/CMSIS/Include/cmsis_gcc.h ****   __ASM volatile ("smlald %0, %1, %2, %3" : "=r" (llr.w32[0]), "=r" (llr.w32[1]): "r" (op1), "r" (o
 205              		.loc 2 1931 3 view .LVU67
 206              		.syntax unified
 207              	@ 1931 "Drivers/CMSIS/Include/cmsis_gcc.h" 1
 208 0092 CEFBCA32 		smlald r3, r2, lr, r10
 209              	@ 0 "" 2
 210              	.LVL25:
1932:Drivers/CMSIS/Include/cmsis_gcc.h **** #else               /* Big endian */
1933:Drivers/CMSIS/Include/cmsis_gcc.h ****   __ASM volatile ("smlald %0, %1, %2, %3" : "=r" (llr.w32[1]), "=r" (llr.w32[0]): "r" (op1), "r" (o
ARM GAS  /var/folders/n6/c271nzx11xl4r4_m7sqjlt0m0000gn/T//cc9tggTv.s 			page 42


1934:Drivers/CMSIS/Include/cmsis_gcc.h **** #endif
1935:Drivers/CMSIS/Include/cmsis_gcc.h **** 
1936:Drivers/CMSIS/Include/cmsis_gcc.h ****   return(llr.w64);
 211              		.loc 2 1936 3 view .LVU68
 212              		.loc 2 1936 3 is_stmt 0 view .LVU69
 213              		.thumb
 214              		.syntax unified
 215              	.LBE77:
 216              	.LBE76:
 189:Drivers/CMSIS/DSP/Source/FilteringFunctions/arm_conv_partial_q15.c **** 
 190:Drivers/CMSIS/DSP/Source/FilteringFunctions/arm_conv_partial_q15.c ****         /* Decrement the loop counter */
 191:Drivers/CMSIS/DSP/Source/FilteringFunctions/arm_conv_partial_q15.c ****         k--;
 217              		.loc 1 191 9 is_stmt 1 view .LVU70
 218              		.loc 1 191 10 is_stmt 0 view .LVU71
 219 0096 013D     		subs	r5, r5, #1
 220              	.LVL26:
 221              	.L9:
 185:Drivers/CMSIS/DSP/Source/FilteringFunctions/arm_conv_partial_q15.c ****       {
 222              		.loc 1 185 16 is_stmt 1 view .LVU72
 223 0098 002D     		cmp	r5, #0
 224 009a F6D1     		bne	.L8
 192:Drivers/CMSIS/DSP/Source/FilteringFunctions/arm_conv_partial_q15.c ****       }
 193:Drivers/CMSIS/DSP/Source/FilteringFunctions/arm_conv_partial_q15.c **** 
 194:Drivers/CMSIS/DSP/Source/FilteringFunctions/arm_conv_partial_q15.c ****       /* Store the result in the accumulator in the destination buffer. */
 195:Drivers/CMSIS/DSP/Source/FilteringFunctions/arm_conv_partial_q15.c ****       *pOut++ = (q15_t) (__SSAT((sum >> 15), 16));
 225              		.loc 1 195 7 view .LVU73
 226              	.LBB78:
 227              		.loc 1 195 26 view .LVU74
 228 009c DB0B     		lsrs	r3, r3, #15
 229              	.LVL27:
 230              		.loc 1 195 26 is_stmt 0 view .LVU75
 231 009e 43EA4243 		orr	r3, r3, r2, lsl #17
 232              	.LVL28:
 233              		.loc 1 195 26 is_stmt 1 view .LVU76
 234              		.syntax unified
 235              	@ 195 "Drivers/CMSIS/DSP/Source/FilteringFunctions/arm_conv_partial_q15.c" 1
 236 00a2 03F30F03 		ssat r3, #16, r3
 237              	@ 0 "" 2
 238              	.LVL29:
 239              		.loc 1 195 26 view .LVU77
 240              		.thumb
 241              		.syntax unified
 242              	.LBE78:
 243              		.loc 1 195 12 is_stmt 0 view .LVU78
 244 00a6 099A     		ldr	r2, [sp, #36]
 245              	.LVL30:
 246              		.loc 1 195 15 view .LVU79
 247 00a8 22F8023B 		strh	r3, [r2], #2	@ movhi
 248              	.LVL31:
 196:Drivers/CMSIS/DSP/Source/FilteringFunctions/arm_conv_partial_q15.c **** 
 197:Drivers/CMSIS/DSP/Source/FilteringFunctions/arm_conv_partial_q15.c ****       /* Update the inputA and inputB pointers for next MAC calculation */
 198:Drivers/CMSIS/DSP/Source/FilteringFunctions/arm_conv_partial_q15.c ****       py = ++pSrc2;
 249              		.loc 1 198 7 is_stmt 1 view .LVU80
 250              		.loc 1 198 10 is_stmt 0 view .LVU81
 251 00ac 0BF1020E 		add	lr, fp, #2
 252              	.LVL32:
 199:Drivers/CMSIS/DSP/Source/FilteringFunctions/arm_conv_partial_q15.c ****       px = pIn1;
ARM GAS  /var/folders/n6/c271nzx11xl4r4_m7sqjlt0m0000gn/T//cc9tggTv.s 			page 43


 253              		.loc 1 199 7 is_stmt 1 view .LVU82
 200:Drivers/CMSIS/DSP/Source/FilteringFunctions/arm_conv_partial_q15.c **** 
 201:Drivers/CMSIS/DSP/Source/FilteringFunctions/arm_conv_partial_q15.c ****       /* Increment the MAC count */
 202:Drivers/CMSIS/DSP/Source/FilteringFunctions/arm_conv_partial_q15.c ****       count++;
 254              		.loc 1 202 7 view .LVU83
 255              		.loc 1 202 12 is_stmt 0 view .LVU84
 256 00b0 0136     		adds	r6, r6, #1
 257              	.LVL33:
 203:Drivers/CMSIS/DSP/Source/FilteringFunctions/arm_conv_partial_q15.c **** 
 204:Drivers/CMSIS/DSP/Source/FilteringFunctions/arm_conv_partial_q15.c ****       /* Decrement the loop counter */
 205:Drivers/CMSIS/DSP/Source/FilteringFunctions/arm_conv_partial_q15.c ****       blockSize1--;
 258              		.loc 1 205 7 is_stmt 1 view .LVU85
 259              		.loc 1 205 17 is_stmt 0 view .LVU86
 260 00b2 0CF1FF3C 		add	ip, ip, #-1
 261              	.LVL34:
 195:Drivers/CMSIS/DSP/Source/FilteringFunctions/arm_conv_partial_q15.c **** 
 262              		.loc 1 195 12 view .LVU87
 263 00b6 0992     		str	r2, [sp, #36]
 264              	.LVL35:
 265              	.L7:
 176:Drivers/CMSIS/DSP/Source/FilteringFunctions/arm_conv_partial_q15.c ****     {
 266              		.loc 1 176 25 is_stmt 1 view .LVU88
 176:Drivers/CMSIS/DSP/Source/FilteringFunctions/arm_conv_partial_q15.c ****     {
 267              		.loc 1 176 40 is_stmt 0 view .LVU89
 268 00b8 BCF1000F 		cmp	ip, #0
 269 00bc D4BF     		ite	le
 270 00be 0023     		movle	r3, #0
 271 00c0 0123     		movgt	r3, #1
 176:Drivers/CMSIS/DSP/Source/FilteringFunctions/arm_conv_partial_q15.c ****     {
 272              		.loc 1 176 25 view .LVU90
 273 00c2 032E     		cmp	r6, #3
 274 00c4 07D8     		bhi	.L58
 176:Drivers/CMSIS/DSP/Source/FilteringFunctions/arm_conv_partial_q15.c ****     {
 275              		.loc 1 176 25 view .LVU91
 276 00c6 33B1     		cbz	r3, .L58
 277 00c8 7046     		mov	r0, lr
 278 00ca 0D99     		ldr	r1, [sp, #52]
 183:Drivers/CMSIS/DSP/Source/FilteringFunctions/arm_conv_partial_q15.c **** 
 279              		.loc 1 183 9 view .LVU92
 280 00cc 3546     		mov	r5, r6
 179:Drivers/CMSIS/DSP/Source/FilteringFunctions/arm_conv_partial_q15.c **** 
 281              		.loc 1 179 11 view .LVU93
 282 00ce 0023     		movs	r3, #0
 283 00d0 1A46     		mov	r2, r3
 284 00d2 F346     		mov	fp, lr
 285 00d4 E0E7     		b	.L9
 286              	.L58:
 206:Drivers/CMSIS/DSP/Source/FilteringFunctions/arm_conv_partial_q15.c ****     }
 207:Drivers/CMSIS/DSP/Source/FilteringFunctions/arm_conv_partial_q15.c **** 
 208:Drivers/CMSIS/DSP/Source/FilteringFunctions/arm_conv_partial_q15.c ****     /* The second part of the stage starts here */
 209:Drivers/CMSIS/DSP/Source/FilteringFunctions/arm_conv_partial_q15.c ****     /* The internal loop, over count, is unrolled by 4 */
 210:Drivers/CMSIS/DSP/Source/FilteringFunctions/arm_conv_partial_q15.c ****     /* To, read the last two inputB samples using SIMD:
 211:Drivers/CMSIS/DSP/Source/FilteringFunctions/arm_conv_partial_q15.c ****      * y[srcBLen] and y[srcBLen-1] coefficients, py is decremented by 1 */
 212:Drivers/CMSIS/DSP/Source/FilteringFunctions/arm_conv_partial_q15.c ****     py = py - 1;
 287              		.loc 1 212 5 is_stmt 1 view .LVU94
 288              		.loc 1 212 13 is_stmt 0 view .LVU95
 289 00d6 AEF10200 		sub	r0, lr, #2
ARM GAS  /var/folders/n6/c271nzx11xl4r4_m7sqjlt0m0000gn/T//cc9tggTv.s 			page 44


 290              	.LVL36:
 213:Drivers/CMSIS/DSP/Source/FilteringFunctions/arm_conv_partial_q15.c **** 
 214:Drivers/CMSIS/DSP/Source/FilteringFunctions/arm_conv_partial_q15.c ****     while (blockSize1 > 0)
 291              		.loc 1 214 5 is_stmt 1 view .LVU96
 292 00da CA46     		mov	r10, r9
 293 00dc B946     		mov	r9, r7
 294              	.LVL37:
 295              		.loc 1 214 5 is_stmt 0 view .LVU97
 296 00de 3746     		mov	r7, r6
 297              	.LVL38:
 298              		.loc 1 214 11 view .LVU98
 299 00e0 32E0     		b	.L11
 300              	.LVL39:
 301              	.L13:
 215:Drivers/CMSIS/DSP/Source/FilteringFunctions/arm_conv_partial_q15.c ****     {
 216:Drivers/CMSIS/DSP/Source/FilteringFunctions/arm_conv_partial_q15.c ****       /* Accumulator is made zero for every iteration */
 217:Drivers/CMSIS/DSP/Source/FilteringFunctions/arm_conv_partial_q15.c ****       sum = 0;
 218:Drivers/CMSIS/DSP/Source/FilteringFunctions/arm_conv_partial_q15.c **** 
 219:Drivers/CMSIS/DSP/Source/FilteringFunctions/arm_conv_partial_q15.c ****       /* Apply loop unrolling and compute 4 MACs simultaneously. */
 220:Drivers/CMSIS/DSP/Source/FilteringFunctions/arm_conv_partial_q15.c ****       k = count >> 2U;
 221:Drivers/CMSIS/DSP/Source/FilteringFunctions/arm_conv_partial_q15.c **** 
 222:Drivers/CMSIS/DSP/Source/FilteringFunctions/arm_conv_partial_q15.c ****       /* First part of the processing with loop unrolling.  Compute 4 MACs at a time.
 223:Drivers/CMSIS/DSP/Source/FilteringFunctions/arm_conv_partial_q15.c ****        ** a second loop below computes MACs for the remaining 1 to 3 samples. */
 224:Drivers/CMSIS/DSP/Source/FilteringFunctions/arm_conv_partial_q15.c ****       while (k > 0U)
 225:Drivers/CMSIS/DSP/Source/FilteringFunctions/arm_conv_partial_q15.c ****       {
 226:Drivers/CMSIS/DSP/Source/FilteringFunctions/arm_conv_partial_q15.c ****         /* Perform the multiply-accumulates */
 227:Drivers/CMSIS/DSP/Source/FilteringFunctions/arm_conv_partial_q15.c ****         /* x[0], x[1] are multiplied with y[srcBLen - 1], y[srcBLen - 2] respectively */
 228:Drivers/CMSIS/DSP/Source/FilteringFunctions/arm_conv_partial_q15.c ****         sum = __SMLALDX(*__SIMD32(px)++, *__SIMD32(py)--, sum);
 302              		.loc 1 228 9 is_stmt 1 view .LVU99
 303              		.loc 1 228 25 is_stmt 0 view .LVU100
 304 00e2 0D46     		mov	r5, r1
 305 00e4 55F8084B 		ldr	r4, [r5], #8
 306              	.LVL40:
 307              		.loc 1 228 42 view .LVU101
 308 00e8 0746     		mov	r7, r0
 309 00ea 57F808E9 		ldr	lr, [r7], #-8
 310              	.LVL41:
 311              	.LBB79:
 312              	.LBI79:
1937:Drivers/CMSIS/Include/cmsis_gcc.h **** }
1938:Drivers/CMSIS/Include/cmsis_gcc.h **** 
1939:Drivers/CMSIS/Include/cmsis_gcc.h **** __STATIC_FORCEINLINE uint64_t __SMLALDX (uint32_t op1, uint32_t op2, uint64_t acc)
 313              		.loc 2 1939 31 is_stmt 1 view .LVU102
 314              	.LBB80:
1940:Drivers/CMSIS/Include/cmsis_gcc.h **** {
1941:Drivers/CMSIS/Include/cmsis_gcc.h ****   union llreg_u{
 315              		.loc 2 1941 3 view .LVU103
1942:Drivers/CMSIS/Include/cmsis_gcc.h ****     uint32_t w32[2];
1943:Drivers/CMSIS/Include/cmsis_gcc.h ****     uint64_t w64;
1944:Drivers/CMSIS/Include/cmsis_gcc.h ****   } llr;
1945:Drivers/CMSIS/Include/cmsis_gcc.h ****   llr.w64 = acc;
 316              		.loc 2 1945 3 view .LVU104
1946:Drivers/CMSIS/Include/cmsis_gcc.h **** 
1947:Drivers/CMSIS/Include/cmsis_gcc.h **** #ifndef __ARMEB__   /* Little endian */
1948:Drivers/CMSIS/Include/cmsis_gcc.h ****   __ASM volatile ("smlaldx %0, %1, %2, %3" : "=r" (llr.w32[0]), "=r" (llr.w32[1]): "r" (op1), "r" (
 317              		.loc 2 1948 3 view .LVU105
 318              		.syntax unified
ARM GAS  /var/folders/n6/c271nzx11xl4r4_m7sqjlt0m0000gn/T//cc9tggTv.s 			page 45


 319              	@ 1948 "Drivers/CMSIS/Include/cmsis_gcc.h" 1
 320 00ee C4FBDE32 		smlaldx r3, r2, r4, lr
 321              	@ 0 "" 2
 322              	.LVL42:
1949:Drivers/CMSIS/Include/cmsis_gcc.h **** #else               /* Big endian */
1950:Drivers/CMSIS/Include/cmsis_gcc.h ****   __ASM volatile ("smlaldx %0, %1, %2, %3" : "=r" (llr.w32[1]), "=r" (llr.w32[0]): "r" (op1), "r" (
1951:Drivers/CMSIS/Include/cmsis_gcc.h **** #endif
1952:Drivers/CMSIS/Include/cmsis_gcc.h **** 
1953:Drivers/CMSIS/Include/cmsis_gcc.h ****   return(llr.w64);
 323              		.loc 2 1953 3 view .LVU106
 324              		.loc 2 1953 3 is_stmt 0 view .LVU107
 325              		.thumb
 326              		.syntax unified
 327              	.LBE80:
 328              	.LBE79:
 229:Drivers/CMSIS/DSP/Source/FilteringFunctions/arm_conv_partial_q15.c ****         /* x[2], x[3] are multiplied with y[srcBLen - 3], y[srcBLen - 4] respectively */
 230:Drivers/CMSIS/DSP/Source/FilteringFunctions/arm_conv_partial_q15.c ****         sum = __SMLALDX(*__SIMD32(px)++, *__SIMD32(py)--, sum);
 329              		.loc 1 230 9 is_stmt 1 view .LVU108
 330              		.loc 1 230 25 is_stmt 0 view .LVU109
 331 00f2 4968     		ldr	r1, [r1, #4]
 332              	.LVL43:
 333              		.loc 1 230 42 view .LVU110
 334 00f4 50F8040C 		ldr	r0, [r0, #-4]
 335              	.LVL44:
 336              	.LBB81:
 337              	.LBI81:
1939:Drivers/CMSIS/Include/cmsis_gcc.h **** {
 338              		.loc 2 1939 31 is_stmt 1 view .LVU111
 339              	.LBB82:
1941:Drivers/CMSIS/Include/cmsis_gcc.h ****     uint32_t w32[2];
 340              		.loc 2 1941 3 view .LVU112
1945:Drivers/CMSIS/Include/cmsis_gcc.h **** 
 341              		.loc 2 1945 3 view .LVU113
1948:Drivers/CMSIS/Include/cmsis_gcc.h **** #else               /* Big endian */
 342              		.loc 2 1948 3 view .LVU114
 343              		.syntax unified
 344              	@ 1948 "Drivers/CMSIS/Include/cmsis_gcc.h" 1
 345 00f8 C1FBD032 		smlaldx r3, r2, r1, r0
 346              	@ 0 "" 2
 347              	.LVL45:
 348              		.loc 2 1953 3 view .LVU115
 349              		.loc 2 1953 3 is_stmt 0 view .LVU116
 350              		.thumb
 351              		.syntax unified
 352              	.LBE82:
 353              	.LBE81:
 231:Drivers/CMSIS/DSP/Source/FilteringFunctions/arm_conv_partial_q15.c **** 
 232:Drivers/CMSIS/DSP/Source/FilteringFunctions/arm_conv_partial_q15.c ****         /* Decrement the loop counter */
 233:Drivers/CMSIS/DSP/Source/FilteringFunctions/arm_conv_partial_q15.c ****         k--;
 354              		.loc 1 233 9 is_stmt 1 view .LVU117
 355              		.loc 1 233 10 is_stmt 0 view .LVU118
 356 00fc 013E     		subs	r6, r6, #1
 357              	.LVL46:
 230:Drivers/CMSIS/DSP/Source/FilteringFunctions/arm_conv_partial_q15.c **** 
 358              		.loc 1 230 55 view .LVU119
 359 00fe 3846     		mov	r0, r7
 230:Drivers/CMSIS/DSP/Source/FilteringFunctions/arm_conv_partial_q15.c **** 
ARM GAS  /var/folders/n6/c271nzx11xl4r4_m7sqjlt0m0000gn/T//cc9tggTv.s 			page 46


 360              		.loc 1 230 38 view .LVU120
 361 0100 2946     		mov	r1, r5
 362              	.LVL47:
 363              	.L12:
 224:Drivers/CMSIS/DSP/Source/FilteringFunctions/arm_conv_partial_q15.c ****       {
 364              		.loc 1 224 16 is_stmt 1 view .LVU121
 365 0102 002E     		cmp	r6, #0
 366 0104 EDD1     		bne	.L13
 234:Drivers/CMSIS/DSP/Source/FilteringFunctions/arm_conv_partial_q15.c ****       }
 235:Drivers/CMSIS/DSP/Source/FilteringFunctions/arm_conv_partial_q15.c **** 
 236:Drivers/CMSIS/DSP/Source/FilteringFunctions/arm_conv_partial_q15.c ****       /* For the next MAC operations, the pointer py is used without SIMD
 237:Drivers/CMSIS/DSP/Source/FilteringFunctions/arm_conv_partial_q15.c ****        * So, py is incremented by 1 */
 238:Drivers/CMSIS/DSP/Source/FilteringFunctions/arm_conv_partial_q15.c ****       py = py + 1U;
 367              		.loc 1 238 15 is_stmt 0 view .LVU122
 368 0106 DDF800E0 		ldr	lr, [sp]
 369 010a 019F     		ldr	r7, [sp, #4]
 370 010c 5C46     		mov	r4, fp
 371              		.loc 1 238 7 is_stmt 1 view .LVU123
 372              		.loc 1 238 15 is_stmt 0 view .LVU124
 373 010e 0230     		adds	r0, r0, #2
 374              	.LVL48:
 239:Drivers/CMSIS/DSP/Source/FilteringFunctions/arm_conv_partial_q15.c **** 
 240:Drivers/CMSIS/DSP/Source/FilteringFunctions/arm_conv_partial_q15.c ****       /* If the count is not a multiple of 4, compute any remaining MACs here.
 241:Drivers/CMSIS/DSP/Source/FilteringFunctions/arm_conv_partial_q15.c ****        ** No loop unrolling is used. */
 242:Drivers/CMSIS/DSP/Source/FilteringFunctions/arm_conv_partial_q15.c ****       k = count % 0x4U;
 375              		.loc 1 242 7 is_stmt 1 view .LVU125
 376              		.loc 1 242 9 is_stmt 0 view .LVU126
 377 0110 07F00305 		and	r5, r7, #3
 378              	.LVL49:
 243:Drivers/CMSIS/DSP/Source/FilteringFunctions/arm_conv_partial_q15.c **** 
 244:Drivers/CMSIS/DSP/Source/FilteringFunctions/arm_conv_partial_q15.c ****       while (k > 0U)
 379              		.loc 1 244 7 is_stmt 1 view .LVU127
 380 0114 F346     		mov	fp, lr
 381              	.LVL50:
 382              		.loc 1 244 13 is_stmt 0 view .LVU128
 383 0116 06E0     		b	.L14
 384              	.L15:
 245:Drivers/CMSIS/DSP/Source/FilteringFunctions/arm_conv_partial_q15.c ****       {
 246:Drivers/CMSIS/DSP/Source/FilteringFunctions/arm_conv_partial_q15.c ****         /* Perform the multiply-accumulates */
 247:Drivers/CMSIS/DSP/Source/FilteringFunctions/arm_conv_partial_q15.c ****         sum = __SMLALD(*px++, *py--, sum);
 385              		.loc 1 247 9 is_stmt 1 view .LVU129
 386              	.LVL51:
 387              		.loc 1 247 24 is_stmt 0 view .LVU130
 388 0118 31F9026B 		ldrsh	r6, [r1], #2
 389              	.LVL52:
 390              		.loc 1 247 31 view .LVU131
 391 011c 30F902E9 		ldrsh	lr, [r0], #-2
 392              	.LVL53:
 393              	.LBB83:
 394              	.LBI83:
1922:Drivers/CMSIS/Include/cmsis_gcc.h **** {
 395              		.loc 2 1922 31 is_stmt 1 view .LVU132
 396              	.LBB84:
1924:Drivers/CMSIS/Include/cmsis_gcc.h ****     uint32_t w32[2];
 397              		.loc 2 1924 3 view .LVU133
1928:Drivers/CMSIS/Include/cmsis_gcc.h **** 
 398              		.loc 2 1928 3 view .LVU134
ARM GAS  /var/folders/n6/c271nzx11xl4r4_m7sqjlt0m0000gn/T//cc9tggTv.s 			page 47


1931:Drivers/CMSIS/Include/cmsis_gcc.h **** #else               /* Big endian */
 399              		.loc 2 1931 3 view .LVU135
 400              		.syntax unified
 401              	@ 1931 "Drivers/CMSIS/Include/cmsis_gcc.h" 1
 402 0120 C6FBCE32 		smlald r3, r2, r6, lr
 403              	@ 0 "" 2
 404              	.LVL54:
1936:Drivers/CMSIS/Include/cmsis_gcc.h **** }
 405              		.loc 2 1936 3 view .LVU136
1936:Drivers/CMSIS/Include/cmsis_gcc.h **** }
 406              		.loc 2 1936 3 is_stmt 0 view .LVU137
 407              		.thumb
 408              		.syntax unified
 409              	.LBE84:
 410              	.LBE83:
 248:Drivers/CMSIS/DSP/Source/FilteringFunctions/arm_conv_partial_q15.c **** 
 249:Drivers/CMSIS/DSP/Source/FilteringFunctions/arm_conv_partial_q15.c ****         /* Decrement the loop counter */
 250:Drivers/CMSIS/DSP/Source/FilteringFunctions/arm_conv_partial_q15.c ****         k--;
 411              		.loc 1 250 9 is_stmt 1 view .LVU138
 412              		.loc 1 250 10 is_stmt 0 view .LVU139
 413 0124 013D     		subs	r5, r5, #1
 414              	.LVL55:
 415              	.L14:
 244:Drivers/CMSIS/DSP/Source/FilteringFunctions/arm_conv_partial_q15.c ****       {
 416              		.loc 1 244 16 is_stmt 1 view .LVU140
 417 0126 002D     		cmp	r5, #0
 418 0128 F6D1     		bne	.L15
 251:Drivers/CMSIS/DSP/Source/FilteringFunctions/arm_conv_partial_q15.c ****       }
 252:Drivers/CMSIS/DSP/Source/FilteringFunctions/arm_conv_partial_q15.c **** 
 253:Drivers/CMSIS/DSP/Source/FilteringFunctions/arm_conv_partial_q15.c ****       /* Store the result in the accumulator in the destination buffer. */
 254:Drivers/CMSIS/DSP/Source/FilteringFunctions/arm_conv_partial_q15.c ****       *pOut++ = (q15_t) (__SSAT((sum >> 15), 16));
 419              		.loc 1 254 7 view .LVU141
 420              	.LBB85:
 421              		.loc 1 254 26 view .LVU142
 422 012a DB0B     		lsrs	r3, r3, #15
 423              	.LVL56:
 424              		.loc 1 254 26 is_stmt 0 view .LVU143
 425 012c 43EA4243 		orr	r3, r3, r2, lsl #17
 426              	.LVL57:
 427              		.loc 1 254 26 is_stmt 1 view .LVU144
 428              		.syntax unified
 429              	@ 254 "Drivers/CMSIS/DSP/Source/FilteringFunctions/arm_conv_partial_q15.c" 1
 430 0130 03F30F03 		ssat r3, #16, r3
 431              	@ 0 "" 2
 432              	.LVL58:
 433              		.loc 1 254 26 view .LVU145
 434              		.thumb
 435              		.syntax unified
 436              	.LBE85:
 437              		.loc 1 254 12 is_stmt 0 view .LVU146
 438 0134 099A     		ldr	r2, [sp, #36]
 439              	.LVL59:
 440              		.loc 1 254 15 view .LVU147
 441 0136 22F8023B 		strh	r3, [r2], #2	@ movhi
 442              	.LVL60:
 255:Drivers/CMSIS/DSP/Source/FilteringFunctions/arm_conv_partial_q15.c **** 
 256:Drivers/CMSIS/DSP/Source/FilteringFunctions/arm_conv_partial_q15.c ****       /* Update the inputA and inputB pointers for next MAC calculation */
ARM GAS  /var/folders/n6/c271nzx11xl4r4_m7sqjlt0m0000gn/T//cc9tggTv.s 			page 48


 257:Drivers/CMSIS/DSP/Source/FilteringFunctions/arm_conv_partial_q15.c ****       py = ++pSrc2 - 1U;
 443              		.loc 1 257 7 is_stmt 1 view .LVU148
 258:Drivers/CMSIS/DSP/Source/FilteringFunctions/arm_conv_partial_q15.c ****       px = pIn1;
 444              		.loc 1 258 7 view .LVU149
 259:Drivers/CMSIS/DSP/Source/FilteringFunctions/arm_conv_partial_q15.c **** 
 260:Drivers/CMSIS/DSP/Source/FilteringFunctions/arm_conv_partial_q15.c ****       /* Increment the MAC count */
 261:Drivers/CMSIS/DSP/Source/FilteringFunctions/arm_conv_partial_q15.c ****       count++;
 445              		.loc 1 261 7 view .LVU150
 446              		.loc 1 261 12 is_stmt 0 view .LVU151
 447 013a 0137     		adds	r7, r7, #1
 448              	.LVL61:
 262:Drivers/CMSIS/DSP/Source/FilteringFunctions/arm_conv_partial_q15.c **** 
 263:Drivers/CMSIS/DSP/Source/FilteringFunctions/arm_conv_partial_q15.c ****       /* Decrement the loop counter */
 264:Drivers/CMSIS/DSP/Source/FilteringFunctions/arm_conv_partial_q15.c ****       blockSize1--;
 449              		.loc 1 264 7 is_stmt 1 view .LVU152
 450              		.loc 1 264 17 is_stmt 0 view .LVU153
 451 013c 0CF1FF3C 		add	ip, ip, #-1
 452              	.LVL62:
 257:Drivers/CMSIS/DSP/Source/FilteringFunctions/arm_conv_partial_q15.c ****       px = pIn1;
 453              		.loc 1 257 10 view .LVU154
 454 0140 5846     		mov	r0, fp
 254:Drivers/CMSIS/DSP/Source/FilteringFunctions/arm_conv_partial_q15.c **** 
 455              		.loc 1 254 12 view .LVU155
 456 0142 0992     		str	r2, [sp, #36]
 257:Drivers/CMSIS/DSP/Source/FilteringFunctions/arm_conv_partial_q15.c ****       px = pIn1;
 457              		.loc 1 257 10 view .LVU156
 458 0144 0BF1020E 		add	lr, fp, #2
 459              	.LVL63:
 460              	.L11:
 214:Drivers/CMSIS/DSP/Source/FilteringFunctions/arm_conv_partial_q15.c ****     {
 461              		.loc 1 214 23 is_stmt 1 view .LVU157
 462 0148 BCF1000F 		cmp	ip, #0
 463 014c 08DD     		ble	.L62
 217:Drivers/CMSIS/DSP/Source/FilteringFunctions/arm_conv_partial_q15.c **** 
 464              		.loc 1 217 7 view .LVU158
 465              	.LVL64:
 220:Drivers/CMSIS/DSP/Source/FilteringFunctions/arm_conv_partial_q15.c **** 
 466              		.loc 1 220 7 view .LVU159
 220:Drivers/CMSIS/DSP/Source/FilteringFunctions/arm_conv_partial_q15.c **** 
 467              		.loc 1 220 9 is_stmt 0 view .LVU160
 468 014e BE08     		lsrs	r6, r7, #2
 469              	.LVL65:
 224:Drivers/CMSIS/DSP/Source/FilteringFunctions/arm_conv_partial_q15.c ****       {
 470              		.loc 1 224 7 is_stmt 1 view .LVU161
 224:Drivers/CMSIS/DSP/Source/FilteringFunctions/arm_conv_partial_q15.c ****       {
 471              		.loc 1 224 13 is_stmt 0 view .LVU162
 472 0150 0D99     		ldr	r1, [sp, #52]
 217:Drivers/CMSIS/DSP/Source/FilteringFunctions/arm_conv_partial_q15.c **** 
 473              		.loc 1 217 11 view .LVU163
 474 0152 0023     		movs	r3, #0
 475 0154 1A46     		mov	r2, r3
 476 0156 CDF800E0 		str	lr, [sp]
 477 015a 0197     		str	r7, [sp, #4]
 478 015c A346     		mov	fp, r4
 224:Drivers/CMSIS/DSP/Source/FilteringFunctions/arm_conv_partial_q15.c ****       {
 479              		.loc 1 224 13 view .LVU164
 480 015e D0E7     		b	.L12
ARM GAS  /var/folders/n6/c271nzx11xl4r4_m7sqjlt0m0000gn/T//cc9tggTv.s 			page 49


 481              	.LVL66:
 482              	.L62:
 265:Drivers/CMSIS/DSP/Source/FilteringFunctions/arm_conv_partial_q15.c ****     }
 266:Drivers/CMSIS/DSP/Source/FilteringFunctions/arm_conv_partial_q15.c **** 
 267:Drivers/CMSIS/DSP/Source/FilteringFunctions/arm_conv_partial_q15.c ****     /* --------------------------
 268:Drivers/CMSIS/DSP/Source/FilteringFunctions/arm_conv_partial_q15.c ****      * Initializations of stage2
 269:Drivers/CMSIS/DSP/Source/FilteringFunctions/arm_conv_partial_q15.c ****      * ------------------------*/
 270:Drivers/CMSIS/DSP/Source/FilteringFunctions/arm_conv_partial_q15.c **** 
 271:Drivers/CMSIS/DSP/Source/FilteringFunctions/arm_conv_partial_q15.c ****     /* sum = x[0] * y[srcBLen-1] + x[1] * y[srcBLen-2] +...+ x[srcBLen-1] * y[0]
 272:Drivers/CMSIS/DSP/Source/FilteringFunctions/arm_conv_partial_q15.c ****      * sum = x[1] * y[srcBLen-1] + x[2] * y[srcBLen-2] +...+ x[srcBLen] * y[0]
 273:Drivers/CMSIS/DSP/Source/FilteringFunctions/arm_conv_partial_q15.c ****      * ....
 274:Drivers/CMSIS/DSP/Source/FilteringFunctions/arm_conv_partial_q15.c ****      * sum = x[srcALen-srcBLen-2] * y[srcBLen-1] + x[srcALen] * y[srcBLen-2] +...+ x[srcALen-1] * y
 275:Drivers/CMSIS/DSP/Source/FilteringFunctions/arm_conv_partial_q15.c ****      */
 276:Drivers/CMSIS/DSP/Source/FilteringFunctions/arm_conv_partial_q15.c **** 
 277:Drivers/CMSIS/DSP/Source/FilteringFunctions/arm_conv_partial_q15.c ****     /* Working pointer of inputA */
 278:Drivers/CMSIS/DSP/Source/FilteringFunctions/arm_conv_partial_q15.c ****     if ((int32_t)firstIndex - (int32_t)srcBLen + 1 > 0)
 483              		.loc 1 278 8 view .LVU165
 484 0160 5146     		mov	r1, r10
 485 0162 4F46     		mov	r7, r9
 486              	.LVL67:
 487              		.loc 1 278 5 is_stmt 1 view .LVU166
 488              		.loc 1 278 8 is_stmt 0 view .LVU167
 489 0164 219A     		ldr	r2, [sp, #132]
 490 0166 0F9B     		ldr	r3, [sp, #60]
 491 0168 D21A     		subs	r2, r2, r3
 492 016a 1092     		str	r2, [sp, #64]
 493 016c 18D4     		bmi	.L55
 494              	.LVL68:
 279:Drivers/CMSIS/DSP/Source/FilteringFunctions/arm_conv_partial_q15.c ****     {
 280:Drivers/CMSIS/DSP/Source/FilteringFunctions/arm_conv_partial_q15.c ****       px = pIn1 + firstIndex - srcBLen + 1;
 495              		.loc 1 280 7 is_stmt 1 view .LVU168
 496              		.loc 1 280 30 is_stmt 0 view .LVU169
 497 016e 219A     		ldr	r2, [sp, #132]
 498 0170 D31A     		subs	r3, r2, r3
 499              		.loc 1 280 40 view .LVU170
 500 0172 0133     		adds	r3, r3, #1
 501 0174 0D9A     		ldr	r2, [sp, #52]
 502 0176 02EB4303 		add	r3, r2, r3, lsl #1
 503              	.LVL69:
 504              	.L17:
 281:Drivers/CMSIS/DSP/Source/FilteringFunctions/arm_conv_partial_q15.c ****     }
 282:Drivers/CMSIS/DSP/Source/FilteringFunctions/arm_conv_partial_q15.c ****     else
 283:Drivers/CMSIS/DSP/Source/FilteringFunctions/arm_conv_partial_q15.c ****     {
 284:Drivers/CMSIS/DSP/Source/FilteringFunctions/arm_conv_partial_q15.c ****       px = pIn1;
 285:Drivers/CMSIS/DSP/Source/FilteringFunctions/arm_conv_partial_q15.c ****     }
 286:Drivers/CMSIS/DSP/Source/FilteringFunctions/arm_conv_partial_q15.c **** 
 287:Drivers/CMSIS/DSP/Source/FilteringFunctions/arm_conv_partial_q15.c ****     /* Working pointer of inputB */
 288:Drivers/CMSIS/DSP/Source/FilteringFunctions/arm_conv_partial_q15.c ****     pSrc2 = pIn2 + (srcBLen - 1U);
 505              		.loc 1 288 5 is_stmt 1 view .LVU171
 506              		.loc 1 288 18 is_stmt 0 view .LVU172
 507 017a 6FF00042 		mvn	r2, #-2147483648
 508 017e 0F98     		ldr	r0, [sp, #60]
 509              	.LVL70:
 510              		.loc 1 288 18 view .LVU173
 511 0180 0244     		add	r2, r2, r0
 512              		.loc 1 288 11 view .LVU174
 513 0182 04EB4202 		add	r2, r4, r2, lsl #1
ARM GAS  /var/folders/n6/c271nzx11xl4r4_m7sqjlt0m0000gn/T//cc9tggTv.s 			page 50


 514 0186 0E92     		str	r2, [sp, #56]
 515              	.LVL71:
 289:Drivers/CMSIS/DSP/Source/FilteringFunctions/arm_conv_partial_q15.c ****     py = pSrc2;
 516              		.loc 1 289 5 is_stmt 1 view .LVU175
 290:Drivers/CMSIS/DSP/Source/FilteringFunctions/arm_conv_partial_q15.c **** 
 291:Drivers/CMSIS/DSP/Source/FilteringFunctions/arm_conv_partial_q15.c ****     /* count is the index by which the pointer pIn1 to be incremented */
 292:Drivers/CMSIS/DSP/Source/FilteringFunctions/arm_conv_partial_q15.c ****     count = 0U;
 517              		.loc 1 292 5 view .LVU176
 293:Drivers/CMSIS/DSP/Source/FilteringFunctions/arm_conv_partial_q15.c **** 
 294:Drivers/CMSIS/DSP/Source/FilteringFunctions/arm_conv_partial_q15.c **** 
 295:Drivers/CMSIS/DSP/Source/FilteringFunctions/arm_conv_partial_q15.c ****   /* --------------------
 296:Drivers/CMSIS/DSP/Source/FilteringFunctions/arm_conv_partial_q15.c ****    * Stage2 process
 297:Drivers/CMSIS/DSP/Source/FilteringFunctions/arm_conv_partial_q15.c ****    * -------------------*/
 298:Drivers/CMSIS/DSP/Source/FilteringFunctions/arm_conv_partial_q15.c **** 
 299:Drivers/CMSIS/DSP/Source/FilteringFunctions/arm_conv_partial_q15.c ****   /* Stage2 depends on srcBLen as in this stage srcBLen number of MACS are performed.
 300:Drivers/CMSIS/DSP/Source/FilteringFunctions/arm_conv_partial_q15.c ****    * So, to loop unroll over blockSize2,
 301:Drivers/CMSIS/DSP/Source/FilteringFunctions/arm_conv_partial_q15.c ****    * srcBLen should be greater than or equal to 4 */
 302:Drivers/CMSIS/DSP/Source/FilteringFunctions/arm_conv_partial_q15.c ****   if (srcBLen >= 4U)
 518              		.loc 1 302 3 view .LVU177
 519              		.loc 1 302 6 is_stmt 0 view .LVU178
 520 0188 0328     		cmp	r0, #3
 521 018a 40F2A081 		bls	.L18
 303:Drivers/CMSIS/DSP/Source/FilteringFunctions/arm_conv_partial_q15.c ****   {
 304:Drivers/CMSIS/DSP/Source/FilteringFunctions/arm_conv_partial_q15.c ****     /* Loop unroll over blockSize2, by 4 */
 305:Drivers/CMSIS/DSP/Source/FilteringFunctions/arm_conv_partial_q15.c ****     blkCnt = blockSize2 >> 2U;
 522              		.loc 1 305 5 is_stmt 1 view .LVU179
 523              		.loc 1 305 25 is_stmt 0 view .LVU180
 524 018e BA10     		asrs	r2, r7, #2
 525              	.LVL72:
 526              		.loc 1 305 25 view .LVU181
 527 0190 1192     		str	r2, [sp, #68]
 528              	.LVL73:
 306:Drivers/CMSIS/DSP/Source/FilteringFunctions/arm_conv_partial_q15.c **** 
 307:Drivers/CMSIS/DSP/Source/FilteringFunctions/arm_conv_partial_q15.c ****     while (blkCnt > 0U)
 529              		.loc 1 307 5 is_stmt 1 view .LVU182
 292:Drivers/CMSIS/DSP/Source/FilteringFunctions/arm_conv_partial_q15.c **** 
 530              		.loc 1 292 11 is_stmt 0 view .LVU183
 531 0192 0022     		movs	r2, #0
 532              	.LVL74:
 292:Drivers/CMSIS/DSP/Source/FilteringFunctions/arm_conv_partial_q15.c **** 
 533              		.loc 1 292 11 view .LVU184
 534 0194 1292     		str	r2, [sp, #72]
 535 0196 1391     		str	r1, [sp, #76]
 536 0198 1497     		str	r7, [sp, #80]
 537 019a CDF85480 		str	r8, [sp, #84]
 538              		.loc 1 307 11 view .LVU185
 539 019e 80E0     		b	.L19
 540              	.LVL75:
 541              	.L55:
 284:Drivers/CMSIS/DSP/Source/FilteringFunctions/arm_conv_partial_q15.c ****     }
 542              		.loc 1 284 10 view .LVU186
 543 01a0 0D9B     		ldr	r3, [sp, #52]
 544 01a2 EAE7     		b	.L17
 545              	.LVL76:
 546              	.L64:
 308:Drivers/CMSIS/DSP/Source/FilteringFunctions/arm_conv_partial_q15.c ****     {
 309:Drivers/CMSIS/DSP/Source/FilteringFunctions/arm_conv_partial_q15.c ****       py = py - 1U;
ARM GAS  /var/folders/n6/c271nzx11xl4r4_m7sqjlt0m0000gn/T//cc9tggTv.s 			page 51


 310:Drivers/CMSIS/DSP/Source/FilteringFunctions/arm_conv_partial_q15.c **** 
 311:Drivers/CMSIS/DSP/Source/FilteringFunctions/arm_conv_partial_q15.c ****       /* Set all accumulators to zero */
 312:Drivers/CMSIS/DSP/Source/FilteringFunctions/arm_conv_partial_q15.c ****       acc0 = 0;
 313:Drivers/CMSIS/DSP/Source/FilteringFunctions/arm_conv_partial_q15.c ****       acc1 = 0;
 314:Drivers/CMSIS/DSP/Source/FilteringFunctions/arm_conv_partial_q15.c ****       acc2 = 0;
 315:Drivers/CMSIS/DSP/Source/FilteringFunctions/arm_conv_partial_q15.c ****       acc3 = 0;
 316:Drivers/CMSIS/DSP/Source/FilteringFunctions/arm_conv_partial_q15.c **** 
 317:Drivers/CMSIS/DSP/Source/FilteringFunctions/arm_conv_partial_q15.c **** 
 318:Drivers/CMSIS/DSP/Source/FilteringFunctions/arm_conv_partial_q15.c ****       /* read x[0], x[1] samples */
 319:Drivers/CMSIS/DSP/Source/FilteringFunctions/arm_conv_partial_q15.c ****       x0 = *__SIMD32(px);
 320:Drivers/CMSIS/DSP/Source/FilteringFunctions/arm_conv_partial_q15.c ****       /* read x[1], x[2] samples */
 321:Drivers/CMSIS/DSP/Source/FilteringFunctions/arm_conv_partial_q15.c ****       x1 = _SIMD32_OFFSET(px+1);
 322:Drivers/CMSIS/DSP/Source/FilteringFunctions/arm_conv_partial_q15.c ****       px+= 2U;
 323:Drivers/CMSIS/DSP/Source/FilteringFunctions/arm_conv_partial_q15.c **** 
 324:Drivers/CMSIS/DSP/Source/FilteringFunctions/arm_conv_partial_q15.c **** 
 325:Drivers/CMSIS/DSP/Source/FilteringFunctions/arm_conv_partial_q15.c ****       /* Apply loop unrolling and compute 4 MACs simultaneously. */
 326:Drivers/CMSIS/DSP/Source/FilteringFunctions/arm_conv_partial_q15.c ****       k = srcBLen >> 2U;
 327:Drivers/CMSIS/DSP/Source/FilteringFunctions/arm_conv_partial_q15.c **** 
 328:Drivers/CMSIS/DSP/Source/FilteringFunctions/arm_conv_partial_q15.c ****       /* First part of the processing with loop unrolling.  Compute 4 MACs at a time.
 329:Drivers/CMSIS/DSP/Source/FilteringFunctions/arm_conv_partial_q15.c ****        ** a second loop below computes MACs for the remaining 1 to 3 samples. */
 330:Drivers/CMSIS/DSP/Source/FilteringFunctions/arm_conv_partial_q15.c ****       do
 331:Drivers/CMSIS/DSP/Source/FilteringFunctions/arm_conv_partial_q15.c ****       {
 332:Drivers/CMSIS/DSP/Source/FilteringFunctions/arm_conv_partial_q15.c ****         /* Read the last two inputB samples using SIMD:
 333:Drivers/CMSIS/DSP/Source/FilteringFunctions/arm_conv_partial_q15.c ****          * y[srcBLen - 1] and y[srcBLen - 2] */
 334:Drivers/CMSIS/DSP/Source/FilteringFunctions/arm_conv_partial_q15.c ****         c0 = *__SIMD32(py)--;
 335:Drivers/CMSIS/DSP/Source/FilteringFunctions/arm_conv_partial_q15.c **** 
 336:Drivers/CMSIS/DSP/Source/FilteringFunctions/arm_conv_partial_q15.c ****         /* acc0 +=  x[0] * y[srcBLen - 1] + x[1] * y[srcBLen - 2] */
 337:Drivers/CMSIS/DSP/Source/FilteringFunctions/arm_conv_partial_q15.c ****         acc0 = __SMLALDX(x0, c0, acc0);
 338:Drivers/CMSIS/DSP/Source/FilteringFunctions/arm_conv_partial_q15.c **** 
 339:Drivers/CMSIS/DSP/Source/FilteringFunctions/arm_conv_partial_q15.c ****         /* acc1 +=  x[1] * y[srcBLen - 1] + x[2] * y[srcBLen - 2] */
 340:Drivers/CMSIS/DSP/Source/FilteringFunctions/arm_conv_partial_q15.c ****         acc1 = __SMLALDX(x1, c0, acc1);
 341:Drivers/CMSIS/DSP/Source/FilteringFunctions/arm_conv_partial_q15.c **** 
 342:Drivers/CMSIS/DSP/Source/FilteringFunctions/arm_conv_partial_q15.c ****         /* Read x[2], x[3] */
 343:Drivers/CMSIS/DSP/Source/FilteringFunctions/arm_conv_partial_q15.c ****         x2 = *__SIMD32(px);
 344:Drivers/CMSIS/DSP/Source/FilteringFunctions/arm_conv_partial_q15.c **** 
 345:Drivers/CMSIS/DSP/Source/FilteringFunctions/arm_conv_partial_q15.c ****         /* Read x[3], x[4] */
 346:Drivers/CMSIS/DSP/Source/FilteringFunctions/arm_conv_partial_q15.c ****         x3 = _SIMD32_OFFSET(px+1);
 347:Drivers/CMSIS/DSP/Source/FilteringFunctions/arm_conv_partial_q15.c **** 
 348:Drivers/CMSIS/DSP/Source/FilteringFunctions/arm_conv_partial_q15.c ****         /* acc2 +=  x[2] * y[srcBLen - 1] + x[3] * y[srcBLen - 2] */
 349:Drivers/CMSIS/DSP/Source/FilteringFunctions/arm_conv_partial_q15.c ****         acc2 = __SMLALDX(x2, c0, acc2);
 350:Drivers/CMSIS/DSP/Source/FilteringFunctions/arm_conv_partial_q15.c **** 
 351:Drivers/CMSIS/DSP/Source/FilteringFunctions/arm_conv_partial_q15.c ****         /* acc3 +=  x[3] * y[srcBLen - 1] + x[4] * y[srcBLen - 2] */
 352:Drivers/CMSIS/DSP/Source/FilteringFunctions/arm_conv_partial_q15.c ****         acc3 = __SMLALDX(x3, c0, acc3);
 353:Drivers/CMSIS/DSP/Source/FilteringFunctions/arm_conv_partial_q15.c **** 
 354:Drivers/CMSIS/DSP/Source/FilteringFunctions/arm_conv_partial_q15.c ****         /* Read y[srcBLen - 3] and y[srcBLen - 4] */
 355:Drivers/CMSIS/DSP/Source/FilteringFunctions/arm_conv_partial_q15.c ****         c0 = *__SIMD32(py)--;
 356:Drivers/CMSIS/DSP/Source/FilteringFunctions/arm_conv_partial_q15.c **** 
 357:Drivers/CMSIS/DSP/Source/FilteringFunctions/arm_conv_partial_q15.c ****         /* acc0 +=  x[2] * y[srcBLen - 3] + x[3] * y[srcBLen - 4] */
 358:Drivers/CMSIS/DSP/Source/FilteringFunctions/arm_conv_partial_q15.c ****         acc0 = __SMLALDX(x2, c0, acc0);
 359:Drivers/CMSIS/DSP/Source/FilteringFunctions/arm_conv_partial_q15.c **** 
 360:Drivers/CMSIS/DSP/Source/FilteringFunctions/arm_conv_partial_q15.c ****         /* acc1 +=  x[3] * y[srcBLen - 3] + x[4] * y[srcBLen - 4] */
 361:Drivers/CMSIS/DSP/Source/FilteringFunctions/arm_conv_partial_q15.c ****         acc1 = __SMLALDX(x3, c0, acc1);
 362:Drivers/CMSIS/DSP/Source/FilteringFunctions/arm_conv_partial_q15.c **** 
 363:Drivers/CMSIS/DSP/Source/FilteringFunctions/arm_conv_partial_q15.c ****         /* Read x[4], x[5] */
 364:Drivers/CMSIS/DSP/Source/FilteringFunctions/arm_conv_partial_q15.c ****         x0 = _SIMD32_OFFSET(px+2);
 365:Drivers/CMSIS/DSP/Source/FilteringFunctions/arm_conv_partial_q15.c **** 
 366:Drivers/CMSIS/DSP/Source/FilteringFunctions/arm_conv_partial_q15.c ****         /* Read x[5], x[6] */
ARM GAS  /var/folders/n6/c271nzx11xl4r4_m7sqjlt0m0000gn/T//cc9tggTv.s 			page 52


 367:Drivers/CMSIS/DSP/Source/FilteringFunctions/arm_conv_partial_q15.c ****         x1 = _SIMD32_OFFSET(px+3);
 368:Drivers/CMSIS/DSP/Source/FilteringFunctions/arm_conv_partial_q15.c ****         px += 4U;
 369:Drivers/CMSIS/DSP/Source/FilteringFunctions/arm_conv_partial_q15.c **** 
 370:Drivers/CMSIS/DSP/Source/FilteringFunctions/arm_conv_partial_q15.c ****         /* acc2 +=  x[4] * y[srcBLen - 3] + x[5] * y[srcBLen - 4] */
 371:Drivers/CMSIS/DSP/Source/FilteringFunctions/arm_conv_partial_q15.c ****         acc2 = __SMLALDX(x0, c0, acc2);
 372:Drivers/CMSIS/DSP/Source/FilteringFunctions/arm_conv_partial_q15.c **** 
 373:Drivers/CMSIS/DSP/Source/FilteringFunctions/arm_conv_partial_q15.c ****         /* acc3 +=  x[5] * y[srcBLen - 3] + x[6] * y[srcBLen - 4] */
 374:Drivers/CMSIS/DSP/Source/FilteringFunctions/arm_conv_partial_q15.c ****         acc3 = __SMLALDX(x1, c0, acc3);
 375:Drivers/CMSIS/DSP/Source/FilteringFunctions/arm_conv_partial_q15.c **** 
 376:Drivers/CMSIS/DSP/Source/FilteringFunctions/arm_conv_partial_q15.c ****       } while (--k);
 377:Drivers/CMSIS/DSP/Source/FilteringFunctions/arm_conv_partial_q15.c **** 
 378:Drivers/CMSIS/DSP/Source/FilteringFunctions/arm_conv_partial_q15.c ****       /* For the next MAC operations, SIMD is not used
 379:Drivers/CMSIS/DSP/Source/FilteringFunctions/arm_conv_partial_q15.c ****        * So, the 16 bit pointer if inputB, py is updated */
 380:Drivers/CMSIS/DSP/Source/FilteringFunctions/arm_conv_partial_q15.c **** 
 381:Drivers/CMSIS/DSP/Source/FilteringFunctions/arm_conv_partial_q15.c ****       /* If the srcBLen is not a multiple of 4, compute any remaining MACs here.
 382:Drivers/CMSIS/DSP/Source/FilteringFunctions/arm_conv_partial_q15.c ****        ** No loop unrolling is used. */
 383:Drivers/CMSIS/DSP/Source/FilteringFunctions/arm_conv_partial_q15.c ****       k = srcBLen % 0x4U;
 384:Drivers/CMSIS/DSP/Source/FilteringFunctions/arm_conv_partial_q15.c **** 
 385:Drivers/CMSIS/DSP/Source/FilteringFunctions/arm_conv_partial_q15.c ****       if (k == 1U)
 386:Drivers/CMSIS/DSP/Source/FilteringFunctions/arm_conv_partial_q15.c ****       {
 387:Drivers/CMSIS/DSP/Source/FilteringFunctions/arm_conv_partial_q15.c ****         /* Read y[srcBLen - 5] */
 388:Drivers/CMSIS/DSP/Source/FilteringFunctions/arm_conv_partial_q15.c ****         c0 = *(py+1);
 547              		.loc 1 388 9 is_stmt 1 view .LVU187
 548              		.loc 1 388 14 is_stmt 0 view .LVU188
 549 01a4 3BF9064C 		ldrsh	r4, [fp, #-6]
 550              	.LVL77:
 389:Drivers/CMSIS/DSP/Source/FilteringFunctions/arm_conv_partial_q15.c **** 
 390:Drivers/CMSIS/DSP/Source/FilteringFunctions/arm_conv_partial_q15.c **** #ifdef  ARM_MATH_BIG_ENDIAN
 391:Drivers/CMSIS/DSP/Source/FilteringFunctions/arm_conv_partial_q15.c **** 
 392:Drivers/CMSIS/DSP/Source/FilteringFunctions/arm_conv_partial_q15.c ****         c0 = c0 << 16U;
 393:Drivers/CMSIS/DSP/Source/FilteringFunctions/arm_conv_partial_q15.c **** 
 394:Drivers/CMSIS/DSP/Source/FilteringFunctions/arm_conv_partial_q15.c **** #else
 395:Drivers/CMSIS/DSP/Source/FilteringFunctions/arm_conv_partial_q15.c **** 
 396:Drivers/CMSIS/DSP/Source/FilteringFunctions/arm_conv_partial_q15.c ****         c0 = c0 & 0x0000FFFF;
 551              		.loc 1 396 9 is_stmt 1 view .LVU189
 552              		.loc 1 396 12 is_stmt 0 view .LVU190
 553 01a8 1FFA84FA 		uxth	r10, r4
 554              	.LVL78:
 397:Drivers/CMSIS/DSP/Source/FilteringFunctions/arm_conv_partial_q15.c **** 
 398:Drivers/CMSIS/DSP/Source/FilteringFunctions/arm_conv_partial_q15.c **** #endif /*      #ifdef  ARM_MATH_BIG_ENDIAN     */
 399:Drivers/CMSIS/DSP/Source/FilteringFunctions/arm_conv_partial_q15.c **** 
 400:Drivers/CMSIS/DSP/Source/FilteringFunctions/arm_conv_partial_q15.c ****         /* Read x[7] */
 401:Drivers/CMSIS/DSP/Source/FilteringFunctions/arm_conv_partial_q15.c ****         x3 = *__SIMD32(px);
 555              		.loc 1 401 9 is_stmt 1 view .LVU191
 556              		.loc 1 401 12 is_stmt 0 view .LVU192
 557 01ac 0C9C     		ldr	r4, [sp, #48]
 558 01ae D4F808E0 		ldr	lr, [r4, #8]
 559              	.LVL79:
 402:Drivers/CMSIS/DSP/Source/FilteringFunctions/arm_conv_partial_q15.c ****         px++;
 560              		.loc 1 402 9 is_stmt 1 view .LVU193
 561              		.loc 1 402 11 is_stmt 0 view .LVU194
 562 01b2 04F10A0C 		add	ip, r4, #10
 563              	.LVL80:
 403:Drivers/CMSIS/DSP/Source/FilteringFunctions/arm_conv_partial_q15.c **** 
 404:Drivers/CMSIS/DSP/Source/FilteringFunctions/arm_conv_partial_q15.c ****         /* Perform the multiply-accumulates */
 405:Drivers/CMSIS/DSP/Source/FilteringFunctions/arm_conv_partial_q15.c ****         acc0 = __SMLALD(x0, c0, acc0);
 564              		.loc 1 405 9 is_stmt 1 view .LVU195
ARM GAS  /var/folders/n6/c271nzx11xl4r4_m7sqjlt0m0000gn/T//cc9tggTv.s 			page 53


 565              	.LBB86:
 566              	.LBI86:
1922:Drivers/CMSIS/Include/cmsis_gcc.h **** {
 567              		.loc 2 1922 31 view .LVU196
 568              	.LBB87:
1924:Drivers/CMSIS/Include/cmsis_gcc.h ****     uint32_t w32[2];
 569              		.loc 2 1924 3 view .LVU197
1928:Drivers/CMSIS/Include/cmsis_gcc.h **** 
 570              		.loc 2 1928 3 view .LVU198
1931:Drivers/CMSIS/Include/cmsis_gcc.h **** #else               /* Big endian */
 571              		.loc 2 1931 3 view .LVU199
 572 01b6 0A9C     		ldr	r4, [sp, #40]
 573              		.syntax unified
 574              	@ 1931 "Drivers/CMSIS/Include/cmsis_gcc.h" 1
 575 01b8 C4FBCA96 		smlald r9, r6, r4, r10
 576              	@ 0 "" 2
 577              	.LVL81:
1936:Drivers/CMSIS/Include/cmsis_gcc.h **** }
 578              		.loc 2 1936 3 view .LVU200
1936:Drivers/CMSIS/Include/cmsis_gcc.h **** }
 579              		.loc 2 1936 3 is_stmt 0 view .LVU201
 580              		.thumb
 581              		.syntax unified
 582              	.LBE87:
 583              	.LBE86:
 584              		.loc 1 405 14 discriminator 1 view .LVU202
 585 01bc CDF80090 		str	r9, [sp]
 586              	.LVL82:
 587              		.loc 1 405 14 discriminator 1 view .LVU203
 588 01c0 0196     		str	r6, [sp, #4]
 589              	.LVL83:
 406:Drivers/CMSIS/DSP/Source/FilteringFunctions/arm_conv_partial_q15.c ****         acc1 = __SMLALD(x1, c0, acc1);
 590              		.loc 1 406 9 is_stmt 1 view .LVU204
 591              	.LBB88:
 592              	.LBI88:
1922:Drivers/CMSIS/Include/cmsis_gcc.h **** {
 593              		.loc 2 1922 31 view .LVU205
 594              	.LBB89:
1924:Drivers/CMSIS/Include/cmsis_gcc.h ****     uint32_t w32[2];
 595              		.loc 2 1924 3 view .LVU206
1928:Drivers/CMSIS/Include/cmsis_gcc.h **** 
 596              		.loc 2 1928 3 view .LVU207
1931:Drivers/CMSIS/Include/cmsis_gcc.h **** #else               /* Big endian */
 597              		.loc 2 1931 3 view .LVU208
 598 01c2 4446     		mov	r4, r8
 599 01c4 0B9E     		ldr	r6, [sp, #44]
 600              	.LVL84:
1931:Drivers/CMSIS/Include/cmsis_gcc.h **** #else               /* Big endian */
 601              		.loc 2 1931 3 is_stmt 0 view .LVU209
 602              		.syntax unified
 603              	@ 1931 "Drivers/CMSIS/Include/cmsis_gcc.h" 1
 604 01c6 C6FBCA54 		smlald r5, r4, r6, r10
 605              	@ 0 "" 2
 606              	.LVL85:
1936:Drivers/CMSIS/Include/cmsis_gcc.h **** }
 607              		.loc 2 1936 3 is_stmt 1 view .LVU210
1936:Drivers/CMSIS/Include/cmsis_gcc.h **** }
ARM GAS  /var/folders/n6/c271nzx11xl4r4_m7sqjlt0m0000gn/T//cc9tggTv.s 			page 54


 608              		.loc 2 1936 3 is_stmt 0 view .LVU211
 609              		.thumb
 610              		.syntax unified
 611              	.LBE89:
 612              	.LBE88:
 613              		.loc 1 406 14 discriminator 1 view .LVU212
 614 01ca 0295     		str	r5, [sp, #8]
 615              	.LVL86:
 616              		.loc 1 406 14 discriminator 1 view .LVU213
 617 01cc 0394     		str	r4, [sp, #12]
 618              	.LVL87:
 407:Drivers/CMSIS/DSP/Source/FilteringFunctions/arm_conv_partial_q15.c ****         acc2 = __SMLALDX(x1, c0, acc2);
 619              		.loc 1 407 9 is_stmt 1 view .LVU214
 620              	.LBB90:
 621              	.LBI90:
1939:Drivers/CMSIS/Include/cmsis_gcc.h **** {
 622              		.loc 2 1939 31 view .LVU215
 623              	.LBB91:
1941:Drivers/CMSIS/Include/cmsis_gcc.h ****     uint32_t w32[2];
 624              		.loc 2 1941 3 view .LVU216
1945:Drivers/CMSIS/Include/cmsis_gcc.h **** 
 625              		.loc 2 1945 3 view .LVU217
1948:Drivers/CMSIS/Include/cmsis_gcc.h **** #else               /* Big endian */
 626              		.loc 2 1948 3 view .LVU218
 627              		.syntax unified
 628              	@ 1948 "Drivers/CMSIS/Include/cmsis_gcc.h" 1
 629 01ce C6FBDA01 		smlaldx r0, r1, r6, r10
 630              	@ 0 "" 2
 631              	.LVL88:
 632              		.loc 2 1953 3 view .LVU219
 633              		.loc 2 1953 3 is_stmt 0 view .LVU220
 634              		.thumb
 635              		.syntax unified
 636              	.LBE91:
 637              	.LBE90:
 638              		.loc 1 407 14 discriminator 1 view .LVU221
 639 01d2 0490     		str	r0, [sp, #16]
 640              	.LVL89:
 641              		.loc 1 407 14 discriminator 1 view .LVU222
 642 01d4 0591     		str	r1, [sp, #20]
 643              	.LVL90:
 408:Drivers/CMSIS/DSP/Source/FilteringFunctions/arm_conv_partial_q15.c ****         acc3 = __SMLALDX(x3, c0, acc3);
 644              		.loc 1 408 9 is_stmt 1 view .LVU223
 645              	.LBB92:
 646              	.LBI92:
1939:Drivers/CMSIS/Include/cmsis_gcc.h **** {
 647              		.loc 2 1939 31 view .LVU224
 648              	.LBB93:
1941:Drivers/CMSIS/Include/cmsis_gcc.h ****     uint32_t w32[2];
 649              		.loc 2 1941 3 view .LVU225
1945:Drivers/CMSIS/Include/cmsis_gcc.h **** 
 650              		.loc 2 1945 3 view .LVU226
1948:Drivers/CMSIS/Include/cmsis_gcc.h **** #else               /* Big endian */
 651              		.loc 2 1948 3 view .LVU227
 652              		.syntax unified
 653              	@ 1948 "Drivers/CMSIS/Include/cmsis_gcc.h" 1
 654 01d6 CEFBDA23 		smlaldx r2, r3, lr, r10
ARM GAS  /var/folders/n6/c271nzx11xl4r4_m7sqjlt0m0000gn/T//cc9tggTv.s 			page 55


 655              	@ 0 "" 2
 656              	.LVL91:
 657              		.loc 2 1953 3 view .LVU228
 658              		.loc 2 1953 3 is_stmt 0 view .LVU229
 659              		.thumb
 660              		.syntax unified
 661              	.LBE93:
 662              	.LBE92:
 663              		.loc 1 408 14 discriminator 1 view .LVU230
 664 01da 0692     		str	r2, [sp, #24]
 665              	.LVL92:
 666              		.loc 1 408 14 discriminator 1 view .LVU231
 667 01dc 0793     		str	r3, [sp, #28]
 668              	.LVL93:
 669              		.loc 1 408 14 discriminator 1 view .LVU232
 670 01de BEE0     		b	.L21
 671              	.LVL94:
 672              	.L65:
 409:Drivers/CMSIS/DSP/Source/FilteringFunctions/arm_conv_partial_q15.c ****       }
 410:Drivers/CMSIS/DSP/Source/FilteringFunctions/arm_conv_partial_q15.c **** 
 411:Drivers/CMSIS/DSP/Source/FilteringFunctions/arm_conv_partial_q15.c ****       if (k == 2U)
 412:Drivers/CMSIS/DSP/Source/FilteringFunctions/arm_conv_partial_q15.c ****       {
 413:Drivers/CMSIS/DSP/Source/FilteringFunctions/arm_conv_partial_q15.c ****         /* Read y[srcBLen - 5], y[srcBLen - 6] */
 414:Drivers/CMSIS/DSP/Source/FilteringFunctions/arm_conv_partial_q15.c ****         c0 = _SIMD32_OFFSET(py);
 673              		.loc 1 414 9 is_stmt 1 view .LVU233
 674              		.loc 1 414 12 is_stmt 0 view .LVU234
 675 01e0 5BF8084C 		ldr	r4, [fp, #-8]
 676              	.LVL95:
 415:Drivers/CMSIS/DSP/Source/FilteringFunctions/arm_conv_partial_q15.c **** 
 416:Drivers/CMSIS/DSP/Source/FilteringFunctions/arm_conv_partial_q15.c ****         /* Read x[7], x[8] */
 417:Drivers/CMSIS/DSP/Source/FilteringFunctions/arm_conv_partial_q15.c ****         x3 = *__SIMD32(px);
 677              		.loc 1 417 9 is_stmt 1 view .LVU235
 678              		.loc 1 417 12 is_stmt 0 view .LVU236
 679 01e4 DCF80010 		ldr	r1, [ip]
 680              	.LVL96:
 418:Drivers/CMSIS/DSP/Source/FilteringFunctions/arm_conv_partial_q15.c **** 
 419:Drivers/CMSIS/DSP/Source/FilteringFunctions/arm_conv_partial_q15.c ****         /* Read x[9] */
 420:Drivers/CMSIS/DSP/Source/FilteringFunctions/arm_conv_partial_q15.c ****         x2 = _SIMD32_OFFSET(px+1);
 681              		.loc 1 420 9 is_stmt 1 view .LVU237
 682              		.loc 1 420 12 is_stmt 0 view .LVU238
 683 01e8 DCF80220 		ldr	r2, [ip, #2]
 684              	.LVL97:
 421:Drivers/CMSIS/DSP/Source/FilteringFunctions/arm_conv_partial_q15.c ****         px += 2U;
 685              		.loc 1 421 9 is_stmt 1 view .LVU239
 686              		.loc 1 421 12 is_stmt 0 view .LVU240
 687 01ec 0CF1040C 		add	ip, ip, #4
 688              	.LVL98:
 422:Drivers/CMSIS/DSP/Source/FilteringFunctions/arm_conv_partial_q15.c **** 
 423:Drivers/CMSIS/DSP/Source/FilteringFunctions/arm_conv_partial_q15.c ****         /* Perform the multiply-accumulates */
 424:Drivers/CMSIS/DSP/Source/FilteringFunctions/arm_conv_partial_q15.c ****         acc0 = __SMLALDX(x0, c0, acc0);
 689              		.loc 1 424 9 is_stmt 1 view .LVU241
 690              	.LBB94:
 691              	.LBI94:
1939:Drivers/CMSIS/Include/cmsis_gcc.h **** {
 692              		.loc 2 1939 31 view .LVU242
 693              	.LBB95:
1941:Drivers/CMSIS/Include/cmsis_gcc.h ****     uint32_t w32[2];
ARM GAS  /var/folders/n6/c271nzx11xl4r4_m7sqjlt0m0000gn/T//cc9tggTv.s 			page 56


 694              		.loc 2 1941 3 view .LVU243
1945:Drivers/CMSIS/Include/cmsis_gcc.h **** 
 695              		.loc 2 1945 3 view .LVU244
1948:Drivers/CMSIS/Include/cmsis_gcc.h **** #else               /* Big endian */
 696              		.loc 2 1948 3 view .LVU245
 697 01f0 0098     		ldr	r0, [sp]
 698 01f2 019B     		ldr	r3, [sp, #4]
 699 01f4 0A9D     		ldr	r5, [sp, #40]
 700              		.syntax unified
 701              	@ 1948 "Drivers/CMSIS/Include/cmsis_gcc.h" 1
 702 01f6 C5FBD403 		smlaldx r0, r3, r5, r4
 703              	@ 0 "" 2
 704              		.loc 2 1953 3 view .LVU246
 705              	.LVL99:
 706              		.loc 2 1953 3 is_stmt 0 view .LVU247
 707              		.thumb
 708              		.syntax unified
 709              	.LBE95:
 710              	.LBE94:
 711              		.loc 1 424 14 discriminator 1 view .LVU248
 712 01fa 0090     		str	r0, [sp]
 713              	.LVL100:
 714              		.loc 1 424 14 discriminator 1 view .LVU249
 715 01fc 0193     		str	r3, [sp, #4]
 716              	.LVL101:
 425:Drivers/CMSIS/DSP/Source/FilteringFunctions/arm_conv_partial_q15.c ****         acc1 = __SMLALDX(x1, c0, acc1);
 717              		.loc 1 425 9 is_stmt 1 view .LVU250
 718              	.LBB96:
 719              	.LBI96:
1939:Drivers/CMSIS/Include/cmsis_gcc.h **** {
 720              		.loc 2 1939 31 view .LVU251
 721              	.LBB97:
1941:Drivers/CMSIS/Include/cmsis_gcc.h ****     uint32_t w32[2];
 722              		.loc 2 1941 3 view .LVU252
1945:Drivers/CMSIS/Include/cmsis_gcc.h **** 
 723              		.loc 2 1945 3 view .LVU253
1948:Drivers/CMSIS/Include/cmsis_gcc.h **** #else               /* Big endian */
 724              		.loc 2 1948 3 view .LVU254
 725 01fe 0298     		ldr	r0, [sp, #8]
 726              	.LVL102:
1948:Drivers/CMSIS/Include/cmsis_gcc.h **** #else               /* Big endian */
 727              		.loc 2 1948 3 is_stmt 0 view .LVU255
 728 0200 039B     		ldr	r3, [sp, #12]
 729              	.LVL103:
1948:Drivers/CMSIS/Include/cmsis_gcc.h **** #else               /* Big endian */
 730              		.loc 2 1948 3 view .LVU256
 731 0202 0B9D     		ldr	r5, [sp, #44]
 732              		.syntax unified
 733              	@ 1948 "Drivers/CMSIS/Include/cmsis_gcc.h" 1
 734 0204 C5FBD403 		smlaldx r0, r3, r5, r4
 735              	@ 0 "" 2
 736              		.loc 2 1953 3 is_stmt 1 view .LVU257
 737              	.LVL104:
 738              		.loc 2 1953 3 is_stmt 0 view .LVU258
 739              		.thumb
 740              		.syntax unified
 741              	.LBE97:
ARM GAS  /var/folders/n6/c271nzx11xl4r4_m7sqjlt0m0000gn/T//cc9tggTv.s 			page 57


 742              	.LBE96:
 743              		.loc 1 425 14 discriminator 1 view .LVU259
 744 0208 0290     		str	r0, [sp, #8]
 745              	.LVL105:
 746              		.loc 1 425 14 discriminator 1 view .LVU260
 747 020a 0393     		str	r3, [sp, #12]
 748              	.LVL106:
 426:Drivers/CMSIS/DSP/Source/FilteringFunctions/arm_conv_partial_q15.c ****         acc2 = __SMLALDX(x3, c0, acc2);
 749              		.loc 1 426 9 is_stmt 1 view .LVU261
 750              	.LBB98:
 751              	.LBI98:
1939:Drivers/CMSIS/Include/cmsis_gcc.h **** {
 752              		.loc 2 1939 31 view .LVU262
 753              	.LBB99:
1941:Drivers/CMSIS/Include/cmsis_gcc.h ****     uint32_t w32[2];
 754              		.loc 2 1941 3 view .LVU263
1945:Drivers/CMSIS/Include/cmsis_gcc.h **** 
 755              		.loc 2 1945 3 view .LVU264
1948:Drivers/CMSIS/Include/cmsis_gcc.h **** #else               /* Big endian */
 756              		.loc 2 1948 3 view .LVU265
 757 020c 0498     		ldr	r0, [sp, #16]
 758              	.LVL107:
1948:Drivers/CMSIS/Include/cmsis_gcc.h **** #else               /* Big endian */
 759              		.loc 2 1948 3 is_stmt 0 view .LVU266
 760 020e 059B     		ldr	r3, [sp, #20]
 761              	.LVL108:
1948:Drivers/CMSIS/Include/cmsis_gcc.h **** #else               /* Big endian */
 762              		.loc 2 1948 3 view .LVU267
 763              		.syntax unified
 764              	@ 1948 "Drivers/CMSIS/Include/cmsis_gcc.h" 1
 765 0210 C1FBD403 		smlaldx r0, r3, r1, r4
 766              	@ 0 "" 2
 767              		.loc 2 1953 3 is_stmt 1 view .LVU268
 768              	.LVL109:
 769              		.loc 2 1953 3 is_stmt 0 view .LVU269
 770              		.thumb
 771              		.syntax unified
 772              	.LBE99:
 773              	.LBE98:
 774              		.loc 1 426 14 discriminator 1 view .LVU270
 775 0214 0490     		str	r0, [sp, #16]
 776              	.LVL110:
 777              		.loc 1 426 14 discriminator 1 view .LVU271
 778 0216 0593     		str	r3, [sp, #20]
 779              	.LVL111:
 427:Drivers/CMSIS/DSP/Source/FilteringFunctions/arm_conv_partial_q15.c ****         acc3 = __SMLALDX(x2, c0, acc3);
 780              		.loc 1 427 9 is_stmt 1 view .LVU272
 781              	.LBB100:
 782              	.LBI100:
1939:Drivers/CMSIS/Include/cmsis_gcc.h **** {
 783              		.loc 2 1939 31 view .LVU273
 784              	.LBB101:
1941:Drivers/CMSIS/Include/cmsis_gcc.h ****     uint32_t w32[2];
 785              		.loc 2 1941 3 view .LVU274
1945:Drivers/CMSIS/Include/cmsis_gcc.h **** 
 786              		.loc 2 1945 3 view .LVU275
1948:Drivers/CMSIS/Include/cmsis_gcc.h **** #else               /* Big endian */
ARM GAS  /var/folders/n6/c271nzx11xl4r4_m7sqjlt0m0000gn/T//cc9tggTv.s 			page 58


 787              		.loc 2 1948 3 view .LVU276
 788 0218 0699     		ldr	r1, [sp, #24]
 789              	.LVL112:
1948:Drivers/CMSIS/Include/cmsis_gcc.h **** #else               /* Big endian */
 790              		.loc 2 1948 3 is_stmt 0 view .LVU277
 791 021a 079B     		ldr	r3, [sp, #28]
 792              	.LVL113:
1948:Drivers/CMSIS/Include/cmsis_gcc.h **** #else               /* Big endian */
 793              		.loc 2 1948 3 view .LVU278
 794              		.syntax unified
 795              	@ 1948 "Drivers/CMSIS/Include/cmsis_gcc.h" 1
 796 021c C2FBD413 		smlaldx r1, r3, r2, r4
 797              	@ 0 "" 2
 798              		.loc 2 1953 3 is_stmt 1 view .LVU279
 799              	.LVL114:
 800              		.loc 2 1953 3 is_stmt 0 view .LVU280
 801              		.thumb
 802              		.syntax unified
 803              	.LBE101:
 804              	.LBE100:
 805              		.loc 1 427 14 discriminator 1 view .LVU281
 806 0220 0691     		str	r1, [sp, #24]
 807              	.LVL115:
 808              		.loc 1 427 14 discriminator 1 view .LVU282
 809 0222 0793     		str	r3, [sp, #28]
 810              	.LVL116:
 811              		.loc 1 427 14 discriminator 1 view .LVU283
 812 0224 9EE0     		b	.L22
 813              	.LVL117:
 814              	.L66:
 428:Drivers/CMSIS/DSP/Source/FilteringFunctions/arm_conv_partial_q15.c ****       }
 429:Drivers/CMSIS/DSP/Source/FilteringFunctions/arm_conv_partial_q15.c **** 
 430:Drivers/CMSIS/DSP/Source/FilteringFunctions/arm_conv_partial_q15.c ****       if (k == 3U)
 431:Drivers/CMSIS/DSP/Source/FilteringFunctions/arm_conv_partial_q15.c ****       {
 432:Drivers/CMSIS/DSP/Source/FilteringFunctions/arm_conv_partial_q15.c ****         /* Read y[srcBLen - 5], y[srcBLen - 6] */
 433:Drivers/CMSIS/DSP/Source/FilteringFunctions/arm_conv_partial_q15.c ****         c0 = _SIMD32_OFFSET(py);
 815              		.loc 1 433 9 is_stmt 1 view .LVU284
 816              		.loc 1 433 12 is_stmt 0 view .LVU285
 817 0226 5BF8085C 		ldr	r5, [fp, #-8]
 818              	.LVL118:
 434:Drivers/CMSIS/DSP/Source/FilteringFunctions/arm_conv_partial_q15.c **** 
 435:Drivers/CMSIS/DSP/Source/FilteringFunctions/arm_conv_partial_q15.c ****         /* Read x[7], x[8] */
 436:Drivers/CMSIS/DSP/Source/FilteringFunctions/arm_conv_partial_q15.c ****         x3 = *__SIMD32(px);
 819              		.loc 1 436 9 is_stmt 1 view .LVU286
 820              		.loc 1 436 12 is_stmt 0 view .LVU287
 821 022a DCF80030 		ldr	r3, [ip]
 822              	.LVL119:
 437:Drivers/CMSIS/DSP/Source/FilteringFunctions/arm_conv_partial_q15.c **** 
 438:Drivers/CMSIS/DSP/Source/FilteringFunctions/arm_conv_partial_q15.c ****         /* Read x[9] */
 439:Drivers/CMSIS/DSP/Source/FilteringFunctions/arm_conv_partial_q15.c ****         x2 = _SIMD32_OFFSET(px+1);
 823              		.loc 1 439 9 is_stmt 1 view .LVU288
 824              		.loc 1 439 12 is_stmt 0 view .LVU289
 825 022e DCF80210 		ldr	r1, [ip, #2]
 826              	.LVL120:
 440:Drivers/CMSIS/DSP/Source/FilteringFunctions/arm_conv_partial_q15.c **** 
 441:Drivers/CMSIS/DSP/Source/FilteringFunctions/arm_conv_partial_q15.c ****         /* Perform the multiply-accumulates */
 442:Drivers/CMSIS/DSP/Source/FilteringFunctions/arm_conv_partial_q15.c ****         acc0 = __SMLALDX(x0, c0, acc0);
ARM GAS  /var/folders/n6/c271nzx11xl4r4_m7sqjlt0m0000gn/T//cc9tggTv.s 			page 59


 827              		.loc 1 442 9 is_stmt 1 view .LVU290
 828              	.LBB102:
 829              	.LBI102:
1939:Drivers/CMSIS/Include/cmsis_gcc.h **** {
 830              		.loc 2 1939 31 view .LVU291
 831              	.LBB103:
1941:Drivers/CMSIS/Include/cmsis_gcc.h ****     uint32_t w32[2];
 832              		.loc 2 1941 3 view .LVU292
1945:Drivers/CMSIS/Include/cmsis_gcc.h **** 
 833              		.loc 2 1945 3 view .LVU293
1948:Drivers/CMSIS/Include/cmsis_gcc.h **** #else               /* Big endian */
 834              		.loc 2 1948 3 view .LVU294
 835 0232 009F     		ldr	r7, [sp]
 836              	.LVL121:
1948:Drivers/CMSIS/Include/cmsis_gcc.h **** #else               /* Big endian */
 837              		.loc 2 1948 3 is_stmt 0 view .LVU295
 838 0234 019C     		ldr	r4, [sp, #4]
 839 0236 0A9A     		ldr	r2, [sp, #40]
 840              		.syntax unified
 841              	@ 1948 "Drivers/CMSIS/Include/cmsis_gcc.h" 1
 842 0238 C2FBD574 		smlaldx r7, r4, r2, r5
 843              	@ 0 "" 2
 844              		.loc 2 1953 3 is_stmt 1 view .LVU296
 845              	.LVL122:
 846              		.loc 2 1953 3 is_stmt 0 view .LVU297
 847              		.thumb
 848              		.syntax unified
 849              	.LBE103:
 850              	.LBE102:
 443:Drivers/CMSIS/DSP/Source/FilteringFunctions/arm_conv_partial_q15.c ****         acc1 = __SMLALDX(x1, c0, acc1);
 851              		.loc 1 443 9 is_stmt 1 view .LVU298
 852              	.LBB104:
 853              	.LBI104:
1939:Drivers/CMSIS/Include/cmsis_gcc.h **** {
 854              		.loc 2 1939 31 view .LVU299
 855              	.LBB105:
1941:Drivers/CMSIS/Include/cmsis_gcc.h ****     uint32_t w32[2];
 856              		.loc 2 1941 3 view .LVU300
1945:Drivers/CMSIS/Include/cmsis_gcc.h **** 
 857              		.loc 2 1945 3 view .LVU301
1948:Drivers/CMSIS/Include/cmsis_gcc.h **** #else               /* Big endian */
 858              		.loc 2 1948 3 view .LVU302
 859 023c DDF808E0 		ldr	lr, [sp, #8]
 860 0240 0398     		ldr	r0, [sp, #12]
 861 0242 0B9A     		ldr	r2, [sp, #44]
 862              		.syntax unified
 863              	@ 1948 "Drivers/CMSIS/Include/cmsis_gcc.h" 1
 864 0244 C2FBD5E0 		smlaldx lr, r0, r2, r5
 865              	@ 0 "" 2
 866              		.loc 2 1953 3 view .LVU303
 867              	.LVL123:
 868              		.loc 2 1953 3 is_stmt 0 view .LVU304
 869              		.thumb
 870              		.syntax unified
 871              	.LBE105:
 872              	.LBE104:
 444:Drivers/CMSIS/DSP/Source/FilteringFunctions/arm_conv_partial_q15.c ****         acc2 = __SMLALDX(x3, c0, acc2);
ARM GAS  /var/folders/n6/c271nzx11xl4r4_m7sqjlt0m0000gn/T//cc9tggTv.s 			page 60


 873              		.loc 1 444 9 is_stmt 1 view .LVU305
 874              	.LBB106:
 875              	.LBI106:
1939:Drivers/CMSIS/Include/cmsis_gcc.h **** {
 876              		.loc 2 1939 31 view .LVU306
 877              	.LBB107:
1941:Drivers/CMSIS/Include/cmsis_gcc.h ****     uint32_t w32[2];
 878              		.loc 2 1941 3 view .LVU307
1945:Drivers/CMSIS/Include/cmsis_gcc.h **** 
 879              		.loc 2 1945 3 view .LVU308
1948:Drivers/CMSIS/Include/cmsis_gcc.h **** #else               /* Big endian */
 880              		.loc 2 1948 3 view .LVU309
 881 0248 DDF81080 		ldr	r8, [sp, #16]
 882 024c DDF814A0 		ldr	r10, [sp, #20]
 883              		.syntax unified
 884              	@ 1948 "Drivers/CMSIS/Include/cmsis_gcc.h" 1
 885 0250 C3FBD58A 		smlaldx r8, r10, r3, r5
 886              	@ 0 "" 2
 887              		.loc 2 1953 3 view .LVU310
 888              	.LVL124:
 889              		.loc 2 1953 3 is_stmt 0 view .LVU311
 890              		.thumb
 891              		.syntax unified
 892              	.LBE107:
 893              	.LBE106:
 445:Drivers/CMSIS/DSP/Source/FilteringFunctions/arm_conv_partial_q15.c ****         acc3 = __SMLALDX(x2, c0, acc3);
 894              		.loc 1 445 9 is_stmt 1 view .LVU312
 895              	.LBB108:
 896              	.LBI108:
1939:Drivers/CMSIS/Include/cmsis_gcc.h **** {
 897              		.loc 2 1939 31 view .LVU313
 898              	.LBB109:
1941:Drivers/CMSIS/Include/cmsis_gcc.h ****     uint32_t w32[2];
 899              		.loc 2 1941 3 view .LVU314
1945:Drivers/CMSIS/Include/cmsis_gcc.h **** 
 900              		.loc 2 1945 3 view .LVU315
1948:Drivers/CMSIS/Include/cmsis_gcc.h **** #else               /* Big endian */
 901              		.loc 2 1948 3 view .LVU316
 902 0254 DDF81890 		ldr	r9, [sp, #24]
 903 0258 079B     		ldr	r3, [sp, #28]
 904              	.LVL125:
1948:Drivers/CMSIS/Include/cmsis_gcc.h **** #else               /* Big endian */
 905              		.loc 2 1948 3 is_stmt 0 view .LVU317
 906              		.syntax unified
 907              	@ 1948 "Drivers/CMSIS/Include/cmsis_gcc.h" 1
 908 025a C1FBD593 		smlaldx r9, r3, r1, r5
 909              	@ 0 "" 2
 910              		.loc 2 1953 3 is_stmt 1 view .LVU318
 911              	.LVL126:
 912              		.loc 2 1953 3 is_stmt 0 view .LVU319
 913              		.thumb
 914              		.syntax unified
 915              	.LBE109:
 916              	.LBE108:
 446:Drivers/CMSIS/DSP/Source/FilteringFunctions/arm_conv_partial_q15.c **** 
 447:Drivers/CMSIS/DSP/Source/FilteringFunctions/arm_conv_partial_q15.c ****         c0 = *(py-1);
 917              		.loc 1 447 9 is_stmt 1 view .LVU320
ARM GAS  /var/folders/n6/c271nzx11xl4r4_m7sqjlt0m0000gn/T//cc9tggTv.s 			page 61


 918              		.loc 1 447 14 is_stmt 0 view .LVU321
 919 025e 3BF90A5C 		ldrsh	r5, [fp, #-10]
 920              	.LVL127:
 448:Drivers/CMSIS/DSP/Source/FilteringFunctions/arm_conv_partial_q15.c **** 
 449:Drivers/CMSIS/DSP/Source/FilteringFunctions/arm_conv_partial_q15.c **** #ifdef  ARM_MATH_BIG_ENDIAN
 450:Drivers/CMSIS/DSP/Source/FilteringFunctions/arm_conv_partial_q15.c **** 
 451:Drivers/CMSIS/DSP/Source/FilteringFunctions/arm_conv_partial_q15.c ****         c0 = c0 << 16U;
 452:Drivers/CMSIS/DSP/Source/FilteringFunctions/arm_conv_partial_q15.c **** #else
 453:Drivers/CMSIS/DSP/Source/FilteringFunctions/arm_conv_partial_q15.c **** 
 454:Drivers/CMSIS/DSP/Source/FilteringFunctions/arm_conv_partial_q15.c ****         c0 = c0 & 0x0000FFFF;
 921              		.loc 1 454 9 is_stmt 1 view .LVU322
 922              		.loc 1 454 12 is_stmt 0 view .LVU323
 923 0262 ADB2     		uxth	r5, r5
 924              	.LVL128:
 455:Drivers/CMSIS/DSP/Source/FilteringFunctions/arm_conv_partial_q15.c **** #endif /*      #ifdef  ARM_MATH_BIG_ENDIAN     */
 456:Drivers/CMSIS/DSP/Source/FilteringFunctions/arm_conv_partial_q15.c **** 
 457:Drivers/CMSIS/DSP/Source/FilteringFunctions/arm_conv_partial_q15.c ****         /* Read x[10] */
 458:Drivers/CMSIS/DSP/Source/FilteringFunctions/arm_conv_partial_q15.c ****         x3 =  _SIMD32_OFFSET(px+2);
 925              		.loc 1 458 9 is_stmt 1 view .LVU324
 926              		.loc 1 458 12 is_stmt 0 view .LVU325
 927 0264 DCF80460 		ldr	r6, [ip, #4]
 928              	.LVL129:
 459:Drivers/CMSIS/DSP/Source/FilteringFunctions/arm_conv_partial_q15.c ****         px += 3U;
 929              		.loc 1 459 9 is_stmt 1 view .LVU326
 460:Drivers/CMSIS/DSP/Source/FilteringFunctions/arm_conv_partial_q15.c **** 
 461:Drivers/CMSIS/DSP/Source/FilteringFunctions/arm_conv_partial_q15.c ****         /* Perform the multiply-accumulates */
 462:Drivers/CMSIS/DSP/Source/FilteringFunctions/arm_conv_partial_q15.c ****         acc0 = __SMLALDX(x1, c0, acc0);
 930              		.loc 1 462 9 view .LVU327
 931              	.LBB110:
 932              	.LBI110:
1939:Drivers/CMSIS/Include/cmsis_gcc.h **** {
 933              		.loc 2 1939 31 view .LVU328
 934              	.LBB111:
1941:Drivers/CMSIS/Include/cmsis_gcc.h ****     uint32_t w32[2];
 935              		.loc 2 1941 3 view .LVU329
1945:Drivers/CMSIS/Include/cmsis_gcc.h **** 
 936              		.loc 2 1945 3 view .LVU330
1948:Drivers/CMSIS/Include/cmsis_gcc.h **** #else               /* Big endian */
 937              		.loc 2 1948 3 view .LVU331
 938              		.syntax unified
 939              	@ 1948 "Drivers/CMSIS/Include/cmsis_gcc.h" 1
 940 0268 C2FBD574 		smlaldx r7, r4, r2, r5
 941              	@ 0 "" 2
 942              	.LVL130:
 943              		.loc 2 1953 3 view .LVU332
 944              		.loc 2 1953 3 is_stmt 0 view .LVU333
 945              		.thumb
 946              		.syntax unified
 947              	.LBE111:
 948              	.LBE110:
 949              		.loc 1 462 14 discriminator 1 view .LVU334
 950 026c 0097     		str	r7, [sp]
 951 026e 0194     		str	r4, [sp, #4]
 952              	.LVL131:
 463:Drivers/CMSIS/DSP/Source/FilteringFunctions/arm_conv_partial_q15.c ****         acc1 = __SMLALD(x2, c0, acc1);
 953              		.loc 1 463 9 is_stmt 1 view .LVU335
 954              	.LBB112:
ARM GAS  /var/folders/n6/c271nzx11xl4r4_m7sqjlt0m0000gn/T//cc9tggTv.s 			page 62


 955              	.LBI112:
1922:Drivers/CMSIS/Include/cmsis_gcc.h **** {
 956              		.loc 2 1922 31 view .LVU336
 957              	.LBB113:
1924:Drivers/CMSIS/Include/cmsis_gcc.h ****     uint32_t w32[2];
 958              		.loc 2 1924 3 view .LVU337
1928:Drivers/CMSIS/Include/cmsis_gcc.h **** 
 959              		.loc 2 1928 3 view .LVU338
1931:Drivers/CMSIS/Include/cmsis_gcc.h **** #else               /* Big endian */
 960              		.loc 2 1931 3 view .LVU339
 961              		.syntax unified
 962              	@ 1931 "Drivers/CMSIS/Include/cmsis_gcc.h" 1
 963 0270 C1FBC5E0 		smlald lr, r0, r1, r5
 964              	@ 0 "" 2
 965              	.LVL132:
1936:Drivers/CMSIS/Include/cmsis_gcc.h **** }
 966              		.loc 2 1936 3 view .LVU340
1936:Drivers/CMSIS/Include/cmsis_gcc.h **** }
 967              		.loc 2 1936 3 is_stmt 0 view .LVU341
 968              		.thumb
 969              		.syntax unified
 970              	.LBE113:
 971              	.LBE112:
 972              		.loc 1 463 14 discriminator 1 view .LVU342
 973 0274 CDF808E0 		str	lr, [sp, #8]
 974 0278 0390     		str	r0, [sp, #12]
 975              	.LVL133:
 464:Drivers/CMSIS/DSP/Source/FilteringFunctions/arm_conv_partial_q15.c ****         acc2 = __SMLALDX(x2, c0, acc2);
 976              		.loc 1 464 9 is_stmt 1 view .LVU343
 977              	.LBB114:
 978              	.LBI114:
1939:Drivers/CMSIS/Include/cmsis_gcc.h **** {
 979              		.loc 2 1939 31 view .LVU344
 980              	.LBB115:
1941:Drivers/CMSIS/Include/cmsis_gcc.h ****     uint32_t w32[2];
 981              		.loc 2 1941 3 view .LVU345
1945:Drivers/CMSIS/Include/cmsis_gcc.h **** 
 982              		.loc 2 1945 3 view .LVU346
1948:Drivers/CMSIS/Include/cmsis_gcc.h **** #else               /* Big endian */
 983              		.loc 2 1948 3 view .LVU347
 984 027a 5246     		mov	r2, r10
 985              		.syntax unified
 986              	@ 1948 "Drivers/CMSIS/Include/cmsis_gcc.h" 1
 987 027c C1FBD582 		smlaldx r8, r2, r1, r5
 988              	@ 0 "" 2
 989              	.LVL134:
 990              		.loc 2 1953 3 view .LVU348
 991              		.loc 2 1953 3 is_stmt 0 view .LVU349
 992              		.thumb
 993              		.syntax unified
 994              	.LBE115:
 995              	.LBE114:
 996              		.loc 1 464 14 discriminator 1 view .LVU350
 997 0280 CDF81080 		str	r8, [sp, #16]
 998 0284 0592     		str	r2, [sp, #20]
 999              	.LVL135:
 465:Drivers/CMSIS/DSP/Source/FilteringFunctions/arm_conv_partial_q15.c ****         acc3 = __SMLALDX(x3, c0, acc3);
ARM GAS  /var/folders/n6/c271nzx11xl4r4_m7sqjlt0m0000gn/T//cc9tggTv.s 			page 63


 1000              		.loc 1 465 9 is_stmt 1 view .LVU351
 1001              	.LBB116:
 1002              	.LBI116:
1939:Drivers/CMSIS/Include/cmsis_gcc.h **** {
 1003              		.loc 2 1939 31 view .LVU352
 1004              	.LBB117:
1941:Drivers/CMSIS/Include/cmsis_gcc.h ****     uint32_t w32[2];
 1005              		.loc 2 1941 3 view .LVU353
1945:Drivers/CMSIS/Include/cmsis_gcc.h **** 
 1006              		.loc 2 1945 3 view .LVU354
1948:Drivers/CMSIS/Include/cmsis_gcc.h **** #else               /* Big endian */
 1007              		.loc 2 1948 3 view .LVU355
 1008              		.syntax unified
 1009              	@ 1948 "Drivers/CMSIS/Include/cmsis_gcc.h" 1
 1010 0286 C6FBD593 		smlaldx r9, r3, r6, r5
 1011              	@ 0 "" 2
 1012              	.LVL136:
 1013              		.loc 2 1953 3 view .LVU356
 1014              		.loc 2 1953 3 is_stmt 0 view .LVU357
 1015              		.thumb
 1016              		.syntax unified
 1017              	.LBE117:
 1018              	.LBE116:
 1019              		.loc 1 465 14 discriminator 1 view .LVU358
 1020 028a CDF81890 		str	r9, [sp, #24]
 1021 028e 0793     		str	r3, [sp, #28]
 1022              	.LVL137:
 1023              		.loc 1 465 14 discriminator 1 view .LVU359
 1024 0290 6BE0     		b	.L23
 1025              	.LVL138:
 1026              	.L24:
 466:Drivers/CMSIS/DSP/Source/FilteringFunctions/arm_conv_partial_q15.c ****       }
 467:Drivers/CMSIS/DSP/Source/FilteringFunctions/arm_conv_partial_q15.c **** 
 468:Drivers/CMSIS/DSP/Source/FilteringFunctions/arm_conv_partial_q15.c **** 
 469:Drivers/CMSIS/DSP/Source/FilteringFunctions/arm_conv_partial_q15.c ****       /* Store the results in the accumulators in the destination buffer. */
 470:Drivers/CMSIS/DSP/Source/FilteringFunctions/arm_conv_partial_q15.c **** 
 471:Drivers/CMSIS/DSP/Source/FilteringFunctions/arm_conv_partial_q15.c **** #ifndef  ARM_MATH_BIG_ENDIAN
 472:Drivers/CMSIS/DSP/Source/FilteringFunctions/arm_conv_partial_q15.c **** 
 473:Drivers/CMSIS/DSP/Source/FilteringFunctions/arm_conv_partial_q15.c ****       *__SIMD32(pOut)++ =
 474:Drivers/CMSIS/DSP/Source/FilteringFunctions/arm_conv_partial_q15.c ****         __PKHBT(__SSAT((acc0 >> 15), 16), __SSAT((acc1 >> 15), 16), 16);
 475:Drivers/CMSIS/DSP/Source/FilteringFunctions/arm_conv_partial_q15.c ****       *__SIMD32(pOut)++ =
 476:Drivers/CMSIS/DSP/Source/FilteringFunctions/arm_conv_partial_q15.c ****         __PKHBT(__SSAT((acc2 >> 15), 16), __SSAT((acc3 >> 15), 16), 16);
 477:Drivers/CMSIS/DSP/Source/FilteringFunctions/arm_conv_partial_q15.c **** 
 478:Drivers/CMSIS/DSP/Source/FilteringFunctions/arm_conv_partial_q15.c **** #else
 479:Drivers/CMSIS/DSP/Source/FilteringFunctions/arm_conv_partial_q15.c **** 
 480:Drivers/CMSIS/DSP/Source/FilteringFunctions/arm_conv_partial_q15.c ****       *__SIMD32(pOut)++ =
 481:Drivers/CMSIS/DSP/Source/FilteringFunctions/arm_conv_partial_q15.c ****         __PKHBT(__SSAT((acc1 >> 15), 16), __SSAT((acc0 >> 15), 16), 16);
 482:Drivers/CMSIS/DSP/Source/FilteringFunctions/arm_conv_partial_q15.c ****       *__SIMD32(pOut)++ =
 483:Drivers/CMSIS/DSP/Source/FilteringFunctions/arm_conv_partial_q15.c ****         __PKHBT(__SSAT((acc3 >> 15), 16), __SSAT((acc2 >> 15), 16), 16);
 484:Drivers/CMSIS/DSP/Source/FilteringFunctions/arm_conv_partial_q15.c **** 
 485:Drivers/CMSIS/DSP/Source/FilteringFunctions/arm_conv_partial_q15.c **** #endif /*      #ifndef  ARM_MATH_BIG_ENDIAN    */
 486:Drivers/CMSIS/DSP/Source/FilteringFunctions/arm_conv_partial_q15.c **** 
 487:Drivers/CMSIS/DSP/Source/FilteringFunctions/arm_conv_partial_q15.c ****       /* Increment the pointer pIn1 index, count by 4 */
 488:Drivers/CMSIS/DSP/Source/FilteringFunctions/arm_conv_partial_q15.c ****       count += 4U;
 489:Drivers/CMSIS/DSP/Source/FilteringFunctions/arm_conv_partial_q15.c **** 
 490:Drivers/CMSIS/DSP/Source/FilteringFunctions/arm_conv_partial_q15.c ****       /* Update the inputA and inputB pointers for next MAC calculation */
