ARM GAS  /var/folders/n6/c271nzx11xl4r4_m7sqjlt0m0000gn/T//ccLVa2sz.s 			page 1


   1              		.cpu cortex-m7
   2              		.arch armv7e-m
   3              		.fpu fpv5-d16
   4              		.eabi_attribute 28, 1
   5              		.eabi_attribute 20, 1
   6              		.eabi_attribute 21, 1
   7              		.eabi_attribute 23, 3
   8              		.eabi_attribute 24, 1
   9              		.eabi_attribute 25, 1
  10              		.eabi_attribute 26, 1
  11              		.eabi_attribute 30, 1
  12              		.eabi_attribute 34, 1
  13              		.eabi_attribute 18, 4
  14              		.file	"arm_cfft_radix4_init_q15.c"
  15              		.text
  16              	.Ltext0:
  17              		.cfi_sections	.debug_frame
  18              		.file 1 "Drivers/CMSIS/DSP/Source/TransformFunctions/arm_cfft_radix4_init_q15.c"
  19              		.section	.text.arm_cfft_radix4_init_q15,"ax",%progbits
  20              		.align	1
  21              		.global	arm_cfft_radix4_init_q15
  22              		.syntax unified
  23              		.thumb
  24              		.thumb_func
  26              	arm_cfft_radix4_init_q15:
  27              	.LVL0:
  28              	.LFB135:
   1:Drivers/CMSIS/DSP/Source/TransformFunctions/arm_cfft_radix4_init_q15.c **** /* ----------------------------------------------------------------------
   2:Drivers/CMSIS/DSP/Source/TransformFunctions/arm_cfft_radix4_init_q15.c ****  * Project:      CMSIS DSP Library
   3:Drivers/CMSIS/DSP/Source/TransformFunctions/arm_cfft_radix4_init_q15.c ****  * Title:        arm_cfft_radix4_init_q15.c
   4:Drivers/CMSIS/DSP/Source/TransformFunctions/arm_cfft_radix4_init_q15.c ****  * Description:  Radix-4 Decimation in Frequency Q15 FFT & IFFT initialization function
   5:Drivers/CMSIS/DSP/Source/TransformFunctions/arm_cfft_radix4_init_q15.c ****  *
   6:Drivers/CMSIS/DSP/Source/TransformFunctions/arm_cfft_radix4_init_q15.c ****  * $Date:        27. January 2017
   7:Drivers/CMSIS/DSP/Source/TransformFunctions/arm_cfft_radix4_init_q15.c ****  * $Revision:    V.1.5.1
   8:Drivers/CMSIS/DSP/Source/TransformFunctions/arm_cfft_radix4_init_q15.c ****  *
   9:Drivers/CMSIS/DSP/Source/TransformFunctions/arm_cfft_radix4_init_q15.c ****  * Target Processor: Cortex-M cores
  10:Drivers/CMSIS/DSP/Source/TransformFunctions/arm_cfft_radix4_init_q15.c ****  * -------------------------------------------------------------------- */
  11:Drivers/CMSIS/DSP/Source/TransformFunctions/arm_cfft_radix4_init_q15.c **** /*
  12:Drivers/CMSIS/DSP/Source/TransformFunctions/arm_cfft_radix4_init_q15.c ****  * Copyright (C) 2010-2017 ARM Limited or its affiliates. All rights reserved.
  13:Drivers/CMSIS/DSP/Source/TransformFunctions/arm_cfft_radix4_init_q15.c ****  *
  14:Drivers/CMSIS/DSP/Source/TransformFunctions/arm_cfft_radix4_init_q15.c ****  * SPDX-License-Identifier: Apache-2.0
  15:Drivers/CMSIS/DSP/Source/TransformFunctions/arm_cfft_radix4_init_q15.c ****  *
  16:Drivers/CMSIS/DSP/Source/TransformFunctions/arm_cfft_radix4_init_q15.c ****  * Licensed under the Apache License, Version 2.0 (the License); you may
  17:Drivers/CMSIS/DSP/Source/TransformFunctions/arm_cfft_radix4_init_q15.c ****  * not use this file except in compliance with the License.
  18:Drivers/CMSIS/DSP/Source/TransformFunctions/arm_cfft_radix4_init_q15.c ****  * You may obtain a copy of the License at
  19:Drivers/CMSIS/DSP/Source/TransformFunctions/arm_cfft_radix4_init_q15.c ****  *
  20:Drivers/CMSIS/DSP/Source/TransformFunctions/arm_cfft_radix4_init_q15.c ****  * www.apache.org/licenses/LICENSE-2.0
  21:Drivers/CMSIS/DSP/Source/TransformFunctions/arm_cfft_radix4_init_q15.c ****  *
  22:Drivers/CMSIS/DSP/Source/TransformFunctions/arm_cfft_radix4_init_q15.c ****  * Unless required by applicable law or agreed to in writing, software
  23:Drivers/CMSIS/DSP/Source/TransformFunctions/arm_cfft_radix4_init_q15.c ****  * distributed under the License is distributed on an AS IS BASIS, WITHOUT
  24:Drivers/CMSIS/DSP/Source/TransformFunctions/arm_cfft_radix4_init_q15.c ****  * WARRANTIES OR CONDITIONS OF ANY KIND, either express or implied.
  25:Drivers/CMSIS/DSP/Source/TransformFunctions/arm_cfft_radix4_init_q15.c ****  * See the License for the specific language governing permissions and
  26:Drivers/CMSIS/DSP/Source/TransformFunctions/arm_cfft_radix4_init_q15.c ****  * limitations under the License.
  27:Drivers/CMSIS/DSP/Source/TransformFunctions/arm_cfft_radix4_init_q15.c ****  */
  28:Drivers/CMSIS/DSP/Source/TransformFunctions/arm_cfft_radix4_init_q15.c **** 
  29:Drivers/CMSIS/DSP/Source/TransformFunctions/arm_cfft_radix4_init_q15.c **** #include "arm_math.h"
  30:Drivers/CMSIS/DSP/Source/TransformFunctions/arm_cfft_radix4_init_q15.c **** #include "arm_common_tables.h"
ARM GAS  /var/folders/n6/c271nzx11xl4r4_m7sqjlt0m0000gn/T//ccLVa2sz.s 			page 2


  31:Drivers/CMSIS/DSP/Source/TransformFunctions/arm_cfft_radix4_init_q15.c **** 
  32:Drivers/CMSIS/DSP/Source/TransformFunctions/arm_cfft_radix4_init_q15.c **** /**
  33:Drivers/CMSIS/DSP/Source/TransformFunctions/arm_cfft_radix4_init_q15.c ****  * @ingroup groupTransforms
  34:Drivers/CMSIS/DSP/Source/TransformFunctions/arm_cfft_radix4_init_q15.c ****  */
  35:Drivers/CMSIS/DSP/Source/TransformFunctions/arm_cfft_radix4_init_q15.c **** 
  36:Drivers/CMSIS/DSP/Source/TransformFunctions/arm_cfft_radix4_init_q15.c **** 
  37:Drivers/CMSIS/DSP/Source/TransformFunctions/arm_cfft_radix4_init_q15.c **** /**
  38:Drivers/CMSIS/DSP/Source/TransformFunctions/arm_cfft_radix4_init_q15.c ****  * @addtogroup ComplexFFT
  39:Drivers/CMSIS/DSP/Source/TransformFunctions/arm_cfft_radix4_init_q15.c ****  * @{
  40:Drivers/CMSIS/DSP/Source/TransformFunctions/arm_cfft_radix4_init_q15.c ****  */
  41:Drivers/CMSIS/DSP/Source/TransformFunctions/arm_cfft_radix4_init_q15.c **** 
  42:Drivers/CMSIS/DSP/Source/TransformFunctions/arm_cfft_radix4_init_q15.c **** 
  43:Drivers/CMSIS/DSP/Source/TransformFunctions/arm_cfft_radix4_init_q15.c **** /**
  44:Drivers/CMSIS/DSP/Source/TransformFunctions/arm_cfft_radix4_init_q15.c **** * @brief Initialization function for the Q15 CFFT/CIFFT.
  45:Drivers/CMSIS/DSP/Source/TransformFunctions/arm_cfft_radix4_init_q15.c **** * @deprecated Do not use this function.  It has been superseded by \ref arm_cfft_q15 and will be re
  46:Drivers/CMSIS/DSP/Source/TransformFunctions/arm_cfft_radix4_init_q15.c **** * @param[in,out] *S             points to an instance of the Q15 CFFT/CIFFT structure.
  47:Drivers/CMSIS/DSP/Source/TransformFunctions/arm_cfft_radix4_init_q15.c **** * @param[in]     fftLen         length of the FFT.
  48:Drivers/CMSIS/DSP/Source/TransformFunctions/arm_cfft_radix4_init_q15.c **** * @param[in]     ifftFlag       flag that selects forward (ifftFlag=0) or inverse (ifftFlag=1) tran
  49:Drivers/CMSIS/DSP/Source/TransformFunctions/arm_cfft_radix4_init_q15.c **** * @param[in]     bitReverseFlag flag that enables (bitReverseFlag=1) or disables (bitReverseFlag=0)
  50:Drivers/CMSIS/DSP/Source/TransformFunctions/arm_cfft_radix4_init_q15.c **** * @return        The function returns ARM_MATH_SUCCESS if initialization is successful or ARM_MATH_
  51:Drivers/CMSIS/DSP/Source/TransformFunctions/arm_cfft_radix4_init_q15.c **** *
  52:Drivers/CMSIS/DSP/Source/TransformFunctions/arm_cfft_radix4_init_q15.c **** * \par Description:
  53:Drivers/CMSIS/DSP/Source/TransformFunctions/arm_cfft_radix4_init_q15.c **** * \par
  54:Drivers/CMSIS/DSP/Source/TransformFunctions/arm_cfft_radix4_init_q15.c **** * The parameter <code>ifftFlag</code> controls whether a forward or inverse transform is computed.
  55:Drivers/CMSIS/DSP/Source/TransformFunctions/arm_cfft_radix4_init_q15.c **** * Set(=1) ifftFlag for calculation of CIFFT otherwise  CFFT is calculated
  56:Drivers/CMSIS/DSP/Source/TransformFunctions/arm_cfft_radix4_init_q15.c **** * \par
  57:Drivers/CMSIS/DSP/Source/TransformFunctions/arm_cfft_radix4_init_q15.c **** * The parameter <code>bitReverseFlag</code> controls whether output is in normal order or bit rever
  58:Drivers/CMSIS/DSP/Source/TransformFunctions/arm_cfft_radix4_init_q15.c **** * Set(=1) bitReverseFlag for output to be in normal order otherwise output is in bit reversed order
  59:Drivers/CMSIS/DSP/Source/TransformFunctions/arm_cfft_radix4_init_q15.c **** * \par
  60:Drivers/CMSIS/DSP/Source/TransformFunctions/arm_cfft_radix4_init_q15.c **** * The parameter <code>fftLen</code>	Specifies length of CFFT/CIFFT process. Supported FFT Lengths a
  61:Drivers/CMSIS/DSP/Source/TransformFunctions/arm_cfft_radix4_init_q15.c **** * \par
  62:Drivers/CMSIS/DSP/Source/TransformFunctions/arm_cfft_radix4_init_q15.c **** * This Function also initializes Twiddle factor table pointer and Bit reversal table pointer.
  63:Drivers/CMSIS/DSP/Source/TransformFunctions/arm_cfft_radix4_init_q15.c **** */
  64:Drivers/CMSIS/DSP/Source/TransformFunctions/arm_cfft_radix4_init_q15.c **** 
  65:Drivers/CMSIS/DSP/Source/TransformFunctions/arm_cfft_radix4_init_q15.c **** arm_status arm_cfft_radix4_init_q15(
  66:Drivers/CMSIS/DSP/Source/TransformFunctions/arm_cfft_radix4_init_q15.c ****   arm_cfft_radix4_instance_q15 * S,
  67:Drivers/CMSIS/DSP/Source/TransformFunctions/arm_cfft_radix4_init_q15.c ****   uint16_t fftLen,
  68:Drivers/CMSIS/DSP/Source/TransformFunctions/arm_cfft_radix4_init_q15.c ****   uint8_t ifftFlag,
  69:Drivers/CMSIS/DSP/Source/TransformFunctions/arm_cfft_radix4_init_q15.c ****   uint8_t bitReverseFlag)
  70:Drivers/CMSIS/DSP/Source/TransformFunctions/arm_cfft_radix4_init_q15.c **** {
  29              		.loc 1 70 1 view -0
  30              		.cfi_startproc
  31              		@ args = 0, pretend = 0, frame = 0
  32              		@ frame_needed = 0, uses_anonymous_args = 0
  33              		@ link register save eliminated.
  34              		.loc 1 70 1 is_stmt 0 view .LVU1
  35 0000 10B4     		push	{r4}
  36              		.cfi_def_cfa_offset 4
  37              		.cfi_offset 4, -4
  71:Drivers/CMSIS/DSP/Source/TransformFunctions/arm_cfft_radix4_init_q15.c ****   /*  Initialise the default arm status */
  72:Drivers/CMSIS/DSP/Source/TransformFunctions/arm_cfft_radix4_init_q15.c ****   arm_status status = ARM_MATH_SUCCESS;
  38              		.loc 1 72 3 is_stmt 1 view .LVU2
  39              	.LVL1:
  73:Drivers/CMSIS/DSP/Source/TransformFunctions/arm_cfft_radix4_init_q15.c ****   /*  Initialise the FFT length */
  74:Drivers/CMSIS/DSP/Source/TransformFunctions/arm_cfft_radix4_init_q15.c ****   S->fftLen = fftLen;
  40              		.loc 1 74 3 view .LVU3
  41              		.loc 1 74 13 is_stmt 0 view .LVU4
ARM GAS  /var/folders/n6/c271nzx11xl4r4_m7sqjlt0m0000gn/T//ccLVa2sz.s 			page 3


  42 0002 0180     		strh	r1, [r0]	@ movhi
  75:Drivers/CMSIS/DSP/Source/TransformFunctions/arm_cfft_radix4_init_q15.c ****   /*  Initialise the Twiddle coefficient pointer */
  76:Drivers/CMSIS/DSP/Source/TransformFunctions/arm_cfft_radix4_init_q15.c ****   S->pTwiddle = (q15_t *) twiddleCoef_4096_q15;
  43              		.loc 1 76 3 is_stmt 1 view .LVU5
  44              		.loc 1 76 15 is_stmt 0 view .LVU6
  45 0004 1E4C     		ldr	r4, .L12
  46 0006 4460     		str	r4, [r0, #4]
  77:Drivers/CMSIS/DSP/Source/TransformFunctions/arm_cfft_radix4_init_q15.c ****   /*  Initialise the Flag for selection of CFFT or CIFFT */
  78:Drivers/CMSIS/DSP/Source/TransformFunctions/arm_cfft_radix4_init_q15.c ****   S->ifftFlag = ifftFlag;
  47              		.loc 1 78 3 is_stmt 1 view .LVU7
  48              		.loc 1 78 15 is_stmt 0 view .LVU8
  49 0008 8270     		strb	r2, [r0, #2]
  79:Drivers/CMSIS/DSP/Source/TransformFunctions/arm_cfft_radix4_init_q15.c ****   /*  Initialise the Flag for calculation Bit reversal or not */
  80:Drivers/CMSIS/DSP/Source/TransformFunctions/arm_cfft_radix4_init_q15.c ****   S->bitReverseFlag = bitReverseFlag;
  50              		.loc 1 80 3 is_stmt 1 view .LVU9
  51              		.loc 1 80 21 is_stmt 0 view .LVU10
  52 000a C370     		strb	r3, [r0, #3]
  81:Drivers/CMSIS/DSP/Source/TransformFunctions/arm_cfft_radix4_init_q15.c **** 
  82:Drivers/CMSIS/DSP/Source/TransformFunctions/arm_cfft_radix4_init_q15.c ****   /*  Initializations of structure parameters depending on the FFT length */
  83:Drivers/CMSIS/DSP/Source/TransformFunctions/arm_cfft_radix4_init_q15.c ****   switch (S->fftLen)
  53              		.loc 1 83 3 is_stmt 1 view .LVU11
  54 000c B1F5807F 		cmp	r1, #256
  55 0010 24D0     		beq	.L2
  56 0012 0ED9     		bls	.L10
  57 0014 B1F5806F 		cmp	r1, #1024
  58 0018 19D0     		beq	.L7
  59 001a B1F5805F 		cmp	r1, #4096
  60 001e 2CD1     		bne	.L8
  84:Drivers/CMSIS/DSP/Source/TransformFunctions/arm_cfft_radix4_init_q15.c ****   {
  85:Drivers/CMSIS/DSP/Source/TransformFunctions/arm_cfft_radix4_init_q15.c ****   case 4096U:
  86:Drivers/CMSIS/DSP/Source/TransformFunctions/arm_cfft_radix4_init_q15.c ****     /*  Initializations of structure parameters for 4096 point FFT */
  87:Drivers/CMSIS/DSP/Source/TransformFunctions/arm_cfft_radix4_init_q15.c **** 
  88:Drivers/CMSIS/DSP/Source/TransformFunctions/arm_cfft_radix4_init_q15.c ****     /*  Initialise the twiddle coef modifier value */
  89:Drivers/CMSIS/DSP/Source/TransformFunctions/arm_cfft_radix4_init_q15.c ****     S->twidCoefModifier = 1U;
  61              		.loc 1 89 5 view .LVU12
  62              		.loc 1 89 25 is_stmt 0 view .LVU13
  63 0020 0123     		movs	r3, #1
  64              	.LVL2:
  65              		.loc 1 89 25 view .LVU14
  66 0022 8381     		strh	r3, [r0, #12]	@ movhi
  90:Drivers/CMSIS/DSP/Source/TransformFunctions/arm_cfft_radix4_init_q15.c ****     /*  Initialise the bit reversal table modifier */
  91:Drivers/CMSIS/DSP/Source/TransformFunctions/arm_cfft_radix4_init_q15.c ****     S->bitRevFactor = 1U;
  67              		.loc 1 91 5 is_stmt 1 view .LVU15
  68              		.loc 1 91 21 is_stmt 0 view .LVU16
  69 0024 C381     		strh	r3, [r0, #14]	@ movhi
  92:Drivers/CMSIS/DSP/Source/TransformFunctions/arm_cfft_radix4_init_q15.c ****     /*  Initialise the bit reversal table pointer */
  93:Drivers/CMSIS/DSP/Source/TransformFunctions/arm_cfft_radix4_init_q15.c ****     S->pBitRevTable = (uint16_t *) armBitRevTable;
  70              		.loc 1 93 5 is_stmt 1 view .LVU17
  71              		.loc 1 93 21 is_stmt 0 view .LVU18
  72 0026 174B     		ldr	r3, .L12+4
  73 0028 8360     		str	r3, [r0, #8]
  94:Drivers/CMSIS/DSP/Source/TransformFunctions/arm_cfft_radix4_init_q15.c **** 
  95:Drivers/CMSIS/DSP/Source/TransformFunctions/arm_cfft_radix4_init_q15.c ****     break;
  74              		.loc 1 95 5 is_stmt 1 view .LVU19
  72:Drivers/CMSIS/DSP/Source/TransformFunctions/arm_cfft_radix4_init_q15.c ****   /*  Initialise the FFT length */
  75              		.loc 1 72 14 is_stmt 0 view .LVU20
  76 002a 0020     		movs	r0, #0
ARM GAS  /var/folders/n6/c271nzx11xl4r4_m7sqjlt0m0000gn/T//ccLVa2sz.s 			page 4


  77              	.LVL3:
  78              	.L6:
  96:Drivers/CMSIS/DSP/Source/TransformFunctions/arm_cfft_radix4_init_q15.c **** 
  97:Drivers/CMSIS/DSP/Source/TransformFunctions/arm_cfft_radix4_init_q15.c ****   case 1024U:
  98:Drivers/CMSIS/DSP/Source/TransformFunctions/arm_cfft_radix4_init_q15.c ****     /*  Initializations of structure parameters for 1024 point FFT */
  99:Drivers/CMSIS/DSP/Source/TransformFunctions/arm_cfft_radix4_init_q15.c ****     S->twidCoefModifier = 4U;
 100:Drivers/CMSIS/DSP/Source/TransformFunctions/arm_cfft_radix4_init_q15.c ****     S->bitRevFactor = 4U;
 101:Drivers/CMSIS/DSP/Source/TransformFunctions/arm_cfft_radix4_init_q15.c ****     S->pBitRevTable = (uint16_t *) & armBitRevTable[3];
 102:Drivers/CMSIS/DSP/Source/TransformFunctions/arm_cfft_radix4_init_q15.c **** 
 103:Drivers/CMSIS/DSP/Source/TransformFunctions/arm_cfft_radix4_init_q15.c ****     break;
 104:Drivers/CMSIS/DSP/Source/TransformFunctions/arm_cfft_radix4_init_q15.c **** 
 105:Drivers/CMSIS/DSP/Source/TransformFunctions/arm_cfft_radix4_init_q15.c ****   case 256U:
 106:Drivers/CMSIS/DSP/Source/TransformFunctions/arm_cfft_radix4_init_q15.c ****     /*  Initializations of structure parameters for 256 point FFT */
 107:Drivers/CMSIS/DSP/Source/TransformFunctions/arm_cfft_radix4_init_q15.c ****     S->twidCoefModifier = 16U;
 108:Drivers/CMSIS/DSP/Source/TransformFunctions/arm_cfft_radix4_init_q15.c ****     S->bitRevFactor = 16U;
 109:Drivers/CMSIS/DSP/Source/TransformFunctions/arm_cfft_radix4_init_q15.c ****     S->pBitRevTable = (uint16_t *) & armBitRevTable[15];
 110:Drivers/CMSIS/DSP/Source/TransformFunctions/arm_cfft_radix4_init_q15.c **** 
 111:Drivers/CMSIS/DSP/Source/TransformFunctions/arm_cfft_radix4_init_q15.c ****     break;
 112:Drivers/CMSIS/DSP/Source/TransformFunctions/arm_cfft_radix4_init_q15.c **** 
 113:Drivers/CMSIS/DSP/Source/TransformFunctions/arm_cfft_radix4_init_q15.c ****   case 64U:
 114:Drivers/CMSIS/DSP/Source/TransformFunctions/arm_cfft_radix4_init_q15.c ****     /*  Initializations of structure parameters for 64 point FFT */
 115:Drivers/CMSIS/DSP/Source/TransformFunctions/arm_cfft_radix4_init_q15.c ****     S->twidCoefModifier = 64U;
 116:Drivers/CMSIS/DSP/Source/TransformFunctions/arm_cfft_radix4_init_q15.c ****     S->bitRevFactor = 64U;
 117:Drivers/CMSIS/DSP/Source/TransformFunctions/arm_cfft_radix4_init_q15.c ****     S->pBitRevTable = (uint16_t *) & armBitRevTable[63];
 118:Drivers/CMSIS/DSP/Source/TransformFunctions/arm_cfft_radix4_init_q15.c **** 
 119:Drivers/CMSIS/DSP/Source/TransformFunctions/arm_cfft_radix4_init_q15.c ****     break;
 120:Drivers/CMSIS/DSP/Source/TransformFunctions/arm_cfft_radix4_init_q15.c **** 
 121:Drivers/CMSIS/DSP/Source/TransformFunctions/arm_cfft_radix4_init_q15.c ****   case 16U:
 122:Drivers/CMSIS/DSP/Source/TransformFunctions/arm_cfft_radix4_init_q15.c ****     /*  Initializations of structure parameters for 16 point FFT */
 123:Drivers/CMSIS/DSP/Source/TransformFunctions/arm_cfft_radix4_init_q15.c ****     S->twidCoefModifier = 256U;
 124:Drivers/CMSIS/DSP/Source/TransformFunctions/arm_cfft_radix4_init_q15.c ****     S->bitRevFactor = 256U;
 125:Drivers/CMSIS/DSP/Source/TransformFunctions/arm_cfft_radix4_init_q15.c ****     S->pBitRevTable = (uint16_t *) & armBitRevTable[255];
 126:Drivers/CMSIS/DSP/Source/TransformFunctions/arm_cfft_radix4_init_q15.c **** 
 127:Drivers/CMSIS/DSP/Source/TransformFunctions/arm_cfft_radix4_init_q15.c ****     break;
 128:Drivers/CMSIS/DSP/Source/TransformFunctions/arm_cfft_radix4_init_q15.c **** 
 129:Drivers/CMSIS/DSP/Source/TransformFunctions/arm_cfft_radix4_init_q15.c ****   default:
 130:Drivers/CMSIS/DSP/Source/TransformFunctions/arm_cfft_radix4_init_q15.c ****     /*  Reporting argument error if fftSize is not valid value */
 131:Drivers/CMSIS/DSP/Source/TransformFunctions/arm_cfft_radix4_init_q15.c ****     status = ARM_MATH_ARGUMENT_ERROR;
 132:Drivers/CMSIS/DSP/Source/TransformFunctions/arm_cfft_radix4_init_q15.c ****     break;
 133:Drivers/CMSIS/DSP/Source/TransformFunctions/arm_cfft_radix4_init_q15.c ****   }
 134:Drivers/CMSIS/DSP/Source/TransformFunctions/arm_cfft_radix4_init_q15.c **** 
 135:Drivers/CMSIS/DSP/Source/TransformFunctions/arm_cfft_radix4_init_q15.c ****   return (status);
  79              		.loc 1 135 3 is_stmt 1 view .LVU21
 136:Drivers/CMSIS/DSP/Source/TransformFunctions/arm_cfft_radix4_init_q15.c **** }
  80              		.loc 1 136 1 is_stmt 0 view .LVU22
  81 002c 5DF8044B 		ldr	r4, [sp], #4
  82              		.cfi_remember_state
  83              		.cfi_restore 4
  84              		.cfi_def_cfa_offset 0
  85 0030 7047     		bx	lr
  86              	.LVL4:
  87              	.L10:
  88              		.cfi_restore_state
  83:Drivers/CMSIS/DSP/Source/TransformFunctions/arm_cfft_radix4_init_q15.c ****   {
  89              		.loc 1 83 3 view .LVU23
  90 0032 1029     		cmp	r1, #16
  91 0034 19D0     		beq	.L4
ARM GAS  /var/folders/n6/c271nzx11xl4r4_m7sqjlt0m0000gn/T//ccLVa2sz.s 			page 5


  92 0036 4029     		cmp	r1, #64
  93 0038 06D1     		bne	.L11
 115:Drivers/CMSIS/DSP/Source/TransformFunctions/arm_cfft_radix4_init_q15.c ****     S->bitRevFactor = 64U;
  94              		.loc 1 115 5 is_stmt 1 view .LVU24
 115:Drivers/CMSIS/DSP/Source/TransformFunctions/arm_cfft_radix4_init_q15.c ****     S->bitRevFactor = 64U;
  95              		.loc 1 115 25 is_stmt 0 view .LVU25
  96 003a 4023     		movs	r3, #64
  97              	.LVL5:
 115:Drivers/CMSIS/DSP/Source/TransformFunctions/arm_cfft_radix4_init_q15.c ****     S->bitRevFactor = 64U;
  98              		.loc 1 115 25 view .LVU26
  99 003c 8381     		strh	r3, [r0, #12]	@ movhi
 116:Drivers/CMSIS/DSP/Source/TransformFunctions/arm_cfft_radix4_init_q15.c ****     S->pBitRevTable = (uint16_t *) & armBitRevTable[63];
 100              		.loc 1 116 5 is_stmt 1 view .LVU27
 116:Drivers/CMSIS/DSP/Source/TransformFunctions/arm_cfft_radix4_init_q15.c ****     S->pBitRevTable = (uint16_t *) & armBitRevTable[63];
 101              		.loc 1 116 21 is_stmt 0 view .LVU28
 102 003e C381     		strh	r3, [r0, #14]	@ movhi
 117:Drivers/CMSIS/DSP/Source/TransformFunctions/arm_cfft_radix4_init_q15.c **** 
 103              		.loc 1 117 5 is_stmt 1 view .LVU29
 117:Drivers/CMSIS/DSP/Source/TransformFunctions/arm_cfft_radix4_init_q15.c **** 
 104              		.loc 1 117 21 is_stmt 0 view .LVU30
 105 0040 114B     		ldr	r3, .L12+8
 106 0042 8360     		str	r3, [r0, #8]
 119:Drivers/CMSIS/DSP/Source/TransformFunctions/arm_cfft_radix4_init_q15.c **** 
 107              		.loc 1 119 5 is_stmt 1 view .LVU31
  72:Drivers/CMSIS/DSP/Source/TransformFunctions/arm_cfft_radix4_init_q15.c ****   /*  Initialise the FFT length */
 108              		.loc 1 72 14 is_stmt 0 view .LVU32
 109 0044 0020     		movs	r0, #0
 110              	.LVL6:
 119:Drivers/CMSIS/DSP/Source/TransformFunctions/arm_cfft_radix4_init_q15.c **** 
 111              		.loc 1 119 5 view .LVU33
 112 0046 F1E7     		b	.L6
 113              	.LVL7:
 114              	.L11:
  83:Drivers/CMSIS/DSP/Source/TransformFunctions/arm_cfft_radix4_init_q15.c ****   {
 115              		.loc 1 83 3 view .LVU34
 116 0048 4FF0FF30 		mov	r0, #-1
 117              	.LVL8:
  83:Drivers/CMSIS/DSP/Source/TransformFunctions/arm_cfft_radix4_init_q15.c ****   {
 118              		.loc 1 83 3 view .LVU35
 119 004c EEE7     		b	.L6
 120              	.LVL9:
 121              	.L7:
  99:Drivers/CMSIS/DSP/Source/TransformFunctions/arm_cfft_radix4_init_q15.c ****     S->bitRevFactor = 4U;
 122              		.loc 1 99 5 is_stmt 1 view .LVU36
  99:Drivers/CMSIS/DSP/Source/TransformFunctions/arm_cfft_radix4_init_q15.c ****     S->bitRevFactor = 4U;
 123              		.loc 1 99 25 is_stmt 0 view .LVU37
 124 004e 0423     		movs	r3, #4
 125              	.LVL10:
  99:Drivers/CMSIS/DSP/Source/TransformFunctions/arm_cfft_radix4_init_q15.c ****     S->bitRevFactor = 4U;
 126              		.loc 1 99 25 view .LVU38
 127 0050 8381     		strh	r3, [r0, #12]	@ movhi
 100:Drivers/CMSIS/DSP/Source/TransformFunctions/arm_cfft_radix4_init_q15.c ****     S->pBitRevTable = (uint16_t *) & armBitRevTable[3];
 128              		.loc 1 100 5 is_stmt 1 view .LVU39
 100:Drivers/CMSIS/DSP/Source/TransformFunctions/arm_cfft_radix4_init_q15.c ****     S->pBitRevTable = (uint16_t *) & armBitRevTable[3];
 129              		.loc 1 100 21 is_stmt 0 view .LVU40
 130 0052 C381     		strh	r3, [r0, #14]	@ movhi
 101:Drivers/CMSIS/DSP/Source/TransformFunctions/arm_cfft_radix4_init_q15.c **** 
ARM GAS  /var/folders/n6/c271nzx11xl4r4_m7sqjlt0m0000gn/T//ccLVa2sz.s 			page 6


 131              		.loc 1 101 5 is_stmt 1 view .LVU41
 101:Drivers/CMSIS/DSP/Source/TransformFunctions/arm_cfft_radix4_init_q15.c **** 
 132              		.loc 1 101 21 is_stmt 0 view .LVU42
 133 0054 0D4B     		ldr	r3, .L12+12
 134 0056 8360     		str	r3, [r0, #8]
 103:Drivers/CMSIS/DSP/Source/TransformFunctions/arm_cfft_radix4_init_q15.c **** 
 135              		.loc 1 103 5 is_stmt 1 view .LVU43
  72:Drivers/CMSIS/DSP/Source/TransformFunctions/arm_cfft_radix4_init_q15.c ****   /*  Initialise the FFT length */
 136              		.loc 1 72 14 is_stmt 0 view .LVU44
 137 0058 0020     		movs	r0, #0
 138              	.LVL11:
 103:Drivers/CMSIS/DSP/Source/TransformFunctions/arm_cfft_radix4_init_q15.c **** 
 139              		.loc 1 103 5 view .LVU45
 140 005a E7E7     		b	.L6
 141              	.LVL12:
 142              	.L2:
 107:Drivers/CMSIS/DSP/Source/TransformFunctions/arm_cfft_radix4_init_q15.c ****     S->bitRevFactor = 16U;
 143              		.loc 1 107 5 is_stmt 1 view .LVU46
 107:Drivers/CMSIS/DSP/Source/TransformFunctions/arm_cfft_radix4_init_q15.c ****     S->bitRevFactor = 16U;
 144              		.loc 1 107 25 is_stmt 0 view .LVU47
 145 005c 1023     		movs	r3, #16
 146              	.LVL13:
 107:Drivers/CMSIS/DSP/Source/TransformFunctions/arm_cfft_radix4_init_q15.c ****     S->bitRevFactor = 16U;
 147              		.loc 1 107 25 view .LVU48
 148 005e 8381     		strh	r3, [r0, #12]	@ movhi
 108:Drivers/CMSIS/DSP/Source/TransformFunctions/arm_cfft_radix4_init_q15.c ****     S->pBitRevTable = (uint16_t *) & armBitRevTable[15];
 149              		.loc 1 108 5 is_stmt 1 view .LVU49
 108:Drivers/CMSIS/DSP/Source/TransformFunctions/arm_cfft_radix4_init_q15.c ****     S->pBitRevTable = (uint16_t *) & armBitRevTable[15];
 150              		.loc 1 108 21 is_stmt 0 view .LVU50
 151 0060 C381     		strh	r3, [r0, #14]	@ movhi
 109:Drivers/CMSIS/DSP/Source/TransformFunctions/arm_cfft_radix4_init_q15.c **** 
 152              		.loc 1 109 5 is_stmt 1 view .LVU51
 109:Drivers/CMSIS/DSP/Source/TransformFunctions/arm_cfft_radix4_init_q15.c **** 
 153              		.loc 1 109 21 is_stmt 0 view .LVU52
 154 0062 0B4B     		ldr	r3, .L12+16
 155 0064 8360     		str	r3, [r0, #8]
 111:Drivers/CMSIS/DSP/Source/TransformFunctions/arm_cfft_radix4_init_q15.c **** 
 156              		.loc 1 111 5 is_stmt 1 view .LVU53
  72:Drivers/CMSIS/DSP/Source/TransformFunctions/arm_cfft_radix4_init_q15.c ****   /*  Initialise the FFT length */
 157              		.loc 1 72 14 is_stmt 0 view .LVU54
 158 0066 0020     		movs	r0, #0
 159              	.LVL14:
 111:Drivers/CMSIS/DSP/Source/TransformFunctions/arm_cfft_radix4_init_q15.c **** 
 160              		.loc 1 111 5 view .LVU55
 161 0068 E0E7     		b	.L6
 162              	.LVL15:
 163              	.L4:
 123:Drivers/CMSIS/DSP/Source/TransformFunctions/arm_cfft_radix4_init_q15.c ****     S->bitRevFactor = 256U;
 164              		.loc 1 123 5 is_stmt 1 view .LVU56
 123:Drivers/CMSIS/DSP/Source/TransformFunctions/arm_cfft_radix4_init_q15.c ****     S->bitRevFactor = 256U;
 165              		.loc 1 123 25 is_stmt 0 view .LVU57
 166 006a 4FF48073 		mov	r3, #256
 167              	.LVL16:
 123:Drivers/CMSIS/DSP/Source/TransformFunctions/arm_cfft_radix4_init_q15.c ****     S->bitRevFactor = 256U;
 168              		.loc 1 123 25 view .LVU58
 169 006e 8381     		strh	r3, [r0, #12]	@ movhi
 124:Drivers/CMSIS/DSP/Source/TransformFunctions/arm_cfft_radix4_init_q15.c ****     S->pBitRevTable = (uint16_t *) & armBitRevTable[255];
ARM GAS  /var/folders/n6/c271nzx11xl4r4_m7sqjlt0m0000gn/T//ccLVa2sz.s 			page 7


 170              		.loc 1 124 5 is_stmt 1 view .LVU59
 124:Drivers/CMSIS/DSP/Source/TransformFunctions/arm_cfft_radix4_init_q15.c ****     S->pBitRevTable = (uint16_t *) & armBitRevTable[255];
 171              		.loc 1 124 21 is_stmt 0 view .LVU60
 172 0070 C381     		strh	r3, [r0, #14]	@ movhi
 125:Drivers/CMSIS/DSP/Source/TransformFunctions/arm_cfft_radix4_init_q15.c **** 
 173              		.loc 1 125 5 is_stmt 1 view .LVU61
 125:Drivers/CMSIS/DSP/Source/TransformFunctions/arm_cfft_radix4_init_q15.c **** 
 174              		.loc 1 125 21 is_stmt 0 view .LVU62
 175 0072 084B     		ldr	r3, .L12+20
 176 0074 8360     		str	r3, [r0, #8]
 127:Drivers/CMSIS/DSP/Source/TransformFunctions/arm_cfft_radix4_init_q15.c **** 
 177              		.loc 1 127 5 is_stmt 1 view .LVU63
  72:Drivers/CMSIS/DSP/Source/TransformFunctions/arm_cfft_radix4_init_q15.c ****   /*  Initialise the FFT length */
 178              		.loc 1 72 14 is_stmt 0 view .LVU64
 179 0076 0020     		movs	r0, #0
 180              	.LVL17:
 127:Drivers/CMSIS/DSP/Source/TransformFunctions/arm_cfft_radix4_init_q15.c **** 
 181              		.loc 1 127 5 view .LVU65
 182 0078 D8E7     		b	.L6
 183              	.LVL18:
 184              	.L8:
  83:Drivers/CMSIS/DSP/Source/TransformFunctions/arm_cfft_radix4_init_q15.c ****   {
 185              		.loc 1 83 3 view .LVU66
 186 007a 4FF0FF30 		mov	r0, #-1
 187              	.LVL19:
  83:Drivers/CMSIS/DSP/Source/TransformFunctions/arm_cfft_radix4_init_q15.c ****   {
 188              		.loc 1 83 3 view .LVU67
 189 007e D5E7     		b	.L6
 190              	.L13:
 191              		.align	2
 192              	.L12:
 193 0080 00000000 		.word	twiddleCoef_4096_q15
 194 0084 00000000 		.word	armBitRevTable
 195 0088 7E000000 		.word	armBitRevTable+126
 196 008c 06000000 		.word	armBitRevTable+6
 197 0090 1E000000 		.word	armBitRevTable+30
 198 0094 FE010000 		.word	armBitRevTable+510
 199              		.cfi_endproc
 200              	.LFE135:
 202              		.text
 203              	.Letext0:
 204              		.file 2 "/Users/killian/Library/Application Support/Code/User/globalStorage/bmd.stm32-for-vscode/@
 205              		.file 3 "/Users/killian/Library/Application Support/Code/User/globalStorage/bmd.stm32-for-vscode/@
 206              		.file 4 "Drivers/CMSIS/DSP/Include/arm_math.h"
 207              		.file 5 "Drivers/CMSIS/DSP/Include/arm_common_tables.h"
ARM GAS  /var/folders/n6/c271nzx11xl4r4_m7sqjlt0m0000gn/T//ccLVa2sz.s 			page 8

