ARM GAS  /var/folders/n6/c271nzx11xl4r4_m7sqjlt0m0000gn/T//ccyMl37L.s 			page 1


   1              		.cpu cortex-m7
   2              		.arch armv7e-m
   3              		.fpu fpv5-d16
   4              		.eabi_attribute 28, 1
   5              		.eabi_attribute 20, 1
   6              		.eabi_attribute 21, 1
   7              		.eabi_attribute 23, 3
   8              		.eabi_attribute 24, 1
   9              		.eabi_attribute 25, 1
  10              		.eabi_attribute 26, 1
  11              		.eabi_attribute 30, 1
  12              		.eabi_attribute 34, 1
  13              		.eabi_attribute 18, 4
  14              		.file	"arm_cfft_f32.c"
  15              		.text
  16              	.Ltext0:
  17              		.cfi_sections	.debug_frame
  18              		.file 1 "Drivers/CMSIS/DSP/Source/TransformFunctions/arm_cfft_f32.c"
  19              		.section	.text.arm_cfft_radix8by2_f32,"ax",%progbits
  20              		.align	1
  21              		.global	arm_cfft_radix8by2_f32
  22              		.syntax unified
  23              		.thumb
  24              		.thumb_func
  26              	arm_cfft_radix8by2_f32:
  27              	.LVL0:
  28              	.LFB135:
   1:Drivers/CMSIS/DSP/Source/TransformFunctions/arm_cfft_f32.c **** /* ----------------------------------------------------------------------
   2:Drivers/CMSIS/DSP/Source/TransformFunctions/arm_cfft_f32.c ****  * Project:      CMSIS DSP Library
   3:Drivers/CMSIS/DSP/Source/TransformFunctions/arm_cfft_f32.c ****  * Title:        arm_cfft_f32.c
   4:Drivers/CMSIS/DSP/Source/TransformFunctions/arm_cfft_f32.c ****  * Description:  Combined Radix Decimation in Frequency CFFT Floating point processing function
   5:Drivers/CMSIS/DSP/Source/TransformFunctions/arm_cfft_f32.c ****  *
   6:Drivers/CMSIS/DSP/Source/TransformFunctions/arm_cfft_f32.c ****  * $Date:        27. January 2017
   7:Drivers/CMSIS/DSP/Source/TransformFunctions/arm_cfft_f32.c ****  * $Revision:    V.1.5.1
   8:Drivers/CMSIS/DSP/Source/TransformFunctions/arm_cfft_f32.c ****  *
   9:Drivers/CMSIS/DSP/Source/TransformFunctions/arm_cfft_f32.c ****  * Target Processor: Cortex-M cores
  10:Drivers/CMSIS/DSP/Source/TransformFunctions/arm_cfft_f32.c ****  * -------------------------------------------------------------------- */
  11:Drivers/CMSIS/DSP/Source/TransformFunctions/arm_cfft_f32.c **** /*
  12:Drivers/CMSIS/DSP/Source/TransformFunctions/arm_cfft_f32.c ****  * Copyright (C) 2010-2017 ARM Limited or its affiliates. All rights reserved.
  13:Drivers/CMSIS/DSP/Source/TransformFunctions/arm_cfft_f32.c ****  *
  14:Drivers/CMSIS/DSP/Source/TransformFunctions/arm_cfft_f32.c ****  * SPDX-License-Identifier: Apache-2.0
  15:Drivers/CMSIS/DSP/Source/TransformFunctions/arm_cfft_f32.c ****  *
  16:Drivers/CMSIS/DSP/Source/TransformFunctions/arm_cfft_f32.c ****  * Licensed under the Apache License, Version 2.0 (the License); you may
  17:Drivers/CMSIS/DSP/Source/TransformFunctions/arm_cfft_f32.c ****  * not use this file except in compliance with the License.
  18:Drivers/CMSIS/DSP/Source/TransformFunctions/arm_cfft_f32.c ****  * You may obtain a copy of the License at
  19:Drivers/CMSIS/DSP/Source/TransformFunctions/arm_cfft_f32.c ****  *
  20:Drivers/CMSIS/DSP/Source/TransformFunctions/arm_cfft_f32.c ****  * www.apache.org/licenses/LICENSE-2.0
  21:Drivers/CMSIS/DSP/Source/TransformFunctions/arm_cfft_f32.c ****  *
  22:Drivers/CMSIS/DSP/Source/TransformFunctions/arm_cfft_f32.c ****  * Unless required by applicable law or agreed to in writing, software
  23:Drivers/CMSIS/DSP/Source/TransformFunctions/arm_cfft_f32.c ****  * distributed under the License is distributed on an AS IS BASIS, WITHOUT
  24:Drivers/CMSIS/DSP/Source/TransformFunctions/arm_cfft_f32.c ****  * WARRANTIES OR CONDITIONS OF ANY KIND, either express or implied.
  25:Drivers/CMSIS/DSP/Source/TransformFunctions/arm_cfft_f32.c ****  * See the License for the specific language governing permissions and
  26:Drivers/CMSIS/DSP/Source/TransformFunctions/arm_cfft_f32.c ****  * limitations under the License.
  27:Drivers/CMSIS/DSP/Source/TransformFunctions/arm_cfft_f32.c ****  */
  28:Drivers/CMSIS/DSP/Source/TransformFunctions/arm_cfft_f32.c **** 
  29:Drivers/CMSIS/DSP/Source/TransformFunctions/arm_cfft_f32.c **** #include "arm_math.h"
  30:Drivers/CMSIS/DSP/Source/TransformFunctions/arm_cfft_f32.c **** #include "arm_common_tables.h"
ARM GAS  /var/folders/n6/c271nzx11xl4r4_m7sqjlt0m0000gn/T//ccyMl37L.s 			page 2


  31:Drivers/CMSIS/DSP/Source/TransformFunctions/arm_cfft_f32.c **** 
  32:Drivers/CMSIS/DSP/Source/TransformFunctions/arm_cfft_f32.c **** extern void arm_radix8_butterfly_f32(
  33:Drivers/CMSIS/DSP/Source/TransformFunctions/arm_cfft_f32.c ****     float32_t * pSrc,
  34:Drivers/CMSIS/DSP/Source/TransformFunctions/arm_cfft_f32.c ****     uint16_t fftLen,
  35:Drivers/CMSIS/DSP/Source/TransformFunctions/arm_cfft_f32.c ****     const float32_t * pCoef,
  36:Drivers/CMSIS/DSP/Source/TransformFunctions/arm_cfft_f32.c ****     uint16_t twidCoefModifier);
  37:Drivers/CMSIS/DSP/Source/TransformFunctions/arm_cfft_f32.c **** 
  38:Drivers/CMSIS/DSP/Source/TransformFunctions/arm_cfft_f32.c **** extern void arm_bitreversal_32(
  39:Drivers/CMSIS/DSP/Source/TransformFunctions/arm_cfft_f32.c ****     uint32_t * pSrc,
  40:Drivers/CMSIS/DSP/Source/TransformFunctions/arm_cfft_f32.c ****     const uint16_t bitRevLen,
  41:Drivers/CMSIS/DSP/Source/TransformFunctions/arm_cfft_f32.c ****     const uint16_t * pBitRevTable);
  42:Drivers/CMSIS/DSP/Source/TransformFunctions/arm_cfft_f32.c **** 
  43:Drivers/CMSIS/DSP/Source/TransformFunctions/arm_cfft_f32.c **** /**
  44:Drivers/CMSIS/DSP/Source/TransformFunctions/arm_cfft_f32.c **** * @ingroup groupTransforms
  45:Drivers/CMSIS/DSP/Source/TransformFunctions/arm_cfft_f32.c **** */
  46:Drivers/CMSIS/DSP/Source/TransformFunctions/arm_cfft_f32.c **** 
  47:Drivers/CMSIS/DSP/Source/TransformFunctions/arm_cfft_f32.c **** /**
  48:Drivers/CMSIS/DSP/Source/TransformFunctions/arm_cfft_f32.c **** * @defgroup ComplexFFT Complex FFT Functions
  49:Drivers/CMSIS/DSP/Source/TransformFunctions/arm_cfft_f32.c **** *
  50:Drivers/CMSIS/DSP/Source/TransformFunctions/arm_cfft_f32.c **** * \par
  51:Drivers/CMSIS/DSP/Source/TransformFunctions/arm_cfft_f32.c **** * The Fast Fourier Transform (FFT) is an efficient algorithm for computing the
  52:Drivers/CMSIS/DSP/Source/TransformFunctions/arm_cfft_f32.c **** * Discrete Fourier Transform (DFT).  The FFT can be orders of magnitude faster
  53:Drivers/CMSIS/DSP/Source/TransformFunctions/arm_cfft_f32.c **** * than the DFT, especially for long lengths.
  54:Drivers/CMSIS/DSP/Source/TransformFunctions/arm_cfft_f32.c **** * The algorithms described in this section
  55:Drivers/CMSIS/DSP/Source/TransformFunctions/arm_cfft_f32.c **** * operate on complex data.  A separate set of functions is devoted to handling
  56:Drivers/CMSIS/DSP/Source/TransformFunctions/arm_cfft_f32.c **** * of real sequences.
  57:Drivers/CMSIS/DSP/Source/TransformFunctions/arm_cfft_f32.c **** * \par
  58:Drivers/CMSIS/DSP/Source/TransformFunctions/arm_cfft_f32.c **** * There are separate algorithms for handling floating-point, Q15, and Q31 data
  59:Drivers/CMSIS/DSP/Source/TransformFunctions/arm_cfft_f32.c **** * types.  The algorithms available for each data type are described next.
  60:Drivers/CMSIS/DSP/Source/TransformFunctions/arm_cfft_f32.c **** * \par
  61:Drivers/CMSIS/DSP/Source/TransformFunctions/arm_cfft_f32.c **** * The FFT functions operate in-place.  That is, the array holding the input data
  62:Drivers/CMSIS/DSP/Source/TransformFunctions/arm_cfft_f32.c **** * will also be used to hold the corresponding result.  The input data is complex
  63:Drivers/CMSIS/DSP/Source/TransformFunctions/arm_cfft_f32.c **** * and contains <code>2*fftLen</code> interleaved values as shown below.
  64:Drivers/CMSIS/DSP/Source/TransformFunctions/arm_cfft_f32.c **** * <pre> {real[0], imag[0], real[1], imag[1],..} </pre>
  65:Drivers/CMSIS/DSP/Source/TransformFunctions/arm_cfft_f32.c **** * The FFT result will be contained in the same array and the frequency domain
  66:Drivers/CMSIS/DSP/Source/TransformFunctions/arm_cfft_f32.c **** * values will have the same interleaving.
  67:Drivers/CMSIS/DSP/Source/TransformFunctions/arm_cfft_f32.c **** *
  68:Drivers/CMSIS/DSP/Source/TransformFunctions/arm_cfft_f32.c **** * \par Floating-point
  69:Drivers/CMSIS/DSP/Source/TransformFunctions/arm_cfft_f32.c **** * The floating-point complex FFT uses a mixed-radix algorithm.  Multiple radix-8
  70:Drivers/CMSIS/DSP/Source/TransformFunctions/arm_cfft_f32.c **** * stages are performed along with a single radix-2 or radix-4 stage, as needed.
  71:Drivers/CMSIS/DSP/Source/TransformFunctions/arm_cfft_f32.c **** * The algorithm supports lengths of [16, 32, 64, ..., 4096] and each length uses
  72:Drivers/CMSIS/DSP/Source/TransformFunctions/arm_cfft_f32.c **** * a different twiddle factor table.
  73:Drivers/CMSIS/DSP/Source/TransformFunctions/arm_cfft_f32.c **** * \par
  74:Drivers/CMSIS/DSP/Source/TransformFunctions/arm_cfft_f32.c **** * The function uses the standard FFT definition and output values may grow by a
  75:Drivers/CMSIS/DSP/Source/TransformFunctions/arm_cfft_f32.c **** * factor of <code>fftLen</code> when computing the forward transform.  The
  76:Drivers/CMSIS/DSP/Source/TransformFunctions/arm_cfft_f32.c **** * inverse transform includes a scale of <code>1/fftLen</code> as part of the
  77:Drivers/CMSIS/DSP/Source/TransformFunctions/arm_cfft_f32.c **** * calculation and this matches the textbook definition of the inverse FFT.
  78:Drivers/CMSIS/DSP/Source/TransformFunctions/arm_cfft_f32.c **** * \par
  79:Drivers/CMSIS/DSP/Source/TransformFunctions/arm_cfft_f32.c **** * Pre-initialized data structures containing twiddle factors and bit reversal
  80:Drivers/CMSIS/DSP/Source/TransformFunctions/arm_cfft_f32.c **** * tables are provided and defined in <code>arm_const_structs.h</code>.  Include
  81:Drivers/CMSIS/DSP/Source/TransformFunctions/arm_cfft_f32.c **** * this header in your function and then pass one of the constant structures as
  82:Drivers/CMSIS/DSP/Source/TransformFunctions/arm_cfft_f32.c **** * an argument to arm_cfft_f32.  For example:
  83:Drivers/CMSIS/DSP/Source/TransformFunctions/arm_cfft_f32.c **** * \par
  84:Drivers/CMSIS/DSP/Source/TransformFunctions/arm_cfft_f32.c **** * <code>arm_cfft_f32(arm_cfft_sR_f32_len64, pSrc, 1, 1)</code>
  85:Drivers/CMSIS/DSP/Source/TransformFunctions/arm_cfft_f32.c **** * \par
  86:Drivers/CMSIS/DSP/Source/TransformFunctions/arm_cfft_f32.c **** * computes a 64-point inverse complex FFT including bit reversal.
  87:Drivers/CMSIS/DSP/Source/TransformFunctions/arm_cfft_f32.c **** * The data structures are treated as constant data and not modified during the
ARM GAS  /var/folders/n6/c271nzx11xl4r4_m7sqjlt0m0000gn/T//ccyMl37L.s 			page 3


  88:Drivers/CMSIS/DSP/Source/TransformFunctions/arm_cfft_f32.c **** * calculation.  The same data structure can be reused for multiple transforms
  89:Drivers/CMSIS/DSP/Source/TransformFunctions/arm_cfft_f32.c **** * including mixing forward and inverse transforms.
  90:Drivers/CMSIS/DSP/Source/TransformFunctions/arm_cfft_f32.c **** * \par
  91:Drivers/CMSIS/DSP/Source/TransformFunctions/arm_cfft_f32.c **** * Earlier releases of the library provided separate radix-2 and radix-4
  92:Drivers/CMSIS/DSP/Source/TransformFunctions/arm_cfft_f32.c **** * algorithms that operated on floating-point data.  These functions are still
  93:Drivers/CMSIS/DSP/Source/TransformFunctions/arm_cfft_f32.c **** * provided but are deprecated.  The older functions are slower and less general
  94:Drivers/CMSIS/DSP/Source/TransformFunctions/arm_cfft_f32.c **** * than the new functions.
  95:Drivers/CMSIS/DSP/Source/TransformFunctions/arm_cfft_f32.c **** * \par
  96:Drivers/CMSIS/DSP/Source/TransformFunctions/arm_cfft_f32.c **** * An example of initialization of the constants for the arm_cfft_f32 function follows:
  97:Drivers/CMSIS/DSP/Source/TransformFunctions/arm_cfft_f32.c **** * \code
  98:Drivers/CMSIS/DSP/Source/TransformFunctions/arm_cfft_f32.c **** * const static arm_cfft_instance_f32 *S;
  99:Drivers/CMSIS/DSP/Source/TransformFunctions/arm_cfft_f32.c **** * ...
 100:Drivers/CMSIS/DSP/Source/TransformFunctions/arm_cfft_f32.c **** *   switch (length) {
 101:Drivers/CMSIS/DSP/Source/TransformFunctions/arm_cfft_f32.c **** *     case 16:
 102:Drivers/CMSIS/DSP/Source/TransformFunctions/arm_cfft_f32.c **** *       S = &arm_cfft_sR_f32_len16;
 103:Drivers/CMSIS/DSP/Source/TransformFunctions/arm_cfft_f32.c **** *       break;
 104:Drivers/CMSIS/DSP/Source/TransformFunctions/arm_cfft_f32.c **** *     case 32:
 105:Drivers/CMSIS/DSP/Source/TransformFunctions/arm_cfft_f32.c **** *       S = &arm_cfft_sR_f32_len32;
 106:Drivers/CMSIS/DSP/Source/TransformFunctions/arm_cfft_f32.c **** *       break;
 107:Drivers/CMSIS/DSP/Source/TransformFunctions/arm_cfft_f32.c **** *     case 64:
 108:Drivers/CMSIS/DSP/Source/TransformFunctions/arm_cfft_f32.c **** *       S = &arm_cfft_sR_f32_len64;
 109:Drivers/CMSIS/DSP/Source/TransformFunctions/arm_cfft_f32.c **** *       break;
 110:Drivers/CMSIS/DSP/Source/TransformFunctions/arm_cfft_f32.c **** *     case 128:
 111:Drivers/CMSIS/DSP/Source/TransformFunctions/arm_cfft_f32.c **** *       S = &arm_cfft_sR_f32_len128;
 112:Drivers/CMSIS/DSP/Source/TransformFunctions/arm_cfft_f32.c **** *       break;
 113:Drivers/CMSIS/DSP/Source/TransformFunctions/arm_cfft_f32.c **** *     case 256:
 114:Drivers/CMSIS/DSP/Source/TransformFunctions/arm_cfft_f32.c **** *       S = &arm_cfft_sR_f32_len256;
 115:Drivers/CMSIS/DSP/Source/TransformFunctions/arm_cfft_f32.c **** *       break;
 116:Drivers/CMSIS/DSP/Source/TransformFunctions/arm_cfft_f32.c **** *     case 512:
 117:Drivers/CMSIS/DSP/Source/TransformFunctions/arm_cfft_f32.c **** *       S = &arm_cfft_sR_f32_len512;
 118:Drivers/CMSIS/DSP/Source/TransformFunctions/arm_cfft_f32.c **** *       break;
 119:Drivers/CMSIS/DSP/Source/TransformFunctions/arm_cfft_f32.c **** *     case 1024:
 120:Drivers/CMSIS/DSP/Source/TransformFunctions/arm_cfft_f32.c **** *       S = &arm_cfft_sR_f32_len1024;
 121:Drivers/CMSIS/DSP/Source/TransformFunctions/arm_cfft_f32.c **** *       break;
 122:Drivers/CMSIS/DSP/Source/TransformFunctions/arm_cfft_f32.c **** *     case 2048:
 123:Drivers/CMSIS/DSP/Source/TransformFunctions/arm_cfft_f32.c **** *       S = &arm_cfft_sR_f32_len2048;
 124:Drivers/CMSIS/DSP/Source/TransformFunctions/arm_cfft_f32.c **** *       break;
 125:Drivers/CMSIS/DSP/Source/TransformFunctions/arm_cfft_f32.c **** *     case 4096:
 126:Drivers/CMSIS/DSP/Source/TransformFunctions/arm_cfft_f32.c **** *       S = &arm_cfft_sR_f32_len4096;
 127:Drivers/CMSIS/DSP/Source/TransformFunctions/arm_cfft_f32.c **** *       break;
 128:Drivers/CMSIS/DSP/Source/TransformFunctions/arm_cfft_f32.c **** *   }
 129:Drivers/CMSIS/DSP/Source/TransformFunctions/arm_cfft_f32.c **** * \endcode
 130:Drivers/CMSIS/DSP/Source/TransformFunctions/arm_cfft_f32.c **** * \par Q15 and Q31
 131:Drivers/CMSIS/DSP/Source/TransformFunctions/arm_cfft_f32.c **** * The floating-point complex FFT uses a mixed-radix algorithm.  Multiple radix-4
 132:Drivers/CMSIS/DSP/Source/TransformFunctions/arm_cfft_f32.c **** * stages are performed along with a single radix-2 stage, as needed.
 133:Drivers/CMSIS/DSP/Source/TransformFunctions/arm_cfft_f32.c **** * The algorithm supports lengths of [16, 32, 64, ..., 4096] and each length uses
 134:Drivers/CMSIS/DSP/Source/TransformFunctions/arm_cfft_f32.c **** * a different twiddle factor table.
 135:Drivers/CMSIS/DSP/Source/TransformFunctions/arm_cfft_f32.c **** * \par
 136:Drivers/CMSIS/DSP/Source/TransformFunctions/arm_cfft_f32.c **** * The function uses the standard FFT definition and output values may grow by a
 137:Drivers/CMSIS/DSP/Source/TransformFunctions/arm_cfft_f32.c **** * factor of <code>fftLen</code> when computing the forward transform.  The
 138:Drivers/CMSIS/DSP/Source/TransformFunctions/arm_cfft_f32.c **** * inverse transform includes a scale of <code>1/fftLen</code> as part of the
 139:Drivers/CMSIS/DSP/Source/TransformFunctions/arm_cfft_f32.c **** * calculation and this matches the textbook definition of the inverse FFT.
 140:Drivers/CMSIS/DSP/Source/TransformFunctions/arm_cfft_f32.c **** * \par
 141:Drivers/CMSIS/DSP/Source/TransformFunctions/arm_cfft_f32.c **** * Pre-initialized data structures containing twiddle factors and bit reversal
 142:Drivers/CMSIS/DSP/Source/TransformFunctions/arm_cfft_f32.c **** * tables are provided and defined in <code>arm_const_structs.h</code>.  Include
 143:Drivers/CMSIS/DSP/Source/TransformFunctions/arm_cfft_f32.c **** * this header in your function and then pass one of the constant structures as
 144:Drivers/CMSIS/DSP/Source/TransformFunctions/arm_cfft_f32.c **** * an argument to arm_cfft_q31.  For example:
ARM GAS  /var/folders/n6/c271nzx11xl4r4_m7sqjlt0m0000gn/T//ccyMl37L.s 			page 4


 145:Drivers/CMSIS/DSP/Source/TransformFunctions/arm_cfft_f32.c **** * \par
 146:Drivers/CMSIS/DSP/Source/TransformFunctions/arm_cfft_f32.c **** * <code>arm_cfft_q31(arm_cfft_sR_q31_len64, pSrc, 1, 1)</code>
 147:Drivers/CMSIS/DSP/Source/TransformFunctions/arm_cfft_f32.c **** * \par
 148:Drivers/CMSIS/DSP/Source/TransformFunctions/arm_cfft_f32.c **** * computes a 64-point inverse complex FFT including bit reversal.
 149:Drivers/CMSIS/DSP/Source/TransformFunctions/arm_cfft_f32.c **** * The data structures are treated as constant data and not modified during the
 150:Drivers/CMSIS/DSP/Source/TransformFunctions/arm_cfft_f32.c **** * calculation.  The same data structure can be reused for multiple transforms
 151:Drivers/CMSIS/DSP/Source/TransformFunctions/arm_cfft_f32.c **** * including mixing forward and inverse transforms.
 152:Drivers/CMSIS/DSP/Source/TransformFunctions/arm_cfft_f32.c **** * \par
 153:Drivers/CMSIS/DSP/Source/TransformFunctions/arm_cfft_f32.c **** * Earlier releases of the library provided separate radix-2 and radix-4
 154:Drivers/CMSIS/DSP/Source/TransformFunctions/arm_cfft_f32.c **** * algorithms that operated on floating-point data.  These functions are still
 155:Drivers/CMSIS/DSP/Source/TransformFunctions/arm_cfft_f32.c **** * provided but are deprecated.  The older functions are slower and less general
 156:Drivers/CMSIS/DSP/Source/TransformFunctions/arm_cfft_f32.c **** * than the new functions.
 157:Drivers/CMSIS/DSP/Source/TransformFunctions/arm_cfft_f32.c **** * \par
 158:Drivers/CMSIS/DSP/Source/TransformFunctions/arm_cfft_f32.c **** * An example of initialization of the constants for the arm_cfft_q31 function follows:
 159:Drivers/CMSIS/DSP/Source/TransformFunctions/arm_cfft_f32.c **** * \code
 160:Drivers/CMSIS/DSP/Source/TransformFunctions/arm_cfft_f32.c **** * const static arm_cfft_instance_q31 *S;
 161:Drivers/CMSIS/DSP/Source/TransformFunctions/arm_cfft_f32.c **** * ...
 162:Drivers/CMSIS/DSP/Source/TransformFunctions/arm_cfft_f32.c **** *   switch (length) {
 163:Drivers/CMSIS/DSP/Source/TransformFunctions/arm_cfft_f32.c **** *     case 16:
 164:Drivers/CMSIS/DSP/Source/TransformFunctions/arm_cfft_f32.c **** *       S = &arm_cfft_sR_q31_len16;
 165:Drivers/CMSIS/DSP/Source/TransformFunctions/arm_cfft_f32.c **** *       break;
 166:Drivers/CMSIS/DSP/Source/TransformFunctions/arm_cfft_f32.c **** *     case 32:
 167:Drivers/CMSIS/DSP/Source/TransformFunctions/arm_cfft_f32.c **** *       S = &arm_cfft_sR_q31_len32;
 168:Drivers/CMSIS/DSP/Source/TransformFunctions/arm_cfft_f32.c **** *       break;
 169:Drivers/CMSIS/DSP/Source/TransformFunctions/arm_cfft_f32.c **** *     case 64:
 170:Drivers/CMSIS/DSP/Source/TransformFunctions/arm_cfft_f32.c **** *       S = &arm_cfft_sR_q31_len64;
 171:Drivers/CMSIS/DSP/Source/TransformFunctions/arm_cfft_f32.c **** *       break;
 172:Drivers/CMSIS/DSP/Source/TransformFunctions/arm_cfft_f32.c **** *     case 128:
 173:Drivers/CMSIS/DSP/Source/TransformFunctions/arm_cfft_f32.c **** *       S = &arm_cfft_sR_q31_len128;
 174:Drivers/CMSIS/DSP/Source/TransformFunctions/arm_cfft_f32.c **** *       break;
 175:Drivers/CMSIS/DSP/Source/TransformFunctions/arm_cfft_f32.c **** *     case 256:
 176:Drivers/CMSIS/DSP/Source/TransformFunctions/arm_cfft_f32.c **** *       S = &arm_cfft_sR_q31_len256;
 177:Drivers/CMSIS/DSP/Source/TransformFunctions/arm_cfft_f32.c **** *       break;
 178:Drivers/CMSIS/DSP/Source/TransformFunctions/arm_cfft_f32.c **** *     case 512:
 179:Drivers/CMSIS/DSP/Source/TransformFunctions/arm_cfft_f32.c **** *       S = &arm_cfft_sR_q31_len512;
 180:Drivers/CMSIS/DSP/Source/TransformFunctions/arm_cfft_f32.c **** *       break;
 181:Drivers/CMSIS/DSP/Source/TransformFunctions/arm_cfft_f32.c **** *     case 1024:
 182:Drivers/CMSIS/DSP/Source/TransformFunctions/arm_cfft_f32.c **** *       S = &arm_cfft_sR_q31_len1024;
 183:Drivers/CMSIS/DSP/Source/TransformFunctions/arm_cfft_f32.c **** *       break;
 184:Drivers/CMSIS/DSP/Source/TransformFunctions/arm_cfft_f32.c **** *     case 2048:
 185:Drivers/CMSIS/DSP/Source/TransformFunctions/arm_cfft_f32.c **** *       S = &arm_cfft_sR_q31_len2048;
 186:Drivers/CMSIS/DSP/Source/TransformFunctions/arm_cfft_f32.c **** *       break;
 187:Drivers/CMSIS/DSP/Source/TransformFunctions/arm_cfft_f32.c **** *     case 4096:
 188:Drivers/CMSIS/DSP/Source/TransformFunctions/arm_cfft_f32.c **** *       S = &arm_cfft_sR_q31_len4096;
 189:Drivers/CMSIS/DSP/Source/TransformFunctions/arm_cfft_f32.c **** *       break;
 190:Drivers/CMSIS/DSP/Source/TransformFunctions/arm_cfft_f32.c **** *   }
 191:Drivers/CMSIS/DSP/Source/TransformFunctions/arm_cfft_f32.c **** * \endcode
 192:Drivers/CMSIS/DSP/Source/TransformFunctions/arm_cfft_f32.c **** *
 193:Drivers/CMSIS/DSP/Source/TransformFunctions/arm_cfft_f32.c **** */
 194:Drivers/CMSIS/DSP/Source/TransformFunctions/arm_cfft_f32.c **** 
 195:Drivers/CMSIS/DSP/Source/TransformFunctions/arm_cfft_f32.c **** void arm_cfft_radix8by2_f32( arm_cfft_instance_f32 * S, float32_t * p1)
 196:Drivers/CMSIS/DSP/Source/TransformFunctions/arm_cfft_f32.c **** {
  29              		.loc 1 196 1 view -0
  30              		.cfi_startproc
  31              		@ args = 0, pretend = 0, frame = 64
  32              		@ frame_needed = 0, uses_anonymous_args = 0
  33              		.loc 1 196 1 is_stmt 0 view .LVU1
ARM GAS  /var/folders/n6/c271nzx11xl4r4_m7sqjlt0m0000gn/T//ccyMl37L.s 			page 5


  34 0000 2DE9F041 		push	{r4, r5, r6, r7, r8, lr}
  35              		.cfi_def_cfa_offset 24
  36              		.cfi_offset 4, -24
  37              		.cfi_offset 5, -20
  38              		.cfi_offset 6, -16
  39              		.cfi_offset 7, -12
  40              		.cfi_offset 8, -8
  41              		.cfi_offset 14, -4
  42 0004 2DED028B 		vpush.64	{d8}
  43              		.cfi_def_cfa_offset 32
  44              		.cfi_offset 80, -32
  45              		.cfi_offset 81, -28
  46 0008 90B0     		sub	sp, sp, #64
  47              		.cfi_def_cfa_offset 96
  48 000a 0646     		mov	r6, r0
  49 000c 0846     		mov	r0, r1
  50              	.LVL1:
 197:Drivers/CMSIS/DSP/Source/TransformFunctions/arm_cfft_f32.c ****     uint32_t    L  = S->fftLen;
  51              		.loc 1 197 5 is_stmt 1 view .LVU2
  52              		.loc 1 197 23 is_stmt 0 view .LVU3
  53 000e 3588     		ldrh	r5, [r6]
  54              	.LVL2:
 198:Drivers/CMSIS/DSP/Source/TransformFunctions/arm_cfft_f32.c ****     float32_t * pCol1, * pCol2, * pMid1, * pMid2;
  55              		.loc 1 198 5 is_stmt 1 view .LVU4
 199:Drivers/CMSIS/DSP/Source/TransformFunctions/arm_cfft_f32.c ****     float32_t * p2 = p1 + L;
  56              		.loc 1 199 5 view .LVU5
  57              		.loc 1 199 17 is_stmt 0 view .LVU6
  58 0010 01EB8507 		add	r7, r1, r5, lsl #2
  59              	.LVL3:
 200:Drivers/CMSIS/DSP/Source/TransformFunctions/arm_cfft_f32.c ****     const float32_t * tw = (float32_t *) S->pTwiddle;
  60              		.loc 1 200 5 is_stmt 1 view .LVU7
  61              		.loc 1 200 23 is_stmt 0 view .LVU8
  62 0014 7468     		ldr	r4, [r6, #4]
  63              	.LVL4:
 201:Drivers/CMSIS/DSP/Source/TransformFunctions/arm_cfft_f32.c ****     float32_t t1[4], t2[4], t3[4], t4[4], twR, twI;
  64              		.loc 1 201 5 is_stmt 1 view .LVU9
 202:Drivers/CMSIS/DSP/Source/TransformFunctions/arm_cfft_f32.c ****     float32_t m0, m1, m2, m3;
  65              		.loc 1 202 5 view .LVU10
 203:Drivers/CMSIS/DSP/Source/TransformFunctions/arm_cfft_f32.c ****     uint32_t l;
  66              		.loc 1 203 5 view .LVU11
 204:Drivers/CMSIS/DSP/Source/TransformFunctions/arm_cfft_f32.c **** 
 205:Drivers/CMSIS/DSP/Source/TransformFunctions/arm_cfft_f32.c ****     pCol1 = p1;
  67              		.loc 1 205 5 view .LVU12
 206:Drivers/CMSIS/DSP/Source/TransformFunctions/arm_cfft_f32.c ****     pCol2 = p2;
  68              		.loc 1 206 5 view .LVU13
 207:Drivers/CMSIS/DSP/Source/TransformFunctions/arm_cfft_f32.c **** 
 208:Drivers/CMSIS/DSP/Source/TransformFunctions/arm_cfft_f32.c ****     //    Define new length
 209:Drivers/CMSIS/DSP/Source/TransformFunctions/arm_cfft_f32.c ****     L >>= 1;
  69              		.loc 1 209 5 view .LVU14
  70              		.loc 1 209 7 is_stmt 0 view .LVU15
  71 0016 4FEA5508 		lsr	r8, r5, #1
  72              	.LVL5:
 210:Drivers/CMSIS/DSP/Source/TransformFunctions/arm_cfft_f32.c ****     //    Initialize mid pointers
 211:Drivers/CMSIS/DSP/Source/TransformFunctions/arm_cfft_f32.c ****     pMid1 = p1 + L;
  73              		.loc 1 211 5 is_stmt 1 view .LVU16
  74              		.loc 1 211 11 is_stmt 0 view .LVU17
  75 001a 01EB880E 		add	lr, r1, r8, lsl #2
ARM GAS  /var/folders/n6/c271nzx11xl4r4_m7sqjlt0m0000gn/T//ccyMl37L.s 			page 6


  76              	.LVL6:
 212:Drivers/CMSIS/DSP/Source/TransformFunctions/arm_cfft_f32.c ****     pMid2 = p2 + L;
  77              		.loc 1 212 5 is_stmt 1 view .LVU18
  78              		.loc 1 212 11 is_stmt 0 view .LVU19
  79 001e 07EB880C 		add	ip, r7, r8, lsl #2
  80              	.LVL7:
 213:Drivers/CMSIS/DSP/Source/TransformFunctions/arm_cfft_f32.c **** 
 214:Drivers/CMSIS/DSP/Source/TransformFunctions/arm_cfft_f32.c ****     // do two dot Fourier transform
 215:Drivers/CMSIS/DSP/Source/TransformFunctions/arm_cfft_f32.c ****     for ( l = L >> 2; l > 0; l-- )
  81              		.loc 1 215 5 is_stmt 1 view .LVU20
  82              		.loc 1 215 13 is_stmt 0 view .LVU21
  83 0022 ED08     		lsrs	r5, r5, #3
  84              	.LVL8:
 199:Drivers/CMSIS/DSP/Source/TransformFunctions/arm_cfft_f32.c ****     const float32_t * tw = (float32_t *) S->pTwiddle;
  85              		.loc 1 199 17 view .LVU22
  86 0024 3A46     		mov	r2, r7
  87              		.loc 1 215 5 view .LVU23
  88 0026 0B46     		mov	r3, r1
  89 0028 CFE0     		b	.L2
  90              	.LVL9:
  91              	.L3:
 216:Drivers/CMSIS/DSP/Source/TransformFunctions/arm_cfft_f32.c ****     {
 217:Drivers/CMSIS/DSP/Source/TransformFunctions/arm_cfft_f32.c ****         t1[0] = p1[0];
  92              		.loc 1 217 9 is_stmt 1 view .LVU24
  93              		.loc 1 217 19 is_stmt 0 view .LVU25
  94 002a 93ED005A 		vldr.32	s10, [r3]
  95              		.loc 1 217 15 view .LVU26
  96 002e 8DED0C5A 		vstr.32	s10, [sp, #48]
 218:Drivers/CMSIS/DSP/Source/TransformFunctions/arm_cfft_f32.c ****         t1[1] = p1[1];
  97              		.loc 1 218 9 is_stmt 1 view .LVU27
  98              		.loc 1 218 15 is_stmt 0 view .LVU28
  99 0032 93ED016A 		vldr.32	s12, [r3, #4]
 100 0036 8DED0D6A 		vstr.32	s12, [sp, #52]
 219:Drivers/CMSIS/DSP/Source/TransformFunctions/arm_cfft_f32.c ****         t1[2] = p1[2];
 101              		.loc 1 219 9 is_stmt 1 view .LVU29
 102              		.loc 1 219 15 is_stmt 0 view .LVU30
 103 003a 93ED023A 		vldr.32	s6, [r3, #8]
 104 003e 8DED0E3A 		vstr.32	s6, [sp, #56]
 220:Drivers/CMSIS/DSP/Source/TransformFunctions/arm_cfft_f32.c ****         t1[3] = p1[3];
 105              		.loc 1 220 9 is_stmt 1 view .LVU31
 106              		.loc 1 220 15 is_stmt 0 view .LVU32
 107 0042 93ED037A 		vldr.32	s14, [r3, #12]
 108 0046 8DED0F7A 		vstr.32	s14, [sp, #60]
 221:Drivers/CMSIS/DSP/Source/TransformFunctions/arm_cfft_f32.c **** 
 222:Drivers/CMSIS/DSP/Source/TransformFunctions/arm_cfft_f32.c ****         t2[0] = p2[0];
 109              		.loc 1 222 9 is_stmt 1 view .LVU33
 110              		.loc 1 222 19 is_stmt 0 view .LVU34
 111 004a 92ED000A 		vldr.32	s0, [r2]
 112              		.loc 1 222 15 view .LVU35
 113 004e 8DED080A 		vstr.32	s0, [sp, #32]
 223:Drivers/CMSIS/DSP/Source/TransformFunctions/arm_cfft_f32.c ****         t2[1] = p2[1];
 114              		.loc 1 223 9 is_stmt 1 view .LVU36
 115              		.loc 1 223 15 is_stmt 0 view .LVU37
 116 0052 D2ED010A 		vldr.32	s1, [r2, #4]
 117 0056 CDED090A 		vstr.32	s1, [sp, #36]
 224:Drivers/CMSIS/DSP/Source/TransformFunctions/arm_cfft_f32.c ****         t2[2] = p2[2];
 118              		.loc 1 224 9 is_stmt 1 view .LVU38
ARM GAS  /var/folders/n6/c271nzx11xl4r4_m7sqjlt0m0000gn/T//ccyMl37L.s 			page 7


 119              		.loc 1 224 15 is_stmt 0 view .LVU39
 120 005a 92ED021A 		vldr.32	s2, [r2, #8]
 121 005e 8DED0A1A 		vstr.32	s2, [sp, #40]
 225:Drivers/CMSIS/DSP/Source/TransformFunctions/arm_cfft_f32.c ****         t2[3] = p2[3];
 122              		.loc 1 225 9 is_stmt 1 view .LVU40
 123              		.loc 1 225 15 is_stmt 0 view .LVU41
 124 0062 D2ED031A 		vldr.32	s3, [r2, #12]
 125 0066 CDED0B1A 		vstr.32	s3, [sp, #44]
 226:Drivers/CMSIS/DSP/Source/TransformFunctions/arm_cfft_f32.c **** 
 227:Drivers/CMSIS/DSP/Source/TransformFunctions/arm_cfft_f32.c ****         t3[0] = pMid1[0];
 126              		.loc 1 227 9 is_stmt 1 view .LVU42
 127              		.loc 1 227 22 is_stmt 0 view .LVU43
 128 006a 9EED002A 		vldr.32	s4, [lr]
 129              		.loc 1 227 15 view .LVU44
 130 006e 8DED042A 		vstr.32	s4, [sp, #16]
 228:Drivers/CMSIS/DSP/Source/TransformFunctions/arm_cfft_f32.c ****         t3[1] = pMid1[1];
 131              		.loc 1 228 9 is_stmt 1 view .LVU45
 132              		.loc 1 228 15 is_stmt 0 view .LVU46
 133 0072 DEED012A 		vldr.32	s5, [lr, #4]
 134 0076 CDED052A 		vstr.32	s5, [sp, #20]
 229:Drivers/CMSIS/DSP/Source/TransformFunctions/arm_cfft_f32.c ****         t3[2] = pMid1[2];
 135              		.loc 1 229 9 is_stmt 1 view .LVU47
 136              		.loc 1 229 15 is_stmt 0 view .LVU48
 137 007a 9EED024A 		vldr.32	s8, [lr, #8]
 138 007e 8DED064A 		vstr.32	s8, [sp, #24]
 230:Drivers/CMSIS/DSP/Source/TransformFunctions/arm_cfft_f32.c ****         t3[3] = pMid1[3];
 139              		.loc 1 230 9 is_stmt 1 view .LVU49
 140              		.loc 1 230 15 is_stmt 0 view .LVU50
 141 0082 DEED034A 		vldr.32	s9, [lr, #12]
 142 0086 CDED074A 		vstr.32	s9, [sp, #28]
 231:Drivers/CMSIS/DSP/Source/TransformFunctions/arm_cfft_f32.c **** 
 232:Drivers/CMSIS/DSP/Source/TransformFunctions/arm_cfft_f32.c ****         t4[0] = pMid2[0];
 143              		.loc 1 232 9 is_stmt 1 view .LVU51
 144              		.loc 1 232 22 is_stmt 0 view .LVU52
 145 008a DCED005A 		vldr.32	s11, [ip]
 146              		.loc 1 232 15 view .LVU53
 147 008e CDED005A 		vstr.32	s11, [sp]
 233:Drivers/CMSIS/DSP/Source/TransformFunctions/arm_cfft_f32.c ****         t4[1] = pMid2[1];
 148              		.loc 1 233 9 is_stmt 1 view .LVU54
 149              		.loc 1 233 15 is_stmt 0 view .LVU55
 150 0092 DCED016A 		vldr.32	s13, [ip, #4]
 151 0096 CDED016A 		vstr.32	s13, [sp, #4]
 234:Drivers/CMSIS/DSP/Source/TransformFunctions/arm_cfft_f32.c ****         t4[2] = pMid2[2];
 152              		.loc 1 234 9 is_stmt 1 view .LVU56
 153              		.loc 1 234 15 is_stmt 0 view .LVU57
 154 009a DCED023A 		vldr.32	s7, [ip, #8]
 155 009e CDED023A 		vstr.32	s7, [sp, #8]
 235:Drivers/CMSIS/DSP/Source/TransformFunctions/arm_cfft_f32.c ****         t4[3] = pMid2[3];
 156              		.loc 1 235 9 is_stmt 1 view .LVU58
 157              		.loc 1 235 15 is_stmt 0 view .LVU59
 158 00a2 DCED037A 		vldr.32	s15, [ip, #12]
 159 00a6 CDED037A 		vstr.32	s15, [sp, #12]
 236:Drivers/CMSIS/DSP/Source/TransformFunctions/arm_cfft_f32.c **** 
 237:Drivers/CMSIS/DSP/Source/TransformFunctions/arm_cfft_f32.c ****         *p1++ = t1[0] + t2[0];
 160              		.loc 1 237 9 is_stmt 1 view .LVU60
 161              	.LVL10:
 162              		.loc 1 237 23 is_stmt 0 view .LVU61
ARM GAS  /var/folders/n6/c271nzx11xl4r4_m7sqjlt0m0000gn/T//ccyMl37L.s 			page 8


 163 00aa 35EE008A 		vadd.f32	s16, s10, s0
 164              		.loc 1 237 15 view .LVU62
 165 00ae 83ED008A 		vstr.32	s16, [r3]
 238:Drivers/CMSIS/DSP/Source/TransformFunctions/arm_cfft_f32.c ****         *p1++ = t1[1] + t2[1];
 166              		.loc 1 238 9 is_stmt 1 view .LVU63
 167              	.LVL11:
 168              		.loc 1 238 23 is_stmt 0 view .LVU64
 169 00b2 36EE208A 		vadd.f32	s16, s12, s1
 170              		.loc 1 238 15 view .LVU65
 171 00b6 83ED018A 		vstr.32	s16, [r3, #4]
 239:Drivers/CMSIS/DSP/Source/TransformFunctions/arm_cfft_f32.c ****         *p1++ = t1[2] + t2[2];
 172              		.loc 1 239 9 is_stmt 1 view .LVU66
 173              	.LVL12:
 174              		.loc 1 239 23 is_stmt 0 view .LVU67
 175 00ba 33EE018A 		vadd.f32	s16, s6, s2
 176              		.loc 1 239 15 view .LVU68
 177 00be 83ED028A 		vstr.32	s16, [r3, #8]
 240:Drivers/CMSIS/DSP/Source/TransformFunctions/arm_cfft_f32.c ****         *p1++ = t1[3] + t2[3];    // col 1
 178              		.loc 1 240 9 is_stmt 1 view .LVU69
 179              	.LVL13:
 180              		.loc 1 240 23 is_stmt 0 view .LVU70
 181 00c2 37EE218A 		vadd.f32	s16, s14, s3
 182              		.loc 1 240 15 view .LVU71
 183 00c6 83ED038A 		vstr.32	s16, [r3, #12]
 241:Drivers/CMSIS/DSP/Source/TransformFunctions/arm_cfft_f32.c **** 
 242:Drivers/CMSIS/DSP/Source/TransformFunctions/arm_cfft_f32.c ****         t2[0] = t1[0] - t2[0];
 184              		.loc 1 242 9 is_stmt 1 view .LVU72
 185              		.loc 1 242 23 is_stmt 0 view .LVU73
 186 00ca 35EE405A 		vsub.f32	s10, s10, s0
 187              		.loc 1 242 15 view .LVU74
 188 00ce 8DED085A 		vstr.32	s10, [sp, #32]
 243:Drivers/CMSIS/DSP/Source/TransformFunctions/arm_cfft_f32.c ****         t2[1] = t1[1] - t2[1];
 189              		.loc 1 243 9 is_stmt 1 view .LVU75
 190              		.loc 1 243 23 is_stmt 0 view .LVU76
 191 00d2 36EE606A 		vsub.f32	s12, s12, s1
 192              		.loc 1 243 15 view .LVU77
 193 00d6 8DED096A 		vstr.32	s12, [sp, #36]
 244:Drivers/CMSIS/DSP/Source/TransformFunctions/arm_cfft_f32.c ****         t2[2] = t1[2] - t2[2];
 194              		.loc 1 244 9 is_stmt 1 view .LVU78
 195              		.loc 1 244 23 is_stmt 0 view .LVU79
 196 00da 33EE413A 		vsub.f32	s6, s6, s2
 197              		.loc 1 244 15 view .LVU80
 198 00de 8DED0A3A 		vstr.32	s6, [sp, #40]
 245:Drivers/CMSIS/DSP/Source/TransformFunctions/arm_cfft_f32.c ****         t2[3] = t1[3] - t2[3];    // for col 2
 199              		.loc 1 245 9 is_stmt 1 view .LVU81
 200              		.loc 1 245 23 is_stmt 0 view .LVU82
 201 00e2 37EE617A 		vsub.f32	s14, s14, s3
 202              		.loc 1 245 15 view .LVU83
 203 00e6 8DED0B7A 		vstr.32	s14, [sp, #44]
 246:Drivers/CMSIS/DSP/Source/TransformFunctions/arm_cfft_f32.c **** 
 247:Drivers/CMSIS/DSP/Source/TransformFunctions/arm_cfft_f32.c ****         *pMid1++ = t3[0] + t4[0];
 204              		.loc 1 247 9 is_stmt 1 view .LVU84
 205              	.LVL14:
 206              		.loc 1 247 26 is_stmt 0 view .LVU85
 207 00ea 72EE251A 		vadd.f32	s3, s4, s11
 208              		.loc 1 247 18 view .LVU86
 209 00ee CEED001A 		vstr.32	s3, [lr]
ARM GAS  /var/folders/n6/c271nzx11xl4r4_m7sqjlt0m0000gn/T//ccyMl37L.s 			page 9


 248:Drivers/CMSIS/DSP/Source/TransformFunctions/arm_cfft_f32.c ****         *pMid1++ = t3[1] + t4[1];
 210              		.loc 1 248 9 is_stmt 1 view .LVU87
 211              	.LVL15:
 212              		.loc 1 248 26 is_stmt 0 view .LVU88
 213 00f2 72EEA61A 		vadd.f32	s3, s5, s13
 214              		.loc 1 248 18 view .LVU89
 215 00f6 CEED011A 		vstr.32	s3, [lr, #4]
 249:Drivers/CMSIS/DSP/Source/TransformFunctions/arm_cfft_f32.c ****         *pMid1++ = t3[2] + t4[2];
 216              		.loc 1 249 9 is_stmt 1 view .LVU90
 217              	.LVL16:
 218              		.loc 1 249 26 is_stmt 0 view .LVU91
 219 00fa 74EE231A 		vadd.f32	s3, s8, s7
 220              		.loc 1 249 18 view .LVU92
 221 00fe CEED021A 		vstr.32	s3, [lr, #8]
 250:Drivers/CMSIS/DSP/Source/TransformFunctions/arm_cfft_f32.c ****         *pMid1++ = t3[3] + t4[3]; // col 1
 222              		.loc 1 250 9 is_stmt 1 view .LVU93
 223              	.LVL17:
 224              		.loc 1 250 26 is_stmt 0 view .LVU94
 225 0102 74EEA71A 		vadd.f32	s3, s9, s15
 226              		.loc 1 250 18 view .LVU95
 227 0106 CEED031A 		vstr.32	s3, [lr, #12]
 251:Drivers/CMSIS/DSP/Source/TransformFunctions/arm_cfft_f32.c **** 
 252:Drivers/CMSIS/DSP/Source/TransformFunctions/arm_cfft_f32.c ****         t4[0] = t4[0] - t3[0];
 228              		.loc 1 252 9 is_stmt 1 view .LVU96
 229              		.loc 1 252 23 is_stmt 0 view .LVU97
 230 010a 75EEC25A 		vsub.f32	s11, s11, s4
 231              		.loc 1 252 15 view .LVU98
 232 010e CDED005A 		vstr.32	s11, [sp]
 253:Drivers/CMSIS/DSP/Source/TransformFunctions/arm_cfft_f32.c ****         t4[1] = t4[1] - t3[1];
 233              		.loc 1 253 9 is_stmt 1 view .LVU99
 234              		.loc 1 253 23 is_stmt 0 view .LVU100
 235 0112 76EEE26A 		vsub.f32	s13, s13, s5
 236              		.loc 1 253 15 view .LVU101
 237 0116 CDED016A 		vstr.32	s13, [sp, #4]
 254:Drivers/CMSIS/DSP/Source/TransformFunctions/arm_cfft_f32.c ****         t4[2] = t4[2] - t3[2];
 238              		.loc 1 254 9 is_stmt 1 view .LVU102
 239              		.loc 1 254 23 is_stmt 0 view .LVU103
 240 011a 73EEC42A 		vsub.f32	s5, s7, s8
 241              		.loc 1 254 15 view .LVU104
 242 011e CDED022A 		vstr.32	s5, [sp, #8]
 255:Drivers/CMSIS/DSP/Source/TransformFunctions/arm_cfft_f32.c ****         t4[3] = t4[3] - t3[3];    // for col 2
 243              		.loc 1 255 9 is_stmt 1 view .LVU105
 244              		.loc 1 255 23 is_stmt 0 view .LVU106
 245 0122 77EEE47A 		vsub.f32	s15, s15, s9
 246              		.loc 1 255 15 view .LVU107
 247 0126 CDED037A 		vstr.32	s15, [sp, #12]
 256:Drivers/CMSIS/DSP/Source/TransformFunctions/arm_cfft_f32.c **** 
 257:Drivers/CMSIS/DSP/Source/TransformFunctions/arm_cfft_f32.c ****         twR = *tw++;
 248              		.loc 1 257 9 is_stmt 1 view .LVU108
 249              	.LVL18:
 250              		.loc 1 257 13 is_stmt 0 view .LVU109
 251 012a D4ED004A 		vldr.32	s9, [r4]
 252              	.LVL19:
 258:Drivers/CMSIS/DSP/Source/TransformFunctions/arm_cfft_f32.c ****         twI = *tw++;
 253              		.loc 1 258 9 is_stmt 1 view .LVU110
 254              		.loc 1 258 13 is_stmt 0 view .LVU111
 255 012e 94ED014A 		vldr.32	s8, [r4, #4]
ARM GAS  /var/folders/n6/c271nzx11xl4r4_m7sqjlt0m0000gn/T//ccyMl37L.s 			page 10


 256              	.LVL20:
 259:Drivers/CMSIS/DSP/Source/TransformFunctions/arm_cfft_f32.c **** 
 260:Drivers/CMSIS/DSP/Source/TransformFunctions/arm_cfft_f32.c ****         // multiply by twiddle factors
 261:Drivers/CMSIS/DSP/Source/TransformFunctions/arm_cfft_f32.c ****         m0 = t2[0] * twR;
 257              		.loc 1 261 9 is_stmt 1 view .LVU112
 258              		.loc 1 261 12 is_stmt 0 view .LVU113
 259 0132 65EE243A 		vmul.f32	s7, s10, s9
 260              	.LVL21:
 262:Drivers/CMSIS/DSP/Source/TransformFunctions/arm_cfft_f32.c ****         m1 = t2[1] * twI;
 261              		.loc 1 262 9 is_stmt 1 view .LVU114
 262              		.loc 1 262 12 is_stmt 0 view .LVU115
 263 0136 26EE042A 		vmul.f32	s4, s12, s8
 264              	.LVL22:
 263:Drivers/CMSIS/DSP/Source/TransformFunctions/arm_cfft_f32.c ****         m2 = t2[1] * twR;
 265              		.loc 1 263 9 is_stmt 1 view .LVU116
 266              		.loc 1 263 12 is_stmt 0 view .LVU117
 267 013a 26EE246A 		vmul.f32	s12, s12, s9
 268              	.LVL23:
 264:Drivers/CMSIS/DSP/Source/TransformFunctions/arm_cfft_f32.c ****         m3 = t2[0] * twI;
 269              		.loc 1 264 9 is_stmt 1 view .LVU118
 270              		.loc 1 264 12 is_stmt 0 view .LVU119
 271 013e 25EE045A 		vmul.f32	s10, s10, s8
 272              	.LVL24:
 265:Drivers/CMSIS/DSP/Source/TransformFunctions/arm_cfft_f32.c **** 
 266:Drivers/CMSIS/DSP/Source/TransformFunctions/arm_cfft_f32.c ****         // R  =  R  *  Tr - I * Ti
 267:Drivers/CMSIS/DSP/Source/TransformFunctions/arm_cfft_f32.c ****         *p2++ = m0 + m1;
 273              		.loc 1 267 9 is_stmt 1 view .LVU120
 274              		.loc 1 267 20 is_stmt 0 view .LVU121
 275 0142 73EE823A 		vadd.f32	s7, s7, s4
 276              	.LVL25:
 277              		.loc 1 267 15 view .LVU122
 278 0146 C2ED003A 		vstr.32	s7, [r2]
 268:Drivers/CMSIS/DSP/Source/TransformFunctions/arm_cfft_f32.c ****         // I  =  I  *  Tr + R * Ti
 269:Drivers/CMSIS/DSP/Source/TransformFunctions/arm_cfft_f32.c ****         *p2++ = m2 - m3;
 279              		.loc 1 269 9 is_stmt 1 view .LVU123
 280              	.LVL26:
 281              		.loc 1 269 20 is_stmt 0 view .LVU124
 282 014a 36EE456A 		vsub.f32	s12, s12, s10
 283              	.LVL27:
 284              		.loc 1 269 15 view .LVU125
 285 014e 82ED016A 		vstr.32	s12, [r2, #4]
 270:Drivers/CMSIS/DSP/Source/TransformFunctions/arm_cfft_f32.c **** 
 271:Drivers/CMSIS/DSP/Source/TransformFunctions/arm_cfft_f32.c ****         // use vertical symmetry
 272:Drivers/CMSIS/DSP/Source/TransformFunctions/arm_cfft_f32.c ****         //  0.9988 - 0.0491i <==> -0.0491 - 0.9988i
 273:Drivers/CMSIS/DSP/Source/TransformFunctions/arm_cfft_f32.c ****         m0 = t4[0] * twI;
 286              		.loc 1 273 9 is_stmt 1 view .LVU126
 287              		.loc 1 273 12 is_stmt 0 view .LVU127
 288 0152 25EE846A 		vmul.f32	s12, s11, s8
 289              	.LVL28:
 274:Drivers/CMSIS/DSP/Source/TransformFunctions/arm_cfft_f32.c ****         m1 = t4[1] * twR;
 290              		.loc 1 274 9 is_stmt 1 view .LVU128
 291              		.loc 1 274 12 is_stmt 0 view .LVU129
 292 0156 26EEA45A 		vmul.f32	s10, s13, s9
 293              	.LVL29:
 275:Drivers/CMSIS/DSP/Source/TransformFunctions/arm_cfft_f32.c ****         m2 = t4[1] * twI;
 294              		.loc 1 275 9 is_stmt 1 view .LVU130
 295              		.loc 1 275 12 is_stmt 0 view .LVU131
ARM GAS  /var/folders/n6/c271nzx11xl4r4_m7sqjlt0m0000gn/T//ccyMl37L.s 			page 11


 296 015a 66EE846A 		vmul.f32	s13, s13, s8
 297              	.LVL30:
 276:Drivers/CMSIS/DSP/Source/TransformFunctions/arm_cfft_f32.c ****         m3 = t4[0] * twR;
 298              		.loc 1 276 9 is_stmt 1 view .LVU132
 299              		.loc 1 276 12 is_stmt 0 view .LVU133
 300 015e 65EEA45A 		vmul.f32	s11, s11, s9
 301              	.LVL31:
 277:Drivers/CMSIS/DSP/Source/TransformFunctions/arm_cfft_f32.c **** 
 278:Drivers/CMSIS/DSP/Source/TransformFunctions/arm_cfft_f32.c ****         *pMid2++ = m0 - m1;
 302              		.loc 1 278 9 is_stmt 1 view .LVU134
 303              		.loc 1 278 23 is_stmt 0 view .LVU135
 304 0162 36EE456A 		vsub.f32	s12, s12, s10
 305              	.LVL32:
 306              		.loc 1 278 18 view .LVU136
 307 0166 8CED006A 		vstr.32	s12, [ip]
 279:Drivers/CMSIS/DSP/Source/TransformFunctions/arm_cfft_f32.c ****         *pMid2++ = m2 + m3;
 308              		.loc 1 279 9 is_stmt 1 view .LVU137
 309              	.LVL33:
 310              		.loc 1 279 23 is_stmt 0 view .LVU138
 311 016a 76EEA56A 		vadd.f32	s13, s13, s11
 312              	.LVL34:
 313              		.loc 1 279 18 view .LVU139
 314 016e CCED016A 		vstr.32	s13, [ip, #4]
 280:Drivers/CMSIS/DSP/Source/TransformFunctions/arm_cfft_f32.c **** 
 281:Drivers/CMSIS/DSP/Source/TransformFunctions/arm_cfft_f32.c ****         twR = *tw++;
 315              		.loc 1 281 9 is_stmt 1 view .LVU140
 316              	.LVL35:
 317              		.loc 1 281 13 is_stmt 0 view .LVU141
 318 0172 94ED026A 		vldr.32	s12, [r4, #8]
 319              	.LVL36:
 282:Drivers/CMSIS/DSP/Source/TransformFunctions/arm_cfft_f32.c ****         twI = *tw++;
 320              		.loc 1 282 9 is_stmt 1 view .LVU142
 321              		.loc 1 282 13 is_stmt 0 view .LVU143
 322 0176 D4ED035A 		vldr.32	s11, [r4, #12]
 323              	.LVL37:
 283:Drivers/CMSIS/DSP/Source/TransformFunctions/arm_cfft_f32.c **** 
 284:Drivers/CMSIS/DSP/Source/TransformFunctions/arm_cfft_f32.c ****         m0 = t2[2] * twR;
 324              		.loc 1 284 9 is_stmt 1 view .LVU144
 325              		.loc 1 284 12 is_stmt 0 view .LVU145
 326 017a 23EE065A 		vmul.f32	s10, s6, s12
 327              	.LVL38:
 285:Drivers/CMSIS/DSP/Source/TransformFunctions/arm_cfft_f32.c ****         m1 = t2[3] * twI;
 328              		.loc 1 285 9 is_stmt 1 view .LVU146
 329              		.loc 1 285 12 is_stmt 0 view .LVU147
 330 017e 67EE254A 		vmul.f32	s9, s14, s11
 331              	.LVL39:
 286:Drivers/CMSIS/DSP/Source/TransformFunctions/arm_cfft_f32.c ****         m2 = t2[3] * twR;
 332              		.loc 1 286 9 is_stmt 1 view .LVU148
 333              		.loc 1 286 12 is_stmt 0 view .LVU149
 334 0182 27EE067A 		vmul.f32	s14, s14, s12
 335              	.LVL40:
 287:Drivers/CMSIS/DSP/Source/TransformFunctions/arm_cfft_f32.c ****         m3 = t2[2] * twI;
 336              		.loc 1 287 9 is_stmt 1 view .LVU150
 337              		.loc 1 287 12 is_stmt 0 view .LVU151
 338 0186 63EE256A 		vmul.f32	s13, s6, s11
 339              	.LVL41:
 288:Drivers/CMSIS/DSP/Source/TransformFunctions/arm_cfft_f32.c **** 
ARM GAS  /var/folders/n6/c271nzx11xl4r4_m7sqjlt0m0000gn/T//ccyMl37L.s 			page 12


 289:Drivers/CMSIS/DSP/Source/TransformFunctions/arm_cfft_f32.c ****         *p2++ = m0 + m1;
 340              		.loc 1 289 9 is_stmt 1 view .LVU152
 341              		.loc 1 289 20 is_stmt 0 view .LVU153
 342 018a 35EE245A 		vadd.f32	s10, s10, s9
 343              	.LVL42:
 344              		.loc 1 289 15 view .LVU154
 345 018e 82ED025A 		vstr.32	s10, [r2, #8]
 290:Drivers/CMSIS/DSP/Source/TransformFunctions/arm_cfft_f32.c ****         *p2++ = m2 - m3;
 346              		.loc 1 290 9 is_stmt 1 view .LVU155
 347              	.LVL43:
 348              		.loc 1 290 20 is_stmt 0 view .LVU156
 349 0192 37EE667A 		vsub.f32	s14, s14, s13
 350              	.LVL44:
 351              		.loc 1 290 15 view .LVU157
 352 0196 82ED037A 		vstr.32	s14, [r2, #12]
 291:Drivers/CMSIS/DSP/Source/TransformFunctions/arm_cfft_f32.c **** 
 292:Drivers/CMSIS/DSP/Source/TransformFunctions/arm_cfft_f32.c ****         m0 = t4[2] * twI;
 353              		.loc 1 292 9 is_stmt 1 view .LVU158
 354              		.loc 1 292 12 is_stmt 0 view .LVU159
 355 019a 62EEA56A 		vmul.f32	s13, s5, s11
 356              	.LVL45:
 293:Drivers/CMSIS/DSP/Source/TransformFunctions/arm_cfft_f32.c ****         m1 = t4[3] * twR;
 357              		.loc 1 293 9 is_stmt 1 view .LVU160
 358              		.loc 1 293 12 is_stmt 0 view .LVU161
 359 019e 27EE865A 		vmul.f32	s10, s15, s12
 360              	.LVL46:
 294:Drivers/CMSIS/DSP/Source/TransformFunctions/arm_cfft_f32.c ****         m2 = t4[3] * twI;
 361              		.loc 1 294 9 is_stmt 1 view .LVU162
 362              		.loc 1 294 12 is_stmt 0 view .LVU163
 363 01a2 67EEA57A 		vmul.f32	s15, s15, s11
 364              	.LVL47:
 295:Drivers/CMSIS/DSP/Source/TransformFunctions/arm_cfft_f32.c ****         m3 = t4[2] * twR;
 365              		.loc 1 295 9 is_stmt 1 view .LVU164
 366              		.loc 1 295 12 is_stmt 0 view .LVU165
 367 01a6 22EE867A 		vmul.f32	s14, s5, s12
 368              	.LVL48:
 296:Drivers/CMSIS/DSP/Source/TransformFunctions/arm_cfft_f32.c **** 
 297:Drivers/CMSIS/DSP/Source/TransformFunctions/arm_cfft_f32.c ****         *pMid2++ = m0 - m1;
 369              		.loc 1 297 9 is_stmt 1 view .LVU166
 370              		.loc 1 297 23 is_stmt 0 view .LVU167
 371 01aa 76EEC56A 		vsub.f32	s13, s13, s10
 372              	.LVL49:
 373              		.loc 1 297 18 view .LVU168
 374 01ae CCED026A 		vstr.32	s13, [ip, #8]
 298:Drivers/CMSIS/DSP/Source/TransformFunctions/arm_cfft_f32.c ****         *pMid2++ = m2 + m3;
 375              		.loc 1 298 9 is_stmt 1 view .LVU169
 376              	.LVL50:
 377              		.loc 1 298 23 is_stmt 0 view .LVU170
 378 01b2 77EE877A 		vadd.f32	s15, s15, s14
 379              	.LVL51:
 380              		.loc 1 298 18 view .LVU171
 381 01b6 CCED037A 		vstr.32	s15, [ip, #12]
 215:Drivers/CMSIS/DSP/Source/TransformFunctions/arm_cfft_f32.c ****     {
 382              		.loc 1 215 31 is_stmt 1 discriminator 3 view .LVU172
 383 01ba 013D     		subs	r5, r5, #1
 384              	.LVL52:
 282:Drivers/CMSIS/DSP/Source/TransformFunctions/arm_cfft_f32.c **** 
ARM GAS  /var/folders/n6/c271nzx11xl4r4_m7sqjlt0m0000gn/T//ccyMl37L.s 			page 13


 385              		.loc 1 282 18 is_stmt 0 view .LVU173
 386 01bc 1034     		adds	r4, r4, #16
 387              	.LVL53:
 290:Drivers/CMSIS/DSP/Source/TransformFunctions/arm_cfft_f32.c **** 
 388              		.loc 1 290 12 view .LVU174
 389 01be 1032     		adds	r2, r2, #16
 390              	.LVL54:
 391              		.loc 1 298 15 view .LVU175
 392 01c0 0CF1100C 		add	ip, ip, #16
 393              	.LVL55:
 250:Drivers/CMSIS/DSP/Source/TransformFunctions/arm_cfft_f32.c **** 
 394              		.loc 1 250 15 view .LVU176
 395 01c4 0EF1100E 		add	lr, lr, #16
 396              	.LVL56:
 240:Drivers/CMSIS/DSP/Source/TransformFunctions/arm_cfft_f32.c **** 
 397              		.loc 1 240 12 view .LVU177
 398 01c8 1033     		adds	r3, r3, #16
 399              	.LVL57:
 400              	.L2:
 215:Drivers/CMSIS/DSP/Source/TransformFunctions/arm_cfft_f32.c ****     {
 401              		.loc 1 215 25 is_stmt 1 discriminator 1 view .LVU178
 402 01ca 002D     		cmp	r5, #0
 403 01cc 7FF42DAF 		bne	.L3
 299:Drivers/CMSIS/DSP/Source/TransformFunctions/arm_cfft_f32.c ****     }
 300:Drivers/CMSIS/DSP/Source/TransformFunctions/arm_cfft_f32.c **** 
 301:Drivers/CMSIS/DSP/Source/TransformFunctions/arm_cfft_f32.c ****     // first col
 302:Drivers/CMSIS/DSP/Source/TransformFunctions/arm_cfft_f32.c ****     arm_radix8_butterfly_f32( pCol1, L, (float32_t *) S->pTwiddle, 2U);
 404              		.loc 1 302 5 view .LVU179
 405 01d0 1FFA88F8 		uxth	r8, r8
 406              	.LVL58:
 407              		.loc 1 302 5 is_stmt 0 view .LVU180
 408 01d4 0223     		movs	r3, #2
 409              	.LVL59:
 410              		.loc 1 302 5 view .LVU181
 411 01d6 7268     		ldr	r2, [r6, #4]
 412              	.LVL60:
 413              		.loc 1 302 5 view .LVU182
 414 01d8 4146     		mov	r1, r8
 415 01da FFF7FEFF 		bl	arm_radix8_butterfly_f32
 416              	.LVL61:
 303:Drivers/CMSIS/DSP/Source/TransformFunctions/arm_cfft_f32.c ****     // second col
 304:Drivers/CMSIS/DSP/Source/TransformFunctions/arm_cfft_f32.c ****     arm_radix8_butterfly_f32( pCol2, L, (float32_t *) S->pTwiddle, 2U);
 417              		.loc 1 304 5 is_stmt 1 view .LVU183
 418 01de 0223     		movs	r3, #2
 419 01e0 7268     		ldr	r2, [r6, #4]
 420 01e2 4146     		mov	r1, r8
 421 01e4 3846     		mov	r0, r7
 422 01e6 FFF7FEFF 		bl	arm_radix8_butterfly_f32
 423              	.LVL62:
 305:Drivers/CMSIS/DSP/Source/TransformFunctions/arm_cfft_f32.c **** }
 424              		.loc 1 305 1 is_stmt 0 view .LVU184
 425 01ea 10B0     		add	sp, sp, #64
 426              		.cfi_def_cfa_offset 32
 427              		@ sp needed
 428 01ec BDEC028B 		vldm	sp!, {d8}
 429              		.cfi_restore 80
 430              		.cfi_restore 81
ARM GAS  /var/folders/n6/c271nzx11xl4r4_m7sqjlt0m0000gn/T//ccyMl37L.s 			page 14


 431              		.cfi_def_cfa_offset 24
 432 01f0 BDE8F081 		pop	{r4, r5, r6, r7, r8, pc}
 433              		.loc 1 305 1 view .LVU185
 434              		.cfi_endproc
 435              	.LFE135:
 437              		.section	.text.arm_cfft_radix8by4_f32,"ax",%progbits
 438              		.align	1
 439              		.global	arm_cfft_radix8by4_f32
 440              		.syntax unified
 441              		.thumb
 442              		.thumb_func
 444              	arm_cfft_radix8by4_f32:
 445              	.LVL63:
 446              	.LFB136:
 306:Drivers/CMSIS/DSP/Source/TransformFunctions/arm_cfft_f32.c **** 
 307:Drivers/CMSIS/DSP/Source/TransformFunctions/arm_cfft_f32.c **** void arm_cfft_radix8by4_f32( arm_cfft_instance_f32 * S, float32_t * p1)
 308:Drivers/CMSIS/DSP/Source/TransformFunctions/arm_cfft_f32.c **** {
 447              		.loc 1 308 1 is_stmt 1 view -0
 448              		.cfi_startproc
 449              		@ args = 0, pretend = 0, frame = 80
 450              		@ frame_needed = 0, uses_anonymous_args = 0
 451              		.loc 1 308 1 is_stmt 0 view .LVU187
 452 0000 2DE9F04F 		push	{r4, r5, r6, r7, r8, r9, r10, fp, lr}
 453              		.cfi_def_cfa_offset 36
 454              		.cfi_offset 4, -36
 455              		.cfi_offset 5, -32
 456              		.cfi_offset 6, -28
 457              		.cfi_offset 7, -24
 458              		.cfi_offset 8, -20
 459              		.cfi_offset 9, -16
 460              		.cfi_offset 10, -12
 461              		.cfi_offset 11, -8
 462              		.cfi_offset 14, -4
 463 0004 2DED048B 		vpush.64	{d8, d9}
 464              		.cfi_def_cfa_offset 52
 465              		.cfi_offset 80, -52
 466              		.cfi_offset 81, -48
 467              		.cfi_offset 82, -44
 468              		.cfi_offset 83, -40
 469 0008 95B0     		sub	sp, sp, #84
 470              		.cfi_def_cfa_offset 136
 471 000a 0490     		str	r0, [sp, #16]
 472 000c 0A46     		mov	r2, r1
 473 000e 0591     		str	r1, [sp, #20]
 309:Drivers/CMSIS/DSP/Source/TransformFunctions/arm_cfft_f32.c ****     uint32_t    L  = S->fftLen >> 1;
 474              		.loc 1 309 5 is_stmt 1 view .LVU188
 475              		.loc 1 309 23 is_stmt 0 view .LVU189
 476 0010 0388     		ldrh	r3, [r0]
 477              		.loc 1 309 32 view .LVU190
 478 0012 5B08     		lsrs	r3, r3, #1
 479              	.LVL64:
 310:Drivers/CMSIS/DSP/Source/TransformFunctions/arm_cfft_f32.c ****     float32_t * pCol1, *pCol2, *pCol3, *pCol4, *pEnd1, *pEnd2, *pEnd3, *pEnd4;
 480              		.loc 1 310 5 is_stmt 1 view .LVU191
 311:Drivers/CMSIS/DSP/Source/TransformFunctions/arm_cfft_f32.c ****     const float32_t *tw2, *tw3, *tw4;
 481              		.loc 1 311 5 view .LVU192
 312:Drivers/CMSIS/DSP/Source/TransformFunctions/arm_cfft_f32.c ****     float32_t * p2 = p1 + L;
 482              		.loc 1 312 5 view .LVU193
ARM GAS  /var/folders/n6/c271nzx11xl4r4_m7sqjlt0m0000gn/T//ccyMl37L.s 			page 15


 483              		.loc 1 312 17 is_stmt 0 view .LVU194
 484 0014 01EB8306 		add	r6, r1, r3, lsl #2
 485              	.LVL65:
 313:Drivers/CMSIS/DSP/Source/TransformFunctions/arm_cfft_f32.c ****     float32_t * p3 = p2 + L;
 486              		.loc 1 313 5 is_stmt 1 view .LVU195
 487              		.loc 1 313 17 is_stmt 0 view .LVU196
 488 0018 01EBC301 		add	r1, r1, r3, lsl #3
 489              	.LVL66:
 490              		.loc 1 313 17 view .LVU197
 491 001c 0C46     		mov	r4, r1
 492 001e 0291     		str	r1, [sp, #8]
 493              	.LVL67:
 314:Drivers/CMSIS/DSP/Source/TransformFunctions/arm_cfft_f32.c ****     float32_t * p4 = p3 + L;
 494              		.loc 1 314 5 is_stmt 1 view .LVU198
 495              		.loc 1 314 17 is_stmt 0 view .LVU199
 496 0020 01EB8305 		add	r5, r1, r3, lsl #2
 497              	.LVL68:
 315:Drivers/CMSIS/DSP/Source/TransformFunctions/arm_cfft_f32.c ****     float32_t t2[4], t3[4], t4[4], twR, twI;
 498              		.loc 1 315 5 is_stmt 1 view .LVU200
 316:Drivers/CMSIS/DSP/Source/TransformFunctions/arm_cfft_f32.c ****     float32_t p1ap3_0, p1sp3_0, p1ap3_1, p1sp3_1;
 499              		.loc 1 316 5 view .LVU201
 317:Drivers/CMSIS/DSP/Source/TransformFunctions/arm_cfft_f32.c ****     float32_t m0, m1, m2, m3;
 500              		.loc 1 317 5 view .LVU202
 318:Drivers/CMSIS/DSP/Source/TransformFunctions/arm_cfft_f32.c ****     uint32_t l, twMod2, twMod3, twMod4;
 501              		.loc 1 318 5 view .LVU203
 319:Drivers/CMSIS/DSP/Source/TransformFunctions/arm_cfft_f32.c **** 
 320:Drivers/CMSIS/DSP/Source/TransformFunctions/arm_cfft_f32.c ****     pCol1 = p1;         // points to real values by default
 502              		.loc 1 320 5 view .LVU204
 321:Drivers/CMSIS/DSP/Source/TransformFunctions/arm_cfft_f32.c ****     pCol2 = p2;
 503              		.loc 1 321 5 view .LVU205
 322:Drivers/CMSIS/DSP/Source/TransformFunctions/arm_cfft_f32.c ****     pCol3 = p3;
 504              		.loc 1 322 5 view .LVU206
 323:Drivers/CMSIS/DSP/Source/TransformFunctions/arm_cfft_f32.c ****     pCol4 = p4;
 505              		.loc 1 323 5 view .LVU207
 324:Drivers/CMSIS/DSP/Source/TransformFunctions/arm_cfft_f32.c ****     pEnd1 = p2 - 1;     // points to imaginary values by default
 506              		.loc 1 324 5 view .LVU208
 507              		.loc 1 324 11 is_stmt 0 view .LVU209
 508 0024 311F     		subs	r1, r6, #4
 509              	.LVL69:
 510              		.loc 1 324 11 view .LVU210
 511 0026 0191     		str	r1, [sp, #4]
 512              	.LVL70:
 325:Drivers/CMSIS/DSP/Source/TransformFunctions/arm_cfft_f32.c ****     pEnd2 = p3 - 1;
 513              		.loc 1 325 5 is_stmt 1 view .LVU211
 326:Drivers/CMSIS/DSP/Source/TransformFunctions/arm_cfft_f32.c ****     pEnd3 = p4 - 1;
 514              		.loc 1 326 5 view .LVU212
 515              		.loc 1 326 11 is_stmt 0 view .LVU213
 516 0028 A5F1040C 		sub	ip, r5, #4
 517              	.LVL71:
 327:Drivers/CMSIS/DSP/Source/TransformFunctions/arm_cfft_f32.c ****     pEnd4 = pEnd3 + L;
 518              		.loc 1 327 5 is_stmt 1 view .LVU214
 519              		.loc 1 327 11 is_stmt 0 view .LVU215
 520 002c 0CEB8301 		add	r1, ip, r3, lsl #2
 521              	.LVL72:
 328:Drivers/CMSIS/DSP/Source/TransformFunctions/arm_cfft_f32.c **** 
 329:Drivers/CMSIS/DSP/Source/TransformFunctions/arm_cfft_f32.c ****     tw2 = tw3 = tw4 = (float32_t *) S->pTwiddle;
 522              		.loc 1 329 5 is_stmt 1 view .LVU216
ARM GAS  /var/folders/n6/c271nzx11xl4r4_m7sqjlt0m0000gn/T//ccyMl37L.s 			page 16


 523              		.loc 1 329 21 is_stmt 0 view .LVU217
 524 0030 D0F804E0 		ldr	lr, [r0, #4]
 525              	.LVL73:
 330:Drivers/CMSIS/DSP/Source/TransformFunctions/arm_cfft_f32.c **** 
 331:Drivers/CMSIS/DSP/Source/TransformFunctions/arm_cfft_f32.c ****     L >>= 1;
 526              		.loc 1 331 5 is_stmt 1 view .LVU218
 527              		.loc 1 331 7 is_stmt 0 view .LVU219
 528 0034 5B08     		lsrs	r3, r3, #1
 529              	.LVL74:
 530              		.loc 1 331 7 view .LVU220
 531 0036 1F46     		mov	r7, r3
 532 0038 0393     		str	r3, [sp, #12]
 533              	.LVL75:
 332:Drivers/CMSIS/DSP/Source/TransformFunctions/arm_cfft_f32.c **** 
 333:Drivers/CMSIS/DSP/Source/TransformFunctions/arm_cfft_f32.c ****     // do four dot Fourier transform
 334:Drivers/CMSIS/DSP/Source/TransformFunctions/arm_cfft_f32.c **** 
 335:Drivers/CMSIS/DSP/Source/TransformFunctions/arm_cfft_f32.c ****     twMod2 = 2;
 534              		.loc 1 335 5 is_stmt 1 view .LVU221
 336:Drivers/CMSIS/DSP/Source/TransformFunctions/arm_cfft_f32.c ****     twMod3 = 4;
 535              		.loc 1 336 5 view .LVU222
 337:Drivers/CMSIS/DSP/Source/TransformFunctions/arm_cfft_f32.c ****     twMod4 = 6;
 536              		.loc 1 337 5 view .LVU223
 338:Drivers/CMSIS/DSP/Source/TransformFunctions/arm_cfft_f32.c **** 
 339:Drivers/CMSIS/DSP/Source/TransformFunctions/arm_cfft_f32.c ****     // TOP
 340:Drivers/CMSIS/DSP/Source/TransformFunctions/arm_cfft_f32.c ****     p1ap3_0 = p1[0] + p3[0];
 537              		.loc 1 340 5 view .LVU224
 538              		.loc 1 340 17 is_stmt 0 view .LVU225
 539 003a 92ED007A 		vldr.32	s14, [r2]
 540              		.loc 1 340 25 view .LVU226
 541 003e A4F10408 		sub	r8, r4, #4
 542              	.LVL76:
 543              		.loc 1 340 25 view .LVU227
 544 0042 D4ED007A 		vldr.32	s15, [r4]
 545              		.loc 1 340 13 view .LVU228
 546 0046 37EE272A 		vadd.f32	s4, s14, s15
 547              	.LVL77:
 341:Drivers/CMSIS/DSP/Source/TransformFunctions/arm_cfft_f32.c ****     p1sp3_0 = p1[0] - p3[0];
 548              		.loc 1 341 5 is_stmt 1 view .LVU229
 549              		.loc 1 341 13 is_stmt 0 view .LVU230
 550 004a 37EE677A 		vsub.f32	s14, s14, s15
 551              	.LVL78:
 342:Drivers/CMSIS/DSP/Source/TransformFunctions/arm_cfft_f32.c ****     p1ap3_1 = p1[1] + p3[1];
 552              		.loc 1 342 5 is_stmt 1 view .LVU231
 553              		.loc 1 342 17 is_stmt 0 view .LVU232
 554 004e D2ED017A 		vldr.32	s15, [r2, #4]
 555              		.loc 1 342 25 view .LVU233
 556 0052 2046     		mov	r0, r4
 557              	.LVL79:
 558              		.loc 1 342 25 view .LVU234
 559 0054 D4ED016A 		vldr.32	s13, [r4, #4]
 560              		.loc 1 342 13 view .LVU235
 561 0058 77EEA62A 		vadd.f32	s5, s15, s13
 562              	.LVL80:
 343:Drivers/CMSIS/DSP/Source/TransformFunctions/arm_cfft_f32.c ****     p1sp3_1 = p1[1] - p3[1];
 563              		.loc 1 343 5 is_stmt 1 view .LVU236
 564              		.loc 1 343 13 is_stmt 0 view .LVU237
 565 005c 77EEE67A 		vsub.f32	s15, s15, s13
ARM GAS  /var/folders/n6/c271nzx11xl4r4_m7sqjlt0m0000gn/T//ccyMl37L.s 			page 17


 566              	.LVL81:
 344:Drivers/CMSIS/DSP/Source/TransformFunctions/arm_cfft_f32.c **** 
 345:Drivers/CMSIS/DSP/Source/TransformFunctions/arm_cfft_f32.c ****     // col 2
 346:Drivers/CMSIS/DSP/Source/TransformFunctions/arm_cfft_f32.c ****     t2[0] = p1sp3_0 + p2[1] - p4[1];
 567              		.loc 1 346 5 is_stmt 1 view .LVU238
 568              		.loc 1 346 25 is_stmt 0 view .LVU239
 569 0060 96ED013A 		vldr.32	s6, [r6, #4]
 570              		.loc 1 346 21 view .LVU240
 571 0064 73EE073A 		vadd.f32	s7, s6, s14
 572              		.loc 1 346 33 view .LVU241
 573 0068 D5ED016A 		vldr.32	s13, [r5, #4]
 574              		.loc 1 346 29 view .LVU242
 575 006c 73EEE63A 		vsub.f32	s7, s7, s13
 576              		.loc 1 346 11 view .LVU243
 577 0070 CDED103A 		vstr.32	s7, [sp, #64]
 347:Drivers/CMSIS/DSP/Source/TransformFunctions/arm_cfft_f32.c ****     t2[1] = p1sp3_1 - p2[0] + p4[0];
 578              		.loc 1 347 5 is_stmt 1 view .LVU244
 579              		.loc 1 347 25 is_stmt 0 view .LVU245
 580 0074 D6ED005A 		vldr.32	s11, [r6]
 581              		.loc 1 347 21 view .LVU246
 582 0078 37EEE54A 		vsub.f32	s8, s15, s11
 583              		.loc 1 347 33 view .LVU247
 584 007c 95ED006A 		vldr.32	s12, [r5]
 585              		.loc 1 347 29 view .LVU248
 586 0080 34EE064A 		vadd.f32	s8, s8, s12
 587              		.loc 1 347 11 view .LVU249
 588 0084 8DED114A 		vstr.32	s8, [sp, #68]
 348:Drivers/CMSIS/DSP/Source/TransformFunctions/arm_cfft_f32.c ****     // col 3
 349:Drivers/CMSIS/DSP/Source/TransformFunctions/arm_cfft_f32.c ****     t3[0] = p1ap3_0 - p2[0] - p4[0];
 589              		.loc 1 349 5 is_stmt 1 view .LVU250
 590              		.loc 1 349 21 is_stmt 0 view .LVU251
 591 0088 72EE654A 		vsub.f32	s9, s4, s11
 592              		.loc 1 349 29 view .LVU252
 593 008c 74EEC64A 		vsub.f32	s9, s9, s12
 594              		.loc 1 349 11 view .LVU253
 595 0090 CDED0C4A 		vstr.32	s9, [sp, #48]
 350:Drivers/CMSIS/DSP/Source/TransformFunctions/arm_cfft_f32.c ****     t3[1] = p1ap3_1 - p2[1] - p4[1];
 596              		.loc 1 350 5 is_stmt 1 view .LVU254
 597              		.loc 1 350 21 is_stmt 0 view .LVU255
 598 0094 32EEC35A 		vsub.f32	s10, s5, s6
 599              		.loc 1 350 29 view .LVU256
 600 0098 35EE665A 		vsub.f32	s10, s10, s13
 601              		.loc 1 350 11 view .LVU257
 602 009c 8DED0D5A 		vstr.32	s10, [sp, #52]
 351:Drivers/CMSIS/DSP/Source/TransformFunctions/arm_cfft_f32.c ****     // col 4
 352:Drivers/CMSIS/DSP/Source/TransformFunctions/arm_cfft_f32.c ****     t4[0] = p1sp3_0 - p2[1] + p4[1];
 603              		.loc 1 352 5 is_stmt 1 view .LVU258
 604              		.loc 1 352 21 is_stmt 0 view .LVU259
 605 00a0 37EE437A 		vsub.f32	s14, s14, s6
 606              	.LVL82:
 607              		.loc 1 352 29 view .LVU260
 608 00a4 76EE876A 		vadd.f32	s13, s13, s14
 609              		.loc 1 352 11 view .LVU261
 610 00a8 CDED086A 		vstr.32	s13, [sp, #32]
 353:Drivers/CMSIS/DSP/Source/TransformFunctions/arm_cfft_f32.c ****     t4[1] = p1sp3_1 + p2[0] - p4[0];
 611              		.loc 1 353 5 is_stmt 1 view .LVU262
 612              		.loc 1 353 21 is_stmt 0 view .LVU263
ARM GAS  /var/folders/n6/c271nzx11xl4r4_m7sqjlt0m0000gn/T//ccyMl37L.s 			page 18


 613 00ac 75EEA77A 		vadd.f32	s15, s11, s15
 614              	.LVL83:
 615              		.loc 1 353 29 view .LVU264
 616 00b0 77EEC67A 		vsub.f32	s15, s15, s12
 617              		.loc 1 353 11 view .LVU265
 618 00b4 CDED097A 		vstr.32	s15, [sp, #36]
 354:Drivers/CMSIS/DSP/Source/TransformFunctions/arm_cfft_f32.c ****     // col 1
 355:Drivers/CMSIS/DSP/Source/TransformFunctions/arm_cfft_f32.c ****     *p1++ = p1ap3_0 + p2[0] + p4[0];
 619              		.loc 1 355 5 is_stmt 1 view .LVU266
 620              		.loc 1 355 21 is_stmt 0 view .LVU267
 621 00b8 75EE825A 		vadd.f32	s11, s11, s4
 622              	.LVL84:
 623              		.loc 1 355 29 view .LVU268
 624 00bc 36EE256A 		vadd.f32	s12, s12, s11
 625              		.loc 1 355 11 view .LVU269
 626 00c0 02F10809 		add	r9, r2, #8
 627 00c4 82ED006A 		vstr.32	s12, [r2]
 628              	.LVL85:
 356:Drivers/CMSIS/DSP/Source/TransformFunctions/arm_cfft_f32.c ****     *p1++ = p1ap3_1 + p2[1] + p4[1];
 629              		.loc 1 356 5 is_stmt 1 view .LVU270
 630              		.loc 1 356 25 is_stmt 0 view .LVU271
 631 00c8 96ED017A 		vldr.32	s14, [r6, #4]
 632              		.loc 1 356 21 view .LVU272
 633 00cc 37EE227A 		vadd.f32	s14, s14, s5
 634              		.loc 1 356 33 view .LVU273
 635 00d0 95ED016A 		vldr.32	s12, [r5, #4]
 636              	.LVL86:
 637              		.loc 1 356 29 view .LVU274
 638 00d4 37EE067A 		vadd.f32	s14, s14, s12
 639              		.loc 1 356 11 view .LVU275
 640 00d8 82ED017A 		vstr.32	s14, [r2, #4]
 357:Drivers/CMSIS/DSP/Source/TransformFunctions/arm_cfft_f32.c **** 
 358:Drivers/CMSIS/DSP/Source/TransformFunctions/arm_cfft_f32.c ****     // Twiddle factors are ones
 359:Drivers/CMSIS/DSP/Source/TransformFunctions/arm_cfft_f32.c ****     *p2++ = t2[0];
 641              		.loc 1 359 5 is_stmt 1 view .LVU276
 642              	.LVL87:
 643              		.loc 1 359 11 is_stmt 0 view .LVU277
 644 00dc 3246     		mov	r2, r6
 645              	.LVL88:
 646              		.loc 1 359 11 view .LVU278
 647 00de 0832     		adds	r2, r2, #8
 648 00e0 C6ED003A 		vstr.32	s7, [r6]
 360:Drivers/CMSIS/DSP/Source/TransformFunctions/arm_cfft_f32.c ****     *p2++ = t2[1];
 649              		.loc 1 360 5 is_stmt 1 view .LVU279
 650              	.LVL89:
 651              		.loc 1 360 11 is_stmt 0 view .LVU280
 652 00e4 86ED014A 		vstr.32	s8, [r6, #4]
 361:Drivers/CMSIS/DSP/Source/TransformFunctions/arm_cfft_f32.c ****     *p3++ = t3[0];
 653              		.loc 1 361 5 is_stmt 1 view .LVU281
 654              	.LVL90:
 655              		.loc 1 361 11 is_stmt 0 view .LVU282
 656 00e8 0830     		adds	r0, r0, #8
 657 00ea C4ED004A 		vstr.32	s9, [r4]
 362:Drivers/CMSIS/DSP/Source/TransformFunctions/arm_cfft_f32.c ****     *p3++ = t3[1];
 658              		.loc 1 362 5 is_stmt 1 view .LVU283
 659              	.LVL91:
 660              		.loc 1 362 11 is_stmt 0 view .LVU284
ARM GAS  /var/folders/n6/c271nzx11xl4r4_m7sqjlt0m0000gn/T//ccyMl37L.s 			page 19


 661 00ee 84ED015A 		vstr.32	s10, [r4, #4]
 363:Drivers/CMSIS/DSP/Source/TransformFunctions/arm_cfft_f32.c ****     *p4++ = t4[0];
 662              		.loc 1 363 5 is_stmt 1 view .LVU285
 663              	.LVL92:
 664              		.loc 1 363 11 is_stmt 0 view .LVU286
 665 00f2 2B46     		mov	r3, r5
 666              	.LVL93:
 667              		.loc 1 363 11 view .LVU287
 668 00f4 0833     		adds	r3, r3, #8
 669 00f6 C5ED006A 		vstr.32	s13, [r5]
 364:Drivers/CMSIS/DSP/Source/TransformFunctions/arm_cfft_f32.c ****     *p4++ = t4[1];
 670              		.loc 1 364 5 is_stmt 1 view .LVU288
 671              	.LVL94:
 672              		.loc 1 364 11 is_stmt 0 view .LVU289
 673 00fa C5ED017A 		vstr.32	s15, [r5, #4]
 365:Drivers/CMSIS/DSP/Source/TransformFunctions/arm_cfft_f32.c **** 
 366:Drivers/CMSIS/DSP/Source/TransformFunctions/arm_cfft_f32.c ****     tw2 += twMod2;
 674              		.loc 1 366 5 is_stmt 1 view .LVU290
 675              		.loc 1 366 9 is_stmt 0 view .LVU291
 676 00fe 0EF1080A 		add	r10, lr, #8
 677              	.LVL95:
 367:Drivers/CMSIS/DSP/Source/TransformFunctions/arm_cfft_f32.c ****     tw3 += twMod3;
 678              		.loc 1 367 5 is_stmt 1 view .LVU292
 679              		.loc 1 367 9 is_stmt 0 view .LVU293
 680 0102 0EF11004 		add	r4, lr, #16
 681              	.LVL96:
 368:Drivers/CMSIS/DSP/Source/TransformFunctions/arm_cfft_f32.c ****     tw4 += twMod4;
 682              		.loc 1 368 5 is_stmt 1 view .LVU294
 683              		.loc 1 368 9 is_stmt 0 view .LVU295
 684 0106 0EF1180E 		add	lr, lr, #24
 685              	.LVL97:
 369:Drivers/CMSIS/DSP/Source/TransformFunctions/arm_cfft_f32.c **** 
 370:Drivers/CMSIS/DSP/Source/TransformFunctions/arm_cfft_f32.c ****     for (l = (L - 2) >> 1; l > 0; l-- )
 686              		.loc 1 370 5 is_stmt 1 view .LVU296
 687              		.loc 1 370 17 is_stmt 0 view .LVU297
 688 010a A7F1020B 		sub	fp, r7, #2
 689              		.loc 1 370 12 view .LVU298
 690 010e 4FEA5B0B 		lsr	fp, fp, #1
 691              	.LVL98:
 692              		.loc 1 370 12 view .LVU299
 693 0112 019F     		ldr	r7, [sp, #4]
 694              	.LVL99:
 695              		.loc 1 370 12 view .LVU300
 696 0114 0696     		str	r6, [sp, #24]
 697 0116 0795     		str	r5, [sp, #28]
 698              		.loc 1 370 5 view .LVU301
 699 0118 23E1     		b	.L6
 700              	.LVL100:
 701              	.L7:
 371:Drivers/CMSIS/DSP/Source/TransformFunctions/arm_cfft_f32.c ****     {
 372:Drivers/CMSIS/DSP/Source/TransformFunctions/arm_cfft_f32.c ****         // TOP
 373:Drivers/CMSIS/DSP/Source/TransformFunctions/arm_cfft_f32.c ****         p1ap3_0 = p1[0] + p3[0];
 702              		.loc 1 373 9 is_stmt 1 view .LVU302
 703              		.loc 1 373 21 is_stmt 0 view .LVU303
 704 011a 99ED007A 		vldr.32	s14, [r9]
 705              		.loc 1 373 29 view .LVU304
 706 011e D0ED007A 		vldr.32	s15, [r0]
ARM GAS  /var/folders/n6/c271nzx11xl4r4_m7sqjlt0m0000gn/T//ccyMl37L.s 			page 20


 707              		.loc 1 373 17 view .LVU305
 708 0122 77EE273A 		vadd.f32	s7, s14, s15
 709              	.LVL101:
 374:Drivers/CMSIS/DSP/Source/TransformFunctions/arm_cfft_f32.c ****         p1sp3_0 = p1[0] - p3[0];
 710              		.loc 1 374 9 is_stmt 1 view .LVU306
 711              		.loc 1 374 17 is_stmt 0 view .LVU307
 712 0126 37EE677A 		vsub.f32	s14, s14, s15
 713              	.LVL102:
 375:Drivers/CMSIS/DSP/Source/TransformFunctions/arm_cfft_f32.c ****         p1ap3_1 = p1[1] + p3[1];
 714              		.loc 1 375 9 is_stmt 1 view .LVU308
 715              		.loc 1 375 21 is_stmt 0 view .LVU309
 716 012a D9ED017A 		vldr.32	s15, [r9, #4]
 717              		.loc 1 375 29 view .LVU310
 718 012e D0ED016A 		vldr.32	s13, [r0, #4]
 719              		.loc 1 375 17 view .LVU311
 720 0132 37EEA64A 		vadd.f32	s8, s15, s13
 721              	.LVL103:
 376:Drivers/CMSIS/DSP/Source/TransformFunctions/arm_cfft_f32.c ****         p1sp3_1 = p1[1] - p3[1];
 722              		.loc 1 376 9 is_stmt 1 view .LVU312
 723              		.loc 1 376 17 is_stmt 0 view .LVU313
 724 0136 77EEE67A 		vsub.f32	s15, s15, s13
 725              	.LVL104:
 377:Drivers/CMSIS/DSP/Source/TransformFunctions/arm_cfft_f32.c ****         // col 2
 378:Drivers/CMSIS/DSP/Source/TransformFunctions/arm_cfft_f32.c ****         t2[0] = p1sp3_0 + p2[1] - p4[1];
 726              		.loc 1 378 9 is_stmt 1 view .LVU314
 727              		.loc 1 378 29 is_stmt 0 view .LVU315
 728 013a D2ED014A 		vldr.32	s9, [r2, #4]
 729              		.loc 1 378 25 view .LVU316
 730 013e 34EE872A 		vadd.f32	s4, s9, s14
 731              		.loc 1 378 37 view .LVU317
 732 0142 93ED013A 		vldr.32	s6, [r3, #4]
 733              		.loc 1 378 33 view .LVU318
 734 0146 32EE432A 		vsub.f32	s4, s4, s6
 735              		.loc 1 378 15 view .LVU319
 736 014a 8DED102A 		vstr.32	s4, [sp, #64]
 379:Drivers/CMSIS/DSP/Source/TransformFunctions/arm_cfft_f32.c ****         t2[1] = p1sp3_1 - p2[0] + p4[0];
 737              		.loc 1 379 9 is_stmt 1 view .LVU320
 738              		.loc 1 379 29 is_stmt 0 view .LVU321
 739 014e 92ED006A 		vldr.32	s12, [r2]
 740              		.loc 1 379 25 view .LVU322
 741 0152 77EEC65A 		vsub.f32	s11, s15, s12
 742              		.loc 1 379 37 view .LVU323
 743 0156 D3ED006A 		vldr.32	s13, [r3]
 744              		.loc 1 379 33 view .LVU324
 745 015a 75EEA65A 		vadd.f32	s11, s11, s13
 746              		.loc 1 379 15 view .LVU325
 747 015e CDED115A 		vstr.32	s11, [sp, #68]
 380:Drivers/CMSIS/DSP/Source/TransformFunctions/arm_cfft_f32.c ****         // col 3
 381:Drivers/CMSIS/DSP/Source/TransformFunctions/arm_cfft_f32.c ****         t3[0] = p1ap3_0 - p2[0] - p4[0];
 748              		.loc 1 381 9 is_stmt 1 view .LVU326
 749              		.loc 1 381 25 is_stmt 0 view .LVU327
 750 0162 73EEC62A 		vsub.f32	s5, s7, s12
 751              		.loc 1 381 33 view .LVU328
 752 0166 72EEE62A 		vsub.f32	s5, s5, s13
 753              		.loc 1 381 15 view .LVU329
 754 016a CDED0C2A 		vstr.32	s5, [sp, #48]
 382:Drivers/CMSIS/DSP/Source/TransformFunctions/arm_cfft_f32.c ****         t3[1] = p1ap3_1 - p2[1] - p4[1];
ARM GAS  /var/folders/n6/c271nzx11xl4r4_m7sqjlt0m0000gn/T//ccyMl37L.s 			page 21


 755              		.loc 1 382 9 is_stmt 1 view .LVU330
 756              		.loc 1 382 25 is_stmt 0 view .LVU331
 757 016e 34EE645A 		vsub.f32	s10, s8, s9
 758              		.loc 1 382 33 view .LVU332
 759 0172 35EE435A 		vsub.f32	s10, s10, s6
 760              		.loc 1 382 15 view .LVU333
 761 0176 8DED0D5A 		vstr.32	s10, [sp, #52]
 383:Drivers/CMSIS/DSP/Source/TransformFunctions/arm_cfft_f32.c ****         // col 4
 384:Drivers/CMSIS/DSP/Source/TransformFunctions/arm_cfft_f32.c ****         t4[0] = p1sp3_0 - p2[1] + p4[1];
 762              		.loc 1 384 9 is_stmt 1 view .LVU334
 763              		.loc 1 384 25 is_stmt 0 view .LVU335
 764 017a 37EE647A 		vsub.f32	s14, s14, s9
 765              	.LVL105:
 766              		.loc 1 384 33 view .LVU336
 767 017e 33EE073A 		vadd.f32	s6, s6, s14
 768              		.loc 1 384 15 view .LVU337
 769 0182 8DED083A 		vstr.32	s6, [sp, #32]
 385:Drivers/CMSIS/DSP/Source/TransformFunctions/arm_cfft_f32.c ****         t4[1] = p1sp3_1 + p2[0] - p4[0];
 770              		.loc 1 385 9 is_stmt 1 view .LVU338
 771              		.loc 1 385 25 is_stmt 0 view .LVU339
 772 0186 76EE277A 		vadd.f32	s15, s12, s15
 773              	.LVL106:
 774              		.loc 1 385 33 view .LVU340
 775 018a 77EEE67A 		vsub.f32	s15, s15, s13
 776              		.loc 1 385 15 view .LVU341
 777 018e CDED097A 		vstr.32	s15, [sp, #36]
 386:Drivers/CMSIS/DSP/Source/TransformFunctions/arm_cfft_f32.c ****         // col 1 - top
 387:Drivers/CMSIS/DSP/Source/TransformFunctions/arm_cfft_f32.c ****         *p1++ = p1ap3_0 + p2[0] + p4[0];
 778              		.loc 1 387 9 is_stmt 1 view .LVU342
 779              		.loc 1 387 25 is_stmt 0 view .LVU343
 780 0192 36EE236A 		vadd.f32	s12, s12, s7
 781              	.LVL107:
 782              		.loc 1 387 33 view .LVU344
 783 0196 76EE866A 		vadd.f32	s13, s13, s12
 784              		.loc 1 387 15 view .LVU345
 785 019a 4D46     		mov	r5, r9
 786 019c 0835     		adds	r5, r5, #8
 787 019e C9ED006A 		vstr.32	s13, [r9]
 788              	.LVL108:
 789              		.loc 1 387 15 view .LVU346
 790 01a2 0195     		str	r5, [sp, #4]
 388:Drivers/CMSIS/DSP/Source/TransformFunctions/arm_cfft_f32.c ****         *p1++ = p1ap3_1 + p2[1] + p4[1];
 791              		.loc 1 388 9 is_stmt 1 view .LVU347
 792              		.loc 1 388 29 is_stmt 0 view .LVU348
 793 01a4 92ED017A 		vldr.32	s14, [r2, #4]
 794              		.loc 1 388 25 view .LVU349
 795 01a8 37EE047A 		vadd.f32	s14, s14, s8
 796              		.loc 1 388 37 view .LVU350
 797 01ac D3ED016A 		vldr.32	s13, [r3, #4]
 798              	.LVL109:
 799              		.loc 1 388 33 view .LVU351
 800 01b0 37EE267A 		vadd.f32	s14, s14, s13
 801              		.loc 1 388 15 view .LVU352
 802 01b4 89ED017A 		vstr.32	s14, [r9, #4]
 389:Drivers/CMSIS/DSP/Source/TransformFunctions/arm_cfft_f32.c **** 
 390:Drivers/CMSIS/DSP/Source/TransformFunctions/arm_cfft_f32.c ****         // BOTTOM
 391:Drivers/CMSIS/DSP/Source/TransformFunctions/arm_cfft_f32.c ****         p1ap3_1 = pEnd1[-1] + pEnd3[-1];
ARM GAS  /var/folders/n6/c271nzx11xl4r4_m7sqjlt0m0000gn/T//ccyMl37L.s 			page 22


 803              		.loc 1 391 9 is_stmt 1 view .LVU353
 804              		.loc 1 391 24 is_stmt 0 view .LVU354
 805 01b8 17ED010A 		vldr.32	s0, [r7, #-4]
 806              		.loc 1 391 36 view .LVU355
 807 01bc 1CED017A 		vldr.32	s14, [ip, #-4]
 808              		.loc 1 391 17 view .LVU356
 809 01c0 70EE078A 		vadd.f32	s17, s0, s14
 810              	.LVL110:
 392:Drivers/CMSIS/DSP/Source/TransformFunctions/arm_cfft_f32.c ****         p1sp3_1 = pEnd1[-1] - pEnd3[-1];
 811              		.loc 1 392 9 is_stmt 1 view .LVU357
 812              		.loc 1 392 17 is_stmt 0 view .LVU358
 813 01c4 30EE470A 		vsub.f32	s0, s0, s14
 814              	.LVL111:
 393:Drivers/CMSIS/DSP/Source/TransformFunctions/arm_cfft_f32.c ****         p1ap3_0 = pEnd1[0] + pEnd3[0];
 815              		.loc 1 393 9 is_stmt 1 view .LVU359
 816              		.loc 1 393 24 is_stmt 0 view .LVU360
 817 01c8 D7ED000A 		vldr.32	s1, [r7]
 818              		.loc 1 393 35 view .LVU361
 819 01cc 9CED007A 		vldr.32	s14, [ip]
 820              		.loc 1 393 17 view .LVU362
 821 01d0 30EE879A 		vadd.f32	s18, s1, s14
 822              	.LVL112:
 394:Drivers/CMSIS/DSP/Source/TransformFunctions/arm_cfft_f32.c ****         p1sp3_0 = pEnd1[0] - pEnd3[0];
 823              		.loc 1 394 9 is_stmt 1 view .LVU363
 824              		.loc 1 394 17 is_stmt 0 view .LVU364
 825 01d4 70EEC70A 		vsub.f32	s1, s1, s14
 826              	.LVL113:
 395:Drivers/CMSIS/DSP/Source/TransformFunctions/arm_cfft_f32.c ****         // col 2
 396:Drivers/CMSIS/DSP/Source/TransformFunctions/arm_cfft_f32.c ****         t2[2] = pEnd2[0]  - pEnd4[0] + p1sp3_1;
 827              		.loc 1 396 9 is_stmt 1 view .LVU365
 828              		.loc 1 396 22 is_stmt 0 view .LVU366
 829 01d8 98ED001A 		vldr.32	s2, [r8]
 830              		.loc 1 396 34 view .LVU367
 831 01dc D1ED001A 		vldr.32	s3, [r1]
 832              		.loc 1 396 27 view .LVU368
 833 01e0 71EE616A 		vsub.f32	s13, s2, s3
 834              		.loc 1 396 38 view .LVU369
 835 01e4 36EE804A 		vadd.f32	s8, s13, s0
 836              		.loc 1 396 15 view .LVU370
 837 01e8 8DED124A 		vstr.32	s8, [sp, #72]
 397:Drivers/CMSIS/DSP/Source/TransformFunctions/arm_cfft_f32.c ****         t2[3] = pEnd1[0] - pEnd3[0] - pEnd2[-1] + pEnd4[-1];
 838              		.loc 1 397 9 is_stmt 1 view .LVU371
 839              		.loc 1 397 44 is_stmt 0 view .LVU372
 840 01ec 18ED018A 		vldr.32	s16, [r8, #-4]
 841              		.loc 1 397 37 view .LVU373
 842 01f0 70EEC83A 		vsub.f32	s7, s1, s16
 843              		.loc 1 397 56 view .LVU374
 844 01f4 11ED017A 		vldr.32	s14, [r1, #-4]
 845              		.loc 1 397 49 view .LVU375
 846 01f8 73EE873A 		vadd.f32	s7, s7, s14
 847              		.loc 1 397 15 view .LVU376
 848 01fc CDED133A 		vstr.32	s7, [sp, #76]
 398:Drivers/CMSIS/DSP/Source/TransformFunctions/arm_cfft_f32.c ****         // col 3
 399:Drivers/CMSIS/DSP/Source/TransformFunctions/arm_cfft_f32.c ****         t3[2] = p1ap3_1 - pEnd2[-1] - pEnd4[-1];
 849              		.loc 1 399 9 is_stmt 1 view .LVU377
 850              		.loc 1 399 25 is_stmt 0 view .LVU378
 851 0200 78EEC84A 		vsub.f32	s9, s17, s16
ARM GAS  /var/folders/n6/c271nzx11xl4r4_m7sqjlt0m0000gn/T//ccyMl37L.s 			page 23


 852              		.loc 1 399 37 view .LVU379
 853 0204 74EEC74A 		vsub.f32	s9, s9, s14
 854              		.loc 1 399 15 view .LVU380
 855 0208 CDED0E4A 		vstr.32	s9, [sp, #56]
 400:Drivers/CMSIS/DSP/Source/TransformFunctions/arm_cfft_f32.c ****         t3[3] = p1ap3_0 - pEnd2[0]  - pEnd4[0];
 856              		.loc 1 400 9 is_stmt 1 view .LVU381
 857              		.loc 1 400 25 is_stmt 0 view .LVU382
 858 020c 39EE416A 		vsub.f32	s12, s18, s2
 859              		.loc 1 400 37 view .LVU383
 860 0210 36EE616A 		vsub.f32	s12, s12, s3
 861              		.loc 1 400 15 view .LVU384
 862 0214 8DED0F6A 		vstr.32	s12, [sp, #60]
 401:Drivers/CMSIS/DSP/Source/TransformFunctions/arm_cfft_f32.c ****         // col 4
 402:Drivers/CMSIS/DSP/Source/TransformFunctions/arm_cfft_f32.c ****         t4[2] = pEnd2[0]  - pEnd4[0]  - p1sp3_1;
 863              		.loc 1 402 9 is_stmt 1 view .LVU385
 864              		.loc 1 402 39 is_stmt 0 view .LVU386
 865 0218 76EEC06A 		vsub.f32	s13, s13, s0
 866              		.loc 1 402 15 view .LVU387
 867 021c CDED0A6A 		vstr.32	s13, [sp, #40]
 403:Drivers/CMSIS/DSP/Source/TransformFunctions/arm_cfft_f32.c ****         t4[3] = pEnd4[-1] - pEnd2[-1] - p1sp3_0;
 868              		.loc 1 403 9 is_stmt 1 view .LVU388
 869              		.loc 1 403 27 is_stmt 0 view .LVU389
 870 0220 37EE487A 		vsub.f32	s14, s14, s16
 871              		.loc 1 403 39 view .LVU390
 872 0224 37EE607A 		vsub.f32	s14, s14, s1
 873              		.loc 1 403 15 view .LVU391
 874 0228 8DED0B7A 		vstr.32	s14, [sp, #44]
 404:Drivers/CMSIS/DSP/Source/TransformFunctions/arm_cfft_f32.c ****         // col 1 - Bottom
 405:Drivers/CMSIS/DSP/Source/TransformFunctions/arm_cfft_f32.c ****         *pEnd1-- = p1ap3_0 + pEnd2[0] + pEnd4[0];
 875              		.loc 1 405 9 is_stmt 1 view .LVU392
 876              		.loc 1 405 28 is_stmt 0 view .LVU393
 877 022c 31EE091A 		vadd.f32	s2, s2, s18
 878              	.LVL114:
 879              		.loc 1 405 39 view .LVU394
 880 0230 71EE811A 		vadd.f32	s3, s3, s2
 881              		.loc 1 405 18 view .LVU395
 882 0234 A7F10805 		sub	r5, r7, #8
 883              	.LVL115:
 884              		.loc 1 405 18 view .LVU396
 885 0238 C7ED001A 		vstr.32	s3, [r7]
 406:Drivers/CMSIS/DSP/Source/TransformFunctions/arm_cfft_f32.c ****         *pEnd1-- = p1ap3_1 + pEnd2[-1] + pEnd4[-1];
 886              		.loc 1 406 9 is_stmt 1 view .LVU397
 887              		.loc 1 406 35 is_stmt 0 view .LVU398
 888 023c 58ED011A 		vldr.32	s3, [r8, #-4]
 889              		.loc 1 406 28 view .LVU399
 890 0240 71EEA81A 		vadd.f32	s3, s3, s17
 891              		.loc 1 406 47 view .LVU400
 892 0244 11ED011A 		vldr.32	s2, [r1, #-4]
 893              	.LVL116:
 894              		.loc 1 406 40 view .LVU401
 895 0248 71EE811A 		vadd.f32	s3, s3, s2
 896              		.loc 1 406 18 view .LVU402
 897 024c 47ED011A 		vstr.32	s3, [r7, #-4]
 407:Drivers/CMSIS/DSP/Source/TransformFunctions/arm_cfft_f32.c **** 
 408:Drivers/CMSIS/DSP/Source/TransformFunctions/arm_cfft_f32.c ****         // COL 2
 409:Drivers/CMSIS/DSP/Source/TransformFunctions/arm_cfft_f32.c ****         // read twiddle factors
 410:Drivers/CMSIS/DSP/Source/TransformFunctions/arm_cfft_f32.c ****         twR = *tw2++;
ARM GAS  /var/folders/n6/c271nzx11xl4r4_m7sqjlt0m0000gn/T//ccyMl37L.s 			page 24


 898              		.loc 1 410 9 is_stmt 1 view .LVU403
 899              	.LVL117:
 900              		.loc 1 410 13 is_stmt 0 view .LVU404
 901 0250 0AF10809 		add	r9, r10, #8
 902 0254 DAED001A 		vldr.32	s3, [r10]
 903              	.LVL118:
 411:Drivers/CMSIS/DSP/Source/TransformFunctions/arm_cfft_f32.c ****         twI = *tw2++;
 904              		.loc 1 411 9 is_stmt 1 view .LVU405
 905              		.loc 1 411 13 is_stmt 0 view .LVU406
 906 0258 9AED011A 		vldr.32	s2, [r10, #4]
 907              	.LVL119:
 412:Drivers/CMSIS/DSP/Source/TransformFunctions/arm_cfft_f32.c ****         // multiply by twiddle factors
 413:Drivers/CMSIS/DSP/Source/TransformFunctions/arm_cfft_f32.c ****         //  let    Z1 = a + i(b),   Z2 = c + i(d)
 414:Drivers/CMSIS/DSP/Source/TransformFunctions/arm_cfft_f32.c ****         //   =>  Z1 * Z2  =  (a*c - b*d) + i(b*c + a*d)
 415:Drivers/CMSIS/DSP/Source/TransformFunctions/arm_cfft_f32.c **** 
 416:Drivers/CMSIS/DSP/Source/TransformFunctions/arm_cfft_f32.c ****         // Top
 417:Drivers/CMSIS/DSP/Source/TransformFunctions/arm_cfft_f32.c ****         m0 = t2[0] * twR;
 908              		.loc 1 417 9 is_stmt 1 view .LVU407
 909              		.loc 1 417 12 is_stmt 0 view .LVU408
 910 025c 62EE210A 		vmul.f32	s1, s4, s3
 911              	.LVL120:
 418:Drivers/CMSIS/DSP/Source/TransformFunctions/arm_cfft_f32.c ****         m1 = t2[1] * twI;
 912              		.loc 1 418 9 is_stmt 1 view .LVU409
 913              		.loc 1 418 12 is_stmt 0 view .LVU410
 914 0260 25EE810A 		vmul.f32	s0, s11, s2
 915              	.LVL121:
 419:Drivers/CMSIS/DSP/Source/TransformFunctions/arm_cfft_f32.c ****         m2 = t2[1] * twR;
 916              		.loc 1 419 9 is_stmt 1 view .LVU411
 917              		.loc 1 419 12 is_stmt 0 view .LVU412
 918 0264 65EEA15A 		vmul.f32	s11, s11, s3
 919              	.LVL122:
 420:Drivers/CMSIS/DSP/Source/TransformFunctions/arm_cfft_f32.c ****         m3 = t2[0] * twI;
 920              		.loc 1 420 9 is_stmt 1 view .LVU413
 921              		.loc 1 420 12 is_stmt 0 view .LVU414
 922 0268 22EE012A 		vmul.f32	s4, s4, s2
 923              	.LVL123:
 421:Drivers/CMSIS/DSP/Source/TransformFunctions/arm_cfft_f32.c **** 
 422:Drivers/CMSIS/DSP/Source/TransformFunctions/arm_cfft_f32.c ****         *p2++ = m0 + m1;
 924              		.loc 1 422 9 is_stmt 1 view .LVU415
 925              		.loc 1 422 20 is_stmt 0 view .LVU416
 926 026c 70EE800A 		vadd.f32	s1, s1, s0
 927              	.LVL124:
 928              		.loc 1 422 15 view .LVU417
 929 0270 02F1080A 		add	r10, r2, #8
 930 0274 C2ED000A 		vstr.32	s1, [r2]
 423:Drivers/CMSIS/DSP/Source/TransformFunctions/arm_cfft_f32.c ****         *p2++ = m2 - m3;
 931              		.loc 1 423 9 is_stmt 1 view .LVU418
 932              	.LVL125:
 933              		.loc 1 423 20 is_stmt 0 view .LVU419
 934 0278 75EEC25A 		vsub.f32	s11, s11, s4
 935              	.LVL126:
 936              		.loc 1 423 15 view .LVU420
 937 027c C2ED015A 		vstr.32	s11, [r2, #4]
 424:Drivers/CMSIS/DSP/Source/TransformFunctions/arm_cfft_f32.c ****         // use vertical symmetry col 2
 425:Drivers/CMSIS/DSP/Source/TransformFunctions/arm_cfft_f32.c ****         // 0.9997 - 0.0245i  <==>  0.0245 - 0.9997i
 426:Drivers/CMSIS/DSP/Source/TransformFunctions/arm_cfft_f32.c ****         // Bottom
 427:Drivers/CMSIS/DSP/Source/TransformFunctions/arm_cfft_f32.c ****         m0 = t2[3] * twI;
ARM GAS  /var/folders/n6/c271nzx11xl4r4_m7sqjlt0m0000gn/T//ccyMl37L.s 			page 25


 938              		.loc 1 427 9 is_stmt 1 view .LVU421
 939              		.loc 1 427 12 is_stmt 0 view .LVU422
 940 0280 63EE815A 		vmul.f32	s11, s7, s2
 941              	.LVL127:
 428:Drivers/CMSIS/DSP/Source/TransformFunctions/arm_cfft_f32.c ****         m1 = t2[2] * twR;
 942              		.loc 1 428 9 is_stmt 1 view .LVU423
 943              		.loc 1 428 12 is_stmt 0 view .LVU424
 944 0284 24EE212A 		vmul.f32	s4, s8, s3
 945              	.LVL128:
 429:Drivers/CMSIS/DSP/Source/TransformFunctions/arm_cfft_f32.c ****         m2 = t2[2] * twI;
 946              		.loc 1 429 9 is_stmt 1 view .LVU425
 947              		.loc 1 429 12 is_stmt 0 view .LVU426
 948 0288 24EE014A 		vmul.f32	s8, s8, s2
 949              	.LVL129:
 430:Drivers/CMSIS/DSP/Source/TransformFunctions/arm_cfft_f32.c ****         m3 = t2[3] * twR;
 950              		.loc 1 430 9 is_stmt 1 view .LVU427
 951              		.loc 1 430 12 is_stmt 0 view .LVU428
 952 028c 63EEA13A 		vmul.f32	s7, s7, s3
 953              	.LVL130:
 431:Drivers/CMSIS/DSP/Source/TransformFunctions/arm_cfft_f32.c **** 
 432:Drivers/CMSIS/DSP/Source/TransformFunctions/arm_cfft_f32.c ****         *pEnd2-- = m0 - m1;
 954              		.loc 1 432 9 is_stmt 1 view .LVU429
 955              		.loc 1 432 23 is_stmt 0 view .LVU430
 956 0290 75EEC25A 		vsub.f32	s11, s11, s4
 957              	.LVL131:
 958              		.loc 1 432 18 view .LVU431
 959 0294 A8F10806 		sub	r6, r8, #8
 960 0298 C8ED005A 		vstr.32	s11, [r8]
 433:Drivers/CMSIS/DSP/Source/TransformFunctions/arm_cfft_f32.c ****         *pEnd2-- = m2 + m3;
 961              		.loc 1 433 9 is_stmt 1 view .LVU432
 962              	.LVL132:
 963              		.loc 1 433 23 is_stmt 0 view .LVU433
 964 029c 34EE234A 		vadd.f32	s8, s8, s7
 965              	.LVL133:
 966              		.loc 1 433 18 view .LVU434
 967 02a0 08ED014A 		vstr.32	s8, [r8, #-4]
 434:Drivers/CMSIS/DSP/Source/TransformFunctions/arm_cfft_f32.c **** 
 435:Drivers/CMSIS/DSP/Source/TransformFunctions/arm_cfft_f32.c ****         // COL 3
 436:Drivers/CMSIS/DSP/Source/TransformFunctions/arm_cfft_f32.c ****         twR = tw3[0];
 968              		.loc 1 436 9 is_stmt 1 view .LVU435
 969              		.loc 1 436 13 is_stmt 0 view .LVU436
 970 02a4 94ED004A 		vldr.32	s8, [r4]
 971              	.LVL134:
 437:Drivers/CMSIS/DSP/Source/TransformFunctions/arm_cfft_f32.c ****         twI = tw3[1];
 972              		.loc 1 437 9 is_stmt 1 view .LVU437
 973              		.loc 1 437 13 is_stmt 0 view .LVU438
 974 02a8 D4ED015A 		vldr.32	s11, [r4, #4]
 975              	.LVL135:
 438:Drivers/CMSIS/DSP/Source/TransformFunctions/arm_cfft_f32.c ****         tw3 += twMod3;
 976              		.loc 1 438 9 is_stmt 1 view .LVU439
 977              		.loc 1 438 13 is_stmt 0 view .LVU440
 978 02ac 1034     		adds	r4, r4, #16
 979              	.LVL136:
 439:Drivers/CMSIS/DSP/Source/TransformFunctions/arm_cfft_f32.c ****         // Top
 440:Drivers/CMSIS/DSP/Source/TransformFunctions/arm_cfft_f32.c ****         m0 = t3[0] * twR;
 980              		.loc 1 440 9 is_stmt 1 view .LVU441
 981              		.loc 1 440 12 is_stmt 0 view .LVU442
ARM GAS  /var/folders/n6/c271nzx11xl4r4_m7sqjlt0m0000gn/T//ccyMl37L.s 			page 26


 982 02ae 62EE843A 		vmul.f32	s7, s5, s8
 983              	.LVL137:
 441:Drivers/CMSIS/DSP/Source/TransformFunctions/arm_cfft_f32.c ****         m1 = t3[1] * twI;
 984              		.loc 1 441 9 is_stmt 1 view .LVU443
 985              		.loc 1 441 12 is_stmt 0 view .LVU444
 986 02b2 25EE252A 		vmul.f32	s4, s10, s11
 987              	.LVL138:
 442:Drivers/CMSIS/DSP/Source/TransformFunctions/arm_cfft_f32.c ****         m2 = t3[1] * twR;
 988              		.loc 1 442 9 is_stmt 1 view .LVU445
 989              		.loc 1 442 12 is_stmt 0 view .LVU446
 990 02b6 25EE045A 		vmul.f32	s10, s10, s8
 991              	.LVL139:
 443:Drivers/CMSIS/DSP/Source/TransformFunctions/arm_cfft_f32.c ****         m3 = t3[0] * twI;
 992              		.loc 1 443 9 is_stmt 1 view .LVU447
 993              		.loc 1 443 12 is_stmt 0 view .LVU448
 994 02ba 62EEA52A 		vmul.f32	s5, s5, s11
 995              	.LVL140:
 444:Drivers/CMSIS/DSP/Source/TransformFunctions/arm_cfft_f32.c **** 
 445:Drivers/CMSIS/DSP/Source/TransformFunctions/arm_cfft_f32.c ****         *p3++ = m0 + m1;
 996              		.loc 1 445 9 is_stmt 1 view .LVU449
 997              		.loc 1 445 20 is_stmt 0 view .LVU450
 998 02be 73EE823A 		vadd.f32	s7, s7, s4
 999              	.LVL141:
 1000              		.loc 1 445 15 view .LVU451
 1001 02c2 0246     		mov	r2, r0
 1002 02c4 0832     		adds	r2, r2, #8
 1003 02c6 C0ED003A 		vstr.32	s7, [r0]
 446:Drivers/CMSIS/DSP/Source/TransformFunctions/arm_cfft_f32.c ****         *p3++ = m2 - m3;
 1004              		.loc 1 446 9 is_stmt 1 view .LVU452
 1005              	.LVL142:
 1006              		.loc 1 446 20 is_stmt 0 view .LVU453
 1007 02ca 35EE625A 		vsub.f32	s10, s10, s5
 1008              	.LVL143:
 1009              		.loc 1 446 15 view .LVU454
 1010 02ce 80ED015A 		vstr.32	s10, [r0, #4]
 447:Drivers/CMSIS/DSP/Source/TransformFunctions/arm_cfft_f32.c ****         // use vertical symmetry col 3
 448:Drivers/CMSIS/DSP/Source/TransformFunctions/arm_cfft_f32.c ****         // 0.9988 - 0.0491i  <==>  -0.9988 - 0.0491i
 449:Drivers/CMSIS/DSP/Source/TransformFunctions/arm_cfft_f32.c ****         // Bottom
 450:Drivers/CMSIS/DSP/Source/TransformFunctions/arm_cfft_f32.c ****         m0 = -t3[3] * twR;
 1011              		.loc 1 450 9 is_stmt 1 view .LVU455
 1012              		.loc 1 450 12 is_stmt 0 view .LVU456
 1013 02d2 26EE445A 		vnmul.f32	s10, s12, s8
 1014              	.LVL144:
 451:Drivers/CMSIS/DSP/Source/TransformFunctions/arm_cfft_f32.c ****         m1 = t3[2] * twI;
 1015              		.loc 1 451 9 is_stmt 1 view .LVU457
 1016              		.loc 1 451 12 is_stmt 0 view .LVU458
 1017 02d6 64EEA53A 		vmul.f32	s7, s9, s11
 1018              	.LVL145:
 452:Drivers/CMSIS/DSP/Source/TransformFunctions/arm_cfft_f32.c ****         m2 = t3[2] * twR;
 1019              		.loc 1 452 9 is_stmt 1 view .LVU459
 1020              		.loc 1 452 12 is_stmt 0 view .LVU460
 1021 02da 64EE844A 		vmul.f32	s9, s9, s8
 1022              	.LVL146:
 453:Drivers/CMSIS/DSP/Source/TransformFunctions/arm_cfft_f32.c ****         m3 = t3[3] * twI;
 1023              		.loc 1 453 9 is_stmt 1 view .LVU461
 1024              		.loc 1 453 12 is_stmt 0 view .LVU462
 1025 02de 26EE256A 		vmul.f32	s12, s12, s11
ARM GAS  /var/folders/n6/c271nzx11xl4r4_m7sqjlt0m0000gn/T//ccyMl37L.s 			page 27


 1026              	.LVL147:
 454:Drivers/CMSIS/DSP/Source/TransformFunctions/arm_cfft_f32.c **** 
 455:Drivers/CMSIS/DSP/Source/TransformFunctions/arm_cfft_f32.c ****         *pEnd3-- = m0 - m1;
 1027              		.loc 1 455 9 is_stmt 1 view .LVU463
 1028              		.loc 1 455 23 is_stmt 0 view .LVU464
 1029 02e2 75EE635A 		vsub.f32	s11, s10, s7
 1030              	.LVL148:
 1031              		.loc 1 455 18 view .LVU465
 1032 02e6 ACF10807 		sub	r7, ip, #8
 1033 02ea CCED005A 		vstr.32	s11, [ip]
 456:Drivers/CMSIS/DSP/Source/TransformFunctions/arm_cfft_f32.c ****         *pEnd3-- = m3 - m2;
 1034              		.loc 1 456 9 is_stmt 1 view .LVU466
 1035              	.LVL149:
 1036              		.loc 1 456 23 is_stmt 0 view .LVU467
 1037 02ee 36EE646A 		vsub.f32	s12, s12, s9
 1038              	.LVL150:
 1039              		.loc 1 456 18 view .LVU468
 1040 02f2 0CED016A 		vstr.32	s12, [ip, #-4]
 457:Drivers/CMSIS/DSP/Source/TransformFunctions/arm_cfft_f32.c **** 
 458:Drivers/CMSIS/DSP/Source/TransformFunctions/arm_cfft_f32.c ****         // COL 4
 459:Drivers/CMSIS/DSP/Source/TransformFunctions/arm_cfft_f32.c ****         twR = tw4[0];
 1041              		.loc 1 459 9 is_stmt 1 view .LVU469
 1042              		.loc 1 459 13 is_stmt 0 view .LVU470
 1043 02f6 9EED006A 		vldr.32	s12, [lr]
 1044              	.LVL151:
 460:Drivers/CMSIS/DSP/Source/TransformFunctions/arm_cfft_f32.c ****         twI = tw4[1];
 1045              		.loc 1 460 9 is_stmt 1 view .LVU471
 1046              		.loc 1 460 13 is_stmt 0 view .LVU472
 1047 02fa DEED015A 		vldr.32	s11, [lr, #4]
 1048              	.LVL152:
 461:Drivers/CMSIS/DSP/Source/TransformFunctions/arm_cfft_f32.c ****         tw4 += twMod4;
 1049              		.loc 1 461 9 is_stmt 1 view .LVU473
 1050              		.loc 1 461 13 is_stmt 0 view .LVU474
 1051 02fe 0EF1180E 		add	lr, lr, #24
 1052              	.LVL153:
 462:Drivers/CMSIS/DSP/Source/TransformFunctions/arm_cfft_f32.c ****         // Top
 463:Drivers/CMSIS/DSP/Source/TransformFunctions/arm_cfft_f32.c ****         m0 = t4[0] * twR;
 1053              		.loc 1 463 9 is_stmt 1 view .LVU475
 1054              		.loc 1 463 12 is_stmt 0 view .LVU476
 1055 0302 23EE065A 		vmul.f32	s10, s6, s12
 1056              	.LVL154:
 464:Drivers/CMSIS/DSP/Source/TransformFunctions/arm_cfft_f32.c ****         m1 = t4[1] * twI;
 1057              		.loc 1 464 9 is_stmt 1 view .LVU477
 1058              		.loc 1 464 12 is_stmt 0 view .LVU478
 1059 0306 67EEA54A 		vmul.f32	s9, s15, s11
 1060              	.LVL155:
 465:Drivers/CMSIS/DSP/Source/TransformFunctions/arm_cfft_f32.c ****         m2 = t4[1] * twR;
 1061              		.loc 1 465 9 is_stmt 1 view .LVU479
 1062              		.loc 1 465 12 is_stmt 0 view .LVU480
 1063 030a 67EE867A 		vmul.f32	s15, s15, s12
 1064              	.LVL156:
 466:Drivers/CMSIS/DSP/Source/TransformFunctions/arm_cfft_f32.c ****         m3 = t4[0] * twI;
 1065              		.loc 1 466 9 is_stmt 1 view .LVU481
 1066              		.loc 1 466 12 is_stmt 0 view .LVU482
 1067 030e 23EE253A 		vmul.f32	s6, s6, s11
 1068              	.LVL157:
 467:Drivers/CMSIS/DSP/Source/TransformFunctions/arm_cfft_f32.c **** 
ARM GAS  /var/folders/n6/c271nzx11xl4r4_m7sqjlt0m0000gn/T//ccyMl37L.s 			page 28


 468:Drivers/CMSIS/DSP/Source/TransformFunctions/arm_cfft_f32.c ****         *p4++ = m0 + m1;
 1069              		.loc 1 468 9 is_stmt 1 view .LVU483
 1070              		.loc 1 468 20 is_stmt 0 view .LVU484
 1071 0312 35EE245A 		vadd.f32	s10, s10, s9
 1072              	.LVL158:
 1073              		.loc 1 468 15 view .LVU485
 1074 0316 1846     		mov	r0, r3
 1075 0318 0830     		adds	r0, r0, #8
 1076 031a 83ED005A 		vstr.32	s10, [r3]
 469:Drivers/CMSIS/DSP/Source/TransformFunctions/arm_cfft_f32.c ****         *p4++ = m2 - m3;
 1077              		.loc 1 469 9 is_stmt 1 view .LVU486
 1078              	.LVL159:
 1079              		.loc 1 469 20 is_stmt 0 view .LVU487
 1080 031e 77EEC37A 		vsub.f32	s15, s15, s6
 1081              	.LVL160:
 1082              		.loc 1 469 15 view .LVU488
 1083 0322 C3ED017A 		vstr.32	s15, [r3, #4]
 470:Drivers/CMSIS/DSP/Source/TransformFunctions/arm_cfft_f32.c ****         // use vertical symmetry col 4
 471:Drivers/CMSIS/DSP/Source/TransformFunctions/arm_cfft_f32.c ****         // 0.9973 - 0.0736i  <==>  -0.0736 + 0.9973i
 472:Drivers/CMSIS/DSP/Source/TransformFunctions/arm_cfft_f32.c ****         // Bottom
 473:Drivers/CMSIS/DSP/Source/TransformFunctions/arm_cfft_f32.c ****         m0 = t4[3] * twI;
 1084              		.loc 1 473 9 is_stmt 1 view .LVU489
 1085              		.loc 1 473 12 is_stmt 0 view .LVU490
 1086 0326 67EE257A 		vmul.f32	s15, s14, s11
 1087              	.LVL161:
 474:Drivers/CMSIS/DSP/Source/TransformFunctions/arm_cfft_f32.c ****         m1 = t4[2] * twR;
 1088              		.loc 1 474 9 is_stmt 1 view .LVU491
 1089              		.loc 1 474 12 is_stmt 0 view .LVU492
 1090 032a 26EE865A 		vmul.f32	s10, s13, s12
 1091              	.LVL162:
 475:Drivers/CMSIS/DSP/Source/TransformFunctions/arm_cfft_f32.c ****         m2 = t4[2] * twI;
 1092              		.loc 1 475 9 is_stmt 1 view .LVU493
 1093              		.loc 1 475 12 is_stmt 0 view .LVU494
 1094 032e 66EEA56A 		vmul.f32	s13, s13, s11
 1095              	.LVL163:
 476:Drivers/CMSIS/DSP/Source/TransformFunctions/arm_cfft_f32.c ****         m3 = t4[3] * twR;
 1096              		.loc 1 476 9 is_stmt 1 view .LVU495
 1097              		.loc 1 476 12 is_stmt 0 view .LVU496
 1098 0332 27EE067A 		vmul.f32	s14, s14, s12
 1099              	.LVL164:
 477:Drivers/CMSIS/DSP/Source/TransformFunctions/arm_cfft_f32.c **** 
 478:Drivers/CMSIS/DSP/Source/TransformFunctions/arm_cfft_f32.c ****         *pEnd4-- = m0 - m1;
 1100              		.loc 1 478 9 is_stmt 1 view .LVU497
 1101              		.loc 1 478 23 is_stmt 0 view .LVU498
 1102 0336 77EEC57A 		vsub.f32	s15, s15, s10
 1103              	.LVL165:
 1104              		.loc 1 478 18 view .LVU499
 1105 033a A1F1080C 		sub	ip, r1, #8
 1106 033e C1ED007A 		vstr.32	s15, [r1]
 479:Drivers/CMSIS/DSP/Source/TransformFunctions/arm_cfft_f32.c ****         *pEnd4-- = m2 + m3;
 1107              		.loc 1 479 9 is_stmt 1 view .LVU500
 1108              	.LVL166:
 1109              		.loc 1 479 23 is_stmt 0 view .LVU501
 1110 0342 76EE876A 		vadd.f32	s13, s13, s14
 1111              	.LVL167:
 1112              		.loc 1 479 18 view .LVU502
 1113 0346 41ED016A 		vstr.32	s13, [r1, #-4]
ARM GAS  /var/folders/n6/c271nzx11xl4r4_m7sqjlt0m0000gn/T//ccyMl37L.s 			page 29


 370:Drivers/CMSIS/DSP/Source/TransformFunctions/arm_cfft_f32.c ****     {
 1114              		.loc 1 370 36 is_stmt 1 discriminator 3 view .LVU503
 1115 034a 0BF1FF3B 		add	fp, fp, #-1
 1116              	.LVL168:
 469:Drivers/CMSIS/DSP/Source/TransformFunctions/arm_cfft_f32.c ****         // use vertical symmetry col 4
 1117              		.loc 1 469 12 is_stmt 0 view .LVU504
 1118 034e 0346     		mov	r3, r0
 446:Drivers/CMSIS/DSP/Source/TransformFunctions/arm_cfft_f32.c ****         // use vertical symmetry col 3
 1119              		.loc 1 446 12 view .LVU505
 1120 0350 1046     		mov	r0, r2
 1121              	.LVL169:
 423:Drivers/CMSIS/DSP/Source/TransformFunctions/arm_cfft_f32.c ****         // use vertical symmetry col 2
 1122              		.loc 1 423 12 view .LVU506
 1123 0352 5246     		mov	r2, r10
 1124              	.LVL170:
 411:Drivers/CMSIS/DSP/Source/TransformFunctions/arm_cfft_f32.c ****         // multiply by twiddle factors
 1125              		.loc 1 411 19 view .LVU507
 1126 0354 CA46     		mov	r10, r9
 1127              	.LVL171:
 1128              		.loc 1 479 15 view .LVU508
 1129 0356 6146     		mov	r1, ip
 456:Drivers/CMSIS/DSP/Source/TransformFunctions/arm_cfft_f32.c **** 
 1130              		.loc 1 456 15 view .LVU509
 1131 0358 BC46     		mov	ip, r7
 1132              	.LVL172:
 433:Drivers/CMSIS/DSP/Source/TransformFunctions/arm_cfft_f32.c **** 
 1133              		.loc 1 433 15 view .LVU510
 1134 035a B046     		mov	r8, r6
 406:Drivers/CMSIS/DSP/Source/TransformFunctions/arm_cfft_f32.c **** 
 1135              		.loc 1 406 15 view .LVU511
 1136 035c 2F46     		mov	r7, r5
 1137              	.LVL173:
 388:Drivers/CMSIS/DSP/Source/TransformFunctions/arm_cfft_f32.c **** 
 1138              		.loc 1 388 12 view .LVU512
 1139 035e DDF80490 		ldr	r9, [sp, #4]
 1140              	.LVL174:
 1141              	.L6:
 370:Drivers/CMSIS/DSP/Source/TransformFunctions/arm_cfft_f32.c ****     {
 1142              		.loc 1 370 30 is_stmt 1 discriminator 1 view .LVU513
 1143 0362 BBF1000F 		cmp	fp, #0
 1144 0366 7FF4D8AE 		bne	.L7
 480:Drivers/CMSIS/DSP/Source/TransformFunctions/arm_cfft_f32.c ****     }
 481:Drivers/CMSIS/DSP/Source/TransformFunctions/arm_cfft_f32.c **** 
 482:Drivers/CMSIS/DSP/Source/TransformFunctions/arm_cfft_f32.c ****     //MIDDLE
 483:Drivers/CMSIS/DSP/Source/TransformFunctions/arm_cfft_f32.c ****     // Twiddle factors are
 484:Drivers/CMSIS/DSP/Source/TransformFunctions/arm_cfft_f32.c ****     //  1.0000  0.7071-0.7071i  -1.0000i  -0.7071-0.7071i
 485:Drivers/CMSIS/DSP/Source/TransformFunctions/arm_cfft_f32.c ****     p1ap3_0 = p1[0] + p3[0];
 1145              		.loc 1 485 17 is_stmt 0 view .LVU514
 1146 036a 069E     		ldr	r6, [sp, #24]
 1147 036c 079D     		ldr	r5, [sp, #28]
 1148              		.loc 1 485 5 is_stmt 1 view .LVU515
 1149              		.loc 1 485 17 is_stmt 0 view .LVU516
 1150 036e D9ED004A 		vldr.32	s9, [r9]
 1151              		.loc 1 485 25 view .LVU517
 1152 0372 D0ED007A 		vldr.32	s15, [r0]
 1153              		.loc 1 485 13 view .LVU518
 1154 0376 34EEA72A 		vadd.f32	s4, s9, s15
ARM GAS  /var/folders/n6/c271nzx11xl4r4_m7sqjlt0m0000gn/T//ccyMl37L.s 			page 30


 1155              	.LVL175:
 486:Drivers/CMSIS/DSP/Source/TransformFunctions/arm_cfft_f32.c ****     p1sp3_0 = p1[0] - p3[0];
 1156              		.loc 1 486 5 is_stmt 1 view .LVU519
 1157              		.loc 1 486 13 is_stmt 0 view .LVU520
 1158 037a 74EEE74A 		vsub.f32	s9, s9, s15
 1159              	.LVL176:
 487:Drivers/CMSIS/DSP/Source/TransformFunctions/arm_cfft_f32.c ****     p1ap3_1 = p1[1] + p3[1];
 1160              		.loc 1 487 5 is_stmt 1 view .LVU521
 1161              		.loc 1 487 17 is_stmt 0 view .LVU522
 1162 037e D9ED017A 		vldr.32	s15, [r9, #4]
 1163              		.loc 1 487 25 view .LVU523
 1164 0382 90ED017A 		vldr.32	s14, [r0, #4]
 1165              		.loc 1 487 13 view .LVU524
 1166 0386 77EE872A 		vadd.f32	s5, s15, s14
 1167              	.LVL177:
 488:Drivers/CMSIS/DSP/Source/TransformFunctions/arm_cfft_f32.c ****     p1sp3_1 = p1[1] - p3[1];
 1168              		.loc 1 488 5 is_stmt 1 view .LVU525
 1169              		.loc 1 488 13 is_stmt 0 view .LVU526
 1170 038a 77EEC77A 		vsub.f32	s15, s15, s14
 1171              	.LVL178:
 489:Drivers/CMSIS/DSP/Source/TransformFunctions/arm_cfft_f32.c **** 
 490:Drivers/CMSIS/DSP/Source/TransformFunctions/arm_cfft_f32.c ****     // col 2
 491:Drivers/CMSIS/DSP/Source/TransformFunctions/arm_cfft_f32.c ****     t2[0] = p1sp3_0 + p2[1] - p4[1];
 1172              		.loc 1 491 5 is_stmt 1 view .LVU527
 1173              		.loc 1 491 25 is_stmt 0 view .LVU528
 1174 038e 92ED013A 		vldr.32	s6, [r2, #4]
 1175              		.loc 1 491 21 view .LVU529
 1176 0392 73EE245A 		vadd.f32	s11, s6, s9
 1177              		.loc 1 491 33 view .LVU530
 1178 0396 93ED015A 		vldr.32	s10, [r3, #4]
 1179              		.loc 1 491 29 view .LVU531
 1180 039a 75EEC55A 		vsub.f32	s11, s11, s10
 1181              		.loc 1 491 11 view .LVU532
 1182 039e CDED105A 		vstr.32	s11, [sp, #64]
 492:Drivers/CMSIS/DSP/Source/TransformFunctions/arm_cfft_f32.c ****     t2[1] = p1sp3_1 - p2[0] + p4[0];
 1183              		.loc 1 492 5 is_stmt 1 view .LVU533
 1184              		.loc 1 492 25 is_stmt 0 view .LVU534
 1185 03a2 D2ED003A 		vldr.32	s7, [r2]
 1186              		.loc 1 492 21 view .LVU535
 1187 03a6 77EEE36A 		vsub.f32	s13, s15, s7
 1188              		.loc 1 492 33 view .LVU536
 1189 03aa 93ED004A 		vldr.32	s8, [r3]
 1190              		.loc 1 492 29 view .LVU537
 1191 03ae 76EE846A 		vadd.f32	s13, s13, s8
 1192              		.loc 1 492 11 view .LVU538
 1193 03b2 CDED116A 		vstr.32	s13, [sp, #68]
 493:Drivers/CMSIS/DSP/Source/TransformFunctions/arm_cfft_f32.c ****     // col 3
 494:Drivers/CMSIS/DSP/Source/TransformFunctions/arm_cfft_f32.c ****     t3[0] = p1ap3_0 - p2[0] - p4[0];
 1194              		.loc 1 494 5 is_stmt 1 view .LVU539
 1195              		.loc 1 494 21 is_stmt 0 view .LVU540
 1196 03b6 32EE636A 		vsub.f32	s12, s4, s7
 1197              		.loc 1 494 29 view .LVU541
 1198 03ba 36EE446A 		vsub.f32	s12, s12, s8
 1199              		.loc 1 494 11 view .LVU542
 1200 03be 8DED0C6A 		vstr.32	s12, [sp, #48]
 495:Drivers/CMSIS/DSP/Source/TransformFunctions/arm_cfft_f32.c ****     t3[1] = p1ap3_1 - p2[1] - p4[1];
 1201              		.loc 1 495 5 is_stmt 1 view .LVU543
ARM GAS  /var/folders/n6/c271nzx11xl4r4_m7sqjlt0m0000gn/T//ccyMl37L.s 			page 31


 1202              		.loc 1 495 21 is_stmt 0 view .LVU544
 1203 03c2 32EEC37A 		vsub.f32	s14, s5, s6
 1204              		.loc 1 495 29 view .LVU545
 1205 03c6 37EE457A 		vsub.f32	s14, s14, s10
 1206              		.loc 1 495 11 view .LVU546
 1207 03ca 8DED0D7A 		vstr.32	s14, [sp, #52]
 496:Drivers/CMSIS/DSP/Source/TransformFunctions/arm_cfft_f32.c ****     // col 4
 497:Drivers/CMSIS/DSP/Source/TransformFunctions/arm_cfft_f32.c ****     t4[0] = p1sp3_0 - p2[1] + p4[1];
 1208              		.loc 1 497 5 is_stmt 1 view .LVU547
 1209              		.loc 1 497 21 is_stmt 0 view .LVU548
 1210 03ce 74EEC34A 		vsub.f32	s9, s9, s6
 1211              	.LVL179:
 1212              		.loc 1 497 29 view .LVU549
 1213 03d2 35EE245A 		vadd.f32	s10, s10, s9
 1214              		.loc 1 497 11 view .LVU550
 1215 03d6 8DED085A 		vstr.32	s10, [sp, #32]
 498:Drivers/CMSIS/DSP/Source/TransformFunctions/arm_cfft_f32.c ****     t4[1] = p1sp3_1 + p2[0] - p4[0];
 1216              		.loc 1 498 5 is_stmt 1 view .LVU551
 1217              		.loc 1 498 21 is_stmt 0 view .LVU552
 1218 03da 73EEA77A 		vadd.f32	s15, s7, s15
 1219              	.LVL180:
 1220              		.loc 1 498 29 view .LVU553
 1221 03de 77EEC47A 		vsub.f32	s15, s15, s8
 1222              		.loc 1 498 11 view .LVU554
 1223 03e2 CDED097A 		vstr.32	s15, [sp, #36]
 499:Drivers/CMSIS/DSP/Source/TransformFunctions/arm_cfft_f32.c ****     // col 1 - Top
 500:Drivers/CMSIS/DSP/Source/TransformFunctions/arm_cfft_f32.c ****     *p1++ = p1ap3_0 + p2[0] + p4[0];
 1224              		.loc 1 500 5 is_stmt 1 view .LVU555
 1225              		.loc 1 500 21 is_stmt 0 view .LVU556
 1226 03e6 73EE823A 		vadd.f32	s7, s7, s4
 1227              	.LVL181:
 1228              		.loc 1 500 29 view .LVU557
 1229 03ea 34EE234A 		vadd.f32	s8, s8, s7
 1230              		.loc 1 500 11 view .LVU558
 1231 03ee 89ED004A 		vstr.32	s8, [r9]
 1232              	.LVL182:
 501:Drivers/CMSIS/DSP/Source/TransformFunctions/arm_cfft_f32.c ****     *p1++ = p1ap3_1 + p2[1] + p4[1];
 1233              		.loc 1 501 5 is_stmt 1 view .LVU559
 1234              		.loc 1 501 25 is_stmt 0 view .LVU560
 1235 03f2 D2ED014A 		vldr.32	s9, [r2, #4]
 1236              		.loc 1 501 21 view .LVU561
 1237 03f6 74EEA24A 		vadd.f32	s9, s9, s5
 1238              		.loc 1 501 33 view .LVU562
 1239 03fa 93ED014A 		vldr.32	s8, [r3, #4]
 1240              	.LVL183:
 1241              		.loc 1 501 29 view .LVU563
 1242 03fe 74EE844A 		vadd.f32	s9, s9, s8
 1243              		.loc 1 501 11 view .LVU564
 1244 0402 C9ED014A 		vstr.32	s9, [r9, #4]
 502:Drivers/CMSIS/DSP/Source/TransformFunctions/arm_cfft_f32.c **** 
 503:Drivers/CMSIS/DSP/Source/TransformFunctions/arm_cfft_f32.c ****     // COL 2
 504:Drivers/CMSIS/DSP/Source/TransformFunctions/arm_cfft_f32.c ****     twR = tw2[0];
 1245              		.loc 1 504 5 is_stmt 1 view .LVU565
 1246              		.loc 1 504 9 is_stmt 0 view .LVU566
 1247 0406 DAED003A 		vldr.32	s7, [r10]
 1248              	.LVL184:
 505:Drivers/CMSIS/DSP/Source/TransformFunctions/arm_cfft_f32.c ****     twI = tw2[1];
ARM GAS  /var/folders/n6/c271nzx11xl4r4_m7sqjlt0m0000gn/T//ccyMl37L.s 			page 32


 1249              		.loc 1 505 5 is_stmt 1 view .LVU567
 1250              		.loc 1 505 9 is_stmt 0 view .LVU568
 1251 040a 9AED014A 		vldr.32	s8, [r10, #4]
 1252              	.LVL185:
 506:Drivers/CMSIS/DSP/Source/TransformFunctions/arm_cfft_f32.c **** 
 507:Drivers/CMSIS/DSP/Source/TransformFunctions/arm_cfft_f32.c ****     m0 = t2[0] * twR;
 1253              		.loc 1 507 5 is_stmt 1 view .LVU569
 1254              		.loc 1 507 8 is_stmt 0 view .LVU570
 1255 040e 65EEA34A 		vmul.f32	s9, s11, s7
 1256              	.LVL186:
 508:Drivers/CMSIS/DSP/Source/TransformFunctions/arm_cfft_f32.c ****     m1 = t2[1] * twI;
 1257              		.loc 1 508 5 is_stmt 1 view .LVU571
 1258              		.loc 1 508 8 is_stmt 0 view .LVU572
 1259 0412 26EE843A 		vmul.f32	s6, s13, s8
 1260              	.LVL187:
 509:Drivers/CMSIS/DSP/Source/TransformFunctions/arm_cfft_f32.c ****     m2 = t2[1] * twR;
 1261              		.loc 1 509 5 is_stmt 1 view .LVU573
 1262              		.loc 1 509 8 is_stmt 0 view .LVU574
 1263 0416 66EEA36A 		vmul.f32	s13, s13, s7
 1264              	.LVL188:
 510:Drivers/CMSIS/DSP/Source/TransformFunctions/arm_cfft_f32.c ****     m3 = t2[0] * twI;
 1265              		.loc 1 510 5 is_stmt 1 view .LVU575
 1266              		.loc 1 510 8 is_stmt 0 view .LVU576
 1267 041a 65EE845A 		vmul.f32	s11, s11, s8
 1268              	.LVL189:
 511:Drivers/CMSIS/DSP/Source/TransformFunctions/arm_cfft_f32.c **** 
 512:Drivers/CMSIS/DSP/Source/TransformFunctions/arm_cfft_f32.c ****     *p2++ = m0 + m1;
 1269              		.loc 1 512 5 is_stmt 1 view .LVU577
 1270              		.loc 1 512 16 is_stmt 0 view .LVU578
 1271 041e 74EE834A 		vadd.f32	s9, s9, s6
 1272              	.LVL190:
 1273              		.loc 1 512 11 view .LVU579
 1274 0422 C2ED004A 		vstr.32	s9, [r2]
 513:Drivers/CMSIS/DSP/Source/TransformFunctions/arm_cfft_f32.c ****     *p2++ = m2 - m3;
 1275              		.loc 1 513 5 is_stmt 1 view .LVU580
 1276              	.LVL191:
 1277              		.loc 1 513 16 is_stmt 0 view .LVU581
 1278 0426 76EEE56A 		vsub.f32	s13, s13, s11
 1279              	.LVL192:
 1280              		.loc 1 513 11 view .LVU582
 1281 042a C2ED016A 		vstr.32	s13, [r2, #4]
 514:Drivers/CMSIS/DSP/Source/TransformFunctions/arm_cfft_f32.c ****     // COL 3
 515:Drivers/CMSIS/DSP/Source/TransformFunctions/arm_cfft_f32.c ****     twR = tw3[0];
 1282              		.loc 1 515 5 is_stmt 1 view .LVU583
 1283              		.loc 1 515 9 is_stmt 0 view .LVU584
 1284 042e D4ED004A 		vldr.32	s9, [r4]
 1285              	.LVL193:
 516:Drivers/CMSIS/DSP/Source/TransformFunctions/arm_cfft_f32.c ****     twI = tw3[1];
 1286              		.loc 1 516 5 is_stmt 1 view .LVU585
 1287              		.loc 1 516 9 is_stmt 0 view .LVU586
 1288 0432 D4ED015A 		vldr.32	s11, [r4, #4]
 1289              	.LVL194:
 517:Drivers/CMSIS/DSP/Source/TransformFunctions/arm_cfft_f32.c **** 
 518:Drivers/CMSIS/DSP/Source/TransformFunctions/arm_cfft_f32.c ****     m0 = t3[0] * twR;
 1290              		.loc 1 518 5 is_stmt 1 view .LVU587
 1291              		.loc 1 518 8 is_stmt 0 view .LVU588
 1292 0436 66EE246A 		vmul.f32	s13, s12, s9
ARM GAS  /var/folders/n6/c271nzx11xl4r4_m7sqjlt0m0000gn/T//ccyMl37L.s 			page 33


 1293              	.LVL195:
 519:Drivers/CMSIS/DSP/Source/TransformFunctions/arm_cfft_f32.c ****     m1 = t3[1] * twI;
 1294              		.loc 1 519 5 is_stmt 1 view .LVU589
 1295              		.loc 1 519 8 is_stmt 0 view .LVU590
 1296 043a 27EE254A 		vmul.f32	s8, s14, s11
 1297              	.LVL196:
 520:Drivers/CMSIS/DSP/Source/TransformFunctions/arm_cfft_f32.c ****     m2 = t3[1] * twR;
 1298              		.loc 1 520 5 is_stmt 1 view .LVU591
 1299              		.loc 1 520 8 is_stmt 0 view .LVU592
 1300 043e 27EE247A 		vmul.f32	s14, s14, s9
 1301              	.LVL197:
 521:Drivers/CMSIS/DSP/Source/TransformFunctions/arm_cfft_f32.c ****     m3 = t3[0] * twI;
 1302              		.loc 1 521 5 is_stmt 1 view .LVU593
 1303              		.loc 1 521 8 is_stmt 0 view .LVU594
 1304 0442 26EE256A 		vmul.f32	s12, s12, s11
 1305              	.LVL198:
 522:Drivers/CMSIS/DSP/Source/TransformFunctions/arm_cfft_f32.c **** 
 523:Drivers/CMSIS/DSP/Source/TransformFunctions/arm_cfft_f32.c ****     *p3++ = m0 + m1;
 1306              		.loc 1 523 5 is_stmt 1 view .LVU595
 1307              		.loc 1 523 16 is_stmt 0 view .LVU596
 1308 0446 76EE846A 		vadd.f32	s13, s13, s8
 1309              	.LVL199:
 1310              		.loc 1 523 11 view .LVU597
 1311 044a C0ED006A 		vstr.32	s13, [r0]
 524:Drivers/CMSIS/DSP/Source/TransformFunctions/arm_cfft_f32.c ****     *p3++ = m2 - m3;
 1312              		.loc 1 524 5 is_stmt 1 view .LVU598
 1313              	.LVL200:
 1314              		.loc 1 524 16 is_stmt 0 view .LVU599
 1315 044e 37EE467A 		vsub.f32	s14, s14, s12
 1316              	.LVL201:
 1317              		.loc 1 524 11 view .LVU600
 1318 0452 80ED017A 		vstr.32	s14, [r0, #4]
 525:Drivers/CMSIS/DSP/Source/TransformFunctions/arm_cfft_f32.c ****     // COL 4
 526:Drivers/CMSIS/DSP/Source/TransformFunctions/arm_cfft_f32.c ****     twR = tw4[0];
 1319              		.loc 1 526 5 is_stmt 1 view .LVU601
 1320              		.loc 1 526 9 is_stmt 0 view .LVU602
 1321 0456 9EED006A 		vldr.32	s12, [lr]
 1322              	.LVL202:
 527:Drivers/CMSIS/DSP/Source/TransformFunctions/arm_cfft_f32.c ****     twI = tw4[1];
 1323              		.loc 1 527 5 is_stmt 1 view .LVU603
 1324              		.loc 1 527 9 is_stmt 0 view .LVU604
 1325 045a DEED016A 		vldr.32	s13, [lr, #4]
 1326              	.LVL203:
 528:Drivers/CMSIS/DSP/Source/TransformFunctions/arm_cfft_f32.c **** 
 529:Drivers/CMSIS/DSP/Source/TransformFunctions/arm_cfft_f32.c ****     m0 = t4[0] * twR;
 1327              		.loc 1 529 5 is_stmt 1 view .LVU605
 1328              		.loc 1 529 8 is_stmt 0 view .LVU606
 1329 045e 25EE067A 		vmul.f32	s14, s10, s12
 1330              	.LVL204:
 530:Drivers/CMSIS/DSP/Source/TransformFunctions/arm_cfft_f32.c ****     m1 = t4[1] * twI;
 1331              		.loc 1 530 5 is_stmt 1 view .LVU607
 1332              		.loc 1 530 8 is_stmt 0 view .LVU608
 1333 0462 67EEA65A 		vmul.f32	s11, s15, s13
 1334              	.LVL205:
 531:Drivers/CMSIS/DSP/Source/TransformFunctions/arm_cfft_f32.c ****     m2 = t4[1] * twR;
 1335              		.loc 1 531 5 is_stmt 1 view .LVU609
 1336              		.loc 1 531 8 is_stmt 0 view .LVU610
ARM GAS  /var/folders/n6/c271nzx11xl4r4_m7sqjlt0m0000gn/T//ccyMl37L.s 			page 34


 1337 0466 67EE867A 		vmul.f32	s15, s15, s12
 1338              	.LVL206:
 532:Drivers/CMSIS/DSP/Source/TransformFunctions/arm_cfft_f32.c ****     m3 = t4[0] * twI;
 1339              		.loc 1 532 5 is_stmt 1 view .LVU611
 1340              		.loc 1 532 8 is_stmt 0 view .LVU612
 1341 046a 25EE265A 		vmul.f32	s10, s10, s13
 1342              	.LVL207:
 533:Drivers/CMSIS/DSP/Source/TransformFunctions/arm_cfft_f32.c **** 
 534:Drivers/CMSIS/DSP/Source/TransformFunctions/arm_cfft_f32.c ****     *p4++ = m0 + m1;
 1343              		.loc 1 534 5 is_stmt 1 view .LVU613
 1344              		.loc 1 534 16 is_stmt 0 view .LVU614
 1345 046e 37EE257A 		vadd.f32	s14, s14, s11
 1346              	.LVL208:
 1347              		.loc 1 534 11 view .LVU615
 1348 0472 83ED007A 		vstr.32	s14, [r3]
 535:Drivers/CMSIS/DSP/Source/TransformFunctions/arm_cfft_f32.c ****     *p4++ = m2 - m3;
 1349              		.loc 1 535 5 is_stmt 1 view .LVU616
 1350              	.LVL209:
 1351              		.loc 1 535 16 is_stmt 0 view .LVU617
 1352 0476 77EEC57A 		vsub.f32	s15, s15, s10
 1353              	.LVL210:
 1354              		.loc 1 535 11 view .LVU618
 1355 047a C3ED017A 		vstr.32	s15, [r3, #4]
 536:Drivers/CMSIS/DSP/Source/TransformFunctions/arm_cfft_f32.c **** 
 537:Drivers/CMSIS/DSP/Source/TransformFunctions/arm_cfft_f32.c ****     // first col
 538:Drivers/CMSIS/DSP/Source/TransformFunctions/arm_cfft_f32.c ****     arm_radix8_butterfly_f32( pCol1, L, (float32_t *) S->pTwiddle, 4U);
 1356              		.loc 1 538 5 is_stmt 1 view .LVU619
 1357 047e BDF80C40 		ldrh	r4, [sp, #12]
 1358              	.LVL211:
 1359              		.loc 1 538 5 is_stmt 0 view .LVU620
 1360 0482 0423     		movs	r3, #4
 1361              	.LVL212:
 1362              		.loc 1 538 5 view .LVU621
 1363 0484 049F     		ldr	r7, [sp, #16]
 1364              	.LVL213:
 1365              		.loc 1 538 5 view .LVU622
 1366 0486 7A68     		ldr	r2, [r7, #4]
 1367              	.LVL214:
 1368              		.loc 1 538 5 view .LVU623
 1369 0488 2146     		mov	r1, r4
 1370              	.LVL215:
 1371              		.loc 1 538 5 view .LVU624
 1372 048a 0598     		ldr	r0, [sp, #20]
 1373              	.LVL216:
 1374              		.loc 1 538 5 view .LVU625
 1375 048c FFF7FEFF 		bl	arm_radix8_butterfly_f32
 1376              	.LVL217:
 539:Drivers/CMSIS/DSP/Source/TransformFunctions/arm_cfft_f32.c ****     // second col
 540:Drivers/CMSIS/DSP/Source/TransformFunctions/arm_cfft_f32.c ****     arm_radix8_butterfly_f32( pCol2, L, (float32_t *) S->pTwiddle, 4U);
 1377              		.loc 1 540 5 is_stmt 1 view .LVU626
 1378 0490 0423     		movs	r3, #4
 1379 0492 7A68     		ldr	r2, [r7, #4]
 1380 0494 2146     		mov	r1, r4
 1381 0496 3046     		mov	r0, r6
 1382 0498 FFF7FEFF 		bl	arm_radix8_butterfly_f32
 1383              	.LVL218:
 541:Drivers/CMSIS/DSP/Source/TransformFunctions/arm_cfft_f32.c ****     // third col
ARM GAS  /var/folders/n6/c271nzx11xl4r4_m7sqjlt0m0000gn/T//ccyMl37L.s 			page 35


 542:Drivers/CMSIS/DSP/Source/TransformFunctions/arm_cfft_f32.c ****     arm_radix8_butterfly_f32( pCol3, L, (float32_t *) S->pTwiddle, 4U);
 1384              		.loc 1 542 5 view .LVU627
 1385 049c 0423     		movs	r3, #4
 1386 049e 7A68     		ldr	r2, [r7, #4]
 1387 04a0 2146     		mov	r1, r4
 1388 04a2 0298     		ldr	r0, [sp, #8]
 1389 04a4 FFF7FEFF 		bl	arm_radix8_butterfly_f32
 1390              	.LVL219:
 543:Drivers/CMSIS/DSP/Source/TransformFunctions/arm_cfft_f32.c ****     // fourth col
 544:Drivers/CMSIS/DSP/Source/TransformFunctions/arm_cfft_f32.c ****     arm_radix8_butterfly_f32( pCol4, L, (float32_t *) S->pTwiddle, 4U);
 1391              		.loc 1 544 5 view .LVU628
 1392 04a8 0423     		movs	r3, #4
 1393 04aa 7A68     		ldr	r2, [r7, #4]
 1394 04ac 2146     		mov	r1, r4
 1395 04ae 2846     		mov	r0, r5
 1396 04b0 FFF7FEFF 		bl	arm_radix8_butterfly_f32
 1397              	.LVL220:
 545:Drivers/CMSIS/DSP/Source/TransformFunctions/arm_cfft_f32.c **** }
 1398              		.loc 1 545 1 is_stmt 0 view .LVU629
 1399 04b4 15B0     		add	sp, sp, #84
 1400              		.cfi_def_cfa_offset 52
 1401              		@ sp needed
 1402 04b6 BDEC048B 		vldm	sp!, {d8-d9}
 1403              		.cfi_restore 82
 1404              		.cfi_restore 83
 1405              		.cfi_restore 80
 1406              		.cfi_restore 81
 1407              		.cfi_def_cfa_offset 36
 1408 04ba BDE8F08F 		pop	{r4, r5, r6, r7, r8, r9, r10, fp, pc}
 1409              		.loc 1 545 1 view .LVU630
 1410              		.cfi_endproc
 1411              	.LFE136:
 1413              		.section	.text.arm_cfft_f32,"ax",%progbits
 1414              		.align	1
 1415              		.global	arm_cfft_f32
 1416              		.syntax unified
 1417              		.thumb
 1418              		.thumb_func
 1420              	arm_cfft_f32:
 1421              	.LVL221:
 1422              	.LFB137:
 546:Drivers/CMSIS/DSP/Source/TransformFunctions/arm_cfft_f32.c **** 
 547:Drivers/CMSIS/DSP/Source/TransformFunctions/arm_cfft_f32.c **** /**
 548:Drivers/CMSIS/DSP/Source/TransformFunctions/arm_cfft_f32.c **** * @addtogroup ComplexFFT
 549:Drivers/CMSIS/DSP/Source/TransformFunctions/arm_cfft_f32.c **** * @{
 550:Drivers/CMSIS/DSP/Source/TransformFunctions/arm_cfft_f32.c **** */
 551:Drivers/CMSIS/DSP/Source/TransformFunctions/arm_cfft_f32.c **** 
 552:Drivers/CMSIS/DSP/Source/TransformFunctions/arm_cfft_f32.c **** /**
 553:Drivers/CMSIS/DSP/Source/TransformFunctions/arm_cfft_f32.c **** * @details
 554:Drivers/CMSIS/DSP/Source/TransformFunctions/arm_cfft_f32.c **** * @brief       Processing function for the floating-point complex FFT.
 555:Drivers/CMSIS/DSP/Source/TransformFunctions/arm_cfft_f32.c **** * @param[in]      *S    points to an instance of the floating-point CFFT structure.
 556:Drivers/CMSIS/DSP/Source/TransformFunctions/arm_cfft_f32.c **** * @param[in, out] *p1   points to the complex data buffer of size <code>2*fftLen</code>. Processing
 557:Drivers/CMSIS/DSP/Source/TransformFunctions/arm_cfft_f32.c **** * @param[in]     ifftFlag       flag that selects forward (ifftFlag=0) or inverse (ifftFlag=1) tran
 558:Drivers/CMSIS/DSP/Source/TransformFunctions/arm_cfft_f32.c **** * @param[in]     bitReverseFlag flag that enables (bitReverseFlag=1) or disables (bitReverseFlag=0)
 559:Drivers/CMSIS/DSP/Source/TransformFunctions/arm_cfft_f32.c **** * @return none.
 560:Drivers/CMSIS/DSP/Source/TransformFunctions/arm_cfft_f32.c **** */
 561:Drivers/CMSIS/DSP/Source/TransformFunctions/arm_cfft_f32.c **** 
ARM GAS  /var/folders/n6/c271nzx11xl4r4_m7sqjlt0m0000gn/T//ccyMl37L.s 			page 36


 562:Drivers/CMSIS/DSP/Source/TransformFunctions/arm_cfft_f32.c **** void arm_cfft_f32(
 563:Drivers/CMSIS/DSP/Source/TransformFunctions/arm_cfft_f32.c ****     const arm_cfft_instance_f32 * S,
 564:Drivers/CMSIS/DSP/Source/TransformFunctions/arm_cfft_f32.c ****     float32_t * p1,
 565:Drivers/CMSIS/DSP/Source/TransformFunctions/arm_cfft_f32.c ****     uint8_t ifftFlag,
 566:Drivers/CMSIS/DSP/Source/TransformFunctions/arm_cfft_f32.c ****     uint8_t bitReverseFlag)
 567:Drivers/CMSIS/DSP/Source/TransformFunctions/arm_cfft_f32.c **** {
 1423              		.loc 1 567 1 is_stmt 1 view -0
 1424              		.cfi_startproc
 1425              		@ args = 0, pretend = 0, frame = 0
 1426              		@ frame_needed = 0, uses_anonymous_args = 0
 1427              		.loc 1 567 1 is_stmt 0 view .LVU632
 1428 0000 2DE9F041 		push	{r4, r5, r6, r7, r8, lr}
 1429              		.cfi_def_cfa_offset 24
 1430              		.cfi_offset 4, -24
 1431              		.cfi_offset 5, -20
 1432              		.cfi_offset 6, -16
 1433              		.cfi_offset 7, -12
 1434              		.cfi_offset 8, -8
 1435              		.cfi_offset 14, -4
 1436 0004 0646     		mov	r6, r0
 1437 0006 0C46     		mov	r4, r1
 1438 0008 1746     		mov	r7, r2
 1439 000a 9846     		mov	r8, r3
 568:Drivers/CMSIS/DSP/Source/TransformFunctions/arm_cfft_f32.c ****     uint32_t  L = S->fftLen, l;
 1440              		.loc 1 568 5 is_stmt 1 view .LVU633
 1441              		.loc 1 568 20 is_stmt 0 view .LVU634
 1442 000c 0588     		ldrh	r5, [r0]
 1443              	.LVL222:
 569:Drivers/CMSIS/DSP/Source/TransformFunctions/arm_cfft_f32.c ****     float32_t invL, * pSrc;
 1444              		.loc 1 569 5 is_stmt 1 view .LVU635
 570:Drivers/CMSIS/DSP/Source/TransformFunctions/arm_cfft_f32.c **** 
 571:Drivers/CMSIS/DSP/Source/TransformFunctions/arm_cfft_f32.c ****     if (ifftFlag == 1U)
 1445              		.loc 1 571 5 view .LVU636
 1446              		.loc 1 571 8 is_stmt 0 view .LVU637
 1447 000e 012A     		cmp	r2, #1
 1448 0010 0FD0     		beq	.L25
 1449              	.LVL223:
 1450              	.L10:
 572:Drivers/CMSIS/DSP/Source/TransformFunctions/arm_cfft_f32.c ****     {
 573:Drivers/CMSIS/DSP/Source/TransformFunctions/arm_cfft_f32.c ****         /*  Conjugate input data  */
 574:Drivers/CMSIS/DSP/Source/TransformFunctions/arm_cfft_f32.c ****         pSrc = p1 + 1;
 575:Drivers/CMSIS/DSP/Source/TransformFunctions/arm_cfft_f32.c ****         for(l=0; l<L; l++)
 576:Drivers/CMSIS/DSP/Source/TransformFunctions/arm_cfft_f32.c ****         {
 577:Drivers/CMSIS/DSP/Source/TransformFunctions/arm_cfft_f32.c ****             *pSrc = -*pSrc;
 578:Drivers/CMSIS/DSP/Source/TransformFunctions/arm_cfft_f32.c ****             pSrc += 2;
 579:Drivers/CMSIS/DSP/Source/TransformFunctions/arm_cfft_f32.c ****         }
 580:Drivers/CMSIS/DSP/Source/TransformFunctions/arm_cfft_f32.c ****     }
 581:Drivers/CMSIS/DSP/Source/TransformFunctions/arm_cfft_f32.c **** 
 582:Drivers/CMSIS/DSP/Source/TransformFunctions/arm_cfft_f32.c ****     switch (L)
 1451              		.loc 1 582 5 is_stmt 1 view .LVU638
 1452 0012 B5F5807F 		cmp	r5, #256
 1453 0016 07D0     		beq	.L13
 1454 0018 29D8     		bhi	.L14
 1455 001a 402D     		cmp	r5, #64
 1456 001c 35D0     		beq	.L15
 1457 001e 19D8     		bhi	.L16
 1458 0020 102D     		cmp	r5, #16
ARM GAS  /var/folders/n6/c271nzx11xl4r4_m7sqjlt0m0000gn/T//ccyMl37L.s 			page 37


 1459 0022 19D0     		beq	.L17
 1460 0024 202D     		cmp	r5, #32
 1461 0026 1BD1     		bne	.L18
 1462              	.L13:
 583:Drivers/CMSIS/DSP/Source/TransformFunctions/arm_cfft_f32.c ****     {
 584:Drivers/CMSIS/DSP/Source/TransformFunctions/arm_cfft_f32.c ****     case 16:
 585:Drivers/CMSIS/DSP/Source/TransformFunctions/arm_cfft_f32.c ****     case 128:
 586:Drivers/CMSIS/DSP/Source/TransformFunctions/arm_cfft_f32.c ****     case 1024:
 587:Drivers/CMSIS/DSP/Source/TransformFunctions/arm_cfft_f32.c ****         arm_cfft_radix8by2_f32  ( (arm_cfft_instance_f32 *) S, p1);
 588:Drivers/CMSIS/DSP/Source/TransformFunctions/arm_cfft_f32.c ****         break;
 589:Drivers/CMSIS/DSP/Source/TransformFunctions/arm_cfft_f32.c ****     case 32:
 590:Drivers/CMSIS/DSP/Source/TransformFunctions/arm_cfft_f32.c ****     case 256:
 591:Drivers/CMSIS/DSP/Source/TransformFunctions/arm_cfft_f32.c ****     case 2048:
 592:Drivers/CMSIS/DSP/Source/TransformFunctions/arm_cfft_f32.c ****         arm_cfft_radix8by4_f32  ( (arm_cfft_instance_f32 *) S, p1);
 1463              		.loc 1 592 9 view .LVU639
 1464 0028 2146     		mov	r1, r4
 1465 002a 3046     		mov	r0, r6
 1466              	.LVL224:
 1467              		.loc 1 592 9 is_stmt 0 view .LVU640
 1468 002c FFF7FEFF 		bl	arm_cfft_radix8by4_f32
 1469              	.LVL225:
 593:Drivers/CMSIS/DSP/Source/TransformFunctions/arm_cfft_f32.c ****         break;
 1470              		.loc 1 593 9 is_stmt 1 view .LVU641
 1471 0030 16E0     		b	.L18
 1472              	.LVL226:
 1473              	.L25:
 574:Drivers/CMSIS/DSP/Source/TransformFunctions/arm_cfft_f32.c ****         for(l=0; l<L; l++)
 1474              		.loc 1 574 9 view .LVU642
 574:Drivers/CMSIS/DSP/Source/TransformFunctions/arm_cfft_f32.c ****         for(l=0; l<L; l++)
 1475              		.loc 1 574 14 is_stmt 0 view .LVU643
 1476 0032 01F1040C 		add	ip, r1, #4
 1477              	.LVL227:
 575:Drivers/CMSIS/DSP/Source/TransformFunctions/arm_cfft_f32.c ****         {
 1478              		.loc 1 575 9 is_stmt 1 view .LVU644
 575:Drivers/CMSIS/DSP/Source/TransformFunctions/arm_cfft_f32.c ****         {
 1479              		.loc 1 575 14 is_stmt 0 view .LVU645
 1480 0036 0021     		movs	r1, #0
 1481              	.LVL228:
 575:Drivers/CMSIS/DSP/Source/TransformFunctions/arm_cfft_f32.c ****         {
 1482              		.loc 1 575 9 view .LVU646
 1483 0038 09E0     		b	.L11
 1484              	.LVL229:
 1485              	.L12:
 577:Drivers/CMSIS/DSP/Source/TransformFunctions/arm_cfft_f32.c ****             pSrc += 2;
 1486              		.loc 1 577 13 is_stmt 1 view .LVU647
 577:Drivers/CMSIS/DSP/Source/TransformFunctions/arm_cfft_f32.c ****             pSrc += 2;
 1487              		.loc 1 577 22 is_stmt 0 view .LVU648
 1488 003a DCED007A 		vldr.32	s15, [ip]
 577:Drivers/CMSIS/DSP/Source/TransformFunctions/arm_cfft_f32.c ****             pSrc += 2;
 1489              		.loc 1 577 21 view .LVU649
 1490 003e F1EE677A 		vneg.f32	s15, s15
 577:Drivers/CMSIS/DSP/Source/TransformFunctions/arm_cfft_f32.c ****             pSrc += 2;
 1491              		.loc 1 577 19 view .LVU650
 1492 0042 6346     		mov	r3, ip
 1493 0044 0CF1080C 		add	ip, ip, #8
 1494              	.LVL230:
 577:Drivers/CMSIS/DSP/Source/TransformFunctions/arm_cfft_f32.c ****             pSrc += 2;
ARM GAS  /var/folders/n6/c271nzx11xl4r4_m7sqjlt0m0000gn/T//ccyMl37L.s 			page 38


 1495              		.loc 1 577 19 view .LVU651
 1496 0048 C3ED007A 		vstr.32	s15, [r3]
 578:Drivers/CMSIS/DSP/Source/TransformFunctions/arm_cfft_f32.c ****         }
 1497              		.loc 1 578 13 is_stmt 1 view .LVU652
 1498              	.LVL231:
 575:Drivers/CMSIS/DSP/Source/TransformFunctions/arm_cfft_f32.c ****         {
 1499              		.loc 1 575 24 discriminator 3 view .LVU653
 1500 004c 0131     		adds	r1, r1, #1
 1501              	.LVL232:
 1502              	.L11:
 575:Drivers/CMSIS/DSP/Source/TransformFunctions/arm_cfft_f32.c ****         {
 1503              		.loc 1 575 19 discriminator 1 view .LVU654
 1504 004e A942     		cmp	r1, r5
 1505 0050 F3D3     		bcc	.L12
 575:Drivers/CMSIS/DSP/Source/TransformFunctions/arm_cfft_f32.c ****         {
 1506              		.loc 1 575 19 is_stmt 0 discriminator 1 view .LVU655
 1507 0052 DEE7     		b	.L10
 1508              	.LVL233:
 1509              	.L16:
 582:Drivers/CMSIS/DSP/Source/TransformFunctions/arm_cfft_f32.c ****     {
 1510              		.loc 1 582 5 view .LVU656
 1511 0054 802D     		cmp	r5, #128
 1512 0056 03D1     		bne	.L18
 1513              	.L17:
 587:Drivers/CMSIS/DSP/Source/TransformFunctions/arm_cfft_f32.c ****         break;
 1514              		.loc 1 587 9 is_stmt 1 view .LVU657
 1515 0058 2146     		mov	r1, r4
 1516 005a 3046     		mov	r0, r6
 1517              	.LVL234:
 587:Drivers/CMSIS/DSP/Source/TransformFunctions/arm_cfft_f32.c ****         break;
 1518              		.loc 1 587 9 is_stmt 0 view .LVU658
 1519 005c FFF7FEFF 		bl	arm_cfft_radix8by2_f32
 1520              	.LVL235:
 588:Drivers/CMSIS/DSP/Source/TransformFunctions/arm_cfft_f32.c ****     case 32:
 1521              		.loc 1 588 9 is_stmt 1 view .LVU659
 1522              	.L18:
 594:Drivers/CMSIS/DSP/Source/TransformFunctions/arm_cfft_f32.c ****     case 64:
 595:Drivers/CMSIS/DSP/Source/TransformFunctions/arm_cfft_f32.c ****     case 512:
 596:Drivers/CMSIS/DSP/Source/TransformFunctions/arm_cfft_f32.c ****     case 4096:
 597:Drivers/CMSIS/DSP/Source/TransformFunctions/arm_cfft_f32.c ****         arm_radix8_butterfly_f32( p1, L, (float32_t *) S->pTwiddle, 1);
 598:Drivers/CMSIS/DSP/Source/TransformFunctions/arm_cfft_f32.c ****         break;
 599:Drivers/CMSIS/DSP/Source/TransformFunctions/arm_cfft_f32.c ****     }
 600:Drivers/CMSIS/DSP/Source/TransformFunctions/arm_cfft_f32.c **** 
 601:Drivers/CMSIS/DSP/Source/TransformFunctions/arm_cfft_f32.c ****     if ( bitReverseFlag )
 1523              		.loc 1 601 5 view .LVU660
 1524              		.loc 1 601 8 is_stmt 0 view .LVU661
 1525 0060 B8F1000F 		cmp	r8, #0
 1526 0064 18D1     		bne	.L26
 1527              	.L20:
 602:Drivers/CMSIS/DSP/Source/TransformFunctions/arm_cfft_f32.c ****         arm_bitreversal_32((uint32_t*)p1,S->bitRevLength,S->pBitRevTable);
 603:Drivers/CMSIS/DSP/Source/TransformFunctions/arm_cfft_f32.c **** 
 604:Drivers/CMSIS/DSP/Source/TransformFunctions/arm_cfft_f32.c ****     if (ifftFlag == 1U)
 1528              		.loc 1 604 5 is_stmt 1 view .LVU662
 1529              		.loc 1 604 8 is_stmt 0 view .LVU663
 1530 0066 012F     		cmp	r7, #1
 1531 0068 1CD0     		beq	.L27
 1532              	.LVL236:
ARM GAS  /var/folders/n6/c271nzx11xl4r4_m7sqjlt0m0000gn/T//ccyMl37L.s 			page 39


 1533              	.L9:
 605:Drivers/CMSIS/DSP/Source/TransformFunctions/arm_cfft_f32.c ****     {
 606:Drivers/CMSIS/DSP/Source/TransformFunctions/arm_cfft_f32.c ****         invL = 1.0f/(float32_t)L;
 607:Drivers/CMSIS/DSP/Source/TransformFunctions/arm_cfft_f32.c ****         /*  Conjugate and scale output data */
 608:Drivers/CMSIS/DSP/Source/TransformFunctions/arm_cfft_f32.c ****         pSrc = p1;
 609:Drivers/CMSIS/DSP/Source/TransformFunctions/arm_cfft_f32.c ****         for(l=0; l<L; l++)
 610:Drivers/CMSIS/DSP/Source/TransformFunctions/arm_cfft_f32.c ****         {
 611:Drivers/CMSIS/DSP/Source/TransformFunctions/arm_cfft_f32.c ****             *pSrc++ *=   invL ;
 612:Drivers/CMSIS/DSP/Source/TransformFunctions/arm_cfft_f32.c ****             *pSrc  = -(*pSrc) * invL;
 613:Drivers/CMSIS/DSP/Source/TransformFunctions/arm_cfft_f32.c ****             pSrc++;
 614:Drivers/CMSIS/DSP/Source/TransformFunctions/arm_cfft_f32.c ****         }
 615:Drivers/CMSIS/DSP/Source/TransformFunctions/arm_cfft_f32.c ****     }
 616:Drivers/CMSIS/DSP/Source/TransformFunctions/arm_cfft_f32.c **** }
 1534              		.loc 1 616 1 view .LVU664
 1535 006a BDE8F081 		pop	{r4, r5, r6, r7, r8, pc}
 1536              	.LVL237:
 1537              	.L14:
 582:Drivers/CMSIS/DSP/Source/TransformFunctions/arm_cfft_f32.c ****     {
 1538              		.loc 1 582 5 view .LVU665
 1539 006e B5F5006F 		cmp	r5, #2048
 1540 0072 D9D0     		beq	.L13
 1541 0074 06D8     		bhi	.L19
 1542 0076 B5F5007F 		cmp	r5, #512
 1543 007a 06D0     		beq	.L15
 1544 007c B5F5806F 		cmp	r5, #1024
 1545 0080 EAD0     		beq	.L17
 1546 0082 EDE7     		b	.L18
 1547              	.L19:
 1548 0084 B5F5805F 		cmp	r5, #4096
 1549 0088 EAD1     		bne	.L18
 1550              	.L15:
 597:Drivers/CMSIS/DSP/Source/TransformFunctions/arm_cfft_f32.c ****         break;
 1551              		.loc 1 597 9 is_stmt 1 view .LVU666
 1552 008a 0123     		movs	r3, #1
 1553 008c 7268     		ldr	r2, [r6, #4]
 1554              	.LVL238:
 597:Drivers/CMSIS/DSP/Source/TransformFunctions/arm_cfft_f32.c ****         break;
 1555              		.loc 1 597 9 is_stmt 0 view .LVU667
 1556 008e 2946     		mov	r1, r5
 1557 0090 2046     		mov	r0, r4
 1558              	.LVL239:
 597:Drivers/CMSIS/DSP/Source/TransformFunctions/arm_cfft_f32.c ****         break;
 1559              		.loc 1 597 9 view .LVU668
 1560 0092 FFF7FEFF 		bl	arm_radix8_butterfly_f32
 1561              	.LVL240:
 598:Drivers/CMSIS/DSP/Source/TransformFunctions/arm_cfft_f32.c ****     }
 1562              		.loc 1 598 9 is_stmt 1 view .LVU669
 1563 0096 E3E7     		b	.L18
 1564              	.L26:
 602:Drivers/CMSIS/DSP/Source/TransformFunctions/arm_cfft_f32.c **** 
 1565              		.loc 1 602 9 view .LVU670
 1566 0098 B268     		ldr	r2, [r6, #8]
 1567 009a B189     		ldrh	r1, [r6, #12]
 1568 009c 2046     		mov	r0, r4
 1569 009e FFF7FEFF 		bl	arm_bitreversal_32
 1570              	.LVL241:
 1571 00a2 E0E7     		b	.L20
ARM GAS  /var/folders/n6/c271nzx11xl4r4_m7sqjlt0m0000gn/T//ccyMl37L.s 			page 40


 1572              	.L27:
 606:Drivers/CMSIS/DSP/Source/TransformFunctions/arm_cfft_f32.c ****         /*  Conjugate and scale output data */
 1573              		.loc 1 606 9 view .LVU671
 606:Drivers/CMSIS/DSP/Source/TransformFunctions/arm_cfft_f32.c ****         /*  Conjugate and scale output data */
 1574              		.loc 1 606 21 is_stmt 0 view .LVU672
 1575 00a4 07EE905A 		vmov	s15, r5	@ int
 1576 00a8 F8EE677A 		vcvt.f32.u32	s15, s15
 606:Drivers/CMSIS/DSP/Source/TransformFunctions/arm_cfft_f32.c ****         /*  Conjugate and scale output data */
 1577              		.loc 1 606 14 view .LVU673
 1578 00ac F7EE006A 		vmov.f32	s13, #1.0e+0
 1579 00b0 86EEA77A 		vdiv.f32	s14, s13, s15
 1580              	.LVL242:
 608:Drivers/CMSIS/DSP/Source/TransformFunctions/arm_cfft_f32.c ****         for(l=0; l<L; l++)
 1581              		.loc 1 608 9 is_stmt 1 view .LVU674
 609:Drivers/CMSIS/DSP/Source/TransformFunctions/arm_cfft_f32.c ****         {
 1582              		.loc 1 609 9 view .LVU675
 609:Drivers/CMSIS/DSP/Source/TransformFunctions/arm_cfft_f32.c ****         {
 1583              		.loc 1 609 14 is_stmt 0 view .LVU676
 1584 00b4 0023     		movs	r3, #0
 609:Drivers/CMSIS/DSP/Source/TransformFunctions/arm_cfft_f32.c ****         {
 1585              		.loc 1 609 9 view .LVU677
 1586 00b6 0DE0     		b	.L22
 1587              	.LVL243:
 1588              	.L23:
 611:Drivers/CMSIS/DSP/Source/TransformFunctions/arm_cfft_f32.c ****             *pSrc  = -(*pSrc) * invL;
 1589              		.loc 1 611 13 is_stmt 1 view .LVU678
 611:Drivers/CMSIS/DSP/Source/TransformFunctions/arm_cfft_f32.c ****             *pSrc  = -(*pSrc) * invL;
 1590              		.loc 1 611 13 is_stmt 0 view .LVU679
 1591 00b8 D4ED007A 		vldr.32	s15, [r4]
 611:Drivers/CMSIS/DSP/Source/TransformFunctions/arm_cfft_f32.c ****             *pSrc  = -(*pSrc) * invL;
 1592              		.loc 1 611 21 view .LVU680
 1593 00bc 67EE877A 		vmul.f32	s15, s15, s14
 1594 00c0 C4ED007A 		vstr.32	s15, [r4]
 612:Drivers/CMSIS/DSP/Source/TransformFunctions/arm_cfft_f32.c ****             pSrc++;
 1595              		.loc 1 612 13 is_stmt 1 view .LVU681
 612:Drivers/CMSIS/DSP/Source/TransformFunctions/arm_cfft_f32.c ****             pSrc++;
 1596              		.loc 1 612 24 is_stmt 0 view .LVU682
 1597 00c4 D4ED017A 		vldr.32	s15, [r4, #4]
 612:Drivers/CMSIS/DSP/Source/TransformFunctions/arm_cfft_f32.c ****             pSrc++;
 1598              		.loc 1 612 31 view .LVU683
 1599 00c8 67EEC77A 		vnmul.f32	s15, s15, s14
 612:Drivers/CMSIS/DSP/Source/TransformFunctions/arm_cfft_f32.c ****             pSrc++;
 1600              		.loc 1 612 20 view .LVU684
 1601 00cc C4ED017A 		vstr.32	s15, [r4, #4]
 613:Drivers/CMSIS/DSP/Source/TransformFunctions/arm_cfft_f32.c ****         }
 1602              		.loc 1 613 13 is_stmt 1 view .LVU685
 613:Drivers/CMSIS/DSP/Source/TransformFunctions/arm_cfft_f32.c ****         }
 1603              		.loc 1 613 17 is_stmt 0 view .LVU686
 1604 00d0 0834     		adds	r4, r4, #8
 1605              	.LVL244:
 609:Drivers/CMSIS/DSP/Source/TransformFunctions/arm_cfft_f32.c ****         {
 1606              		.loc 1 609 24 is_stmt 1 discriminator 3 view .LVU687
 1607 00d2 0133     		adds	r3, r3, #1
 1608              	.LVL245:
 1609              	.L22:
 609:Drivers/CMSIS/DSP/Source/TransformFunctions/arm_cfft_f32.c ****         {
 1610              		.loc 1 609 19 discriminator 1 view .LVU688
ARM GAS  /var/folders/n6/c271nzx11xl4r4_m7sqjlt0m0000gn/T//ccyMl37L.s 			page 41


 1611 00d4 AB42     		cmp	r3, r5
 1612 00d6 EFD3     		bcc	.L23
 609:Drivers/CMSIS/DSP/Source/TransformFunctions/arm_cfft_f32.c ****         {
 1613              		.loc 1 609 19 is_stmt 0 discriminator 1 view .LVU689
 1614 00d8 C7E7     		b	.L9
 1615              		.cfi_endproc
 1616              	.LFE137:
 1618              		.text
 1619              	.Letext0:
 1620              		.file 2 "/Users/killian/Library/Application Support/Code/User/globalStorage/bmd.stm32-for-vscode/@
 1621              		.file 3 "/Users/killian/Library/Application Support/Code/User/globalStorage/bmd.stm32-for-vscode/@
 1622              		.file 4 "Drivers/CMSIS/DSP/Include/arm_math.h"
ARM GAS  /var/folders/n6/c271nzx11xl4r4_m7sqjlt0m0000gn/T//ccyMl37L.s 			page 42

