ARM GAS  /var/folders/n6/c271nzx11xl4r4_m7sqjlt0m0000gn/T//cce6Hhbh.s 			page 1


   1              		.cpu cortex-m7
   2              		.arch armv7e-m
   3              		.fpu fpv5-d16
   4              		.eabi_attribute 28, 1
   5              		.eabi_attribute 20, 1
   6              		.eabi_attribute 21, 1
   7              		.eabi_attribute 23, 3
   8              		.eabi_attribute 24, 1
   9              		.eabi_attribute 25, 1
  10              		.eabi_attribute 26, 1
  11              		.eabi_attribute 30, 1
  12              		.eabi_attribute 34, 1
  13              		.eabi_attribute 18, 4
  14              		.file	"arm_q15_to_q31.c"
  15              		.text
  16              	.Ltext0:
  17              		.cfi_sections	.debug_frame
  18              		.file 1 "Drivers/CMSIS/DSP/Source/SupportFunctions/arm_q15_to_q31.c"
  19              		.section	.text.arm_q15_to_q31,"ax",%progbits
  20              		.align	1
  21              		.global	arm_q15_to_q31
  22              		.syntax unified
  23              		.thumb
  24              		.thumb_func
  26              	arm_q15_to_q31:
  27              	.LVL0:
  28              	.LFB135:
   1:Drivers/CMSIS/DSP/Source/SupportFunctions/arm_q15_to_q31.c **** /* ----------------------------------------------------------------------
   2:Drivers/CMSIS/DSP/Source/SupportFunctions/arm_q15_to_q31.c ****  * Project:      CMSIS DSP Library
   3:Drivers/CMSIS/DSP/Source/SupportFunctions/arm_q15_to_q31.c ****  * Title:        arm_q15_to_q31.c
   4:Drivers/CMSIS/DSP/Source/SupportFunctions/arm_q15_to_q31.c ****  * Description:  Converts the elements of the Q15 vector to Q31 vector
   5:Drivers/CMSIS/DSP/Source/SupportFunctions/arm_q15_to_q31.c ****  *
   6:Drivers/CMSIS/DSP/Source/SupportFunctions/arm_q15_to_q31.c ****  * $Date:        27. January 2017
   7:Drivers/CMSIS/DSP/Source/SupportFunctions/arm_q15_to_q31.c ****  * $Revision:    V.1.5.1
   8:Drivers/CMSIS/DSP/Source/SupportFunctions/arm_q15_to_q31.c ****  *
   9:Drivers/CMSIS/DSP/Source/SupportFunctions/arm_q15_to_q31.c ****  * Target Processor: Cortex-M cores
  10:Drivers/CMSIS/DSP/Source/SupportFunctions/arm_q15_to_q31.c ****  * -------------------------------------------------------------------- */
  11:Drivers/CMSIS/DSP/Source/SupportFunctions/arm_q15_to_q31.c **** /*
  12:Drivers/CMSIS/DSP/Source/SupportFunctions/arm_q15_to_q31.c ****  * Copyright (C) 2010-2017 ARM Limited or its affiliates. All rights reserved.
  13:Drivers/CMSIS/DSP/Source/SupportFunctions/arm_q15_to_q31.c ****  *
  14:Drivers/CMSIS/DSP/Source/SupportFunctions/arm_q15_to_q31.c ****  * SPDX-License-Identifier: Apache-2.0
  15:Drivers/CMSIS/DSP/Source/SupportFunctions/arm_q15_to_q31.c ****  *
  16:Drivers/CMSIS/DSP/Source/SupportFunctions/arm_q15_to_q31.c ****  * Licensed under the Apache License, Version 2.0 (the License); you may
  17:Drivers/CMSIS/DSP/Source/SupportFunctions/arm_q15_to_q31.c ****  * not use this file except in compliance with the License.
  18:Drivers/CMSIS/DSP/Source/SupportFunctions/arm_q15_to_q31.c ****  * You may obtain a copy of the License at
  19:Drivers/CMSIS/DSP/Source/SupportFunctions/arm_q15_to_q31.c ****  *
  20:Drivers/CMSIS/DSP/Source/SupportFunctions/arm_q15_to_q31.c ****  * www.apache.org/licenses/LICENSE-2.0
  21:Drivers/CMSIS/DSP/Source/SupportFunctions/arm_q15_to_q31.c ****  *
  22:Drivers/CMSIS/DSP/Source/SupportFunctions/arm_q15_to_q31.c ****  * Unless required by applicable law or agreed to in writing, software
  23:Drivers/CMSIS/DSP/Source/SupportFunctions/arm_q15_to_q31.c ****  * distributed under the License is distributed on an AS IS BASIS, WITHOUT
  24:Drivers/CMSIS/DSP/Source/SupportFunctions/arm_q15_to_q31.c ****  * WARRANTIES OR CONDITIONS OF ANY KIND, either express or implied.
  25:Drivers/CMSIS/DSP/Source/SupportFunctions/arm_q15_to_q31.c ****  * See the License for the specific language governing permissions and
  26:Drivers/CMSIS/DSP/Source/SupportFunctions/arm_q15_to_q31.c ****  * limitations under the License.
  27:Drivers/CMSIS/DSP/Source/SupportFunctions/arm_q15_to_q31.c ****  */
  28:Drivers/CMSIS/DSP/Source/SupportFunctions/arm_q15_to_q31.c **** 
  29:Drivers/CMSIS/DSP/Source/SupportFunctions/arm_q15_to_q31.c **** #include "arm_math.h"
  30:Drivers/CMSIS/DSP/Source/SupportFunctions/arm_q15_to_q31.c **** 
ARM GAS  /var/folders/n6/c271nzx11xl4r4_m7sqjlt0m0000gn/T//cce6Hhbh.s 			page 2


  31:Drivers/CMSIS/DSP/Source/SupportFunctions/arm_q15_to_q31.c **** /**
  32:Drivers/CMSIS/DSP/Source/SupportFunctions/arm_q15_to_q31.c ****  * @ingroup groupSupport
  33:Drivers/CMSIS/DSP/Source/SupportFunctions/arm_q15_to_q31.c ****  */
  34:Drivers/CMSIS/DSP/Source/SupportFunctions/arm_q15_to_q31.c **** 
  35:Drivers/CMSIS/DSP/Source/SupportFunctions/arm_q15_to_q31.c **** /**
  36:Drivers/CMSIS/DSP/Source/SupportFunctions/arm_q15_to_q31.c ****  * @addtogroup q15_to_x
  37:Drivers/CMSIS/DSP/Source/SupportFunctions/arm_q15_to_q31.c ****  * @{
  38:Drivers/CMSIS/DSP/Source/SupportFunctions/arm_q15_to_q31.c ****  */
  39:Drivers/CMSIS/DSP/Source/SupportFunctions/arm_q15_to_q31.c **** 
  40:Drivers/CMSIS/DSP/Source/SupportFunctions/arm_q15_to_q31.c **** /**
  41:Drivers/CMSIS/DSP/Source/SupportFunctions/arm_q15_to_q31.c ****  * @brief Converts the elements of the Q15 vector to Q31 vector.
  42:Drivers/CMSIS/DSP/Source/SupportFunctions/arm_q15_to_q31.c ****  * @param[in]       *pSrc points to the Q15 input vector
  43:Drivers/CMSIS/DSP/Source/SupportFunctions/arm_q15_to_q31.c ****  * @param[out]      *pDst points to the Q31 output vector
  44:Drivers/CMSIS/DSP/Source/SupportFunctions/arm_q15_to_q31.c ****  * @param[in]       blockSize length of the input vector
  45:Drivers/CMSIS/DSP/Source/SupportFunctions/arm_q15_to_q31.c ****  * @return none.
  46:Drivers/CMSIS/DSP/Source/SupportFunctions/arm_q15_to_q31.c ****  *
  47:Drivers/CMSIS/DSP/Source/SupportFunctions/arm_q15_to_q31.c ****  * \par Description:
  48:Drivers/CMSIS/DSP/Source/SupportFunctions/arm_q15_to_q31.c ****  *
  49:Drivers/CMSIS/DSP/Source/SupportFunctions/arm_q15_to_q31.c ****  * The equation used for the conversion process is:
  50:Drivers/CMSIS/DSP/Source/SupportFunctions/arm_q15_to_q31.c ****  *
  51:Drivers/CMSIS/DSP/Source/SupportFunctions/arm_q15_to_q31.c ****  * <pre>
  52:Drivers/CMSIS/DSP/Source/SupportFunctions/arm_q15_to_q31.c ****  * 	pDst[n] = (q31_t) pSrc[n] << 16;   0 <= n < blockSize.
  53:Drivers/CMSIS/DSP/Source/SupportFunctions/arm_q15_to_q31.c ****  * </pre>
  54:Drivers/CMSIS/DSP/Source/SupportFunctions/arm_q15_to_q31.c ****  *
  55:Drivers/CMSIS/DSP/Source/SupportFunctions/arm_q15_to_q31.c ****  */
  56:Drivers/CMSIS/DSP/Source/SupportFunctions/arm_q15_to_q31.c **** 
  57:Drivers/CMSIS/DSP/Source/SupportFunctions/arm_q15_to_q31.c **** 
  58:Drivers/CMSIS/DSP/Source/SupportFunctions/arm_q15_to_q31.c **** void arm_q15_to_q31(
  59:Drivers/CMSIS/DSP/Source/SupportFunctions/arm_q15_to_q31.c ****   q15_t * pSrc,
  60:Drivers/CMSIS/DSP/Source/SupportFunctions/arm_q15_to_q31.c ****   q31_t * pDst,
  61:Drivers/CMSIS/DSP/Source/SupportFunctions/arm_q15_to_q31.c ****   uint32_t blockSize)
  62:Drivers/CMSIS/DSP/Source/SupportFunctions/arm_q15_to_q31.c **** {
  29              		.loc 1 62 1 view -0
  30              		.cfi_startproc
  31              		@ args = 0, pretend = 0, frame = 0
  32              		@ frame_needed = 0, uses_anonymous_args = 0
  33              		@ link register save eliminated.
  34              		.loc 1 62 1 is_stmt 0 view .LVU1
  35 0000 F0B4     		push	{r4, r5, r6, r7}
  36              		.cfi_def_cfa_offset 16
  37              		.cfi_offset 4, -16
  38              		.cfi_offset 5, -12
  39              		.cfi_offset 6, -8
  40              		.cfi_offset 7, -4
  63:Drivers/CMSIS/DSP/Source/SupportFunctions/arm_q15_to_q31.c ****   q15_t *pIn = pSrc;                             /* Src pointer */
  41              		.loc 1 63 3 is_stmt 1 view .LVU2
  42              	.LVL1:
  64:Drivers/CMSIS/DSP/Source/SupportFunctions/arm_q15_to_q31.c ****   uint32_t blkCnt;                               /* loop counter */
  43              		.loc 1 64 3 view .LVU3
  65:Drivers/CMSIS/DSP/Source/SupportFunctions/arm_q15_to_q31.c **** 
  66:Drivers/CMSIS/DSP/Source/SupportFunctions/arm_q15_to_q31.c **** #if defined (ARM_MATH_DSP)
  67:Drivers/CMSIS/DSP/Source/SupportFunctions/arm_q15_to_q31.c **** 
  68:Drivers/CMSIS/DSP/Source/SupportFunctions/arm_q15_to_q31.c ****   /* Run the below code for Cortex-M4 and Cortex-M3 */
  69:Drivers/CMSIS/DSP/Source/SupportFunctions/arm_q15_to_q31.c ****   q31_t in1, in2;
  44              		.loc 1 69 3 view .LVU4
  70:Drivers/CMSIS/DSP/Source/SupportFunctions/arm_q15_to_q31.c ****   q31_t out1, out2, out3, out4;
  45              		.loc 1 70 3 view .LVU5
ARM GAS  /var/folders/n6/c271nzx11xl4r4_m7sqjlt0m0000gn/T//cce6Hhbh.s 			page 3


  71:Drivers/CMSIS/DSP/Source/SupportFunctions/arm_q15_to_q31.c **** 
  72:Drivers/CMSIS/DSP/Source/SupportFunctions/arm_q15_to_q31.c ****   /*loop Unrolling */
  73:Drivers/CMSIS/DSP/Source/SupportFunctions/arm_q15_to_q31.c ****   blkCnt = blockSize >> 2U;
  46              		.loc 1 73 3 view .LVU6
  47              		.loc 1 73 10 is_stmt 0 view .LVU7
  48 0002 9508     		lsrs	r5, r2, #2
  49              	.LVL2:
  74:Drivers/CMSIS/DSP/Source/SupportFunctions/arm_q15_to_q31.c **** 
  75:Drivers/CMSIS/DSP/Source/SupportFunctions/arm_q15_to_q31.c ****   /* First part of the processing with loop unrolling.  Compute 4 outputs at a time.
  76:Drivers/CMSIS/DSP/Source/SupportFunctions/arm_q15_to_q31.c ****    ** a second loop below computes the remaining 1 to 3 samples. */
  77:Drivers/CMSIS/DSP/Source/SupportFunctions/arm_q15_to_q31.c ****   while (blkCnt > 0U)
  50              		.loc 1 77 3 is_stmt 1 view .LVU8
  51              		.loc 1 77 9 is_stmt 0 view .LVU9
  52 0004 0FE0     		b	.L2
  53              	.LVL3:
  54              	.L3:
  78:Drivers/CMSIS/DSP/Source/SupportFunctions/arm_q15_to_q31.c ****   {
  79:Drivers/CMSIS/DSP/Source/SupportFunctions/arm_q15_to_q31.c ****     /* C = (q31_t)A << 16 */
  80:Drivers/CMSIS/DSP/Source/SupportFunctions/arm_q15_to_q31.c ****     /* convert from q15 to q31 and then store the results in the destination buffer */
  81:Drivers/CMSIS/DSP/Source/SupportFunctions/arm_q15_to_q31.c ****     in1 = *__SIMD32(pIn)++;
  55              		.loc 1 81 5 is_stmt 1 view .LVU10
  56              		.loc 1 81 9 is_stmt 0 view .LVU11
  57 0006 8446     		mov	ip, r0
  58 0008 5CF8084B 		ldr	r4, [ip], #8
  59              	.LVL4:
  82:Drivers/CMSIS/DSP/Source/SupportFunctions/arm_q15_to_q31.c ****     in2 = *__SIMD32(pIn)++;
  60              		.loc 1 82 5 is_stmt 1 view .LVU12
  61              		.loc 1 82 9 is_stmt 0 view .LVU13
  62 000c 4368     		ldr	r3, [r0, #4]
  63              	.LVL5:
  83:Drivers/CMSIS/DSP/Source/SupportFunctions/arm_q15_to_q31.c **** 
  84:Drivers/CMSIS/DSP/Source/SupportFunctions/arm_q15_to_q31.c **** #ifndef ARM_MATH_BIG_ENDIAN
  85:Drivers/CMSIS/DSP/Source/SupportFunctions/arm_q15_to_q31.c **** 
  86:Drivers/CMSIS/DSP/Source/SupportFunctions/arm_q15_to_q31.c ****     /* extract lower 16 bits to 32 bit result */
  87:Drivers/CMSIS/DSP/Source/SupportFunctions/arm_q15_to_q31.c ****     out1 = in1 << 16U;
  64              		.loc 1 87 5 is_stmt 1 view .LVU14
  65              		.loc 1 87 10 is_stmt 0 view .LVU15
  66 000e 2704     		lsls	r7, r4, #16
  67              	.LVL6:
  88:Drivers/CMSIS/DSP/Source/SupportFunctions/arm_q15_to_q31.c ****     /* extract upper 16 bits to 32 bit result */
  89:Drivers/CMSIS/DSP/Source/SupportFunctions/arm_q15_to_q31.c ****     out2 = in1 & 0xFFFF0000;
  68              		.loc 1 89 5 is_stmt 1 view .LVU16
  69              		.loc 1 89 10 is_stmt 0 view .LVU17
  70 0010 0C48     		ldr	r0, .L7
  71 0012 0440     		ands	r4, r4, r0
  72              	.LVL7:
  90:Drivers/CMSIS/DSP/Source/SupportFunctions/arm_q15_to_q31.c ****     /* extract lower 16 bits to 32 bit result */
  91:Drivers/CMSIS/DSP/Source/SupportFunctions/arm_q15_to_q31.c ****     out3 = in2 << 16U;
  73              		.loc 1 91 5 is_stmt 1 view .LVU18
  74              		.loc 1 91 10 is_stmt 0 view .LVU19
  75 0014 1E04     		lsls	r6, r3, #16
  76              	.LVL8:
  92:Drivers/CMSIS/DSP/Source/SupportFunctions/arm_q15_to_q31.c ****     /* extract upper 16 bits to 32 bit result */
  93:Drivers/CMSIS/DSP/Source/SupportFunctions/arm_q15_to_q31.c ****     out4 = in2 & 0xFFFF0000;
  77              		.loc 1 93 5 is_stmt 1 view .LVU20
  78              		.loc 1 93 10 is_stmt 0 view .LVU21
  79 0016 0340     		ands	r3, r3, r0
ARM GAS  /var/folders/n6/c271nzx11xl4r4_m7sqjlt0m0000gn/T//cce6Hhbh.s 			page 4


  80              	.LVL9:
  94:Drivers/CMSIS/DSP/Source/SupportFunctions/arm_q15_to_q31.c **** 
  95:Drivers/CMSIS/DSP/Source/SupportFunctions/arm_q15_to_q31.c **** #else
  96:Drivers/CMSIS/DSP/Source/SupportFunctions/arm_q15_to_q31.c **** 
  97:Drivers/CMSIS/DSP/Source/SupportFunctions/arm_q15_to_q31.c ****     /* extract upper 16 bits to 32 bit result */
  98:Drivers/CMSIS/DSP/Source/SupportFunctions/arm_q15_to_q31.c ****     out1 = in1 & 0xFFFF0000;
  99:Drivers/CMSIS/DSP/Source/SupportFunctions/arm_q15_to_q31.c ****     /* extract lower 16 bits to 32 bit result */
 100:Drivers/CMSIS/DSP/Source/SupportFunctions/arm_q15_to_q31.c ****     out2 = in1 << 16U;
 101:Drivers/CMSIS/DSP/Source/SupportFunctions/arm_q15_to_q31.c ****     /* extract upper 16 bits to 32 bit result */
 102:Drivers/CMSIS/DSP/Source/SupportFunctions/arm_q15_to_q31.c ****     out3 = in2 & 0xFFFF0000;
 103:Drivers/CMSIS/DSP/Source/SupportFunctions/arm_q15_to_q31.c ****     /* extract lower 16 bits to 32 bit result */
 104:Drivers/CMSIS/DSP/Source/SupportFunctions/arm_q15_to_q31.c ****     out4 = in2 << 16U;
 105:Drivers/CMSIS/DSP/Source/SupportFunctions/arm_q15_to_q31.c **** 
 106:Drivers/CMSIS/DSP/Source/SupportFunctions/arm_q15_to_q31.c **** #endif //      #ifndef ARM_MATH_BIG_ENDIAN
 107:Drivers/CMSIS/DSP/Source/SupportFunctions/arm_q15_to_q31.c **** 
 108:Drivers/CMSIS/DSP/Source/SupportFunctions/arm_q15_to_q31.c ****     *pDst++ = out1;
  81              		.loc 1 108 5 is_stmt 1 view .LVU22
  82              		.loc 1 108 13 is_stmt 0 view .LVU23
  83 0018 0F60     		str	r7, [r1]
  84              	.LVL10:
 109:Drivers/CMSIS/DSP/Source/SupportFunctions/arm_q15_to_q31.c ****     *pDst++ = out2;
  85              		.loc 1 109 5 is_stmt 1 view .LVU24
  86              		.loc 1 109 13 is_stmt 0 view .LVU25
  87 001a 4C60     		str	r4, [r1, #4]
 110:Drivers/CMSIS/DSP/Source/SupportFunctions/arm_q15_to_q31.c ****     *pDst++ = out3;
  88              		.loc 1 110 5 is_stmt 1 view .LVU26
  89              	.LVL11:
  90              		.loc 1 110 13 is_stmt 0 view .LVU27
  91 001c 8E60     		str	r6, [r1, #8]
 111:Drivers/CMSIS/DSP/Source/SupportFunctions/arm_q15_to_q31.c ****     *pDst++ = out4;
  92              		.loc 1 111 5 is_stmt 1 view .LVU28
  93              	.LVL12:
  94              		.loc 1 111 13 is_stmt 0 view .LVU29
  95 001e CB60     		str	r3, [r1, #12]
 112:Drivers/CMSIS/DSP/Source/SupportFunctions/arm_q15_to_q31.c **** 
 113:Drivers/CMSIS/DSP/Source/SupportFunctions/arm_q15_to_q31.c ****     /* Decrement the loop counter */
 114:Drivers/CMSIS/DSP/Source/SupportFunctions/arm_q15_to_q31.c ****     blkCnt--;
  96              		.loc 1 114 5 is_stmt 1 view .LVU30
  97              		.loc 1 114 11 is_stmt 0 view .LVU31
  98 0020 013D     		subs	r5, r5, #1
  99              	.LVL13:
  82:Drivers/CMSIS/DSP/Source/SupportFunctions/arm_q15_to_q31.c **** 
 100              		.loc 1 82 25 view .LVU32
 101 0022 6046     		mov	r0, ip
 111:Drivers/CMSIS/DSP/Source/SupportFunctions/arm_q15_to_q31.c ****     *pDst++ = out4;
 102              		.loc 1 111 10 view .LVU33
 103 0024 1031     		adds	r1, r1, #16
 104              	.LVL14:
 105              	.L2:
  77:Drivers/CMSIS/DSP/Source/SupportFunctions/arm_q15_to_q31.c ****   {
 106              		.loc 1 77 17 is_stmt 1 view .LVU34
 107 0026 002D     		cmp	r5, #0
 108 0028 EDD1     		bne	.L3
 115:Drivers/CMSIS/DSP/Source/SupportFunctions/arm_q15_to_q31.c ****   }
 116:Drivers/CMSIS/DSP/Source/SupportFunctions/arm_q15_to_q31.c **** 
 117:Drivers/CMSIS/DSP/Source/SupportFunctions/arm_q15_to_q31.c ****   /* If the blockSize is not a multiple of 4, compute any remaining output samples here.
 118:Drivers/CMSIS/DSP/Source/SupportFunctions/arm_q15_to_q31.c ****    ** No loop unrolling is used. */
ARM GAS  /var/folders/n6/c271nzx11xl4r4_m7sqjlt0m0000gn/T//cce6Hhbh.s 			page 5


 119:Drivers/CMSIS/DSP/Source/SupportFunctions/arm_q15_to_q31.c ****   blkCnt = blockSize % 0x4U;
 109              		.loc 1 119 3 view .LVU35
 110              		.loc 1 119 10 is_stmt 0 view .LVU36
 111 002a 02F00302 		and	r2, r2, #3
 112              	.LVL15:
 120:Drivers/CMSIS/DSP/Source/SupportFunctions/arm_q15_to_q31.c **** 
 121:Drivers/CMSIS/DSP/Source/SupportFunctions/arm_q15_to_q31.c **** #else
 122:Drivers/CMSIS/DSP/Source/SupportFunctions/arm_q15_to_q31.c **** 
 123:Drivers/CMSIS/DSP/Source/SupportFunctions/arm_q15_to_q31.c ****   /* Run the below code for Cortex-M0 */
 124:Drivers/CMSIS/DSP/Source/SupportFunctions/arm_q15_to_q31.c **** 
 125:Drivers/CMSIS/DSP/Source/SupportFunctions/arm_q15_to_q31.c ****   /* Loop over blockSize number of values */
 126:Drivers/CMSIS/DSP/Source/SupportFunctions/arm_q15_to_q31.c ****   blkCnt = blockSize;
 127:Drivers/CMSIS/DSP/Source/SupportFunctions/arm_q15_to_q31.c **** 
 128:Drivers/CMSIS/DSP/Source/SupportFunctions/arm_q15_to_q31.c **** #endif /* #if defined (ARM_MATH_DSP) */
 129:Drivers/CMSIS/DSP/Source/SupportFunctions/arm_q15_to_q31.c **** 
 130:Drivers/CMSIS/DSP/Source/SupportFunctions/arm_q15_to_q31.c ****   while (blkCnt > 0U)
 113              		.loc 1 130 3 is_stmt 1 view .LVU37
 114              		.loc 1 130 9 is_stmt 0 view .LVU38
 115 002e 05E0     		b	.L4
 116              	.L5:
 131:Drivers/CMSIS/DSP/Source/SupportFunctions/arm_q15_to_q31.c ****   {
 132:Drivers/CMSIS/DSP/Source/SupportFunctions/arm_q15_to_q31.c ****     /* C = (q31_t)A << 16 */
 133:Drivers/CMSIS/DSP/Source/SupportFunctions/arm_q15_to_q31.c ****     /* convert from q15 to q31 and then store the results in the destination buffer */
 134:Drivers/CMSIS/DSP/Source/SupportFunctions/arm_q15_to_q31.c ****     *pDst++ = (q31_t) * pIn++ << 16;
 117              		.loc 1 134 5 is_stmt 1 view .LVU39
 118              	.LVL16:
 119              		.loc 1 134 23 is_stmt 0 view .LVU40
 120 0030 30F9023B 		ldrsh	r3, [r0], #2
 121              	.LVL17:
 122              		.loc 1 134 31 view .LVU41
 123 0034 1B04     		lsls	r3, r3, #16
 124              		.loc 1 134 13 view .LVU42
 125 0036 41F8043B 		str	r3, [r1], #4
 126              	.LVL18:
 135:Drivers/CMSIS/DSP/Source/SupportFunctions/arm_q15_to_q31.c **** 
 136:Drivers/CMSIS/DSP/Source/SupportFunctions/arm_q15_to_q31.c ****     /* Decrement the loop counter */
 137:Drivers/CMSIS/DSP/Source/SupportFunctions/arm_q15_to_q31.c ****     blkCnt--;
 127              		.loc 1 137 5 is_stmt 1 view .LVU43
 128              		.loc 1 137 11 is_stmt 0 view .LVU44
 129 003a 013A     		subs	r2, r2, #1
 130              	.LVL19:
 131              	.L4:
 130:Drivers/CMSIS/DSP/Source/SupportFunctions/arm_q15_to_q31.c ****   {
 132              		.loc 1 130 17 is_stmt 1 view .LVU45
 133 003c 002A     		cmp	r2, #0
 134 003e F7D1     		bne	.L5
 138:Drivers/CMSIS/DSP/Source/SupportFunctions/arm_q15_to_q31.c ****   }
 139:Drivers/CMSIS/DSP/Source/SupportFunctions/arm_q15_to_q31.c **** 
 140:Drivers/CMSIS/DSP/Source/SupportFunctions/arm_q15_to_q31.c **** }
 135              		.loc 1 140 1 is_stmt 0 view .LVU46
 136 0040 F0BC     		pop	{r4, r5, r6, r7}
 137              		.cfi_restore 7
 138              		.cfi_restore 6
 139              		.cfi_restore 5
 140              		.cfi_restore 4
 141              		.cfi_def_cfa_offset 0
 142 0042 7047     		bx	lr
ARM GAS  /var/folders/n6/c271nzx11xl4r4_m7sqjlt0m0000gn/T//cce6Hhbh.s 			page 6


 143              	.L8:
 144              		.align	2
 145              	.L7:
 146 0044 0000FFFF 		.word	-65536
 147              		.cfi_endproc
 148              	.LFE135:
 150              		.text
 151              	.Letext0:
 152              		.file 2 "/Users/killian/Library/Application Support/Code/User/globalStorage/bmd.stm32-for-vscode/@
 153              		.file 3 "/Users/killian/Library/Application Support/Code/User/globalStorage/bmd.stm32-for-vscode/@
 154              		.file 4 "Drivers/CMSIS/DSP/Include/arm_math.h"
ARM GAS  /var/folders/n6/c271nzx11xl4r4_m7sqjlt0m0000gn/T//cce6Hhbh.s 			page 7

