ARM GAS  /var/folders/n6/c271nzx11xl4r4_m7sqjlt0m0000gn/T//ccHdWRuO.s 			page 1


   1              		.cpu cortex-m7
   2              		.arch armv7e-m
   3              		.fpu fpv5-d16
   4              		.eabi_attribute 28, 1
   5              		.eabi_attribute 20, 1
   6              		.eabi_attribute 21, 1
   7              		.eabi_attribute 23, 3
   8              		.eabi_attribute 24, 1
   9              		.eabi_attribute 25, 1
  10              		.eabi_attribute 26, 1
  11              		.eabi_attribute 30, 1
  12              		.eabi_attribute 34, 1
  13              		.eabi_attribute 18, 4
  14              		.file	"arm_cmplx_mag_q31.c"
  15              		.text
  16              	.Ltext0:
  17              		.cfi_sections	.debug_frame
  18              		.file 1 "Drivers/CMSIS/DSP/Source/ComplexMathFunctions/arm_cmplx_mag_q31.c"
  19              		.section	.text.arm_cmplx_mag_q31,"ax",%progbits
  20              		.align	1
  21              		.global	arm_cmplx_mag_q31
  22              		.syntax unified
  23              		.thumb
  24              		.thumb_func
  26              	arm_cmplx_mag_q31:
  27              	.LVL0:
  28              	.LFB135:
   1:Drivers/CMSIS/DSP/Source/ComplexMathFunctions/arm_cmplx_mag_q31.c **** /* ----------------------------------------------------------------------
   2:Drivers/CMSIS/DSP/Source/ComplexMathFunctions/arm_cmplx_mag_q31.c ****  * Project:      CMSIS DSP Library
   3:Drivers/CMSIS/DSP/Source/ComplexMathFunctions/arm_cmplx_mag_q31.c ****  * Title:        arm_cmplx_mag_q31.c
   4:Drivers/CMSIS/DSP/Source/ComplexMathFunctions/arm_cmplx_mag_q31.c ****  * Description:  Q31 complex magnitude
   5:Drivers/CMSIS/DSP/Source/ComplexMathFunctions/arm_cmplx_mag_q31.c ****  *
   6:Drivers/CMSIS/DSP/Source/ComplexMathFunctions/arm_cmplx_mag_q31.c ****  * $Date:        27. January 2017
   7:Drivers/CMSIS/DSP/Source/ComplexMathFunctions/arm_cmplx_mag_q31.c ****  * $Revision:    V.1.5.1
   8:Drivers/CMSIS/DSP/Source/ComplexMathFunctions/arm_cmplx_mag_q31.c ****  *
   9:Drivers/CMSIS/DSP/Source/ComplexMathFunctions/arm_cmplx_mag_q31.c ****  * Target Processor: Cortex-M cores
  10:Drivers/CMSIS/DSP/Source/ComplexMathFunctions/arm_cmplx_mag_q31.c ****  * -------------------------------------------------------------------- */
  11:Drivers/CMSIS/DSP/Source/ComplexMathFunctions/arm_cmplx_mag_q31.c **** /*
  12:Drivers/CMSIS/DSP/Source/ComplexMathFunctions/arm_cmplx_mag_q31.c ****  * Copyright (C) 2010-2017 ARM Limited or its affiliates. All rights reserved.
  13:Drivers/CMSIS/DSP/Source/ComplexMathFunctions/arm_cmplx_mag_q31.c ****  *
  14:Drivers/CMSIS/DSP/Source/ComplexMathFunctions/arm_cmplx_mag_q31.c ****  * SPDX-License-Identifier: Apache-2.0
  15:Drivers/CMSIS/DSP/Source/ComplexMathFunctions/arm_cmplx_mag_q31.c ****  *
  16:Drivers/CMSIS/DSP/Source/ComplexMathFunctions/arm_cmplx_mag_q31.c ****  * Licensed under the Apache License, Version 2.0 (the License); you may
  17:Drivers/CMSIS/DSP/Source/ComplexMathFunctions/arm_cmplx_mag_q31.c ****  * not use this file except in compliance with the License.
  18:Drivers/CMSIS/DSP/Source/ComplexMathFunctions/arm_cmplx_mag_q31.c ****  * You may obtain a copy of the License at
  19:Drivers/CMSIS/DSP/Source/ComplexMathFunctions/arm_cmplx_mag_q31.c ****  *
  20:Drivers/CMSIS/DSP/Source/ComplexMathFunctions/arm_cmplx_mag_q31.c ****  * www.apache.org/licenses/LICENSE-2.0
  21:Drivers/CMSIS/DSP/Source/ComplexMathFunctions/arm_cmplx_mag_q31.c ****  *
  22:Drivers/CMSIS/DSP/Source/ComplexMathFunctions/arm_cmplx_mag_q31.c ****  * Unless required by applicable law or agreed to in writing, software
  23:Drivers/CMSIS/DSP/Source/ComplexMathFunctions/arm_cmplx_mag_q31.c ****  * distributed under the License is distributed on an AS IS BASIS, WITHOUT
  24:Drivers/CMSIS/DSP/Source/ComplexMathFunctions/arm_cmplx_mag_q31.c ****  * WARRANTIES OR CONDITIONS OF ANY KIND, either express or implied.
  25:Drivers/CMSIS/DSP/Source/ComplexMathFunctions/arm_cmplx_mag_q31.c ****  * See the License for the specific language governing permissions and
  26:Drivers/CMSIS/DSP/Source/ComplexMathFunctions/arm_cmplx_mag_q31.c ****  * limitations under the License.
  27:Drivers/CMSIS/DSP/Source/ComplexMathFunctions/arm_cmplx_mag_q31.c ****  */
  28:Drivers/CMSIS/DSP/Source/ComplexMathFunctions/arm_cmplx_mag_q31.c **** 
  29:Drivers/CMSIS/DSP/Source/ComplexMathFunctions/arm_cmplx_mag_q31.c **** #include "arm_math.h"
  30:Drivers/CMSIS/DSP/Source/ComplexMathFunctions/arm_cmplx_mag_q31.c **** 
ARM GAS  /var/folders/n6/c271nzx11xl4r4_m7sqjlt0m0000gn/T//ccHdWRuO.s 			page 2


  31:Drivers/CMSIS/DSP/Source/ComplexMathFunctions/arm_cmplx_mag_q31.c **** /**
  32:Drivers/CMSIS/DSP/Source/ComplexMathFunctions/arm_cmplx_mag_q31.c ****  * @ingroup groupCmplxMath
  33:Drivers/CMSIS/DSP/Source/ComplexMathFunctions/arm_cmplx_mag_q31.c ****  */
  34:Drivers/CMSIS/DSP/Source/ComplexMathFunctions/arm_cmplx_mag_q31.c **** 
  35:Drivers/CMSIS/DSP/Source/ComplexMathFunctions/arm_cmplx_mag_q31.c **** /**
  36:Drivers/CMSIS/DSP/Source/ComplexMathFunctions/arm_cmplx_mag_q31.c ****  * @addtogroup cmplx_mag
  37:Drivers/CMSIS/DSP/Source/ComplexMathFunctions/arm_cmplx_mag_q31.c ****  * @{
  38:Drivers/CMSIS/DSP/Source/ComplexMathFunctions/arm_cmplx_mag_q31.c ****  */
  39:Drivers/CMSIS/DSP/Source/ComplexMathFunctions/arm_cmplx_mag_q31.c **** 
  40:Drivers/CMSIS/DSP/Source/ComplexMathFunctions/arm_cmplx_mag_q31.c **** /**
  41:Drivers/CMSIS/DSP/Source/ComplexMathFunctions/arm_cmplx_mag_q31.c ****  * @brief  Q31 complex magnitude
  42:Drivers/CMSIS/DSP/Source/ComplexMathFunctions/arm_cmplx_mag_q31.c ****  * @param  *pSrc points to the complex input vector
  43:Drivers/CMSIS/DSP/Source/ComplexMathFunctions/arm_cmplx_mag_q31.c ****  * @param  *pDst points to the real output vector
  44:Drivers/CMSIS/DSP/Source/ComplexMathFunctions/arm_cmplx_mag_q31.c ****  * @param  numSamples number of complex samples in the input vector
  45:Drivers/CMSIS/DSP/Source/ComplexMathFunctions/arm_cmplx_mag_q31.c ****  * @return none.
  46:Drivers/CMSIS/DSP/Source/ComplexMathFunctions/arm_cmplx_mag_q31.c ****  *
  47:Drivers/CMSIS/DSP/Source/ComplexMathFunctions/arm_cmplx_mag_q31.c ****  * <b>Scaling and Overflow Behavior:</b>
  48:Drivers/CMSIS/DSP/Source/ComplexMathFunctions/arm_cmplx_mag_q31.c ****  * \par
  49:Drivers/CMSIS/DSP/Source/ComplexMathFunctions/arm_cmplx_mag_q31.c ****  * The function implements 1.31 by 1.31 multiplications and finally output is converted into 2.30 f
  50:Drivers/CMSIS/DSP/Source/ComplexMathFunctions/arm_cmplx_mag_q31.c ****  * Input down scaling is not required.
  51:Drivers/CMSIS/DSP/Source/ComplexMathFunctions/arm_cmplx_mag_q31.c ****  */
  52:Drivers/CMSIS/DSP/Source/ComplexMathFunctions/arm_cmplx_mag_q31.c **** 
  53:Drivers/CMSIS/DSP/Source/ComplexMathFunctions/arm_cmplx_mag_q31.c **** void arm_cmplx_mag_q31(
  54:Drivers/CMSIS/DSP/Source/ComplexMathFunctions/arm_cmplx_mag_q31.c ****   q31_t * pSrc,
  55:Drivers/CMSIS/DSP/Source/ComplexMathFunctions/arm_cmplx_mag_q31.c ****   q31_t * pDst,
  56:Drivers/CMSIS/DSP/Source/ComplexMathFunctions/arm_cmplx_mag_q31.c ****   uint32_t numSamples)
  57:Drivers/CMSIS/DSP/Source/ComplexMathFunctions/arm_cmplx_mag_q31.c **** {
  29              		.loc 1 57 1 view -0
  30              		.cfi_startproc
  31              		@ args = 0, pretend = 0, frame = 8
  32              		@ frame_needed = 0, uses_anonymous_args = 0
  33              		.loc 1 57 1 is_stmt 0 view .LVU1
  34 0000 2DE9F04F 		push	{r4, r5, r6, r7, r8, r9, r10, fp, lr}
  35              		.cfi_def_cfa_offset 36
  36              		.cfi_offset 4, -36
  37              		.cfi_offset 5, -32
  38              		.cfi_offset 6, -28
  39              		.cfi_offset 7, -24
  40              		.cfi_offset 8, -20
  41              		.cfi_offset 9, -16
  42              		.cfi_offset 10, -12
  43              		.cfi_offset 11, -8
  44              		.cfi_offset 14, -4
  45 0004 83B0     		sub	sp, sp, #12
  46              		.cfi_def_cfa_offset 48
  47 0006 0446     		mov	r4, r0
  48 0008 0D46     		mov	r5, r1
  49 000a 0192     		str	r2, [sp, #4]
  58:Drivers/CMSIS/DSP/Source/ComplexMathFunctions/arm_cmplx_mag_q31.c ****   q31_t real, imag;                              /* Temporary variables to hold input values */
  50              		.loc 1 58 3 is_stmt 1 view .LVU2
  59:Drivers/CMSIS/DSP/Source/ComplexMathFunctions/arm_cmplx_mag_q31.c ****   q31_t acc0, acc1;                              /* Accumulators */
  51              		.loc 1 59 3 view .LVU3
  60:Drivers/CMSIS/DSP/Source/ComplexMathFunctions/arm_cmplx_mag_q31.c ****   uint32_t blkCnt;                               /* loop counter */
  52              		.loc 1 60 3 view .LVU4
  61:Drivers/CMSIS/DSP/Source/ComplexMathFunctions/arm_cmplx_mag_q31.c **** 
  62:Drivers/CMSIS/DSP/Source/ComplexMathFunctions/arm_cmplx_mag_q31.c **** #if defined (ARM_MATH_DSP)
  63:Drivers/CMSIS/DSP/Source/ComplexMathFunctions/arm_cmplx_mag_q31.c **** 
ARM GAS  /var/folders/n6/c271nzx11xl4r4_m7sqjlt0m0000gn/T//ccHdWRuO.s 			page 3


  64:Drivers/CMSIS/DSP/Source/ComplexMathFunctions/arm_cmplx_mag_q31.c ****   /* Run the below code for Cortex-M4 and Cortex-M3 */
  65:Drivers/CMSIS/DSP/Source/ComplexMathFunctions/arm_cmplx_mag_q31.c ****   q31_t real1, real2, imag1, imag2;              /* Temporary variables to hold input values */
  53              		.loc 1 65 3 view .LVU5
  66:Drivers/CMSIS/DSP/Source/ComplexMathFunctions/arm_cmplx_mag_q31.c ****   q31_t out1, out2, out3, out4;                  /* Accumulators */
  54              		.loc 1 66 3 view .LVU6
  67:Drivers/CMSIS/DSP/Source/ComplexMathFunctions/arm_cmplx_mag_q31.c ****   q63_t mul1, mul2, mul3, mul4;                  /* Temporary variables */
  55              		.loc 1 67 3 view .LVU7
  68:Drivers/CMSIS/DSP/Source/ComplexMathFunctions/arm_cmplx_mag_q31.c **** 
  69:Drivers/CMSIS/DSP/Source/ComplexMathFunctions/arm_cmplx_mag_q31.c **** 
  70:Drivers/CMSIS/DSP/Source/ComplexMathFunctions/arm_cmplx_mag_q31.c ****   /*loop Unrolling */
  71:Drivers/CMSIS/DSP/Source/ComplexMathFunctions/arm_cmplx_mag_q31.c ****   blkCnt = numSamples >> 2U;
  56              		.loc 1 71 3 view .LVU8
  57              		.loc 1 71 10 is_stmt 0 view .LVU9
  58 000c 4FEA920B 		lsr	fp, r2, #2
  59              	.LVL1:
  72:Drivers/CMSIS/DSP/Source/ComplexMathFunctions/arm_cmplx_mag_q31.c **** 
  73:Drivers/CMSIS/DSP/Source/ComplexMathFunctions/arm_cmplx_mag_q31.c ****   /* First part of the processing with loop unrolling.  Compute 4 outputs at a time.
  74:Drivers/CMSIS/DSP/Source/ComplexMathFunctions/arm_cmplx_mag_q31.c ****    ** a second loop below computes the remaining 1 to 3 samples. */
  75:Drivers/CMSIS/DSP/Source/ComplexMathFunctions/arm_cmplx_mag_q31.c ****   while (blkCnt > 0U)
  60              		.loc 1 75 3 is_stmt 1 view .LVU10
  61              		.loc 1 75 9 is_stmt 0 view .LVU11
  62 0010 64E0     		b	.L2
  63              	.LVL2:
  64              	.L3:
  76:Drivers/CMSIS/DSP/Source/ComplexMathFunctions/arm_cmplx_mag_q31.c ****   {
  77:Drivers/CMSIS/DSP/Source/ComplexMathFunctions/arm_cmplx_mag_q31.c ****     /* read complex input from source buffer */
  78:Drivers/CMSIS/DSP/Source/ComplexMathFunctions/arm_cmplx_mag_q31.c ****     real1 = pSrc[0];
  65              		.loc 1 78 5 is_stmt 1 view .LVU12
  66              		.loc 1 78 11 is_stmt 0 view .LVU13
  67 0012 2068     		ldr	r0, [r4]
  68              	.LVL3:
  79:Drivers/CMSIS/DSP/Source/ComplexMathFunctions/arm_cmplx_mag_q31.c ****     imag1 = pSrc[1];
  69              		.loc 1 79 5 is_stmt 1 view .LVU14
  70              		.loc 1 79 11 is_stmt 0 view .LVU15
  71 0014 6168     		ldr	r1, [r4, #4]
  72              	.LVL4:
  80:Drivers/CMSIS/DSP/Source/ComplexMathFunctions/arm_cmplx_mag_q31.c ****     real2 = pSrc[2];
  73              		.loc 1 80 5 is_stmt 1 view .LVU16
  74              		.loc 1 80 11 is_stmt 0 view .LVU17
  75 0016 A268     		ldr	r2, [r4, #8]
  76              	.LVL5:
  81:Drivers/CMSIS/DSP/Source/ComplexMathFunctions/arm_cmplx_mag_q31.c ****     imag2 = pSrc[3];
  77              		.loc 1 81 5 is_stmt 1 view .LVU18
  78              		.loc 1 81 11 is_stmt 0 view .LVU19
  79 0018 E368     		ldr	r3, [r4, #12]
  80              	.LVL6:
  82:Drivers/CMSIS/DSP/Source/ComplexMathFunctions/arm_cmplx_mag_q31.c **** 
  83:Drivers/CMSIS/DSP/Source/ComplexMathFunctions/arm_cmplx_mag_q31.c ****     /* calculate power of input values */
  84:Drivers/CMSIS/DSP/Source/ComplexMathFunctions/arm_cmplx_mag_q31.c ****     mul1 = (q63_t) real1 *real1;
  81              		.loc 1 84 5 is_stmt 1 view .LVU20
  82              		.loc 1 84 12 is_stmt 0 view .LVU21
  83 001a C617     		asrs	r6, r0, #31
  84              		.loc 1 84 10 view .LVU22
  85 001c 00FB06F6 		mul	r6, r0, r6
  86 0020 A0FB000C 		umull	r0, ip, r0, r0
  87              	.LVL7:
  88              		.loc 1 84 10 view .LVU23
ARM GAS  /var/folders/n6/c271nzx11xl4r4_m7sqjlt0m0000gn/T//ccHdWRuO.s 			page 4


  89 0024 0CEB460C 		add	ip, ip, r6, lsl #1
  90              	.LVL8:
  85:Drivers/CMSIS/DSP/Source/ComplexMathFunctions/arm_cmplx_mag_q31.c ****     mul2 = (q63_t) imag1 *imag1;
  91              		.loc 1 85 5 is_stmt 1 view .LVU24
  92              		.loc 1 85 12 is_stmt 0 view .LVU25
  93 0028 CE17     		asrs	r6, r1, #31
  94              		.loc 1 85 10 view .LVU26
  95 002a 01FB06F6 		mul	r6, r1, r6
  96 002e A1FB0110 		umull	r1, r0, r1, r1
  97              	.LVL9:
  98              		.loc 1 85 10 view .LVU27
  99 0032 00EB4600 		add	r0, r0, r6, lsl #1
 100              	.LVL10:
  86:Drivers/CMSIS/DSP/Source/ComplexMathFunctions/arm_cmplx_mag_q31.c ****     mul3 = (q63_t) real2 *real2;
 101              		.loc 1 86 5 is_stmt 1 view .LVU28
 102              		.loc 1 86 12 is_stmt 0 view .LVU29
 103 0036 D117     		asrs	r1, r2, #31
 104              		.loc 1 86 10 view .LVU30
 105 0038 02FB01F1 		mul	r1, r2, r1
 106 003c A2FB0226 		umull	r2, r6, r2, r2
 107              	.LVL11:
 108              		.loc 1 86 10 view .LVU31
 109 0040 06EB4102 		add	r2, r6, r1, lsl #1
 110              	.LVL12:
  87:Drivers/CMSIS/DSP/Source/ComplexMathFunctions/arm_cmplx_mag_q31.c ****     mul4 = (q63_t) imag2 *imag2;
 111              		.loc 1 87 5 is_stmt 1 view .LVU32
 112              		.loc 1 87 12 is_stmt 0 view .LVU33
 113 0044 D917     		asrs	r1, r3, #31
 114              		.loc 1 87 10 view .LVU34
 115 0046 03FB01F1 		mul	r1, r3, r1
 116 004a A3FB0339 		umull	r3, r9, r3, r3
 117              	.LVL13:
 118              		.loc 1 87 10 view .LVU35
 119 004e 09EB4109 		add	r9, r9, r1, lsl #1
 120              	.LVL14:
  88:Drivers/CMSIS/DSP/Source/ComplexMathFunctions/arm_cmplx_mag_q31.c **** 
  89:Drivers/CMSIS/DSP/Source/ComplexMathFunctions/arm_cmplx_mag_q31.c ****     /* get the result to 3.29 format */
  90:Drivers/CMSIS/DSP/Source/ComplexMathFunctions/arm_cmplx_mag_q31.c ****     out1 = (q31_t) (mul1 >> 33);
 121              		.loc 1 90 5 is_stmt 1 view .LVU36
  91:Drivers/CMSIS/DSP/Source/ComplexMathFunctions/arm_cmplx_mag_q31.c ****     out2 = (q31_t) (mul2 >> 33);
 122              		.loc 1 91 5 view .LVU37
 123              		.loc 1 91 26 is_stmt 0 view .LVU38
 124 0052 4010     		asrs	r0, r0, #1
 125              	.LVL15:
  92:Drivers/CMSIS/DSP/Source/ComplexMathFunctions/arm_cmplx_mag_q31.c ****     out3 = (q31_t) (mul3 >> 33);
 126              		.loc 1 92 5 is_stmt 1 view .LVU39
  93:Drivers/CMSIS/DSP/Source/ComplexMathFunctions/arm_cmplx_mag_q31.c ****     out4 = (q31_t) (mul4 >> 33);
 127              		.loc 1 93 5 view .LVU40
 128              		.loc 1 93 26 is_stmt 0 view .LVU41
 129 0054 4FEA6909 		asr	r9, r9, #1
 130              	.LVL16:
  94:Drivers/CMSIS/DSP/Source/ComplexMathFunctions/arm_cmplx_mag_q31.c **** 
  95:Drivers/CMSIS/DSP/Source/ComplexMathFunctions/arm_cmplx_mag_q31.c ****     /* add real and imaginary accumulators */
  96:Drivers/CMSIS/DSP/Source/ComplexMathFunctions/arm_cmplx_mag_q31.c ****     out1 = out1 + out2;
 131              		.loc 1 96 5 is_stmt 1 view .LVU42
  97:Drivers/CMSIS/DSP/Source/ComplexMathFunctions/arm_cmplx_mag_q31.c ****     out3 = out3 + out4;
 132              		.loc 1 97 5 view .LVU43
ARM GAS  /var/folders/n6/c271nzx11xl4r4_m7sqjlt0m0000gn/T//ccHdWRuO.s 			page 5


 133              		.loc 1 97 10 is_stmt 0 view .LVU44
 134 0058 09EB6209 		add	r9, r9, r2, asr #1
 135              	.LVL17:
  98:Drivers/CMSIS/DSP/Source/ComplexMathFunctions/arm_cmplx_mag_q31.c **** 
  99:Drivers/CMSIS/DSP/Source/ComplexMathFunctions/arm_cmplx_mag_q31.c ****     /* read complex input from source buffer */
 100:Drivers/CMSIS/DSP/Source/ComplexMathFunctions/arm_cmplx_mag_q31.c ****     real1 = pSrc[4];
 136              		.loc 1 100 5 is_stmt 1 view .LVU45
 137              		.loc 1 100 11 is_stmt 0 view .LVU46
 138 005c D4F810A0 		ldr	r10, [r4, #16]
 139              	.LVL18:
 101:Drivers/CMSIS/DSP/Source/ComplexMathFunctions/arm_cmplx_mag_q31.c ****     imag1 = pSrc[5];
 140              		.loc 1 101 5 is_stmt 1 view .LVU47
 141              		.loc 1 101 11 is_stmt 0 view .LVU48
 142 0060 D4F81480 		ldr	r8, [r4, #20]
 143              	.LVL19:
 102:Drivers/CMSIS/DSP/Source/ComplexMathFunctions/arm_cmplx_mag_q31.c ****     real2 = pSrc[6];
 144              		.loc 1 102 5 is_stmt 1 view .LVU49
 145              		.loc 1 102 11 is_stmt 0 view .LVU50
 146 0064 A769     		ldr	r7, [r4, #24]
 147              	.LVL20:
 103:Drivers/CMSIS/DSP/Source/ComplexMathFunctions/arm_cmplx_mag_q31.c ****     imag2 = pSrc[7];
 148              		.loc 1 103 5 is_stmt 1 view .LVU51
 149              		.loc 1 103 11 is_stmt 0 view .LVU52
 150 0066 E669     		ldr	r6, [r4, #28]
 151              	.LVL21:
 104:Drivers/CMSIS/DSP/Source/ComplexMathFunctions/arm_cmplx_mag_q31.c **** 
 105:Drivers/CMSIS/DSP/Source/ComplexMathFunctions/arm_cmplx_mag_q31.c ****     /* calculate square root */
 106:Drivers/CMSIS/DSP/Source/ComplexMathFunctions/arm_cmplx_mag_q31.c ****     arm_sqrt_q31(out1, &pDst[0]);
 152              		.loc 1 106 5 is_stmt 1 view .LVU53
 153 0068 2946     		mov	r1, r5
 154              	.LVL22:
 155              		.loc 1 106 5 is_stmt 0 view .LVU54
 156 006a 00EB6C00 		add	r0, r0, ip, asr #1
 157              	.LVL23:
 158              		.loc 1 106 5 view .LVU55
 159 006e FFF7FEFF 		bl	arm_sqrt_q31
 160              	.LVL24:
 107:Drivers/CMSIS/DSP/Source/ComplexMathFunctions/arm_cmplx_mag_q31.c **** 
 108:Drivers/CMSIS/DSP/Source/ComplexMathFunctions/arm_cmplx_mag_q31.c ****     /* calculate power of input values */
 109:Drivers/CMSIS/DSP/Source/ComplexMathFunctions/arm_cmplx_mag_q31.c ****     mul1 = (q63_t) real1 *real1;
 161              		.loc 1 109 5 is_stmt 1 view .LVU56
 162              		.loc 1 109 12 is_stmt 0 view .LVU57
 163 0072 4FEAEA73 		asr	r3, r10, #31
 164              		.loc 1 109 10 view .LVU58
 165 0076 0AFB03F3 		mul	r3, r10, r3
 166 007a AAFB0AA2 		umull	r10, r2, r10, r10
 167              	.LVL25:
 168              		.loc 1 109 10 view .LVU59
 169 007e 02EB430A 		add	r10, r2, r3, lsl #1
 110:Drivers/CMSIS/DSP/Source/ComplexMathFunctions/arm_cmplx_mag_q31.c **** 
 111:Drivers/CMSIS/DSP/Source/ComplexMathFunctions/arm_cmplx_mag_q31.c ****     /* calculate square root */
 112:Drivers/CMSIS/DSP/Source/ComplexMathFunctions/arm_cmplx_mag_q31.c ****     arm_sqrt_q31(out3, &pDst[1]);
 170              		.loc 1 112 5 is_stmt 1 view .LVU60
 171 0082 291D     		adds	r1, r5, #4
 172 0084 4846     		mov	r0, r9
 173 0086 FFF7FEFF 		bl	arm_sqrt_q31
 174              	.LVL26:
ARM GAS  /var/folders/n6/c271nzx11xl4r4_m7sqjlt0m0000gn/T//ccHdWRuO.s 			page 6


 113:Drivers/CMSIS/DSP/Source/ComplexMathFunctions/arm_cmplx_mag_q31.c **** 
 114:Drivers/CMSIS/DSP/Source/ComplexMathFunctions/arm_cmplx_mag_q31.c ****     /* calculate power of input values */
 115:Drivers/CMSIS/DSP/Source/ComplexMathFunctions/arm_cmplx_mag_q31.c ****     mul2 = (q63_t) imag1 *imag1;
 175              		.loc 1 115 5 view .LVU61
 176              		.loc 1 115 12 is_stmt 0 view .LVU62
 177 008a 4FEAE873 		asr	r3, r8, #31
 178              		.loc 1 115 10 view .LVU63
 179 008e 08FB03F3 		mul	r3, r8, r3
 180 0092 A8FB0880 		umull	r8, r0, r8, r8
 181              	.LVL27:
 182              		.loc 1 115 10 view .LVU64
 183 0096 00EB4300 		add	r0, r0, r3, lsl #1
 116:Drivers/CMSIS/DSP/Source/ComplexMathFunctions/arm_cmplx_mag_q31.c ****     mul3 = (q63_t) real2 *real2;
 184              		.loc 1 116 5 is_stmt 1 view .LVU65
 185              		.loc 1 116 12 is_stmt 0 view .LVU66
 186 009a FB17     		asrs	r3, r7, #31
 187              		.loc 1 116 10 view .LVU67
 188 009c 07FB03F3 		mul	r3, r7, r3
 189 00a0 A7FB0772 		umull	r7, r2, r7, r7
 190              	.LVL28:
 191              		.loc 1 116 10 view .LVU68
 192 00a4 02EB4302 		add	r2, r2, r3, lsl #1
 117:Drivers/CMSIS/DSP/Source/ComplexMathFunctions/arm_cmplx_mag_q31.c ****     mul4 = (q63_t) imag2 *imag2;
 193              		.loc 1 117 5 is_stmt 1 view .LVU69
 194              		.loc 1 117 12 is_stmt 0 view .LVU70
 195 00a8 F117     		asrs	r1, r6, #31
 196              		.loc 1 117 10 view .LVU71
 197 00aa 06FB01F1 		mul	r1, r6, r1
 198 00ae A6FB0636 		umull	r3, r6, r6, r6
 199              	.LVL29:
 200              		.loc 1 117 10 view .LVU72
 201 00b2 06EB4106 		add	r6, r6, r1, lsl #1
 118:Drivers/CMSIS/DSP/Source/ComplexMathFunctions/arm_cmplx_mag_q31.c **** 
 119:Drivers/CMSIS/DSP/Source/ComplexMathFunctions/arm_cmplx_mag_q31.c ****     /* get the result to 3.29 format */
 120:Drivers/CMSIS/DSP/Source/ComplexMathFunctions/arm_cmplx_mag_q31.c ****     out1 = (q31_t) (mul1 >> 33);
 202              		.loc 1 120 5 is_stmt 1 view .LVU73
 203              	.LVL30:
 121:Drivers/CMSIS/DSP/Source/ComplexMathFunctions/arm_cmplx_mag_q31.c ****     out2 = (q31_t) (mul2 >> 33);
 204              		.loc 1 121 5 view .LVU74
 205              		.loc 1 121 26 is_stmt 0 view .LVU75
 206 00b6 4010     		asrs	r0, r0, #1
 207              	.LVL31:
 122:Drivers/CMSIS/DSP/Source/ComplexMathFunctions/arm_cmplx_mag_q31.c ****     out3 = (q31_t) (mul3 >> 33);
 208              		.loc 1 122 5 is_stmt 1 view .LVU76
 123:Drivers/CMSIS/DSP/Source/ComplexMathFunctions/arm_cmplx_mag_q31.c ****     out4 = (q31_t) (mul4 >> 33);
 209              		.loc 1 123 5 view .LVU77
 210              		.loc 1 123 26 is_stmt 0 view .LVU78
 211 00b8 7610     		asrs	r6, r6, #1
 212              	.LVL32:
 124:Drivers/CMSIS/DSP/Source/ComplexMathFunctions/arm_cmplx_mag_q31.c **** 
 125:Drivers/CMSIS/DSP/Source/ComplexMathFunctions/arm_cmplx_mag_q31.c ****     /* add real and imaginary accumulators */
 126:Drivers/CMSIS/DSP/Source/ComplexMathFunctions/arm_cmplx_mag_q31.c ****     out1 = out1 + out2;
 213              		.loc 1 126 5 is_stmt 1 view .LVU79
 127:Drivers/CMSIS/DSP/Source/ComplexMathFunctions/arm_cmplx_mag_q31.c ****     out3 = out3 + out4;
 214              		.loc 1 127 5 view .LVU80
 215              		.loc 1 127 10 is_stmt 0 view .LVU81
 216 00ba 06EB6206 		add	r6, r6, r2, asr #1
ARM GAS  /var/folders/n6/c271nzx11xl4r4_m7sqjlt0m0000gn/T//ccHdWRuO.s 			page 7


 217              	.LVL33:
 128:Drivers/CMSIS/DSP/Source/ComplexMathFunctions/arm_cmplx_mag_q31.c **** 
 129:Drivers/CMSIS/DSP/Source/ComplexMathFunctions/arm_cmplx_mag_q31.c ****     /* calculate square root */
 130:Drivers/CMSIS/DSP/Source/ComplexMathFunctions/arm_cmplx_mag_q31.c ****     arm_sqrt_q31(out1, &pDst[2]);
 218              		.loc 1 130 5 is_stmt 1 view .LVU82
 219 00be 05F10801 		add	r1, r5, #8
 220              		.loc 1 130 5 is_stmt 0 view .LVU83
 221 00c2 00EB6A00 		add	r0, r0, r10, asr #1
 222              	.LVL34:
 223              		.loc 1 130 5 view .LVU84
 224 00c6 FFF7FEFF 		bl	arm_sqrt_q31
 225              	.LVL35:
 131:Drivers/CMSIS/DSP/Source/ComplexMathFunctions/arm_cmplx_mag_q31.c **** 
 132:Drivers/CMSIS/DSP/Source/ComplexMathFunctions/arm_cmplx_mag_q31.c ****     /* increment destination by 8 to process next samples */
 133:Drivers/CMSIS/DSP/Source/ComplexMathFunctions/arm_cmplx_mag_q31.c ****     pSrc += 8U;
 226              		.loc 1 133 5 is_stmt 1 view .LVU85
 227              		.loc 1 133 10 is_stmt 0 view .LVU86
 228 00ca 2034     		adds	r4, r4, #32
 229              	.LVL36:
 134:Drivers/CMSIS/DSP/Source/ComplexMathFunctions/arm_cmplx_mag_q31.c **** 
 135:Drivers/CMSIS/DSP/Source/ComplexMathFunctions/arm_cmplx_mag_q31.c ****     /* calculate square root */
 136:Drivers/CMSIS/DSP/Source/ComplexMathFunctions/arm_cmplx_mag_q31.c ****     arm_sqrt_q31(out3, &pDst[3]);
 230              		.loc 1 136 5 is_stmt 1 view .LVU87
 231 00cc 05F10C01 		add	r1, r5, #12
 232 00d0 3046     		mov	r0, r6
 233 00d2 FFF7FEFF 		bl	arm_sqrt_q31
 234              	.LVL37:
 137:Drivers/CMSIS/DSP/Source/ComplexMathFunctions/arm_cmplx_mag_q31.c **** 
 138:Drivers/CMSIS/DSP/Source/ComplexMathFunctions/arm_cmplx_mag_q31.c ****     /* increment destination by 4 to process next samples */
 139:Drivers/CMSIS/DSP/Source/ComplexMathFunctions/arm_cmplx_mag_q31.c ****     pDst += 4U;
 235              		.loc 1 139 5 view .LVU88
 236              		.loc 1 139 10 is_stmt 0 view .LVU89
 237 00d6 1035     		adds	r5, r5, #16
 238              	.LVL38:
 140:Drivers/CMSIS/DSP/Source/ComplexMathFunctions/arm_cmplx_mag_q31.c **** 
 141:Drivers/CMSIS/DSP/Source/ComplexMathFunctions/arm_cmplx_mag_q31.c ****     /* Decrement the loop counter */
 142:Drivers/CMSIS/DSP/Source/ComplexMathFunctions/arm_cmplx_mag_q31.c ****     blkCnt--;
 239              		.loc 1 142 5 is_stmt 1 view .LVU90
 240              		.loc 1 142 11 is_stmt 0 view .LVU91
 241 00d8 0BF1FF3B 		add	fp, fp, #-1
 242              	.LVL39:
 243              	.L2:
  75:Drivers/CMSIS/DSP/Source/ComplexMathFunctions/arm_cmplx_mag_q31.c ****   {
 244              		.loc 1 75 17 is_stmt 1 view .LVU92
 245 00dc BBF1000F 		cmp	fp, #0
 246 00e0 97D1     		bne	.L3
 143:Drivers/CMSIS/DSP/Source/ComplexMathFunctions/arm_cmplx_mag_q31.c ****   }
 144:Drivers/CMSIS/DSP/Source/ComplexMathFunctions/arm_cmplx_mag_q31.c **** 
 145:Drivers/CMSIS/DSP/Source/ComplexMathFunctions/arm_cmplx_mag_q31.c ****   /* If the numSamples is not a multiple of 4, compute any remaining output samples here.
 146:Drivers/CMSIS/DSP/Source/ComplexMathFunctions/arm_cmplx_mag_q31.c ****    ** No loop unrolling is used. */
 147:Drivers/CMSIS/DSP/Source/ComplexMathFunctions/arm_cmplx_mag_q31.c ****   blkCnt = numSamples % 0x4U;
 247              		.loc 1 147 3 view .LVU93
 248              		.loc 1 147 10 is_stmt 0 view .LVU94
 249 00e2 019B     		ldr	r3, [sp, #4]
 250 00e4 03F00307 		and	r7, r3, #3
 251              	.LVL40:
 148:Drivers/CMSIS/DSP/Source/ComplexMathFunctions/arm_cmplx_mag_q31.c **** 
ARM GAS  /var/folders/n6/c271nzx11xl4r4_m7sqjlt0m0000gn/T//ccHdWRuO.s 			page 8


 149:Drivers/CMSIS/DSP/Source/ComplexMathFunctions/arm_cmplx_mag_q31.c **** #else
 150:Drivers/CMSIS/DSP/Source/ComplexMathFunctions/arm_cmplx_mag_q31.c **** 
 151:Drivers/CMSIS/DSP/Source/ComplexMathFunctions/arm_cmplx_mag_q31.c ****   /* Run the below code for Cortex-M0 */
 152:Drivers/CMSIS/DSP/Source/ComplexMathFunctions/arm_cmplx_mag_q31.c ****   blkCnt = numSamples;
 153:Drivers/CMSIS/DSP/Source/ComplexMathFunctions/arm_cmplx_mag_q31.c **** 
 154:Drivers/CMSIS/DSP/Source/ComplexMathFunctions/arm_cmplx_mag_q31.c **** #endif /* #if defined (ARM_MATH_DSP) */
 155:Drivers/CMSIS/DSP/Source/ComplexMathFunctions/arm_cmplx_mag_q31.c **** 
 156:Drivers/CMSIS/DSP/Source/ComplexMathFunctions/arm_cmplx_mag_q31.c ****   while (blkCnt > 0U)
 252              		.loc 1 156 3 is_stmt 1 view .LVU95
 253              		.loc 1 156 9 is_stmt 0 view .LVU96
 254 00e8 1BE0     		b	.L4
 255              	.L5:
 157:Drivers/CMSIS/DSP/Source/ComplexMathFunctions/arm_cmplx_mag_q31.c ****   {
 158:Drivers/CMSIS/DSP/Source/ComplexMathFunctions/arm_cmplx_mag_q31.c ****     /* C[0] = sqrt(A[0] * A[0] + A[1] * A[1]) */
 159:Drivers/CMSIS/DSP/Source/ComplexMathFunctions/arm_cmplx_mag_q31.c ****     real = *pSrc++;
 256              		.loc 1 159 5 is_stmt 1 view .LVU97
 257              	.LVL41:
 258              		.loc 1 159 10 is_stmt 0 view .LVU98
 259 00ea 2646     		mov	r6, r4
 260 00ec 56F8082B 		ldr	r2, [r6], #8
 261              	.LVL42:
 160:Drivers/CMSIS/DSP/Source/ComplexMathFunctions/arm_cmplx_mag_q31.c ****     imag = *pSrc++;
 262              		.loc 1 160 5 is_stmt 1 view .LVU99
 263              		.loc 1 160 10 is_stmt 0 view .LVU100
 264 00f0 6368     		ldr	r3, [r4, #4]
 265              	.LVL43:
 161:Drivers/CMSIS/DSP/Source/ComplexMathFunctions/arm_cmplx_mag_q31.c ****     acc0 = (q31_t) (((q63_t) real * real) >> 33);
 266              		.loc 1 161 5 is_stmt 1 view .LVU101
 267              		.loc 1 161 22 is_stmt 0 view .LVU102
 268 00f2 D117     		asrs	r1, r2, #31
 269              		.loc 1 161 35 view .LVU103
 270 00f4 02FB01F1 		mul	r1, r2, r1
 271 00f8 A2FB0220 		umull	r2, r0, r2, r2
 272              	.LVL44:
 273              		.loc 1 161 35 view .LVU104
 274 00fc 00EB4100 		add	r0, r0, r1, lsl #1
 275              	.LVL45:
 162:Drivers/CMSIS/DSP/Source/ComplexMathFunctions/arm_cmplx_mag_q31.c ****     acc1 = (q31_t) (((q63_t) imag * imag) >> 33);
 276              		.loc 1 162 5 is_stmt 1 view .LVU105
 277              		.loc 1 162 22 is_stmt 0 view .LVU106
 278 0100 D917     		asrs	r1, r3, #31
 279              		.loc 1 162 35 view .LVU107
 280 0102 03FB01F1 		mul	r1, r3, r1
 281 0106 A3FB0332 		umull	r3, r2, r3, r3
 282              	.LVL46:
 283              		.loc 1 162 35 view .LVU108
 284 010a 02EB4103 		add	r3, r2, r1, lsl #1
 285              		.loc 1 162 43 view .LVU109
 286 010e 5B10     		asrs	r3, r3, #1
 287              	.LVL47:
 163:Drivers/CMSIS/DSP/Source/ComplexMathFunctions/arm_cmplx_mag_q31.c ****     /* store the result in 2.30 format in the destination buffer. */
 164:Drivers/CMSIS/DSP/Source/ComplexMathFunctions/arm_cmplx_mag_q31.c ****     arm_sqrt_q31(acc0 + acc1, pDst++);
 288              		.loc 1 164 5 is_stmt 1 view .LVU110
 289 0110 2C1D     		adds	r4, r5, #4
 290              	.LVL48:
 291              		.loc 1 164 5 is_stmt 0 view .LVU111
 292 0112 2946     		mov	r1, r5
ARM GAS  /var/folders/n6/c271nzx11xl4r4_m7sqjlt0m0000gn/T//ccHdWRuO.s 			page 9


 293 0114 03EB6000 		add	r0, r3, r0, asr #1
 294              	.LVL49:
 295              		.loc 1 164 5 view .LVU112
 296 0118 FFF7FEFF 		bl	arm_sqrt_q31
 297              	.LVL50:
 165:Drivers/CMSIS/DSP/Source/ComplexMathFunctions/arm_cmplx_mag_q31.c **** 
 166:Drivers/CMSIS/DSP/Source/ComplexMathFunctions/arm_cmplx_mag_q31.c ****     /* Decrement the loop counter */
 167:Drivers/CMSIS/DSP/Source/ComplexMathFunctions/arm_cmplx_mag_q31.c ****     blkCnt--;
 298              		.loc 1 167 5 is_stmt 1 view .LVU113
 299              		.loc 1 167 11 is_stmt 0 view .LVU114
 300 011c 013F     		subs	r7, r7, #1
 301              	.LVL51:
 164:Drivers/CMSIS/DSP/Source/ComplexMathFunctions/arm_cmplx_mag_q31.c **** 
 302              		.loc 1 164 5 view .LVU115
 303 011e 2546     		mov	r5, r4
 160:Drivers/CMSIS/DSP/Source/ComplexMathFunctions/arm_cmplx_mag_q31.c ****     acc0 = (q31_t) (((q63_t) real * real) >> 33);
 304              		.loc 1 160 17 view .LVU116
 305 0120 3446     		mov	r4, r6
 306              	.LVL52:
 307              	.L4:
 156:Drivers/CMSIS/DSP/Source/ComplexMathFunctions/arm_cmplx_mag_q31.c ****   {
 308              		.loc 1 156 17 is_stmt 1 view .LVU117
 309 0122 002F     		cmp	r7, #0
 310 0124 E1D1     		bne	.L5
 168:Drivers/CMSIS/DSP/Source/ComplexMathFunctions/arm_cmplx_mag_q31.c ****   }
 169:Drivers/CMSIS/DSP/Source/ComplexMathFunctions/arm_cmplx_mag_q31.c **** }
 311              		.loc 1 169 1 is_stmt 0 view .LVU118
 312 0126 03B0     		add	sp, sp, #12
 313              		.cfi_def_cfa_offset 36
 314              		@ sp needed
 315 0128 BDE8F08F 		pop	{r4, r5, r6, r7, r8, r9, r10, fp, pc}
 316              		.loc 1 169 1 view .LVU119
 317              		.cfi_endproc
 318              	.LFE135:
 320              		.text
 321              	.Letext0:
 322              		.file 2 "/Users/killian/Library/Application Support/Code/User/globalStorage/bmd.stm32-for-vscode/@
 323              		.file 3 "/Users/killian/Library/Application Support/Code/User/globalStorage/bmd.stm32-for-vscode/@
 324              		.file 4 "Drivers/CMSIS/DSP/Include/arm_math.h"
ARM GAS  /var/folders/n6/c271nzx11xl4r4_m7sqjlt0m0000gn/T//ccHdWRuO.s 			page 10

