ARM GAS  /var/folders/n6/c271nzx11xl4r4_m7sqjlt0m0000gn/T//ccIm2H6P.s 			page 1


   1              		.cpu cortex-m7
   2              		.arch armv7e-m
   3              		.fpu fpv5-d16
   4              		.eabi_attribute 28, 1
   5              		.eabi_attribute 20, 1
   6              		.eabi_attribute 21, 1
   7              		.eabi_attribute 23, 3
   8              		.eabi_attribute 24, 1
   9              		.eabi_attribute 25, 1
  10              		.eabi_attribute 26, 1
  11              		.eabi_attribute 30, 1
  12              		.eabi_attribute 34, 1
  13              		.eabi_attribute 18, 4
  14              		.file	"arm_fir_interpolate_f32.c"
  15              		.text
  16              	.Ltext0:
  17              		.cfi_sections	.debug_frame
  18              		.file 1 "Drivers/CMSIS/DSP/Source/FilteringFunctions/arm_fir_interpolate_f32.c"
  19              		.section	.text.arm_fir_interpolate_f32,"ax",%progbits
  20              		.align	1
  21              		.global	arm_fir_interpolate_f32
  22              		.syntax unified
  23              		.thumb
  24              		.thumb_func
  26              	arm_fir_interpolate_f32:
  27              	.LVL0:
  28              	.LFB135:
   1:Drivers/CMSIS/DSP/Source/FilteringFunctions/arm_fir_interpolate_f32.c **** /* ----------------------------------------------------------------------
   2:Drivers/CMSIS/DSP/Source/FilteringFunctions/arm_fir_interpolate_f32.c ****  * Project:      CMSIS DSP Library
   3:Drivers/CMSIS/DSP/Source/FilteringFunctions/arm_fir_interpolate_f32.c ****  * Title:        arm_fir_interpolate_f32.c
   4:Drivers/CMSIS/DSP/Source/FilteringFunctions/arm_fir_interpolate_f32.c ****  * Description:  Floating-point FIR interpolation sequences
   5:Drivers/CMSIS/DSP/Source/FilteringFunctions/arm_fir_interpolate_f32.c ****  *
   6:Drivers/CMSIS/DSP/Source/FilteringFunctions/arm_fir_interpolate_f32.c ****  * $Date:        27. January 2017
   7:Drivers/CMSIS/DSP/Source/FilteringFunctions/arm_fir_interpolate_f32.c ****  * $Revision:    V.1.5.1
   8:Drivers/CMSIS/DSP/Source/FilteringFunctions/arm_fir_interpolate_f32.c ****  *
   9:Drivers/CMSIS/DSP/Source/FilteringFunctions/arm_fir_interpolate_f32.c ****  * Target Processor: Cortex-M cores
  10:Drivers/CMSIS/DSP/Source/FilteringFunctions/arm_fir_interpolate_f32.c ****  * -------------------------------------------------------------------- */
  11:Drivers/CMSIS/DSP/Source/FilteringFunctions/arm_fir_interpolate_f32.c **** /*
  12:Drivers/CMSIS/DSP/Source/FilteringFunctions/arm_fir_interpolate_f32.c ****  * Copyright (C) 2010-2017 ARM Limited or its affiliates. All rights reserved.
  13:Drivers/CMSIS/DSP/Source/FilteringFunctions/arm_fir_interpolate_f32.c ****  *
  14:Drivers/CMSIS/DSP/Source/FilteringFunctions/arm_fir_interpolate_f32.c ****  * SPDX-License-Identifier: Apache-2.0
  15:Drivers/CMSIS/DSP/Source/FilteringFunctions/arm_fir_interpolate_f32.c ****  *
  16:Drivers/CMSIS/DSP/Source/FilteringFunctions/arm_fir_interpolate_f32.c ****  * Licensed under the Apache License, Version 2.0 (the License); you may
  17:Drivers/CMSIS/DSP/Source/FilteringFunctions/arm_fir_interpolate_f32.c ****  * not use this file except in compliance with the License.
  18:Drivers/CMSIS/DSP/Source/FilteringFunctions/arm_fir_interpolate_f32.c ****  * You may obtain a copy of the License at
  19:Drivers/CMSIS/DSP/Source/FilteringFunctions/arm_fir_interpolate_f32.c ****  *
  20:Drivers/CMSIS/DSP/Source/FilteringFunctions/arm_fir_interpolate_f32.c ****  * www.apache.org/licenses/LICENSE-2.0
  21:Drivers/CMSIS/DSP/Source/FilteringFunctions/arm_fir_interpolate_f32.c ****  *
  22:Drivers/CMSIS/DSP/Source/FilteringFunctions/arm_fir_interpolate_f32.c ****  * Unless required by applicable law or agreed to in writing, software
  23:Drivers/CMSIS/DSP/Source/FilteringFunctions/arm_fir_interpolate_f32.c ****  * distributed under the License is distributed on an AS IS BASIS, WITHOUT
  24:Drivers/CMSIS/DSP/Source/FilteringFunctions/arm_fir_interpolate_f32.c ****  * WARRANTIES OR CONDITIONS OF ANY KIND, either express or implied.
  25:Drivers/CMSIS/DSP/Source/FilteringFunctions/arm_fir_interpolate_f32.c ****  * See the License for the specific language governing permissions and
  26:Drivers/CMSIS/DSP/Source/FilteringFunctions/arm_fir_interpolate_f32.c ****  * limitations under the License.
  27:Drivers/CMSIS/DSP/Source/FilteringFunctions/arm_fir_interpolate_f32.c ****  */
  28:Drivers/CMSIS/DSP/Source/FilteringFunctions/arm_fir_interpolate_f32.c **** 
  29:Drivers/CMSIS/DSP/Source/FilteringFunctions/arm_fir_interpolate_f32.c **** #include "arm_math.h"
  30:Drivers/CMSIS/DSP/Source/FilteringFunctions/arm_fir_interpolate_f32.c **** 
ARM GAS  /var/folders/n6/c271nzx11xl4r4_m7sqjlt0m0000gn/T//ccIm2H6P.s 			page 2


  31:Drivers/CMSIS/DSP/Source/FilteringFunctions/arm_fir_interpolate_f32.c **** /**
  32:Drivers/CMSIS/DSP/Source/FilteringFunctions/arm_fir_interpolate_f32.c ****  * @defgroup FIR_Interpolate Finite Impulse Response (FIR) Interpolator
  33:Drivers/CMSIS/DSP/Source/FilteringFunctions/arm_fir_interpolate_f32.c ****  *
  34:Drivers/CMSIS/DSP/Source/FilteringFunctions/arm_fir_interpolate_f32.c ****  * These functions combine an upsampler (zero stuffer) and an FIR filter.
  35:Drivers/CMSIS/DSP/Source/FilteringFunctions/arm_fir_interpolate_f32.c ****  * They are used in multirate systems for increasing the sample rate of a signal without introducin
  36:Drivers/CMSIS/DSP/Source/FilteringFunctions/arm_fir_interpolate_f32.c ****  * Conceptually, the functions are equivalent to the block diagram below:
  37:Drivers/CMSIS/DSP/Source/FilteringFunctions/arm_fir_interpolate_f32.c ****  * \image html FIRInterpolator.gif "Components included in the FIR Interpolator functions"
  38:Drivers/CMSIS/DSP/Source/FilteringFunctions/arm_fir_interpolate_f32.c ****  * After upsampling by a factor of <code>L</code>, the signal should be filtered by a lowpass filte
  39:Drivers/CMSIS/DSP/Source/FilteringFunctions/arm_fir_interpolate_f32.c ****  * cutoff frequency of <code>1/L</code> in order to eliminate high frequency copies of the spectrum
  40:Drivers/CMSIS/DSP/Source/FilteringFunctions/arm_fir_interpolate_f32.c ****  * The user of the function is responsible for providing the filter coefficients.
  41:Drivers/CMSIS/DSP/Source/FilteringFunctions/arm_fir_interpolate_f32.c ****  *
  42:Drivers/CMSIS/DSP/Source/FilteringFunctions/arm_fir_interpolate_f32.c ****  * The FIR interpolator functions provided in the CMSIS DSP Library combine the upsampler and FIR f
  43:Drivers/CMSIS/DSP/Source/FilteringFunctions/arm_fir_interpolate_f32.c ****  * The upsampler inserts <code>L-1</code> zeros between each sample.
  44:Drivers/CMSIS/DSP/Source/FilteringFunctions/arm_fir_interpolate_f32.c ****  * Instead of multiplying by these zero values, the FIR filter is designed to skip them.
  45:Drivers/CMSIS/DSP/Source/FilteringFunctions/arm_fir_interpolate_f32.c ****  * This leads to an efficient implementation without any wasted effort.
  46:Drivers/CMSIS/DSP/Source/FilteringFunctions/arm_fir_interpolate_f32.c ****  * The functions operate on blocks of input and output data.
  47:Drivers/CMSIS/DSP/Source/FilteringFunctions/arm_fir_interpolate_f32.c ****  * <code>pSrc</code> points to an array of <code>blockSize</code> input values and
  48:Drivers/CMSIS/DSP/Source/FilteringFunctions/arm_fir_interpolate_f32.c ****  * <code>pDst</code> points to an array of <code>blockSize*L</code> output values.
  49:Drivers/CMSIS/DSP/Source/FilteringFunctions/arm_fir_interpolate_f32.c ****  *
  50:Drivers/CMSIS/DSP/Source/FilteringFunctions/arm_fir_interpolate_f32.c ****  * The library provides separate functions for Q15, Q31, and floating-point data types.
  51:Drivers/CMSIS/DSP/Source/FilteringFunctions/arm_fir_interpolate_f32.c ****  *
  52:Drivers/CMSIS/DSP/Source/FilteringFunctions/arm_fir_interpolate_f32.c ****  * \par Algorithm:
  53:Drivers/CMSIS/DSP/Source/FilteringFunctions/arm_fir_interpolate_f32.c ****  * The functions use a polyphase filter structure:
  54:Drivers/CMSIS/DSP/Source/FilteringFunctions/arm_fir_interpolate_f32.c ****  * <pre>
  55:Drivers/CMSIS/DSP/Source/FilteringFunctions/arm_fir_interpolate_f32.c ****  *    y[n] = b[0] * x[n] + b[L]   * x[n-1] + ... + b[L*(phaseLength-1)] * x[n-phaseLength+1]
  56:Drivers/CMSIS/DSP/Source/FilteringFunctions/arm_fir_interpolate_f32.c ****  *    y[n+1] = b[1] * x[n] + b[L+1] * x[n-1] + ... + b[L*(phaseLength-1)+1] * x[n-phaseLength+1]
  57:Drivers/CMSIS/DSP/Source/FilteringFunctions/arm_fir_interpolate_f32.c ****  *    ...
  58:Drivers/CMSIS/DSP/Source/FilteringFunctions/arm_fir_interpolate_f32.c ****  *    y[n+(L-1)] = b[L-1] * x[n] + b[2*L-1] * x[n-1] + ....+ b[L*(phaseLength-1)+(L-1)] * x[n-phase
  59:Drivers/CMSIS/DSP/Source/FilteringFunctions/arm_fir_interpolate_f32.c ****  * </pre>
  60:Drivers/CMSIS/DSP/Source/FilteringFunctions/arm_fir_interpolate_f32.c ****  * This approach is more efficient than straightforward upsample-then-filter algorithms.
  61:Drivers/CMSIS/DSP/Source/FilteringFunctions/arm_fir_interpolate_f32.c ****  * With this method the computation is reduced by a factor of <code>1/L</code> when compared to usi
  62:Drivers/CMSIS/DSP/Source/FilteringFunctions/arm_fir_interpolate_f32.c ****  * \par
  63:Drivers/CMSIS/DSP/Source/FilteringFunctions/arm_fir_interpolate_f32.c ****  * <code>pCoeffs</code> points to a coefficient array of size <code>numTaps</code>.
  64:Drivers/CMSIS/DSP/Source/FilteringFunctions/arm_fir_interpolate_f32.c ****  * <code>numTaps</code> must be a multiple of the interpolation factor <code>L</code> and this is c
  65:Drivers/CMSIS/DSP/Source/FilteringFunctions/arm_fir_interpolate_f32.c ****  * initialization functions.
  66:Drivers/CMSIS/DSP/Source/FilteringFunctions/arm_fir_interpolate_f32.c ****  * Internally, the function divides the FIR filter's impulse response into shorter filters of lengt
  67:Drivers/CMSIS/DSP/Source/FilteringFunctions/arm_fir_interpolate_f32.c ****  * <code>phaseLength=numTaps/L</code>.
  68:Drivers/CMSIS/DSP/Source/FilteringFunctions/arm_fir_interpolate_f32.c ****  * Coefficients are stored in time reversed order.
  69:Drivers/CMSIS/DSP/Source/FilteringFunctions/arm_fir_interpolate_f32.c ****  * \par
  70:Drivers/CMSIS/DSP/Source/FilteringFunctions/arm_fir_interpolate_f32.c ****  * <pre>
  71:Drivers/CMSIS/DSP/Source/FilteringFunctions/arm_fir_interpolate_f32.c ****  *    {b[numTaps-1], b[numTaps-2], b[N-2], ..., b[1], b[0]}
  72:Drivers/CMSIS/DSP/Source/FilteringFunctions/arm_fir_interpolate_f32.c ****  * </pre>
  73:Drivers/CMSIS/DSP/Source/FilteringFunctions/arm_fir_interpolate_f32.c ****  * \par
  74:Drivers/CMSIS/DSP/Source/FilteringFunctions/arm_fir_interpolate_f32.c ****  * <code>pState</code> points to a state array of size <code>blockSize + phaseLength - 1</code>.
  75:Drivers/CMSIS/DSP/Source/FilteringFunctions/arm_fir_interpolate_f32.c ****  * Samples in the state buffer are stored in the order:
  76:Drivers/CMSIS/DSP/Source/FilteringFunctions/arm_fir_interpolate_f32.c ****  * \par
  77:Drivers/CMSIS/DSP/Source/FilteringFunctions/arm_fir_interpolate_f32.c ****  * <pre>
  78:Drivers/CMSIS/DSP/Source/FilteringFunctions/arm_fir_interpolate_f32.c ****  *    {x[n-phaseLength+1], x[n-phaseLength], x[n-phaseLength-1], x[n-phaseLength-2]....x[0], x[1], 
  79:Drivers/CMSIS/DSP/Source/FilteringFunctions/arm_fir_interpolate_f32.c ****  * </pre>
  80:Drivers/CMSIS/DSP/Source/FilteringFunctions/arm_fir_interpolate_f32.c ****  * The state variables are updated after each block of data is processed, the coefficients are unto
  81:Drivers/CMSIS/DSP/Source/FilteringFunctions/arm_fir_interpolate_f32.c ****  *
  82:Drivers/CMSIS/DSP/Source/FilteringFunctions/arm_fir_interpolate_f32.c ****  * \par Instance Structure
  83:Drivers/CMSIS/DSP/Source/FilteringFunctions/arm_fir_interpolate_f32.c ****  * The coefficients and state variables for a filter are stored together in an instance data struct
  84:Drivers/CMSIS/DSP/Source/FilteringFunctions/arm_fir_interpolate_f32.c ****  * A separate instance structure must be defined for each filter.
  85:Drivers/CMSIS/DSP/Source/FilteringFunctions/arm_fir_interpolate_f32.c ****  * Coefficient arrays may be shared among several instances while state variable array should be al
  86:Drivers/CMSIS/DSP/Source/FilteringFunctions/arm_fir_interpolate_f32.c ****  * There are separate instance structure declarations for each of the 3 supported data types.
  87:Drivers/CMSIS/DSP/Source/FilteringFunctions/arm_fir_interpolate_f32.c ****  *
ARM GAS  /var/folders/n6/c271nzx11xl4r4_m7sqjlt0m0000gn/T//ccIm2H6P.s 			page 3


  88:Drivers/CMSIS/DSP/Source/FilteringFunctions/arm_fir_interpolate_f32.c ****  * \par Initialization Functions
  89:Drivers/CMSIS/DSP/Source/FilteringFunctions/arm_fir_interpolate_f32.c ****  * There is also an associated initialization function for each data type.
  90:Drivers/CMSIS/DSP/Source/FilteringFunctions/arm_fir_interpolate_f32.c ****  * The initialization function performs the following operations:
  91:Drivers/CMSIS/DSP/Source/FilteringFunctions/arm_fir_interpolate_f32.c ****  * - Sets the values of the internal structure fields.
  92:Drivers/CMSIS/DSP/Source/FilteringFunctions/arm_fir_interpolate_f32.c ****  * - Zeros out the values in the state buffer.
  93:Drivers/CMSIS/DSP/Source/FilteringFunctions/arm_fir_interpolate_f32.c ****  * - Checks to make sure that the length of the filter is a multiple of the interpolation factor.
  94:Drivers/CMSIS/DSP/Source/FilteringFunctions/arm_fir_interpolate_f32.c ****  * To do this manually without calling the init function, assign the follow subfields of the instan
  95:Drivers/CMSIS/DSP/Source/FilteringFunctions/arm_fir_interpolate_f32.c ****  * L (interpolation factor), pCoeffs, phaseLength (numTaps / L), pState. Also set all of the values
  96:Drivers/CMSIS/DSP/Source/FilteringFunctions/arm_fir_interpolate_f32.c ****  *
  97:Drivers/CMSIS/DSP/Source/FilteringFunctions/arm_fir_interpolate_f32.c ****  * \par
  98:Drivers/CMSIS/DSP/Source/FilteringFunctions/arm_fir_interpolate_f32.c ****  * Use of the initialization function is optional.
  99:Drivers/CMSIS/DSP/Source/FilteringFunctions/arm_fir_interpolate_f32.c ****  * However, if the initialization function is used, then the instance structure cannot be placed in
 100:Drivers/CMSIS/DSP/Source/FilteringFunctions/arm_fir_interpolate_f32.c ****  * To place an instance structure into a const data section, the instance structure must be manuall
 101:Drivers/CMSIS/DSP/Source/FilteringFunctions/arm_fir_interpolate_f32.c ****  * The code below statically initializes each of the 3 different data type filter instance structur
 102:Drivers/CMSIS/DSP/Source/FilteringFunctions/arm_fir_interpolate_f32.c ****  * <pre>
 103:Drivers/CMSIS/DSP/Source/FilteringFunctions/arm_fir_interpolate_f32.c ****  * arm_fir_interpolate_instance_f32 S = {L, phaseLength, pCoeffs, pState};
 104:Drivers/CMSIS/DSP/Source/FilteringFunctions/arm_fir_interpolate_f32.c ****  * arm_fir_interpolate_instance_q31 S = {L, phaseLength, pCoeffs, pState};
 105:Drivers/CMSIS/DSP/Source/FilteringFunctions/arm_fir_interpolate_f32.c ****  * arm_fir_interpolate_instance_q15 S = {L, phaseLength, pCoeffs, pState};
 106:Drivers/CMSIS/DSP/Source/FilteringFunctions/arm_fir_interpolate_f32.c ****  * </pre>
 107:Drivers/CMSIS/DSP/Source/FilteringFunctions/arm_fir_interpolate_f32.c ****  * where <code>L</code> is the interpolation factor; <code>phaseLength=numTaps/L</code> is the
 108:Drivers/CMSIS/DSP/Source/FilteringFunctions/arm_fir_interpolate_f32.c ****  * length of each of the shorter FIR filters used internally,
 109:Drivers/CMSIS/DSP/Source/FilteringFunctions/arm_fir_interpolate_f32.c ****  * <code>pCoeffs</code> is the address of the coefficient buffer;
 110:Drivers/CMSIS/DSP/Source/FilteringFunctions/arm_fir_interpolate_f32.c ****  * <code>pState</code> is the address of the state buffer.
 111:Drivers/CMSIS/DSP/Source/FilteringFunctions/arm_fir_interpolate_f32.c ****  * Be sure to set the values in the state buffer to zeros when doing static initialization.
 112:Drivers/CMSIS/DSP/Source/FilteringFunctions/arm_fir_interpolate_f32.c ****  *
 113:Drivers/CMSIS/DSP/Source/FilteringFunctions/arm_fir_interpolate_f32.c ****  * \par Fixed-Point Behavior
 114:Drivers/CMSIS/DSP/Source/FilteringFunctions/arm_fir_interpolate_f32.c ****  * Care must be taken when using the fixed-point versions of the FIR interpolate filter functions.
 115:Drivers/CMSIS/DSP/Source/FilteringFunctions/arm_fir_interpolate_f32.c ****  * In particular, the overflow and saturation behavior of the accumulator used in each function mus
 116:Drivers/CMSIS/DSP/Source/FilteringFunctions/arm_fir_interpolate_f32.c ****  * Refer to the function specific documentation below for usage guidelines.
 117:Drivers/CMSIS/DSP/Source/FilteringFunctions/arm_fir_interpolate_f32.c ****  */
 118:Drivers/CMSIS/DSP/Source/FilteringFunctions/arm_fir_interpolate_f32.c **** 
 119:Drivers/CMSIS/DSP/Source/FilteringFunctions/arm_fir_interpolate_f32.c **** /**
 120:Drivers/CMSIS/DSP/Source/FilteringFunctions/arm_fir_interpolate_f32.c ****  * @addtogroup FIR_Interpolate
 121:Drivers/CMSIS/DSP/Source/FilteringFunctions/arm_fir_interpolate_f32.c ****  * @{
 122:Drivers/CMSIS/DSP/Source/FilteringFunctions/arm_fir_interpolate_f32.c ****  */
 123:Drivers/CMSIS/DSP/Source/FilteringFunctions/arm_fir_interpolate_f32.c **** 
 124:Drivers/CMSIS/DSP/Source/FilteringFunctions/arm_fir_interpolate_f32.c **** /**
 125:Drivers/CMSIS/DSP/Source/FilteringFunctions/arm_fir_interpolate_f32.c ****  * @brief Processing function for the floating-point FIR interpolator.
 126:Drivers/CMSIS/DSP/Source/FilteringFunctions/arm_fir_interpolate_f32.c ****  * @param[in] *S        points to an instance of the floating-point FIR interpolator structure.
 127:Drivers/CMSIS/DSP/Source/FilteringFunctions/arm_fir_interpolate_f32.c ****  * @param[in] *pSrc     points to the block of input data.
 128:Drivers/CMSIS/DSP/Source/FilteringFunctions/arm_fir_interpolate_f32.c ****  * @param[out] *pDst    points to the block of output data.
 129:Drivers/CMSIS/DSP/Source/FilteringFunctions/arm_fir_interpolate_f32.c ****  * @param[in] blockSize number of input samples to process per call.
 130:Drivers/CMSIS/DSP/Source/FilteringFunctions/arm_fir_interpolate_f32.c ****  * @return none.
 131:Drivers/CMSIS/DSP/Source/FilteringFunctions/arm_fir_interpolate_f32.c ****  */
 132:Drivers/CMSIS/DSP/Source/FilteringFunctions/arm_fir_interpolate_f32.c **** #if defined (ARM_MATH_DSP)
 133:Drivers/CMSIS/DSP/Source/FilteringFunctions/arm_fir_interpolate_f32.c **** 
 134:Drivers/CMSIS/DSP/Source/FilteringFunctions/arm_fir_interpolate_f32.c ****   /* Run the below code for Cortex-M4 and Cortex-M3 */
 135:Drivers/CMSIS/DSP/Source/FilteringFunctions/arm_fir_interpolate_f32.c **** 
 136:Drivers/CMSIS/DSP/Source/FilteringFunctions/arm_fir_interpolate_f32.c **** void arm_fir_interpolate_f32(
 137:Drivers/CMSIS/DSP/Source/FilteringFunctions/arm_fir_interpolate_f32.c ****   const arm_fir_interpolate_instance_f32 * S,
 138:Drivers/CMSIS/DSP/Source/FilteringFunctions/arm_fir_interpolate_f32.c ****   float32_t * pSrc,
 139:Drivers/CMSIS/DSP/Source/FilteringFunctions/arm_fir_interpolate_f32.c ****   float32_t * pDst,
 140:Drivers/CMSIS/DSP/Source/FilteringFunctions/arm_fir_interpolate_f32.c ****   uint32_t blockSize)
 141:Drivers/CMSIS/DSP/Source/FilteringFunctions/arm_fir_interpolate_f32.c **** {
  29              		.loc 1 141 1 view -0
  30              		.cfi_startproc
  31              		@ args = 0, pretend = 0, frame = 8
ARM GAS  /var/folders/n6/c271nzx11xl4r4_m7sqjlt0m0000gn/T//ccIm2H6P.s 			page 4


  32              		@ frame_needed = 0, uses_anonymous_args = 0
  33              		.loc 1 141 1 is_stmt 0 view .LVU1
  34 0000 2DE9F04F 		push	{r4, r5, r6, r7, r8, r9, r10, fp, lr}
  35              		.cfi_def_cfa_offset 36
  36              		.cfi_offset 4, -36
  37              		.cfi_offset 5, -32
  38              		.cfi_offset 6, -28
  39              		.cfi_offset 7, -24
  40              		.cfi_offset 8, -20
  41              		.cfi_offset 9, -16
  42              		.cfi_offset 10, -12
  43              		.cfi_offset 11, -8
  44              		.cfi_offset 14, -4
  45 0004 83B0     		sub	sp, sp, #12
  46              		.cfi_def_cfa_offset 48
  47 0006 0546     		mov	r5, r0
  48 0008 0846     		mov	r0, r1
  49              	.LVL1:
  50              		.loc 1 141 1 view .LVU2
  51 000a 9646     		mov	lr, r2
 142:Drivers/CMSIS/DSP/Source/FilteringFunctions/arm_fir_interpolate_f32.c ****   float32_t *pState = S->pState;                 /* State pointer */
  52              		.loc 1 142 3 is_stmt 1 view .LVU3
  53              		.loc 1 142 14 is_stmt 0 view .LVU4
  54 000c AC68     		ldr	r4, [r5, #8]
  55              	.LVL2:
 143:Drivers/CMSIS/DSP/Source/FilteringFunctions/arm_fir_interpolate_f32.c ****   float32_t *pCoeffs = S->pCoeffs;               /* Coefficient pointer */
  56              		.loc 1 143 3 is_stmt 1 view .LVU5
  57              		.loc 1 143 14 is_stmt 0 view .LVU6
  58 000e D5F80490 		ldr	r9, [r5, #4]
  59              	.LVL3:
 144:Drivers/CMSIS/DSP/Source/FilteringFunctions/arm_fir_interpolate_f32.c ****   float32_t *pStateCurnt;                        /* Points to the current sample of the state */
  60              		.loc 1 144 3 is_stmt 1 view .LVU7
 145:Drivers/CMSIS/DSP/Source/FilteringFunctions/arm_fir_interpolate_f32.c ****   float32_t *ptr1, *ptr2;                        /* Temporary pointers for state and coefficient bu
  61              		.loc 1 145 3 view .LVU8
 146:Drivers/CMSIS/DSP/Source/FilteringFunctions/arm_fir_interpolate_f32.c ****   float32_t sum0;                                /* Accumulators */
  62              		.loc 1 146 3 view .LVU9
 147:Drivers/CMSIS/DSP/Source/FilteringFunctions/arm_fir_interpolate_f32.c ****   float32_t x0, c0;                              /* Temporary variables to hold state and coefficie
  63              		.loc 1 147 3 view .LVU10
 148:Drivers/CMSIS/DSP/Source/FilteringFunctions/arm_fir_interpolate_f32.c ****   uint32_t i, blkCnt, j;                         /* Loop counters */
  64              		.loc 1 148 3 view .LVU11
 149:Drivers/CMSIS/DSP/Source/FilteringFunctions/arm_fir_interpolate_f32.c ****   uint16_t phaseLen = S->phaseLength, tapCnt;    /* Length of each polyphase filter component */
  65              		.loc 1 149 3 view .LVU12
  66              		.loc 1 149 12 is_stmt 0 view .LVU13
  67 0012 6E88     		ldrh	r6, [r5, #2]
  68              	.LVL4:
 150:Drivers/CMSIS/DSP/Source/FilteringFunctions/arm_fir_interpolate_f32.c ****   float32_t acc0, acc1, acc2, acc3;
  69              		.loc 1 150 3 is_stmt 1 view .LVU14
 151:Drivers/CMSIS/DSP/Source/FilteringFunctions/arm_fir_interpolate_f32.c ****   float32_t x1, x2, x3;
  70              		.loc 1 151 3 view .LVU15
 152:Drivers/CMSIS/DSP/Source/FilteringFunctions/arm_fir_interpolate_f32.c ****   uint32_t blkCntN4;
  71              		.loc 1 152 3 view .LVU16
 153:Drivers/CMSIS/DSP/Source/FilteringFunctions/arm_fir_interpolate_f32.c ****   float32_t c1, c2, c3;
  72              		.loc 1 153 3 view .LVU17
 154:Drivers/CMSIS/DSP/Source/FilteringFunctions/arm_fir_interpolate_f32.c **** 
 155:Drivers/CMSIS/DSP/Source/FilteringFunctions/arm_fir_interpolate_f32.c ****   /* S->pState buffer contains previous frame (phaseLen - 1) samples */
 156:Drivers/CMSIS/DSP/Source/FilteringFunctions/arm_fir_interpolate_f32.c ****   /* pStateCurnt points to the location where the new input data should be written */
 157:Drivers/CMSIS/DSP/Source/FilteringFunctions/arm_fir_interpolate_f32.c ****   pStateCurnt = S->pState + (phaseLen - 1U);
ARM GAS  /var/folders/n6/c271nzx11xl4r4_m7sqjlt0m0000gn/T//ccIm2H6P.s 			page 5


  73              		.loc 1 157 3 view .LVU18
  74              		.loc 1 157 27 is_stmt 0 view .LVU19
  75 0014 6FF0404A 		mvn	r10, #-1073741824
  76 0018 B244     		add	r10, r10, r6
  77              		.loc 1 157 15 view .LVU20
  78 001a 04EB8A01 		add	r1, r4, r10, lsl #2
  79              	.LVL5:
 158:Drivers/CMSIS/DSP/Source/FilteringFunctions/arm_fir_interpolate_f32.c **** 
 159:Drivers/CMSIS/DSP/Source/FilteringFunctions/arm_fir_interpolate_f32.c ****   /* Initialise  blkCnt */
 160:Drivers/CMSIS/DSP/Source/FilteringFunctions/arm_fir_interpolate_f32.c ****   blkCnt = blockSize / 4;
  80              		.loc 1 160 3 is_stmt 1 view .LVU21
  81              		.loc 1 160 10 is_stmt 0 view .LVU22
  82 001e 9A08     		lsrs	r2, r3, #2
  83              	.LVL6:
 161:Drivers/CMSIS/DSP/Source/FilteringFunctions/arm_fir_interpolate_f32.c ****   blkCntN4 = blockSize - (4 * blkCnt);
  84              		.loc 1 161 3 is_stmt 1 view .LVU23
  85 0020 03F00303 		and	r3, r3, #3
  86              	.LVL7:
 162:Drivers/CMSIS/DSP/Source/FilteringFunctions/arm_fir_interpolate_f32.c **** 
 163:Drivers/CMSIS/DSP/Source/FilteringFunctions/arm_fir_interpolate_f32.c ****   /* Samples loop unrolled by 4 */
 164:Drivers/CMSIS/DSP/Source/FilteringFunctions/arm_fir_interpolate_f32.c ****   while (blkCnt > 0U)
  87              		.loc 1 164 3 view .LVU24
  88 0024 1746     		mov	r7, r2
  89 0026 0A46     		mov	r2, r1
  90              	.LVL8:
  91              		.loc 1 164 3 is_stmt 0 view .LVU25
  92 0028 0193     		str	r3, [sp, #4]
  93 002a 3946     		mov	r1, r7
  94              	.LVL9:
  95              		.loc 1 164 9 view .LVU26
  96 002c BDE0     		b	.L2
  97              	.LVL10:
  98              	.L5:
 165:Drivers/CMSIS/DSP/Source/FilteringFunctions/arm_fir_interpolate_f32.c ****   {
 166:Drivers/CMSIS/DSP/Source/FilteringFunctions/arm_fir_interpolate_f32.c ****     /* Copy new input sample into the state buffer */
 167:Drivers/CMSIS/DSP/Source/FilteringFunctions/arm_fir_interpolate_f32.c ****     *pStateCurnt++ = *pSrc++;
 168:Drivers/CMSIS/DSP/Source/FilteringFunctions/arm_fir_interpolate_f32.c ****     *pStateCurnt++ = *pSrc++;
 169:Drivers/CMSIS/DSP/Source/FilteringFunctions/arm_fir_interpolate_f32.c ****     *pStateCurnt++ = *pSrc++;
 170:Drivers/CMSIS/DSP/Source/FilteringFunctions/arm_fir_interpolate_f32.c ****     *pStateCurnt++ = *pSrc++;
 171:Drivers/CMSIS/DSP/Source/FilteringFunctions/arm_fir_interpolate_f32.c **** 
 172:Drivers/CMSIS/DSP/Source/FilteringFunctions/arm_fir_interpolate_f32.c ****     /* Address modifier index of coefficient buffer */
 173:Drivers/CMSIS/DSP/Source/FilteringFunctions/arm_fir_interpolate_f32.c ****     j = 1U;
 174:Drivers/CMSIS/DSP/Source/FilteringFunctions/arm_fir_interpolate_f32.c **** 
 175:Drivers/CMSIS/DSP/Source/FilteringFunctions/arm_fir_interpolate_f32.c ****     /* Loop over the Interpolation factor. */
 176:Drivers/CMSIS/DSP/Source/FilteringFunctions/arm_fir_interpolate_f32.c ****     i = (S->L);
 177:Drivers/CMSIS/DSP/Source/FilteringFunctions/arm_fir_interpolate_f32.c **** 
 178:Drivers/CMSIS/DSP/Source/FilteringFunctions/arm_fir_interpolate_f32.c ****     while (i > 0U)
 179:Drivers/CMSIS/DSP/Source/FilteringFunctions/arm_fir_interpolate_f32.c ****     {
 180:Drivers/CMSIS/DSP/Source/FilteringFunctions/arm_fir_interpolate_f32.c ****       /* Set accumulator to zero */
 181:Drivers/CMSIS/DSP/Source/FilteringFunctions/arm_fir_interpolate_f32.c ****       acc0 = 0.0f;
 182:Drivers/CMSIS/DSP/Source/FilteringFunctions/arm_fir_interpolate_f32.c ****       acc1 = 0.0f;
 183:Drivers/CMSIS/DSP/Source/FilteringFunctions/arm_fir_interpolate_f32.c ****       acc2 = 0.0f;
 184:Drivers/CMSIS/DSP/Source/FilteringFunctions/arm_fir_interpolate_f32.c ****       acc3 = 0.0f;
 185:Drivers/CMSIS/DSP/Source/FilteringFunctions/arm_fir_interpolate_f32.c **** 
 186:Drivers/CMSIS/DSP/Source/FilteringFunctions/arm_fir_interpolate_f32.c ****       /* Initialize state pointer */
 187:Drivers/CMSIS/DSP/Source/FilteringFunctions/arm_fir_interpolate_f32.c ****       ptr1 = pState;
 188:Drivers/CMSIS/DSP/Source/FilteringFunctions/arm_fir_interpolate_f32.c **** 
ARM GAS  /var/folders/n6/c271nzx11xl4r4_m7sqjlt0m0000gn/T//ccIm2H6P.s 			page 6


 189:Drivers/CMSIS/DSP/Source/FilteringFunctions/arm_fir_interpolate_f32.c ****       /* Initialize coefficient pointer */
 190:Drivers/CMSIS/DSP/Source/FilteringFunctions/arm_fir_interpolate_f32.c ****       ptr2 = pCoeffs + (S->L - j);
 191:Drivers/CMSIS/DSP/Source/FilteringFunctions/arm_fir_interpolate_f32.c **** 
 192:Drivers/CMSIS/DSP/Source/FilteringFunctions/arm_fir_interpolate_f32.c ****       /* Loop over the polyPhase length. Unroll by a factor of 4.
 193:Drivers/CMSIS/DSP/Source/FilteringFunctions/arm_fir_interpolate_f32.c ****        ** Repeat until we've computed numTaps-(4*S->L) coefficients. */
 194:Drivers/CMSIS/DSP/Source/FilteringFunctions/arm_fir_interpolate_f32.c ****       tapCnt = phaseLen >> 2U;
 195:Drivers/CMSIS/DSP/Source/FilteringFunctions/arm_fir_interpolate_f32.c **** 
 196:Drivers/CMSIS/DSP/Source/FilteringFunctions/arm_fir_interpolate_f32.c ****       x0 = *(ptr1++);
 197:Drivers/CMSIS/DSP/Source/FilteringFunctions/arm_fir_interpolate_f32.c ****       x1 = *(ptr1++);
 198:Drivers/CMSIS/DSP/Source/FilteringFunctions/arm_fir_interpolate_f32.c ****       x2 = *(ptr1++);
 199:Drivers/CMSIS/DSP/Source/FilteringFunctions/arm_fir_interpolate_f32.c **** 
 200:Drivers/CMSIS/DSP/Source/FilteringFunctions/arm_fir_interpolate_f32.c ****       while (tapCnt > 0U)
 201:Drivers/CMSIS/DSP/Source/FilteringFunctions/arm_fir_interpolate_f32.c ****       {
 202:Drivers/CMSIS/DSP/Source/FilteringFunctions/arm_fir_interpolate_f32.c **** 
 203:Drivers/CMSIS/DSP/Source/FilteringFunctions/arm_fir_interpolate_f32.c ****         /* Read the input sample */
 204:Drivers/CMSIS/DSP/Source/FilteringFunctions/arm_fir_interpolate_f32.c ****         x3 = *(ptr1++);
  99              		.loc 1 204 9 is_stmt 1 view .LVU27
 100              		.loc 1 204 12 is_stmt 0 view .LVU28
 101 002e D3ED003A 		vldr.32	s7, [r3]
 102              	.LVL11:
 205:Drivers/CMSIS/DSP/Source/FilteringFunctions/arm_fir_interpolate_f32.c **** 
 206:Drivers/CMSIS/DSP/Source/FilteringFunctions/arm_fir_interpolate_f32.c ****         /* Read the coefficient */
 207:Drivers/CMSIS/DSP/Source/FilteringFunctions/arm_fir_interpolate_f32.c ****         c0 = *(ptr2);
 103              		.loc 1 207 9 is_stmt 1 view .LVU29
 104              		.loc 1 207 12 is_stmt 0 view .LVU30
 105 0032 91ED007A 		vldr.32	s14, [r1]
 106              	.LVL12:
 208:Drivers/CMSIS/DSP/Source/FilteringFunctions/arm_fir_interpolate_f32.c **** 
 209:Drivers/CMSIS/DSP/Source/FilteringFunctions/arm_fir_interpolate_f32.c ****         /* Perform the multiply-accumulate */
 210:Drivers/CMSIS/DSP/Source/FilteringFunctions/arm_fir_interpolate_f32.c ****         acc0 += x0 * c0;
 107              		.loc 1 210 9 is_stmt 1 view .LVU31
 108              		.loc 1 210 20 is_stmt 0 view .LVU32
 109 0036 26EE076A 		vmul.f32	s12, s12, s14
 110              	.LVL13:
 111              		.loc 1 210 14 view .LVU33
 112 003a 76EE266A 		vadd.f32	s13, s12, s13
 113              	.LVL14:
 211:Drivers/CMSIS/DSP/Source/FilteringFunctions/arm_fir_interpolate_f32.c ****         acc1 += x1 * c0;
 114              		.loc 1 211 9 is_stmt 1 view .LVU34
 115              		.loc 1 211 20 is_stmt 0 view .LVU35
 116 003e 25EE876A 		vmul.f32	s12, s11, s14
 117              		.loc 1 211 14 view .LVU36
 118 0042 76EE244A 		vadd.f32	s9, s12, s9
 119              	.LVL15:
 212:Drivers/CMSIS/DSP/Source/FilteringFunctions/arm_fir_interpolate_f32.c ****         acc2 += x2 * c0;
 120              		.loc 1 212 9 is_stmt 1 view .LVU37
 121              		.loc 1 212 20 is_stmt 0 view .LVU38
 122 0046 24EE076A 		vmul.f32	s12, s8, s14
 123              		.loc 1 212 14 view .LVU39
 124 004a 36EE055A 		vadd.f32	s10, s12, s10
 125              	.LVL16:
 213:Drivers/CMSIS/DSP/Source/FilteringFunctions/arm_fir_interpolate_f32.c ****         acc3 += x3 * c0;
 126              		.loc 1 213 9 is_stmt 1 view .LVU40
 127              		.loc 1 213 20 is_stmt 0 view .LVU41
 128 004e 23EE877A 		vmul.f32	s14, s7, s14
 129              	.LVL17:
 130              		.loc 1 213 14 view .LVU42
ARM GAS  /var/folders/n6/c271nzx11xl4r4_m7sqjlt0m0000gn/T//ccIm2H6P.s 			page 7


 131 0052 77EE277A 		vadd.f32	s15, s14, s15
 132              	.LVL18:
 214:Drivers/CMSIS/DSP/Source/FilteringFunctions/arm_fir_interpolate_f32.c **** 
 215:Drivers/CMSIS/DSP/Source/FilteringFunctions/arm_fir_interpolate_f32.c ****         /* Read the coefficient */
 216:Drivers/CMSIS/DSP/Source/FilteringFunctions/arm_fir_interpolate_f32.c ****         c1 = *(ptr2 + S->L);
 133              		.loc 1 216 9 is_stmt 1 view .LVU43
 134              		.loc 1 216 21 is_stmt 0 view .LVU44
 135 0056 01EB8004 		add	r4, r1, r0, lsl #2
 136              		.loc 1 216 12 view .LVU45
 137 005a 94ED007A 		vldr.32	s14, [r4]
 138              	.LVL19:
 217:Drivers/CMSIS/DSP/Source/FilteringFunctions/arm_fir_interpolate_f32.c **** 
 218:Drivers/CMSIS/DSP/Source/FilteringFunctions/arm_fir_interpolate_f32.c ****         /* Read the input sample */
 219:Drivers/CMSIS/DSP/Source/FilteringFunctions/arm_fir_interpolate_f32.c ****         x0 = *(ptr1++);
 139              		.loc 1 219 9 is_stmt 1 view .LVU46
 140              		.loc 1 219 12 is_stmt 0 view .LVU47
 141 005e 93ED016A 		vldr.32	s12, [r3, #4]
 142              	.LVL20:
 220:Drivers/CMSIS/DSP/Source/FilteringFunctions/arm_fir_interpolate_f32.c **** 
 221:Drivers/CMSIS/DSP/Source/FilteringFunctions/arm_fir_interpolate_f32.c ****         /* Perform the multiply-accumulate */
 222:Drivers/CMSIS/DSP/Source/FilteringFunctions/arm_fir_interpolate_f32.c ****         acc0 += x1 * c1;
 143              		.loc 1 222 9 is_stmt 1 view .LVU48
 144              		.loc 1 222 20 is_stmt 0 view .LVU49
 145 0062 65EE875A 		vmul.f32	s11, s11, s14
 146              	.LVL21:
 147              		.loc 1 222 14 view .LVU50
 148 0066 75EEA62A 		vadd.f32	s5, s11, s13
 149              	.LVL22:
 223:Drivers/CMSIS/DSP/Source/FilteringFunctions/arm_fir_interpolate_f32.c ****         acc1 += x2 * c1;
 150              		.loc 1 223 9 is_stmt 1 view .LVU51
 151              		.loc 1 223 20 is_stmt 0 view .LVU52
 152 006a 24EE073A 		vmul.f32	s6, s8, s14
 153              		.loc 1 223 14 view .LVU53
 154 006e 33EE243A 		vadd.f32	s6, s6, s9
 155              	.LVL23:
 224:Drivers/CMSIS/DSP/Source/FilteringFunctions/arm_fir_interpolate_f32.c ****         acc2 += x3 * c1;
 156              		.loc 1 224 9 is_stmt 1 view .LVU54
 157              		.loc 1 224 20 is_stmt 0 view .LVU55
 158 0072 63EE874A 		vmul.f32	s9, s7, s14
 159              		.loc 1 224 14 view .LVU56
 160 0076 74EE854A 		vadd.f32	s9, s9, s10
 161              	.LVL24:
 225:Drivers/CMSIS/DSP/Source/FilteringFunctions/arm_fir_interpolate_f32.c ****         acc3 += x0 * c1;
 162              		.loc 1 225 9 is_stmt 1 view .LVU57
 163              		.loc 1 225 20 is_stmt 0 view .LVU58
 164 007a 27EE067A 		vmul.f32	s14, s14, s12
 165              	.LVL25:
 166              		.loc 1 225 14 view .LVU59
 167 007e 37EE277A 		vadd.f32	s14, s14, s15
 168              	.LVL26:
 226:Drivers/CMSIS/DSP/Source/FilteringFunctions/arm_fir_interpolate_f32.c **** 
 227:Drivers/CMSIS/DSP/Source/FilteringFunctions/arm_fir_interpolate_f32.c ****         /* Read the coefficient */
 228:Drivers/CMSIS/DSP/Source/FilteringFunctions/arm_fir_interpolate_f32.c ****         c2 = *(ptr2 + S->L * 2);
 169              		.loc 1 228 9 is_stmt 1 view .LVU60
 170              		.loc 1 228 21 is_stmt 0 view .LVU61
 171 0082 01EBC004 		add	r4, r1, r0, lsl #3
 172              	.LVL27:
ARM GAS  /var/folders/n6/c271nzx11xl4r4_m7sqjlt0m0000gn/T//ccIm2H6P.s 			page 8


 173              		.loc 1 228 12 view .LVU62
 174 0086 D4ED007A 		vldr.32	s15, [r4]
 175              	.LVL28:
 229:Drivers/CMSIS/DSP/Source/FilteringFunctions/arm_fir_interpolate_f32.c **** 
 230:Drivers/CMSIS/DSP/Source/FilteringFunctions/arm_fir_interpolate_f32.c ****         /* Read the input sample */
 231:Drivers/CMSIS/DSP/Source/FilteringFunctions/arm_fir_interpolate_f32.c ****         x1 = *(ptr1++);
 176              		.loc 1 231 9 is_stmt 1 view .LVU63
 177              		.loc 1 231 12 is_stmt 0 view .LVU64
 178 008a D3ED025A 		vldr.32	s11, [r3, #8]
 179              	.LVL29:
 232:Drivers/CMSIS/DSP/Source/FilteringFunctions/arm_fir_interpolate_f32.c **** 
 233:Drivers/CMSIS/DSP/Source/FilteringFunctions/arm_fir_interpolate_f32.c ****         /* Perform the multiply-accumulate */
 234:Drivers/CMSIS/DSP/Source/FilteringFunctions/arm_fir_interpolate_f32.c ****         acc0 += x2 * c2;
 180              		.loc 1 234 9 is_stmt 1 view .LVU65
 181              		.loc 1 234 20 is_stmt 0 view .LVU66
 182 008e 64EE276A 		vmul.f32	s13, s8, s15
 183              		.loc 1 234 14 view .LVU67
 184 0092 76EEA26A 		vadd.f32	s13, s13, s5
 185              	.LVL30:
 235:Drivers/CMSIS/DSP/Source/FilteringFunctions/arm_fir_interpolate_f32.c ****         acc1 += x3 * c2;
 186              		.loc 1 235 9 is_stmt 1 view .LVU68
 187              		.loc 1 235 20 is_stmt 0 view .LVU69
 188 0096 23EEA75A 		vmul.f32	s10, s7, s15
 189              		.loc 1 235 14 view .LVU70
 190 009a 35EE035A 		vadd.f32	s10, s10, s6
 191              	.LVL31:
 236:Drivers/CMSIS/DSP/Source/FilteringFunctions/arm_fir_interpolate_f32.c ****         acc2 += x0 * c2;
 192              		.loc 1 236 9 is_stmt 1 view .LVU71
 193              		.loc 1 236 20 is_stmt 0 view .LVU72
 194 009e 26EE273A 		vmul.f32	s6, s12, s15
 195              		.loc 1 236 14 view .LVU73
 196 00a2 33EE243A 		vadd.f32	s6, s6, s9
 197              	.LVL32:
 237:Drivers/CMSIS/DSP/Source/FilteringFunctions/arm_fir_interpolate_f32.c ****         acc3 += x1 * c2;
 198              		.loc 1 237 9 is_stmt 1 view .LVU74
 199              		.loc 1 237 20 is_stmt 0 view .LVU75
 200 00a6 67EEA57A 		vmul.f32	s15, s15, s11
 201              	.LVL33:
 202              		.loc 1 237 14 view .LVU76
 203 00aa 37EE877A 		vadd.f32	s14, s15, s14
 204              	.LVL34:
 238:Drivers/CMSIS/DSP/Source/FilteringFunctions/arm_fir_interpolate_f32.c **** 
 239:Drivers/CMSIS/DSP/Source/FilteringFunctions/arm_fir_interpolate_f32.c ****         /* Read the coefficient */
 240:Drivers/CMSIS/DSP/Source/FilteringFunctions/arm_fir_interpolate_f32.c ****         c3 = *(ptr2 + S->L * 3);
 205              		.loc 1 240 9 is_stmt 1 view .LVU77
 206              		.loc 1 240 21 is_stmt 0 view .LVU78
 207 00ae 00EB4004 		add	r4, r0, r0, lsl #1
 208              	.LVL35:
 209              		.loc 1 240 21 view .LVU79
 210 00b2 01EB8404 		add	r4, r1, r4, lsl #2
 211              		.loc 1 240 12 view .LVU80
 212 00b6 D4ED007A 		vldr.32	s15, [r4]
 213              	.LVL36:
 241:Drivers/CMSIS/DSP/Source/FilteringFunctions/arm_fir_interpolate_f32.c **** 
 242:Drivers/CMSIS/DSP/Source/FilteringFunctions/arm_fir_interpolate_f32.c ****         /* Read the input sample */
 243:Drivers/CMSIS/DSP/Source/FilteringFunctions/arm_fir_interpolate_f32.c ****         x2 = *(ptr1++);
 214              		.loc 1 243 9 is_stmt 1 view .LVU81
ARM GAS  /var/folders/n6/c271nzx11xl4r4_m7sqjlt0m0000gn/T//ccIm2H6P.s 			page 9


 215              		.loc 1 243 12 is_stmt 0 view .LVU82
 216 00ba 93ED034A 		vldr.32	s8, [r3, #12]
 217              	.LVL37:
 244:Drivers/CMSIS/DSP/Source/FilteringFunctions/arm_fir_interpolate_f32.c **** 
 245:Drivers/CMSIS/DSP/Source/FilteringFunctions/arm_fir_interpolate_f32.c ****         /* Perform the multiply-accumulate */
 246:Drivers/CMSIS/DSP/Source/FilteringFunctions/arm_fir_interpolate_f32.c ****         acc0 += x3 * c3;
 218              		.loc 1 246 9 is_stmt 1 view .LVU83
 219              		.loc 1 246 20 is_stmt 0 view .LVU84
 220 00be 63EEA73A 		vmul.f32	s7, s7, s15
 221              	.LVL38:
 222              		.loc 1 246 14 view .LVU85
 223 00c2 73EEA66A 		vadd.f32	s13, s7, s13
 224              	.LVL39:
 247:Drivers/CMSIS/DSP/Source/FilteringFunctions/arm_fir_interpolate_f32.c ****         acc1 += x0 * c3;
 225              		.loc 1 247 9 is_stmt 1 view .LVU86
 226              		.loc 1 247 20 is_stmt 0 view .LVU87
 227 00c6 66EE274A 		vmul.f32	s9, s12, s15
 228              		.loc 1 247 14 view .LVU88
 229 00ca 74EE854A 		vadd.f32	s9, s9, s10
 230              	.LVL40:
 248:Drivers/CMSIS/DSP/Source/FilteringFunctions/arm_fir_interpolate_f32.c ****         acc2 += x1 * c3;
 231              		.loc 1 248 9 is_stmt 1 view .LVU89
 232              		.loc 1 248 20 is_stmt 0 view .LVU90
 233 00ce 25EEA75A 		vmul.f32	s10, s11, s15
 234              		.loc 1 248 14 view .LVU91
 235 00d2 35EE035A 		vadd.f32	s10, s10, s6
 236              	.LVL41:
 249:Drivers/CMSIS/DSP/Source/FilteringFunctions/arm_fir_interpolate_f32.c ****         acc3 += x2 * c3;
 237              		.loc 1 249 9 is_stmt 1 view .LVU92
 238              		.loc 1 249 20 is_stmt 0 view .LVU93
 239 00d6 67EE847A 		vmul.f32	s15, s15, s8
 240              	.LVL42:
 241              		.loc 1 249 14 view .LVU94
 242 00da 77EE877A 		vadd.f32	s15, s15, s14
 243              	.LVL43:
 250:Drivers/CMSIS/DSP/Source/FilteringFunctions/arm_fir_interpolate_f32.c **** 
 251:Drivers/CMSIS/DSP/Source/FilteringFunctions/arm_fir_interpolate_f32.c **** 
 252:Drivers/CMSIS/DSP/Source/FilteringFunctions/arm_fir_interpolate_f32.c ****         /* Upsampling is done by stuffing L-1 zeros between each sample.
 253:Drivers/CMSIS/DSP/Source/FilteringFunctions/arm_fir_interpolate_f32.c ****          * So instead of multiplying zeros with coefficients,
 254:Drivers/CMSIS/DSP/Source/FilteringFunctions/arm_fir_interpolate_f32.c ****          * Increment the coefficient pointer by interpolation factor times. */
 255:Drivers/CMSIS/DSP/Source/FilteringFunctions/arm_fir_interpolate_f32.c ****         ptr2 += 4 * S->L;
 244              		.loc 1 255 9 is_stmt 1 view .LVU95
 245              		.loc 1 255 14 is_stmt 0 view .LVU96
 246 00de 01EB0011 		add	r1, r1, r0, lsl #4
 247              	.LVL44:
 256:Drivers/CMSIS/DSP/Source/FilteringFunctions/arm_fir_interpolate_f32.c **** 
 257:Drivers/CMSIS/DSP/Source/FilteringFunctions/arm_fir_interpolate_f32.c ****         /* Decrement the loop counter */
 258:Drivers/CMSIS/DSP/Source/FilteringFunctions/arm_fir_interpolate_f32.c ****         tapCnt--;
 248              		.loc 1 258 9 is_stmt 1 view .LVU97
 249              		.loc 1 258 15 is_stmt 0 view .LVU98
 250 00e2 013F     		subs	r7, r7, #1
 251              	.LVL45:
 252              		.loc 1 258 15 view .LVU99
 253 00e4 BFB2     		uxth	r7, r7
 254              	.LVL46:
 243:Drivers/CMSIS/DSP/Source/FilteringFunctions/arm_fir_interpolate_f32.c **** 
 255              		.loc 1 243 20 view .LVU100
ARM GAS  /var/folders/n6/c271nzx11xl4r4_m7sqjlt0m0000gn/T//ccIm2H6P.s 			page 10


 256 00e6 1033     		adds	r3, r3, #16
 257              	.LVL47:
 258              	.L4:
 200:Drivers/CMSIS/DSP/Source/FilteringFunctions/arm_fir_interpolate_f32.c ****       {
 259              		.loc 1 200 21 is_stmt 1 view .LVU101
 260 00e8 002F     		cmp	r7, #0
 261 00ea A0D1     		bne	.L5
 259:Drivers/CMSIS/DSP/Source/FilteringFunctions/arm_fir_interpolate_f32.c ****       }
 260:Drivers/CMSIS/DSP/Source/FilteringFunctions/arm_fir_interpolate_f32.c **** 
 261:Drivers/CMSIS/DSP/Source/FilteringFunctions/arm_fir_interpolate_f32.c ****       /* If the polyPhase length is not a multiple of 4, compute the remaining filter taps */
 262:Drivers/CMSIS/DSP/Source/FilteringFunctions/arm_fir_interpolate_f32.c ****       tapCnt = phaseLen % 0x4U;
 262              		.loc 1 262 14 is_stmt 0 view .LVU102
 263 00ec 009C     		ldr	r4, [sp]
 264              		.loc 1 262 7 is_stmt 1 view .LVU103
 265              		.loc 1 262 14 is_stmt 0 view .LVU104
 266 00ee 06F00307 		and	r7, r6, #3
 267              	.LVL48:
 263:Drivers/CMSIS/DSP/Source/FilteringFunctions/arm_fir_interpolate_f32.c **** 
 264:Drivers/CMSIS/DSP/Source/FilteringFunctions/arm_fir_interpolate_f32.c ****       while (tapCnt > 0U)
 268              		.loc 1 264 7 is_stmt 1 view .LVU105
 269              		.loc 1 264 13 is_stmt 0 view .LVU106
 270 00f2 1DE0     		b	.L6
 271              	.L7:
 265:Drivers/CMSIS/DSP/Source/FilteringFunctions/arm_fir_interpolate_f32.c ****       {
 266:Drivers/CMSIS/DSP/Source/FilteringFunctions/arm_fir_interpolate_f32.c **** 
 267:Drivers/CMSIS/DSP/Source/FilteringFunctions/arm_fir_interpolate_f32.c ****         /* Read the input sample */
 268:Drivers/CMSIS/DSP/Source/FilteringFunctions/arm_fir_interpolate_f32.c ****         x3 = *(ptr1++);
 272              		.loc 1 268 9 is_stmt 1 view .LVU107
 273              	.LVL49:
 274              		.loc 1 268 12 is_stmt 0 view .LVU108
 275 00f4 F3EC013A 		vldmia.32	r3!, {s7}
 276              	.LVL50:
 269:Drivers/CMSIS/DSP/Source/FilteringFunctions/arm_fir_interpolate_f32.c **** 
 270:Drivers/CMSIS/DSP/Source/FilteringFunctions/arm_fir_interpolate_f32.c ****         /* Read the coefficient */
 271:Drivers/CMSIS/DSP/Source/FilteringFunctions/arm_fir_interpolate_f32.c ****         c0 = *(ptr2);
 277              		.loc 1 271 9 is_stmt 1 view .LVU109
 278              		.loc 1 271 12 is_stmt 0 view .LVU110
 279 00f8 91ED007A 		vldr.32	s14, [r1]
 280              	.LVL51:
 272:Drivers/CMSIS/DSP/Source/FilteringFunctions/arm_fir_interpolate_f32.c **** 
 273:Drivers/CMSIS/DSP/Source/FilteringFunctions/arm_fir_interpolate_f32.c ****         /* Perform the multiply-accumulate */
 274:Drivers/CMSIS/DSP/Source/FilteringFunctions/arm_fir_interpolate_f32.c ****         acc0 += x0 * c0;
 281              		.loc 1 274 9 is_stmt 1 view .LVU111
 282              		.loc 1 274 20 is_stmt 0 view .LVU112
 283 00fc 26EE076A 		vmul.f32	s12, s12, s14
 284              	.LVL52:
 285              		.loc 1 274 14 view .LVU113
 286 0100 76EE866A 		vadd.f32	s13, s13, s12
 287              	.LVL53:
 275:Drivers/CMSIS/DSP/Source/FilteringFunctions/arm_fir_interpolate_f32.c ****         acc1 += x1 * c0;
 288              		.loc 1 275 9 is_stmt 1 view .LVU114
 289              		.loc 1 275 20 is_stmt 0 view .LVU115
 290 0104 25EE876A 		vmul.f32	s12, s11, s14
 291              		.loc 1 275 14 view .LVU116
 292 0108 74EE864A 		vadd.f32	s9, s9, s12
 293              	.LVL54:
 276:Drivers/CMSIS/DSP/Source/FilteringFunctions/arm_fir_interpolate_f32.c ****         acc2 += x2 * c0;
ARM GAS  /var/folders/n6/c271nzx11xl4r4_m7sqjlt0m0000gn/T//ccIm2H6P.s 			page 11


 294              		.loc 1 276 9 is_stmt 1 view .LVU117
 295              		.loc 1 276 20 is_stmt 0 view .LVU118
 296 010c 24EE076A 		vmul.f32	s12, s8, s14
 297              		.loc 1 276 14 view .LVU119
 298 0110 35EE065A 		vadd.f32	s10, s10, s12
 299              	.LVL55:
 277:Drivers/CMSIS/DSP/Source/FilteringFunctions/arm_fir_interpolate_f32.c ****         acc3 += x3 * c0;
 300              		.loc 1 277 9 is_stmt 1 view .LVU120
 301              		.loc 1 277 20 is_stmt 0 view .LVU121
 302 0114 23EE877A 		vmul.f32	s14, s7, s14
 303              	.LVL56:
 304              		.loc 1 277 14 view .LVU122
 305 0118 77EE877A 		vadd.f32	s15, s15, s14
 306              	.LVL57:
 278:Drivers/CMSIS/DSP/Source/FilteringFunctions/arm_fir_interpolate_f32.c **** 
 279:Drivers/CMSIS/DSP/Source/FilteringFunctions/arm_fir_interpolate_f32.c ****         /* Increment the coefficient pointer by interpolation factor times. */
 280:Drivers/CMSIS/DSP/Source/FilteringFunctions/arm_fir_interpolate_f32.c ****         ptr2 += S->L;
 307              		.loc 1 280 9 is_stmt 1 view .LVU123
 308              		.loc 1 280 14 is_stmt 0 view .LVU124
 309 011c 01EB8001 		add	r1, r1, r0, lsl #2
 310              	.LVL58:
 281:Drivers/CMSIS/DSP/Source/FilteringFunctions/arm_fir_interpolate_f32.c **** 
 282:Drivers/CMSIS/DSP/Source/FilteringFunctions/arm_fir_interpolate_f32.c ****         /* update states for next sample processing */
 283:Drivers/CMSIS/DSP/Source/FilteringFunctions/arm_fir_interpolate_f32.c ****         x0 = x1;
 311              		.loc 1 283 9 is_stmt 1 view .LVU125
 284:Drivers/CMSIS/DSP/Source/FilteringFunctions/arm_fir_interpolate_f32.c ****         x1 = x2;
 312              		.loc 1 284 9 view .LVU126
 285:Drivers/CMSIS/DSP/Source/FilteringFunctions/arm_fir_interpolate_f32.c ****         x2 = x3;
 313              		.loc 1 285 9 view .LVU127
 286:Drivers/CMSIS/DSP/Source/FilteringFunctions/arm_fir_interpolate_f32.c **** 
 287:Drivers/CMSIS/DSP/Source/FilteringFunctions/arm_fir_interpolate_f32.c ****         /* Decrement the loop counter */
 288:Drivers/CMSIS/DSP/Source/FilteringFunctions/arm_fir_interpolate_f32.c ****         tapCnt--;
 314              		.loc 1 288 9 view .LVU128
 315              		.loc 1 288 15 is_stmt 0 view .LVU129
 316 0120 013F     		subs	r7, r7, #1
 317              	.LVL59:
 318              		.loc 1 288 15 view .LVU130
 319 0122 BFB2     		uxth	r7, r7
 320              	.LVL60:
 283:Drivers/CMSIS/DSP/Source/FilteringFunctions/arm_fir_interpolate_f32.c ****         x1 = x2;
 321              		.loc 1 283 12 view .LVU131
 322 0124 B0EE656A 		vmov.f32	s12, s11
 284:Drivers/CMSIS/DSP/Source/FilteringFunctions/arm_fir_interpolate_f32.c ****         x2 = x3;
 323              		.loc 1 284 12 view .LVU132
 324 0128 F0EE445A 		vmov.f32	s11, s8
 325              	.LVL61:
 285:Drivers/CMSIS/DSP/Source/FilteringFunctions/arm_fir_interpolate_f32.c **** 
 326              		.loc 1 285 12 view .LVU133
 327 012c B0EE634A 		vmov.f32	s8, s7
 328              	.LVL62:
 329              	.L6:
 264:Drivers/CMSIS/DSP/Source/FilteringFunctions/arm_fir_interpolate_f32.c ****       {
 330              		.loc 1 264 21 is_stmt 1 view .LVU134
 331 0130 002F     		cmp	r7, #0
 332 0132 DFD1     		bne	.L7
 289:Drivers/CMSIS/DSP/Source/FilteringFunctions/arm_fir_interpolate_f32.c ****       }
 290:Drivers/CMSIS/DSP/Source/FilteringFunctions/arm_fir_interpolate_f32.c **** 
ARM GAS  /var/folders/n6/c271nzx11xl4r4_m7sqjlt0m0000gn/T//ccIm2H6P.s 			page 12


 291:Drivers/CMSIS/DSP/Source/FilteringFunctions/arm_fir_interpolate_f32.c ****       /* The result is in the accumulator, store in the destination buffer. */
 292:Drivers/CMSIS/DSP/Source/FilteringFunctions/arm_fir_interpolate_f32.c ****       *pDst = acc0;
 333              		.loc 1 292 7 view .LVU135
 334              		.loc 1 292 13 is_stmt 0 view .LVU136
 335 0134 CEED006A 		vstr.32	s13, [lr]
 293:Drivers/CMSIS/DSP/Source/FilteringFunctions/arm_fir_interpolate_f32.c ****       *(pDst + S->L) = acc1;
 336              		.loc 1 293 7 is_stmt 1 view .LVU137
 337              		.loc 1 293 17 is_stmt 0 view .LVU138
 338 0138 2B78     		ldrb	r3, [r5]	@ zero_extendqisi2
 339              	.LVL63:
 340              		.loc 1 293 14 view .LVU139
 341 013a 0EEB8303 		add	r3, lr, r3, lsl #2
 342              		.loc 1 293 22 view .LVU140
 343 013e C3ED004A 		vstr.32	s9, [r3]
 294:Drivers/CMSIS/DSP/Source/FilteringFunctions/arm_fir_interpolate_f32.c ****       *(pDst + 2 * S->L) = acc2;
 344              		.loc 1 294 7 is_stmt 1 view .LVU141
 345              		.loc 1 294 21 is_stmt 0 view .LVU142
 346 0142 2B78     		ldrb	r3, [r5]	@ zero_extendqisi2
 347              		.loc 1 294 14 view .LVU143
 348 0144 0EEBC303 		add	r3, lr, r3, lsl #3
 349              		.loc 1 294 26 view .LVU144
 350 0148 83ED005A 		vstr.32	s10, [r3]
 295:Drivers/CMSIS/DSP/Source/FilteringFunctions/arm_fir_interpolate_f32.c ****       *(pDst + 3 * S->L) = acc3;
 351              		.loc 1 295 7 is_stmt 1 view .LVU145
 352              		.loc 1 295 21 is_stmt 0 view .LVU146
 353 014c 2B78     		ldrb	r3, [r5]	@ zero_extendqisi2
 354              		.loc 1 295 14 view .LVU147
 355 014e 03EB4303 		add	r3, r3, r3, lsl #1
 356 0152 0EEB8303 		add	r3, lr, r3, lsl #2
 357              		.loc 1 295 26 view .LVU148
 358 0156 C3ED007A 		vstr.32	s15, [r3]
 296:Drivers/CMSIS/DSP/Source/FilteringFunctions/arm_fir_interpolate_f32.c **** 
 297:Drivers/CMSIS/DSP/Source/FilteringFunctions/arm_fir_interpolate_f32.c ****       pDst++;
 359              		.loc 1 297 7 is_stmt 1 view .LVU149
 360              		.loc 1 297 11 is_stmt 0 view .LVU150
 361 015a 0EF1040E 		add	lr, lr, #4
 362              	.LVL64:
 298:Drivers/CMSIS/DSP/Source/FilteringFunctions/arm_fir_interpolate_f32.c **** 
 299:Drivers/CMSIS/DSP/Source/FilteringFunctions/arm_fir_interpolate_f32.c ****       /* Increment the address modifier index of coefficient buffer */
 300:Drivers/CMSIS/DSP/Source/FilteringFunctions/arm_fir_interpolate_f32.c ****       j++;
 363              		.loc 1 300 7 is_stmt 1 view .LVU151
 364              		.loc 1 300 8 is_stmt 0 view .LVU152
 365 015e 08F10108 		add	r8, r8, #1
 366              	.LVL65:
 301:Drivers/CMSIS/DSP/Source/FilteringFunctions/arm_fir_interpolate_f32.c **** 
 302:Drivers/CMSIS/DSP/Source/FilteringFunctions/arm_fir_interpolate_f32.c ****       /* Decrement the loop counter */
 303:Drivers/CMSIS/DSP/Source/FilteringFunctions/arm_fir_interpolate_f32.c ****       i--;
 367              		.loc 1 303 7 is_stmt 1 view .LVU153
 368              		.loc 1 303 8 is_stmt 0 view .LVU154
 369 0162 013A     		subs	r2, r2, #1
 370              	.LVL66:
 371              	.L3:
 178:Drivers/CMSIS/DSP/Source/FilteringFunctions/arm_fir_interpolate_f32.c ****     {
 372              		.loc 1 178 14 is_stmt 1 view .LVU155
 373 0164 BAB1     		cbz	r2, .L23
 181:Drivers/CMSIS/DSP/Source/FilteringFunctions/arm_fir_interpolate_f32.c ****       acc1 = 0.0f;
 374              		.loc 1 181 7 view .LVU156
ARM GAS  /var/folders/n6/c271nzx11xl4r4_m7sqjlt0m0000gn/T//ccIm2H6P.s 			page 13


 375              	.LVL67:
 182:Drivers/CMSIS/DSP/Source/FilteringFunctions/arm_fir_interpolate_f32.c ****       acc2 = 0.0f;
 376              		.loc 1 182 7 view .LVU157
 183:Drivers/CMSIS/DSP/Source/FilteringFunctions/arm_fir_interpolate_f32.c ****       acc3 = 0.0f;
 377              		.loc 1 183 7 view .LVU158
 184:Drivers/CMSIS/DSP/Source/FilteringFunctions/arm_fir_interpolate_f32.c **** 
 378              		.loc 1 184 7 view .LVU159
 187:Drivers/CMSIS/DSP/Source/FilteringFunctions/arm_fir_interpolate_f32.c **** 
 379              		.loc 1 187 7 view .LVU160
 190:Drivers/CMSIS/DSP/Source/FilteringFunctions/arm_fir_interpolate_f32.c **** 
 380              		.loc 1 190 7 view .LVU161
 190:Drivers/CMSIS/DSP/Source/FilteringFunctions/arm_fir_interpolate_f32.c **** 
 381              		.loc 1 190 26 is_stmt 0 view .LVU162
 382 0166 2878     		ldrb	r0, [r5]	@ zero_extendqisi2
 190:Drivers/CMSIS/DSP/Source/FilteringFunctions/arm_fir_interpolate_f32.c **** 
 383              		.loc 1 190 30 view .LVU163
 384 0168 A0EB0801 		sub	r1, r0, r8
 190:Drivers/CMSIS/DSP/Source/FilteringFunctions/arm_fir_interpolate_f32.c **** 
 385              		.loc 1 190 12 view .LVU164
 386 016c 09EB8101 		add	r1, r9, r1, lsl #2
 387              	.LVL68:
 194:Drivers/CMSIS/DSP/Source/FilteringFunctions/arm_fir_interpolate_f32.c **** 
 388              		.loc 1 194 7 is_stmt 1 view .LVU165
 194:Drivers/CMSIS/DSP/Source/FilteringFunctions/arm_fir_interpolate_f32.c **** 
 389              		.loc 1 194 14 is_stmt 0 view .LVU166
 390 0170 B708     		lsrs	r7, r6, #2
 391              	.LVL69:
 196:Drivers/CMSIS/DSP/Source/FilteringFunctions/arm_fir_interpolate_f32.c ****       x1 = *(ptr1++);
 392              		.loc 1 196 7 is_stmt 1 view .LVU167
 196:Drivers/CMSIS/DSP/Source/FilteringFunctions/arm_fir_interpolate_f32.c ****       x1 = *(ptr1++);
 393              		.loc 1 196 10 is_stmt 0 view .LVU168
 394 0172 94ED006A 		vldr.32	s12, [r4]
 395              	.LVL70:
 197:Drivers/CMSIS/DSP/Source/FilteringFunctions/arm_fir_interpolate_f32.c ****       x2 = *(ptr1++);
 396              		.loc 1 197 7 is_stmt 1 view .LVU169
 197:Drivers/CMSIS/DSP/Source/FilteringFunctions/arm_fir_interpolate_f32.c ****       x2 = *(ptr1++);
 397              		.loc 1 197 10 is_stmt 0 view .LVU170
 398 0176 D4ED015A 		vldr.32	s11, [r4, #4]
 399              	.LVL71:
 198:Drivers/CMSIS/DSP/Source/FilteringFunctions/arm_fir_interpolate_f32.c **** 
 400              		.loc 1 198 7 is_stmt 1 view .LVU171
 198:Drivers/CMSIS/DSP/Source/FilteringFunctions/arm_fir_interpolate_f32.c **** 
 401              		.loc 1 198 18 is_stmt 0 view .LVU172
 402 017a 04F10C03 		add	r3, r4, #12
 403              	.LVL72:
 198:Drivers/CMSIS/DSP/Source/FilteringFunctions/arm_fir_interpolate_f32.c **** 
 404              		.loc 1 198 10 view .LVU173
 405 017e 94ED024A 		vldr.32	s8, [r4, #8]
 406              	.LVL73:
 200:Drivers/CMSIS/DSP/Source/FilteringFunctions/arm_fir_interpolate_f32.c ****       {
 407              		.loc 1 200 7 is_stmt 1 view .LVU174
 184:Drivers/CMSIS/DSP/Source/FilteringFunctions/arm_fir_interpolate_f32.c **** 
 408              		.loc 1 184 12 is_stmt 0 view .LVU175
 409 0182 DFED557A 		vldr.32	s15, .L27
 183:Drivers/CMSIS/DSP/Source/FilteringFunctions/arm_fir_interpolate_f32.c ****       acc3 = 0.0f;
 410              		.loc 1 183 12 view .LVU176
 411 0186 B0EE675A 		vmov.f32	s10, s15
ARM GAS  /var/folders/n6/c271nzx11xl4r4_m7sqjlt0m0000gn/T//ccIm2H6P.s 			page 14


 182:Drivers/CMSIS/DSP/Source/FilteringFunctions/arm_fir_interpolate_f32.c ****       acc2 = 0.0f;
 412              		.loc 1 182 12 view .LVU177
 413 018a F0EE674A 		vmov.f32	s9, s15
 181:Drivers/CMSIS/DSP/Source/FilteringFunctions/arm_fir_interpolate_f32.c ****       acc1 = 0.0f;
 414              		.loc 1 181 12 view .LVU178
 415 018e F0EE676A 		vmov.f32	s13, s15
 416 0192 0094     		str	r4, [sp]
 200:Drivers/CMSIS/DSP/Source/FilteringFunctions/arm_fir_interpolate_f32.c ****       {
 417              		.loc 1 200 13 view .LVU179
 418 0194 A8E7     		b	.L4
 419              	.LVL74:
 420              	.L23:
 304:Drivers/CMSIS/DSP/Source/FilteringFunctions/arm_fir_interpolate_f32.c ****     }
 305:Drivers/CMSIS/DSP/Source/FilteringFunctions/arm_fir_interpolate_f32.c **** 
 306:Drivers/CMSIS/DSP/Source/FilteringFunctions/arm_fir_interpolate_f32.c ****     /* Advance the state pointer by 1
 307:Drivers/CMSIS/DSP/Source/FilteringFunctions/arm_fir_interpolate_f32.c ****      * to process the next group of interpolation factor number samples */
 308:Drivers/CMSIS/DSP/Source/FilteringFunctions/arm_fir_interpolate_f32.c ****     pState = pState + 4;
 421              		.loc 1 308 5 is_stmt 1 view .LVU180
 422              		.loc 1 308 12 is_stmt 0 view .LVU181
 423 0196 1034     		adds	r4, r4, #16
 424              	.LVL75:
 309:Drivers/CMSIS/DSP/Source/FilteringFunctions/arm_fir_interpolate_f32.c **** 
 310:Drivers/CMSIS/DSP/Source/FilteringFunctions/arm_fir_interpolate_f32.c ****     pDst += S->L * 3;
 425              		.loc 1 310 5 is_stmt 1 view .LVU182
 426              		.loc 1 310 14 is_stmt 0 view .LVU183
 427 0198 2A78     		ldrb	r2, [r5]	@ zero_extendqisi2
 428              	.LVL76:
 429              		.loc 1 310 10 view .LVU184
 430 019a 02EB4202 		add	r2, r2, r2, lsl #1
 431 019e 0EEB820E 		add	lr, lr, r2, lsl #2
 432              	.LVL77:
 311:Drivers/CMSIS/DSP/Source/FilteringFunctions/arm_fir_interpolate_f32.c **** 
 312:Drivers/CMSIS/DSP/Source/FilteringFunctions/arm_fir_interpolate_f32.c ****     /* Decrement the loop counter */
 313:Drivers/CMSIS/DSP/Source/FilteringFunctions/arm_fir_interpolate_f32.c ****     blkCnt--;
 433              		.loc 1 313 5 is_stmt 1 view .LVU185
 434              		.loc 1 313 11 is_stmt 0 view .LVU186
 435 01a2 0BF1FF31 		add	r1, fp, #-1
 436              	.LVL78:
 170:Drivers/CMSIS/DSP/Source/FilteringFunctions/arm_fir_interpolate_f32.c **** 
 437              		.loc 1 170 17 view .LVU187
 438 01a6 5246     		mov	r2, r10
 170:Drivers/CMSIS/DSP/Source/FilteringFunctions/arm_fir_interpolate_f32.c **** 
 439              		.loc 1 170 27 view .LVU188
 440 01a8 6046     		mov	r0, ip
 441              	.LVL79:
 442              	.L2:
 164:Drivers/CMSIS/DSP/Source/FilteringFunctions/arm_fir_interpolate_f32.c ****   {
 443              		.loc 1 164 17 is_stmt 1 view .LVU189
 444 01aa 81B1     		cbz	r1, .L24
 167:Drivers/CMSIS/DSP/Source/FilteringFunctions/arm_fir_interpolate_f32.c ****     *pStateCurnt++ = *pSrc++;
 445              		.loc 1 167 5 view .LVU190
 446              	.LVL80:
 167:Drivers/CMSIS/DSP/Source/FilteringFunctions/arm_fir_interpolate_f32.c ****     *pStateCurnt++ = *pSrc++;
 447              		.loc 1 167 22 is_stmt 0 view .LVU191
 448 01ac 0768     		ldr	r7, [r0]	@ float
 167:Drivers/CMSIS/DSP/Source/FilteringFunctions/arm_fir_interpolate_f32.c ****     *pStateCurnt++ = *pSrc++;
 449              		.loc 1 167 20 view .LVU192
ARM GAS  /var/folders/n6/c271nzx11xl4r4_m7sqjlt0m0000gn/T//ccIm2H6P.s 			page 15


 450 01ae 1760     		str	r7, [r2]	@ float
 168:Drivers/CMSIS/DSP/Source/FilteringFunctions/arm_fir_interpolate_f32.c ****     *pStateCurnt++ = *pSrc++;
 451              		.loc 1 168 5 is_stmt 1 view .LVU193
 452              	.LVL81:
 168:Drivers/CMSIS/DSP/Source/FilteringFunctions/arm_fir_interpolate_f32.c ****     *pStateCurnt++ = *pSrc++;
 453              		.loc 1 168 22 is_stmt 0 view .LVU194
 454 01b0 4768     		ldr	r7, [r0, #4]	@ float
 168:Drivers/CMSIS/DSP/Source/FilteringFunctions/arm_fir_interpolate_f32.c ****     *pStateCurnt++ = *pSrc++;
 455              		.loc 1 168 20 view .LVU195
 456 01b2 5760     		str	r7, [r2, #4]	@ float
 169:Drivers/CMSIS/DSP/Source/FilteringFunctions/arm_fir_interpolate_f32.c ****     *pStateCurnt++ = *pSrc++;
 457              		.loc 1 169 5 is_stmt 1 view .LVU196
 458              	.LVL82:
 169:Drivers/CMSIS/DSP/Source/FilteringFunctions/arm_fir_interpolate_f32.c ****     *pStateCurnt++ = *pSrc++;
 459              		.loc 1 169 22 is_stmt 0 view .LVU197
 460 01b4 8768     		ldr	r7, [r0, #8]	@ float
 169:Drivers/CMSIS/DSP/Source/FilteringFunctions/arm_fir_interpolate_f32.c ****     *pStateCurnt++ = *pSrc++;
 461              		.loc 1 169 20 view .LVU198
 462 01b6 9760     		str	r7, [r2, #8]	@ float
 170:Drivers/CMSIS/DSP/Source/FilteringFunctions/arm_fir_interpolate_f32.c **** 
 463              		.loc 1 170 5 is_stmt 1 view .LVU199
 170:Drivers/CMSIS/DSP/Source/FilteringFunctions/arm_fir_interpolate_f32.c **** 
 464              		.loc 1 170 27 is_stmt 0 view .LVU200
 465 01b8 00F1100C 		add	ip, r0, #16
 466              	.LVL83:
 170:Drivers/CMSIS/DSP/Source/FilteringFunctions/arm_fir_interpolate_f32.c **** 
 467              		.loc 1 170 17 view .LVU201
 468 01bc 02F1100A 		add	r10, r2, #16
 469              	.LVL84:
 170:Drivers/CMSIS/DSP/Source/FilteringFunctions/arm_fir_interpolate_f32.c **** 
 470              		.loc 1 170 22 view .LVU202
 471 01c0 C068     		ldr	r0, [r0, #12]	@ float
 170:Drivers/CMSIS/DSP/Source/FilteringFunctions/arm_fir_interpolate_f32.c **** 
 472              		.loc 1 170 20 view .LVU203
 473 01c2 D060     		str	r0, [r2, #12]	@ float
 173:Drivers/CMSIS/DSP/Source/FilteringFunctions/arm_fir_interpolate_f32.c **** 
 474              		.loc 1 173 5 is_stmt 1 view .LVU204
 475              	.LVL85:
 176:Drivers/CMSIS/DSP/Source/FilteringFunctions/arm_fir_interpolate_f32.c **** 
 476              		.loc 1 176 5 view .LVU205
 176:Drivers/CMSIS/DSP/Source/FilteringFunctions/arm_fir_interpolate_f32.c **** 
 477              		.loc 1 176 11 is_stmt 0 view .LVU206
 478 01c4 2A78     		ldrb	r2, [r5]	@ zero_extendqisi2
 479              	.LVL86:
 178:Drivers/CMSIS/DSP/Source/FilteringFunctions/arm_fir_interpolate_f32.c ****     {
 480              		.loc 1 178 5 is_stmt 1 view .LVU207
 173:Drivers/CMSIS/DSP/Source/FilteringFunctions/arm_fir_interpolate_f32.c **** 
 481              		.loc 1 173 7 is_stmt 0 view .LVU208
 482 01c6 4FF00108 		mov	r8, #1
 483 01ca 8B46     		mov	fp, r1
 178:Drivers/CMSIS/DSP/Source/FilteringFunctions/arm_fir_interpolate_f32.c ****     {
 484              		.loc 1 178 11 view .LVU209
 485 01cc CAE7     		b	.L3
 486              	.LVL87:
 487              	.L24:
 178:Drivers/CMSIS/DSP/Source/FilteringFunctions/arm_fir_interpolate_f32.c ****     {
 488              		.loc 1 178 11 view .LVU210
ARM GAS  /var/folders/n6/c271nzx11xl4r4_m7sqjlt0m0000gn/T//ccIm2H6P.s 			page 16


 489 01ce 019B     		ldr	r3, [sp, #4]
 490 01d0 9046     		mov	r8, r2
 491 01d2 9B46     		mov	fp, r3
 492 01d4 8246     		mov	r10, r0
 493 01d6 50E0     		b	.L10
 494              	.LVL88:
 495              	.L13:
 314:Drivers/CMSIS/DSP/Source/FilteringFunctions/arm_fir_interpolate_f32.c ****   }
 315:Drivers/CMSIS/DSP/Source/FilteringFunctions/arm_fir_interpolate_f32.c **** 
 316:Drivers/CMSIS/DSP/Source/FilteringFunctions/arm_fir_interpolate_f32.c ****   /* If the blockSize is not a multiple of 4, compute any remaining output samples here.
 317:Drivers/CMSIS/DSP/Source/FilteringFunctions/arm_fir_interpolate_f32.c ****    ** No loop unrolling is used. */
 318:Drivers/CMSIS/DSP/Source/FilteringFunctions/arm_fir_interpolate_f32.c **** 
 319:Drivers/CMSIS/DSP/Source/FilteringFunctions/arm_fir_interpolate_f32.c ****   while (blkCntN4 > 0U)
 320:Drivers/CMSIS/DSP/Source/FilteringFunctions/arm_fir_interpolate_f32.c ****   {
 321:Drivers/CMSIS/DSP/Source/FilteringFunctions/arm_fir_interpolate_f32.c ****     /* Copy new input sample into the state buffer */
 322:Drivers/CMSIS/DSP/Source/FilteringFunctions/arm_fir_interpolate_f32.c ****     *pStateCurnt++ = *pSrc++;
 323:Drivers/CMSIS/DSP/Source/FilteringFunctions/arm_fir_interpolate_f32.c **** 
 324:Drivers/CMSIS/DSP/Source/FilteringFunctions/arm_fir_interpolate_f32.c ****     /* Address modifier index of coefficient buffer */
 325:Drivers/CMSIS/DSP/Source/FilteringFunctions/arm_fir_interpolate_f32.c ****     j = 1U;
 326:Drivers/CMSIS/DSP/Source/FilteringFunctions/arm_fir_interpolate_f32.c **** 
 327:Drivers/CMSIS/DSP/Source/FilteringFunctions/arm_fir_interpolate_f32.c ****     /* Loop over the Interpolation factor. */
 328:Drivers/CMSIS/DSP/Source/FilteringFunctions/arm_fir_interpolate_f32.c ****     i = S->L;
 329:Drivers/CMSIS/DSP/Source/FilteringFunctions/arm_fir_interpolate_f32.c ****     while (i > 0U)
 330:Drivers/CMSIS/DSP/Source/FilteringFunctions/arm_fir_interpolate_f32.c ****     {
 331:Drivers/CMSIS/DSP/Source/FilteringFunctions/arm_fir_interpolate_f32.c ****       /* Set accumulator to zero */
 332:Drivers/CMSIS/DSP/Source/FilteringFunctions/arm_fir_interpolate_f32.c ****       sum0 = 0.0f;
 333:Drivers/CMSIS/DSP/Source/FilteringFunctions/arm_fir_interpolate_f32.c **** 
 334:Drivers/CMSIS/DSP/Source/FilteringFunctions/arm_fir_interpolate_f32.c ****       /* Initialize state pointer */
 335:Drivers/CMSIS/DSP/Source/FilteringFunctions/arm_fir_interpolate_f32.c ****       ptr1 = pState;
 336:Drivers/CMSIS/DSP/Source/FilteringFunctions/arm_fir_interpolate_f32.c **** 
 337:Drivers/CMSIS/DSP/Source/FilteringFunctions/arm_fir_interpolate_f32.c ****       /* Initialize coefficient pointer */
 338:Drivers/CMSIS/DSP/Source/FilteringFunctions/arm_fir_interpolate_f32.c ****       ptr2 = pCoeffs + (S->L - j);
 339:Drivers/CMSIS/DSP/Source/FilteringFunctions/arm_fir_interpolate_f32.c **** 
 340:Drivers/CMSIS/DSP/Source/FilteringFunctions/arm_fir_interpolate_f32.c ****       /* Loop over the polyPhase length. Unroll by a factor of 4.
 341:Drivers/CMSIS/DSP/Source/FilteringFunctions/arm_fir_interpolate_f32.c ****        ** Repeat until we've computed numTaps-(4*S->L) coefficients. */
 342:Drivers/CMSIS/DSP/Source/FilteringFunctions/arm_fir_interpolate_f32.c ****       tapCnt = phaseLen >> 2U;
 343:Drivers/CMSIS/DSP/Source/FilteringFunctions/arm_fir_interpolate_f32.c ****       while (tapCnt > 0U)
 344:Drivers/CMSIS/DSP/Source/FilteringFunctions/arm_fir_interpolate_f32.c ****       {
 345:Drivers/CMSIS/DSP/Source/FilteringFunctions/arm_fir_interpolate_f32.c **** 
 346:Drivers/CMSIS/DSP/Source/FilteringFunctions/arm_fir_interpolate_f32.c ****         /* Read the coefficient */
 347:Drivers/CMSIS/DSP/Source/FilteringFunctions/arm_fir_interpolate_f32.c ****         c0 = *(ptr2);
 496              		.loc 1 347 9 is_stmt 1 view .LVU211
 497              		.loc 1 347 12 is_stmt 0 view .LVU212
 498 01d8 92ED007A 		vldr.32	s14, [r2]
 499              	.LVL89:
 348:Drivers/CMSIS/DSP/Source/FilteringFunctions/arm_fir_interpolate_f32.c **** 
 349:Drivers/CMSIS/DSP/Source/FilteringFunctions/arm_fir_interpolate_f32.c ****         /* Upsampling is done by stuffing L-1 zeros between each sample.
 350:Drivers/CMSIS/DSP/Source/FilteringFunctions/arm_fir_interpolate_f32.c ****          * So instead of multiplying zeros with coefficients,
 351:Drivers/CMSIS/DSP/Source/FilteringFunctions/arm_fir_interpolate_f32.c ****          * Increment the coefficient pointer by interpolation factor times. */
 352:Drivers/CMSIS/DSP/Source/FilteringFunctions/arm_fir_interpolate_f32.c ****         ptr2 += S->L;
 500              		.loc 1 352 9 is_stmt 1 view .LVU213
 501              		.loc 1 352 14 is_stmt 0 view .LVU214
 502 01dc 02EB8002 		add	r2, r2, r0, lsl #2
 503              	.LVL90:
 353:Drivers/CMSIS/DSP/Source/FilteringFunctions/arm_fir_interpolate_f32.c **** 
 354:Drivers/CMSIS/DSP/Source/FilteringFunctions/arm_fir_interpolate_f32.c ****         /* Read the input sample */
 355:Drivers/CMSIS/DSP/Source/FilteringFunctions/arm_fir_interpolate_f32.c ****         x0 = *(ptr1++);
ARM GAS  /var/folders/n6/c271nzx11xl4r4_m7sqjlt0m0000gn/T//ccIm2H6P.s 			page 17


 504              		.loc 1 355 9 is_stmt 1 view .LVU215
 505              		.loc 1 355 12 is_stmt 0 view .LVU216
 506 01e0 D1ED006A 		vldr.32	s13, [r1]
 507              	.LVL91:
 356:Drivers/CMSIS/DSP/Source/FilteringFunctions/arm_fir_interpolate_f32.c **** 
 357:Drivers/CMSIS/DSP/Source/FilteringFunctions/arm_fir_interpolate_f32.c ****         /* Perform the multiply-accumulate */
 358:Drivers/CMSIS/DSP/Source/FilteringFunctions/arm_fir_interpolate_f32.c ****         sum0 += x0 * c0;
 508              		.loc 1 358 9 is_stmt 1 view .LVU217
 509              		.loc 1 358 20 is_stmt 0 view .LVU218
 510 01e4 27EE267A 		vmul.f32	s14, s14, s13
 511              	.LVL92:
 512              		.loc 1 358 14 view .LVU219
 513 01e8 37EE277A 		vadd.f32	s14, s14, s15
 514              	.LVL93:
 359:Drivers/CMSIS/DSP/Source/FilteringFunctions/arm_fir_interpolate_f32.c **** 
 360:Drivers/CMSIS/DSP/Source/FilteringFunctions/arm_fir_interpolate_f32.c ****         /* Read the coefficient */
 361:Drivers/CMSIS/DSP/Source/FilteringFunctions/arm_fir_interpolate_f32.c ****         c0 = *(ptr2);
 515              		.loc 1 361 9 is_stmt 1 view .LVU220
 516              		.loc 1 361 12 is_stmt 0 view .LVU221
 517 01ec D2ED007A 		vldr.32	s15, [r2]
 518              	.LVL94:
 362:Drivers/CMSIS/DSP/Source/FilteringFunctions/arm_fir_interpolate_f32.c **** 
 363:Drivers/CMSIS/DSP/Source/FilteringFunctions/arm_fir_interpolate_f32.c ****         /* Increment the coefficient pointer by interpolation factor times. */
 364:Drivers/CMSIS/DSP/Source/FilteringFunctions/arm_fir_interpolate_f32.c ****         ptr2 += S->L;
 519              		.loc 1 364 9 is_stmt 1 view .LVU222
 520              		.loc 1 364 14 is_stmt 0 view .LVU223
 521 01f0 02EB8002 		add	r2, r2, r0, lsl #2
 522              	.LVL95:
 365:Drivers/CMSIS/DSP/Source/FilteringFunctions/arm_fir_interpolate_f32.c **** 
 366:Drivers/CMSIS/DSP/Source/FilteringFunctions/arm_fir_interpolate_f32.c ****         /* Read the input sample */
 367:Drivers/CMSIS/DSP/Source/FilteringFunctions/arm_fir_interpolate_f32.c ****         x0 = *(ptr1++);
 523              		.loc 1 367 9 is_stmt 1 view .LVU224
 524              		.loc 1 367 12 is_stmt 0 view .LVU225
 525 01f4 D1ED016A 		vldr.32	s13, [r1, #4]
 526              	.LVL96:
 368:Drivers/CMSIS/DSP/Source/FilteringFunctions/arm_fir_interpolate_f32.c **** 
 369:Drivers/CMSIS/DSP/Source/FilteringFunctions/arm_fir_interpolate_f32.c ****         /* Perform the multiply-accumulate */
 370:Drivers/CMSIS/DSP/Source/FilteringFunctions/arm_fir_interpolate_f32.c ****         sum0 += x0 * c0;
 527              		.loc 1 370 9 is_stmt 1 view .LVU226
 528              		.loc 1 370 20 is_stmt 0 view .LVU227
 529 01f8 67EEA67A 		vmul.f32	s15, s15, s13
 530              	.LVL97:
 531              		.loc 1 370 14 view .LVU228
 532 01fc 77EE877A 		vadd.f32	s15, s15, s14
 533              	.LVL98:
 371:Drivers/CMSIS/DSP/Source/FilteringFunctions/arm_fir_interpolate_f32.c **** 
 372:Drivers/CMSIS/DSP/Source/FilteringFunctions/arm_fir_interpolate_f32.c ****         /* Read the coefficient */
 373:Drivers/CMSIS/DSP/Source/FilteringFunctions/arm_fir_interpolate_f32.c ****         c0 = *(ptr2);
 534              		.loc 1 373 9 is_stmt 1 view .LVU229
 535              		.loc 1 373 12 is_stmt 0 view .LVU230
 536 0200 92ED007A 		vldr.32	s14, [r2]
 537              	.LVL99:
 374:Drivers/CMSIS/DSP/Source/FilteringFunctions/arm_fir_interpolate_f32.c **** 
 375:Drivers/CMSIS/DSP/Source/FilteringFunctions/arm_fir_interpolate_f32.c ****         /* Increment the coefficient pointer by interpolation factor times. */
 376:Drivers/CMSIS/DSP/Source/FilteringFunctions/arm_fir_interpolate_f32.c ****         ptr2 += S->L;
 538              		.loc 1 376 9 is_stmt 1 view .LVU231
 539              		.loc 1 376 14 is_stmt 0 view .LVU232
ARM GAS  /var/folders/n6/c271nzx11xl4r4_m7sqjlt0m0000gn/T//ccIm2H6P.s 			page 18


 540 0204 02EB8002 		add	r2, r2, r0, lsl #2
 541              	.LVL100:
 377:Drivers/CMSIS/DSP/Source/FilteringFunctions/arm_fir_interpolate_f32.c **** 
 378:Drivers/CMSIS/DSP/Source/FilteringFunctions/arm_fir_interpolate_f32.c ****         /* Read the input sample */
 379:Drivers/CMSIS/DSP/Source/FilteringFunctions/arm_fir_interpolate_f32.c ****         x0 = *(ptr1++);
 542              		.loc 1 379 9 is_stmt 1 view .LVU233
 543              		.loc 1 379 12 is_stmt 0 view .LVU234
 544 0208 D1ED026A 		vldr.32	s13, [r1, #8]
 545              	.LVL101:
 380:Drivers/CMSIS/DSP/Source/FilteringFunctions/arm_fir_interpolate_f32.c **** 
 381:Drivers/CMSIS/DSP/Source/FilteringFunctions/arm_fir_interpolate_f32.c ****         /* Perform the multiply-accumulate */
 382:Drivers/CMSIS/DSP/Source/FilteringFunctions/arm_fir_interpolate_f32.c ****         sum0 += x0 * c0;
 546              		.loc 1 382 9 is_stmt 1 view .LVU235
 547              		.loc 1 382 20 is_stmt 0 view .LVU236
 548 020c 27EE267A 		vmul.f32	s14, s14, s13
 549              	.LVL102:
 550              		.loc 1 382 14 view .LVU237
 551 0210 37EE277A 		vadd.f32	s14, s14, s15
 552              	.LVL103:
 383:Drivers/CMSIS/DSP/Source/FilteringFunctions/arm_fir_interpolate_f32.c **** 
 384:Drivers/CMSIS/DSP/Source/FilteringFunctions/arm_fir_interpolate_f32.c ****         /* Read the coefficient */
 385:Drivers/CMSIS/DSP/Source/FilteringFunctions/arm_fir_interpolate_f32.c ****         c0 = *(ptr2);
 553              		.loc 1 385 9 is_stmt 1 view .LVU238
 554              		.loc 1 385 12 is_stmt 0 view .LVU239
 555 0214 D2ED007A 		vldr.32	s15, [r2]
 556              	.LVL104:
 386:Drivers/CMSIS/DSP/Source/FilteringFunctions/arm_fir_interpolate_f32.c **** 
 387:Drivers/CMSIS/DSP/Source/FilteringFunctions/arm_fir_interpolate_f32.c ****         /* Increment the coefficient pointer by interpolation factor times. */
 388:Drivers/CMSIS/DSP/Source/FilteringFunctions/arm_fir_interpolate_f32.c ****         ptr2 += S->L;
 557              		.loc 1 388 9 is_stmt 1 view .LVU240
 558              		.loc 1 388 14 is_stmt 0 view .LVU241
 559 0218 02EB8002 		add	r2, r2, r0, lsl #2
 560              	.LVL105:
 389:Drivers/CMSIS/DSP/Source/FilteringFunctions/arm_fir_interpolate_f32.c **** 
 390:Drivers/CMSIS/DSP/Source/FilteringFunctions/arm_fir_interpolate_f32.c ****         /* Read the input sample */
 391:Drivers/CMSIS/DSP/Source/FilteringFunctions/arm_fir_interpolate_f32.c ****         x0 = *(ptr1++);
 561              		.loc 1 391 9 is_stmt 1 view .LVU242
 562              		.loc 1 391 12 is_stmt 0 view .LVU243
 563 021c D1ED036A 		vldr.32	s13, [r1, #12]
 564              	.LVL106:
 392:Drivers/CMSIS/DSP/Source/FilteringFunctions/arm_fir_interpolate_f32.c **** 
 393:Drivers/CMSIS/DSP/Source/FilteringFunctions/arm_fir_interpolate_f32.c ****         /* Perform the multiply-accumulate */
 394:Drivers/CMSIS/DSP/Source/FilteringFunctions/arm_fir_interpolate_f32.c ****         sum0 += x0 * c0;
 565              		.loc 1 394 9 is_stmt 1 view .LVU244
 566              		.loc 1 394 20 is_stmt 0 view .LVU245
 567 0220 67EEA67A 		vmul.f32	s15, s15, s13
 568              	.LVL107:
 569              		.loc 1 394 14 view .LVU246
 570 0224 77EE877A 		vadd.f32	s15, s15, s14
 571              	.LVL108:
 395:Drivers/CMSIS/DSP/Source/FilteringFunctions/arm_fir_interpolate_f32.c **** 
 396:Drivers/CMSIS/DSP/Source/FilteringFunctions/arm_fir_interpolate_f32.c ****         /* Decrement the loop counter */
 397:Drivers/CMSIS/DSP/Source/FilteringFunctions/arm_fir_interpolate_f32.c ****         tapCnt--;
 572              		.loc 1 397 9 is_stmt 1 view .LVU247
 573              		.loc 1 397 15 is_stmt 0 view .LVU248
 574 0228 013F     		subs	r7, r7, #1
 575              	.LVL109:
ARM GAS  /var/folders/n6/c271nzx11xl4r4_m7sqjlt0m0000gn/T//ccIm2H6P.s 			page 19


 576              		.loc 1 397 15 view .LVU249
 577 022a BFB2     		uxth	r7, r7
 578              	.LVL110:
 391:Drivers/CMSIS/DSP/Source/FilteringFunctions/arm_fir_interpolate_f32.c **** 
 579              		.loc 1 391 20 view .LVU250
 580 022c 1031     		adds	r1, r1, #16
 581              	.LVL111:
 582              	.L12:
 343:Drivers/CMSIS/DSP/Source/FilteringFunctions/arm_fir_interpolate_f32.c ****       {
 583              		.loc 1 343 21 is_stmt 1 view .LVU251
 584 022e 002F     		cmp	r7, #0
 585 0230 D2D1     		bne	.L13
 398:Drivers/CMSIS/DSP/Source/FilteringFunctions/arm_fir_interpolate_f32.c ****       }
 399:Drivers/CMSIS/DSP/Source/FilteringFunctions/arm_fir_interpolate_f32.c **** 
 400:Drivers/CMSIS/DSP/Source/FilteringFunctions/arm_fir_interpolate_f32.c ****       /* If the polyPhase length is not a multiple of 4, compute the remaining filter taps */
 401:Drivers/CMSIS/DSP/Source/FilteringFunctions/arm_fir_interpolate_f32.c ****       tapCnt = phaseLen % 0x4U;
 586              		.loc 1 401 7 view .LVU252
 587              		.loc 1 401 14 is_stmt 0 view .LVU253
 588 0232 06F00307 		and	r7, r6, #3
 589              	.LVL112:
 402:Drivers/CMSIS/DSP/Source/FilteringFunctions/arm_fir_interpolate_f32.c **** 
 403:Drivers/CMSIS/DSP/Source/FilteringFunctions/arm_fir_interpolate_f32.c ****       while (tapCnt > 0U)
 590              		.loc 1 403 7 is_stmt 1 view .LVU254
 591              		.loc 1 403 13 is_stmt 0 view .LVU255
 592 0236 0BE0     		b	.L14
 593              	.L15:
 404:Drivers/CMSIS/DSP/Source/FilteringFunctions/arm_fir_interpolate_f32.c ****       {
 405:Drivers/CMSIS/DSP/Source/FilteringFunctions/arm_fir_interpolate_f32.c ****         /* Perform the multiply-accumulate */
 406:Drivers/CMSIS/DSP/Source/FilteringFunctions/arm_fir_interpolate_f32.c ****         sum0 += *(ptr1++) * (*ptr2);
 594              		.loc 1 406 9 is_stmt 1 view .LVU256
 595              	.LVL113:
 596              		.loc 1 406 17 is_stmt 0 view .LVU257
 597 0238 B1EC017A 		vldmia.32	r1!, {s14}
 598              	.LVL114:
 599              		.loc 1 406 30 view .LVU258
 600 023c D2ED006A 		vldr.32	s13, [r2]
 601              		.loc 1 406 27 view .LVU259
 602 0240 27EE267A 		vmul.f32	s14, s14, s13
 603              		.loc 1 406 14 view .LVU260
 604 0244 77EE877A 		vadd.f32	s15, s15, s14
 605              	.LVL115:
 407:Drivers/CMSIS/DSP/Source/FilteringFunctions/arm_fir_interpolate_f32.c **** 
 408:Drivers/CMSIS/DSP/Source/FilteringFunctions/arm_fir_interpolate_f32.c ****         /* Increment the coefficient pointer by interpolation factor times. */
 409:Drivers/CMSIS/DSP/Source/FilteringFunctions/arm_fir_interpolate_f32.c ****         ptr2 += S->L;
 606              		.loc 1 409 9 is_stmt 1 view .LVU261
 607              		.loc 1 409 14 is_stmt 0 view .LVU262
 608 0248 02EB8002 		add	r2, r2, r0, lsl #2
 609              	.LVL116:
 410:Drivers/CMSIS/DSP/Source/FilteringFunctions/arm_fir_interpolate_f32.c **** 
 411:Drivers/CMSIS/DSP/Source/FilteringFunctions/arm_fir_interpolate_f32.c ****         /* Decrement the loop counter */
 412:Drivers/CMSIS/DSP/Source/FilteringFunctions/arm_fir_interpolate_f32.c ****         tapCnt--;
 610              		.loc 1 412 9 is_stmt 1 view .LVU263
 611              		.loc 1 412 15 is_stmt 0 view .LVU264
 612 024c 013F     		subs	r7, r7, #1
 613              	.LVL117:
 614              		.loc 1 412 15 view .LVU265
 615 024e BFB2     		uxth	r7, r7
ARM GAS  /var/folders/n6/c271nzx11xl4r4_m7sqjlt0m0000gn/T//ccIm2H6P.s 			page 20


 616              	.LVL118:
 617              	.L14:
 403:Drivers/CMSIS/DSP/Source/FilteringFunctions/arm_fir_interpolate_f32.c ****       {
 618              		.loc 1 403 21 is_stmt 1 view .LVU266
 619 0250 002F     		cmp	r7, #0
 620 0252 F1D1     		bne	.L15
 413:Drivers/CMSIS/DSP/Source/FilteringFunctions/arm_fir_interpolate_f32.c ****       }
 414:Drivers/CMSIS/DSP/Source/FilteringFunctions/arm_fir_interpolate_f32.c **** 
 415:Drivers/CMSIS/DSP/Source/FilteringFunctions/arm_fir_interpolate_f32.c ****       /* The result is in the accumulator, store in the destination buffer. */
 416:Drivers/CMSIS/DSP/Source/FilteringFunctions/arm_fir_interpolate_f32.c ****       *pDst++ = sum0;
 621              		.loc 1 416 7 view .LVU267
 622              	.LVL119:
 623              		.loc 1 416 15 is_stmt 0 view .LVU268
 624 0254 EEEC017A 		vstmia.32	lr!, {s15}
 625              	.LVL120:
 417:Drivers/CMSIS/DSP/Source/FilteringFunctions/arm_fir_interpolate_f32.c **** 
 418:Drivers/CMSIS/DSP/Source/FilteringFunctions/arm_fir_interpolate_f32.c ****       /* Increment the address modifier index of coefficient buffer */
 419:Drivers/CMSIS/DSP/Source/FilteringFunctions/arm_fir_interpolate_f32.c ****       j++;
 626              		.loc 1 419 7 is_stmt 1 view .LVU269
 627              		.loc 1 419 8 is_stmt 0 view .LVU270
 628 0258 0CF1010C 		add	ip, ip, #1
 629              	.LVL121:
 420:Drivers/CMSIS/DSP/Source/FilteringFunctions/arm_fir_interpolate_f32.c **** 
 421:Drivers/CMSIS/DSP/Source/FilteringFunctions/arm_fir_interpolate_f32.c ****       /* Decrement the loop counter */
 422:Drivers/CMSIS/DSP/Source/FilteringFunctions/arm_fir_interpolate_f32.c ****       i--;
 630              		.loc 1 422 7 is_stmt 1 view .LVU271
 631              		.loc 1 422 8 is_stmt 0 view .LVU272
 632 025c 013B     		subs	r3, r3, #1
 633              	.LVL122:
 634              	.L11:
 329:Drivers/CMSIS/DSP/Source/FilteringFunctions/arm_fir_interpolate_f32.c ****     {
 635              		.loc 1 329 14 is_stmt 1 view .LVU273
 636 025e 4BB1     		cbz	r3, .L25
 332:Drivers/CMSIS/DSP/Source/FilteringFunctions/arm_fir_interpolate_f32.c **** 
 637              		.loc 1 332 7 view .LVU274
 638              	.LVL123:
 335:Drivers/CMSIS/DSP/Source/FilteringFunctions/arm_fir_interpolate_f32.c **** 
 639              		.loc 1 335 7 view .LVU275
 338:Drivers/CMSIS/DSP/Source/FilteringFunctions/arm_fir_interpolate_f32.c **** 
 640              		.loc 1 338 7 view .LVU276
 338:Drivers/CMSIS/DSP/Source/FilteringFunctions/arm_fir_interpolate_f32.c **** 
 641              		.loc 1 338 26 is_stmt 0 view .LVU277
 642 0260 2878     		ldrb	r0, [r5]	@ zero_extendqisi2
 338:Drivers/CMSIS/DSP/Source/FilteringFunctions/arm_fir_interpolate_f32.c **** 
 643              		.loc 1 338 30 view .LVU278
 644 0262 A0EB0C02 		sub	r2, r0, ip
 338:Drivers/CMSIS/DSP/Source/FilteringFunctions/arm_fir_interpolate_f32.c **** 
 645              		.loc 1 338 12 view .LVU279
 646 0266 09EB8202 		add	r2, r9, r2, lsl #2
 647              	.LVL124:
 342:Drivers/CMSIS/DSP/Source/FilteringFunctions/arm_fir_interpolate_f32.c ****       while (tapCnt > 0U)
 648              		.loc 1 342 7 is_stmt 1 view .LVU280
 342:Drivers/CMSIS/DSP/Source/FilteringFunctions/arm_fir_interpolate_f32.c ****       while (tapCnt > 0U)
 649              		.loc 1 342 14 is_stmt 0 view .LVU281
 650 026a B708     		lsrs	r7, r6, #2
 651              	.LVL125:
 343:Drivers/CMSIS/DSP/Source/FilteringFunctions/arm_fir_interpolate_f32.c ****       {
ARM GAS  /var/folders/n6/c271nzx11xl4r4_m7sqjlt0m0000gn/T//ccIm2H6P.s 			page 21


 652              		.loc 1 343 7 is_stmt 1 view .LVU282
 335:Drivers/CMSIS/DSP/Source/FilteringFunctions/arm_fir_interpolate_f32.c **** 
 653              		.loc 1 335 12 is_stmt 0 view .LVU283
 654 026c 2146     		mov	r1, r4
 332:Drivers/CMSIS/DSP/Source/FilteringFunctions/arm_fir_interpolate_f32.c **** 
 655              		.loc 1 332 12 view .LVU284
 656 026e DFED1A7A 		vldr.32	s15, .L27
 343:Drivers/CMSIS/DSP/Source/FilteringFunctions/arm_fir_interpolate_f32.c ****       {
 657              		.loc 1 343 13 view .LVU285
 658 0272 DCE7     		b	.L12
 659              	.LVL126:
 660              	.L25:
 423:Drivers/CMSIS/DSP/Source/FilteringFunctions/arm_fir_interpolate_f32.c ****     }
 424:Drivers/CMSIS/DSP/Source/FilteringFunctions/arm_fir_interpolate_f32.c **** 
 425:Drivers/CMSIS/DSP/Source/FilteringFunctions/arm_fir_interpolate_f32.c ****     /* Advance the state pointer by 1
 426:Drivers/CMSIS/DSP/Source/FilteringFunctions/arm_fir_interpolate_f32.c ****      * to process the next group of interpolation factor number samples */
 427:Drivers/CMSIS/DSP/Source/FilteringFunctions/arm_fir_interpolate_f32.c ****     pState = pState + 1;
 661              		.loc 1 427 5 is_stmt 1 view .LVU286
 662              		.loc 1 427 12 is_stmt 0 view .LVU287
 663 0274 0434     		adds	r4, r4, #4
 664              	.LVL127:
 428:Drivers/CMSIS/DSP/Source/FilteringFunctions/arm_fir_interpolate_f32.c **** 
 429:Drivers/CMSIS/DSP/Source/FilteringFunctions/arm_fir_interpolate_f32.c ****     /* Decrement the loop counter */
 430:Drivers/CMSIS/DSP/Source/FilteringFunctions/arm_fir_interpolate_f32.c ****     blkCntN4--;
 665              		.loc 1 430 5 is_stmt 1 view .LVU288
 666              		.loc 1 430 13 is_stmt 0 view .LVU289
 667 0276 0BF1FF3B 		add	fp, fp, #-1
 668              	.LVL128:
 669              	.L10:
 319:Drivers/CMSIS/DSP/Source/FilteringFunctions/arm_fir_interpolate_f32.c ****   {
 670              		.loc 1 319 19 is_stmt 1 view .LVU290
 671 027a BBF1000F 		cmp	fp, #0
 672 027e 07D0     		beq	.L26
 322:Drivers/CMSIS/DSP/Source/FilteringFunctions/arm_fir_interpolate_f32.c **** 
 673              		.loc 1 322 5 view .LVU291
 674              	.LVL129:
 322:Drivers/CMSIS/DSP/Source/FilteringFunctions/arm_fir_interpolate_f32.c **** 
 675              		.loc 1 322 22 is_stmt 0 view .LVU292
 676 0280 5AF8043B 		ldr	r3, [r10], #4	@ float
 677              	.LVL130:
 322:Drivers/CMSIS/DSP/Source/FilteringFunctions/arm_fir_interpolate_f32.c **** 
 678              		.loc 1 322 20 view .LVU293
 679 0284 48F8043B 		str	r3, [r8], #4	@ float
 680              	.LVL131:
 325:Drivers/CMSIS/DSP/Source/FilteringFunctions/arm_fir_interpolate_f32.c **** 
 681              		.loc 1 325 5 is_stmt 1 view .LVU294
 328:Drivers/CMSIS/DSP/Source/FilteringFunctions/arm_fir_interpolate_f32.c ****     while (i > 0U)
 682              		.loc 1 328 5 view .LVU295
 328:Drivers/CMSIS/DSP/Source/FilteringFunctions/arm_fir_interpolate_f32.c ****     while (i > 0U)
 683              		.loc 1 328 10 is_stmt 0 view .LVU296
 684 0288 2B78     		ldrb	r3, [r5]	@ zero_extendqisi2
 685              	.LVL132:
 329:Drivers/CMSIS/DSP/Source/FilteringFunctions/arm_fir_interpolate_f32.c ****     {
 686              		.loc 1 329 5 is_stmt 1 view .LVU297
 325:Drivers/CMSIS/DSP/Source/FilteringFunctions/arm_fir_interpolate_f32.c **** 
 687              		.loc 1 325 7 is_stmt 0 view .LVU298
 688 028a 4FF0010C 		mov	ip, #1
ARM GAS  /var/folders/n6/c271nzx11xl4r4_m7sqjlt0m0000gn/T//ccIm2H6P.s 			page 22


 329:Drivers/CMSIS/DSP/Source/FilteringFunctions/arm_fir_interpolate_f32.c ****     {
 689              		.loc 1 329 11 view .LVU299
 690 028e E6E7     		b	.L11
 691              	.LVL133:
 692              	.L26:
 431:Drivers/CMSIS/DSP/Source/FilteringFunctions/arm_fir_interpolate_f32.c ****   }
 432:Drivers/CMSIS/DSP/Source/FilteringFunctions/arm_fir_interpolate_f32.c **** 
 433:Drivers/CMSIS/DSP/Source/FilteringFunctions/arm_fir_interpolate_f32.c ****   /* Processing is complete.
 434:Drivers/CMSIS/DSP/Source/FilteringFunctions/arm_fir_interpolate_f32.c ****    ** Now copy the last phaseLen - 1 samples to the satrt of the state buffer.
 435:Drivers/CMSIS/DSP/Source/FilteringFunctions/arm_fir_interpolate_f32.c ****    ** This prepares the state buffer for the next function call. */
 436:Drivers/CMSIS/DSP/Source/FilteringFunctions/arm_fir_interpolate_f32.c **** 
 437:Drivers/CMSIS/DSP/Source/FilteringFunctions/arm_fir_interpolate_f32.c ****   /* Points to the start of the state buffer */
 438:Drivers/CMSIS/DSP/Source/FilteringFunctions/arm_fir_interpolate_f32.c ****   pStateCurnt = S->pState;
 693              		.loc 1 438 3 is_stmt 1 view .LVU300
 694              		.loc 1 438 15 is_stmt 0 view .LVU301
 695 0290 AA68     		ldr	r2, [r5, #8]
 696              	.LVL134:
 439:Drivers/CMSIS/DSP/Source/FilteringFunctions/arm_fir_interpolate_f32.c **** 
 440:Drivers/CMSIS/DSP/Source/FilteringFunctions/arm_fir_interpolate_f32.c ****   tapCnt = (phaseLen - 1U) >> 2U;
 697              		.loc 1 440 3 is_stmt 1 view .LVU302
 698              		.loc 1 440 22 is_stmt 0 view .LVU303
 699 0292 731E     		subs	r3, r6, #1
 700              		.loc 1 440 10 view .LVU304
 701 0294 C3F38F03 		ubfx	r3, r3, #2, #16
 702              	.LVL135:
 441:Drivers/CMSIS/DSP/Source/FilteringFunctions/arm_fir_interpolate_f32.c **** 
 442:Drivers/CMSIS/DSP/Source/FilteringFunctions/arm_fir_interpolate_f32.c ****   /* copy data */
 443:Drivers/CMSIS/DSP/Source/FilteringFunctions/arm_fir_interpolate_f32.c ****   while (tapCnt > 0U)
 703              		.loc 1 443 3 is_stmt 1 view .LVU305
 704              		.loc 1 443 9 is_stmt 0 view .LVU306
 705 0298 0BE0     		b	.L18
 706              	.L19:
 444:Drivers/CMSIS/DSP/Source/FilteringFunctions/arm_fir_interpolate_f32.c ****   {
 445:Drivers/CMSIS/DSP/Source/FilteringFunctions/arm_fir_interpolate_f32.c ****     *pStateCurnt++ = *pState++;
 707              		.loc 1 445 5 is_stmt 1 view .LVU307
 708              	.LVL136:
 709              		.loc 1 445 22 is_stmt 0 view .LVU308
 710 029a 2168     		ldr	r1, [r4]	@ float
 711              		.loc 1 445 20 view .LVU309
 712 029c 1160     		str	r1, [r2]	@ float
 446:Drivers/CMSIS/DSP/Source/FilteringFunctions/arm_fir_interpolate_f32.c ****     *pStateCurnt++ = *pState++;
 713              		.loc 1 446 5 is_stmt 1 view .LVU310
 714              	.LVL137:
 715              		.loc 1 446 22 is_stmt 0 view .LVU311
 716 029e 6168     		ldr	r1, [r4, #4]	@ float
 717              		.loc 1 446 20 view .LVU312
 718 02a0 5160     		str	r1, [r2, #4]	@ float
 447:Drivers/CMSIS/DSP/Source/FilteringFunctions/arm_fir_interpolate_f32.c ****     *pStateCurnt++ = *pState++;
 719              		.loc 1 447 5 is_stmt 1 view .LVU313
 720              	.LVL138:
 721              		.loc 1 447 22 is_stmt 0 view .LVU314
 722 02a2 A168     		ldr	r1, [r4, #8]	@ float
 723              		.loc 1 447 20 view .LVU315
 724 02a4 9160     		str	r1, [r2, #8]	@ float
 448:Drivers/CMSIS/DSP/Source/FilteringFunctions/arm_fir_interpolate_f32.c ****     *pStateCurnt++ = *pState++;
 725              		.loc 1 448 5 is_stmt 1 view .LVU316
 726              	.LVL139:
ARM GAS  /var/folders/n6/c271nzx11xl4r4_m7sqjlt0m0000gn/T//ccIm2H6P.s 			page 23


 727              		.loc 1 448 22 is_stmt 0 view .LVU317
 728 02a6 E168     		ldr	r1, [r4, #12]	@ float
 729              		.loc 1 448 20 view .LVU318
 730 02a8 D160     		str	r1, [r2, #12]	@ float
 449:Drivers/CMSIS/DSP/Source/FilteringFunctions/arm_fir_interpolate_f32.c **** 
 450:Drivers/CMSIS/DSP/Source/FilteringFunctions/arm_fir_interpolate_f32.c ****     /* Decrement the loop counter */
 451:Drivers/CMSIS/DSP/Source/FilteringFunctions/arm_fir_interpolate_f32.c ****     tapCnt--;
 731              		.loc 1 451 5 is_stmt 1 view .LVU319
 732              		.loc 1 451 11 is_stmt 0 view .LVU320
 733 02aa 013B     		subs	r3, r3, #1
 734              	.LVL140:
 735              		.loc 1 451 11 view .LVU321
 736 02ac 9BB2     		uxth	r3, r3
 737              	.LVL141:
 448:Drivers/CMSIS/DSP/Source/FilteringFunctions/arm_fir_interpolate_f32.c ****     *pStateCurnt++ = *pState++;
 738              		.loc 1 448 17 view .LVU322
 739 02ae 1032     		adds	r2, r2, #16
 740              	.LVL142:
 448:Drivers/CMSIS/DSP/Source/FilteringFunctions/arm_fir_interpolate_f32.c ****     *pStateCurnt++ = *pState++;
 741              		.loc 1 448 29 view .LVU323
 742 02b0 1034     		adds	r4, r4, #16
 743              	.LVL143:
 744              	.L18:
 443:Drivers/CMSIS/DSP/Source/FilteringFunctions/arm_fir_interpolate_f32.c ****   {
 745              		.loc 1 443 17 is_stmt 1 view .LVU324
 746 02b2 002B     		cmp	r3, #0
 747 02b4 F1D1     		bne	.L19
 452:Drivers/CMSIS/DSP/Source/FilteringFunctions/arm_fir_interpolate_f32.c ****   }
 453:Drivers/CMSIS/DSP/Source/FilteringFunctions/arm_fir_interpolate_f32.c **** 
 454:Drivers/CMSIS/DSP/Source/FilteringFunctions/arm_fir_interpolate_f32.c ****   tapCnt = (phaseLen - 1U) % 0x04U;
 748              		.loc 1 454 3 view .LVU325
 749              		.loc 1 454 22 is_stmt 0 view .LVU326
 750 02b6 731E     		subs	r3, r6, #1
 751              	.LVL144:
 752              		.loc 1 454 10 view .LVU327
 753 02b8 03F00303 		and	r3, r3, #3
 754              	.LVL145:
 455:Drivers/CMSIS/DSP/Source/FilteringFunctions/arm_fir_interpolate_f32.c **** 
 456:Drivers/CMSIS/DSP/Source/FilteringFunctions/arm_fir_interpolate_f32.c ****   /* copy data */
 457:Drivers/CMSIS/DSP/Source/FilteringFunctions/arm_fir_interpolate_f32.c ****   while (tapCnt > 0U)
 755              		.loc 1 457 3 is_stmt 1 view .LVU328
 756 02bc 2146     		mov	r1, r4
 757              		.loc 1 457 9 is_stmt 0 view .LVU329
 758 02be 05E0     		b	.L20
 759              	.LVL146:
 760              	.L21:
 458:Drivers/CMSIS/DSP/Source/FilteringFunctions/arm_fir_interpolate_f32.c ****   {
 459:Drivers/CMSIS/DSP/Source/FilteringFunctions/arm_fir_interpolate_f32.c ****     *pStateCurnt++ = *pState++;
 761              		.loc 1 459 5 is_stmt 1 view .LVU330
 762              		.loc 1 459 22 is_stmt 0 view .LVU331
 763 02c0 51F8040B 		ldr	r0, [r1], #4	@ float
 764              	.LVL147:
 765              		.loc 1 459 20 view .LVU332
 766 02c4 42F8040B 		str	r0, [r2], #4	@ float
 767              	.LVL148:
 460:Drivers/CMSIS/DSP/Source/FilteringFunctions/arm_fir_interpolate_f32.c **** 
 461:Drivers/CMSIS/DSP/Source/FilteringFunctions/arm_fir_interpolate_f32.c ****     /* Decrement the loop counter */
ARM GAS  /var/folders/n6/c271nzx11xl4r4_m7sqjlt0m0000gn/T//ccIm2H6P.s 			page 24


 462:Drivers/CMSIS/DSP/Source/FilteringFunctions/arm_fir_interpolate_f32.c ****     tapCnt--;
 768              		.loc 1 462 5 is_stmt 1 view .LVU333
 769              		.loc 1 462 11 is_stmt 0 view .LVU334
 770 02c8 013B     		subs	r3, r3, #1
 771              	.LVL149:
 772              		.loc 1 462 11 view .LVU335
 773 02ca 9BB2     		uxth	r3, r3
 774              	.LVL150:
 775              	.L20:
 457:Drivers/CMSIS/DSP/Source/FilteringFunctions/arm_fir_interpolate_f32.c ****   {
 776              		.loc 1 457 17 is_stmt 1 view .LVU336
 777 02cc 002B     		cmp	r3, #0
 778 02ce F7D1     		bne	.L21
 463:Drivers/CMSIS/DSP/Source/FilteringFunctions/arm_fir_interpolate_f32.c ****   }
 464:Drivers/CMSIS/DSP/Source/FilteringFunctions/arm_fir_interpolate_f32.c **** }
 779              		.loc 1 464 1 is_stmt 0 view .LVU337
 780 02d0 03B0     		add	sp, sp, #12
 781              		.cfi_def_cfa_offset 36
 782              		@ sp needed
 783 02d2 BDE8F08F 		pop	{r4, r5, r6, r7, r8, r9, r10, fp, pc}
 784              	.LVL151:
 785              	.L28:
 786              		.loc 1 464 1 view .LVU338
 787 02d6 00BF     		.align	2
 788              	.L27:
 789 02d8 00000000 		.word	0
 790              		.cfi_endproc
 791              	.LFE135:
 793              		.text
 794              	.Letext0:
 795              		.file 2 "/Users/killian/Library/Application Support/Code/User/globalStorage/bmd.stm32-for-vscode/@
 796              		.file 3 "/Users/killian/Library/Application Support/Code/User/globalStorage/bmd.stm32-for-vscode/@
 797              		.file 4 "Drivers/CMSIS/DSP/Include/arm_math.h"
ARM GAS  /var/folders/n6/c271nzx11xl4r4_m7sqjlt0m0000gn/T//ccIm2H6P.s 			page 25

