ARM GAS  /var/folders/n6/c271nzx11xl4r4_m7sqjlt0m0000gn/T//ccDSuTNz.s 			page 1


   1              		.cpu cortex-m7
   2              		.arch armv7e-m
   3              		.fpu fpv5-d16
   4              		.eabi_attribute 28, 1
   5              		.eabi_attribute 20, 1
   6              		.eabi_attribute 21, 1
   7              		.eabi_attribute 23, 3
   8              		.eabi_attribute 24, 1
   9              		.eabi_attribute 25, 1
  10              		.eabi_attribute 26, 1
  11              		.eabi_attribute 30, 1
  12              		.eabi_attribute 34, 1
  13              		.eabi_attribute 18, 4
  14              		.file	"arm_mult_q15.c"
  15              		.text
  16              	.Ltext0:
  17              		.cfi_sections	.debug_frame
  18              		.file 1 "Drivers/CMSIS/DSP/Source/BasicMathFunctions/arm_mult_q15.c"
  19              		.section	.text.arm_mult_q15,"ax",%progbits
  20              		.align	1
  21              		.global	arm_mult_q15
  22              		.syntax unified
  23              		.thumb
  24              		.thumb_func
  26              	arm_mult_q15:
  27              	.LVL0:
  28              	.LFB135:
   1:Drivers/CMSIS/DSP/Source/BasicMathFunctions/arm_mult_q15.c **** /* ----------------------------------------------------------------------
   2:Drivers/CMSIS/DSP/Source/BasicMathFunctions/arm_mult_q15.c ****  * Project:      CMSIS DSP Library
   3:Drivers/CMSIS/DSP/Source/BasicMathFunctions/arm_mult_q15.c ****  * Title:        arm_mult_q15.c
   4:Drivers/CMSIS/DSP/Source/BasicMathFunctions/arm_mult_q15.c ****  * Description:  Q15 vector multiplication
   5:Drivers/CMSIS/DSP/Source/BasicMathFunctions/arm_mult_q15.c ****  *
   6:Drivers/CMSIS/DSP/Source/BasicMathFunctions/arm_mult_q15.c ****  * $Date:        27. January 2017
   7:Drivers/CMSIS/DSP/Source/BasicMathFunctions/arm_mult_q15.c ****  * $Revision:    V.1.5.1
   8:Drivers/CMSIS/DSP/Source/BasicMathFunctions/arm_mult_q15.c ****  *
   9:Drivers/CMSIS/DSP/Source/BasicMathFunctions/arm_mult_q15.c ****  * Target Processor: Cortex-M cores
  10:Drivers/CMSIS/DSP/Source/BasicMathFunctions/arm_mult_q15.c ****  * -------------------------------------------------------------------- */
  11:Drivers/CMSIS/DSP/Source/BasicMathFunctions/arm_mult_q15.c **** /*
  12:Drivers/CMSIS/DSP/Source/BasicMathFunctions/arm_mult_q15.c ****  * Copyright (C) 2010-2017 ARM Limited or its affiliates. All rights reserved.
  13:Drivers/CMSIS/DSP/Source/BasicMathFunctions/arm_mult_q15.c ****  *
  14:Drivers/CMSIS/DSP/Source/BasicMathFunctions/arm_mult_q15.c ****  * SPDX-License-Identifier: Apache-2.0
  15:Drivers/CMSIS/DSP/Source/BasicMathFunctions/arm_mult_q15.c ****  *
  16:Drivers/CMSIS/DSP/Source/BasicMathFunctions/arm_mult_q15.c ****  * Licensed under the Apache License, Version 2.0 (the License); you may
  17:Drivers/CMSIS/DSP/Source/BasicMathFunctions/arm_mult_q15.c ****  * not use this file except in compliance with the License.
  18:Drivers/CMSIS/DSP/Source/BasicMathFunctions/arm_mult_q15.c ****  * You may obtain a copy of the License at
  19:Drivers/CMSIS/DSP/Source/BasicMathFunctions/arm_mult_q15.c ****  *
  20:Drivers/CMSIS/DSP/Source/BasicMathFunctions/arm_mult_q15.c ****  * www.apache.org/licenses/LICENSE-2.0
  21:Drivers/CMSIS/DSP/Source/BasicMathFunctions/arm_mult_q15.c ****  *
  22:Drivers/CMSIS/DSP/Source/BasicMathFunctions/arm_mult_q15.c ****  * Unless required by applicable law or agreed to in writing, software
  23:Drivers/CMSIS/DSP/Source/BasicMathFunctions/arm_mult_q15.c ****  * distributed under the License is distributed on an AS IS BASIS, WITHOUT
  24:Drivers/CMSIS/DSP/Source/BasicMathFunctions/arm_mult_q15.c ****  * WARRANTIES OR CONDITIONS OF ANY KIND, either express or implied.
  25:Drivers/CMSIS/DSP/Source/BasicMathFunctions/arm_mult_q15.c ****  * See the License for the specific language governing permissions and
  26:Drivers/CMSIS/DSP/Source/BasicMathFunctions/arm_mult_q15.c ****  * limitations under the License.
  27:Drivers/CMSIS/DSP/Source/BasicMathFunctions/arm_mult_q15.c ****  */
  28:Drivers/CMSIS/DSP/Source/BasicMathFunctions/arm_mult_q15.c **** 
  29:Drivers/CMSIS/DSP/Source/BasicMathFunctions/arm_mult_q15.c **** #include "arm_math.h"
  30:Drivers/CMSIS/DSP/Source/BasicMathFunctions/arm_mult_q15.c **** 
ARM GAS  /var/folders/n6/c271nzx11xl4r4_m7sqjlt0m0000gn/T//ccDSuTNz.s 			page 2


  31:Drivers/CMSIS/DSP/Source/BasicMathFunctions/arm_mult_q15.c **** /**
  32:Drivers/CMSIS/DSP/Source/BasicMathFunctions/arm_mult_q15.c ****  * @ingroup groupMath
  33:Drivers/CMSIS/DSP/Source/BasicMathFunctions/arm_mult_q15.c ****  */
  34:Drivers/CMSIS/DSP/Source/BasicMathFunctions/arm_mult_q15.c **** 
  35:Drivers/CMSIS/DSP/Source/BasicMathFunctions/arm_mult_q15.c **** /**
  36:Drivers/CMSIS/DSP/Source/BasicMathFunctions/arm_mult_q15.c ****  * @addtogroup BasicMult
  37:Drivers/CMSIS/DSP/Source/BasicMathFunctions/arm_mult_q15.c ****  * @{
  38:Drivers/CMSIS/DSP/Source/BasicMathFunctions/arm_mult_q15.c ****  */
  39:Drivers/CMSIS/DSP/Source/BasicMathFunctions/arm_mult_q15.c **** 
  40:Drivers/CMSIS/DSP/Source/BasicMathFunctions/arm_mult_q15.c **** 
  41:Drivers/CMSIS/DSP/Source/BasicMathFunctions/arm_mult_q15.c **** /**
  42:Drivers/CMSIS/DSP/Source/BasicMathFunctions/arm_mult_q15.c ****  * @brief           Q15 vector multiplication
  43:Drivers/CMSIS/DSP/Source/BasicMathFunctions/arm_mult_q15.c ****  * @param[in]       *pSrcA points to the first input vector
  44:Drivers/CMSIS/DSP/Source/BasicMathFunctions/arm_mult_q15.c ****  * @param[in]       *pSrcB points to the second input vector
  45:Drivers/CMSIS/DSP/Source/BasicMathFunctions/arm_mult_q15.c ****  * @param[out]      *pDst points to the output vector
  46:Drivers/CMSIS/DSP/Source/BasicMathFunctions/arm_mult_q15.c ****  * @param[in]       blockSize number of samples in each vector
  47:Drivers/CMSIS/DSP/Source/BasicMathFunctions/arm_mult_q15.c ****  * @return none.
  48:Drivers/CMSIS/DSP/Source/BasicMathFunctions/arm_mult_q15.c ****  *
  49:Drivers/CMSIS/DSP/Source/BasicMathFunctions/arm_mult_q15.c ****  * <b>Scaling and Overflow Behavior:</b>
  50:Drivers/CMSIS/DSP/Source/BasicMathFunctions/arm_mult_q15.c ****  * \par
  51:Drivers/CMSIS/DSP/Source/BasicMathFunctions/arm_mult_q15.c ****  * The function uses saturating arithmetic.
  52:Drivers/CMSIS/DSP/Source/BasicMathFunctions/arm_mult_q15.c ****  * Results outside of the allowable Q15 range [0x8000 0x7FFF] will be saturated.
  53:Drivers/CMSIS/DSP/Source/BasicMathFunctions/arm_mult_q15.c ****  */
  54:Drivers/CMSIS/DSP/Source/BasicMathFunctions/arm_mult_q15.c **** 
  55:Drivers/CMSIS/DSP/Source/BasicMathFunctions/arm_mult_q15.c **** void arm_mult_q15(
  56:Drivers/CMSIS/DSP/Source/BasicMathFunctions/arm_mult_q15.c ****   q15_t * pSrcA,
  57:Drivers/CMSIS/DSP/Source/BasicMathFunctions/arm_mult_q15.c ****   q15_t * pSrcB,
  58:Drivers/CMSIS/DSP/Source/BasicMathFunctions/arm_mult_q15.c ****   q15_t * pDst,
  59:Drivers/CMSIS/DSP/Source/BasicMathFunctions/arm_mult_q15.c ****   uint32_t blockSize)
  60:Drivers/CMSIS/DSP/Source/BasicMathFunctions/arm_mult_q15.c **** {
  29              		.loc 1 60 1 view -0
  30              		.cfi_startproc
  31              		@ args = 0, pretend = 0, frame = 0
  32              		@ frame_needed = 0, uses_anonymous_args = 0
  33              		.loc 1 60 1 is_stmt 0 view .LVU1
  34 0000 2DE9F041 		push	{r4, r5, r6, r7, r8, lr}
  35              		.cfi_def_cfa_offset 24
  36              		.cfi_offset 4, -24
  37              		.cfi_offset 5, -20
  38              		.cfi_offset 6, -16
  39              		.cfi_offset 7, -12
  40              		.cfi_offset 8, -8
  41              		.cfi_offset 14, -4
  42 0004 0D46     		mov	r5, r1
  61:Drivers/CMSIS/DSP/Source/BasicMathFunctions/arm_mult_q15.c ****   uint32_t blkCnt;                               /* loop counters */
  43              		.loc 1 61 3 is_stmt 1 view .LVU2
  62:Drivers/CMSIS/DSP/Source/BasicMathFunctions/arm_mult_q15.c **** 
  63:Drivers/CMSIS/DSP/Source/BasicMathFunctions/arm_mult_q15.c **** #if defined (ARM_MATH_DSP)
  64:Drivers/CMSIS/DSP/Source/BasicMathFunctions/arm_mult_q15.c **** 
  65:Drivers/CMSIS/DSP/Source/BasicMathFunctions/arm_mult_q15.c **** /* Run the below code for Cortex-M4 and Cortex-M3 */
  66:Drivers/CMSIS/DSP/Source/BasicMathFunctions/arm_mult_q15.c ****   q31_t inA1, inA2, inB1, inB2;                  /* temporary input variables */
  44              		.loc 1 66 3 view .LVU3
  67:Drivers/CMSIS/DSP/Source/BasicMathFunctions/arm_mult_q15.c ****   q15_t out1, out2, out3, out4;                  /* temporary output variables */
  45              		.loc 1 67 3 view .LVU4
  68:Drivers/CMSIS/DSP/Source/BasicMathFunctions/arm_mult_q15.c ****   q31_t mul1, mul2, mul3, mul4;                  /* temporary variables */
  46              		.loc 1 68 3 view .LVU5
  69:Drivers/CMSIS/DSP/Source/BasicMathFunctions/arm_mult_q15.c **** 
ARM GAS  /var/folders/n6/c271nzx11xl4r4_m7sqjlt0m0000gn/T//ccDSuTNz.s 			page 3


  70:Drivers/CMSIS/DSP/Source/BasicMathFunctions/arm_mult_q15.c ****   /* loop Unrolling */
  71:Drivers/CMSIS/DSP/Source/BasicMathFunctions/arm_mult_q15.c ****   blkCnt = blockSize >> 2U;
  47              		.loc 1 71 3 view .LVU6
  48              		.loc 1 71 10 is_stmt 0 view .LVU7
  49 0006 9C08     		lsrs	r4, r3, #2
  50              	.LVL1:
  72:Drivers/CMSIS/DSP/Source/BasicMathFunctions/arm_mult_q15.c **** 
  73:Drivers/CMSIS/DSP/Source/BasicMathFunctions/arm_mult_q15.c ****   /* First part of the processing with loop unrolling.  Compute 4 outputs at a time.
  74:Drivers/CMSIS/DSP/Source/BasicMathFunctions/arm_mult_q15.c ****    ** a second loop below computes the remaining 1 to 3 samples. */
  75:Drivers/CMSIS/DSP/Source/BasicMathFunctions/arm_mult_q15.c ****   while (blkCnt > 0U)
  51              		.loc 1 75 3 is_stmt 1 view .LVU8
  52              		.loc 1 75 9 is_stmt 0 view .LVU9
  53 0008 34E0     		b	.L2
  54              	.LVL2:
  55              	.L3:
  76:Drivers/CMSIS/DSP/Source/BasicMathFunctions/arm_mult_q15.c ****   {
  77:Drivers/CMSIS/DSP/Source/BasicMathFunctions/arm_mult_q15.c ****     /* read two samples at a time from sourceA */
  78:Drivers/CMSIS/DSP/Source/BasicMathFunctions/arm_mult_q15.c ****     inA1 = *__SIMD32(pSrcA)++;
  56              		.loc 1 78 5 is_stmt 1 view .LVU10
  57              		.loc 1 78 10 is_stmt 0 view .LVU11
  58 000a 8446     		mov	ip, r0
  59 000c 5CF8086B 		ldr	r6, [ip], #8
  60              	.LVL3:
  79:Drivers/CMSIS/DSP/Source/BasicMathFunctions/arm_mult_q15.c ****     /* read two samples at a time from sourceB */
  80:Drivers/CMSIS/DSP/Source/BasicMathFunctions/arm_mult_q15.c ****     inB1 = *__SIMD32(pSrcB)++;
  61              		.loc 1 80 5 is_stmt 1 view .LVU12
  62              		.loc 1 80 10 is_stmt 0 view .LVU13
  63 0010 AE46     		mov	lr, r5
  64 0012 5EF8081B 		ldr	r1, [lr], #8
  65              	.LVL4:
  81:Drivers/CMSIS/DSP/Source/BasicMathFunctions/arm_mult_q15.c ****     /* read two samples at a time from sourceA */
  82:Drivers/CMSIS/DSP/Source/BasicMathFunctions/arm_mult_q15.c ****     inA2 = *__SIMD32(pSrcA)++;
  66              		.loc 1 82 5 is_stmt 1 view .LVU14
  67              		.loc 1 82 10 is_stmt 0 view .LVU15
  68 0016 4068     		ldr	r0, [r0, #4]
  69              	.LVL5:
  83:Drivers/CMSIS/DSP/Source/BasicMathFunctions/arm_mult_q15.c ****     /* read two samples at a time from sourceB */
  84:Drivers/CMSIS/DSP/Source/BasicMathFunctions/arm_mult_q15.c ****     inB2 = *__SIMD32(pSrcB)++;
  70              		.loc 1 84 5 is_stmt 1 view .LVU16
  71              		.loc 1 84 10 is_stmt 0 view .LVU17
  72 0018 6D68     		ldr	r5, [r5, #4]
  73              	.LVL6:
  85:Drivers/CMSIS/DSP/Source/BasicMathFunctions/arm_mult_q15.c **** 
  86:Drivers/CMSIS/DSP/Source/BasicMathFunctions/arm_mult_q15.c ****     /* multiply mul = sourceA * sourceB */
  87:Drivers/CMSIS/DSP/Source/BasicMathFunctions/arm_mult_q15.c ****     mul1 = (q31_t) ((q15_t) (inA1 >> 16) * (q15_t) (inB1 >> 16));
  74              		.loc 1 87 5 is_stmt 1 view .LVU18
  75              		.loc 1 87 21 is_stmt 0 view .LVU19
  76 001a 3714     		asrs	r7, r6, #16
  77              		.loc 1 87 44 view .LVU20
  78 001c 4FEA2148 		asr	r8, r1, #16
  79              		.loc 1 87 10 view .LVU21
  80 0020 08FB07F7 		mul	r7, r8, r7
  81              	.LVL7:
  88:Drivers/CMSIS/DSP/Source/BasicMathFunctions/arm_mult_q15.c ****     mul2 = (q31_t) ((q15_t) inA1 * (q15_t) inB1);
  82              		.loc 1 88 5 is_stmt 1 view .LVU22
  83              		.loc 1 88 21 is_stmt 0 view .LVU23
  84 0024 36B2     		sxth	r6, r6
ARM GAS  /var/folders/n6/c271nzx11xl4r4_m7sqjlt0m0000gn/T//ccDSuTNz.s 			page 4


  85              	.LVL8:
  86              		.loc 1 88 36 view .LVU24
  87 0026 09B2     		sxth	r1, r1
  88              	.LVL9:
  89              		.loc 1 88 10 view .LVU25
  90 0028 01FB06F6 		mul	r6, r1, r6
  91              	.LVL10:
  89:Drivers/CMSIS/DSP/Source/BasicMathFunctions/arm_mult_q15.c ****     mul3 = (q31_t) ((q15_t) (inA2 >> 16) * (q15_t) (inB2 >> 16));
  92              		.loc 1 89 5 is_stmt 1 view .LVU26
  93              		.loc 1 89 21 is_stmt 0 view .LVU27
  94 002c 4FEA2048 		asr	r8, r0, #16
  95              		.loc 1 89 44 view .LVU28
  96 0030 2914     		asrs	r1, r5, #16
  97              		.loc 1 89 10 view .LVU29
  98 0032 01FB08F8 		mul	r8, r1, r8
  99              	.LVL11:
  90:Drivers/CMSIS/DSP/Source/BasicMathFunctions/arm_mult_q15.c ****     mul4 = (q31_t) ((q15_t) inA2 * (q15_t) inB2);
 100              		.loc 1 90 5 is_stmt 1 view .LVU30
 101              		.loc 1 90 21 is_stmt 0 view .LVU31
 102 0036 01B2     		sxth	r1, r0
 103              		.loc 1 90 36 view .LVU32
 104 0038 2DB2     		sxth	r5, r5
 105              	.LVL12:
 106              		.loc 1 90 10 view .LVU33
 107 003a 05FB01F1 		mul	r1, r5, r1
 108              	.LVL13:
  91:Drivers/CMSIS/DSP/Source/BasicMathFunctions/arm_mult_q15.c **** 
  92:Drivers/CMSIS/DSP/Source/BasicMathFunctions/arm_mult_q15.c ****     /* saturate result to 16 bit */
  93:Drivers/CMSIS/DSP/Source/BasicMathFunctions/arm_mult_q15.c ****     out1 = (q15_t) __SSAT(mul1 >> 15, 16);
 109              		.loc 1 93 5 is_stmt 1 view .LVU34
 110              	.LBB2:
 111              		.loc 1 93 20 view .LVU35
 112 003e FF13     		asrs	r7, r7, #15
 113              	.LVL14:
 114              		.loc 1 93 20 view .LVU36
 115              		.syntax unified
 116              	@ 93 "Drivers/CMSIS/DSP/Source/BasicMathFunctions/arm_mult_q15.c" 1
 117 0040 07F30F07 		ssat r7, #16, r7
 118              	@ 0 "" 2
 119              	.LVL15:
 120              		.loc 1 93 20 view .LVU37
 121              		.loc 1 93 20 is_stmt 0 view .LVU38
 122              		.thumb
 123              		.syntax unified
 124              	.LBE2:
  94:Drivers/CMSIS/DSP/Source/BasicMathFunctions/arm_mult_q15.c ****     out2 = (q15_t) __SSAT(mul2 >> 15, 16);
 125              		.loc 1 94 5 is_stmt 1 view .LVU39
 126              	.LBB3:
 127              		.loc 1 94 20 view .LVU40
 128 0044 F013     		asrs	r0, r6, #15
 129              	.LVL16:
 130              		.loc 1 94 20 view .LVU41
 131              		.syntax unified
 132              	@ 94 "Drivers/CMSIS/DSP/Source/BasicMathFunctions/arm_mult_q15.c" 1
 133 0046 00F30F00 		ssat r0, #16, r0
 134              	@ 0 "" 2
 135              	.LVL17:
ARM GAS  /var/folders/n6/c271nzx11xl4r4_m7sqjlt0m0000gn/T//ccDSuTNz.s 			page 5


 136              		.loc 1 94 20 view .LVU42
 137              		.loc 1 94 20 is_stmt 0 view .LVU43
 138              		.thumb
 139              		.syntax unified
 140              	.LBE3:
  95:Drivers/CMSIS/DSP/Source/BasicMathFunctions/arm_mult_q15.c ****     out3 = (q15_t) __SSAT(mul3 >> 15, 16);
 141              		.loc 1 95 5 is_stmt 1 view .LVU44
 142              	.LBB4:
 143              		.loc 1 95 20 view .LVU45
 144 004a 4FEAE838 		asr	r8, r8, #15
 145              	.LVL18:
 146              		.loc 1 95 20 view .LVU46
 147              		.syntax unified
 148              	@ 95 "Drivers/CMSIS/DSP/Source/BasicMathFunctions/arm_mult_q15.c" 1
 149 004e 08F30F08 		ssat r8, #16, r8
 150              	@ 0 "" 2
 151              	.LVL19:
 152              		.loc 1 95 20 view .LVU47
 153              		.loc 1 95 20 is_stmt 0 view .LVU48
 154              		.thumb
 155              		.syntax unified
 156              	.LBE4:
  96:Drivers/CMSIS/DSP/Source/BasicMathFunctions/arm_mult_q15.c ****     out4 = (q15_t) __SSAT(mul4 >> 15, 16);
 157              		.loc 1 96 5 is_stmt 1 view .LVU49
 158              	.LBB5:
 159              		.loc 1 96 20 view .LVU50
 160 0052 C913     		asrs	r1, r1, #15
 161              	.LVL20:
 162              		.loc 1 96 20 view .LVU51
 163              		.syntax unified
 164              	@ 96 "Drivers/CMSIS/DSP/Source/BasicMathFunctions/arm_mult_q15.c" 1
 165 0054 01F30F01 		ssat r1, #16, r1
 166              	@ 0 "" 2
 167              	.LVL21:
 168              		.loc 1 96 20 view .LVU52
 169              		.loc 1 96 20 is_stmt 0 view .LVU53
 170              		.thumb
 171              		.syntax unified
 172              	.LBE5:
  97:Drivers/CMSIS/DSP/Source/BasicMathFunctions/arm_mult_q15.c **** 
  98:Drivers/CMSIS/DSP/Source/BasicMathFunctions/arm_mult_q15.c ****     /* store the result */
  99:Drivers/CMSIS/DSP/Source/BasicMathFunctions/arm_mult_q15.c **** #ifndef ARM_MATH_BIG_ENDIAN
 100:Drivers/CMSIS/DSP/Source/BasicMathFunctions/arm_mult_q15.c **** 
 101:Drivers/CMSIS/DSP/Source/BasicMathFunctions/arm_mult_q15.c ****     *__SIMD32(pDst)++ = __PKHBT(out2, out1, 16);
 173              		.loc 1 101 5 is_stmt 1 view .LVU54
 174              		.loc 1 101 25 is_stmt 0 view .LVU55
 175 0058 80B2     		uxth	r0, r0
 176              	.LVL22:
 177              		.loc 1 101 25 view .LVU56
 178 005a 40EA0740 		orr	r0, r0, r7, lsl #16
 179              	.LVL23:
 180              		.loc 1 101 23 view .LVU57
 181 005e 1546     		mov	r5, r2
 182              	.LVL24:
 183              		.loc 1 101 23 view .LVU58
 184 0060 45F8080B 		str	r0, [r5], #8
 185              	.LVL25:
ARM GAS  /var/folders/n6/c271nzx11xl4r4_m7sqjlt0m0000gn/T//ccDSuTNz.s 			page 6


 102:Drivers/CMSIS/DSP/Source/BasicMathFunctions/arm_mult_q15.c ****     *__SIMD32(pDst)++ = __PKHBT(out4, out3, 16);
 186              		.loc 1 102 5 is_stmt 1 view .LVU59
 187              		.loc 1 102 25 is_stmt 0 view .LVU60
 188 0064 89B2     		uxth	r1, r1
 189              	.LVL26:
 190              		.loc 1 102 25 view .LVU61
 191 0066 41EA0841 		orr	r1, r1, r8, lsl #16
 192              	.LVL27:
 193              		.loc 1 102 23 view .LVU62
 194 006a 5160     		str	r1, [r2, #4]
 103:Drivers/CMSIS/DSP/Source/BasicMathFunctions/arm_mult_q15.c **** 
 104:Drivers/CMSIS/DSP/Source/BasicMathFunctions/arm_mult_q15.c **** #else
 105:Drivers/CMSIS/DSP/Source/BasicMathFunctions/arm_mult_q15.c **** 
 106:Drivers/CMSIS/DSP/Source/BasicMathFunctions/arm_mult_q15.c ****     *__SIMD32(pDst)++ = __PKHBT(out2, out1, 16);
 107:Drivers/CMSIS/DSP/Source/BasicMathFunctions/arm_mult_q15.c ****     *__SIMD32(pDst)++ = __PKHBT(out4, out3, 16);
 108:Drivers/CMSIS/DSP/Source/BasicMathFunctions/arm_mult_q15.c **** 
 109:Drivers/CMSIS/DSP/Source/BasicMathFunctions/arm_mult_q15.c **** #endif /* #ifndef ARM_MATH_BIG_ENDIAN */
 110:Drivers/CMSIS/DSP/Source/BasicMathFunctions/arm_mult_q15.c **** 
 111:Drivers/CMSIS/DSP/Source/BasicMathFunctions/arm_mult_q15.c ****     /* Decrement the blockSize loop counter */
 112:Drivers/CMSIS/DSP/Source/BasicMathFunctions/arm_mult_q15.c ****     blkCnt--;
 195              		.loc 1 112 5 is_stmt 1 view .LVU63
 196              		.loc 1 112 11 is_stmt 0 view .LVU64
 197 006c 013C     		subs	r4, r4, #1
 198              	.LVL28:
 102:Drivers/CMSIS/DSP/Source/BasicMathFunctions/arm_mult_q15.c ****     *__SIMD32(pDst)++ = __PKHBT(out4, out3, 16);
 199              		.loc 1 102 20 view .LVU65
 200 006e 2A46     		mov	r2, r5
  84:Drivers/CMSIS/DSP/Source/BasicMathFunctions/arm_mult_q15.c **** 
 201              		.loc 1 84 28 view .LVU66
 202 0070 7546     		mov	r5, lr
 203              	.LVL29:
  82:Drivers/CMSIS/DSP/Source/BasicMathFunctions/arm_mult_q15.c ****     /* read two samples at a time from sourceB */
 204              		.loc 1 82 28 view .LVU67
 205 0072 6046     		mov	r0, ip
 206              	.LVL30:
 207              	.L2:
  75:Drivers/CMSIS/DSP/Source/BasicMathFunctions/arm_mult_q15.c ****   {
 208              		.loc 1 75 17 is_stmt 1 view .LVU68
 209 0074 002C     		cmp	r4, #0
 210 0076 C8D1     		bne	.L3
 113:Drivers/CMSIS/DSP/Source/BasicMathFunctions/arm_mult_q15.c ****   }
 114:Drivers/CMSIS/DSP/Source/BasicMathFunctions/arm_mult_q15.c **** 
 115:Drivers/CMSIS/DSP/Source/BasicMathFunctions/arm_mult_q15.c ****   /* If the blockSize is not a multiple of 4, compute any remaining output samples here.
 116:Drivers/CMSIS/DSP/Source/BasicMathFunctions/arm_mult_q15.c ****    ** No loop unrolling is used. */
 117:Drivers/CMSIS/DSP/Source/BasicMathFunctions/arm_mult_q15.c ****   blkCnt = blockSize % 0x4U;
 211              		.loc 1 117 3 view .LVU69
 212              		.loc 1 117 10 is_stmt 0 view .LVU70
 213 0078 03F00303 		and	r3, r3, #3
 214              	.LVL31:
 118:Drivers/CMSIS/DSP/Source/BasicMathFunctions/arm_mult_q15.c **** 
 119:Drivers/CMSIS/DSP/Source/BasicMathFunctions/arm_mult_q15.c **** #else
 120:Drivers/CMSIS/DSP/Source/BasicMathFunctions/arm_mult_q15.c **** 
 121:Drivers/CMSIS/DSP/Source/BasicMathFunctions/arm_mult_q15.c ****   /* Run the below code for Cortex-M0 */
 122:Drivers/CMSIS/DSP/Source/BasicMathFunctions/arm_mult_q15.c **** 
 123:Drivers/CMSIS/DSP/Source/BasicMathFunctions/arm_mult_q15.c ****   /* Initialize blkCnt with number of samples */
 124:Drivers/CMSIS/DSP/Source/BasicMathFunctions/arm_mult_q15.c ****   blkCnt = blockSize;
 125:Drivers/CMSIS/DSP/Source/BasicMathFunctions/arm_mult_q15.c **** 
ARM GAS  /var/folders/n6/c271nzx11xl4r4_m7sqjlt0m0000gn/T//ccDSuTNz.s 			page 7


 126:Drivers/CMSIS/DSP/Source/BasicMathFunctions/arm_mult_q15.c **** #endif /* #if defined (ARM_MATH_DSP) */
 127:Drivers/CMSIS/DSP/Source/BasicMathFunctions/arm_mult_q15.c **** 
 128:Drivers/CMSIS/DSP/Source/BasicMathFunctions/arm_mult_q15.c **** 
 129:Drivers/CMSIS/DSP/Source/BasicMathFunctions/arm_mult_q15.c ****   while (blkCnt > 0U)
 215              		.loc 1 129 3 is_stmt 1 view .LVU71
 216              		.loc 1 129 9 is_stmt 0 view .LVU72
 217 007c 0BE0     		b	.L4
 218              	.L5:
 130:Drivers/CMSIS/DSP/Source/BasicMathFunctions/arm_mult_q15.c ****   {
 131:Drivers/CMSIS/DSP/Source/BasicMathFunctions/arm_mult_q15.c ****     /* C = A * B */
 132:Drivers/CMSIS/DSP/Source/BasicMathFunctions/arm_mult_q15.c ****     /* Multiply the inputs and store the result in the destination buffer */
 133:Drivers/CMSIS/DSP/Source/BasicMathFunctions/arm_mult_q15.c ****     *pDst++ = (q15_t) __SSAT((((q31_t) (*pSrcA++) * (*pSrcB++)) >> 15), 16);
 219              		.loc 1 133 5 is_stmt 1 view .LVU73
 220              	.LBB6:
 221              		.loc 1 133 23 view .LVU74
 222              	.LVL32:
 223              		.loc 1 133 23 is_stmt 0 view .LVU75
 224 007e 30F9024B 		ldrsh	r4, [r0], #2
 225              	.LVL33:
 226              		.loc 1 133 23 view .LVU76
 227 0082 35F9021B 		ldrsh	r1, [r5], #2
 228              	.LVL34:
 229              		.loc 1 133 23 view .LVU77
 230 0086 01FB04F4 		mul	r4, r1, r4
 231 008a E413     		asrs	r4, r4, #15
 232              	.LVL35:
 233              		.loc 1 133 23 is_stmt 1 view .LVU78
 234              		.syntax unified
 235              	@ 133 "Drivers/CMSIS/DSP/Source/BasicMathFunctions/arm_mult_q15.c" 1
 236 008c 04F30F04 		ssat r4, #16, r4
 237              	@ 0 "" 2
 238              	.LVL36:
 239              		.loc 1 133 23 view .LVU79
 240              		.loc 1 133 23 is_stmt 0 view .LVU80
 241              		.thumb
 242              		.syntax unified
 243              	.LBE6:
 244              		.loc 1 133 13 view .LVU81
 245 0090 22F8024B 		strh	r4, [r2], #2	@ movhi
 246              	.LVL37:
 134:Drivers/CMSIS/DSP/Source/BasicMathFunctions/arm_mult_q15.c **** 
 135:Drivers/CMSIS/DSP/Source/BasicMathFunctions/arm_mult_q15.c ****     /* Decrement the blockSize loop counter */
 136:Drivers/CMSIS/DSP/Source/BasicMathFunctions/arm_mult_q15.c ****     blkCnt--;
 247              		.loc 1 136 5 is_stmt 1 view .LVU82
 248              		.loc 1 136 11 is_stmt 0 view .LVU83
 249 0094 013B     		subs	r3, r3, #1
 250              	.LVL38:
 251              	.L4:
 129:Drivers/CMSIS/DSP/Source/BasicMathFunctions/arm_mult_q15.c ****   {
 252              		.loc 1 129 17 is_stmt 1 view .LVU84
 253 0096 002B     		cmp	r3, #0
 254 0098 F1D1     		bne	.L5
 137:Drivers/CMSIS/DSP/Source/BasicMathFunctions/arm_mult_q15.c ****   }
 138:Drivers/CMSIS/DSP/Source/BasicMathFunctions/arm_mult_q15.c **** }
 255              		.loc 1 138 1 is_stmt 0 view .LVU85
 256 009a BDE8F081 		pop	{r4, r5, r6, r7, r8, pc}
 257              		.loc 1 138 1 view .LVU86
ARM GAS  /var/folders/n6/c271nzx11xl4r4_m7sqjlt0m0000gn/T//ccDSuTNz.s 			page 8


 258              		.cfi_endproc
 259              	.LFE135:
 261              		.text
 262              	.Letext0:
 263              		.file 2 "/Users/killian/Library/Application Support/Code/User/globalStorage/bmd.stm32-for-vscode/@
 264              		.file 3 "/Users/killian/Library/Application Support/Code/User/globalStorage/bmd.stm32-for-vscode/@
 265              		.file 4 "Drivers/CMSIS/DSP/Include/arm_math.h"
ARM GAS  /var/folders/n6/c271nzx11xl4r4_m7sqjlt0m0000gn/T//ccDSuTNz.s 			page 9

