ARM GAS  /var/folders/n6/c271nzx11xl4r4_m7sqjlt0m0000gn/T//cc0WBP98.s 			page 1


   1              		.cpu cortex-m7
   2              		.arch armv7e-m
   3              		.fpu fpv5-d16
   4              		.eabi_attribute 28, 1
   5              		.eabi_attribute 20, 1
   6              		.eabi_attribute 21, 1
   7              		.eabi_attribute 23, 3
   8              		.eabi_attribute 24, 1
   9              		.eabi_attribute 25, 1
  10              		.eabi_attribute 26, 1
  11              		.eabi_attribute 30, 1
  12              		.eabi_attribute 34, 1
  13              		.eabi_attribute 18, 4
  14              		.file	"arm_sin_f32.c"
  15              		.text
  16              	.Ltext0:
  17              		.cfi_sections	.debug_frame
  18              		.file 1 "Drivers/CMSIS/DSP/Source/FastMathFunctions/arm_sin_f32.c"
  19              		.section	.text.arm_sin_f32,"ax",%progbits
  20              		.align	1
  21              		.global	arm_sin_f32
  22              		.syntax unified
  23              		.thumb
  24              		.thumb_func
  26              	arm_sin_f32:
  27              	.LVL0:
  28              	.LFB135:
   1:Drivers/CMSIS/DSP/Source/FastMathFunctions/arm_sin_f32.c **** /* ----------------------------------------------------------------------
   2:Drivers/CMSIS/DSP/Source/FastMathFunctions/arm_sin_f32.c ****  * Project:      CMSIS DSP Library
   3:Drivers/CMSIS/DSP/Source/FastMathFunctions/arm_sin_f32.c ****  * Title:        arm_sin_f32.c
   4:Drivers/CMSIS/DSP/Source/FastMathFunctions/arm_sin_f32.c ****  * Description:  Fast sine calculation for floating-point values
   5:Drivers/CMSIS/DSP/Source/FastMathFunctions/arm_sin_f32.c ****  *
   6:Drivers/CMSIS/DSP/Source/FastMathFunctions/arm_sin_f32.c ****  * $Date:        27. January 2017
   7:Drivers/CMSIS/DSP/Source/FastMathFunctions/arm_sin_f32.c ****  * $Revision:    V.1.5.1
   8:Drivers/CMSIS/DSP/Source/FastMathFunctions/arm_sin_f32.c ****  *
   9:Drivers/CMSIS/DSP/Source/FastMathFunctions/arm_sin_f32.c ****  * Target Processor: Cortex-M cores
  10:Drivers/CMSIS/DSP/Source/FastMathFunctions/arm_sin_f32.c ****  * -------------------------------------------------------------------- */
  11:Drivers/CMSIS/DSP/Source/FastMathFunctions/arm_sin_f32.c **** /*
  12:Drivers/CMSIS/DSP/Source/FastMathFunctions/arm_sin_f32.c ****  * Copyright (C) 2010-2017 ARM Limited or its affiliates. All rights reserved.
  13:Drivers/CMSIS/DSP/Source/FastMathFunctions/arm_sin_f32.c ****  *
  14:Drivers/CMSIS/DSP/Source/FastMathFunctions/arm_sin_f32.c ****  * SPDX-License-Identifier: Apache-2.0
  15:Drivers/CMSIS/DSP/Source/FastMathFunctions/arm_sin_f32.c ****  *
  16:Drivers/CMSIS/DSP/Source/FastMathFunctions/arm_sin_f32.c ****  * Licensed under the Apache License, Version 2.0 (the License); you may
  17:Drivers/CMSIS/DSP/Source/FastMathFunctions/arm_sin_f32.c ****  * not use this file except in compliance with the License.
  18:Drivers/CMSIS/DSP/Source/FastMathFunctions/arm_sin_f32.c ****  * You may obtain a copy of the License at
  19:Drivers/CMSIS/DSP/Source/FastMathFunctions/arm_sin_f32.c ****  *
  20:Drivers/CMSIS/DSP/Source/FastMathFunctions/arm_sin_f32.c ****  * www.apache.org/licenses/LICENSE-2.0
  21:Drivers/CMSIS/DSP/Source/FastMathFunctions/arm_sin_f32.c ****  *
  22:Drivers/CMSIS/DSP/Source/FastMathFunctions/arm_sin_f32.c ****  * Unless required by applicable law or agreed to in writing, software
  23:Drivers/CMSIS/DSP/Source/FastMathFunctions/arm_sin_f32.c ****  * distributed under the License is distributed on an AS IS BASIS, WITHOUT
  24:Drivers/CMSIS/DSP/Source/FastMathFunctions/arm_sin_f32.c ****  * WARRANTIES OR CONDITIONS OF ANY KIND, either express or implied.
  25:Drivers/CMSIS/DSP/Source/FastMathFunctions/arm_sin_f32.c ****  * See the License for the specific language governing permissions and
  26:Drivers/CMSIS/DSP/Source/FastMathFunctions/arm_sin_f32.c ****  * limitations under the License.
  27:Drivers/CMSIS/DSP/Source/FastMathFunctions/arm_sin_f32.c ****  */
  28:Drivers/CMSIS/DSP/Source/FastMathFunctions/arm_sin_f32.c **** 
  29:Drivers/CMSIS/DSP/Source/FastMathFunctions/arm_sin_f32.c **** #include "arm_math.h"
  30:Drivers/CMSIS/DSP/Source/FastMathFunctions/arm_sin_f32.c **** #include "arm_common_tables.h"
ARM GAS  /var/folders/n6/c271nzx11xl4r4_m7sqjlt0m0000gn/T//cc0WBP98.s 			page 2


  31:Drivers/CMSIS/DSP/Source/FastMathFunctions/arm_sin_f32.c **** #include <math.h>
  32:Drivers/CMSIS/DSP/Source/FastMathFunctions/arm_sin_f32.c **** 
  33:Drivers/CMSIS/DSP/Source/FastMathFunctions/arm_sin_f32.c **** /**
  34:Drivers/CMSIS/DSP/Source/FastMathFunctions/arm_sin_f32.c ****  * @ingroup groupFastMath
  35:Drivers/CMSIS/DSP/Source/FastMathFunctions/arm_sin_f32.c ****  */
  36:Drivers/CMSIS/DSP/Source/FastMathFunctions/arm_sin_f32.c **** 
  37:Drivers/CMSIS/DSP/Source/FastMathFunctions/arm_sin_f32.c **** /**
  38:Drivers/CMSIS/DSP/Source/FastMathFunctions/arm_sin_f32.c ****  * @defgroup sin Sine
  39:Drivers/CMSIS/DSP/Source/FastMathFunctions/arm_sin_f32.c ****  *
  40:Drivers/CMSIS/DSP/Source/FastMathFunctions/arm_sin_f32.c ****  * Computes the trigonometric sine function using a combination of table lookup
  41:Drivers/CMSIS/DSP/Source/FastMathFunctions/arm_sin_f32.c ****  * and linear interpolation.  There are separate functions for
  42:Drivers/CMSIS/DSP/Source/FastMathFunctions/arm_sin_f32.c ****  * Q15, Q31, and floating-point data types.
  43:Drivers/CMSIS/DSP/Source/FastMathFunctions/arm_sin_f32.c ****  * The input to the floating-point version is in radians and in the range [0 2*pi) while the
  44:Drivers/CMSIS/DSP/Source/FastMathFunctions/arm_sin_f32.c ****  * fixed-point Q15 and Q31 have a scaled input with the range
  45:Drivers/CMSIS/DSP/Source/FastMathFunctions/arm_sin_f32.c ****  * [0 +0.9999] mapping to [0 2*pi).  The fixed-point range is chosen so that a
  46:Drivers/CMSIS/DSP/Source/FastMathFunctions/arm_sin_f32.c ****  * value of 2*pi wraps around to 0.
  47:Drivers/CMSIS/DSP/Source/FastMathFunctions/arm_sin_f32.c ****  *
  48:Drivers/CMSIS/DSP/Source/FastMathFunctions/arm_sin_f32.c ****  * The implementation is based on table lookup using 256 values together with linear interpolation.
  49:Drivers/CMSIS/DSP/Source/FastMathFunctions/arm_sin_f32.c ****  * The steps used are:
  50:Drivers/CMSIS/DSP/Source/FastMathFunctions/arm_sin_f32.c ****  *  -# Calculation of the nearest integer table index
  51:Drivers/CMSIS/DSP/Source/FastMathFunctions/arm_sin_f32.c ****  *  -# Compute the fractional portion (fract) of the table index.
  52:Drivers/CMSIS/DSP/Source/FastMathFunctions/arm_sin_f32.c ****  *  -# The final result equals <code>(1.0f-fract)*a + fract*b;</code>
  53:Drivers/CMSIS/DSP/Source/FastMathFunctions/arm_sin_f32.c ****  *
  54:Drivers/CMSIS/DSP/Source/FastMathFunctions/arm_sin_f32.c ****  * where
  55:Drivers/CMSIS/DSP/Source/FastMathFunctions/arm_sin_f32.c ****  * <pre>
  56:Drivers/CMSIS/DSP/Source/FastMathFunctions/arm_sin_f32.c ****  *    b=Table[index+0];
  57:Drivers/CMSIS/DSP/Source/FastMathFunctions/arm_sin_f32.c ****  *    c=Table[index+1];
  58:Drivers/CMSIS/DSP/Source/FastMathFunctions/arm_sin_f32.c ****  * </pre>
  59:Drivers/CMSIS/DSP/Source/FastMathFunctions/arm_sin_f32.c ****  */
  60:Drivers/CMSIS/DSP/Source/FastMathFunctions/arm_sin_f32.c **** 
  61:Drivers/CMSIS/DSP/Source/FastMathFunctions/arm_sin_f32.c **** /**
  62:Drivers/CMSIS/DSP/Source/FastMathFunctions/arm_sin_f32.c ****  * @addtogroup sin
  63:Drivers/CMSIS/DSP/Source/FastMathFunctions/arm_sin_f32.c ****  * @{
  64:Drivers/CMSIS/DSP/Source/FastMathFunctions/arm_sin_f32.c ****  */
  65:Drivers/CMSIS/DSP/Source/FastMathFunctions/arm_sin_f32.c **** 
  66:Drivers/CMSIS/DSP/Source/FastMathFunctions/arm_sin_f32.c **** /**
  67:Drivers/CMSIS/DSP/Source/FastMathFunctions/arm_sin_f32.c ****  * @brief  Fast approximation to the trigonometric sine function for floating-point data.
  68:Drivers/CMSIS/DSP/Source/FastMathFunctions/arm_sin_f32.c ****  * @param[in] x input value in radians.
  69:Drivers/CMSIS/DSP/Source/FastMathFunctions/arm_sin_f32.c ****  * @return  sin(x).
  70:Drivers/CMSIS/DSP/Source/FastMathFunctions/arm_sin_f32.c ****  */
  71:Drivers/CMSIS/DSP/Source/FastMathFunctions/arm_sin_f32.c **** 
  72:Drivers/CMSIS/DSP/Source/FastMathFunctions/arm_sin_f32.c **** float32_t arm_sin_f32(
  73:Drivers/CMSIS/DSP/Source/FastMathFunctions/arm_sin_f32.c ****   float32_t x)
  74:Drivers/CMSIS/DSP/Source/FastMathFunctions/arm_sin_f32.c **** {
  29              		.loc 1 74 1 view -0
  30              		.cfi_startproc
  31              		@ args = 0, pretend = 0, frame = 0
  32              		@ frame_needed = 0, uses_anonymous_args = 0
  33              		@ link register save eliminated.
  75:Drivers/CMSIS/DSP/Source/FastMathFunctions/arm_sin_f32.c ****   float32_t sinVal, fract, in;                           /* Temporary variables for input, output *
  34              		.loc 1 75 3 view .LVU1
  76:Drivers/CMSIS/DSP/Source/FastMathFunctions/arm_sin_f32.c ****   uint16_t index;                                        /* Index variable */
  35              		.loc 1 76 3 view .LVU2
  77:Drivers/CMSIS/DSP/Source/FastMathFunctions/arm_sin_f32.c ****   float32_t a, b;                                        /* Two nearest output values */
  36              		.loc 1 77 3 view .LVU3
  78:Drivers/CMSIS/DSP/Source/FastMathFunctions/arm_sin_f32.c ****   int32_t n;
  37              		.loc 1 78 3 view .LVU4
ARM GAS  /var/folders/n6/c271nzx11xl4r4_m7sqjlt0m0000gn/T//cc0WBP98.s 			page 3


  79:Drivers/CMSIS/DSP/Source/FastMathFunctions/arm_sin_f32.c ****   float32_t findex;
  38              		.loc 1 79 3 view .LVU5
  80:Drivers/CMSIS/DSP/Source/FastMathFunctions/arm_sin_f32.c **** 
  81:Drivers/CMSIS/DSP/Source/FastMathFunctions/arm_sin_f32.c ****   /* Special case for small negative inputs */
  82:Drivers/CMSIS/DSP/Source/FastMathFunctions/arm_sin_f32.c ****   if ((x < 0.0f) && (x >= -1.9e-7f)) {
  39              		.loc 1 82 3 view .LVU6
  40              		.loc 1 82 6 is_stmt 0 view .LVU7
  41 0000 B5EEC00A 		vcmpe.f32	s0, #0
  42 0004 F1EE10FA 		vmrs	APSR_nzcv, FPSCR
  43 0008 33D4     		bmi	.L10
  44              	.L2:
  83:Drivers/CMSIS/DSP/Source/FastMathFunctions/arm_sin_f32.c ****      return x;
  84:Drivers/CMSIS/DSP/Source/FastMathFunctions/arm_sin_f32.c ****   }
  85:Drivers/CMSIS/DSP/Source/FastMathFunctions/arm_sin_f32.c **** 
  86:Drivers/CMSIS/DSP/Source/FastMathFunctions/arm_sin_f32.c ****   /* input x is in radians */
  87:Drivers/CMSIS/DSP/Source/FastMathFunctions/arm_sin_f32.c ****   /* Scale the input to [0 1] range from [0 2*PI] , divide input by 2*pi */
  88:Drivers/CMSIS/DSP/Source/FastMathFunctions/arm_sin_f32.c ****   in = x * 0.159154943092f;
  45              		.loc 1 88 3 is_stmt 1 view .LVU8
  46              		.loc 1 88 6 is_stmt 0 view .LVU9
  47 000a DFED217A 		vldr.32	s15, .L12
  48 000e 60EE277A 		vmul.f32	s15, s0, s15
  49              	.LVL1:
  89:Drivers/CMSIS/DSP/Source/FastMathFunctions/arm_sin_f32.c **** 
  90:Drivers/CMSIS/DSP/Source/FastMathFunctions/arm_sin_f32.c ****   /* Calculation of floor value of input */
  91:Drivers/CMSIS/DSP/Source/FastMathFunctions/arm_sin_f32.c ****   n = (int32_t) in;
  50              		.loc 1 91 3 is_stmt 1 view .LVU10
  51              		.loc 1 91 5 is_stmt 0 view .LVU11
  52 0012 BDEEE77A 		vcvt.s32.f32	s14, s15
  53              	.LVL2:
  92:Drivers/CMSIS/DSP/Source/FastMathFunctions/arm_sin_f32.c **** 
  93:Drivers/CMSIS/DSP/Source/FastMathFunctions/arm_sin_f32.c ****   /* Make negative values towards -infinity */
  94:Drivers/CMSIS/DSP/Source/FastMathFunctions/arm_sin_f32.c ****   if (x < 0.0f)
  54              		.loc 1 94 3 is_stmt 1 view .LVU12
  55              		.loc 1 94 6 is_stmt 0 view .LVU13
  56 0016 B5EEC00A 		vcmpe.f32	s0, #0
  57 001a F1EE10FA 		vmrs	APSR_nzcv, FPSCR
  58 001e 30D4     		bmi	.L11
  59              	.L5:
  95:Drivers/CMSIS/DSP/Source/FastMathFunctions/arm_sin_f32.c ****   {
  96:Drivers/CMSIS/DSP/Source/FastMathFunctions/arm_sin_f32.c ****     n--;
  97:Drivers/CMSIS/DSP/Source/FastMathFunctions/arm_sin_f32.c ****   }
  98:Drivers/CMSIS/DSP/Source/FastMathFunctions/arm_sin_f32.c **** 
  99:Drivers/CMSIS/DSP/Source/FastMathFunctions/arm_sin_f32.c ****   /* Map input value to [0 1] */
 100:Drivers/CMSIS/DSP/Source/FastMathFunctions/arm_sin_f32.c ****   in = in - (float32_t) n;
  60              		.loc 1 100 3 is_stmt 1 view .LVU14
  61              		.loc 1 100 13 is_stmt 0 view .LVU15
  62 0020 B8EEC77A 		vcvt.f32.s32	s14, s14
  63              	.LVL3:
  64              		.loc 1 100 6 view .LVU16
  65 0024 77EEC77A 		vsub.f32	s15, s15, s14
  66              	.LVL4:
 101:Drivers/CMSIS/DSP/Source/FastMathFunctions/arm_sin_f32.c **** 
 102:Drivers/CMSIS/DSP/Source/FastMathFunctions/arm_sin_f32.c ****   /* Calculation of index of the table */
 103:Drivers/CMSIS/DSP/Source/FastMathFunctions/arm_sin_f32.c ****   findex = (float32_t) FAST_MATH_TABLE_SIZE * in;
  67              		.loc 1 103 3 is_stmt 1 view .LVU17
  68              		.loc 1 103 10 is_stmt 0 view .LVU18
  69 0028 9FED1A7A 		vldr.32	s14, .L12+4
ARM GAS  /var/folders/n6/c271nzx11xl4r4_m7sqjlt0m0000gn/T//cc0WBP98.s 			page 4


  70 002c 67EE877A 		vmul.f32	s15, s15, s14
  71              	.LVL5:
 104:Drivers/CMSIS/DSP/Source/FastMathFunctions/arm_sin_f32.c **** 
 105:Drivers/CMSIS/DSP/Source/FastMathFunctions/arm_sin_f32.c ****   index = ((uint16_t)findex) & 0x1ff;
  72              		.loc 1 105 3 is_stmt 1 view .LVU19
  73              		.loc 1 105 12 is_stmt 0 view .LVU20
  74 0030 BCEEE77A 		vcvt.u32.f32	s14, s15
  75 0034 17EE103A 		vmov	r3, s14	@ int
  76              		.loc 1 105 9 view .LVU21
  77 0038 C3F30803 		ubfx	r3, r3, #0, #9
  78              	.LVL6:
 106:Drivers/CMSIS/DSP/Source/FastMathFunctions/arm_sin_f32.c **** 
 107:Drivers/CMSIS/DSP/Source/FastMathFunctions/arm_sin_f32.c ****   /* fractional value calculation */
 108:Drivers/CMSIS/DSP/Source/FastMathFunctions/arm_sin_f32.c ****   fract = findex - (float32_t) index;
  79              		.loc 1 108 3 is_stmt 1 view .LVU22
  80              		.loc 1 108 20 is_stmt 0 view .LVU23
  81 003c 07EE103A 		vmov	s14, r3	@ int
  82 0040 B8EE477A 		vcvt.f32.u32	s14, s14
  83              		.loc 1 108 9 view .LVU24
  84 0044 77EEC77A 		vsub.f32	s15, s15, s14
  85              	.LVL7:
 109:Drivers/CMSIS/DSP/Source/FastMathFunctions/arm_sin_f32.c **** 
 110:Drivers/CMSIS/DSP/Source/FastMathFunctions/arm_sin_f32.c ****   /* Read two nearest values of input value from the sin table */
 111:Drivers/CMSIS/DSP/Source/FastMathFunctions/arm_sin_f32.c ****   a = sinTable_f32[index];
  86              		.loc 1 111 3 is_stmt 1 view .LVU25
  87              		.loc 1 111 5 is_stmt 0 view .LVU26
  88 0048 134A     		ldr	r2, .L12+8
  89 004a 02EB8301 		add	r1, r2, r3, lsl #2
  90 004e D1ED006A 		vldr.32	s13, [r1]
  91              	.LVL8:
 112:Drivers/CMSIS/DSP/Source/FastMathFunctions/arm_sin_f32.c ****   b = sinTable_f32[index+1];
  92              		.loc 1 112 3 is_stmt 1 view .LVU27
  93              		.loc 1 112 25 is_stmt 0 view .LVU28
  94 0052 0133     		adds	r3, r3, #1
  95              	.LVL9:
  96              		.loc 1 112 5 view .LVU29
  97 0054 02EB8302 		add	r2, r2, r3, lsl #2
  98 0058 92ED007A 		vldr.32	s14, [r2]
  99              	.LVL10:
 113:Drivers/CMSIS/DSP/Source/FastMathFunctions/arm_sin_f32.c **** 
 114:Drivers/CMSIS/DSP/Source/FastMathFunctions/arm_sin_f32.c ****   /* Linear interpolation process */
 115:Drivers/CMSIS/DSP/Source/FastMathFunctions/arm_sin_f32.c ****   sinVal = (1.0f-fract)*a + fract*b;
 100              		.loc 1 115 3 is_stmt 1 view .LVU30
 101              		.loc 1 115 17 is_stmt 0 view .LVU31
 102 005c B7EE000A 		vmov.f32	s0, #1.0e+0
 103              	.LVL11:
 104              		.loc 1 115 17 view .LVU32
 105 0060 30EE670A 		vsub.f32	s0, s0, s15
 106              		.loc 1 115 24 view .LVU33
 107 0064 20EE260A 		vmul.f32	s0, s0, s13
 108              		.loc 1 115 34 view .LVU34
 109 0068 67EE877A 		vmul.f32	s15, s15, s14
 110              	.LVL12:
 111              		.loc 1 115 10 view .LVU35
 112 006c 30EE270A 		vadd.f32	s0, s0, s15
 113              	.LVL13:
 116:Drivers/CMSIS/DSP/Source/FastMathFunctions/arm_sin_f32.c **** 
ARM GAS  /var/folders/n6/c271nzx11xl4r4_m7sqjlt0m0000gn/T//cc0WBP98.s 			page 5


 117:Drivers/CMSIS/DSP/Source/FastMathFunctions/arm_sin_f32.c ****   /* Return the output value */
 118:Drivers/CMSIS/DSP/Source/FastMathFunctions/arm_sin_f32.c ****   return (sinVal);
 114              		.loc 1 118 3 is_stmt 1 view .LVU36
 115              	.L1:
 119:Drivers/CMSIS/DSP/Source/FastMathFunctions/arm_sin_f32.c **** }
 116              		.loc 1 119 1 is_stmt 0 view .LVU37
 117 0070 7047     		bx	lr
 118              	.LVL14:
 119              	.L10:
  82:Drivers/CMSIS/DSP/Source/FastMathFunctions/arm_sin_f32.c ****      return x;
 120              		.loc 1 82 18 discriminator 1 view .LVU38
 121 0072 DFED0A7A 		vldr.32	s15, .L12+12
 122 0076 B4EEE70A 		vcmpe.f32	s0, s15
 123 007a F1EE10FA 		vmrs	APSR_nzcv, FPSCR
 124 007e C4DB     		blt	.L2
 125 0080 F6E7     		b	.L1
 126              	.LVL15:
 127              	.L11:
  96:Drivers/CMSIS/DSP/Source/FastMathFunctions/arm_sin_f32.c ****   }
 128              		.loc 1 96 5 is_stmt 1 view .LVU39
  96:Drivers/CMSIS/DSP/Source/FastMathFunctions/arm_sin_f32.c ****   }
 129              		.loc 1 96 6 is_stmt 0 view .LVU40
 130 0082 17EE103A 		vmov	r3, s14	@ int
 131 0086 013B     		subs	r3, r3, #1
 132 0088 07EE103A 		vmov	s14, r3	@ int
 133              	.LVL16:
  96:Drivers/CMSIS/DSP/Source/FastMathFunctions/arm_sin_f32.c ****   }
 134              		.loc 1 96 6 view .LVU41
 135 008c C8E7     		b	.L5
 136              	.L13:
 137 008e 00BF     		.align	2
 138              	.L12:
 139 0090 83F9223E 		.word	1042479491
 140 0094 00000044 		.word	1140850688
 141 0098 00000000 		.word	sinTable_f32
 142 009c CD024CB4 		.word	-1270086963
 143              		.cfi_endproc
 144              	.LFE135:
 146              		.text
 147              	.Letext0:
 148              		.file 2 "/Users/killian/Library/Application Support/Code/User/globalStorage/bmd.stm32-for-vscode/@
 149              		.file 3 "/Users/killian/Library/Application Support/Code/User/globalStorage/bmd.stm32-for-vscode/@
 150              		.file 4 "Drivers/CMSIS/DSP/Include/arm_math.h"
 151              		.file 5 "Drivers/CMSIS/DSP/Include/arm_common_tables.h"
ARM GAS  /var/folders/n6/c271nzx11xl4r4_m7sqjlt0m0000gn/T//cc0WBP98.s 			page 6


DEFINED SYMBOLS
                            *ABS*:00000000 arm_sin_f32.c
/var/folders/n6/c271nzx11xl4r4_m7sqjlt0m0000gn/T//cc0WBP98.s:20     .text.arm_sin_f32:00000000 $t
/var/folders/n6/c271nzx11xl4r4_m7sqjlt0m0000gn/T//cc0WBP98.s:26     .text.arm_sin_f32:00000000 arm_sin_f32
/var/folders/n6/c271nzx11xl4r4_m7sqjlt0m0000gn/T//cc0WBP98.s:139    .text.arm_sin_f32:00000090 $d

UNDEFINED SYMBOLS
sinTable_f32
