ARM GAS  /var/folders/n6/c271nzx11xl4r4_m7sqjlt0m0000gn/T//ccBkBZOS.s 			page 1


   1              		.cpu cortex-m7
   2              		.arch armv7e-m
   3              		.fpu fpv5-d16
   4              		.eabi_attribute 28, 1
   5              		.eabi_attribute 20, 1
   6              		.eabi_attribute 21, 1
   7              		.eabi_attribute 23, 3
   8              		.eabi_attribute 24, 1
   9              		.eabi_attribute 25, 1
  10              		.eabi_attribute 26, 1
  11              		.eabi_attribute 30, 1
  12              		.eabi_attribute 34, 1
  13              		.eabi_attribute 18, 4
  14              		.file	"arm_q31_to_q7.c"
  15              		.text
  16              	.Ltext0:
  17              		.cfi_sections	.debug_frame
  18              		.file 1 "Drivers/CMSIS/DSP/Source/SupportFunctions/arm_q31_to_q7.c"
  19              		.section	.text.arm_q31_to_q7,"ax",%progbits
  20              		.align	1
  21              		.global	arm_q31_to_q7
  22              		.syntax unified
  23              		.thumb
  24              		.thumb_func
  26              	arm_q31_to_q7:
  27              	.LVL0:
  28              	.LFB135:
   1:Drivers/CMSIS/DSP/Source/SupportFunctions/arm_q31_to_q7.c **** /* ----------------------------------------------------------------------
   2:Drivers/CMSIS/DSP/Source/SupportFunctions/arm_q31_to_q7.c ****  * Project:      CMSIS DSP Library
   3:Drivers/CMSIS/DSP/Source/SupportFunctions/arm_q31_to_q7.c ****  * Title:        arm_q31_to_q7.c
   4:Drivers/CMSIS/DSP/Source/SupportFunctions/arm_q31_to_q7.c ****  * Description:  Converts the elements of the Q31 vector to Q7 vector
   5:Drivers/CMSIS/DSP/Source/SupportFunctions/arm_q31_to_q7.c ****  *
   6:Drivers/CMSIS/DSP/Source/SupportFunctions/arm_q31_to_q7.c ****  * $Date:        27. January 2017
   7:Drivers/CMSIS/DSP/Source/SupportFunctions/arm_q31_to_q7.c ****  * $Revision:    V.1.5.1
   8:Drivers/CMSIS/DSP/Source/SupportFunctions/arm_q31_to_q7.c ****  *
   9:Drivers/CMSIS/DSP/Source/SupportFunctions/arm_q31_to_q7.c ****  * Target Processor: Cortex-M cores
  10:Drivers/CMSIS/DSP/Source/SupportFunctions/arm_q31_to_q7.c ****  * -------------------------------------------------------------------- */
  11:Drivers/CMSIS/DSP/Source/SupportFunctions/arm_q31_to_q7.c **** /*
  12:Drivers/CMSIS/DSP/Source/SupportFunctions/arm_q31_to_q7.c ****  * Copyright (C) 2010-2017 ARM Limited or its affiliates. All rights reserved.
  13:Drivers/CMSIS/DSP/Source/SupportFunctions/arm_q31_to_q7.c ****  *
  14:Drivers/CMSIS/DSP/Source/SupportFunctions/arm_q31_to_q7.c ****  * SPDX-License-Identifier: Apache-2.0
  15:Drivers/CMSIS/DSP/Source/SupportFunctions/arm_q31_to_q7.c ****  *
  16:Drivers/CMSIS/DSP/Source/SupportFunctions/arm_q31_to_q7.c ****  * Licensed under the Apache License, Version 2.0 (the License); you may
  17:Drivers/CMSIS/DSP/Source/SupportFunctions/arm_q31_to_q7.c ****  * not use this file except in compliance with the License.
  18:Drivers/CMSIS/DSP/Source/SupportFunctions/arm_q31_to_q7.c ****  * You may obtain a copy of the License at
  19:Drivers/CMSIS/DSP/Source/SupportFunctions/arm_q31_to_q7.c ****  *
  20:Drivers/CMSIS/DSP/Source/SupportFunctions/arm_q31_to_q7.c ****  * www.apache.org/licenses/LICENSE-2.0
  21:Drivers/CMSIS/DSP/Source/SupportFunctions/arm_q31_to_q7.c ****  *
  22:Drivers/CMSIS/DSP/Source/SupportFunctions/arm_q31_to_q7.c ****  * Unless required by applicable law or agreed to in writing, software
  23:Drivers/CMSIS/DSP/Source/SupportFunctions/arm_q31_to_q7.c ****  * distributed under the License is distributed on an AS IS BASIS, WITHOUT
  24:Drivers/CMSIS/DSP/Source/SupportFunctions/arm_q31_to_q7.c ****  * WARRANTIES OR CONDITIONS OF ANY KIND, either express or implied.
  25:Drivers/CMSIS/DSP/Source/SupportFunctions/arm_q31_to_q7.c ****  * See the License for the specific language governing permissions and
  26:Drivers/CMSIS/DSP/Source/SupportFunctions/arm_q31_to_q7.c ****  * limitations under the License.
  27:Drivers/CMSIS/DSP/Source/SupportFunctions/arm_q31_to_q7.c ****  */
  28:Drivers/CMSIS/DSP/Source/SupportFunctions/arm_q31_to_q7.c **** 
  29:Drivers/CMSIS/DSP/Source/SupportFunctions/arm_q31_to_q7.c **** #include "arm_math.h"
  30:Drivers/CMSIS/DSP/Source/SupportFunctions/arm_q31_to_q7.c **** 
ARM GAS  /var/folders/n6/c271nzx11xl4r4_m7sqjlt0m0000gn/T//ccBkBZOS.s 			page 2


  31:Drivers/CMSIS/DSP/Source/SupportFunctions/arm_q31_to_q7.c **** /**
  32:Drivers/CMSIS/DSP/Source/SupportFunctions/arm_q31_to_q7.c ****  * @ingroup groupSupport
  33:Drivers/CMSIS/DSP/Source/SupportFunctions/arm_q31_to_q7.c ****  */
  34:Drivers/CMSIS/DSP/Source/SupportFunctions/arm_q31_to_q7.c **** 
  35:Drivers/CMSIS/DSP/Source/SupportFunctions/arm_q31_to_q7.c **** /**
  36:Drivers/CMSIS/DSP/Source/SupportFunctions/arm_q31_to_q7.c ****  * @addtogroup q31_to_x
  37:Drivers/CMSIS/DSP/Source/SupportFunctions/arm_q31_to_q7.c ****  * @{
  38:Drivers/CMSIS/DSP/Source/SupportFunctions/arm_q31_to_q7.c ****  */
  39:Drivers/CMSIS/DSP/Source/SupportFunctions/arm_q31_to_q7.c **** 
  40:Drivers/CMSIS/DSP/Source/SupportFunctions/arm_q31_to_q7.c **** /**
  41:Drivers/CMSIS/DSP/Source/SupportFunctions/arm_q31_to_q7.c ****  * @brief Converts the elements of the Q31 vector to Q7 vector.
  42:Drivers/CMSIS/DSP/Source/SupportFunctions/arm_q31_to_q7.c ****  * @param[in]       *pSrc points to the Q31 input vector
  43:Drivers/CMSIS/DSP/Source/SupportFunctions/arm_q31_to_q7.c ****  * @param[out]      *pDst points to the Q7 output vector
  44:Drivers/CMSIS/DSP/Source/SupportFunctions/arm_q31_to_q7.c ****  * @param[in]       blockSize length of the input vector
  45:Drivers/CMSIS/DSP/Source/SupportFunctions/arm_q31_to_q7.c ****  * @return none.
  46:Drivers/CMSIS/DSP/Source/SupportFunctions/arm_q31_to_q7.c ****  *
  47:Drivers/CMSIS/DSP/Source/SupportFunctions/arm_q31_to_q7.c ****  * \par Description:
  48:Drivers/CMSIS/DSP/Source/SupportFunctions/arm_q31_to_q7.c ****  *
  49:Drivers/CMSIS/DSP/Source/SupportFunctions/arm_q31_to_q7.c ****  * The equation used for the conversion process is:
  50:Drivers/CMSIS/DSP/Source/SupportFunctions/arm_q31_to_q7.c ****  *
  51:Drivers/CMSIS/DSP/Source/SupportFunctions/arm_q31_to_q7.c ****  * <pre>
  52:Drivers/CMSIS/DSP/Source/SupportFunctions/arm_q31_to_q7.c ****  * 	pDst[n] = (q7_t) pSrc[n] >> 24;   0 <= n < blockSize.
  53:Drivers/CMSIS/DSP/Source/SupportFunctions/arm_q31_to_q7.c ****  * </pre>
  54:Drivers/CMSIS/DSP/Source/SupportFunctions/arm_q31_to_q7.c ****  *
  55:Drivers/CMSIS/DSP/Source/SupportFunctions/arm_q31_to_q7.c ****  */
  56:Drivers/CMSIS/DSP/Source/SupportFunctions/arm_q31_to_q7.c **** 
  57:Drivers/CMSIS/DSP/Source/SupportFunctions/arm_q31_to_q7.c **** 
  58:Drivers/CMSIS/DSP/Source/SupportFunctions/arm_q31_to_q7.c **** void arm_q31_to_q7(
  59:Drivers/CMSIS/DSP/Source/SupportFunctions/arm_q31_to_q7.c ****   q31_t * pSrc,
  60:Drivers/CMSIS/DSP/Source/SupportFunctions/arm_q31_to_q7.c ****   q7_t * pDst,
  61:Drivers/CMSIS/DSP/Source/SupportFunctions/arm_q31_to_q7.c ****   uint32_t blockSize)
  62:Drivers/CMSIS/DSP/Source/SupportFunctions/arm_q31_to_q7.c **** {
  29              		.loc 1 62 1 view -0
  30              		.cfi_startproc
  31              		@ args = 0, pretend = 0, frame = 0
  32              		@ frame_needed = 0, uses_anonymous_args = 0
  33              		.loc 1 62 1 is_stmt 0 view .LVU1
  34 0000 30B5     		push	{r4, r5, lr}
  35              		.cfi_def_cfa_offset 12
  36              		.cfi_offset 4, -12
  37              		.cfi_offset 5, -8
  38              		.cfi_offset 14, -4
  63:Drivers/CMSIS/DSP/Source/SupportFunctions/arm_q31_to_q7.c ****   q31_t *pIn = pSrc;                             /* Src pointer */
  39              		.loc 1 63 3 is_stmt 1 view .LVU2
  40              	.LVL1:
  64:Drivers/CMSIS/DSP/Source/SupportFunctions/arm_q31_to_q7.c ****   uint32_t blkCnt;                               /* loop counter */
  41              		.loc 1 64 3 view .LVU3
  65:Drivers/CMSIS/DSP/Source/SupportFunctions/arm_q31_to_q7.c **** 
  66:Drivers/CMSIS/DSP/Source/SupportFunctions/arm_q31_to_q7.c **** #if defined (ARM_MATH_DSP)
  67:Drivers/CMSIS/DSP/Source/SupportFunctions/arm_q31_to_q7.c **** 
  68:Drivers/CMSIS/DSP/Source/SupportFunctions/arm_q31_to_q7.c ****   /* Run the below code for Cortex-M4 and Cortex-M3 */
  69:Drivers/CMSIS/DSP/Source/SupportFunctions/arm_q31_to_q7.c ****   q31_t in1, in2, in3, in4;
  42              		.loc 1 69 3 view .LVU4
  70:Drivers/CMSIS/DSP/Source/SupportFunctions/arm_q31_to_q7.c ****   q7_t out1, out2, out3, out4;
  43              		.loc 1 70 3 view .LVU5
  71:Drivers/CMSIS/DSP/Source/SupportFunctions/arm_q31_to_q7.c **** 
  72:Drivers/CMSIS/DSP/Source/SupportFunctions/arm_q31_to_q7.c ****   /*loop Unrolling */
ARM GAS  /var/folders/n6/c271nzx11xl4r4_m7sqjlt0m0000gn/T//ccBkBZOS.s 			page 3


  73:Drivers/CMSIS/DSP/Source/SupportFunctions/arm_q31_to_q7.c ****   blkCnt = blockSize >> 2U;
  44              		.loc 1 73 3 view .LVU6
  45              		.loc 1 73 10 is_stmt 0 view .LVU7
  46 0002 9408     		lsrs	r4, r2, #2
  47              	.LVL2:
  74:Drivers/CMSIS/DSP/Source/SupportFunctions/arm_q31_to_q7.c **** 
  75:Drivers/CMSIS/DSP/Source/SupportFunctions/arm_q31_to_q7.c ****   /* First part of the processing with loop unrolling.  Compute 4 outputs at a time.
  76:Drivers/CMSIS/DSP/Source/SupportFunctions/arm_q31_to_q7.c ****    ** a second loop below computes the remaining 1 to 3 samples. */
  77:Drivers/CMSIS/DSP/Source/SupportFunctions/arm_q31_to_q7.c ****   while (blkCnt > 0U)
  48              		.loc 1 77 3 is_stmt 1 view .LVU8
  49              		.loc 1 77 9 is_stmt 0 view .LVU9
  50 0004 1BE0     		b	.L2
  51              	.LVL3:
  52              	.L3:
  78:Drivers/CMSIS/DSP/Source/SupportFunctions/arm_q31_to_q7.c ****   {
  79:Drivers/CMSIS/DSP/Source/SupportFunctions/arm_q31_to_q7.c ****     /* C = (q7_t) A >> 24 */
  80:Drivers/CMSIS/DSP/Source/SupportFunctions/arm_q31_to_q7.c ****     /* convert from q31 to q7 and then store the results in the destination buffer */
  81:Drivers/CMSIS/DSP/Source/SupportFunctions/arm_q31_to_q7.c ****     in1 = *pIn++;
  53              		.loc 1 81 5 is_stmt 1 view .LVU10
  82:Drivers/CMSIS/DSP/Source/SupportFunctions/arm_q31_to_q7.c ****     in2 = *pIn++;
  54              		.loc 1 82 5 view .LVU11
  83:Drivers/CMSIS/DSP/Source/SupportFunctions/arm_q31_to_q7.c ****     in3 = *pIn++;
  55              		.loc 1 83 5 view .LVU12
  84:Drivers/CMSIS/DSP/Source/SupportFunctions/arm_q31_to_q7.c ****     in4 = *pIn++;
  56              		.loc 1 84 5 view .LVU13
  85:Drivers/CMSIS/DSP/Source/SupportFunctions/arm_q31_to_q7.c **** 
  86:Drivers/CMSIS/DSP/Source/SupportFunctions/arm_q31_to_q7.c ****     out1 = (q7_t) (in1 >> 24);
  57              		.loc 1 86 5 view .LVU14
  58              		.loc 1 86 10 is_stmt 0 view .LVU15
  59 0006 90F90330 		ldrsb	r3, [r0, #3]
  60              	.LVL4:
  87:Drivers/CMSIS/DSP/Source/SupportFunctions/arm_q31_to_q7.c ****     out2 = (q7_t) (in2 >> 24);
  61              		.loc 1 87 5 is_stmt 1 view .LVU16
  62              		.loc 1 87 10 is_stmt 0 view .LVU17
  63 000a 90F907E0 		ldrsb	lr, [r0, #7]
  64              	.LVL5:
  88:Drivers/CMSIS/DSP/Source/SupportFunctions/arm_q31_to_q7.c ****     out3 = (q7_t) (in3 >> 24);
  65              		.loc 1 88 5 is_stmt 1 view .LVU18
  66              		.loc 1 88 10 is_stmt 0 view .LVU19
  67 000e 90F90BC0 		ldrsb	ip, [r0, #11]
  68              	.LVL6:
  89:Drivers/CMSIS/DSP/Source/SupportFunctions/arm_q31_to_q7.c ****     out4 = (q7_t) (in4 >> 24);
  69              		.loc 1 89 5 is_stmt 1 view .LVU20
  90:Drivers/CMSIS/DSP/Source/SupportFunctions/arm_q31_to_q7.c **** 
  91:Drivers/CMSIS/DSP/Source/SupportFunctions/arm_q31_to_q7.c ****     *__SIMD32(pDst)++ = __PACKq7(out1, out2, out3, out4);
  70              		.loc 1 91 5 view .LVU21
  71              		.loc 1 91 25 is_stmt 0 view .LVU22
  72 0012 DBB2     		uxtb	r3, r3
  73              		.loc 1 91 25 view .LVU23
  74 0014 4FEA0E2E 		lsl	lr, lr, #8
  75              	.LVL7:
  76              		.loc 1 91 25 view .LVU24
  77 0018 1FFA8EFE 		uxth	lr, lr
  78 001c 43EA0E03 		orr	r3, r3, lr
  79              	.LVL8:
  80              		.loc 1 91 25 view .LVU25
  81 0020 4FEA0C4C 		lsl	ip, ip, #16
ARM GAS  /var/folders/n6/c271nzx11xl4r4_m7sqjlt0m0000gn/T//ccBkBZOS.s 			page 4


  82              	.LVL9:
  83              		.loc 1 91 25 view .LVU26
  84 0024 0CF47F0C 		and	ip, ip, #16711680
  85 0028 43EA0C03 		orr	r3, r3, ip
  86 002c C568     		ldr	r5, [r0, #12]
  87 002e 05F07F4C 		and	ip, r5, #-16777216
  88              	.LVL10:
  89              		.loc 1 91 25 view .LVU27
  90 0032 43EA0C03 		orr	r3, r3, ip
  91              		.loc 1 91 23 view .LVU28
  92 0036 41F8043B 		str	r3, [r1], #4
  93              	.LVL11:
  92:Drivers/CMSIS/DSP/Source/SupportFunctions/arm_q31_to_q7.c **** 
  93:Drivers/CMSIS/DSP/Source/SupportFunctions/arm_q31_to_q7.c ****     /* Decrement the loop counter */
  94:Drivers/CMSIS/DSP/Source/SupportFunctions/arm_q31_to_q7.c ****     blkCnt--;
  94              		.loc 1 94 5 is_stmt 1 view .LVU29
  95              		.loc 1 94 11 is_stmt 0 view .LVU30
  96 003a 013C     		subs	r4, r4, #1
  97              	.LVL12:
  84:Drivers/CMSIS/DSP/Source/SupportFunctions/arm_q31_to_q7.c **** 
  98              		.loc 1 84 15 view .LVU31
  99 003c 1030     		adds	r0, r0, #16
 100              	.LVL13:
 101              	.L2:
  77:Drivers/CMSIS/DSP/Source/SupportFunctions/arm_q31_to_q7.c ****   {
 102              		.loc 1 77 17 is_stmt 1 view .LVU32
 103 003e 002C     		cmp	r4, #0
 104 0040 E1D1     		bne	.L3
  95:Drivers/CMSIS/DSP/Source/SupportFunctions/arm_q31_to_q7.c ****   }
  96:Drivers/CMSIS/DSP/Source/SupportFunctions/arm_q31_to_q7.c **** 
  97:Drivers/CMSIS/DSP/Source/SupportFunctions/arm_q31_to_q7.c ****   /* If the blockSize is not a multiple of 4, compute any remaining output samples here.
  98:Drivers/CMSIS/DSP/Source/SupportFunctions/arm_q31_to_q7.c ****    ** No loop unrolling is used. */
  99:Drivers/CMSIS/DSP/Source/SupportFunctions/arm_q31_to_q7.c ****   blkCnt = blockSize % 0x4U;
 105              		.loc 1 99 3 view .LVU33
 106              		.loc 1 99 10 is_stmt 0 view .LVU34
 107 0042 02F00302 		and	r2, r2, #3
 108              	.LVL14:
 100:Drivers/CMSIS/DSP/Source/SupportFunctions/arm_q31_to_q7.c **** 
 101:Drivers/CMSIS/DSP/Source/SupportFunctions/arm_q31_to_q7.c **** #else
 102:Drivers/CMSIS/DSP/Source/SupportFunctions/arm_q31_to_q7.c **** 
 103:Drivers/CMSIS/DSP/Source/SupportFunctions/arm_q31_to_q7.c ****   /* Run the below code for Cortex-M0 */
 104:Drivers/CMSIS/DSP/Source/SupportFunctions/arm_q31_to_q7.c **** 
 105:Drivers/CMSIS/DSP/Source/SupportFunctions/arm_q31_to_q7.c ****   /* Loop over blockSize number of values */
 106:Drivers/CMSIS/DSP/Source/SupportFunctions/arm_q31_to_q7.c ****   blkCnt = blockSize;
 107:Drivers/CMSIS/DSP/Source/SupportFunctions/arm_q31_to_q7.c **** 
 108:Drivers/CMSIS/DSP/Source/SupportFunctions/arm_q31_to_q7.c **** #endif /* #if defined (ARM_MATH_DSP) */
 109:Drivers/CMSIS/DSP/Source/SupportFunctions/arm_q31_to_q7.c **** 
 110:Drivers/CMSIS/DSP/Source/SupportFunctions/arm_q31_to_q7.c ****   while (blkCnt > 0U)
 109              		.loc 1 110 3 is_stmt 1 view .LVU35
 110              		.loc 1 110 9 is_stmt 0 view .LVU36
 111 0046 05E0     		b	.L4
 112              	.L5:
 111:Drivers/CMSIS/DSP/Source/SupportFunctions/arm_q31_to_q7.c ****   {
 112:Drivers/CMSIS/DSP/Source/SupportFunctions/arm_q31_to_q7.c ****     /* C = (q7_t) A >> 24 */
 113:Drivers/CMSIS/DSP/Source/SupportFunctions/arm_q31_to_q7.c ****     /* convert from q31 to q7 and then store the results in the destination buffer */
 114:Drivers/CMSIS/DSP/Source/SupportFunctions/arm_q31_to_q7.c ****     *pDst++ = (q7_t) (*pIn++ >> 24);
 113              		.loc 1 114 5 is_stmt 1 view .LVU37
ARM GAS  /var/folders/n6/c271nzx11xl4r4_m7sqjlt0m0000gn/T//ccBkBZOS.s 			page 5


 114              	.LVL15:
 115              		.loc 1 114 23 is_stmt 0 view .LVU38
 116 0048 50F8043B 		ldr	r3, [r0], #4
 117              	.LVL16:
 118              		.loc 1 114 15 view .LVU39
 119 004c 1B16     		asrs	r3, r3, #24
 120              		.loc 1 114 13 view .LVU40
 121 004e 01F8013B 		strb	r3, [r1], #1
 122              	.LVL17:
 115:Drivers/CMSIS/DSP/Source/SupportFunctions/arm_q31_to_q7.c **** 
 116:Drivers/CMSIS/DSP/Source/SupportFunctions/arm_q31_to_q7.c ****     /* Decrement the loop counter */
 117:Drivers/CMSIS/DSP/Source/SupportFunctions/arm_q31_to_q7.c ****     blkCnt--;
 123              		.loc 1 117 5 is_stmt 1 view .LVU41
 124              		.loc 1 117 11 is_stmt 0 view .LVU42
 125 0052 013A     		subs	r2, r2, #1
 126              	.LVL18:
 127              	.L4:
 110:Drivers/CMSIS/DSP/Source/SupportFunctions/arm_q31_to_q7.c ****   {
 128              		.loc 1 110 17 is_stmt 1 view .LVU43
 129 0054 002A     		cmp	r2, #0
 130 0056 F7D1     		bne	.L5
 118:Drivers/CMSIS/DSP/Source/SupportFunctions/arm_q31_to_q7.c ****   }
 119:Drivers/CMSIS/DSP/Source/SupportFunctions/arm_q31_to_q7.c **** 
 120:Drivers/CMSIS/DSP/Source/SupportFunctions/arm_q31_to_q7.c **** }
 131              		.loc 1 120 1 is_stmt 0 view .LVU44
 132 0058 30BD     		pop	{r4, r5, pc}
 133              		.cfi_endproc
 134              	.LFE135:
 136              		.text
 137              	.Letext0:
 138              		.file 2 "/Users/killian/Library/Application Support/Code/User/globalStorage/bmd.stm32-for-vscode/@
 139              		.file 3 "/Users/killian/Library/Application Support/Code/User/globalStorage/bmd.stm32-for-vscode/@
 140              		.file 4 "Drivers/CMSIS/DSP/Include/arm_math.h"
ARM GAS  /var/folders/n6/c271nzx11xl4r4_m7sqjlt0m0000gn/T//ccBkBZOS.s 			page 6


DEFINED SYMBOLS
                            *ABS*:00000000 arm_q31_to_q7.c
/var/folders/n6/c271nzx11xl4r4_m7sqjlt0m0000gn/T//ccBkBZOS.s:20     .text.arm_q31_to_q7:00000000 $t
/var/folders/n6/c271nzx11xl4r4_m7sqjlt0m0000gn/T//ccBkBZOS.s:26     .text.arm_q31_to_q7:00000000 arm_q31_to_q7

NO UNDEFINED SYMBOLS
