ARM GAS  /var/folders/n6/c271nzx11xl4r4_m7sqjlt0m0000gn/T//ccLWZn9u.s 			page 1


   1              		.cpu cortex-m7
   2              		.arch armv7e-m
   3              		.fpu fpv5-d16
   4              		.eabi_attribute 28, 1
   5              		.eabi_attribute 20, 1
   6              		.eabi_attribute 21, 1
   7              		.eabi_attribute 23, 3
   8              		.eabi_attribute 24, 1
   9              		.eabi_attribute 25, 1
  10              		.eabi_attribute 26, 1
  11              		.eabi_attribute 30, 1
  12              		.eabi_attribute 34, 1
  13              		.eabi_attribute 18, 4
  14              		.file	"arm_cmplx_mult_real_q15.c"
  15              		.text
  16              	.Ltext0:
  17              		.cfi_sections	.debug_frame
  18              		.file 1 "Drivers/CMSIS/DSP/Source/ComplexMathFunctions/arm_cmplx_mult_real_q15.c"
  19              		.section	.text.arm_cmplx_mult_real_q15,"ax",%progbits
  20              		.align	1
  21              		.global	arm_cmplx_mult_real_q15
  22              		.syntax unified
  23              		.thumb
  24              		.thumb_func
  26              	arm_cmplx_mult_real_q15:
  27              	.LVL0:
  28              	.LFB135:
   1:Drivers/CMSIS/DSP/Source/ComplexMathFunctions/arm_cmplx_mult_real_q15.c **** /* ----------------------------------------------------------------------
   2:Drivers/CMSIS/DSP/Source/ComplexMathFunctions/arm_cmplx_mult_real_q15.c ****  * Project:      CMSIS DSP Library
   3:Drivers/CMSIS/DSP/Source/ComplexMathFunctions/arm_cmplx_mult_real_q15.c ****  * Title:        arm_cmplx_mult_real_q15.c
   4:Drivers/CMSIS/DSP/Source/ComplexMathFunctions/arm_cmplx_mult_real_q15.c ****  * Description:  Q15 complex by real multiplication
   5:Drivers/CMSIS/DSP/Source/ComplexMathFunctions/arm_cmplx_mult_real_q15.c ****  *
   6:Drivers/CMSIS/DSP/Source/ComplexMathFunctions/arm_cmplx_mult_real_q15.c ****  * $Date:        27. January 2017
   7:Drivers/CMSIS/DSP/Source/ComplexMathFunctions/arm_cmplx_mult_real_q15.c ****  * $Revision:    V.1.5.1
   8:Drivers/CMSIS/DSP/Source/ComplexMathFunctions/arm_cmplx_mult_real_q15.c ****  *
   9:Drivers/CMSIS/DSP/Source/ComplexMathFunctions/arm_cmplx_mult_real_q15.c ****  * Target Processor: Cortex-M cores
  10:Drivers/CMSIS/DSP/Source/ComplexMathFunctions/arm_cmplx_mult_real_q15.c ****  * -------------------------------------------------------------------- */
  11:Drivers/CMSIS/DSP/Source/ComplexMathFunctions/arm_cmplx_mult_real_q15.c **** /*
  12:Drivers/CMSIS/DSP/Source/ComplexMathFunctions/arm_cmplx_mult_real_q15.c ****  * Copyright (C) 2010-2017 ARM Limited or its affiliates. All rights reserved.
  13:Drivers/CMSIS/DSP/Source/ComplexMathFunctions/arm_cmplx_mult_real_q15.c ****  *
  14:Drivers/CMSIS/DSP/Source/ComplexMathFunctions/arm_cmplx_mult_real_q15.c ****  * SPDX-License-Identifier: Apache-2.0
  15:Drivers/CMSIS/DSP/Source/ComplexMathFunctions/arm_cmplx_mult_real_q15.c ****  *
  16:Drivers/CMSIS/DSP/Source/ComplexMathFunctions/arm_cmplx_mult_real_q15.c ****  * Licensed under the Apache License, Version 2.0 (the License); you may
  17:Drivers/CMSIS/DSP/Source/ComplexMathFunctions/arm_cmplx_mult_real_q15.c ****  * not use this file except in compliance with the License.
  18:Drivers/CMSIS/DSP/Source/ComplexMathFunctions/arm_cmplx_mult_real_q15.c ****  * You may obtain a copy of the License at
  19:Drivers/CMSIS/DSP/Source/ComplexMathFunctions/arm_cmplx_mult_real_q15.c ****  *
  20:Drivers/CMSIS/DSP/Source/ComplexMathFunctions/arm_cmplx_mult_real_q15.c ****  * www.apache.org/licenses/LICENSE-2.0
  21:Drivers/CMSIS/DSP/Source/ComplexMathFunctions/arm_cmplx_mult_real_q15.c ****  *
  22:Drivers/CMSIS/DSP/Source/ComplexMathFunctions/arm_cmplx_mult_real_q15.c ****  * Unless required by applicable law or agreed to in writing, software
  23:Drivers/CMSIS/DSP/Source/ComplexMathFunctions/arm_cmplx_mult_real_q15.c ****  * distributed under the License is distributed on an AS IS BASIS, WITHOUT
  24:Drivers/CMSIS/DSP/Source/ComplexMathFunctions/arm_cmplx_mult_real_q15.c ****  * WARRANTIES OR CONDITIONS OF ANY KIND, either express or implied.
  25:Drivers/CMSIS/DSP/Source/ComplexMathFunctions/arm_cmplx_mult_real_q15.c ****  * See the License for the specific language governing permissions and
  26:Drivers/CMSIS/DSP/Source/ComplexMathFunctions/arm_cmplx_mult_real_q15.c ****  * limitations under the License.
  27:Drivers/CMSIS/DSP/Source/ComplexMathFunctions/arm_cmplx_mult_real_q15.c ****  */
  28:Drivers/CMSIS/DSP/Source/ComplexMathFunctions/arm_cmplx_mult_real_q15.c **** 
  29:Drivers/CMSIS/DSP/Source/ComplexMathFunctions/arm_cmplx_mult_real_q15.c **** #include "arm_math.h"
  30:Drivers/CMSIS/DSP/Source/ComplexMathFunctions/arm_cmplx_mult_real_q15.c **** 
ARM GAS  /var/folders/n6/c271nzx11xl4r4_m7sqjlt0m0000gn/T//ccLWZn9u.s 			page 2


  31:Drivers/CMSIS/DSP/Source/ComplexMathFunctions/arm_cmplx_mult_real_q15.c **** /**
  32:Drivers/CMSIS/DSP/Source/ComplexMathFunctions/arm_cmplx_mult_real_q15.c ****  * @ingroup groupCmplxMath
  33:Drivers/CMSIS/DSP/Source/ComplexMathFunctions/arm_cmplx_mult_real_q15.c ****  */
  34:Drivers/CMSIS/DSP/Source/ComplexMathFunctions/arm_cmplx_mult_real_q15.c **** 
  35:Drivers/CMSIS/DSP/Source/ComplexMathFunctions/arm_cmplx_mult_real_q15.c **** /**
  36:Drivers/CMSIS/DSP/Source/ComplexMathFunctions/arm_cmplx_mult_real_q15.c ****  * @addtogroup CmplxByRealMult
  37:Drivers/CMSIS/DSP/Source/ComplexMathFunctions/arm_cmplx_mult_real_q15.c ****  * @{
  38:Drivers/CMSIS/DSP/Source/ComplexMathFunctions/arm_cmplx_mult_real_q15.c ****  */
  39:Drivers/CMSIS/DSP/Source/ComplexMathFunctions/arm_cmplx_mult_real_q15.c **** 
  40:Drivers/CMSIS/DSP/Source/ComplexMathFunctions/arm_cmplx_mult_real_q15.c **** 
  41:Drivers/CMSIS/DSP/Source/ComplexMathFunctions/arm_cmplx_mult_real_q15.c **** /**
  42:Drivers/CMSIS/DSP/Source/ComplexMathFunctions/arm_cmplx_mult_real_q15.c ****  * @brief  Q15 complex-by-real multiplication
  43:Drivers/CMSIS/DSP/Source/ComplexMathFunctions/arm_cmplx_mult_real_q15.c ****  * @param[in]  *pSrcCmplx points to the complex input vector
  44:Drivers/CMSIS/DSP/Source/ComplexMathFunctions/arm_cmplx_mult_real_q15.c ****  * @param[in]  *pSrcReal points to the real input vector
  45:Drivers/CMSIS/DSP/Source/ComplexMathFunctions/arm_cmplx_mult_real_q15.c ****  * @param[out]  *pCmplxDst points to the complex output vector
  46:Drivers/CMSIS/DSP/Source/ComplexMathFunctions/arm_cmplx_mult_real_q15.c ****  * @param[in]  numSamples number of samples in each vector
  47:Drivers/CMSIS/DSP/Source/ComplexMathFunctions/arm_cmplx_mult_real_q15.c ****  * @return none.
  48:Drivers/CMSIS/DSP/Source/ComplexMathFunctions/arm_cmplx_mult_real_q15.c ****  *
  49:Drivers/CMSIS/DSP/Source/ComplexMathFunctions/arm_cmplx_mult_real_q15.c ****  * <b>Scaling and Overflow Behavior:</b>
  50:Drivers/CMSIS/DSP/Source/ComplexMathFunctions/arm_cmplx_mult_real_q15.c ****  * \par
  51:Drivers/CMSIS/DSP/Source/ComplexMathFunctions/arm_cmplx_mult_real_q15.c ****  * The function uses saturating arithmetic.
  52:Drivers/CMSIS/DSP/Source/ComplexMathFunctions/arm_cmplx_mult_real_q15.c ****  * Results outside of the allowable Q15 range [0x8000 0x7FFF] will be saturated.
  53:Drivers/CMSIS/DSP/Source/ComplexMathFunctions/arm_cmplx_mult_real_q15.c ****  */
  54:Drivers/CMSIS/DSP/Source/ComplexMathFunctions/arm_cmplx_mult_real_q15.c **** 
  55:Drivers/CMSIS/DSP/Source/ComplexMathFunctions/arm_cmplx_mult_real_q15.c **** void arm_cmplx_mult_real_q15(
  56:Drivers/CMSIS/DSP/Source/ComplexMathFunctions/arm_cmplx_mult_real_q15.c ****   q15_t * pSrcCmplx,
  57:Drivers/CMSIS/DSP/Source/ComplexMathFunctions/arm_cmplx_mult_real_q15.c ****   q15_t * pSrcReal,
  58:Drivers/CMSIS/DSP/Source/ComplexMathFunctions/arm_cmplx_mult_real_q15.c ****   q15_t * pCmplxDst,
  59:Drivers/CMSIS/DSP/Source/ComplexMathFunctions/arm_cmplx_mult_real_q15.c ****   uint32_t numSamples)
  60:Drivers/CMSIS/DSP/Source/ComplexMathFunctions/arm_cmplx_mult_real_q15.c **** {
  29              		.loc 1 60 1 view -0
  30              		.cfi_startproc
  31              		@ args = 0, pretend = 0, frame = 0
  32              		@ frame_needed = 0, uses_anonymous_args = 0
  33              		.loc 1 60 1 is_stmt 0 view .LVU1
  34 0000 2DE9F041 		push	{r4, r5, r6, r7, r8, lr}
  35              		.cfi_def_cfa_offset 24
  36              		.cfi_offset 4, -24
  37              		.cfi_offset 5, -20
  38              		.cfi_offset 6, -16
  39              		.cfi_offset 7, -12
  40              		.cfi_offset 8, -8
  41              		.cfi_offset 14, -4
  42 0004 0E46     		mov	r6, r1
  61:Drivers/CMSIS/DSP/Source/ComplexMathFunctions/arm_cmplx_mult_real_q15.c ****   q15_t in;                                      /* Temporary variable to store input value */
  43              		.loc 1 61 3 is_stmt 1 view .LVU2
  62:Drivers/CMSIS/DSP/Source/ComplexMathFunctions/arm_cmplx_mult_real_q15.c **** 
  63:Drivers/CMSIS/DSP/Source/ComplexMathFunctions/arm_cmplx_mult_real_q15.c **** #if defined (ARM_MATH_DSP)
  64:Drivers/CMSIS/DSP/Source/ComplexMathFunctions/arm_cmplx_mult_real_q15.c **** 
  65:Drivers/CMSIS/DSP/Source/ComplexMathFunctions/arm_cmplx_mult_real_q15.c ****   /* Run the below code for Cortex-M4 and Cortex-M3 */
  66:Drivers/CMSIS/DSP/Source/ComplexMathFunctions/arm_cmplx_mult_real_q15.c ****   uint32_t blkCnt;                               /* loop counters */
  44              		.loc 1 66 3 view .LVU3
  67:Drivers/CMSIS/DSP/Source/ComplexMathFunctions/arm_cmplx_mult_real_q15.c ****   q31_t inA1, inA2;                              /* Temporary variables to hold input data */
  45              		.loc 1 67 3 view .LVU4
  68:Drivers/CMSIS/DSP/Source/ComplexMathFunctions/arm_cmplx_mult_real_q15.c ****   q31_t inB1;                                    /* Temporary variables to hold input data */
  46              		.loc 1 68 3 view .LVU5
  69:Drivers/CMSIS/DSP/Source/ComplexMathFunctions/arm_cmplx_mult_real_q15.c ****   q15_t out1, out2, out3, out4;                  /* Temporary variables to hold output data */
ARM GAS  /var/folders/n6/c271nzx11xl4r4_m7sqjlt0m0000gn/T//ccLWZn9u.s 			page 3


  47              		.loc 1 69 3 view .LVU6
  70:Drivers/CMSIS/DSP/Source/ComplexMathFunctions/arm_cmplx_mult_real_q15.c ****   q31_t mul1, mul2, mul3, mul4;                  /* Temporary variables to hold intermediate data *
  48              		.loc 1 70 3 view .LVU7
  71:Drivers/CMSIS/DSP/Source/ComplexMathFunctions/arm_cmplx_mult_real_q15.c **** 
  72:Drivers/CMSIS/DSP/Source/ComplexMathFunctions/arm_cmplx_mult_real_q15.c ****   /* loop Unrolling */
  73:Drivers/CMSIS/DSP/Source/ComplexMathFunctions/arm_cmplx_mult_real_q15.c ****   blkCnt = numSamples >> 2U;
  49              		.loc 1 73 3 view .LVU8
  50              		.loc 1 73 10 is_stmt 0 view .LVU9
  51 0006 9D08     		lsrs	r5, r3, #2
  52              	.LVL1:
  74:Drivers/CMSIS/DSP/Source/ComplexMathFunctions/arm_cmplx_mult_real_q15.c **** 
  75:Drivers/CMSIS/DSP/Source/ComplexMathFunctions/arm_cmplx_mult_real_q15.c ****   /* First part of the processing with loop unrolling.  Compute 4 outputs at a time.
  76:Drivers/CMSIS/DSP/Source/ComplexMathFunctions/arm_cmplx_mult_real_q15.c ****    ** a second loop below computes the remaining 1 to 3 samples. */
  77:Drivers/CMSIS/DSP/Source/ComplexMathFunctions/arm_cmplx_mult_real_q15.c ****   while (blkCnt > 0U)
  53              		.loc 1 77 3 is_stmt 1 view .LVU10
  54              		.loc 1 77 9 is_stmt 0 view .LVU11
  55 0008 55E0     		b	.L2
  56              	.LVL2:
  57              	.L3:
  78:Drivers/CMSIS/DSP/Source/ComplexMathFunctions/arm_cmplx_mult_real_q15.c ****   {
  79:Drivers/CMSIS/DSP/Source/ComplexMathFunctions/arm_cmplx_mult_real_q15.c ****     /* C[2 * i] = A[2 * i] * B[i].            */
  80:Drivers/CMSIS/DSP/Source/ComplexMathFunctions/arm_cmplx_mult_real_q15.c ****     /* C[2 * i + 1] = A[2 * i + 1] * B[i].        */
  81:Drivers/CMSIS/DSP/Source/ComplexMathFunctions/arm_cmplx_mult_real_q15.c ****     /* read complex number both real and imaginary from complex input buffer */
  82:Drivers/CMSIS/DSP/Source/ComplexMathFunctions/arm_cmplx_mult_real_q15.c ****     inA1 = *__SIMD32(pSrcCmplx)++;
  58              		.loc 1 82 5 is_stmt 1 view .LVU12
  59              		.loc 1 82 10 is_stmt 0 view .LVU13
  60 000a 0468     		ldr	r4, [r0]
  61              	.LVL3:
  83:Drivers/CMSIS/DSP/Source/ComplexMathFunctions/arm_cmplx_mult_real_q15.c ****     /* read two real values at a time from real input buffer */
  84:Drivers/CMSIS/DSP/Source/ComplexMathFunctions/arm_cmplx_mult_real_q15.c ****     inB1 = *__SIMD32(pSrcReal)++;
  62              		.loc 1 84 5 is_stmt 1 view .LVU14
  63              		.loc 1 84 10 is_stmt 0 view .LVU15
  64 000c B446     		mov	ip, r6
  65 000e 5CF8081B 		ldr	r1, [ip], #8
  66              	.LVL4:
  85:Drivers/CMSIS/DSP/Source/ComplexMathFunctions/arm_cmplx_mult_real_q15.c ****     /* read complex number both real and imaginary from complex input buffer */
  86:Drivers/CMSIS/DSP/Source/ComplexMathFunctions/arm_cmplx_mult_real_q15.c ****     inA2 = *__SIMD32(pSrcCmplx)++;
  67              		.loc 1 86 5 is_stmt 1 view .LVU16
  68              		.loc 1 86 10 is_stmt 0 view .LVU17
  69 0012 4768     		ldr	r7, [r0, #4]
  70              	.LVL5:
  87:Drivers/CMSIS/DSP/Source/ComplexMathFunctions/arm_cmplx_mult_real_q15.c **** 
  88:Drivers/CMSIS/DSP/Source/ComplexMathFunctions/arm_cmplx_mult_real_q15.c ****     /* multiply complex number with real numbers */
  89:Drivers/CMSIS/DSP/Source/ComplexMathFunctions/arm_cmplx_mult_real_q15.c **** #ifndef ARM_MATH_BIG_ENDIAN
  90:Drivers/CMSIS/DSP/Source/ComplexMathFunctions/arm_cmplx_mult_real_q15.c **** 
  91:Drivers/CMSIS/DSP/Source/ComplexMathFunctions/arm_cmplx_mult_real_q15.c ****     mul1 = (q31_t) ((q15_t) (inA1) * (q15_t) (inB1));
  71              		.loc 1 91 5 is_stmt 1 view .LVU18
  72              		.loc 1 91 21 is_stmt 0 view .LVU19
  73 0014 0FFA84F8 		sxth	r8, r4
  74              		.loc 1 91 38 view .LVU20
  75 0018 0FFA81FE 		sxth	lr, r1
  76              		.loc 1 91 10 view .LVU21
  77 001c 0EFB08F8 		mul	r8, lr, r8
  78              	.LVL6:
  92:Drivers/CMSIS/DSP/Source/ComplexMathFunctions/arm_cmplx_mult_real_q15.c ****     mul2 = (q31_t) ((q15_t) (inA1 >> 16) * (q15_t) (inB1));
  79              		.loc 1 92 5 is_stmt 1 view .LVU22
  80              		.loc 1 92 21 is_stmt 0 view .LVU23
ARM GAS  /var/folders/n6/c271nzx11xl4r4_m7sqjlt0m0000gn/T//ccLWZn9u.s 			page 4


  81 0020 2414     		asrs	r4, r4, #16
  82              	.LVL7:
  83              		.loc 1 92 10 view .LVU24
  84 0022 04FB0EFE 		mul	lr, r4, lr
  85              	.LVL8:
  93:Drivers/CMSIS/DSP/Source/ComplexMathFunctions/arm_cmplx_mult_real_q15.c ****     mul3 = (q31_t) ((q15_t) (inA2) * (q15_t) (inB1 >> 16));
  86              		.loc 1 93 5 is_stmt 1 view .LVU25
  87              		.loc 1 93 21 is_stmt 0 view .LVU26
  88 0026 3CB2     		sxth	r4, r7
  89              		.loc 1 93 38 view .LVU27
  90 0028 0914     		asrs	r1, r1, #16
  91              	.LVL9:
  92              		.loc 1 93 10 view .LVU28
  93 002a 01FB04F4 		mul	r4, r1, r4
  94              	.LVL10:
  94:Drivers/CMSIS/DSP/Source/ComplexMathFunctions/arm_cmplx_mult_real_q15.c ****     mul4 = (q31_t) ((q15_t) (inA2 >> 16) * (q15_t) (inB1 >> 16));
  95              		.loc 1 94 5 is_stmt 1 view .LVU29
  96              		.loc 1 94 21 is_stmt 0 view .LVU30
  97 002e 3F14     		asrs	r7, r7, #16
  98              	.LVL11:
  99              		.loc 1 94 10 view .LVU31
 100 0030 07FB01F1 		mul	r1, r7, r1
 101              	.LVL12:
  95:Drivers/CMSIS/DSP/Source/ComplexMathFunctions/arm_cmplx_mult_real_q15.c **** 
  96:Drivers/CMSIS/DSP/Source/ComplexMathFunctions/arm_cmplx_mult_real_q15.c **** #else
  97:Drivers/CMSIS/DSP/Source/ComplexMathFunctions/arm_cmplx_mult_real_q15.c **** 
  98:Drivers/CMSIS/DSP/Source/ComplexMathFunctions/arm_cmplx_mult_real_q15.c ****     mul2 = (q31_t) ((q15_t) (inA1 >> 16) * (q15_t) (inB1 >> 16));
  99:Drivers/CMSIS/DSP/Source/ComplexMathFunctions/arm_cmplx_mult_real_q15.c ****     mul1 = (q31_t) ((q15_t) inA1 * (q15_t) (inB1 >> 16));
 100:Drivers/CMSIS/DSP/Source/ComplexMathFunctions/arm_cmplx_mult_real_q15.c ****     mul4 = (q31_t) ((q15_t) (inA2 >> 16) * (q15_t) inB1);
 101:Drivers/CMSIS/DSP/Source/ComplexMathFunctions/arm_cmplx_mult_real_q15.c ****     mul3 = (q31_t) ((q15_t) inA2 * (q15_t) inB1);
 102:Drivers/CMSIS/DSP/Source/ComplexMathFunctions/arm_cmplx_mult_real_q15.c **** 
 103:Drivers/CMSIS/DSP/Source/ComplexMathFunctions/arm_cmplx_mult_real_q15.c **** #endif /* #ifndef ARM_MATH_BIG_ENDIAN */
 104:Drivers/CMSIS/DSP/Source/ComplexMathFunctions/arm_cmplx_mult_real_q15.c **** 
 105:Drivers/CMSIS/DSP/Source/ComplexMathFunctions/arm_cmplx_mult_real_q15.c ****     /* saturate the result */
 106:Drivers/CMSIS/DSP/Source/ComplexMathFunctions/arm_cmplx_mult_real_q15.c ****     out1 = (q15_t) __SSAT(mul1 >> 15U, 16);
 102              		.loc 1 106 5 is_stmt 1 view .LVU32
 103              	.LBB2:
 104              		.loc 1 106 20 view .LVU33
 105 0034 4FEAE837 		asr	r7, r8, #15
 106              	.LVL13:
 107              		.loc 1 106 20 view .LVU34
 108              		.syntax unified
 109              	@ 106 "Drivers/CMSIS/DSP/Source/ComplexMathFunctions/arm_cmplx_mult_real_q15.c" 1
 110 0038 07F30F07 		ssat r7, #16, r7
 111              	@ 0 "" 2
 112              	.LVL14:
 113              		.loc 1 106 20 view .LVU35
 114              		.loc 1 106 20 is_stmt 0 view .LVU36
 115              		.thumb
 116              		.syntax unified
 117              	.LBE2:
 107:Drivers/CMSIS/DSP/Source/ComplexMathFunctions/arm_cmplx_mult_real_q15.c ****     out2 = (q15_t) __SSAT(mul2 >> 15U, 16);
 118              		.loc 1 107 5 is_stmt 1 view .LVU37
 119              	.LBB3:
 120              		.loc 1 107 20 view .LVU38
 121 003c 4FEAEE3E 		asr	lr, lr, #15
 122              	.LVL15:
ARM GAS  /var/folders/n6/c271nzx11xl4r4_m7sqjlt0m0000gn/T//ccLWZn9u.s 			page 5


 123              		.loc 1 107 20 view .LVU39
 124              		.syntax unified
 125              	@ 107 "Drivers/CMSIS/DSP/Source/ComplexMathFunctions/arm_cmplx_mult_real_q15.c" 1
 126 0040 0EF30F0E 		ssat lr, #16, lr
 127              	@ 0 "" 2
 128              	.LVL16:
 129              		.loc 1 107 20 view .LVU40
 130              		.loc 1 107 20 is_stmt 0 view .LVU41
 131              		.thumb
 132              		.syntax unified
 133              	.LBE3:
 108:Drivers/CMSIS/DSP/Source/ComplexMathFunctions/arm_cmplx_mult_real_q15.c ****     out3 = (q15_t) __SSAT(mul3 >> 15U, 16);
 134              		.loc 1 108 5 is_stmt 1 view .LVU42
 135              	.LBB4:
 136              		.loc 1 108 20 view .LVU43
 137 0044 E413     		asrs	r4, r4, #15
 138              	.LVL17:
 139              		.loc 1 108 20 view .LVU44
 140              		.syntax unified
 141              	@ 108 "Drivers/CMSIS/DSP/Source/ComplexMathFunctions/arm_cmplx_mult_real_q15.c" 1
 142 0046 04F30F04 		ssat r4, #16, r4
 143              	@ 0 "" 2
 144              	.LVL18:
 145              		.loc 1 108 20 view .LVU45
 146              		.loc 1 108 20 is_stmt 0 view .LVU46
 147              		.thumb
 148              		.syntax unified
 149              	.LBE4:
 109:Drivers/CMSIS/DSP/Source/ComplexMathFunctions/arm_cmplx_mult_real_q15.c ****     out4 = (q15_t) __SSAT(mul4 >> 15U, 16);
 150              		.loc 1 109 5 is_stmt 1 view .LVU47
 151              	.LBB5:
 152              		.loc 1 109 20 view .LVU48
 153 004a C913     		asrs	r1, r1, #15
 154              	.LVL19:
 155              		.loc 1 109 20 view .LVU49
 156              		.syntax unified
 157              	@ 109 "Drivers/CMSIS/DSP/Source/ComplexMathFunctions/arm_cmplx_mult_real_q15.c" 1
 158 004c 01F30F01 		ssat r1, #16, r1
 159              	@ 0 "" 2
 160              	.LVL20:
 161              		.loc 1 109 20 view .LVU50
 162              		.loc 1 109 20 is_stmt 0 view .LVU51
 163              		.thumb
 164              		.syntax unified
 165              	.LBE5:
 110:Drivers/CMSIS/DSP/Source/ComplexMathFunctions/arm_cmplx_mult_real_q15.c **** 
 111:Drivers/CMSIS/DSP/Source/ComplexMathFunctions/arm_cmplx_mult_real_q15.c ****     /* pack real and imaginary outputs and store them to destination */
 112:Drivers/CMSIS/DSP/Source/ComplexMathFunctions/arm_cmplx_mult_real_q15.c ****     *__SIMD32(pCmplxDst)++ = __PKHBT(out1, out2, 16);
 166              		.loc 1 112 5 is_stmt 1 view .LVU52
 167              		.loc 1 112 30 is_stmt 0 view .LVU53
 168 0050 BFB2     		uxth	r7, r7
 169              	.LVL21:
 170              		.loc 1 112 30 view .LVU54
 171 0052 47EA0E47 		orr	r7, r7, lr, lsl #16
 172              	.LVL22:
 173              		.loc 1 112 28 view .LVU55
 174 0056 1760     		str	r7, [r2]
ARM GAS  /var/folders/n6/c271nzx11xl4r4_m7sqjlt0m0000gn/T//ccLWZn9u.s 			page 6


 175              	.LVL23:
 113:Drivers/CMSIS/DSP/Source/ComplexMathFunctions/arm_cmplx_mult_real_q15.c ****     *__SIMD32(pCmplxDst)++ = __PKHBT(out3, out4, 16);
 176              		.loc 1 113 5 is_stmt 1 view .LVU56
 177              		.loc 1 113 30 is_stmt 0 view .LVU57
 178 0058 A4B2     		uxth	r4, r4
 179              	.LVL24:
 180              		.loc 1 113 30 view .LVU58
 181 005a 44EA0144 		orr	r4, r4, r1, lsl #16
 182              	.LVL25:
 183              		.loc 1 113 28 view .LVU59
 184 005e 5460     		str	r4, [r2, #4]
 114:Drivers/CMSIS/DSP/Source/ComplexMathFunctions/arm_cmplx_mult_real_q15.c **** 
 115:Drivers/CMSIS/DSP/Source/ComplexMathFunctions/arm_cmplx_mult_real_q15.c ****     inA1 = *__SIMD32(pSrcCmplx)++;
 185              		.loc 1 115 5 is_stmt 1 view .LVU60
 186              	.LVL26:
 187              		.loc 1 115 10 is_stmt 0 view .LVU61
 188 0060 8168     		ldr	r1, [r0, #8]
 189              	.LVL27:
 116:Drivers/CMSIS/DSP/Source/ComplexMathFunctions/arm_cmplx_mult_real_q15.c ****     inB1 = *__SIMD32(pSrcReal)++;
 190              		.loc 1 116 5 is_stmt 1 view .LVU62
 191              		.loc 1 116 10 is_stmt 0 view .LVU63
 192 0062 7468     		ldr	r4, [r6, #4]
 193              	.LVL28:
 117:Drivers/CMSIS/DSP/Source/ComplexMathFunctions/arm_cmplx_mult_real_q15.c ****     inA2 = *__SIMD32(pSrcCmplx)++;
 194              		.loc 1 117 5 is_stmt 1 view .LVU64
 195              		.loc 1 117 10 is_stmt 0 view .LVU65
 196 0064 C768     		ldr	r7, [r0, #12]
 197              	.LVL29:
 118:Drivers/CMSIS/DSP/Source/ComplexMathFunctions/arm_cmplx_mult_real_q15.c **** 
 119:Drivers/CMSIS/DSP/Source/ComplexMathFunctions/arm_cmplx_mult_real_q15.c **** #ifndef ARM_MATH_BIG_ENDIAN
 120:Drivers/CMSIS/DSP/Source/ComplexMathFunctions/arm_cmplx_mult_real_q15.c **** 
 121:Drivers/CMSIS/DSP/Source/ComplexMathFunctions/arm_cmplx_mult_real_q15.c ****     mul1 = (q31_t) ((q15_t) (inA1) * (q15_t) (inB1));
 198              		.loc 1 121 5 is_stmt 1 view .LVU66
 199              		.loc 1 121 21 is_stmt 0 view .LVU67
 200 0066 0EB2     		sxth	r6, r1
 201              		.loc 1 121 38 view .LVU68
 202 0068 0FFA84FE 		sxth	lr, r4
 203              	.LVL30:
 204              		.loc 1 121 10 view .LVU69
 205 006c 0EFB06F6 		mul	r6, lr, r6
 206              	.LVL31:
 122:Drivers/CMSIS/DSP/Source/ComplexMathFunctions/arm_cmplx_mult_real_q15.c ****     mul2 = (q31_t) ((q15_t) (inA1 >> 16) * (q15_t) (inB1));
 207              		.loc 1 122 5 is_stmt 1 view .LVU70
 208              		.loc 1 122 21 is_stmt 0 view .LVU71
 209 0070 0914     		asrs	r1, r1, #16
 210              	.LVL32:
 211              		.loc 1 122 10 view .LVU72
 212 0072 01FB0EFE 		mul	lr, r1, lr
 213              	.LVL33:
 123:Drivers/CMSIS/DSP/Source/ComplexMathFunctions/arm_cmplx_mult_real_q15.c ****     mul3 = (q31_t) ((q15_t) (inA2) * (q15_t) (inB1 >> 16));
 214              		.loc 1 123 5 is_stmt 1 view .LVU73
 215              		.loc 1 123 21 is_stmt 0 view .LVU74
 216 0076 39B2     		sxth	r1, r7
 217              		.loc 1 123 38 view .LVU75
 218 0078 2414     		asrs	r4, r4, #16
 219              	.LVL34:
 220              		.loc 1 123 10 view .LVU76
ARM GAS  /var/folders/n6/c271nzx11xl4r4_m7sqjlt0m0000gn/T//ccLWZn9u.s 			page 7


 221 007a 04FB01F1 		mul	r1, r4, r1
 222              	.LVL35:
 124:Drivers/CMSIS/DSP/Source/ComplexMathFunctions/arm_cmplx_mult_real_q15.c ****     mul4 = (q31_t) ((q15_t) (inA2 >> 16) * (q15_t) (inB1 >> 16));
 223              		.loc 1 124 5 is_stmt 1 view .LVU77
 224              		.loc 1 124 21 is_stmt 0 view .LVU78
 225 007e 3F14     		asrs	r7, r7, #16
 226              	.LVL36:
 227              		.loc 1 124 10 view .LVU79
 228 0080 07FB04F4 		mul	r4, r7, r4
 229              	.LVL37:
 125:Drivers/CMSIS/DSP/Source/ComplexMathFunctions/arm_cmplx_mult_real_q15.c **** 
 126:Drivers/CMSIS/DSP/Source/ComplexMathFunctions/arm_cmplx_mult_real_q15.c **** #else
 127:Drivers/CMSIS/DSP/Source/ComplexMathFunctions/arm_cmplx_mult_real_q15.c **** 
 128:Drivers/CMSIS/DSP/Source/ComplexMathFunctions/arm_cmplx_mult_real_q15.c ****     mul2 = (q31_t) ((q15_t) (inA1 >> 16) * (q15_t) (inB1 >> 16));
 129:Drivers/CMSIS/DSP/Source/ComplexMathFunctions/arm_cmplx_mult_real_q15.c ****     mul1 = (q31_t) ((q15_t) inA1 * (q15_t) (inB1 >> 16));
 130:Drivers/CMSIS/DSP/Source/ComplexMathFunctions/arm_cmplx_mult_real_q15.c ****     mul4 = (q31_t) ((q15_t) (inA2 >> 16) * (q15_t) inB1);
 131:Drivers/CMSIS/DSP/Source/ComplexMathFunctions/arm_cmplx_mult_real_q15.c ****     mul3 = (q31_t) ((q15_t) inA2 * (q15_t) inB1);
 132:Drivers/CMSIS/DSP/Source/ComplexMathFunctions/arm_cmplx_mult_real_q15.c **** 
 133:Drivers/CMSIS/DSP/Source/ComplexMathFunctions/arm_cmplx_mult_real_q15.c **** #endif /* #ifndef ARM_MATH_BIG_ENDIAN */
 134:Drivers/CMSIS/DSP/Source/ComplexMathFunctions/arm_cmplx_mult_real_q15.c **** 
 135:Drivers/CMSIS/DSP/Source/ComplexMathFunctions/arm_cmplx_mult_real_q15.c ****     out1 = (q15_t) __SSAT(mul1 >> 15U, 16);
 230              		.loc 1 135 5 is_stmt 1 view .LVU80
 231              	.LBB6:
 232              		.loc 1 135 20 view .LVU81
 233 0084 F613     		asrs	r6, r6, #15
 234              	.LVL38:
 235              		.loc 1 135 20 view .LVU82
 236              		.syntax unified
 237              	@ 135 "Drivers/CMSIS/DSP/Source/ComplexMathFunctions/arm_cmplx_mult_real_q15.c" 1
 238 0086 06F30F06 		ssat r6, #16, r6
 239              	@ 0 "" 2
 240              	.LVL39:
 241              		.loc 1 135 20 view .LVU83
 242              		.loc 1 135 20 is_stmt 0 view .LVU84
 243              		.thumb
 244              		.syntax unified
 245              	.LBE6:
 136:Drivers/CMSIS/DSP/Source/ComplexMathFunctions/arm_cmplx_mult_real_q15.c ****     out2 = (q15_t) __SSAT(mul2 >> 15U, 16);
 246              		.loc 1 136 5 is_stmt 1 view .LVU85
 247              	.LBB7:
 248              		.loc 1 136 20 view .LVU86
 249 008a 4FEAEE3E 		asr	lr, lr, #15
 250              	.LVL40:
 251              		.loc 1 136 20 view .LVU87
 252              		.syntax unified
 253              	@ 136 "Drivers/CMSIS/DSP/Source/ComplexMathFunctions/arm_cmplx_mult_real_q15.c" 1
 254 008e 0EF30F0E 		ssat lr, #16, lr
 255              	@ 0 "" 2
 256              	.LVL41:
 257              		.loc 1 136 20 view .LVU88
 258              		.loc 1 136 20 is_stmt 0 view .LVU89
 259              		.thumb
 260              		.syntax unified
 261              	.LBE7:
 137:Drivers/CMSIS/DSP/Source/ComplexMathFunctions/arm_cmplx_mult_real_q15.c ****     out3 = (q15_t) __SSAT(mul3 >> 15U, 16);
 262              		.loc 1 137 5 is_stmt 1 view .LVU90
 263              	.LBB8:
ARM GAS  /var/folders/n6/c271nzx11xl4r4_m7sqjlt0m0000gn/T//ccLWZn9u.s 			page 8


 264              		.loc 1 137 20 view .LVU91
 265 0092 C913     		asrs	r1, r1, #15
 266              	.LVL42:
 267              		.loc 1 137 20 view .LVU92
 268              		.syntax unified
 269              	@ 137 "Drivers/CMSIS/DSP/Source/ComplexMathFunctions/arm_cmplx_mult_real_q15.c" 1
 270 0094 01F30F01 		ssat r1, #16, r1
 271              	@ 0 "" 2
 272              	.LVL43:
 273              		.loc 1 137 20 view .LVU93
 274              		.loc 1 137 20 is_stmt 0 view .LVU94
 275              		.thumb
 276              		.syntax unified
 277              	.LBE8:
 138:Drivers/CMSIS/DSP/Source/ComplexMathFunctions/arm_cmplx_mult_real_q15.c ****     out4 = (q15_t) __SSAT(mul4 >> 15U, 16);
 278              		.loc 1 138 5 is_stmt 1 view .LVU95
 279              	.LBB9:
 280              		.loc 1 138 20 view .LVU96
 281 0098 E413     		asrs	r4, r4, #15
 282              	.LVL44:
 283              		.loc 1 138 20 view .LVU97
 284              		.syntax unified
 285              	@ 138 "Drivers/CMSIS/DSP/Source/ComplexMathFunctions/arm_cmplx_mult_real_q15.c" 1
 286 009a 04F30F04 		ssat r4, #16, r4
 287              	@ 0 "" 2
 288              	.LVL45:
 289              		.loc 1 138 20 view .LVU98
 290              		.loc 1 138 20 is_stmt 0 view .LVU99
 291              		.thumb
 292              		.syntax unified
 293              	.LBE9:
 139:Drivers/CMSIS/DSP/Source/ComplexMathFunctions/arm_cmplx_mult_real_q15.c **** 
 140:Drivers/CMSIS/DSP/Source/ComplexMathFunctions/arm_cmplx_mult_real_q15.c ****     *__SIMD32(pCmplxDst)++ = __PKHBT(out1, out2, 16);
 294              		.loc 1 140 5 is_stmt 1 view .LVU100
 295              		.loc 1 140 30 is_stmt 0 view .LVU101
 296 009e B6B2     		uxth	r6, r6
 297              	.LVL46:
 298              		.loc 1 140 30 view .LVU102
 299 00a0 46EA0E46 		orr	r6, r6, lr, lsl #16
 300              	.LVL47:
 301              		.loc 1 140 28 view .LVU103
 302 00a4 9660     		str	r6, [r2, #8]
 303              	.LVL48:
 141:Drivers/CMSIS/DSP/Source/ComplexMathFunctions/arm_cmplx_mult_real_q15.c ****     *__SIMD32(pCmplxDst)++ = __PKHBT(out3, out4, 16);
 304              		.loc 1 141 5 is_stmt 1 view .LVU104
 305              		.loc 1 141 30 is_stmt 0 view .LVU105
 306 00a6 89B2     		uxth	r1, r1
 307              	.LVL49:
 308              		.loc 1 141 30 view .LVU106
 309 00a8 41EA0441 		orr	r1, r1, r4, lsl #16
 310              	.LVL50:
 311              		.loc 1 141 28 view .LVU107
 312 00ac D160     		str	r1, [r2, #12]
 142:Drivers/CMSIS/DSP/Source/ComplexMathFunctions/arm_cmplx_mult_real_q15.c **** 
 143:Drivers/CMSIS/DSP/Source/ComplexMathFunctions/arm_cmplx_mult_real_q15.c ****     /* Decrement the numSamples loop counter */
 144:Drivers/CMSIS/DSP/Source/ComplexMathFunctions/arm_cmplx_mult_real_q15.c ****     blkCnt--;
 313              		.loc 1 144 5 is_stmt 1 view .LVU108
ARM GAS  /var/folders/n6/c271nzx11xl4r4_m7sqjlt0m0000gn/T//ccLWZn9u.s 			page 9


 314              		.loc 1 144 11 is_stmt 0 view .LVU109
 315 00ae 013D     		subs	r5, r5, #1
 316              	.LVL51:
 141:Drivers/CMSIS/DSP/Source/ComplexMathFunctions/arm_cmplx_mult_real_q15.c ****     *__SIMD32(pCmplxDst)++ = __PKHBT(out3, out4, 16);
 317              		.loc 1 141 25 view .LVU110
 318 00b0 1032     		adds	r2, r2, #16
 319              	.LVL52:
 116:Drivers/CMSIS/DSP/Source/ComplexMathFunctions/arm_cmplx_mult_real_q15.c ****     inA2 = *__SIMD32(pSrcCmplx)++;
 320              		.loc 1 116 31 view .LVU111
 321 00b2 6646     		mov	r6, ip
 117:Drivers/CMSIS/DSP/Source/ComplexMathFunctions/arm_cmplx_mult_real_q15.c **** 
 322              		.loc 1 117 32 view .LVU112
 323 00b4 1030     		adds	r0, r0, #16
 324              	.LVL53:
 325              	.L2:
  77:Drivers/CMSIS/DSP/Source/ComplexMathFunctions/arm_cmplx_mult_real_q15.c ****   {
 326              		.loc 1 77 17 is_stmt 1 view .LVU113
 327 00b6 002D     		cmp	r5, #0
 328 00b8 A7D1     		bne	.L3
 145:Drivers/CMSIS/DSP/Source/ComplexMathFunctions/arm_cmplx_mult_real_q15.c ****   }
 146:Drivers/CMSIS/DSP/Source/ComplexMathFunctions/arm_cmplx_mult_real_q15.c **** 
 147:Drivers/CMSIS/DSP/Source/ComplexMathFunctions/arm_cmplx_mult_real_q15.c ****   /* If the numSamples is not a multiple of 4, compute any remaining output samples here.
 148:Drivers/CMSIS/DSP/Source/ComplexMathFunctions/arm_cmplx_mult_real_q15.c ****    ** No loop unrolling is used. */
 149:Drivers/CMSIS/DSP/Source/ComplexMathFunctions/arm_cmplx_mult_real_q15.c ****   blkCnt = numSamples % 0x4U;
 329              		.loc 1 149 3 view .LVU114
 330              		.loc 1 149 10 is_stmt 0 view .LVU115
 331 00ba 03F00303 		and	r3, r3, #3
 332              	.LVL54:
 150:Drivers/CMSIS/DSP/Source/ComplexMathFunctions/arm_cmplx_mult_real_q15.c **** 
 151:Drivers/CMSIS/DSP/Source/ComplexMathFunctions/arm_cmplx_mult_real_q15.c ****   while (blkCnt > 0U)
 333              		.loc 1 151 3 is_stmt 1 view .LVU116
 334              		.loc 1 151 9 is_stmt 0 view .LVU117
 335 00be 18E0     		b	.L4
 336              	.L5:
 152:Drivers/CMSIS/DSP/Source/ComplexMathFunctions/arm_cmplx_mult_real_q15.c ****   {
 153:Drivers/CMSIS/DSP/Source/ComplexMathFunctions/arm_cmplx_mult_real_q15.c ****     /* C[2 * i] = A[2 * i] * B[i].            */
 154:Drivers/CMSIS/DSP/Source/ComplexMathFunctions/arm_cmplx_mult_real_q15.c ****     /* C[2 * i + 1] = A[2 * i + 1] * B[i].        */
 155:Drivers/CMSIS/DSP/Source/ComplexMathFunctions/arm_cmplx_mult_real_q15.c ****     in = *pSrcReal++;
 337              		.loc 1 155 5 is_stmt 1 view .LVU118
 338              	.LVL55:
 339              		.loc 1 155 8 is_stmt 0 view .LVU119
 340 00c0 36F9024B 		ldrsh	r4, [r6], #2
 341              	.LVL56:
 156:Drivers/CMSIS/DSP/Source/ComplexMathFunctions/arm_cmplx_mult_real_q15.c ****     /* store the result in the destination buffer. */
 157:Drivers/CMSIS/DSP/Source/ComplexMathFunctions/arm_cmplx_mult_real_q15.c ****     *pCmplxDst++ =
 342              		.loc 1 157 5 is_stmt 1 view .LVU120
 343              	.LBB10:
 158:Drivers/CMSIS/DSP/Source/ComplexMathFunctions/arm_cmplx_mult_real_q15.c ****       (q15_t) __SSAT((((q31_t) (*pSrcCmplx++) * (in)) >> 15), 16);
 344              		.loc 1 158 15 view .LVU121
 345              		.loc 1 158 15 is_stmt 0 view .LVU122
 346 00c4 0146     		mov	r1, r0
 347 00c6 31F904CB 		ldrsh	ip, [r1], #4
 348 00ca 04FB0CFC 		mul	ip, r4, ip
 349 00ce 4FEAEC3C 		asr	ip, ip, #15
 350              	.LVL57:
 351              		.loc 1 158 15 is_stmt 1 view .LVU123
 352              		.syntax unified
ARM GAS  /var/folders/n6/c271nzx11xl4r4_m7sqjlt0m0000gn/T//ccLWZn9u.s 			page 10


 353              	@ 158 "Drivers/CMSIS/DSP/Source/ComplexMathFunctions/arm_cmplx_mult_real_q15.c" 1
 354 00d2 0CF30F0C 		ssat ip, #16, ip
 355              	@ 0 "" 2
 356              	.LVL58:
 357              		.loc 1 158 15 view .LVU124
 358              		.loc 1 158 15 is_stmt 0 view .LVU125
 359              		.thumb
 360              		.syntax unified
 361              	.LBE10:
 157:Drivers/CMSIS/DSP/Source/ComplexMathFunctions/arm_cmplx_mult_real_q15.c ****       (q15_t) __SSAT((((q31_t) (*pSrcCmplx++) * (in)) >> 15), 16);
 362              		.loc 1 157 18 view .LVU126
 363 00d6 1546     		mov	r5, r2
 364 00d8 25F804CB 		strh	ip, [r5], #4	@ movhi
 365              	.LVL59:
 159:Drivers/CMSIS/DSP/Source/ComplexMathFunctions/arm_cmplx_mult_real_q15.c ****     *pCmplxDst++ =
 366              		.loc 1 159 5 is_stmt 1 view .LVU127
 367              	.LBB11:
 160:Drivers/CMSIS/DSP/Source/ComplexMathFunctions/arm_cmplx_mult_real_q15.c ****       (q15_t) __SSAT((((q31_t) (*pSrcCmplx++) * (in)) >> 15), 16);
 368              		.loc 1 160 15 view .LVU128
 369              		.loc 1 160 15 is_stmt 0 view .LVU129
 370 00dc B0F90200 		ldrsh	r0, [r0, #2]
 371 00e0 00FB04F4 		mul	r4, r0, r4
 372              	.LVL60:
 373              		.loc 1 160 15 view .LVU130
 374 00e4 E413     		asrs	r4, r4, #15
 375              	.LVL61:
 376              		.loc 1 160 15 is_stmt 1 view .LVU131
 377              		.syntax unified
 378              	@ 160 "Drivers/CMSIS/DSP/Source/ComplexMathFunctions/arm_cmplx_mult_real_q15.c" 1
 379 00e6 04F30F04 		ssat r4, #16, r4
 380              	@ 0 "" 2
 381              	.LVL62:
 382              		.loc 1 160 15 view .LVU132
 383              		.loc 1 160 15 is_stmt 0 view .LVU133
 384              		.thumb
 385              		.syntax unified
 386              	.LBE11:
 159:Drivers/CMSIS/DSP/Source/ComplexMathFunctions/arm_cmplx_mult_real_q15.c ****     *pCmplxDst++ =
 387              		.loc 1 159 18 view .LVU134
 388 00ea 5480     		strh	r4, [r2, #2]	@ movhi
 161:Drivers/CMSIS/DSP/Source/ComplexMathFunctions/arm_cmplx_mult_real_q15.c **** 
 162:Drivers/CMSIS/DSP/Source/ComplexMathFunctions/arm_cmplx_mult_real_q15.c ****     /* Decrement the numSamples loop counter */
 163:Drivers/CMSIS/DSP/Source/ComplexMathFunctions/arm_cmplx_mult_real_q15.c ****     blkCnt--;
 389              		.loc 1 163 5 is_stmt 1 view .LVU135
 390              		.loc 1 163 11 is_stmt 0 view .LVU136
 391 00ec 013B     		subs	r3, r3, #1
 392              	.LVL63:
 159:Drivers/CMSIS/DSP/Source/ComplexMathFunctions/arm_cmplx_mult_real_q15.c ****       (q15_t) __SSAT((((q31_t) (*pSrcCmplx++) * (in)) >> 15), 16);
 393              		.loc 1 159 15 view .LVU137
 394 00ee 2A46     		mov	r2, r5
 395              	.LBB12:
 160:Drivers/CMSIS/DSP/Source/ComplexMathFunctions/arm_cmplx_mult_real_q15.c ****       (q15_t) __SSAT((((q31_t) (*pSrcCmplx++) * (in)) >> 15), 16);
 396              		.loc 1 160 15 view .LVU138
 397 00f0 0846     		mov	r0, r1
 398              	.LVL64:
 399              	.L4:
 160:Drivers/CMSIS/DSP/Source/ComplexMathFunctions/arm_cmplx_mult_real_q15.c ****       (q15_t) __SSAT((((q31_t) (*pSrcCmplx++) * (in)) >> 15), 16);
ARM GAS  /var/folders/n6/c271nzx11xl4r4_m7sqjlt0m0000gn/T//ccLWZn9u.s 			page 11


 400              		.loc 1 160 15 view .LVU139
 401              	.LBE12:
 151:Drivers/CMSIS/DSP/Source/ComplexMathFunctions/arm_cmplx_mult_real_q15.c ****   {
 402              		.loc 1 151 17 is_stmt 1 view .LVU140
 403 00f2 002B     		cmp	r3, #0
 404 00f4 E4D1     		bne	.L5
 164:Drivers/CMSIS/DSP/Source/ComplexMathFunctions/arm_cmplx_mult_real_q15.c ****   }
 165:Drivers/CMSIS/DSP/Source/ComplexMathFunctions/arm_cmplx_mult_real_q15.c **** 
 166:Drivers/CMSIS/DSP/Source/ComplexMathFunctions/arm_cmplx_mult_real_q15.c **** #else
 167:Drivers/CMSIS/DSP/Source/ComplexMathFunctions/arm_cmplx_mult_real_q15.c **** 
 168:Drivers/CMSIS/DSP/Source/ComplexMathFunctions/arm_cmplx_mult_real_q15.c ****   /* Run the below code for Cortex-M0 */
 169:Drivers/CMSIS/DSP/Source/ComplexMathFunctions/arm_cmplx_mult_real_q15.c **** 
 170:Drivers/CMSIS/DSP/Source/ComplexMathFunctions/arm_cmplx_mult_real_q15.c ****   while (numSamples > 0U)
 171:Drivers/CMSIS/DSP/Source/ComplexMathFunctions/arm_cmplx_mult_real_q15.c ****   {
 172:Drivers/CMSIS/DSP/Source/ComplexMathFunctions/arm_cmplx_mult_real_q15.c ****     /* realOut = realA * realB.            */
 173:Drivers/CMSIS/DSP/Source/ComplexMathFunctions/arm_cmplx_mult_real_q15.c ****     /* imagOut = imagA * realB.                */
 174:Drivers/CMSIS/DSP/Source/ComplexMathFunctions/arm_cmplx_mult_real_q15.c ****     in = *pSrcReal++;
 175:Drivers/CMSIS/DSP/Source/ComplexMathFunctions/arm_cmplx_mult_real_q15.c ****     /* store the result in the destination buffer. */
 176:Drivers/CMSIS/DSP/Source/ComplexMathFunctions/arm_cmplx_mult_real_q15.c ****     *pCmplxDst++ =
 177:Drivers/CMSIS/DSP/Source/ComplexMathFunctions/arm_cmplx_mult_real_q15.c ****       (q15_t) __SSAT((((q31_t) (*pSrcCmplx++) * (in)) >> 15), 16);
 178:Drivers/CMSIS/DSP/Source/ComplexMathFunctions/arm_cmplx_mult_real_q15.c ****     *pCmplxDst++ =
 179:Drivers/CMSIS/DSP/Source/ComplexMathFunctions/arm_cmplx_mult_real_q15.c ****       (q15_t) __SSAT((((q31_t) (*pSrcCmplx++) * (in)) >> 15), 16);
 180:Drivers/CMSIS/DSP/Source/ComplexMathFunctions/arm_cmplx_mult_real_q15.c **** 
 181:Drivers/CMSIS/DSP/Source/ComplexMathFunctions/arm_cmplx_mult_real_q15.c ****     /* Decrement the numSamples loop counter */
 182:Drivers/CMSIS/DSP/Source/ComplexMathFunctions/arm_cmplx_mult_real_q15.c ****     numSamples--;
 183:Drivers/CMSIS/DSP/Source/ComplexMathFunctions/arm_cmplx_mult_real_q15.c ****   }
 184:Drivers/CMSIS/DSP/Source/ComplexMathFunctions/arm_cmplx_mult_real_q15.c **** 
 185:Drivers/CMSIS/DSP/Source/ComplexMathFunctions/arm_cmplx_mult_real_q15.c **** #endif /* #if defined (ARM_MATH_DSP) */
 186:Drivers/CMSIS/DSP/Source/ComplexMathFunctions/arm_cmplx_mult_real_q15.c **** 
 187:Drivers/CMSIS/DSP/Source/ComplexMathFunctions/arm_cmplx_mult_real_q15.c **** }
 405              		.loc 1 187 1 is_stmt 0 view .LVU141
 406 00f6 BDE8F081 		pop	{r4, r5, r6, r7, r8, pc}
 407              		.loc 1 187 1 view .LVU142
 408              		.cfi_endproc
 409              	.LFE135:
 411              		.text
 412              	.Letext0:
 413              		.file 2 "/Users/killian/Library/Application Support/Code/User/globalStorage/bmd.stm32-for-vscode/@
 414              		.file 3 "/Users/killian/Library/Application Support/Code/User/globalStorage/bmd.stm32-for-vscode/@
 415              		.file 4 "Drivers/CMSIS/DSP/Include/arm_math.h"
ARM GAS  /var/folders/n6/c271nzx11xl4r4_m7sqjlt0m0000gn/T//ccLWZn9u.s 			page 12

