ARM GAS  /var/folders/n6/c271nzx11xl4r4_m7sqjlt0m0000gn/T//ccLoqEDL.s 			page 1


   1              		.cpu cortex-m7
   2              		.arch armv7e-m
   3              		.fpu fpv5-d16
   4              		.eabi_attribute 28, 1
   5              		.eabi_attribute 20, 1
   6              		.eabi_attribute 21, 1
   7              		.eabi_attribute 23, 3
   8              		.eabi_attribute 24, 1
   9              		.eabi_attribute 25, 1
  10              		.eabi_attribute 26, 1
  11              		.eabi_attribute 30, 1
  12              		.eabi_attribute 34, 1
  13              		.eabi_attribute 18, 4
  14              		.file	"arm_mat_trans_f32.c"
  15              		.text
  16              	.Ltext0:
  17              		.cfi_sections	.debug_frame
  18              		.file 1 "Drivers/CMSIS/DSP/Source/MatrixFunctions/arm_mat_trans_f32.c"
  19              		.section	.text.arm_mat_trans_f32,"ax",%progbits
  20              		.align	1
  21              		.global	arm_mat_trans_f32
  22              		.syntax unified
  23              		.thumb
  24              		.thumb_func
  26              	arm_mat_trans_f32:
  27              	.LVL0:
  28              	.LFB135:
   1:Drivers/CMSIS/DSP/Source/MatrixFunctions/arm_mat_trans_f32.c **** /* ----------------------------------------------------------------------
   2:Drivers/CMSIS/DSP/Source/MatrixFunctions/arm_mat_trans_f32.c ****  * Project:      CMSIS DSP Library
   3:Drivers/CMSIS/DSP/Source/MatrixFunctions/arm_mat_trans_f32.c ****  * Title:        arm_mat_trans_f32.c
   4:Drivers/CMSIS/DSP/Source/MatrixFunctions/arm_mat_trans_f32.c ****  * Description:  Floating-point matrix transpose
   5:Drivers/CMSIS/DSP/Source/MatrixFunctions/arm_mat_trans_f32.c ****  *
   6:Drivers/CMSIS/DSP/Source/MatrixFunctions/arm_mat_trans_f32.c ****  * $Date:        27. January 2017
   7:Drivers/CMSIS/DSP/Source/MatrixFunctions/arm_mat_trans_f32.c ****  * $Revision:    V.1.5.1
   8:Drivers/CMSIS/DSP/Source/MatrixFunctions/arm_mat_trans_f32.c ****  *
   9:Drivers/CMSIS/DSP/Source/MatrixFunctions/arm_mat_trans_f32.c ****  * Target Processor: Cortex-M cores
  10:Drivers/CMSIS/DSP/Source/MatrixFunctions/arm_mat_trans_f32.c ****  * -------------------------------------------------------------------- */
  11:Drivers/CMSIS/DSP/Source/MatrixFunctions/arm_mat_trans_f32.c **** /*
  12:Drivers/CMSIS/DSP/Source/MatrixFunctions/arm_mat_trans_f32.c ****  * Copyright (C) 2010-2017 ARM Limited or its affiliates. All rights reserved.
  13:Drivers/CMSIS/DSP/Source/MatrixFunctions/arm_mat_trans_f32.c ****  *
  14:Drivers/CMSIS/DSP/Source/MatrixFunctions/arm_mat_trans_f32.c ****  * SPDX-License-Identifier: Apache-2.0
  15:Drivers/CMSIS/DSP/Source/MatrixFunctions/arm_mat_trans_f32.c ****  *
  16:Drivers/CMSIS/DSP/Source/MatrixFunctions/arm_mat_trans_f32.c ****  * Licensed under the Apache License, Version 2.0 (the License); you may
  17:Drivers/CMSIS/DSP/Source/MatrixFunctions/arm_mat_trans_f32.c ****  * not use this file except in compliance with the License.
  18:Drivers/CMSIS/DSP/Source/MatrixFunctions/arm_mat_trans_f32.c ****  * You may obtain a copy of the License at
  19:Drivers/CMSIS/DSP/Source/MatrixFunctions/arm_mat_trans_f32.c ****  *
  20:Drivers/CMSIS/DSP/Source/MatrixFunctions/arm_mat_trans_f32.c ****  * www.apache.org/licenses/LICENSE-2.0
  21:Drivers/CMSIS/DSP/Source/MatrixFunctions/arm_mat_trans_f32.c ****  *
  22:Drivers/CMSIS/DSP/Source/MatrixFunctions/arm_mat_trans_f32.c ****  * Unless required by applicable law or agreed to in writing, software
  23:Drivers/CMSIS/DSP/Source/MatrixFunctions/arm_mat_trans_f32.c ****  * distributed under the License is distributed on an AS IS BASIS, WITHOUT
  24:Drivers/CMSIS/DSP/Source/MatrixFunctions/arm_mat_trans_f32.c ****  * WARRANTIES OR CONDITIONS OF ANY KIND, either express or implied.
  25:Drivers/CMSIS/DSP/Source/MatrixFunctions/arm_mat_trans_f32.c ****  * See the License for the specific language governing permissions and
  26:Drivers/CMSIS/DSP/Source/MatrixFunctions/arm_mat_trans_f32.c ****  * limitations under the License.
  27:Drivers/CMSIS/DSP/Source/MatrixFunctions/arm_mat_trans_f32.c ****  */
  28:Drivers/CMSIS/DSP/Source/MatrixFunctions/arm_mat_trans_f32.c **** 
  29:Drivers/CMSIS/DSP/Source/MatrixFunctions/arm_mat_trans_f32.c **** /**
  30:Drivers/CMSIS/DSP/Source/MatrixFunctions/arm_mat_trans_f32.c ****  * @defgroup MatrixTrans Matrix Transpose
ARM GAS  /var/folders/n6/c271nzx11xl4r4_m7sqjlt0m0000gn/T//ccLoqEDL.s 			page 2


  31:Drivers/CMSIS/DSP/Source/MatrixFunctions/arm_mat_trans_f32.c ****  *
  32:Drivers/CMSIS/DSP/Source/MatrixFunctions/arm_mat_trans_f32.c ****  * Tranposes a matrix.
  33:Drivers/CMSIS/DSP/Source/MatrixFunctions/arm_mat_trans_f32.c ****  * Transposing an <code>M x N</code> matrix flips it around the center diagonal and results in an <
  34:Drivers/CMSIS/DSP/Source/MatrixFunctions/arm_mat_trans_f32.c ****  * \image html MatrixTranspose.gif "Transpose of a 3 x 3 matrix"
  35:Drivers/CMSIS/DSP/Source/MatrixFunctions/arm_mat_trans_f32.c ****  */
  36:Drivers/CMSIS/DSP/Source/MatrixFunctions/arm_mat_trans_f32.c **** 
  37:Drivers/CMSIS/DSP/Source/MatrixFunctions/arm_mat_trans_f32.c **** #include "arm_math.h"
  38:Drivers/CMSIS/DSP/Source/MatrixFunctions/arm_mat_trans_f32.c **** 
  39:Drivers/CMSIS/DSP/Source/MatrixFunctions/arm_mat_trans_f32.c **** /**
  40:Drivers/CMSIS/DSP/Source/MatrixFunctions/arm_mat_trans_f32.c ****  * @ingroup groupMatrix
  41:Drivers/CMSIS/DSP/Source/MatrixFunctions/arm_mat_trans_f32.c ****  */
  42:Drivers/CMSIS/DSP/Source/MatrixFunctions/arm_mat_trans_f32.c **** 
  43:Drivers/CMSIS/DSP/Source/MatrixFunctions/arm_mat_trans_f32.c **** /**
  44:Drivers/CMSIS/DSP/Source/MatrixFunctions/arm_mat_trans_f32.c ****  * @addtogroup MatrixTrans
  45:Drivers/CMSIS/DSP/Source/MatrixFunctions/arm_mat_trans_f32.c ****  * @{
  46:Drivers/CMSIS/DSP/Source/MatrixFunctions/arm_mat_trans_f32.c ****  */
  47:Drivers/CMSIS/DSP/Source/MatrixFunctions/arm_mat_trans_f32.c **** 
  48:Drivers/CMSIS/DSP/Source/MatrixFunctions/arm_mat_trans_f32.c **** /**
  49:Drivers/CMSIS/DSP/Source/MatrixFunctions/arm_mat_trans_f32.c ****   * @brief Floating-point matrix transpose.
  50:Drivers/CMSIS/DSP/Source/MatrixFunctions/arm_mat_trans_f32.c ****   * @param[in]  *pSrc points to the input matrix
  51:Drivers/CMSIS/DSP/Source/MatrixFunctions/arm_mat_trans_f32.c ****   * @param[out] *pDst points to the output matrix
  52:Drivers/CMSIS/DSP/Source/MatrixFunctions/arm_mat_trans_f32.c ****   * @return 	The function returns either  <code>ARM_MATH_SIZE_MISMATCH</code>
  53:Drivers/CMSIS/DSP/Source/MatrixFunctions/arm_mat_trans_f32.c ****   * or <code>ARM_MATH_SUCCESS</code> based on the outcome of size checking.
  54:Drivers/CMSIS/DSP/Source/MatrixFunctions/arm_mat_trans_f32.c ****   */
  55:Drivers/CMSIS/DSP/Source/MatrixFunctions/arm_mat_trans_f32.c **** 
  56:Drivers/CMSIS/DSP/Source/MatrixFunctions/arm_mat_trans_f32.c **** 
  57:Drivers/CMSIS/DSP/Source/MatrixFunctions/arm_mat_trans_f32.c **** arm_status arm_mat_trans_f32(
  58:Drivers/CMSIS/DSP/Source/MatrixFunctions/arm_mat_trans_f32.c ****   const arm_matrix_instance_f32 * pSrc,
  59:Drivers/CMSIS/DSP/Source/MatrixFunctions/arm_mat_trans_f32.c ****   arm_matrix_instance_f32 * pDst)
  60:Drivers/CMSIS/DSP/Source/MatrixFunctions/arm_mat_trans_f32.c **** {
  29              		.loc 1 60 1 view -0
  30              		.cfi_startproc
  31              		@ args = 0, pretend = 0, frame = 0
  32              		@ frame_needed = 0, uses_anonymous_args = 0
  33              		.loc 1 60 1 is_stmt 0 view .LVU1
  34 0000 30B5     		push	{r4, r5, lr}
  35              		.cfi_def_cfa_offset 12
  36              		.cfi_offset 4, -12
  37              		.cfi_offset 5, -8
  38              		.cfi_offset 14, -4
  61:Drivers/CMSIS/DSP/Source/MatrixFunctions/arm_mat_trans_f32.c ****   float32_t *pIn = pSrc->pData;                  /* input data matrix pointer */
  39              		.loc 1 61 3 is_stmt 1 view .LVU2
  40              		.loc 1 61 14 is_stmt 0 view .LVU3
  41 0002 4268     		ldr	r2, [r0, #4]
  42              	.LVL1:
  62:Drivers/CMSIS/DSP/Source/MatrixFunctions/arm_mat_trans_f32.c ****   float32_t *pOut = pDst->pData;                 /* output data matrix pointer */
  43              		.loc 1 62 3 is_stmt 1 view .LVU4
  44              		.loc 1 62 14 is_stmt 0 view .LVU5
  45 0004 4D68     		ldr	r5, [r1, #4]
  46              	.LVL2:
  63:Drivers/CMSIS/DSP/Source/MatrixFunctions/arm_mat_trans_f32.c ****   float32_t *px;                                 /* Temporary output data matrix pointer */
  47              		.loc 1 63 3 is_stmt 1 view .LVU6
  64:Drivers/CMSIS/DSP/Source/MatrixFunctions/arm_mat_trans_f32.c ****   uint16_t nRows = pSrc->numRows;                /* number of rows */
  48              		.loc 1 64 3 view .LVU7
  49              		.loc 1 64 12 is_stmt 0 view .LVU8
  50 0006 B0F800C0 		ldrh	ip, [r0]
  51              	.LVL3:
ARM GAS  /var/folders/n6/c271nzx11xl4r4_m7sqjlt0m0000gn/T//ccLoqEDL.s 			page 3


  65:Drivers/CMSIS/DSP/Source/MatrixFunctions/arm_mat_trans_f32.c ****   uint16_t nColumns = pSrc->numCols;             /* number of columns */
  52              		.loc 1 65 3 is_stmt 1 view .LVU9
  53              		.loc 1 65 12 is_stmt 0 view .LVU10
  54 000a B0F802E0 		ldrh	lr, [r0, #2]
  55              	.LVL4:
  66:Drivers/CMSIS/DSP/Source/MatrixFunctions/arm_mat_trans_f32.c **** 
  67:Drivers/CMSIS/DSP/Source/MatrixFunctions/arm_mat_trans_f32.c **** #if defined (ARM_MATH_DSP)
  68:Drivers/CMSIS/DSP/Source/MatrixFunctions/arm_mat_trans_f32.c **** 
  69:Drivers/CMSIS/DSP/Source/MatrixFunctions/arm_mat_trans_f32.c ****   /* Run the below code for Cortex-M4 and Cortex-M3 */
  70:Drivers/CMSIS/DSP/Source/MatrixFunctions/arm_mat_trans_f32.c **** 
  71:Drivers/CMSIS/DSP/Source/MatrixFunctions/arm_mat_trans_f32.c ****   uint16_t blkCnt, i = 0U, row = nRows;          /* loop counters */
  56              		.loc 1 71 3 is_stmt 1 view .LVU11
  57              		.loc 1 71 28 is_stmt 0 view .LVU12
  58 000e 6446     		mov	r4, ip
  59              		.loc 1 71 20 view .LVU13
  60 0010 0020     		movs	r0, #0
  61              	.LVL5:
  62              		.loc 1 71 20 view .LVU14
  63 0012 2EE0     		b	.L6
  64              	.LVL6:
  65              	.L3:
  72:Drivers/CMSIS/DSP/Source/MatrixFunctions/arm_mat_trans_f32.c ****   arm_status status;                             /* status of matrix transpose  */
  73:Drivers/CMSIS/DSP/Source/MatrixFunctions/arm_mat_trans_f32.c **** 
  74:Drivers/CMSIS/DSP/Source/MatrixFunctions/arm_mat_trans_f32.c **** 
  75:Drivers/CMSIS/DSP/Source/MatrixFunctions/arm_mat_trans_f32.c **** #ifdef ARM_MATH_MATRIX_CHECK
  76:Drivers/CMSIS/DSP/Source/MatrixFunctions/arm_mat_trans_f32.c **** 
  77:Drivers/CMSIS/DSP/Source/MatrixFunctions/arm_mat_trans_f32.c **** 
  78:Drivers/CMSIS/DSP/Source/MatrixFunctions/arm_mat_trans_f32.c ****   /* Check for matrix mismatch condition */
  79:Drivers/CMSIS/DSP/Source/MatrixFunctions/arm_mat_trans_f32.c ****   if ((pSrc->numRows != pDst->numCols) || (pSrc->numCols != pDst->numRows))
  80:Drivers/CMSIS/DSP/Source/MatrixFunctions/arm_mat_trans_f32.c ****   {
  81:Drivers/CMSIS/DSP/Source/MatrixFunctions/arm_mat_trans_f32.c ****     /* Set status as ARM_MATH_SIZE_MISMATCH */
  82:Drivers/CMSIS/DSP/Source/MatrixFunctions/arm_mat_trans_f32.c ****     status = ARM_MATH_SIZE_MISMATCH;
  83:Drivers/CMSIS/DSP/Source/MatrixFunctions/arm_mat_trans_f32.c ****   }
  84:Drivers/CMSIS/DSP/Source/MatrixFunctions/arm_mat_trans_f32.c ****   else
  85:Drivers/CMSIS/DSP/Source/MatrixFunctions/arm_mat_trans_f32.c **** #endif /*    #ifdef ARM_MATH_MATRIX_CHECK    */
  86:Drivers/CMSIS/DSP/Source/MatrixFunctions/arm_mat_trans_f32.c **** 
  87:Drivers/CMSIS/DSP/Source/MatrixFunctions/arm_mat_trans_f32.c ****   {
  88:Drivers/CMSIS/DSP/Source/MatrixFunctions/arm_mat_trans_f32.c ****     /* Matrix transpose by exchanging the rows with columns */
  89:Drivers/CMSIS/DSP/Source/MatrixFunctions/arm_mat_trans_f32.c ****     /* row loop     */
  90:Drivers/CMSIS/DSP/Source/MatrixFunctions/arm_mat_trans_f32.c ****     do
  91:Drivers/CMSIS/DSP/Source/MatrixFunctions/arm_mat_trans_f32.c ****     {
  92:Drivers/CMSIS/DSP/Source/MatrixFunctions/arm_mat_trans_f32.c ****       /* Loop Unrolling */
  93:Drivers/CMSIS/DSP/Source/MatrixFunctions/arm_mat_trans_f32.c ****       blkCnt = nColumns >> 2;
  94:Drivers/CMSIS/DSP/Source/MatrixFunctions/arm_mat_trans_f32.c **** 
  95:Drivers/CMSIS/DSP/Source/MatrixFunctions/arm_mat_trans_f32.c ****       /* The pointer px is set to starting address of the column being processed */
  96:Drivers/CMSIS/DSP/Source/MatrixFunctions/arm_mat_trans_f32.c ****       px = pOut + i;
  97:Drivers/CMSIS/DSP/Source/MatrixFunctions/arm_mat_trans_f32.c **** 
  98:Drivers/CMSIS/DSP/Source/MatrixFunctions/arm_mat_trans_f32.c ****       /* First part of the processing with loop unrolling.  Compute 4 outputs at a time.
  99:Drivers/CMSIS/DSP/Source/MatrixFunctions/arm_mat_trans_f32.c ****        ** a second loop below computes the remaining 1 to 3 samples. */
 100:Drivers/CMSIS/DSP/Source/MatrixFunctions/arm_mat_trans_f32.c ****       while (blkCnt > 0U)        /* column loop */
 101:Drivers/CMSIS/DSP/Source/MatrixFunctions/arm_mat_trans_f32.c ****       {
 102:Drivers/CMSIS/DSP/Source/MatrixFunctions/arm_mat_trans_f32.c ****         /* Read and store the input element in the destination */
 103:Drivers/CMSIS/DSP/Source/MatrixFunctions/arm_mat_trans_f32.c ****         *px = *pIn++;
  66              		.loc 1 103 9 is_stmt 1 view .LVU15
  67              		.loc 1 103 15 is_stmt 0 view .LVU16
  68 0014 D2ED007A 		vldr.32	s15, [r2]
  69              		.loc 1 103 13 view .LVU17
ARM GAS  /var/folders/n6/c271nzx11xl4r4_m7sqjlt0m0000gn/T//ccLoqEDL.s 			page 4


  70 0018 C3ED007A 		vstr.32	s15, [r3]
 104:Drivers/CMSIS/DSP/Source/MatrixFunctions/arm_mat_trans_f32.c **** 
 105:Drivers/CMSIS/DSP/Source/MatrixFunctions/arm_mat_trans_f32.c ****         /* Update the pointer px to point to the next row of the transposed matrix */
 106:Drivers/CMSIS/DSP/Source/MatrixFunctions/arm_mat_trans_f32.c ****         px += nRows;
  71              		.loc 1 106 9 is_stmt 1 view .LVU18
  72              		.loc 1 106 12 is_stmt 0 view .LVU19
  73 001c 03EB8C03 		add	r3, r3, ip, lsl #2
  74              	.LVL7:
 107:Drivers/CMSIS/DSP/Source/MatrixFunctions/arm_mat_trans_f32.c **** 
 108:Drivers/CMSIS/DSP/Source/MatrixFunctions/arm_mat_trans_f32.c ****         /* Read and store the input element in the destination */
 109:Drivers/CMSIS/DSP/Source/MatrixFunctions/arm_mat_trans_f32.c ****         *px = *pIn++;
  75              		.loc 1 109 9 is_stmt 1 view .LVU20
  76              		.loc 1 109 15 is_stmt 0 view .LVU21
  77 0020 D2ED017A 		vldr.32	s15, [r2, #4]
  78              		.loc 1 109 13 view .LVU22
  79 0024 C3ED007A 		vstr.32	s15, [r3]
 110:Drivers/CMSIS/DSP/Source/MatrixFunctions/arm_mat_trans_f32.c **** 
 111:Drivers/CMSIS/DSP/Source/MatrixFunctions/arm_mat_trans_f32.c ****         /* Update the pointer px to point to the next row of the transposed matrix */
 112:Drivers/CMSIS/DSP/Source/MatrixFunctions/arm_mat_trans_f32.c ****         px += nRows;
  80              		.loc 1 112 9 is_stmt 1 view .LVU23
  81              		.loc 1 112 12 is_stmt 0 view .LVU24
  82 0028 03EB8C03 		add	r3, r3, ip, lsl #2
  83              	.LVL8:
 113:Drivers/CMSIS/DSP/Source/MatrixFunctions/arm_mat_trans_f32.c **** 
 114:Drivers/CMSIS/DSP/Source/MatrixFunctions/arm_mat_trans_f32.c ****         /* Read and store the input element in the destination */
 115:Drivers/CMSIS/DSP/Source/MatrixFunctions/arm_mat_trans_f32.c ****         *px = *pIn++;
  84              		.loc 1 115 9 is_stmt 1 view .LVU25
  85              		.loc 1 115 15 is_stmt 0 view .LVU26
  86 002c D2ED027A 		vldr.32	s15, [r2, #8]
  87              		.loc 1 115 13 view .LVU27
  88 0030 C3ED007A 		vstr.32	s15, [r3]
 116:Drivers/CMSIS/DSP/Source/MatrixFunctions/arm_mat_trans_f32.c **** 
 117:Drivers/CMSIS/DSP/Source/MatrixFunctions/arm_mat_trans_f32.c ****         /* Update the pointer px to point to the next row of the transposed matrix */
 118:Drivers/CMSIS/DSP/Source/MatrixFunctions/arm_mat_trans_f32.c ****         px += nRows;
  89              		.loc 1 118 9 is_stmt 1 view .LVU28
  90              		.loc 1 118 12 is_stmt 0 view .LVU29
  91 0034 03EB8C03 		add	r3, r3, ip, lsl #2
  92              	.LVL9:
 119:Drivers/CMSIS/DSP/Source/MatrixFunctions/arm_mat_trans_f32.c **** 
 120:Drivers/CMSIS/DSP/Source/MatrixFunctions/arm_mat_trans_f32.c ****         /* Read and store the input element in the destination */
 121:Drivers/CMSIS/DSP/Source/MatrixFunctions/arm_mat_trans_f32.c ****         *px = *pIn++;
  93              		.loc 1 121 9 is_stmt 1 view .LVU30
  94              		.loc 1 121 15 is_stmt 0 view .LVU31
  95 0038 D2ED037A 		vldr.32	s15, [r2, #12]
  96              		.loc 1 121 13 view .LVU32
  97 003c C3ED007A 		vstr.32	s15, [r3]
 122:Drivers/CMSIS/DSP/Source/MatrixFunctions/arm_mat_trans_f32.c **** 
 123:Drivers/CMSIS/DSP/Source/MatrixFunctions/arm_mat_trans_f32.c ****         /* Update the pointer px to point to the next row of the transposed matrix */
 124:Drivers/CMSIS/DSP/Source/MatrixFunctions/arm_mat_trans_f32.c ****         px += nRows;
  98              		.loc 1 124 9 is_stmt 1 view .LVU33
  99              		.loc 1 124 12 is_stmt 0 view .LVU34
 100 0040 03EB8C03 		add	r3, r3, ip, lsl #2
 101              	.LVL10:
 125:Drivers/CMSIS/DSP/Source/MatrixFunctions/arm_mat_trans_f32.c **** 
 126:Drivers/CMSIS/DSP/Source/MatrixFunctions/arm_mat_trans_f32.c ****         /* Decrement the column loop counter */
 127:Drivers/CMSIS/DSP/Source/MatrixFunctions/arm_mat_trans_f32.c ****         blkCnt--;
 102              		.loc 1 127 9 is_stmt 1 view .LVU35
ARM GAS  /var/folders/n6/c271nzx11xl4r4_m7sqjlt0m0000gn/T//ccLoqEDL.s 			page 5


 103              		.loc 1 127 15 is_stmt 0 view .LVU36
 104 0044 0139     		subs	r1, r1, #1
 105              	.LVL11:
 106              		.loc 1 127 15 view .LVU37
 107 0046 89B2     		uxth	r1, r1
 108              	.LVL12:
 121:Drivers/CMSIS/DSP/Source/MatrixFunctions/arm_mat_trans_f32.c **** 
 109              		.loc 1 121 19 view .LVU38
 110 0048 1032     		adds	r2, r2, #16
 111              	.LVL13:
 112              	.L2:
 100:Drivers/CMSIS/DSP/Source/MatrixFunctions/arm_mat_trans_f32.c ****       {
 113              		.loc 1 100 21 is_stmt 1 view .LVU39
 114 004a 0029     		cmp	r1, #0
 115 004c E2D1     		bne	.L3
 128:Drivers/CMSIS/DSP/Source/MatrixFunctions/arm_mat_trans_f32.c ****       }
 129:Drivers/CMSIS/DSP/Source/MatrixFunctions/arm_mat_trans_f32.c **** 
 130:Drivers/CMSIS/DSP/Source/MatrixFunctions/arm_mat_trans_f32.c ****       /* Perform matrix transpose for last 3 samples here. */
 131:Drivers/CMSIS/DSP/Source/MatrixFunctions/arm_mat_trans_f32.c ****       blkCnt = nColumns % 0x4U;
 116              		.loc 1 131 7 view .LVU40
 117              		.loc 1 131 14 is_stmt 0 view .LVU41
 118 004e 0EF00301 		and	r1, lr, #3
 119              	.LVL14:
 132:Drivers/CMSIS/DSP/Source/MatrixFunctions/arm_mat_trans_f32.c **** 
 133:Drivers/CMSIS/DSP/Source/MatrixFunctions/arm_mat_trans_f32.c ****       while (blkCnt > 0U)
 120              		.loc 1 133 7 is_stmt 1 view .LVU42
 121              		.loc 1 133 13 is_stmt 0 view .LVU43
 122 0052 07E0     		b	.L4
 123              	.L5:
 134:Drivers/CMSIS/DSP/Source/MatrixFunctions/arm_mat_trans_f32.c ****       {
 135:Drivers/CMSIS/DSP/Source/MatrixFunctions/arm_mat_trans_f32.c ****         /* Read and store the input element in the destination */
 136:Drivers/CMSIS/DSP/Source/MatrixFunctions/arm_mat_trans_f32.c ****         *px = *pIn++;
 124              		.loc 1 136 9 is_stmt 1 view .LVU44
 125              	.LVL15:
 126              		.loc 1 136 15 is_stmt 0 view .LVU45
 127 0054 F2EC017A 		vldmia.32	r2!, {s15}
 128              	.LVL16:
 129              		.loc 1 136 13 view .LVU46
 130 0058 C3ED007A 		vstr.32	s15, [r3]
 137:Drivers/CMSIS/DSP/Source/MatrixFunctions/arm_mat_trans_f32.c **** 
 138:Drivers/CMSIS/DSP/Source/MatrixFunctions/arm_mat_trans_f32.c ****         /* Update the pointer px to point to the next row of the transposed matrix */
 139:Drivers/CMSIS/DSP/Source/MatrixFunctions/arm_mat_trans_f32.c ****         px += nRows;
 131              		.loc 1 139 9 is_stmt 1 view .LVU47
 132              		.loc 1 139 12 is_stmt 0 view .LVU48
 133 005c 03EB8C03 		add	r3, r3, ip, lsl #2
 134              	.LVL17:
 140:Drivers/CMSIS/DSP/Source/MatrixFunctions/arm_mat_trans_f32.c **** 
 141:Drivers/CMSIS/DSP/Source/MatrixFunctions/arm_mat_trans_f32.c ****         /* Decrement the column loop counter */
 142:Drivers/CMSIS/DSP/Source/MatrixFunctions/arm_mat_trans_f32.c ****         blkCnt--;
 135              		.loc 1 142 9 is_stmt 1 view .LVU49
 136              		.loc 1 142 15 is_stmt 0 view .LVU50
 137 0060 0139     		subs	r1, r1, #1
 138              	.LVL18:
 139              		.loc 1 142 15 view .LVU51
 140 0062 89B2     		uxth	r1, r1
 141              	.LVL19:
 142              	.L4:
ARM GAS  /var/folders/n6/c271nzx11xl4r4_m7sqjlt0m0000gn/T//ccLoqEDL.s 			page 6


 133:Drivers/CMSIS/DSP/Source/MatrixFunctions/arm_mat_trans_f32.c ****       {
 143              		.loc 1 133 21 is_stmt 1 view .LVU52
 144 0064 0029     		cmp	r1, #0
 145 0066 F5D1     		bne	.L5
 143:Drivers/CMSIS/DSP/Source/MatrixFunctions/arm_mat_trans_f32.c ****       }
 144:Drivers/CMSIS/DSP/Source/MatrixFunctions/arm_mat_trans_f32.c **** 
 145:Drivers/CMSIS/DSP/Source/MatrixFunctions/arm_mat_trans_f32.c **** #else
 146:Drivers/CMSIS/DSP/Source/MatrixFunctions/arm_mat_trans_f32.c **** 
 147:Drivers/CMSIS/DSP/Source/MatrixFunctions/arm_mat_trans_f32.c ****   /* Run the below code for Cortex-M0 */
 148:Drivers/CMSIS/DSP/Source/MatrixFunctions/arm_mat_trans_f32.c **** 
 149:Drivers/CMSIS/DSP/Source/MatrixFunctions/arm_mat_trans_f32.c ****   uint16_t col, i = 0U, row = nRows;             /* loop counters */
 150:Drivers/CMSIS/DSP/Source/MatrixFunctions/arm_mat_trans_f32.c ****   arm_status status;                             /* status of matrix transpose  */
 151:Drivers/CMSIS/DSP/Source/MatrixFunctions/arm_mat_trans_f32.c **** 
 152:Drivers/CMSIS/DSP/Source/MatrixFunctions/arm_mat_trans_f32.c **** 
 153:Drivers/CMSIS/DSP/Source/MatrixFunctions/arm_mat_trans_f32.c **** #ifdef ARM_MATH_MATRIX_CHECK
 154:Drivers/CMSIS/DSP/Source/MatrixFunctions/arm_mat_trans_f32.c **** 
 155:Drivers/CMSIS/DSP/Source/MatrixFunctions/arm_mat_trans_f32.c ****   /* Check for matrix mismatch condition */
 156:Drivers/CMSIS/DSP/Source/MatrixFunctions/arm_mat_trans_f32.c ****   if ((pSrc->numRows != pDst->numCols) || (pSrc->numCols != pDst->numRows))
 157:Drivers/CMSIS/DSP/Source/MatrixFunctions/arm_mat_trans_f32.c ****   {
 158:Drivers/CMSIS/DSP/Source/MatrixFunctions/arm_mat_trans_f32.c ****     /* Set status as ARM_MATH_SIZE_MISMATCH */
 159:Drivers/CMSIS/DSP/Source/MatrixFunctions/arm_mat_trans_f32.c ****     status = ARM_MATH_SIZE_MISMATCH;
 160:Drivers/CMSIS/DSP/Source/MatrixFunctions/arm_mat_trans_f32.c ****   }
 161:Drivers/CMSIS/DSP/Source/MatrixFunctions/arm_mat_trans_f32.c ****   else
 162:Drivers/CMSIS/DSP/Source/MatrixFunctions/arm_mat_trans_f32.c **** #endif /*      #ifdef ARM_MATH_MATRIX_CHECK    */
 163:Drivers/CMSIS/DSP/Source/MatrixFunctions/arm_mat_trans_f32.c **** 
 164:Drivers/CMSIS/DSP/Source/MatrixFunctions/arm_mat_trans_f32.c ****   {
 165:Drivers/CMSIS/DSP/Source/MatrixFunctions/arm_mat_trans_f32.c ****     /* Matrix transpose by exchanging the rows with columns */
 166:Drivers/CMSIS/DSP/Source/MatrixFunctions/arm_mat_trans_f32.c ****     /* row loop     */
 167:Drivers/CMSIS/DSP/Source/MatrixFunctions/arm_mat_trans_f32.c ****     do
 168:Drivers/CMSIS/DSP/Source/MatrixFunctions/arm_mat_trans_f32.c ****     {
 169:Drivers/CMSIS/DSP/Source/MatrixFunctions/arm_mat_trans_f32.c ****       /* The pointer px is set to starting address of the column being processed */
 170:Drivers/CMSIS/DSP/Source/MatrixFunctions/arm_mat_trans_f32.c ****       px = pOut + i;
 171:Drivers/CMSIS/DSP/Source/MatrixFunctions/arm_mat_trans_f32.c **** 
 172:Drivers/CMSIS/DSP/Source/MatrixFunctions/arm_mat_trans_f32.c ****       /* Initialize column loop counter */
 173:Drivers/CMSIS/DSP/Source/MatrixFunctions/arm_mat_trans_f32.c ****       col = nColumns;
 174:Drivers/CMSIS/DSP/Source/MatrixFunctions/arm_mat_trans_f32.c **** 
 175:Drivers/CMSIS/DSP/Source/MatrixFunctions/arm_mat_trans_f32.c ****       while (col > 0U)
 176:Drivers/CMSIS/DSP/Source/MatrixFunctions/arm_mat_trans_f32.c ****       {
 177:Drivers/CMSIS/DSP/Source/MatrixFunctions/arm_mat_trans_f32.c ****         /* Read and store the input element in the destination */
 178:Drivers/CMSIS/DSP/Source/MatrixFunctions/arm_mat_trans_f32.c ****         *px = *pIn++;
 179:Drivers/CMSIS/DSP/Source/MatrixFunctions/arm_mat_trans_f32.c **** 
 180:Drivers/CMSIS/DSP/Source/MatrixFunctions/arm_mat_trans_f32.c ****         /* Update the pointer px to point to the next row of the transposed matrix */
 181:Drivers/CMSIS/DSP/Source/MatrixFunctions/arm_mat_trans_f32.c ****         px += nRows;
 182:Drivers/CMSIS/DSP/Source/MatrixFunctions/arm_mat_trans_f32.c **** 
 183:Drivers/CMSIS/DSP/Source/MatrixFunctions/arm_mat_trans_f32.c ****         /* Decrement the column loop counter */
 184:Drivers/CMSIS/DSP/Source/MatrixFunctions/arm_mat_trans_f32.c ****         col--;
 185:Drivers/CMSIS/DSP/Source/MatrixFunctions/arm_mat_trans_f32.c ****       }
 186:Drivers/CMSIS/DSP/Source/MatrixFunctions/arm_mat_trans_f32.c **** 
 187:Drivers/CMSIS/DSP/Source/MatrixFunctions/arm_mat_trans_f32.c **** #endif /* #if defined (ARM_MATH_DSP) */
 188:Drivers/CMSIS/DSP/Source/MatrixFunctions/arm_mat_trans_f32.c **** 
 189:Drivers/CMSIS/DSP/Source/MatrixFunctions/arm_mat_trans_f32.c ****       i++;
 146              		.loc 1 189 7 view .LVU53
 147              		.loc 1 189 8 is_stmt 0 view .LVU54
 148 0068 0130     		adds	r0, r0, #1
 149              	.LVL20:
 150              		.loc 1 189 8 view .LVU55
 151 006a 80B2     		uxth	r0, r0
ARM GAS  /var/folders/n6/c271nzx11xl4r4_m7sqjlt0m0000gn/T//ccLoqEDL.s 			page 7


 152              	.LVL21:
 190:Drivers/CMSIS/DSP/Source/MatrixFunctions/arm_mat_trans_f32.c **** 
 191:Drivers/CMSIS/DSP/Source/MatrixFunctions/arm_mat_trans_f32.c ****       /* Decrement the row loop counter */
 192:Drivers/CMSIS/DSP/Source/MatrixFunctions/arm_mat_trans_f32.c ****       row--;
 153              		.loc 1 192 7 is_stmt 1 view .LVU56
 154              		.loc 1 192 10 is_stmt 0 view .LVU57
 155 006c 013C     		subs	r4, r4, #1
 156              	.LVL22:
 157              		.loc 1 192 10 view .LVU58
 158 006e A4B2     		uxth	r4, r4
 159              	.LVL23:
 193:Drivers/CMSIS/DSP/Source/MatrixFunctions/arm_mat_trans_f32.c **** 
 194:Drivers/CMSIS/DSP/Source/MatrixFunctions/arm_mat_trans_f32.c ****     } while (row > 0U);          /* row loop end  */
 160              		.loc 1 194 18 is_stmt 1 view .LVU59
 161 0070 24B1     		cbz	r4, .L8
 162              	.LVL24:
 163              	.L6:
  72:Drivers/CMSIS/DSP/Source/MatrixFunctions/arm_mat_trans_f32.c **** 
 164              		.loc 1 72 3 view .LVU60
  90:Drivers/CMSIS/DSP/Source/MatrixFunctions/arm_mat_trans_f32.c ****     {
 165              		.loc 1 90 5 view .LVU61
  93:Drivers/CMSIS/DSP/Source/MatrixFunctions/arm_mat_trans_f32.c **** 
 166              		.loc 1 93 7 view .LVU62
  93:Drivers/CMSIS/DSP/Source/MatrixFunctions/arm_mat_trans_f32.c **** 
 167              		.loc 1 93 14 is_stmt 0 view .LVU63
 168 0072 4FEA9E01 		lsr	r1, lr, #2
 169              	.LVL25:
  96:Drivers/CMSIS/DSP/Source/MatrixFunctions/arm_mat_trans_f32.c **** 
 170              		.loc 1 96 7 is_stmt 1 view .LVU64
  96:Drivers/CMSIS/DSP/Source/MatrixFunctions/arm_mat_trans_f32.c **** 
 171              		.loc 1 96 10 is_stmt 0 view .LVU65
 172 0076 05EB8003 		add	r3, r5, r0, lsl #2
 173              	.LVL26:
 100:Drivers/CMSIS/DSP/Source/MatrixFunctions/arm_mat_trans_f32.c ****       {
 174              		.loc 1 100 7 is_stmt 1 view .LVU66
 100:Drivers/CMSIS/DSP/Source/MatrixFunctions/arm_mat_trans_f32.c ****       {
 175              		.loc 1 100 13 is_stmt 0 view .LVU67
 176 007a E6E7     		b	.L2
 177              	.L8:
 195:Drivers/CMSIS/DSP/Source/MatrixFunctions/arm_mat_trans_f32.c **** 
 196:Drivers/CMSIS/DSP/Source/MatrixFunctions/arm_mat_trans_f32.c ****     /* Set status as ARM_MATH_SUCCESS */
 197:Drivers/CMSIS/DSP/Source/MatrixFunctions/arm_mat_trans_f32.c ****     status = ARM_MATH_SUCCESS;
 178              		.loc 1 197 5 is_stmt 1 view .LVU68
 179              	.LVL27:
 198:Drivers/CMSIS/DSP/Source/MatrixFunctions/arm_mat_trans_f32.c ****   }
 199:Drivers/CMSIS/DSP/Source/MatrixFunctions/arm_mat_trans_f32.c **** 
 200:Drivers/CMSIS/DSP/Source/MatrixFunctions/arm_mat_trans_f32.c ****   /* Return to application */
 201:Drivers/CMSIS/DSP/Source/MatrixFunctions/arm_mat_trans_f32.c ****   return (status);
 180              		.loc 1 201 3 view .LVU69
 202:Drivers/CMSIS/DSP/Source/MatrixFunctions/arm_mat_trans_f32.c **** }
 181              		.loc 1 202 1 is_stmt 0 view .LVU70
 182 007c 0020     		movs	r0, #0
 183              	.LVL28:
 184              		.loc 1 202 1 view .LVU71
 185 007e 30BD     		pop	{r4, r5, pc}
 186              		.loc 1 202 1 view .LVU72
 187              		.cfi_endproc
ARM GAS  /var/folders/n6/c271nzx11xl4r4_m7sqjlt0m0000gn/T//ccLoqEDL.s 			page 8


 188              	.LFE135:
 190              		.text
 191              	.Letext0:
 192              		.file 2 "/Users/killian/Library/Application Support/Code/User/globalStorage/bmd.stm32-for-vscode/@
 193              		.file 3 "/Users/killian/Library/Application Support/Code/User/globalStorage/bmd.stm32-for-vscode/@
 194              		.file 4 "Drivers/CMSIS/DSP/Include/arm_math.h"
ARM GAS  /var/folders/n6/c271nzx11xl4r4_m7sqjlt0m0000gn/T//ccLoqEDL.s 			page 9


DEFINED SYMBOLS
                            *ABS*:00000000 arm_mat_trans_f32.c
/var/folders/n6/c271nzx11xl4r4_m7sqjlt0m0000gn/T//ccLoqEDL.s:20     .text.arm_mat_trans_f32:00000000 $t
/var/folders/n6/c271nzx11xl4r4_m7sqjlt0m0000gn/T//ccLoqEDL.s:26     .text.arm_mat_trans_f32:00000000 arm_mat_trans_f32

NO UNDEFINED SYMBOLS
