ARM GAS  /var/folders/n6/c271nzx11xl4r4_m7sqjlt0m0000gn/T//ccJIZLIe.s 			page 1


   1              		.cpu cortex-m7
   2              		.arch armv7e-m
   3              		.fpu fpv5-d16
   4              		.eabi_attribute 28, 1
   5              		.eabi_attribute 20, 1
   6              		.eabi_attribute 21, 1
   7              		.eabi_attribute 23, 3
   8              		.eabi_attribute 24, 1
   9              		.eabi_attribute 25, 1
  10              		.eabi_attribute 26, 1
  11              		.eabi_attribute 30, 1
  12              		.eabi_attribute 34, 1
  13              		.eabi_attribute 18, 4
  14              		.file	"arm_conv_f32.c"
  15              		.text
  16              	.Ltext0:
  17              		.cfi_sections	.debug_frame
  18              		.file 1 "Drivers/CMSIS/DSP/Source/FilteringFunctions/arm_conv_f32.c"
  19              		.section	.text.arm_conv_f32,"ax",%progbits
  20              		.align	1
  21              		.global	arm_conv_f32
  22              		.syntax unified
  23              		.thumb
  24              		.thumb_func
  26              	arm_conv_f32:
  27              	.LVL0:
  28              	.LFB135:
   1:Drivers/CMSIS/DSP/Source/FilteringFunctions/arm_conv_f32.c **** /* ----------------------------------------------------------------------
   2:Drivers/CMSIS/DSP/Source/FilteringFunctions/arm_conv_f32.c ****  * Project:      CMSIS DSP Library
   3:Drivers/CMSIS/DSP/Source/FilteringFunctions/arm_conv_f32.c ****  * Title:        arm_conv_f32.c
   4:Drivers/CMSIS/DSP/Source/FilteringFunctions/arm_conv_f32.c ****  * Description:  Convolution of floating-point sequences
   5:Drivers/CMSIS/DSP/Source/FilteringFunctions/arm_conv_f32.c ****  *
   6:Drivers/CMSIS/DSP/Source/FilteringFunctions/arm_conv_f32.c ****  * $Date:        27. January 2017
   7:Drivers/CMSIS/DSP/Source/FilteringFunctions/arm_conv_f32.c ****  * $Revision:    V.1.5.1
   8:Drivers/CMSIS/DSP/Source/FilteringFunctions/arm_conv_f32.c ****  *
   9:Drivers/CMSIS/DSP/Source/FilteringFunctions/arm_conv_f32.c ****  * Target Processor: Cortex-M cores
  10:Drivers/CMSIS/DSP/Source/FilteringFunctions/arm_conv_f32.c ****  * -------------------------------------------------------------------- */
  11:Drivers/CMSIS/DSP/Source/FilteringFunctions/arm_conv_f32.c **** /*
  12:Drivers/CMSIS/DSP/Source/FilteringFunctions/arm_conv_f32.c ****  * Copyright (C) 2010-2017 ARM Limited or its affiliates. All rights reserved.
  13:Drivers/CMSIS/DSP/Source/FilteringFunctions/arm_conv_f32.c ****  *
  14:Drivers/CMSIS/DSP/Source/FilteringFunctions/arm_conv_f32.c ****  * SPDX-License-Identifier: Apache-2.0
  15:Drivers/CMSIS/DSP/Source/FilteringFunctions/arm_conv_f32.c ****  *
  16:Drivers/CMSIS/DSP/Source/FilteringFunctions/arm_conv_f32.c ****  * Licensed under the Apache License, Version 2.0 (the License); you may
  17:Drivers/CMSIS/DSP/Source/FilteringFunctions/arm_conv_f32.c ****  * not use this file except in compliance with the License.
  18:Drivers/CMSIS/DSP/Source/FilteringFunctions/arm_conv_f32.c ****  * You may obtain a copy of the License at
  19:Drivers/CMSIS/DSP/Source/FilteringFunctions/arm_conv_f32.c ****  *
  20:Drivers/CMSIS/DSP/Source/FilteringFunctions/arm_conv_f32.c ****  * www.apache.org/licenses/LICENSE-2.0
  21:Drivers/CMSIS/DSP/Source/FilteringFunctions/arm_conv_f32.c ****  *
  22:Drivers/CMSIS/DSP/Source/FilteringFunctions/arm_conv_f32.c ****  * Unless required by applicable law or agreed to in writing, software
  23:Drivers/CMSIS/DSP/Source/FilteringFunctions/arm_conv_f32.c ****  * distributed under the License is distributed on an AS IS BASIS, WITHOUT
  24:Drivers/CMSIS/DSP/Source/FilteringFunctions/arm_conv_f32.c ****  * WARRANTIES OR CONDITIONS OF ANY KIND, either express or implied.
  25:Drivers/CMSIS/DSP/Source/FilteringFunctions/arm_conv_f32.c ****  * See the License for the specific language governing permissions and
  26:Drivers/CMSIS/DSP/Source/FilteringFunctions/arm_conv_f32.c ****  * limitations under the License.
  27:Drivers/CMSIS/DSP/Source/FilteringFunctions/arm_conv_f32.c ****  */
  28:Drivers/CMSIS/DSP/Source/FilteringFunctions/arm_conv_f32.c **** 
  29:Drivers/CMSIS/DSP/Source/FilteringFunctions/arm_conv_f32.c **** #include "arm_math.h"
  30:Drivers/CMSIS/DSP/Source/FilteringFunctions/arm_conv_f32.c **** 
ARM GAS  /var/folders/n6/c271nzx11xl4r4_m7sqjlt0m0000gn/T//ccJIZLIe.s 			page 2


  31:Drivers/CMSIS/DSP/Source/FilteringFunctions/arm_conv_f32.c **** /**
  32:Drivers/CMSIS/DSP/Source/FilteringFunctions/arm_conv_f32.c ****  * @ingroup groupFilters
  33:Drivers/CMSIS/DSP/Source/FilteringFunctions/arm_conv_f32.c ****  */
  34:Drivers/CMSIS/DSP/Source/FilteringFunctions/arm_conv_f32.c **** 
  35:Drivers/CMSIS/DSP/Source/FilteringFunctions/arm_conv_f32.c **** /**
  36:Drivers/CMSIS/DSP/Source/FilteringFunctions/arm_conv_f32.c ****  * @defgroup Conv Convolution
  37:Drivers/CMSIS/DSP/Source/FilteringFunctions/arm_conv_f32.c ****  *
  38:Drivers/CMSIS/DSP/Source/FilteringFunctions/arm_conv_f32.c ****  * Convolution is a mathematical operation that operates on two finite length vectors to generate a
  39:Drivers/CMSIS/DSP/Source/FilteringFunctions/arm_conv_f32.c ****  * Convolution is similar to correlation and is frequently used in filtering and data analysis.
  40:Drivers/CMSIS/DSP/Source/FilteringFunctions/arm_conv_f32.c ****  * The CMSIS DSP library contains functions for convolving Q7, Q15, Q31, and floating-point data ty
  41:Drivers/CMSIS/DSP/Source/FilteringFunctions/arm_conv_f32.c ****  * The library also provides fast versions of the Q15 and Q31 functions on Cortex-M4 and Cortex-M3.
  42:Drivers/CMSIS/DSP/Source/FilteringFunctions/arm_conv_f32.c ****  *
  43:Drivers/CMSIS/DSP/Source/FilteringFunctions/arm_conv_f32.c ****  * \par Algorithm
  44:Drivers/CMSIS/DSP/Source/FilteringFunctions/arm_conv_f32.c ****  * Let <code>a[n]</code> and <code>b[n]</code> be sequences of length <code>srcALen</code> and <cod
  45:Drivers/CMSIS/DSP/Source/FilteringFunctions/arm_conv_f32.c ****  * Then the convolution
  46:Drivers/CMSIS/DSP/Source/FilteringFunctions/arm_conv_f32.c ****  *
  47:Drivers/CMSIS/DSP/Source/FilteringFunctions/arm_conv_f32.c ****  * <pre>
  48:Drivers/CMSIS/DSP/Source/FilteringFunctions/arm_conv_f32.c ****  *                   c[n] = a[n] * b[n]
  49:Drivers/CMSIS/DSP/Source/FilteringFunctions/arm_conv_f32.c ****  * </pre>
  50:Drivers/CMSIS/DSP/Source/FilteringFunctions/arm_conv_f32.c ****  *
  51:Drivers/CMSIS/DSP/Source/FilteringFunctions/arm_conv_f32.c ****  * \par
  52:Drivers/CMSIS/DSP/Source/FilteringFunctions/arm_conv_f32.c ****  * is defined as
  53:Drivers/CMSIS/DSP/Source/FilteringFunctions/arm_conv_f32.c ****  * \image html ConvolutionEquation.gif
  54:Drivers/CMSIS/DSP/Source/FilteringFunctions/arm_conv_f32.c ****  * \par
  55:Drivers/CMSIS/DSP/Source/FilteringFunctions/arm_conv_f32.c ****  * Note that <code>c[n]</code> is of length <code>srcALen + srcBLen - 1</code> and is defined over 
  56:Drivers/CMSIS/DSP/Source/FilteringFunctions/arm_conv_f32.c ****  * <code>pSrcA</code> points to the first input vector of length <code>srcALen</code> and
  57:Drivers/CMSIS/DSP/Source/FilteringFunctions/arm_conv_f32.c ****  * <code>pSrcB</code> points to the second input vector of length <code>srcBLen</code>.
  58:Drivers/CMSIS/DSP/Source/FilteringFunctions/arm_conv_f32.c ****  * The output result is written to <code>pDst</code> and the calling function must allocate <code>s
  59:Drivers/CMSIS/DSP/Source/FilteringFunctions/arm_conv_f32.c ****  *
  60:Drivers/CMSIS/DSP/Source/FilteringFunctions/arm_conv_f32.c ****  * \par
  61:Drivers/CMSIS/DSP/Source/FilteringFunctions/arm_conv_f32.c ****  * Conceptually, when two signals <code>a[n]</code> and <code>b[n]</code> are convolved,
  62:Drivers/CMSIS/DSP/Source/FilteringFunctions/arm_conv_f32.c ****  * the signal <code>b[n]</code> slides over <code>a[n]</code>.
  63:Drivers/CMSIS/DSP/Source/FilteringFunctions/arm_conv_f32.c ****  * For each offset \c n, the overlapping portions of a[n] and b[n] are multiplied and summed togeth
  64:Drivers/CMSIS/DSP/Source/FilteringFunctions/arm_conv_f32.c ****  *
  65:Drivers/CMSIS/DSP/Source/FilteringFunctions/arm_conv_f32.c ****  * \par
  66:Drivers/CMSIS/DSP/Source/FilteringFunctions/arm_conv_f32.c ****  * Note that convolution is a commutative operation:
  67:Drivers/CMSIS/DSP/Source/FilteringFunctions/arm_conv_f32.c ****  *
  68:Drivers/CMSIS/DSP/Source/FilteringFunctions/arm_conv_f32.c ****  * <pre>
  69:Drivers/CMSIS/DSP/Source/FilteringFunctions/arm_conv_f32.c ****  *                   a[n] * b[n] = b[n] * a[n].
  70:Drivers/CMSIS/DSP/Source/FilteringFunctions/arm_conv_f32.c ****  * </pre>
  71:Drivers/CMSIS/DSP/Source/FilteringFunctions/arm_conv_f32.c ****  *
  72:Drivers/CMSIS/DSP/Source/FilteringFunctions/arm_conv_f32.c ****  * \par
  73:Drivers/CMSIS/DSP/Source/FilteringFunctions/arm_conv_f32.c ****  * This means that switching the A and B arguments to the convolution functions has no effect.
  74:Drivers/CMSIS/DSP/Source/FilteringFunctions/arm_conv_f32.c ****  *
  75:Drivers/CMSIS/DSP/Source/FilteringFunctions/arm_conv_f32.c ****  * <b>Fixed-Point Behavior</b>
  76:Drivers/CMSIS/DSP/Source/FilteringFunctions/arm_conv_f32.c ****  *
  77:Drivers/CMSIS/DSP/Source/FilteringFunctions/arm_conv_f32.c ****  * \par
  78:Drivers/CMSIS/DSP/Source/FilteringFunctions/arm_conv_f32.c ****  * Convolution requires summing up a large number of intermediate products.
  79:Drivers/CMSIS/DSP/Source/FilteringFunctions/arm_conv_f32.c ****  * As such, the Q7, Q15, and Q31 functions run a risk of overflow and saturation.
  80:Drivers/CMSIS/DSP/Source/FilteringFunctions/arm_conv_f32.c ****  * Refer to the function specific documentation below for further details of the particular algorit
  81:Drivers/CMSIS/DSP/Source/FilteringFunctions/arm_conv_f32.c ****  *
  82:Drivers/CMSIS/DSP/Source/FilteringFunctions/arm_conv_f32.c ****  *
  83:Drivers/CMSIS/DSP/Source/FilteringFunctions/arm_conv_f32.c ****  * <b>Fast Versions</b>
  84:Drivers/CMSIS/DSP/Source/FilteringFunctions/arm_conv_f32.c ****  *
  85:Drivers/CMSIS/DSP/Source/FilteringFunctions/arm_conv_f32.c ****  * \par
  86:Drivers/CMSIS/DSP/Source/FilteringFunctions/arm_conv_f32.c ****  * Fast versions are supported for Q31 and Q15.  Cycles for Fast versions are less compared to Q31 
  87:Drivers/CMSIS/DSP/Source/FilteringFunctions/arm_conv_f32.c ****  * the input signals should be scaled down to avoid intermediate overflows.
ARM GAS  /var/folders/n6/c271nzx11xl4r4_m7sqjlt0m0000gn/T//ccJIZLIe.s 			page 3


  88:Drivers/CMSIS/DSP/Source/FilteringFunctions/arm_conv_f32.c ****  *
  89:Drivers/CMSIS/DSP/Source/FilteringFunctions/arm_conv_f32.c ****  *
  90:Drivers/CMSIS/DSP/Source/FilteringFunctions/arm_conv_f32.c ****  * <b>Opt Versions</b>
  91:Drivers/CMSIS/DSP/Source/FilteringFunctions/arm_conv_f32.c ****  *
  92:Drivers/CMSIS/DSP/Source/FilteringFunctions/arm_conv_f32.c ****  * \par
  93:Drivers/CMSIS/DSP/Source/FilteringFunctions/arm_conv_f32.c ****  * Opt versions are supported for Q15 and Q7.  Design uses internal scratch buffer for getting good
  94:Drivers/CMSIS/DSP/Source/FilteringFunctions/arm_conv_f32.c ****  * These versions are optimised in cycles and consumes more memory(Scratch memory) compared to Q15 
  95:Drivers/CMSIS/DSP/Source/FilteringFunctions/arm_conv_f32.c ****  */
  96:Drivers/CMSIS/DSP/Source/FilteringFunctions/arm_conv_f32.c **** 
  97:Drivers/CMSIS/DSP/Source/FilteringFunctions/arm_conv_f32.c **** /**
  98:Drivers/CMSIS/DSP/Source/FilteringFunctions/arm_conv_f32.c ****  * @addtogroup Conv
  99:Drivers/CMSIS/DSP/Source/FilteringFunctions/arm_conv_f32.c ****  * @{
 100:Drivers/CMSIS/DSP/Source/FilteringFunctions/arm_conv_f32.c ****  */
 101:Drivers/CMSIS/DSP/Source/FilteringFunctions/arm_conv_f32.c **** 
 102:Drivers/CMSIS/DSP/Source/FilteringFunctions/arm_conv_f32.c **** /**
 103:Drivers/CMSIS/DSP/Source/FilteringFunctions/arm_conv_f32.c ****  * @brief Convolution of floating-point sequences.
 104:Drivers/CMSIS/DSP/Source/FilteringFunctions/arm_conv_f32.c ****  * @param[in] *pSrcA points to the first input sequence.
 105:Drivers/CMSIS/DSP/Source/FilteringFunctions/arm_conv_f32.c ****  * @param[in] srcALen length of the first input sequence.
 106:Drivers/CMSIS/DSP/Source/FilteringFunctions/arm_conv_f32.c ****  * @param[in] *pSrcB points to the second input sequence.
 107:Drivers/CMSIS/DSP/Source/FilteringFunctions/arm_conv_f32.c ****  * @param[in] srcBLen length of the second input sequence.
 108:Drivers/CMSIS/DSP/Source/FilteringFunctions/arm_conv_f32.c ****  * @param[out] *pDst points to the location where the output result is written.  Length srcALen+src
 109:Drivers/CMSIS/DSP/Source/FilteringFunctions/arm_conv_f32.c ****  * @return none.
 110:Drivers/CMSIS/DSP/Source/FilteringFunctions/arm_conv_f32.c ****  */
 111:Drivers/CMSIS/DSP/Source/FilteringFunctions/arm_conv_f32.c **** 
 112:Drivers/CMSIS/DSP/Source/FilteringFunctions/arm_conv_f32.c **** void arm_conv_f32(
 113:Drivers/CMSIS/DSP/Source/FilteringFunctions/arm_conv_f32.c ****   float32_t * pSrcA,
 114:Drivers/CMSIS/DSP/Source/FilteringFunctions/arm_conv_f32.c ****   uint32_t srcALen,
 115:Drivers/CMSIS/DSP/Source/FilteringFunctions/arm_conv_f32.c ****   float32_t * pSrcB,
 116:Drivers/CMSIS/DSP/Source/FilteringFunctions/arm_conv_f32.c ****   uint32_t srcBLen,
 117:Drivers/CMSIS/DSP/Source/FilteringFunctions/arm_conv_f32.c ****   float32_t * pDst)
 118:Drivers/CMSIS/DSP/Source/FilteringFunctions/arm_conv_f32.c **** {
  29              		.loc 1 118 1 view -0
  30              		.cfi_startproc
  31              		@ args = 4, pretend = 0, frame = 0
  32              		@ frame_needed = 0, uses_anonymous_args = 0
  33              		.loc 1 118 1 is_stmt 0 view .LVU1
  34 0000 2DE9F047 		push	{r4, r5, r6, r7, r8, r9, r10, lr}
  35              		.cfi_def_cfa_offset 32
  36              		.cfi_offset 4, -32
  37              		.cfi_offset 5, -28
  38              		.cfi_offset 6, -24
  39              		.cfi_offset 7, -20
  40              		.cfi_offset 8, -16
  41              		.cfi_offset 9, -12
  42              		.cfi_offset 10, -8
  43              		.cfi_offset 14, -4
  44 0004 0546     		mov	r5, r0
  45 0006 0C46     		mov	r4, r1
  46 0008 9646     		mov	lr, r2
  47 000a 089A     		ldr	r2, [sp, #32]
  48              	.LVL1:
 119:Drivers/CMSIS/DSP/Source/FilteringFunctions/arm_conv_f32.c **** 
 120:Drivers/CMSIS/DSP/Source/FilteringFunctions/arm_conv_f32.c **** 
 121:Drivers/CMSIS/DSP/Source/FilteringFunctions/arm_conv_f32.c **** #if defined (ARM_MATH_DSP)
 122:Drivers/CMSIS/DSP/Source/FilteringFunctions/arm_conv_f32.c **** 
 123:Drivers/CMSIS/DSP/Source/FilteringFunctions/arm_conv_f32.c ****   /* Run the below code for Cortex-M4 and Cortex-M3 */
 124:Drivers/CMSIS/DSP/Source/FilteringFunctions/arm_conv_f32.c **** 
ARM GAS  /var/folders/n6/c271nzx11xl4r4_m7sqjlt0m0000gn/T//ccJIZLIe.s 			page 4


 125:Drivers/CMSIS/DSP/Source/FilteringFunctions/arm_conv_f32.c ****   float32_t *pIn1;                               /* inputA pointer */
  49              		.loc 1 125 3 is_stmt 1 view .LVU2
 126:Drivers/CMSIS/DSP/Source/FilteringFunctions/arm_conv_f32.c ****   float32_t *pIn2;                               /* inputB pointer */
  50              		.loc 1 126 3 view .LVU3
 127:Drivers/CMSIS/DSP/Source/FilteringFunctions/arm_conv_f32.c ****   float32_t *pOut = pDst;                        /* output pointer */
  51              		.loc 1 127 3 view .LVU4
 128:Drivers/CMSIS/DSP/Source/FilteringFunctions/arm_conv_f32.c ****   float32_t *px;                                 /* Intermediate inputA pointer */
  52              		.loc 1 128 3 view .LVU5
 129:Drivers/CMSIS/DSP/Source/FilteringFunctions/arm_conv_f32.c ****   float32_t *py;                                 /* Intermediate inputB pointer */
  53              		.loc 1 129 3 view .LVU6
 130:Drivers/CMSIS/DSP/Source/FilteringFunctions/arm_conv_f32.c ****   float32_t *pSrc1, *pSrc2;                      /* Intermediate pointers */
  54              		.loc 1 130 3 view .LVU7
 131:Drivers/CMSIS/DSP/Source/FilteringFunctions/arm_conv_f32.c ****   float32_t sum, acc0, acc1, acc2, acc3;         /* Accumulator */
  55              		.loc 1 131 3 view .LVU8
 132:Drivers/CMSIS/DSP/Source/FilteringFunctions/arm_conv_f32.c ****   float32_t x0, x1, x2, x3, c0;                  /* Temporary variables to hold state and coefficie
  56              		.loc 1 132 3 view .LVU9
 133:Drivers/CMSIS/DSP/Source/FilteringFunctions/arm_conv_f32.c ****   uint32_t j, k, count, blkCnt, blockSize1, blockSize2, blockSize3;     /* loop counters */
  57              		.loc 1 133 3 view .LVU10
 134:Drivers/CMSIS/DSP/Source/FilteringFunctions/arm_conv_f32.c **** 
 135:Drivers/CMSIS/DSP/Source/FilteringFunctions/arm_conv_f32.c ****   /* The algorithm implementation is based on the lengths of the inputs. */
 136:Drivers/CMSIS/DSP/Source/FilteringFunctions/arm_conv_f32.c ****   /* srcB is always made to slide across srcA. */
 137:Drivers/CMSIS/DSP/Source/FilteringFunctions/arm_conv_f32.c ****   /* So srcBLen is always considered as shorter or equal to srcALen */
 138:Drivers/CMSIS/DSP/Source/FilteringFunctions/arm_conv_f32.c ****   if (srcALen >= srcBLen)
  58              		.loc 1 138 3 view .LVU11
  59              		.loc 1 138 6 is_stmt 0 view .LVU12
  60 000c 9942     		cmp	r1, r3
  61 000e 05D3     		bcc	.L2
  62 0010 7146     		mov	r1, lr
  63              	.LVL2:
 139:Drivers/CMSIS/DSP/Source/FilteringFunctions/arm_conv_f32.c ****   {
 140:Drivers/CMSIS/DSP/Source/FilteringFunctions/arm_conv_f32.c ****     /* Initialization of inputA pointer */
 141:Drivers/CMSIS/DSP/Source/FilteringFunctions/arm_conv_f32.c ****     pIn1 = pSrcA;
  64              		.loc 1 141 10 view .LVU13
  65 0012 8646     		mov	lr, r0
  66              	.LVL3:
 142:Drivers/CMSIS/DSP/Source/FilteringFunctions/arm_conv_f32.c **** 
 143:Drivers/CMSIS/DSP/Source/FilteringFunctions/arm_conv_f32.c ****     /* Initialization of inputB pointer */
 144:Drivers/CMSIS/DSP/Source/FilteringFunctions/arm_conv_f32.c ****     pIn2 = pSrcB;
  67              		.loc 1 144 10 view .LVU14
  68 0014 0D46     		mov	r5, r1
 138:Drivers/CMSIS/DSP/Source/FilteringFunctions/arm_conv_f32.c ****   {
  69              		.loc 1 138 6 view .LVU15
  70 0016 1946     		mov	r1, r3
  71              	.LVL4:
 138:Drivers/CMSIS/DSP/Source/FilteringFunctions/arm_conv_f32.c ****   {
  72              		.loc 1 138 6 view .LVU16
  73 0018 2346     		mov	r3, r4
  74              	.LVL5:
 138:Drivers/CMSIS/DSP/Source/FilteringFunctions/arm_conv_f32.c ****   {
  75              		.loc 1 138 6 view .LVU17
  76 001a 0C46     		mov	r4, r1
  77              	.LVL6:
  78              	.L2:
 145:Drivers/CMSIS/DSP/Source/FilteringFunctions/arm_conv_f32.c ****   }
 146:Drivers/CMSIS/DSP/Source/FilteringFunctions/arm_conv_f32.c ****   else
 147:Drivers/CMSIS/DSP/Source/FilteringFunctions/arm_conv_f32.c ****   {
 148:Drivers/CMSIS/DSP/Source/FilteringFunctions/arm_conv_f32.c ****     /* Initialization of inputA pointer */
ARM GAS  /var/folders/n6/c271nzx11xl4r4_m7sqjlt0m0000gn/T//ccJIZLIe.s 			page 5


 149:Drivers/CMSIS/DSP/Source/FilteringFunctions/arm_conv_f32.c ****     pIn1 = pSrcB;
 150:Drivers/CMSIS/DSP/Source/FilteringFunctions/arm_conv_f32.c **** 
 151:Drivers/CMSIS/DSP/Source/FilteringFunctions/arm_conv_f32.c ****     /* Initialization of inputB pointer */
 152:Drivers/CMSIS/DSP/Source/FilteringFunctions/arm_conv_f32.c ****     pIn2 = pSrcA;
 153:Drivers/CMSIS/DSP/Source/FilteringFunctions/arm_conv_f32.c **** 
 154:Drivers/CMSIS/DSP/Source/FilteringFunctions/arm_conv_f32.c ****     /* srcBLen is always considered as shorter or equal to srcALen */
 155:Drivers/CMSIS/DSP/Source/FilteringFunctions/arm_conv_f32.c ****     j = srcBLen;
 156:Drivers/CMSIS/DSP/Source/FilteringFunctions/arm_conv_f32.c ****     srcBLen = srcALen;
 157:Drivers/CMSIS/DSP/Source/FilteringFunctions/arm_conv_f32.c ****     srcALen = j;
 158:Drivers/CMSIS/DSP/Source/FilteringFunctions/arm_conv_f32.c ****   }
 159:Drivers/CMSIS/DSP/Source/FilteringFunctions/arm_conv_f32.c **** 
 160:Drivers/CMSIS/DSP/Source/FilteringFunctions/arm_conv_f32.c ****   /* conv(x,y) at n = x[n] * y[0] + x[n-1] * y[1] + x[n-2] * y[2] + ...+ x[n-N+1] * y[N -1] */
 161:Drivers/CMSIS/DSP/Source/FilteringFunctions/arm_conv_f32.c ****   /* The function is internally
 162:Drivers/CMSIS/DSP/Source/FilteringFunctions/arm_conv_f32.c ****    * divided into three stages according to the number of multiplications that has to be
 163:Drivers/CMSIS/DSP/Source/FilteringFunctions/arm_conv_f32.c ****    * taken place between inputA samples and inputB samples. In the first stage of the
 164:Drivers/CMSIS/DSP/Source/FilteringFunctions/arm_conv_f32.c ****    * algorithm, the multiplications increase by one for every iteration.
 165:Drivers/CMSIS/DSP/Source/FilteringFunctions/arm_conv_f32.c ****    * In the second stage of the algorithm, srcBLen number of multiplications are done.
 166:Drivers/CMSIS/DSP/Source/FilteringFunctions/arm_conv_f32.c ****    * In the third stage of the algorithm, the multiplications decrease by one
 167:Drivers/CMSIS/DSP/Source/FilteringFunctions/arm_conv_f32.c ****    * for every iteration. */
 168:Drivers/CMSIS/DSP/Source/FilteringFunctions/arm_conv_f32.c **** 
 169:Drivers/CMSIS/DSP/Source/FilteringFunctions/arm_conv_f32.c ****   /* The algorithm is implemented in three stages.
 170:Drivers/CMSIS/DSP/Source/FilteringFunctions/arm_conv_f32.c ****      The loop counters of each stage is initiated here. */
 171:Drivers/CMSIS/DSP/Source/FilteringFunctions/arm_conv_f32.c ****   blockSize1 = srcBLen - 1U;
  79              		.loc 1 171 3 is_stmt 1 view .LVU18
  80              		.loc 1 171 14 is_stmt 0 view .LVU19
  81 001c 601E     		subs	r0, r4, #1
  82              	.LVL7:
 172:Drivers/CMSIS/DSP/Source/FilteringFunctions/arm_conv_f32.c ****   blockSize2 = srcALen - (srcBLen - 1U);
  83              		.loc 1 172 3 is_stmt 1 view .LVU20
  84              		.loc 1 172 24 is_stmt 0 view .LVU21
  85 001e 1B1B     		subs	r3, r3, r4
  86              	.LVL8:
  87              		.loc 1 172 14 view .LVU22
  88 0020 03F1010A 		add	r10, r3, #1
  89              	.LVL9:
 173:Drivers/CMSIS/DSP/Source/FilteringFunctions/arm_conv_f32.c ****   blockSize3 = blockSize1;
  90              		.loc 1 173 3 is_stmt 1 view .LVU23
 174:Drivers/CMSIS/DSP/Source/FilteringFunctions/arm_conv_f32.c **** 
 175:Drivers/CMSIS/DSP/Source/FilteringFunctions/arm_conv_f32.c ****   /* --------------------------
 176:Drivers/CMSIS/DSP/Source/FilteringFunctions/arm_conv_f32.c ****    * initializations of stage1
 177:Drivers/CMSIS/DSP/Source/FilteringFunctions/arm_conv_f32.c ****    * -------------------------*/
 178:Drivers/CMSIS/DSP/Source/FilteringFunctions/arm_conv_f32.c **** 
 179:Drivers/CMSIS/DSP/Source/FilteringFunctions/arm_conv_f32.c ****   /* sum = x[0] * y[0]
 180:Drivers/CMSIS/DSP/Source/FilteringFunctions/arm_conv_f32.c ****    * sum = x[0] * y[1] + x[1] * y[0]
 181:Drivers/CMSIS/DSP/Source/FilteringFunctions/arm_conv_f32.c ****    * ....
 182:Drivers/CMSIS/DSP/Source/FilteringFunctions/arm_conv_f32.c ****    * sum = x[0] * y[srcBlen - 1] + x[1] * y[srcBlen - 2] +...+ x[srcBLen - 1] * y[0]
 183:Drivers/CMSIS/DSP/Source/FilteringFunctions/arm_conv_f32.c ****    */
 184:Drivers/CMSIS/DSP/Source/FilteringFunctions/arm_conv_f32.c **** 
 185:Drivers/CMSIS/DSP/Source/FilteringFunctions/arm_conv_f32.c ****   /* In this stage the MAC operations are increased by 1 for every iteration.
 186:Drivers/CMSIS/DSP/Source/FilteringFunctions/arm_conv_f32.c ****      The count variable holds the number of MAC operations performed */
 187:Drivers/CMSIS/DSP/Source/FilteringFunctions/arm_conv_f32.c ****   count = 1U;
  91              		.loc 1 187 3 view .LVU24
 188:Drivers/CMSIS/DSP/Source/FilteringFunctions/arm_conv_f32.c **** 
 189:Drivers/CMSIS/DSP/Source/FilteringFunctions/arm_conv_f32.c ****   /* Working pointer of inputA */
 190:Drivers/CMSIS/DSP/Source/FilteringFunctions/arm_conv_f32.c ****   px = pIn1;
  92              		.loc 1 190 3 view .LVU25
 191:Drivers/CMSIS/DSP/Source/FilteringFunctions/arm_conv_f32.c **** 
ARM GAS  /var/folders/n6/c271nzx11xl4r4_m7sqjlt0m0000gn/T//ccJIZLIe.s 			page 6


 192:Drivers/CMSIS/DSP/Source/FilteringFunctions/arm_conv_f32.c ****   /* Working pointer of inputB */
 193:Drivers/CMSIS/DSP/Source/FilteringFunctions/arm_conv_f32.c ****   py = pIn2;
  93              		.loc 1 193 3 view .LVU26
 194:Drivers/CMSIS/DSP/Source/FilteringFunctions/arm_conv_f32.c **** 
 195:Drivers/CMSIS/DSP/Source/FilteringFunctions/arm_conv_f32.c **** 
 196:Drivers/CMSIS/DSP/Source/FilteringFunctions/arm_conv_f32.c ****   /* ------------------------
 197:Drivers/CMSIS/DSP/Source/FilteringFunctions/arm_conv_f32.c ****    * Stage1 process
 198:Drivers/CMSIS/DSP/Source/FilteringFunctions/arm_conv_f32.c ****    * ----------------------*/
 199:Drivers/CMSIS/DSP/Source/FilteringFunctions/arm_conv_f32.c **** 
 200:Drivers/CMSIS/DSP/Source/FilteringFunctions/arm_conv_f32.c ****   /* The first stage starts here */
 201:Drivers/CMSIS/DSP/Source/FilteringFunctions/arm_conv_f32.c ****   while (blockSize1 > 0U)
  94              		.loc 1 201 3 view .LVU27
 171:Drivers/CMSIS/DSP/Source/FilteringFunctions/arm_conv_f32.c ****   blockSize2 = srcALen - (srcBLen - 1U);
  95              		.loc 1 171 14 is_stmt 0 view .LVU28
  96 0024 0146     		mov	r1, r0
 193:Drivers/CMSIS/DSP/Source/FilteringFunctions/arm_conv_f32.c **** 
  97              		.loc 1 193 6 view .LVU29
  98 0026 2B46     		mov	r3, r5
 187:Drivers/CMSIS/DSP/Source/FilteringFunctions/arm_conv_f32.c **** 
  99              		.loc 1 187 9 view .LVU30
 100 0028 4FF00108 		mov	r8, #1
 101              		.loc 1 201 9 view .LVU31
 102 002c 3CE0     		b	.L3
 103              	.LVL10:
 104              	.L5:
 202:Drivers/CMSIS/DSP/Source/FilteringFunctions/arm_conv_f32.c ****   {
 203:Drivers/CMSIS/DSP/Source/FilteringFunctions/arm_conv_f32.c ****     /* Accumulator is made zero for every iteration */
 204:Drivers/CMSIS/DSP/Source/FilteringFunctions/arm_conv_f32.c ****     sum = 0.0f;
 205:Drivers/CMSIS/DSP/Source/FilteringFunctions/arm_conv_f32.c **** 
 206:Drivers/CMSIS/DSP/Source/FilteringFunctions/arm_conv_f32.c ****     /* Apply loop unrolling and compute 4 MACs simultaneously. */
 207:Drivers/CMSIS/DSP/Source/FilteringFunctions/arm_conv_f32.c ****     k = count >> 2U;
 208:Drivers/CMSIS/DSP/Source/FilteringFunctions/arm_conv_f32.c **** 
 209:Drivers/CMSIS/DSP/Source/FilteringFunctions/arm_conv_f32.c ****     /* First part of the processing with loop unrolling.  Compute 4 MACs at a time.
 210:Drivers/CMSIS/DSP/Source/FilteringFunctions/arm_conv_f32.c ****      ** a second loop below computes MACs for the remaining 1 to 3 samples. */
 211:Drivers/CMSIS/DSP/Source/FilteringFunctions/arm_conv_f32.c ****     while (k > 0U)
 212:Drivers/CMSIS/DSP/Source/FilteringFunctions/arm_conv_f32.c ****     {
 213:Drivers/CMSIS/DSP/Source/FilteringFunctions/arm_conv_f32.c ****       /* x[0] * y[srcBLen - 1] */
 214:Drivers/CMSIS/DSP/Source/FilteringFunctions/arm_conv_f32.c ****       sum += *px++ * *py--;
 105              		.loc 1 214 7 is_stmt 1 view .LVU32
 106              		.loc 1 214 14 is_stmt 0 view .LVU33
 107 002e 9CED007A 		vldr.32	s14, [ip]
 108              	.LVL11:
 109              		.loc 1 214 22 view .LVU34
 110 0032 D3ED006A 		vldr.32	s13, [r3]
 111              		.loc 1 214 20 view .LVU35
 112 0036 27EE267A 		vmul.f32	s14, s14, s13
 113              		.loc 1 214 11 view .LVU36
 114 003a 77EE877A 		vadd.f32	s15, s15, s14
 115              	.LVL12:
 215:Drivers/CMSIS/DSP/Source/FilteringFunctions/arm_conv_f32.c **** 
 216:Drivers/CMSIS/DSP/Source/FilteringFunctions/arm_conv_f32.c ****       /* x[1] * y[srcBLen - 2] */
 217:Drivers/CMSIS/DSP/Source/FilteringFunctions/arm_conv_f32.c ****       sum += *px++ * *py--;
 116              		.loc 1 217 7 is_stmt 1 view .LVU37
 117              		.loc 1 217 14 is_stmt 0 view .LVU38
 118 003e 9CED017A 		vldr.32	s14, [ip, #4]
 119              	.LVL13:
 120              		.loc 1 217 22 view .LVU39
ARM GAS  /var/folders/n6/c271nzx11xl4r4_m7sqjlt0m0000gn/T//ccJIZLIe.s 			page 7


 121 0042 53ED016A 		vldr.32	s13, [r3, #-4]
 122              		.loc 1 217 20 view .LVU40
 123 0046 27EE267A 		vmul.f32	s14, s14, s13
 124              		.loc 1 217 11 view .LVU41
 125 004a 77EE877A 		vadd.f32	s15, s15, s14
 126              	.LVL14:
 218:Drivers/CMSIS/DSP/Source/FilteringFunctions/arm_conv_f32.c **** 
 219:Drivers/CMSIS/DSP/Source/FilteringFunctions/arm_conv_f32.c ****       /* x[2] * y[srcBLen - 3] */
 220:Drivers/CMSIS/DSP/Source/FilteringFunctions/arm_conv_f32.c ****       sum += *px++ * *py--;
 127              		.loc 1 220 7 is_stmt 1 view .LVU42
 128              		.loc 1 220 14 is_stmt 0 view .LVU43
 129 004e 9CED027A 		vldr.32	s14, [ip, #8]
 130              	.LVL15:
 131              		.loc 1 220 22 view .LVU44
 132 0052 53ED026A 		vldr.32	s13, [r3, #-8]
 133              		.loc 1 220 20 view .LVU45
 134 0056 27EE267A 		vmul.f32	s14, s14, s13
 135              		.loc 1 220 11 view .LVU46
 136 005a 77EE877A 		vadd.f32	s15, s15, s14
 137              	.LVL16:
 221:Drivers/CMSIS/DSP/Source/FilteringFunctions/arm_conv_f32.c **** 
 222:Drivers/CMSIS/DSP/Source/FilteringFunctions/arm_conv_f32.c ****       /* x[3] * y[srcBLen - 4] */
 223:Drivers/CMSIS/DSP/Source/FilteringFunctions/arm_conv_f32.c ****       sum += *px++ * *py--;
 138              		.loc 1 223 7 is_stmt 1 view .LVU47
 139              		.loc 1 223 14 is_stmt 0 view .LVU48
 140 005e 9CED037A 		vldr.32	s14, [ip, #12]
 141              	.LVL17:
 142              		.loc 1 223 22 view .LVU49
 143 0062 53ED036A 		vldr.32	s13, [r3, #-12]
 144              		.loc 1 223 20 view .LVU50
 145 0066 27EE267A 		vmul.f32	s14, s14, s13
 146              		.loc 1 223 11 view .LVU51
 147 006a 77EE877A 		vadd.f32	s15, s15, s14
 148              	.LVL18:
 224:Drivers/CMSIS/DSP/Source/FilteringFunctions/arm_conv_f32.c **** 
 225:Drivers/CMSIS/DSP/Source/FilteringFunctions/arm_conv_f32.c ****       /* Decrement the loop counter */
 226:Drivers/CMSIS/DSP/Source/FilteringFunctions/arm_conv_f32.c ****       k--;
 149              		.loc 1 226 7 is_stmt 1 view .LVU52
 150              		.loc 1 226 8 is_stmt 0 view .LVU53
 151 006e 013F     		subs	r7, r7, #1
 152              	.LVL19:
 223:Drivers/CMSIS/DSP/Source/FilteringFunctions/arm_conv_f32.c **** 
 153              		.loc 1 223 25 view .LVU54
 154 0070 103B     		subs	r3, r3, #16
 155              	.LVL20:
 223:Drivers/CMSIS/DSP/Source/FilteringFunctions/arm_conv_f32.c **** 
 156              		.loc 1 223 17 view .LVU55
 157 0072 0CF1100C 		add	ip, ip, #16
 158              	.LVL21:
 159              	.L4:
 211:Drivers/CMSIS/DSP/Source/FilteringFunctions/arm_conv_f32.c ****     {
 160              		.loc 1 211 14 is_stmt 1 view .LVU56
 161 0076 002F     		cmp	r7, #0
 162 0078 D9D1     		bne	.L5
 227:Drivers/CMSIS/DSP/Source/FilteringFunctions/arm_conv_f32.c ****     }
 228:Drivers/CMSIS/DSP/Source/FilteringFunctions/arm_conv_f32.c **** 
 229:Drivers/CMSIS/DSP/Source/FilteringFunctions/arm_conv_f32.c ****     /* If the count is not a multiple of 4, compute any remaining MACs here.
ARM GAS  /var/folders/n6/c271nzx11xl4r4_m7sqjlt0m0000gn/T//ccJIZLIe.s 			page 8


 230:Drivers/CMSIS/DSP/Source/FilteringFunctions/arm_conv_f32.c ****      ** No loop unrolling is used. */
 231:Drivers/CMSIS/DSP/Source/FilteringFunctions/arm_conv_f32.c ****     k = count % 0x4U;
 163              		.loc 1 231 5 view .LVU57
 164              		.loc 1 231 7 is_stmt 0 view .LVU58
 165 007a 08F00307 		and	r7, r8, #3
 166              	.LVL22:
 232:Drivers/CMSIS/DSP/Source/FilteringFunctions/arm_conv_f32.c **** 
 233:Drivers/CMSIS/DSP/Source/FilteringFunctions/arm_conv_f32.c ****     while (k > 0U)
 167              		.loc 1 233 5 is_stmt 1 view .LVU59
 168              		.loc 1 233 11 is_stmt 0 view .LVU60
 169 007e 0AE0     		b	.L6
 170              	.L7:
 234:Drivers/CMSIS/DSP/Source/FilteringFunctions/arm_conv_f32.c ****     {
 235:Drivers/CMSIS/DSP/Source/FilteringFunctions/arm_conv_f32.c ****       /* Perform the multiply-accumulate */
 236:Drivers/CMSIS/DSP/Source/FilteringFunctions/arm_conv_f32.c ****       sum += *px++ * *py--;
 171              		.loc 1 236 7 is_stmt 1 view .LVU61
 172              	.LVL23:
 173              		.loc 1 236 14 is_stmt 0 view .LVU62
 174 0080 BCEC017A 		vldmia.32	ip!, {s14}
 175              	.LVL24:
 176              		.loc 1 236 22 view .LVU63
 177 0084 1E46     		mov	r6, r3
 178 0086 043B     		subs	r3, r3, #4
 179              	.LVL25:
 180              		.loc 1 236 22 view .LVU64
 181 0088 D6ED006A 		vldr.32	s13, [r6]
 182              		.loc 1 236 20 view .LVU65
 183 008c 27EE267A 		vmul.f32	s14, s14, s13
 184              		.loc 1 236 11 view .LVU66
 185 0090 77EE877A 		vadd.f32	s15, s15, s14
 186              	.LVL26:
 237:Drivers/CMSIS/DSP/Source/FilteringFunctions/arm_conv_f32.c **** 
 238:Drivers/CMSIS/DSP/Source/FilteringFunctions/arm_conv_f32.c ****       /* Decrement the loop counter */
 239:Drivers/CMSIS/DSP/Source/FilteringFunctions/arm_conv_f32.c ****       k--;
 187              		.loc 1 239 7 is_stmt 1 view .LVU67
 188              		.loc 1 239 8 is_stmt 0 view .LVU68
 189 0094 013F     		subs	r7, r7, #1
 190              	.LVL27:
 191              	.L6:
 233:Drivers/CMSIS/DSP/Source/FilteringFunctions/arm_conv_f32.c ****     {
 192              		.loc 1 233 14 is_stmt 1 view .LVU69
 193 0096 002F     		cmp	r7, #0
 194 0098 F2D1     		bne	.L7
 240:Drivers/CMSIS/DSP/Source/FilteringFunctions/arm_conv_f32.c ****     }
 241:Drivers/CMSIS/DSP/Source/FilteringFunctions/arm_conv_f32.c **** 
 242:Drivers/CMSIS/DSP/Source/FilteringFunctions/arm_conv_f32.c ****     /* Store the result in the accumulator in the destination buffer. */
 243:Drivers/CMSIS/DSP/Source/FilteringFunctions/arm_conv_f32.c ****     *pOut++ = sum;
 195              		.loc 1 243 5 view .LVU70
 196              	.LVL28:
 197              		.loc 1 243 13 is_stmt 0 view .LVU71
 198 009a E2EC017A 		vstmia.32	r2!, {s15}
 199              	.LVL29:
 244:Drivers/CMSIS/DSP/Source/FilteringFunctions/arm_conv_f32.c **** 
 245:Drivers/CMSIS/DSP/Source/FilteringFunctions/arm_conv_f32.c ****     /* Update the inputA and inputB pointers for next MAC calculation */
 246:Drivers/CMSIS/DSP/Source/FilteringFunctions/arm_conv_f32.c ****     py = pIn2 + count;
 200              		.loc 1 246 5 is_stmt 1 view .LVU72
 201              		.loc 1 246 8 is_stmt 0 view .LVU73
ARM GAS  /var/folders/n6/c271nzx11xl4r4_m7sqjlt0m0000gn/T//ccJIZLIe.s 			page 9


 202 009e 05EB8803 		add	r3, r5, r8, lsl #2
 203              	.LVL30:
 247:Drivers/CMSIS/DSP/Source/FilteringFunctions/arm_conv_f32.c ****     px = pIn1;
 204              		.loc 1 247 5 is_stmt 1 view .LVU74
 248:Drivers/CMSIS/DSP/Source/FilteringFunctions/arm_conv_f32.c **** 
 249:Drivers/CMSIS/DSP/Source/FilteringFunctions/arm_conv_f32.c ****     /* Increment the MAC count */
 250:Drivers/CMSIS/DSP/Source/FilteringFunctions/arm_conv_f32.c ****     count++;
 205              		.loc 1 250 5 view .LVU75
 206              		.loc 1 250 10 is_stmt 0 view .LVU76
 207 00a2 08F10108 		add	r8, r8, #1
 208              	.LVL31:
 251:Drivers/CMSIS/DSP/Source/FilteringFunctions/arm_conv_f32.c **** 
 252:Drivers/CMSIS/DSP/Source/FilteringFunctions/arm_conv_f32.c ****     /* Decrement the loop counter */
 253:Drivers/CMSIS/DSP/Source/FilteringFunctions/arm_conv_f32.c ****     blockSize1--;
 209              		.loc 1 253 5 is_stmt 1 view .LVU77
 210              		.loc 1 253 15 is_stmt 0 view .LVU78
 211 00a6 0139     		subs	r1, r1, #1
 212              	.LVL32:
 213              	.L3:
 201:Drivers/CMSIS/DSP/Source/FilteringFunctions/arm_conv_f32.c ****   {
 214              		.loc 1 201 21 is_stmt 1 view .LVU79
 215 00a8 29B1     		cbz	r1, .L33
 204:Drivers/CMSIS/DSP/Source/FilteringFunctions/arm_conv_f32.c **** 
 216              		.loc 1 204 5 view .LVU80
 217              	.LVL33:
 207:Drivers/CMSIS/DSP/Source/FilteringFunctions/arm_conv_f32.c **** 
 218              		.loc 1 207 5 view .LVU81
 207:Drivers/CMSIS/DSP/Source/FilteringFunctions/arm_conv_f32.c **** 
 219              		.loc 1 207 7 is_stmt 0 view .LVU82
 220 00aa 4FEA9807 		lsr	r7, r8, #2
 221              	.LVL34:
 211:Drivers/CMSIS/DSP/Source/FilteringFunctions/arm_conv_f32.c ****     {
 222              		.loc 1 211 5 is_stmt 1 view .LVU83
 211:Drivers/CMSIS/DSP/Source/FilteringFunctions/arm_conv_f32.c ****     {
 223              		.loc 1 211 11 is_stmt 0 view .LVU84
 224 00ae F446     		mov	ip, lr
 204:Drivers/CMSIS/DSP/Source/FilteringFunctions/arm_conv_f32.c **** 
 225              		.loc 1 204 9 view .LVU85
 226 00b0 DFEDAC7A 		vldr.32	s15, .L39
 211:Drivers/CMSIS/DSP/Source/FilteringFunctions/arm_conv_f32.c ****     {
 227              		.loc 1 211 11 view .LVU86
 228 00b4 DFE7     		b	.L4
 229              	.LVL35:
 230              	.L33:
 254:Drivers/CMSIS/DSP/Source/FilteringFunctions/arm_conv_f32.c ****   }
 255:Drivers/CMSIS/DSP/Source/FilteringFunctions/arm_conv_f32.c **** 
 256:Drivers/CMSIS/DSP/Source/FilteringFunctions/arm_conv_f32.c ****   /* --------------------------
 257:Drivers/CMSIS/DSP/Source/FilteringFunctions/arm_conv_f32.c ****    * Initializations of stage2
 258:Drivers/CMSIS/DSP/Source/FilteringFunctions/arm_conv_f32.c ****    * ------------------------*/
 259:Drivers/CMSIS/DSP/Source/FilteringFunctions/arm_conv_f32.c **** 
 260:Drivers/CMSIS/DSP/Source/FilteringFunctions/arm_conv_f32.c ****   /* sum = x[0] * y[srcBLen-1] + x[1] * y[srcBLen-2] +...+ x[srcBLen-1] * y[0]
 261:Drivers/CMSIS/DSP/Source/FilteringFunctions/arm_conv_f32.c ****    * sum = x[1] * y[srcBLen-1] + x[2] * y[srcBLen-2] +...+ x[srcBLen] * y[0]
 262:Drivers/CMSIS/DSP/Source/FilteringFunctions/arm_conv_f32.c ****    * ....
 263:Drivers/CMSIS/DSP/Source/FilteringFunctions/arm_conv_f32.c ****    * sum = x[srcALen-srcBLen-2] * y[srcBLen-1] + x[srcALen] * y[srcBLen-2] +...+ x[srcALen-1] * y[0
 264:Drivers/CMSIS/DSP/Source/FilteringFunctions/arm_conv_f32.c ****    */
 265:Drivers/CMSIS/DSP/Source/FilteringFunctions/arm_conv_f32.c **** 
 266:Drivers/CMSIS/DSP/Source/FilteringFunctions/arm_conv_f32.c ****   /* Working pointer of inputA */
ARM GAS  /var/folders/n6/c271nzx11xl4r4_m7sqjlt0m0000gn/T//ccJIZLIe.s 			page 10


 267:Drivers/CMSIS/DSP/Source/FilteringFunctions/arm_conv_f32.c ****   px = pIn1;
 231              		.loc 1 267 3 is_stmt 1 view .LVU87
 268:Drivers/CMSIS/DSP/Source/FilteringFunctions/arm_conv_f32.c **** 
 269:Drivers/CMSIS/DSP/Source/FilteringFunctions/arm_conv_f32.c ****   /* Working pointer of inputB */
 270:Drivers/CMSIS/DSP/Source/FilteringFunctions/arm_conv_f32.c ****   pSrc2 = pIn2 + (srcBLen - 1U);
 232              		.loc 1 270 3 view .LVU88
 233              		.loc 1 270 16 is_stmt 0 view .LVU89
 234 00b6 6FF04043 		mvn	r3, #-1073741824
 235              	.LVL36:
 236              		.loc 1 270 16 view .LVU90
 237 00ba 2344     		add	r3, r3, r4
 238              		.loc 1 270 9 view .LVU91
 239 00bc 05EB8305 		add	r5, r5, r3, lsl #2
 240              	.LVL37:
 271:Drivers/CMSIS/DSP/Source/FilteringFunctions/arm_conv_f32.c ****   py = pSrc2;
 241              		.loc 1 271 3 is_stmt 1 view .LVU92
 272:Drivers/CMSIS/DSP/Source/FilteringFunctions/arm_conv_f32.c **** 
 273:Drivers/CMSIS/DSP/Source/FilteringFunctions/arm_conv_f32.c ****   /* count is index by which the pointer pIn1 to be incremented */
 274:Drivers/CMSIS/DSP/Source/FilteringFunctions/arm_conv_f32.c ****   count = 0U;
 242              		.loc 1 274 3 view .LVU93
 275:Drivers/CMSIS/DSP/Source/FilteringFunctions/arm_conv_f32.c **** 
 276:Drivers/CMSIS/DSP/Source/FilteringFunctions/arm_conv_f32.c ****   /* -------------------
 277:Drivers/CMSIS/DSP/Source/FilteringFunctions/arm_conv_f32.c ****    * Stage2 process
 278:Drivers/CMSIS/DSP/Source/FilteringFunctions/arm_conv_f32.c ****    * ------------------*/
 279:Drivers/CMSIS/DSP/Source/FilteringFunctions/arm_conv_f32.c **** 
 280:Drivers/CMSIS/DSP/Source/FilteringFunctions/arm_conv_f32.c ****   /* Stage2 depends on srcBLen as in this stage srcBLen number of MACS are performed.
 281:Drivers/CMSIS/DSP/Source/FilteringFunctions/arm_conv_f32.c ****    * So, to loop unroll over blockSize2,
 282:Drivers/CMSIS/DSP/Source/FilteringFunctions/arm_conv_f32.c ****    * srcBLen should be greater than or equal to 4 */
 283:Drivers/CMSIS/DSP/Source/FilteringFunctions/arm_conv_f32.c ****   if (srcBLen >= 4U)
 243              		.loc 1 283 3 view .LVU94
 244              		.loc 1 283 6 is_stmt 0 view .LVU95
 245 00c0 032C     		cmp	r4, #3
 246 00c2 40F20581 		bls	.L30
 284:Drivers/CMSIS/DSP/Source/FilteringFunctions/arm_conv_f32.c ****   {
 285:Drivers/CMSIS/DSP/Source/FilteringFunctions/arm_conv_f32.c ****     /* Loop unroll over blockSize2, by 4 */
 286:Drivers/CMSIS/DSP/Source/FilteringFunctions/arm_conv_f32.c ****     blkCnt = blockSize2 >> 2U;
 247              		.loc 1 286 5 is_stmt 1 view .LVU96
 248              		.loc 1 286 12 is_stmt 0 view .LVU97
 249 00c6 4FEA9A08 		lsr	r8, r10, #2
 250              	.LVL38:
 287:Drivers/CMSIS/DSP/Source/FilteringFunctions/arm_conv_f32.c **** 
 288:Drivers/CMSIS/DSP/Source/FilteringFunctions/arm_conv_f32.c ****     while (blkCnt > 0U)
 251              		.loc 1 288 5 is_stmt 1 view .LVU98
 267:Drivers/CMSIS/DSP/Source/FilteringFunctions/arm_conv_f32.c **** 
 252              		.loc 1 267 6 is_stmt 0 view .LVU99
 253 00ca F446     		mov	ip, lr
 254              		.loc 1 288 11 view .LVU100
 255 00cc 0DE0     		b	.L10
 256              	.LVL39:
 257              	.L35:
 289:Drivers/CMSIS/DSP/Source/FilteringFunctions/arm_conv_f32.c ****     {
 290:Drivers/CMSIS/DSP/Source/FilteringFunctions/arm_conv_f32.c ****       /* Set all accumulators to zero */
 291:Drivers/CMSIS/DSP/Source/FilteringFunctions/arm_conv_f32.c ****       acc0 = 0.0f;
 292:Drivers/CMSIS/DSP/Source/FilteringFunctions/arm_conv_f32.c ****       acc1 = 0.0f;
 293:Drivers/CMSIS/DSP/Source/FilteringFunctions/arm_conv_f32.c ****       acc2 = 0.0f;
 294:Drivers/CMSIS/DSP/Source/FilteringFunctions/arm_conv_f32.c ****       acc3 = 0.0f;
 295:Drivers/CMSIS/DSP/Source/FilteringFunctions/arm_conv_f32.c **** 
ARM GAS  /var/folders/n6/c271nzx11xl4r4_m7sqjlt0m0000gn/T//ccJIZLIe.s 			page 11


 296:Drivers/CMSIS/DSP/Source/FilteringFunctions/arm_conv_f32.c ****       /* read x[0], x[1], x[2] samples */
 297:Drivers/CMSIS/DSP/Source/FilteringFunctions/arm_conv_f32.c ****       x0 = *(px++);
 298:Drivers/CMSIS/DSP/Source/FilteringFunctions/arm_conv_f32.c ****       x1 = *(px++);
 299:Drivers/CMSIS/DSP/Source/FilteringFunctions/arm_conv_f32.c ****       x2 = *(px++);
 300:Drivers/CMSIS/DSP/Source/FilteringFunctions/arm_conv_f32.c **** 
 301:Drivers/CMSIS/DSP/Source/FilteringFunctions/arm_conv_f32.c ****       /* Apply loop unrolling and compute 4 MACs simultaneously. */
 302:Drivers/CMSIS/DSP/Source/FilteringFunctions/arm_conv_f32.c ****       k = srcBLen >> 2U;
 303:Drivers/CMSIS/DSP/Source/FilteringFunctions/arm_conv_f32.c **** 
 304:Drivers/CMSIS/DSP/Source/FilteringFunctions/arm_conv_f32.c ****       /* First part of the processing with loop unrolling.  Compute 4 MACs at a time.
 305:Drivers/CMSIS/DSP/Source/FilteringFunctions/arm_conv_f32.c ****        ** a second loop below computes MACs for the remaining 1 to 3 samples. */
 306:Drivers/CMSIS/DSP/Source/FilteringFunctions/arm_conv_f32.c ****       do
 307:Drivers/CMSIS/DSP/Source/FilteringFunctions/arm_conv_f32.c ****       {
 308:Drivers/CMSIS/DSP/Source/FilteringFunctions/arm_conv_f32.c ****         /* Read y[srcBLen - 1] sample */
 309:Drivers/CMSIS/DSP/Source/FilteringFunctions/arm_conv_f32.c ****         c0 = *(py--);
 310:Drivers/CMSIS/DSP/Source/FilteringFunctions/arm_conv_f32.c **** 
 311:Drivers/CMSIS/DSP/Source/FilteringFunctions/arm_conv_f32.c ****         /* Read x[3] sample */
 312:Drivers/CMSIS/DSP/Source/FilteringFunctions/arm_conv_f32.c ****         x3 = *(px);
 313:Drivers/CMSIS/DSP/Source/FilteringFunctions/arm_conv_f32.c **** 
 314:Drivers/CMSIS/DSP/Source/FilteringFunctions/arm_conv_f32.c ****         /* Perform the multiply-accumulate */
 315:Drivers/CMSIS/DSP/Source/FilteringFunctions/arm_conv_f32.c ****         /* acc0 +=  x[0] * y[srcBLen - 1] */
 316:Drivers/CMSIS/DSP/Source/FilteringFunctions/arm_conv_f32.c ****         acc0 += x0 * c0;
 317:Drivers/CMSIS/DSP/Source/FilteringFunctions/arm_conv_f32.c **** 
 318:Drivers/CMSIS/DSP/Source/FilteringFunctions/arm_conv_f32.c ****         /* acc1 +=  x[1] * y[srcBLen - 1] */
 319:Drivers/CMSIS/DSP/Source/FilteringFunctions/arm_conv_f32.c ****         acc1 += x1 * c0;
 320:Drivers/CMSIS/DSP/Source/FilteringFunctions/arm_conv_f32.c **** 
 321:Drivers/CMSIS/DSP/Source/FilteringFunctions/arm_conv_f32.c ****         /* acc2 +=  x[2] * y[srcBLen - 1] */
 322:Drivers/CMSIS/DSP/Source/FilteringFunctions/arm_conv_f32.c ****         acc2 += x2 * c0;
 323:Drivers/CMSIS/DSP/Source/FilteringFunctions/arm_conv_f32.c **** 
 324:Drivers/CMSIS/DSP/Source/FilteringFunctions/arm_conv_f32.c ****         /* acc3 +=  x[3] * y[srcBLen - 1] */
 325:Drivers/CMSIS/DSP/Source/FilteringFunctions/arm_conv_f32.c ****         acc3 += x3 * c0;
 326:Drivers/CMSIS/DSP/Source/FilteringFunctions/arm_conv_f32.c **** 
 327:Drivers/CMSIS/DSP/Source/FilteringFunctions/arm_conv_f32.c ****         /* Read y[srcBLen - 2] sample */
 328:Drivers/CMSIS/DSP/Source/FilteringFunctions/arm_conv_f32.c ****         c0 = *(py--);
 329:Drivers/CMSIS/DSP/Source/FilteringFunctions/arm_conv_f32.c **** 
 330:Drivers/CMSIS/DSP/Source/FilteringFunctions/arm_conv_f32.c ****         /* Read x[4] sample */
 331:Drivers/CMSIS/DSP/Source/FilteringFunctions/arm_conv_f32.c ****         x0 = *(px + 1U);
 332:Drivers/CMSIS/DSP/Source/FilteringFunctions/arm_conv_f32.c **** 
 333:Drivers/CMSIS/DSP/Source/FilteringFunctions/arm_conv_f32.c ****         /* Perform the multiply-accumulate */
 334:Drivers/CMSIS/DSP/Source/FilteringFunctions/arm_conv_f32.c ****         /* acc0 +=  x[1] * y[srcBLen - 2] */
 335:Drivers/CMSIS/DSP/Source/FilteringFunctions/arm_conv_f32.c ****         acc0 += x1 * c0;
 336:Drivers/CMSIS/DSP/Source/FilteringFunctions/arm_conv_f32.c ****         /* acc1 +=  x[2] * y[srcBLen - 2] */
 337:Drivers/CMSIS/DSP/Source/FilteringFunctions/arm_conv_f32.c ****         acc1 += x2 * c0;
 338:Drivers/CMSIS/DSP/Source/FilteringFunctions/arm_conv_f32.c ****         /* acc2 +=  x[3] * y[srcBLen - 2] */
 339:Drivers/CMSIS/DSP/Source/FilteringFunctions/arm_conv_f32.c ****         acc2 += x3 * c0;
 340:Drivers/CMSIS/DSP/Source/FilteringFunctions/arm_conv_f32.c ****         /* acc3 +=  x[4] * y[srcBLen - 2] */
 341:Drivers/CMSIS/DSP/Source/FilteringFunctions/arm_conv_f32.c ****         acc3 += x0 * c0;
 342:Drivers/CMSIS/DSP/Source/FilteringFunctions/arm_conv_f32.c **** 
 343:Drivers/CMSIS/DSP/Source/FilteringFunctions/arm_conv_f32.c ****         /* Read y[srcBLen - 3] sample */
 344:Drivers/CMSIS/DSP/Source/FilteringFunctions/arm_conv_f32.c ****         c0 = *(py--);
 345:Drivers/CMSIS/DSP/Source/FilteringFunctions/arm_conv_f32.c **** 
 346:Drivers/CMSIS/DSP/Source/FilteringFunctions/arm_conv_f32.c ****         /* Read x[5] sample */
 347:Drivers/CMSIS/DSP/Source/FilteringFunctions/arm_conv_f32.c ****         x1 = *(px + 2U);
 348:Drivers/CMSIS/DSP/Source/FilteringFunctions/arm_conv_f32.c **** 
 349:Drivers/CMSIS/DSP/Source/FilteringFunctions/arm_conv_f32.c ****         /* Perform the multiply-accumulates */
 350:Drivers/CMSIS/DSP/Source/FilteringFunctions/arm_conv_f32.c ****         /* acc0 +=  x[2] * y[srcBLen - 3] */
 351:Drivers/CMSIS/DSP/Source/FilteringFunctions/arm_conv_f32.c ****         acc0 += x2 * c0;
 352:Drivers/CMSIS/DSP/Source/FilteringFunctions/arm_conv_f32.c ****         /* acc1 +=  x[3] * y[srcBLen - 2] */
ARM GAS  /var/folders/n6/c271nzx11xl4r4_m7sqjlt0m0000gn/T//ccJIZLIe.s 			page 12


 353:Drivers/CMSIS/DSP/Source/FilteringFunctions/arm_conv_f32.c ****         acc1 += x3 * c0;
 354:Drivers/CMSIS/DSP/Source/FilteringFunctions/arm_conv_f32.c ****         /* acc2 +=  x[4] * y[srcBLen - 2] */
 355:Drivers/CMSIS/DSP/Source/FilteringFunctions/arm_conv_f32.c ****         acc2 += x0 * c0;
 356:Drivers/CMSIS/DSP/Source/FilteringFunctions/arm_conv_f32.c ****         /* acc3 +=  x[5] * y[srcBLen - 2] */
 357:Drivers/CMSIS/DSP/Source/FilteringFunctions/arm_conv_f32.c ****         acc3 += x1 * c0;
 358:Drivers/CMSIS/DSP/Source/FilteringFunctions/arm_conv_f32.c **** 
 359:Drivers/CMSIS/DSP/Source/FilteringFunctions/arm_conv_f32.c ****         /* Read y[srcBLen - 4] sample */
 360:Drivers/CMSIS/DSP/Source/FilteringFunctions/arm_conv_f32.c ****         c0 = *(py--);
 361:Drivers/CMSIS/DSP/Source/FilteringFunctions/arm_conv_f32.c **** 
 362:Drivers/CMSIS/DSP/Source/FilteringFunctions/arm_conv_f32.c ****         /* Read x[6] sample */
 363:Drivers/CMSIS/DSP/Source/FilteringFunctions/arm_conv_f32.c ****         x2 = *(px + 3U);
 364:Drivers/CMSIS/DSP/Source/FilteringFunctions/arm_conv_f32.c ****         px += 4U;
 365:Drivers/CMSIS/DSP/Source/FilteringFunctions/arm_conv_f32.c **** 
 366:Drivers/CMSIS/DSP/Source/FilteringFunctions/arm_conv_f32.c ****         /* Perform the multiply-accumulates */
 367:Drivers/CMSIS/DSP/Source/FilteringFunctions/arm_conv_f32.c ****         /* acc0 +=  x[3] * y[srcBLen - 4] */
 368:Drivers/CMSIS/DSP/Source/FilteringFunctions/arm_conv_f32.c ****         acc0 += x3 * c0;
 369:Drivers/CMSIS/DSP/Source/FilteringFunctions/arm_conv_f32.c ****         /* acc1 +=  x[4] * y[srcBLen - 4] */
 370:Drivers/CMSIS/DSP/Source/FilteringFunctions/arm_conv_f32.c ****         acc1 += x0 * c0;
 371:Drivers/CMSIS/DSP/Source/FilteringFunctions/arm_conv_f32.c ****         /* acc2 +=  x[5] * y[srcBLen - 4] */
 372:Drivers/CMSIS/DSP/Source/FilteringFunctions/arm_conv_f32.c ****         acc2 += x1 * c0;
 373:Drivers/CMSIS/DSP/Source/FilteringFunctions/arm_conv_f32.c ****         /* acc3 +=  x[6] * y[srcBLen - 4] */
 374:Drivers/CMSIS/DSP/Source/FilteringFunctions/arm_conv_f32.c ****         acc3 += x2 * c0;
 375:Drivers/CMSIS/DSP/Source/FilteringFunctions/arm_conv_f32.c **** 
 376:Drivers/CMSIS/DSP/Source/FilteringFunctions/arm_conv_f32.c **** 
 377:Drivers/CMSIS/DSP/Source/FilteringFunctions/arm_conv_f32.c ****       } while (--k);
 378:Drivers/CMSIS/DSP/Source/FilteringFunctions/arm_conv_f32.c **** 
 379:Drivers/CMSIS/DSP/Source/FilteringFunctions/arm_conv_f32.c ****       /* If the srcBLen is not a multiple of 4, compute any remaining MACs here.
 380:Drivers/CMSIS/DSP/Source/FilteringFunctions/arm_conv_f32.c ****        ** No loop unrolling is used. */
 381:Drivers/CMSIS/DSP/Source/FilteringFunctions/arm_conv_f32.c ****       k = srcBLen % 0x4U;
 382:Drivers/CMSIS/DSP/Source/FilteringFunctions/arm_conv_f32.c **** 
 383:Drivers/CMSIS/DSP/Source/FilteringFunctions/arm_conv_f32.c ****       while (k > 0U)
 384:Drivers/CMSIS/DSP/Source/FilteringFunctions/arm_conv_f32.c ****       {
 385:Drivers/CMSIS/DSP/Source/FilteringFunctions/arm_conv_f32.c ****         /* Read y[srcBLen - 5] sample */
 386:Drivers/CMSIS/DSP/Source/FilteringFunctions/arm_conv_f32.c ****         c0 = *(py--);
 387:Drivers/CMSIS/DSP/Source/FilteringFunctions/arm_conv_f32.c **** 
 388:Drivers/CMSIS/DSP/Source/FilteringFunctions/arm_conv_f32.c ****         /* Read x[7] sample */
 389:Drivers/CMSIS/DSP/Source/FilteringFunctions/arm_conv_f32.c ****         x3 = *(px++);
 390:Drivers/CMSIS/DSP/Source/FilteringFunctions/arm_conv_f32.c **** 
 391:Drivers/CMSIS/DSP/Source/FilteringFunctions/arm_conv_f32.c ****         /* Perform the multiply-accumulates */
 392:Drivers/CMSIS/DSP/Source/FilteringFunctions/arm_conv_f32.c ****         /* acc0 +=  x[4] * y[srcBLen - 5] */
 393:Drivers/CMSIS/DSP/Source/FilteringFunctions/arm_conv_f32.c ****         acc0 += x0 * c0;
 394:Drivers/CMSIS/DSP/Source/FilteringFunctions/arm_conv_f32.c ****         /* acc1 +=  x[5] * y[srcBLen - 5] */
 395:Drivers/CMSIS/DSP/Source/FilteringFunctions/arm_conv_f32.c ****         acc1 += x1 * c0;
 396:Drivers/CMSIS/DSP/Source/FilteringFunctions/arm_conv_f32.c ****         /* acc2 +=  x[6] * y[srcBLen - 5] */
 397:Drivers/CMSIS/DSP/Source/FilteringFunctions/arm_conv_f32.c ****         acc2 += x2 * c0;
 398:Drivers/CMSIS/DSP/Source/FilteringFunctions/arm_conv_f32.c ****         /* acc3 +=  x[7] * y[srcBLen - 5] */
 399:Drivers/CMSIS/DSP/Source/FilteringFunctions/arm_conv_f32.c ****         acc3 += x3 * c0;
 400:Drivers/CMSIS/DSP/Source/FilteringFunctions/arm_conv_f32.c **** 
 401:Drivers/CMSIS/DSP/Source/FilteringFunctions/arm_conv_f32.c ****         /* Reuse the present samples for the next MAC */
 402:Drivers/CMSIS/DSP/Source/FilteringFunctions/arm_conv_f32.c ****         x0 = x1;
 403:Drivers/CMSIS/DSP/Source/FilteringFunctions/arm_conv_f32.c ****         x1 = x2;
 404:Drivers/CMSIS/DSP/Source/FilteringFunctions/arm_conv_f32.c ****         x2 = x3;
 405:Drivers/CMSIS/DSP/Source/FilteringFunctions/arm_conv_f32.c **** 
 406:Drivers/CMSIS/DSP/Source/FilteringFunctions/arm_conv_f32.c ****         /* Decrement the loop counter */
 407:Drivers/CMSIS/DSP/Source/FilteringFunctions/arm_conv_f32.c ****         k--;
 408:Drivers/CMSIS/DSP/Source/FilteringFunctions/arm_conv_f32.c ****       }
 409:Drivers/CMSIS/DSP/Source/FilteringFunctions/arm_conv_f32.c **** 
ARM GAS  /var/folders/n6/c271nzx11xl4r4_m7sqjlt0m0000gn/T//ccJIZLIe.s 			page 13


 410:Drivers/CMSIS/DSP/Source/FilteringFunctions/arm_conv_f32.c ****       /* Store the result in the accumulator in the destination buffer. */
 411:Drivers/CMSIS/DSP/Source/FilteringFunctions/arm_conv_f32.c ****       *pOut++ = acc0;
 258              		.loc 1 411 7 is_stmt 1 view .LVU101
 259              		.loc 1 411 15 is_stmt 0 view .LVU102
 260 00ce 82ED006A 		vstr.32	s12, [r2]
 412:Drivers/CMSIS/DSP/Source/FilteringFunctions/arm_conv_f32.c ****       *pOut++ = acc1;
 261              		.loc 1 412 7 is_stmt 1 view .LVU103
 262              	.LVL40:
 263              		.loc 1 412 15 is_stmt 0 view .LVU104
 264 00d2 C2ED013A 		vstr.32	s7, [r2, #4]
 413:Drivers/CMSIS/DSP/Source/FilteringFunctions/arm_conv_f32.c ****       *pOut++ = acc2;
 265              		.loc 1 413 7 is_stmt 1 view .LVU105
 266              	.LVL41:
 267              		.loc 1 413 15 is_stmt 0 view .LVU106
 268 00d6 82ED024A 		vstr.32	s8, [r2, #8]
 414:Drivers/CMSIS/DSP/Source/FilteringFunctions/arm_conv_f32.c ****       *pOut++ = acc3;
 269              		.loc 1 414 7 is_stmt 1 view .LVU107
 270              	.LVL42:
 271              		.loc 1 414 15 is_stmt 0 view .LVU108
 272 00da C2ED037A 		vstr.32	s15, [r2, #12]
 415:Drivers/CMSIS/DSP/Source/FilteringFunctions/arm_conv_f32.c **** 
 416:Drivers/CMSIS/DSP/Source/FilteringFunctions/arm_conv_f32.c ****       /* Increment the pointer pIn1 index, count by 4 */
 417:Drivers/CMSIS/DSP/Source/FilteringFunctions/arm_conv_f32.c ****       count += 4U;
 273              		.loc 1 417 7 is_stmt 1 view .LVU109
 274              		.loc 1 417 13 is_stmt 0 view .LVU110
 275 00de 0431     		adds	r1, r1, #4
 276              	.LVL43:
 418:Drivers/CMSIS/DSP/Source/FilteringFunctions/arm_conv_f32.c **** 
 419:Drivers/CMSIS/DSP/Source/FilteringFunctions/arm_conv_f32.c ****       /* Update the inputA and inputB pointers for next MAC calculation */
 420:Drivers/CMSIS/DSP/Source/FilteringFunctions/arm_conv_f32.c ****       px = pIn1 + count;
 277              		.loc 1 420 7 is_stmt 1 view .LVU111
 278              		.loc 1 420 10 is_stmt 0 view .LVU112
 279 00e0 0EEB810C 		add	ip, lr, r1, lsl #2
 280              	.LVL44:
 421:Drivers/CMSIS/DSP/Source/FilteringFunctions/arm_conv_f32.c ****       py = pSrc2;
 281              		.loc 1 421 7 is_stmt 1 view .LVU113
 422:Drivers/CMSIS/DSP/Source/FilteringFunctions/arm_conv_f32.c **** 
 423:Drivers/CMSIS/DSP/Source/FilteringFunctions/arm_conv_f32.c **** 
 424:Drivers/CMSIS/DSP/Source/FilteringFunctions/arm_conv_f32.c ****       /* Decrement the loop counter */
 425:Drivers/CMSIS/DSP/Source/FilteringFunctions/arm_conv_f32.c ****       blkCnt--;
 282              		.loc 1 425 7 view .LVU114
 283              		.loc 1 425 13 is_stmt 0 view .LVU115
 284 00e4 08F1FF38 		add	r8, r8, #-1
 285              	.LVL45:
 414:Drivers/CMSIS/DSP/Source/FilteringFunctions/arm_conv_f32.c **** 
 286              		.loc 1 414 12 view .LVU116
 287 00e8 1032     		adds	r2, r2, #16
 288              	.LVL46:
 289              	.L10:
 288:Drivers/CMSIS/DSP/Source/FilteringFunctions/arm_conv_f32.c ****     {
 290              		.loc 1 288 19 is_stmt 1 view .LVU117
 291 00ea B8F1000F 		cmp	r8, #0
 292 00ee 00F08C80 		beq	.L34
 291:Drivers/CMSIS/DSP/Source/FilteringFunctions/arm_conv_f32.c ****       acc1 = 0.0f;
 293              		.loc 1 291 7 view .LVU118
 294              	.LVL47:
 292:Drivers/CMSIS/DSP/Source/FilteringFunctions/arm_conv_f32.c ****       acc2 = 0.0f;
ARM GAS  /var/folders/n6/c271nzx11xl4r4_m7sqjlt0m0000gn/T//ccJIZLIe.s 			page 14


 295              		.loc 1 292 7 view .LVU119
 293:Drivers/CMSIS/DSP/Source/FilteringFunctions/arm_conv_f32.c ****       acc3 = 0.0f;
 296              		.loc 1 293 7 view .LVU120
 294:Drivers/CMSIS/DSP/Source/FilteringFunctions/arm_conv_f32.c **** 
 297              		.loc 1 294 7 view .LVU121
 297:Drivers/CMSIS/DSP/Source/FilteringFunctions/arm_conv_f32.c ****       x1 = *(px++);
 298              		.loc 1 297 7 view .LVU122
 297:Drivers/CMSIS/DSP/Source/FilteringFunctions/arm_conv_f32.c ****       x1 = *(px++);
 299              		.loc 1 297 10 is_stmt 0 view .LVU123
 300 00f2 DCED006A 		vldr.32	s13, [ip]
 301              	.LVL48:
 298:Drivers/CMSIS/DSP/Source/FilteringFunctions/arm_conv_f32.c ****       x2 = *(px++);
 302              		.loc 1 298 7 is_stmt 1 view .LVU124
 298:Drivers/CMSIS/DSP/Source/FilteringFunctions/arm_conv_f32.c ****       x2 = *(px++);
 303              		.loc 1 298 10 is_stmt 0 view .LVU125
 304 00f6 DCED015A 		vldr.32	s11, [ip, #4]
 305              	.LVL49:
 299:Drivers/CMSIS/DSP/Source/FilteringFunctions/arm_conv_f32.c **** 
 306              		.loc 1 299 7 is_stmt 1 view .LVU126
 299:Drivers/CMSIS/DSP/Source/FilteringFunctions/arm_conv_f32.c **** 
 307              		.loc 1 299 16 is_stmt 0 view .LVU127
 308 00fa 0CF10C03 		add	r3, ip, #12
 309              	.LVL50:
 299:Drivers/CMSIS/DSP/Source/FilteringFunctions/arm_conv_f32.c **** 
 310              		.loc 1 299 10 view .LVU128
 311 00fe 9CED025A 		vldr.32	s10, [ip, #8]
 312              	.LVL51:
 302:Drivers/CMSIS/DSP/Source/FilteringFunctions/arm_conv_f32.c **** 
 313              		.loc 1 302 7 is_stmt 1 view .LVU129
 302:Drivers/CMSIS/DSP/Source/FilteringFunctions/arm_conv_f32.c **** 
 314              		.loc 1 302 9 is_stmt 0 view .LVU130
 315 0102 4FEA9409 		lsr	r9, r4, #2
 316              	.LVL52:
 302:Drivers/CMSIS/DSP/Source/FilteringFunctions/arm_conv_f32.c **** 
 317              		.loc 1 302 9 view .LVU131
 318 0106 AC46     		mov	ip, r5
 294:Drivers/CMSIS/DSP/Source/FilteringFunctions/arm_conv_f32.c **** 
 319              		.loc 1 294 12 view .LVU132
 320 0108 DFED967A 		vldr.32	s15, .L39
 293:Drivers/CMSIS/DSP/Source/FilteringFunctions/arm_conv_f32.c ****       acc3 = 0.0f;
 321              		.loc 1 293 12 view .LVU133
 322 010c B0EE674A 		vmov.f32	s8, s15
 292:Drivers/CMSIS/DSP/Source/FilteringFunctions/arm_conv_f32.c ****       acc2 = 0.0f;
 323              		.loc 1 292 12 view .LVU134
 324 0110 F0EE673A 		vmov.f32	s7, s15
 291:Drivers/CMSIS/DSP/Source/FilteringFunctions/arm_conv_f32.c ****       acc1 = 0.0f;
 325              		.loc 1 291 12 view .LVU135
 326 0114 B0EE676A 		vmov.f32	s12, s15
 327              	.LVL53:
 328              	.L11:
 306:Drivers/CMSIS/DSP/Source/FilteringFunctions/arm_conv_f32.c ****       {
 329              		.loc 1 306 7 is_stmt 1 view .LVU136
 309:Drivers/CMSIS/DSP/Source/FilteringFunctions/arm_conv_f32.c **** 
 330              		.loc 1 309 9 view .LVU137
 309:Drivers/CMSIS/DSP/Source/FilteringFunctions/arm_conv_f32.c **** 
 331              		.loc 1 309 12 is_stmt 0 view .LVU138
 332 0118 9CED007A 		vldr.32	s14, [ip]
ARM GAS  /var/folders/n6/c271nzx11xl4r4_m7sqjlt0m0000gn/T//ccJIZLIe.s 			page 15


 333              	.LVL54:
 312:Drivers/CMSIS/DSP/Source/FilteringFunctions/arm_conv_f32.c **** 
 334              		.loc 1 312 9 is_stmt 1 view .LVU139
 312:Drivers/CMSIS/DSP/Source/FilteringFunctions/arm_conv_f32.c **** 
 335              		.loc 1 312 12 is_stmt 0 view .LVU140
 336 011c D3ED004A 		vldr.32	s9, [r3]
 337              	.LVL55:
 316:Drivers/CMSIS/DSP/Source/FilteringFunctions/arm_conv_f32.c **** 
 338              		.loc 1 316 9 is_stmt 1 view .LVU141
 316:Drivers/CMSIS/DSP/Source/FilteringFunctions/arm_conv_f32.c **** 
 339              		.loc 1 316 20 is_stmt 0 view .LVU142
 340 0120 26EE873A 		vmul.f32	s6, s13, s14
 316:Drivers/CMSIS/DSP/Source/FilteringFunctions/arm_conv_f32.c **** 
 341              		.loc 1 316 14 view .LVU143
 342 0124 33EE063A 		vadd.f32	s6, s6, s12
 343              	.LVL56:
 319:Drivers/CMSIS/DSP/Source/FilteringFunctions/arm_conv_f32.c **** 
 344              		.loc 1 319 9 is_stmt 1 view .LVU144
 319:Drivers/CMSIS/DSP/Source/FilteringFunctions/arm_conv_f32.c **** 
 345              		.loc 1 319 20 is_stmt 0 view .LVU145
 346 0128 65EE876A 		vmul.f32	s13, s11, s14
 347              	.LVL57:
 319:Drivers/CMSIS/DSP/Source/FilteringFunctions/arm_conv_f32.c **** 
 348              		.loc 1 319 14 view .LVU146
 349 012c 76EEA33A 		vadd.f32	s7, s13, s7
 350              	.LVL58:
 322:Drivers/CMSIS/DSP/Source/FilteringFunctions/arm_conv_f32.c **** 
 351              		.loc 1 322 9 is_stmt 1 view .LVU147
 322:Drivers/CMSIS/DSP/Source/FilteringFunctions/arm_conv_f32.c **** 
 352              		.loc 1 322 20 is_stmt 0 view .LVU148
 353 0130 25EE076A 		vmul.f32	s12, s10, s14
 322:Drivers/CMSIS/DSP/Source/FilteringFunctions/arm_conv_f32.c **** 
 354              		.loc 1 322 14 view .LVU149
 355 0134 36EE046A 		vadd.f32	s12, s12, s8
 356              	.LVL59:
 325:Drivers/CMSIS/DSP/Source/FilteringFunctions/arm_conv_f32.c **** 
 357              		.loc 1 325 9 is_stmt 1 view .LVU150
 325:Drivers/CMSIS/DSP/Source/FilteringFunctions/arm_conv_f32.c **** 
 358              		.loc 1 325 20 is_stmt 0 view .LVU151
 359 0138 27EE247A 		vmul.f32	s14, s14, s9
 360              	.LVL60:
 325:Drivers/CMSIS/DSP/Source/FilteringFunctions/arm_conv_f32.c **** 
 361              		.loc 1 325 14 view .LVU152
 362 013c 37EE277A 		vadd.f32	s14, s14, s15
 363              	.LVL61:
 328:Drivers/CMSIS/DSP/Source/FilteringFunctions/arm_conv_f32.c **** 
 364              		.loc 1 328 9 is_stmt 1 view .LVU153
 328:Drivers/CMSIS/DSP/Source/FilteringFunctions/arm_conv_f32.c **** 
 365              		.loc 1 328 12 is_stmt 0 view .LVU154
 366 0140 5CED017A 		vldr.32	s15, [ip, #-4]
 367              	.LVL62:
 331:Drivers/CMSIS/DSP/Source/FilteringFunctions/arm_conv_f32.c **** 
 368              		.loc 1 331 9 is_stmt 1 view .LVU155
 331:Drivers/CMSIS/DSP/Source/FilteringFunctions/arm_conv_f32.c **** 
 369              		.loc 1 331 12 is_stmt 0 view .LVU156
 370 0144 D3ED016A 		vldr.32	s13, [r3, #4]
 371              	.LVL63:
ARM GAS  /var/folders/n6/c271nzx11xl4r4_m7sqjlt0m0000gn/T//ccJIZLIe.s 			page 16


 335:Drivers/CMSIS/DSP/Source/FilteringFunctions/arm_conv_f32.c ****         /* acc1 +=  x[2] * y[srcBLen - 2] */
 372              		.loc 1 335 9 is_stmt 1 view .LVU157
 335:Drivers/CMSIS/DSP/Source/FilteringFunctions/arm_conv_f32.c ****         /* acc1 +=  x[2] * y[srcBLen - 2] */
 373              		.loc 1 335 20 is_stmt 0 view .LVU158
 374 0148 25EEA74A 		vmul.f32	s8, s11, s15
 335:Drivers/CMSIS/DSP/Source/FilteringFunctions/arm_conv_f32.c ****         /* acc1 +=  x[2] * y[srcBLen - 2] */
 375              		.loc 1 335 14 view .LVU159
 376 014c 34EE034A 		vadd.f32	s8, s8, s6
 377              	.LVL64:
 337:Drivers/CMSIS/DSP/Source/FilteringFunctions/arm_conv_f32.c ****         /* acc2 +=  x[3] * y[srcBLen - 2] */
 378              		.loc 1 337 9 is_stmt 1 view .LVU160
 337:Drivers/CMSIS/DSP/Source/FilteringFunctions/arm_conv_f32.c ****         /* acc2 +=  x[3] * y[srcBLen - 2] */
 379              		.loc 1 337 20 is_stmt 0 view .LVU161
 380 0150 25EE273A 		vmul.f32	s6, s10, s15
 337:Drivers/CMSIS/DSP/Source/FilteringFunctions/arm_conv_f32.c ****         /* acc2 +=  x[3] * y[srcBLen - 2] */
 381              		.loc 1 337 14 view .LVU162
 382 0154 33EE233A 		vadd.f32	s6, s6, s7
 383              	.LVL65:
 339:Drivers/CMSIS/DSP/Source/FilteringFunctions/arm_conv_f32.c ****         /* acc3 +=  x[4] * y[srcBLen - 2] */
 384              		.loc 1 339 9 is_stmt 1 view .LVU163
 339:Drivers/CMSIS/DSP/Source/FilteringFunctions/arm_conv_f32.c ****         /* acc3 +=  x[4] * y[srcBLen - 2] */
 385              		.loc 1 339 20 is_stmt 0 view .LVU164
 386 0158 64EEA73A 		vmul.f32	s7, s9, s15
 339:Drivers/CMSIS/DSP/Source/FilteringFunctions/arm_conv_f32.c ****         /* acc3 +=  x[4] * y[srcBLen - 2] */
 387              		.loc 1 339 14 view .LVU165
 388 015c 73EE863A 		vadd.f32	s7, s7, s12
 389              	.LVL66:
 341:Drivers/CMSIS/DSP/Source/FilteringFunctions/arm_conv_f32.c **** 
 390              		.loc 1 341 9 is_stmt 1 view .LVU166
 341:Drivers/CMSIS/DSP/Source/FilteringFunctions/arm_conv_f32.c **** 
 391              		.loc 1 341 20 is_stmt 0 view .LVU167
 392 0160 67EEA67A 		vmul.f32	s15, s15, s13
 393              	.LVL67:
 341:Drivers/CMSIS/DSP/Source/FilteringFunctions/arm_conv_f32.c **** 
 394              		.loc 1 341 14 view .LVU168
 395 0164 37EE877A 		vadd.f32	s14, s15, s14
 396              	.LVL68:
 344:Drivers/CMSIS/DSP/Source/FilteringFunctions/arm_conv_f32.c **** 
 397              		.loc 1 344 9 is_stmt 1 view .LVU169
 344:Drivers/CMSIS/DSP/Source/FilteringFunctions/arm_conv_f32.c **** 
 398              		.loc 1 344 12 is_stmt 0 view .LVU170
 399 0168 5CED027A 		vldr.32	s15, [ip, #-8]
 400              	.LVL69:
 347:Drivers/CMSIS/DSP/Source/FilteringFunctions/arm_conv_f32.c **** 
 401              		.loc 1 347 9 is_stmt 1 view .LVU171
 347:Drivers/CMSIS/DSP/Source/FilteringFunctions/arm_conv_f32.c **** 
 402              		.loc 1 347 12 is_stmt 0 view .LVU172
 403 016c D3ED025A 		vldr.32	s11, [r3, #8]
 404              	.LVL70:
 351:Drivers/CMSIS/DSP/Source/FilteringFunctions/arm_conv_f32.c ****         /* acc1 +=  x[3] * y[srcBLen - 2] */
 405              		.loc 1 351 9 is_stmt 1 view .LVU173
 351:Drivers/CMSIS/DSP/Source/FilteringFunctions/arm_conv_f32.c ****         /* acc1 +=  x[3] * y[srcBLen - 2] */
 406              		.loc 1 351 20 is_stmt 0 view .LVU174
 407 0170 25EE276A 		vmul.f32	s12, s10, s15
 351:Drivers/CMSIS/DSP/Source/FilteringFunctions/arm_conv_f32.c ****         /* acc1 +=  x[3] * y[srcBLen - 2] */
 408              		.loc 1 351 14 view .LVU175
 409 0174 36EE046A 		vadd.f32	s12, s12, s8
ARM GAS  /var/folders/n6/c271nzx11xl4r4_m7sqjlt0m0000gn/T//ccJIZLIe.s 			page 17


 410              	.LVL71:
 353:Drivers/CMSIS/DSP/Source/FilteringFunctions/arm_conv_f32.c ****         /* acc2 +=  x[4] * y[srcBLen - 2] */
 411              		.loc 1 353 9 is_stmt 1 view .LVU176
 353:Drivers/CMSIS/DSP/Source/FilteringFunctions/arm_conv_f32.c ****         /* acc2 +=  x[4] * y[srcBLen - 2] */
 412              		.loc 1 353 20 is_stmt 0 view .LVU177
 413 0178 24EEA74A 		vmul.f32	s8, s9, s15
 353:Drivers/CMSIS/DSP/Source/FilteringFunctions/arm_conv_f32.c ****         /* acc2 +=  x[4] * y[srcBLen - 2] */
 414              		.loc 1 353 14 view .LVU178
 415 017c 34EE034A 		vadd.f32	s8, s8, s6
 416              	.LVL72:
 355:Drivers/CMSIS/DSP/Source/FilteringFunctions/arm_conv_f32.c ****         /* acc3 +=  x[5] * y[srcBLen - 2] */
 417              		.loc 1 355 9 is_stmt 1 view .LVU179
 355:Drivers/CMSIS/DSP/Source/FilteringFunctions/arm_conv_f32.c ****         /* acc3 +=  x[5] * y[srcBLen - 2] */
 418              		.loc 1 355 20 is_stmt 0 view .LVU180
 419 0180 26EEA73A 		vmul.f32	s6, s13, s15
 355:Drivers/CMSIS/DSP/Source/FilteringFunctions/arm_conv_f32.c ****         /* acc3 +=  x[5] * y[srcBLen - 2] */
 420              		.loc 1 355 14 view .LVU181
 421 0184 33EE233A 		vadd.f32	s6, s6, s7
 422              	.LVL73:
 357:Drivers/CMSIS/DSP/Source/FilteringFunctions/arm_conv_f32.c **** 
 423              		.loc 1 357 9 is_stmt 1 view .LVU182
 357:Drivers/CMSIS/DSP/Source/FilteringFunctions/arm_conv_f32.c **** 
 424              		.loc 1 357 20 is_stmt 0 view .LVU183
 425 0188 67EEA57A 		vmul.f32	s15, s15, s11
 426              	.LVL74:
 357:Drivers/CMSIS/DSP/Source/FilteringFunctions/arm_conv_f32.c **** 
 427              		.loc 1 357 14 view .LVU184
 428 018c 37EE877A 		vadd.f32	s14, s15, s14
 429              	.LVL75:
 360:Drivers/CMSIS/DSP/Source/FilteringFunctions/arm_conv_f32.c **** 
 430              		.loc 1 360 9 is_stmt 1 view .LVU185
 360:Drivers/CMSIS/DSP/Source/FilteringFunctions/arm_conv_f32.c **** 
 431              		.loc 1 360 12 is_stmt 0 view .LVU186
 432 0190 5CED037A 		vldr.32	s15, [ip, #-12]
 433 0194 ACF1100C 		sub	ip, ip, #16
 434              	.LVL76:
 363:Drivers/CMSIS/DSP/Source/FilteringFunctions/arm_conv_f32.c ****         px += 4U;
 435              		.loc 1 363 9 is_stmt 1 view .LVU187
 363:Drivers/CMSIS/DSP/Source/FilteringFunctions/arm_conv_f32.c ****         px += 4U;
 436              		.loc 1 363 12 is_stmt 0 view .LVU188
 437 0198 93ED035A 		vldr.32	s10, [r3, #12]
 438              	.LVL77:
 364:Drivers/CMSIS/DSP/Source/FilteringFunctions/arm_conv_f32.c **** 
 439              		.loc 1 364 9 is_stmt 1 view .LVU189
 364:Drivers/CMSIS/DSP/Source/FilteringFunctions/arm_conv_f32.c **** 
 440              		.loc 1 364 12 is_stmt 0 view .LVU190
 441 019c 1033     		adds	r3, r3, #16
 442              	.LVL78:
 368:Drivers/CMSIS/DSP/Source/FilteringFunctions/arm_conv_f32.c ****         /* acc1 +=  x[4] * y[srcBLen - 4] */
 443              		.loc 1 368 9 is_stmt 1 view .LVU191
 368:Drivers/CMSIS/DSP/Source/FilteringFunctions/arm_conv_f32.c ****         /* acc1 +=  x[4] * y[srcBLen - 4] */
 444              		.loc 1 368 20 is_stmt 0 view .LVU192
 445 019e 64EEA74A 		vmul.f32	s9, s9, s15
 446              	.LVL79:
 368:Drivers/CMSIS/DSP/Source/FilteringFunctions/arm_conv_f32.c ****         /* acc1 +=  x[4] * y[srcBLen - 4] */
 447              		.loc 1 368 14 view .LVU193
 448 01a2 34EE866A 		vadd.f32	s12, s9, s12
ARM GAS  /var/folders/n6/c271nzx11xl4r4_m7sqjlt0m0000gn/T//ccJIZLIe.s 			page 18


 449              	.LVL80:
 370:Drivers/CMSIS/DSP/Source/FilteringFunctions/arm_conv_f32.c ****         /* acc2 +=  x[5] * y[srcBLen - 4] */
 450              		.loc 1 370 9 is_stmt 1 view .LVU194
 370:Drivers/CMSIS/DSP/Source/FilteringFunctions/arm_conv_f32.c ****         /* acc2 +=  x[5] * y[srcBLen - 4] */
 451              		.loc 1 370 20 is_stmt 0 view .LVU195
 452 01a6 66EEA73A 		vmul.f32	s7, s13, s15
 370:Drivers/CMSIS/DSP/Source/FilteringFunctions/arm_conv_f32.c ****         /* acc2 +=  x[5] * y[srcBLen - 4] */
 453              		.loc 1 370 14 view .LVU196
 454 01aa 73EE843A 		vadd.f32	s7, s7, s8
 455              	.LVL81:
 372:Drivers/CMSIS/DSP/Source/FilteringFunctions/arm_conv_f32.c ****         /* acc3 +=  x[6] * y[srcBLen - 4] */
 456              		.loc 1 372 9 is_stmt 1 view .LVU197
 372:Drivers/CMSIS/DSP/Source/FilteringFunctions/arm_conv_f32.c ****         /* acc3 +=  x[6] * y[srcBLen - 4] */
 457              		.loc 1 372 20 is_stmt 0 view .LVU198
 458 01ae 25EEA74A 		vmul.f32	s8, s11, s15
 372:Drivers/CMSIS/DSP/Source/FilteringFunctions/arm_conv_f32.c ****         /* acc3 +=  x[6] * y[srcBLen - 4] */
 459              		.loc 1 372 14 view .LVU199
 460 01b2 34EE034A 		vadd.f32	s8, s8, s6
 461              	.LVL82:
 374:Drivers/CMSIS/DSP/Source/FilteringFunctions/arm_conv_f32.c **** 
 462              		.loc 1 374 9 is_stmt 1 view .LVU200
 374:Drivers/CMSIS/DSP/Source/FilteringFunctions/arm_conv_f32.c **** 
 463              		.loc 1 374 20 is_stmt 0 view .LVU201
 464 01b6 67EE857A 		vmul.f32	s15, s15, s10
 465              	.LVL83:
 374:Drivers/CMSIS/DSP/Source/FilteringFunctions/arm_conv_f32.c **** 
 466              		.loc 1 374 14 view .LVU202
 467 01ba 77EE877A 		vadd.f32	s15, s15, s14
 468              	.LVL84:
 377:Drivers/CMSIS/DSP/Source/FilteringFunctions/arm_conv_f32.c **** 
 469              		.loc 1 377 16 is_stmt 1 discriminator 1 view .LVU203
 377:Drivers/CMSIS/DSP/Source/FilteringFunctions/arm_conv_f32.c **** 
 470              		.loc 1 377 16 is_stmt 0 discriminator 1 view .LVU204
 471 01be B9F10109 		subs	r9, r9, #1
 472              	.LVL85:
 377:Drivers/CMSIS/DSP/Source/FilteringFunctions/arm_conv_f32.c **** 
 473              		.loc 1 377 16 discriminator 1 view .LVU205
 474 01c2 A9D1     		bne	.L11
 381:Drivers/CMSIS/DSP/Source/FilteringFunctions/arm_conv_f32.c **** 
 475              		.loc 1 381 7 is_stmt 1 view .LVU206
 381:Drivers/CMSIS/DSP/Source/FilteringFunctions/arm_conv_f32.c **** 
 476              		.loc 1 381 9 is_stmt 0 view .LVU207
 477 01c4 04F00307 		and	r7, r4, #3
 478              	.LVL86:
 383:Drivers/CMSIS/DSP/Source/FilteringFunctions/arm_conv_f32.c ****       {
 479              		.loc 1 383 7 is_stmt 1 view .LVU208
 480              	.L12:
 383:Drivers/CMSIS/DSP/Source/FilteringFunctions/arm_conv_f32.c ****       {
 481              		.loc 1 383 16 view .LVU209
 482 01c8 002F     		cmp	r7, #0
 483 01ca 80D0     		beq	.L35
 386:Drivers/CMSIS/DSP/Source/FilteringFunctions/arm_conv_f32.c **** 
 484              		.loc 1 386 9 view .LVU210
 485              	.LVL87:
 386:Drivers/CMSIS/DSP/Source/FilteringFunctions/arm_conv_f32.c **** 
 486              		.loc 1 386 12 is_stmt 0 view .LVU211
 487 01cc 6646     		mov	r6, ip
ARM GAS  /var/folders/n6/c271nzx11xl4r4_m7sqjlt0m0000gn/T//ccJIZLIe.s 			page 19


 488 01ce ACF1040C 		sub	ip, ip, #4
 489              	.LVL88:
 386:Drivers/CMSIS/DSP/Source/FilteringFunctions/arm_conv_f32.c **** 
 490              		.loc 1 386 12 view .LVU212
 491 01d2 96ED007A 		vldr.32	s14, [r6]
 492              	.LVL89:
 389:Drivers/CMSIS/DSP/Source/FilteringFunctions/arm_conv_f32.c **** 
 493              		.loc 1 389 9 is_stmt 1 view .LVU213
 389:Drivers/CMSIS/DSP/Source/FilteringFunctions/arm_conv_f32.c **** 
 494              		.loc 1 389 12 is_stmt 0 view .LVU214
 495 01d6 F3EC014A 		vldmia.32	r3!, {s9}
 496              	.LVL90:
 393:Drivers/CMSIS/DSP/Source/FilteringFunctions/arm_conv_f32.c ****         /* acc1 +=  x[5] * y[srcBLen - 5] */
 497              		.loc 1 393 9 is_stmt 1 view .LVU215
 393:Drivers/CMSIS/DSP/Source/FilteringFunctions/arm_conv_f32.c ****         /* acc1 +=  x[5] * y[srcBLen - 5] */
 498              		.loc 1 393 20 is_stmt 0 view .LVU216
 499 01da 66EE876A 		vmul.f32	s13, s13, s14
 500              	.LVL91:
 393:Drivers/CMSIS/DSP/Source/FilteringFunctions/arm_conv_f32.c ****         /* acc1 +=  x[5] * y[srcBLen - 5] */
 501              		.loc 1 393 14 view .LVU217
 502 01de 36EE266A 		vadd.f32	s12, s12, s13
 503              	.LVL92:
 395:Drivers/CMSIS/DSP/Source/FilteringFunctions/arm_conv_f32.c ****         /* acc2 +=  x[6] * y[srcBLen - 5] */
 504              		.loc 1 395 9 is_stmt 1 view .LVU218
 395:Drivers/CMSIS/DSP/Source/FilteringFunctions/arm_conv_f32.c ****         /* acc2 +=  x[6] * y[srcBLen - 5] */
 505              		.loc 1 395 20 is_stmt 0 view .LVU219
 506 01e2 65EE876A 		vmul.f32	s13, s11, s14
 395:Drivers/CMSIS/DSP/Source/FilteringFunctions/arm_conv_f32.c ****         /* acc2 +=  x[6] * y[srcBLen - 5] */
 507              		.loc 1 395 14 view .LVU220
 508 01e6 73EEA63A 		vadd.f32	s7, s7, s13
 509              	.LVL93:
 397:Drivers/CMSIS/DSP/Source/FilteringFunctions/arm_conv_f32.c ****         /* acc3 +=  x[7] * y[srcBLen - 5] */
 510              		.loc 1 397 9 is_stmt 1 view .LVU221
 397:Drivers/CMSIS/DSP/Source/FilteringFunctions/arm_conv_f32.c ****         /* acc3 +=  x[7] * y[srcBLen - 5] */
 511              		.loc 1 397 20 is_stmt 0 view .LVU222
 512 01ea 65EE076A 		vmul.f32	s13, s10, s14
 397:Drivers/CMSIS/DSP/Source/FilteringFunctions/arm_conv_f32.c ****         /* acc3 +=  x[7] * y[srcBLen - 5] */
 513              		.loc 1 397 14 view .LVU223
 514 01ee 34EE264A 		vadd.f32	s8, s8, s13
 515              	.LVL94:
 399:Drivers/CMSIS/DSP/Source/FilteringFunctions/arm_conv_f32.c **** 
 516              		.loc 1 399 9 is_stmt 1 view .LVU224
 399:Drivers/CMSIS/DSP/Source/FilteringFunctions/arm_conv_f32.c **** 
 517              		.loc 1 399 20 is_stmt 0 view .LVU225
 518 01f2 27EE247A 		vmul.f32	s14, s14, s9
 519              	.LVL95:
 399:Drivers/CMSIS/DSP/Source/FilteringFunctions/arm_conv_f32.c **** 
 520              		.loc 1 399 14 view .LVU226
 521 01f6 77EE877A 		vadd.f32	s15, s15, s14
 522              	.LVL96:
 402:Drivers/CMSIS/DSP/Source/FilteringFunctions/arm_conv_f32.c ****         x1 = x2;
 523              		.loc 1 402 9 is_stmt 1 view .LVU227
 403:Drivers/CMSIS/DSP/Source/FilteringFunctions/arm_conv_f32.c ****         x2 = x3;
 524              		.loc 1 403 9 view .LVU228
 404:Drivers/CMSIS/DSP/Source/FilteringFunctions/arm_conv_f32.c **** 
 525              		.loc 1 404 9 view .LVU229
 407:Drivers/CMSIS/DSP/Source/FilteringFunctions/arm_conv_f32.c ****       }
ARM GAS  /var/folders/n6/c271nzx11xl4r4_m7sqjlt0m0000gn/T//ccJIZLIe.s 			page 20


 526              		.loc 1 407 9 view .LVU230
 407:Drivers/CMSIS/DSP/Source/FilteringFunctions/arm_conv_f32.c ****       }
 527              		.loc 1 407 10 is_stmt 0 view .LVU231
 528 01fa 013F     		subs	r7, r7, #1
 529              	.LVL97:
 402:Drivers/CMSIS/DSP/Source/FilteringFunctions/arm_conv_f32.c ****         x1 = x2;
 530              		.loc 1 402 12 view .LVU232
 531 01fc F0EE656A 		vmov.f32	s13, s11
 403:Drivers/CMSIS/DSP/Source/FilteringFunctions/arm_conv_f32.c ****         x2 = x3;
 532              		.loc 1 403 12 view .LVU233
 533 0200 F0EE455A 		vmov.f32	s11, s10
 534              	.LVL98:
 404:Drivers/CMSIS/DSP/Source/FilteringFunctions/arm_conv_f32.c **** 
 535              		.loc 1 404 12 view .LVU234
 536 0204 B0EE645A 		vmov.f32	s10, s9
 537              	.LVL99:
 404:Drivers/CMSIS/DSP/Source/FilteringFunctions/arm_conv_f32.c **** 
 538              		.loc 1 404 12 view .LVU235
 539 0208 DEE7     		b	.L12
 540              	.LVL100:
 541              	.L34:
 426:Drivers/CMSIS/DSP/Source/FilteringFunctions/arm_conv_f32.c ****     }
 427:Drivers/CMSIS/DSP/Source/FilteringFunctions/arm_conv_f32.c **** 
 428:Drivers/CMSIS/DSP/Source/FilteringFunctions/arm_conv_f32.c **** 
 429:Drivers/CMSIS/DSP/Source/FilteringFunctions/arm_conv_f32.c ****     /* If the blockSize2 is not a multiple of 4, compute any remaining output samples here.
 430:Drivers/CMSIS/DSP/Source/FilteringFunctions/arm_conv_f32.c ****      ** No loop unrolling is used. */
 431:Drivers/CMSIS/DSP/Source/FilteringFunctions/arm_conv_f32.c ****     blkCnt = blockSize2 % 0x4U;
 542              		.loc 1 431 5 is_stmt 1 view .LVU236
 543              		.loc 1 431 12 is_stmt 0 view .LVU237
 544 020a 0AF00308 		and	r8, r10, #3
 545              	.LVL101:
 432:Drivers/CMSIS/DSP/Source/FilteringFunctions/arm_conv_f32.c **** 
 433:Drivers/CMSIS/DSP/Source/FilteringFunctions/arm_conv_f32.c ****     while (blkCnt > 0U)
 546              		.loc 1 433 5 is_stmt 1 view .LVU238
 547              		.loc 1 433 11 is_stmt 0 view .LVU239
 548 020e 15E0     		b	.L15
 549              	.LVL102:
 550              	.L37:
 434:Drivers/CMSIS/DSP/Source/FilteringFunctions/arm_conv_f32.c ****     {
 435:Drivers/CMSIS/DSP/Source/FilteringFunctions/arm_conv_f32.c ****       /* Accumulator is made zero for every iteration */
 436:Drivers/CMSIS/DSP/Source/FilteringFunctions/arm_conv_f32.c ****       sum = 0.0f;
 437:Drivers/CMSIS/DSP/Source/FilteringFunctions/arm_conv_f32.c **** 
 438:Drivers/CMSIS/DSP/Source/FilteringFunctions/arm_conv_f32.c ****       /* Apply loop unrolling and compute 4 MACs simultaneously. */
 439:Drivers/CMSIS/DSP/Source/FilteringFunctions/arm_conv_f32.c ****       k = srcBLen >> 2U;
 440:Drivers/CMSIS/DSP/Source/FilteringFunctions/arm_conv_f32.c **** 
 441:Drivers/CMSIS/DSP/Source/FilteringFunctions/arm_conv_f32.c ****       /* First part of the processing with loop unrolling.  Compute 4 MACs at a time.
 442:Drivers/CMSIS/DSP/Source/FilteringFunctions/arm_conv_f32.c ****        ** a second loop below computes MACs for the remaining 1 to 3 samples. */
 443:Drivers/CMSIS/DSP/Source/FilteringFunctions/arm_conv_f32.c ****       while (k > 0U)
 444:Drivers/CMSIS/DSP/Source/FilteringFunctions/arm_conv_f32.c ****       {
 445:Drivers/CMSIS/DSP/Source/FilteringFunctions/arm_conv_f32.c ****         /* Perform the multiply-accumulates */
 446:Drivers/CMSIS/DSP/Source/FilteringFunctions/arm_conv_f32.c ****         sum += *px++ * *py--;
 447:Drivers/CMSIS/DSP/Source/FilteringFunctions/arm_conv_f32.c ****         sum += *px++ * *py--;
 448:Drivers/CMSIS/DSP/Source/FilteringFunctions/arm_conv_f32.c ****         sum += *px++ * *py--;
 449:Drivers/CMSIS/DSP/Source/FilteringFunctions/arm_conv_f32.c ****         sum += *px++ * *py--;
 450:Drivers/CMSIS/DSP/Source/FilteringFunctions/arm_conv_f32.c **** 
 451:Drivers/CMSIS/DSP/Source/FilteringFunctions/arm_conv_f32.c ****         /* Decrement the loop counter */
 452:Drivers/CMSIS/DSP/Source/FilteringFunctions/arm_conv_f32.c ****         k--;
ARM GAS  /var/folders/n6/c271nzx11xl4r4_m7sqjlt0m0000gn/T//ccJIZLIe.s 			page 21


 453:Drivers/CMSIS/DSP/Source/FilteringFunctions/arm_conv_f32.c ****       }
 454:Drivers/CMSIS/DSP/Source/FilteringFunctions/arm_conv_f32.c **** 
 455:Drivers/CMSIS/DSP/Source/FilteringFunctions/arm_conv_f32.c ****       /* If the srcBLen is not a multiple of 4, compute any remaining MACs here.
 456:Drivers/CMSIS/DSP/Source/FilteringFunctions/arm_conv_f32.c ****        ** No loop unrolling is used. */
 457:Drivers/CMSIS/DSP/Source/FilteringFunctions/arm_conv_f32.c ****       k = srcBLen % 0x4U;
 551              		.loc 1 457 7 is_stmt 1 view .LVU240
 552              		.loc 1 457 9 is_stmt 0 view .LVU241
 553 0210 04F00307 		and	r7, r4, #3
 554              	.LVL103:
 458:Drivers/CMSIS/DSP/Source/FilteringFunctions/arm_conv_f32.c **** 
 459:Drivers/CMSIS/DSP/Source/FilteringFunctions/arm_conv_f32.c ****       while (k > 0U)
 555              		.loc 1 459 7 is_stmt 1 view .LVU242
 556              	.L18:
 557              		.loc 1 459 16 view .LVU243
 558 0214 5FB1     		cbz	r7, .L36
 460:Drivers/CMSIS/DSP/Source/FilteringFunctions/arm_conv_f32.c ****       {
 461:Drivers/CMSIS/DSP/Source/FilteringFunctions/arm_conv_f32.c ****         /* Perform the multiply-accumulate */
 462:Drivers/CMSIS/DSP/Source/FilteringFunctions/arm_conv_f32.c ****         sum += *px++ * *py--;
 559              		.loc 1 462 9 view .LVU244
 560              	.LVL104:
 561              		.loc 1 462 16 is_stmt 0 view .LVU245
 562 0216 BCEC017A 		vldmia.32	ip!, {s14}
 563              	.LVL105:
 564              		.loc 1 462 24 view .LVU246
 565 021a 1E46     		mov	r6, r3
 566 021c 043B     		subs	r3, r3, #4
 567              	.LVL106:
 568              		.loc 1 462 24 view .LVU247
 569 021e D6ED006A 		vldr.32	s13, [r6]
 570              		.loc 1 462 22 view .LVU248
 571 0222 27EE267A 		vmul.f32	s14, s14, s13
 572              		.loc 1 462 13 view .LVU249
 573 0226 77EE877A 		vadd.f32	s15, s15, s14
 574              	.LVL107:
 463:Drivers/CMSIS/DSP/Source/FilteringFunctions/arm_conv_f32.c **** 
 464:Drivers/CMSIS/DSP/Source/FilteringFunctions/arm_conv_f32.c ****         /* Decrement the loop counter */
 465:Drivers/CMSIS/DSP/Source/FilteringFunctions/arm_conv_f32.c ****         k--;
 575              		.loc 1 465 9 is_stmt 1 view .LVU250
 576              		.loc 1 465 10 is_stmt 0 view .LVU251
 577 022a 013F     		subs	r7, r7, #1
 578              	.LVL108:
 579              		.loc 1 465 10 view .LVU252
 580 022c F2E7     		b	.L18
 581              	.L36:
 466:Drivers/CMSIS/DSP/Source/FilteringFunctions/arm_conv_f32.c ****       }
 467:Drivers/CMSIS/DSP/Source/FilteringFunctions/arm_conv_f32.c **** 
 468:Drivers/CMSIS/DSP/Source/FilteringFunctions/arm_conv_f32.c ****       /* Store the result in the accumulator in the destination buffer. */
 469:Drivers/CMSIS/DSP/Source/FilteringFunctions/arm_conv_f32.c ****       *pOut++ = sum;
 582              		.loc 1 469 7 is_stmt 1 view .LVU253
 583              	.LVL109:
 584              		.loc 1 469 15 is_stmt 0 view .LVU254
 585 022e E2EC017A 		vstmia.32	r2!, {s15}
 586              	.LVL110:
 470:Drivers/CMSIS/DSP/Source/FilteringFunctions/arm_conv_f32.c **** 
 471:Drivers/CMSIS/DSP/Source/FilteringFunctions/arm_conv_f32.c ****       /* Increment the MAC count */
 472:Drivers/CMSIS/DSP/Source/FilteringFunctions/arm_conv_f32.c ****       count++;
 587              		.loc 1 472 7 is_stmt 1 view .LVU255
ARM GAS  /var/folders/n6/c271nzx11xl4r4_m7sqjlt0m0000gn/T//ccJIZLIe.s 			page 22


 588              		.loc 1 472 12 is_stmt 0 view .LVU256
 589 0232 0131     		adds	r1, r1, #1
 590              	.LVL111:
 473:Drivers/CMSIS/DSP/Source/FilteringFunctions/arm_conv_f32.c **** 
 474:Drivers/CMSIS/DSP/Source/FilteringFunctions/arm_conv_f32.c ****       /* Update the inputA and inputB pointers for next MAC calculation */
 475:Drivers/CMSIS/DSP/Source/FilteringFunctions/arm_conv_f32.c ****       px = pIn1 + count;
 591              		.loc 1 475 7 is_stmt 1 view .LVU257
 592              		.loc 1 475 10 is_stmt 0 view .LVU258
 593 0234 0EEB810C 		add	ip, lr, r1, lsl #2
 594              	.LVL112:
 476:Drivers/CMSIS/DSP/Source/FilteringFunctions/arm_conv_f32.c ****       py = pSrc2;
 595              		.loc 1 476 7 is_stmt 1 view .LVU259
 477:Drivers/CMSIS/DSP/Source/FilteringFunctions/arm_conv_f32.c **** 
 478:Drivers/CMSIS/DSP/Source/FilteringFunctions/arm_conv_f32.c ****       /* Decrement the loop counter */
 479:Drivers/CMSIS/DSP/Source/FilteringFunctions/arm_conv_f32.c ****       blkCnt--;
 596              		.loc 1 479 7 view .LVU260
 597              		.loc 1 479 13 is_stmt 0 view .LVU261
 598 0238 08F1FF38 		add	r8, r8, #-1
 599              	.LVL113:
 600              	.L15:
 433:Drivers/CMSIS/DSP/Source/FilteringFunctions/arm_conv_f32.c ****     {
 601              		.loc 1 433 19 is_stmt 1 view .LVU262
 602 023c B8F1000F 		cmp	r8, #0
 603 0240 49D0     		beq	.L21
 436:Drivers/CMSIS/DSP/Source/FilteringFunctions/arm_conv_f32.c **** 
 604              		.loc 1 436 7 view .LVU263
 605              	.LVL114:
 439:Drivers/CMSIS/DSP/Source/FilteringFunctions/arm_conv_f32.c **** 
 606              		.loc 1 439 7 view .LVU264
 439:Drivers/CMSIS/DSP/Source/FilteringFunctions/arm_conv_f32.c **** 
 607              		.loc 1 439 9 is_stmt 0 view .LVU265
 608 0242 A708     		lsrs	r7, r4, #2
 609              	.LVL115:
 443:Drivers/CMSIS/DSP/Source/FilteringFunctions/arm_conv_f32.c ****       {
 610              		.loc 1 443 7 is_stmt 1 view .LVU266
 443:Drivers/CMSIS/DSP/Source/FilteringFunctions/arm_conv_f32.c ****       {
 611              		.loc 1 443 13 is_stmt 0 view .LVU267
 612 0244 2B46     		mov	r3, r5
 436:Drivers/CMSIS/DSP/Source/FilteringFunctions/arm_conv_f32.c **** 
 613              		.loc 1 436 11 view .LVU268
 614 0246 DFED477A 		vldr.32	s15, .L39
 615              	.LVL116:
 616              	.L16:
 443:Drivers/CMSIS/DSP/Source/FilteringFunctions/arm_conv_f32.c ****       {
 617              		.loc 1 443 16 is_stmt 1 view .LVU269
 618 024a 002F     		cmp	r7, #0
 619 024c E0D0     		beq	.L37
 446:Drivers/CMSIS/DSP/Source/FilteringFunctions/arm_conv_f32.c ****         sum += *px++ * *py--;
 620              		.loc 1 446 9 view .LVU270
 621              	.LVL117:
 446:Drivers/CMSIS/DSP/Source/FilteringFunctions/arm_conv_f32.c ****         sum += *px++ * *py--;
 622              		.loc 1 446 16 is_stmt 0 view .LVU271
 623 024e 9CED007A 		vldr.32	s14, [ip]
 624              	.LVL118:
 446:Drivers/CMSIS/DSP/Source/FilteringFunctions/arm_conv_f32.c ****         sum += *px++ * *py--;
 625              		.loc 1 446 24 view .LVU272
 626 0252 D3ED006A 		vldr.32	s13, [r3]
ARM GAS  /var/folders/n6/c271nzx11xl4r4_m7sqjlt0m0000gn/T//ccJIZLIe.s 			page 23


 446:Drivers/CMSIS/DSP/Source/FilteringFunctions/arm_conv_f32.c ****         sum += *px++ * *py--;
 627              		.loc 1 446 22 view .LVU273
 628 0256 27EE267A 		vmul.f32	s14, s14, s13
 446:Drivers/CMSIS/DSP/Source/FilteringFunctions/arm_conv_f32.c ****         sum += *px++ * *py--;
 629              		.loc 1 446 13 view .LVU274
 630 025a 77EE877A 		vadd.f32	s15, s15, s14
 631              	.LVL119:
 447:Drivers/CMSIS/DSP/Source/FilteringFunctions/arm_conv_f32.c ****         sum += *px++ * *py--;
 632              		.loc 1 447 9 is_stmt 1 view .LVU275
 447:Drivers/CMSIS/DSP/Source/FilteringFunctions/arm_conv_f32.c ****         sum += *px++ * *py--;
 633              		.loc 1 447 16 is_stmt 0 view .LVU276
 634 025e 9CED017A 		vldr.32	s14, [ip, #4]
 635              	.LVL120:
 447:Drivers/CMSIS/DSP/Source/FilteringFunctions/arm_conv_f32.c ****         sum += *px++ * *py--;
 636              		.loc 1 447 24 view .LVU277
 637 0262 53ED016A 		vldr.32	s13, [r3, #-4]
 447:Drivers/CMSIS/DSP/Source/FilteringFunctions/arm_conv_f32.c ****         sum += *px++ * *py--;
 638              		.loc 1 447 22 view .LVU278
 639 0266 27EE267A 		vmul.f32	s14, s14, s13
 447:Drivers/CMSIS/DSP/Source/FilteringFunctions/arm_conv_f32.c ****         sum += *px++ * *py--;
 640              		.loc 1 447 13 view .LVU279
 641 026a 77EE877A 		vadd.f32	s15, s15, s14
 642              	.LVL121:
 448:Drivers/CMSIS/DSP/Source/FilteringFunctions/arm_conv_f32.c ****         sum += *px++ * *py--;
 643              		.loc 1 448 9 is_stmt 1 view .LVU280
 448:Drivers/CMSIS/DSP/Source/FilteringFunctions/arm_conv_f32.c ****         sum += *px++ * *py--;
 644              		.loc 1 448 16 is_stmt 0 view .LVU281
 645 026e 9CED027A 		vldr.32	s14, [ip, #8]
 646              	.LVL122:
 448:Drivers/CMSIS/DSP/Source/FilteringFunctions/arm_conv_f32.c ****         sum += *px++ * *py--;
 647              		.loc 1 448 24 view .LVU282
 648 0272 53ED026A 		vldr.32	s13, [r3, #-8]
 448:Drivers/CMSIS/DSP/Source/FilteringFunctions/arm_conv_f32.c ****         sum += *px++ * *py--;
 649              		.loc 1 448 22 view .LVU283
 650 0276 27EE267A 		vmul.f32	s14, s14, s13
 448:Drivers/CMSIS/DSP/Source/FilteringFunctions/arm_conv_f32.c ****         sum += *px++ * *py--;
 651              		.loc 1 448 13 view .LVU284
 652 027a 77EE877A 		vadd.f32	s15, s15, s14
 653              	.LVL123:
 449:Drivers/CMSIS/DSP/Source/FilteringFunctions/arm_conv_f32.c **** 
 654              		.loc 1 449 9 is_stmt 1 view .LVU285
 449:Drivers/CMSIS/DSP/Source/FilteringFunctions/arm_conv_f32.c **** 
 655              		.loc 1 449 16 is_stmt 0 view .LVU286
 656 027e 9CED037A 		vldr.32	s14, [ip, #12]
 657              	.LVL124:
 449:Drivers/CMSIS/DSP/Source/FilteringFunctions/arm_conv_f32.c **** 
 658              		.loc 1 449 24 view .LVU287
 659 0282 53ED036A 		vldr.32	s13, [r3, #-12]
 449:Drivers/CMSIS/DSP/Source/FilteringFunctions/arm_conv_f32.c **** 
 660              		.loc 1 449 22 view .LVU288
 661 0286 27EE267A 		vmul.f32	s14, s14, s13
 449:Drivers/CMSIS/DSP/Source/FilteringFunctions/arm_conv_f32.c **** 
 662              		.loc 1 449 13 view .LVU289
 663 028a 77EE877A 		vadd.f32	s15, s15, s14
 664              	.LVL125:
 452:Drivers/CMSIS/DSP/Source/FilteringFunctions/arm_conv_f32.c ****       }
 665              		.loc 1 452 9 is_stmt 1 view .LVU290
ARM GAS  /var/folders/n6/c271nzx11xl4r4_m7sqjlt0m0000gn/T//ccJIZLIe.s 			page 24


 452:Drivers/CMSIS/DSP/Source/FilteringFunctions/arm_conv_f32.c ****       }
 666              		.loc 1 452 10 is_stmt 0 view .LVU291
 667 028e 013F     		subs	r7, r7, #1
 668              	.LVL126:
 449:Drivers/CMSIS/DSP/Source/FilteringFunctions/arm_conv_f32.c **** 
 669              		.loc 1 449 27 view .LVU292
 670 0290 103B     		subs	r3, r3, #16
 671              	.LVL127:
 449:Drivers/CMSIS/DSP/Source/FilteringFunctions/arm_conv_f32.c **** 
 672              		.loc 1 449 19 view .LVU293
 673 0292 0CF1100C 		add	ip, ip, #16
 674              	.LVL128:
 449:Drivers/CMSIS/DSP/Source/FilteringFunctions/arm_conv_f32.c **** 
 675              		.loc 1 449 19 view .LVU294
 676 0296 D8E7     		b	.L16
 677              	.LVL129:
 678              	.L22:
 480:Drivers/CMSIS/DSP/Source/FilteringFunctions/arm_conv_f32.c ****     }
 481:Drivers/CMSIS/DSP/Source/FilteringFunctions/arm_conv_f32.c ****   }
 482:Drivers/CMSIS/DSP/Source/FilteringFunctions/arm_conv_f32.c ****   else
 483:Drivers/CMSIS/DSP/Source/FilteringFunctions/arm_conv_f32.c ****   {
 484:Drivers/CMSIS/DSP/Source/FilteringFunctions/arm_conv_f32.c ****     /* If the srcBLen is not a multiple of 4,
 485:Drivers/CMSIS/DSP/Source/FilteringFunctions/arm_conv_f32.c ****      * the blockSize2 loop cannot be unrolled by 4 */
 486:Drivers/CMSIS/DSP/Source/FilteringFunctions/arm_conv_f32.c ****     blkCnt = blockSize2;
 487:Drivers/CMSIS/DSP/Source/FilteringFunctions/arm_conv_f32.c **** 
 488:Drivers/CMSIS/DSP/Source/FilteringFunctions/arm_conv_f32.c ****     while (blkCnt > 0U)
 489:Drivers/CMSIS/DSP/Source/FilteringFunctions/arm_conv_f32.c ****     {
 490:Drivers/CMSIS/DSP/Source/FilteringFunctions/arm_conv_f32.c ****       /* Accumulator is made zero for every iteration */
 491:Drivers/CMSIS/DSP/Source/FilteringFunctions/arm_conv_f32.c ****       sum = 0.0f;
 492:Drivers/CMSIS/DSP/Source/FilteringFunctions/arm_conv_f32.c **** 
 493:Drivers/CMSIS/DSP/Source/FilteringFunctions/arm_conv_f32.c ****       /* srcBLen number of MACS should be performed */
 494:Drivers/CMSIS/DSP/Source/FilteringFunctions/arm_conv_f32.c ****       k = srcBLen;
 495:Drivers/CMSIS/DSP/Source/FilteringFunctions/arm_conv_f32.c **** 
 496:Drivers/CMSIS/DSP/Source/FilteringFunctions/arm_conv_f32.c ****       while (k > 0U)
 497:Drivers/CMSIS/DSP/Source/FilteringFunctions/arm_conv_f32.c ****       {
 498:Drivers/CMSIS/DSP/Source/FilteringFunctions/arm_conv_f32.c ****         /* Perform the multiply-accumulate */
 499:Drivers/CMSIS/DSP/Source/FilteringFunctions/arm_conv_f32.c ****         sum += *px++ * *py--;
 679              		.loc 1 499 9 is_stmt 1 view .LVU295
 680              		.loc 1 499 16 is_stmt 0 view .LVU296
 681 0298 F3EC017A 		vldmia.32	r3!, {s15}
 682              	.LVL130:
 683              		.loc 1 499 24 view .LVU297
 684 029c BC46     		mov	ip, r7
 685 029e 043F     		subs	r7, r7, #4
 686              	.LVL131:
 687              		.loc 1 499 24 view .LVU298
 688 02a0 DCED006A 		vldr.32	s13, [ip]
 689              		.loc 1 499 22 view .LVU299
 690 02a4 67EEA67A 		vmul.f32	s15, s15, s13
 691              		.loc 1 499 13 view .LVU300
 692 02a8 37EE277A 		vadd.f32	s14, s14, s15
 693              	.LVL132:
 500:Drivers/CMSIS/DSP/Source/FilteringFunctions/arm_conv_f32.c **** 
 501:Drivers/CMSIS/DSP/Source/FilteringFunctions/arm_conv_f32.c ****         /* Decrement the loop counter */
 502:Drivers/CMSIS/DSP/Source/FilteringFunctions/arm_conv_f32.c ****         k--;
 694              		.loc 1 502 9 is_stmt 1 view .LVU301
 695              		.loc 1 502 10 is_stmt 0 view .LVU302
ARM GAS  /var/folders/n6/c271nzx11xl4r4_m7sqjlt0m0000gn/T//ccJIZLIe.s 			page 25


 696 02ac 013E     		subs	r6, r6, #1
 697              	.LVL133:
 698              	.L23:
 496:Drivers/CMSIS/DSP/Source/FilteringFunctions/arm_conv_f32.c ****       {
 699              		.loc 1 496 16 is_stmt 1 view .LVU303
 700 02ae 002E     		cmp	r6, #0
 701 02b0 F2D1     		bne	.L22
 503:Drivers/CMSIS/DSP/Source/FilteringFunctions/arm_conv_f32.c ****       }
 504:Drivers/CMSIS/DSP/Source/FilteringFunctions/arm_conv_f32.c **** 
 505:Drivers/CMSIS/DSP/Source/FilteringFunctions/arm_conv_f32.c ****       /* Store the result in the accumulator in the destination buffer. */
 506:Drivers/CMSIS/DSP/Source/FilteringFunctions/arm_conv_f32.c ****       *pOut++ = sum;
 702              		.loc 1 506 7 view .LVU304
 703              	.LVL134:
 704              		.loc 1 506 15 is_stmt 0 view .LVU305
 705 02b2 A2EC017A 		vstmia.32	r2!, {s14}
 706              	.LVL135:
 507:Drivers/CMSIS/DSP/Source/FilteringFunctions/arm_conv_f32.c **** 
 508:Drivers/CMSIS/DSP/Source/FilteringFunctions/arm_conv_f32.c ****       /* Increment the MAC count */
 509:Drivers/CMSIS/DSP/Source/FilteringFunctions/arm_conv_f32.c ****       count++;
 707              		.loc 1 509 7 is_stmt 1 view .LVU306
 708              		.loc 1 509 12 is_stmt 0 view .LVU307
 709 02b6 0131     		adds	r1, r1, #1
 710              	.LVL136:
 510:Drivers/CMSIS/DSP/Source/FilteringFunctions/arm_conv_f32.c **** 
 511:Drivers/CMSIS/DSP/Source/FilteringFunctions/arm_conv_f32.c ****       /* Update the inputA and inputB pointers for next MAC calculation */
 512:Drivers/CMSIS/DSP/Source/FilteringFunctions/arm_conv_f32.c ****       px = pIn1 + count;
 711              		.loc 1 512 7 is_stmt 1 view .LVU308
 712              		.loc 1 512 10 is_stmt 0 view .LVU309
 713 02b8 0EEB8103 		add	r3, lr, r1, lsl #2
 714              	.LVL137:
 513:Drivers/CMSIS/DSP/Source/FilteringFunctions/arm_conv_f32.c ****       py = pSrc2;
 715              		.loc 1 513 7 is_stmt 1 view .LVU310
 514:Drivers/CMSIS/DSP/Source/FilteringFunctions/arm_conv_f32.c **** 
 515:Drivers/CMSIS/DSP/Source/FilteringFunctions/arm_conv_f32.c ****       /* Decrement the loop counter */
 516:Drivers/CMSIS/DSP/Source/FilteringFunctions/arm_conv_f32.c ****       blkCnt--;
 716              		.loc 1 516 7 view .LVU311
 717              		.loc 1 516 13 is_stmt 0 view .LVU312
 718 02bc 08F1FF38 		add	r8, r8, #-1
 719              	.LVL138:
 720              	.L9:
 488:Drivers/CMSIS/DSP/Source/FilteringFunctions/arm_conv_f32.c ****     {
 721              		.loc 1 488 19 is_stmt 1 view .LVU313
 722 02c0 B8F1000F 		cmp	r8, #0
 723 02c4 07D0     		beq	.L21
 494:Drivers/CMSIS/DSP/Source/FilteringFunctions/arm_conv_f32.c **** 
 724              		.loc 1 494 9 is_stmt 0 view .LVU314
 725 02c6 2646     		mov	r6, r4
 726 02c8 2F46     		mov	r7, r5
 491:Drivers/CMSIS/DSP/Source/FilteringFunctions/arm_conv_f32.c **** 
 727              		.loc 1 491 11 view .LVU315
 728 02ca 9FED267A 		vldr.32	s14, .L39
 729 02ce EEE7     		b	.L23
 730              	.LVL139:
 731              	.L30:
 486:Drivers/CMSIS/DSP/Source/FilteringFunctions/arm_conv_f32.c **** 
 732              		.loc 1 486 12 view .LVU316
 733 02d0 D046     		mov	r8, r10
ARM GAS  /var/folders/n6/c271nzx11xl4r4_m7sqjlt0m0000gn/T//ccJIZLIe.s 			page 26


 267:Drivers/CMSIS/DSP/Source/FilteringFunctions/arm_conv_f32.c **** 
 734              		.loc 1 267 6 view .LVU317
 735 02d2 7346     		mov	r3, lr
 736 02d4 F4E7     		b	.L9
 737              	.LVL140:
 738              	.L21:
 517:Drivers/CMSIS/DSP/Source/FilteringFunctions/arm_conv_f32.c ****     }
 518:Drivers/CMSIS/DSP/Source/FilteringFunctions/arm_conv_f32.c ****   }
 519:Drivers/CMSIS/DSP/Source/FilteringFunctions/arm_conv_f32.c **** 
 520:Drivers/CMSIS/DSP/Source/FilteringFunctions/arm_conv_f32.c **** 
 521:Drivers/CMSIS/DSP/Source/FilteringFunctions/arm_conv_f32.c ****   /* --------------------------
 522:Drivers/CMSIS/DSP/Source/FilteringFunctions/arm_conv_f32.c ****    * Initializations of stage3
 523:Drivers/CMSIS/DSP/Source/FilteringFunctions/arm_conv_f32.c ****    * -------------------------*/
 524:Drivers/CMSIS/DSP/Source/FilteringFunctions/arm_conv_f32.c **** 
 525:Drivers/CMSIS/DSP/Source/FilteringFunctions/arm_conv_f32.c ****   /* sum += x[srcALen-srcBLen+1] * y[srcBLen-1] + x[srcALen-srcBLen+2] * y[srcBLen-2] +...+ x[srcAL
 526:Drivers/CMSIS/DSP/Source/FilteringFunctions/arm_conv_f32.c ****    * sum += x[srcALen-srcBLen+2] * y[srcBLen-1] + x[srcALen-srcBLen+3] * y[srcBLen-2] +...+ x[srcAL
 527:Drivers/CMSIS/DSP/Source/FilteringFunctions/arm_conv_f32.c ****    * ....
 528:Drivers/CMSIS/DSP/Source/FilteringFunctions/arm_conv_f32.c ****    * sum +=  x[srcALen-2] * y[srcBLen-1] + x[srcALen-1] * y[srcBLen-2]
 529:Drivers/CMSIS/DSP/Source/FilteringFunctions/arm_conv_f32.c ****    * sum +=  x[srcALen-1] * y[srcBLen-1]
 530:Drivers/CMSIS/DSP/Source/FilteringFunctions/arm_conv_f32.c ****    */
 531:Drivers/CMSIS/DSP/Source/FilteringFunctions/arm_conv_f32.c **** 
 532:Drivers/CMSIS/DSP/Source/FilteringFunctions/arm_conv_f32.c ****   /* In this stage the MAC operations are decreased by 1 for every iteration.
 533:Drivers/CMSIS/DSP/Source/FilteringFunctions/arm_conv_f32.c ****      The blockSize3 variable holds the number of MAC operations performed */
 534:Drivers/CMSIS/DSP/Source/FilteringFunctions/arm_conv_f32.c **** 
 535:Drivers/CMSIS/DSP/Source/FilteringFunctions/arm_conv_f32.c ****   /* Working pointer of inputA */
 536:Drivers/CMSIS/DSP/Source/FilteringFunctions/arm_conv_f32.c ****   pSrc1 = (pIn1 + srcALen) - (srcBLen - 1U);
 739              		.loc 1 536 3 is_stmt 1 view .LVU318
 740              		.loc 1 536 9 is_stmt 0 view .LVU319
 741 02d6 0EEB8A0E 		add	lr, lr, r10, lsl #2
 742              	.LVL141:
 537:Drivers/CMSIS/DSP/Source/FilteringFunctions/arm_conv_f32.c ****   px = pSrc1;
 743              		.loc 1 537 3 is_stmt 1 view .LVU320
 538:Drivers/CMSIS/DSP/Source/FilteringFunctions/arm_conv_f32.c **** 
 539:Drivers/CMSIS/DSP/Source/FilteringFunctions/arm_conv_f32.c ****   /* Working pointer of inputB */
 540:Drivers/CMSIS/DSP/Source/FilteringFunctions/arm_conv_f32.c ****   pSrc2 = pIn2 + (srcBLen - 1U);
 744              		.loc 1 540 3 view .LVU321
 541:Drivers/CMSIS/DSP/Source/FilteringFunctions/arm_conv_f32.c ****   py = pSrc2;
 745              		.loc 1 541 3 view .LVU322
 542:Drivers/CMSIS/DSP/Source/FilteringFunctions/arm_conv_f32.c **** 
 543:Drivers/CMSIS/DSP/Source/FilteringFunctions/arm_conv_f32.c ****   /* -------------------
 544:Drivers/CMSIS/DSP/Source/FilteringFunctions/arm_conv_f32.c ****    * Stage3 process
 545:Drivers/CMSIS/DSP/Source/FilteringFunctions/arm_conv_f32.c ****    * ------------------*/
 546:Drivers/CMSIS/DSP/Source/FilteringFunctions/arm_conv_f32.c **** 
 547:Drivers/CMSIS/DSP/Source/FilteringFunctions/arm_conv_f32.c ****   while (blockSize3 > 0U)
 746              		.loc 1 547 3 view .LVU323
 747              		.loc 1 547 9 is_stmt 0 view .LVU324
 748 02da 39E0     		b	.L24
 749              	.LVL142:
 750              	.L26:
 548:Drivers/CMSIS/DSP/Source/FilteringFunctions/arm_conv_f32.c ****   {
 549:Drivers/CMSIS/DSP/Source/FilteringFunctions/arm_conv_f32.c ****     /* Accumulator is made zero for every iteration */
 550:Drivers/CMSIS/DSP/Source/FilteringFunctions/arm_conv_f32.c ****     sum = 0.0f;
 551:Drivers/CMSIS/DSP/Source/FilteringFunctions/arm_conv_f32.c **** 
 552:Drivers/CMSIS/DSP/Source/FilteringFunctions/arm_conv_f32.c ****     /* Apply loop unrolling and compute 4 MACs simultaneously. */
 553:Drivers/CMSIS/DSP/Source/FilteringFunctions/arm_conv_f32.c ****     k = blockSize3 >> 2U;
 554:Drivers/CMSIS/DSP/Source/FilteringFunctions/arm_conv_f32.c **** 
 555:Drivers/CMSIS/DSP/Source/FilteringFunctions/arm_conv_f32.c ****     /* First part of the processing with loop unrolling.  Compute 4 MACs at a time.
ARM GAS  /var/folders/n6/c271nzx11xl4r4_m7sqjlt0m0000gn/T//ccJIZLIe.s 			page 27


 556:Drivers/CMSIS/DSP/Source/FilteringFunctions/arm_conv_f32.c ****      ** a second loop below computes MACs for the remaining 1 to 3 samples. */
 557:Drivers/CMSIS/DSP/Source/FilteringFunctions/arm_conv_f32.c ****     while (k > 0U)
 558:Drivers/CMSIS/DSP/Source/FilteringFunctions/arm_conv_f32.c ****     {
 559:Drivers/CMSIS/DSP/Source/FilteringFunctions/arm_conv_f32.c ****       /* sum += x[srcALen - srcBLen + 1] * y[srcBLen - 1] */
 560:Drivers/CMSIS/DSP/Source/FilteringFunctions/arm_conv_f32.c ****       sum += *px++ * *py--;
 751              		.loc 1 560 7 is_stmt 1 view .LVU325
 752              		.loc 1 560 14 is_stmt 0 view .LVU326
 753 02dc 93ED007A 		vldr.32	s14, [r3]
 754              	.LVL143:
 755              		.loc 1 560 22 view .LVU327
 756 02e0 D1ED006A 		vldr.32	s13, [r1]
 757              		.loc 1 560 20 view .LVU328
 758 02e4 27EE267A 		vmul.f32	s14, s14, s13
 759              		.loc 1 560 11 view .LVU329
 760 02e8 77EE877A 		vadd.f32	s15, s15, s14
 761              	.LVL144:
 561:Drivers/CMSIS/DSP/Source/FilteringFunctions/arm_conv_f32.c **** 
 562:Drivers/CMSIS/DSP/Source/FilteringFunctions/arm_conv_f32.c ****       /* sum += x[srcALen - srcBLen + 2] * y[srcBLen - 2] */
 563:Drivers/CMSIS/DSP/Source/FilteringFunctions/arm_conv_f32.c ****       sum += *px++ * *py--;
 762              		.loc 1 563 7 is_stmt 1 view .LVU330
 763              		.loc 1 563 14 is_stmt 0 view .LVU331
 764 02ec 93ED017A 		vldr.32	s14, [r3, #4]
 765              	.LVL145:
 766              		.loc 1 563 22 view .LVU332
 767 02f0 51ED016A 		vldr.32	s13, [r1, #-4]
 768              		.loc 1 563 20 view .LVU333
 769 02f4 27EE267A 		vmul.f32	s14, s14, s13
 770              		.loc 1 563 11 view .LVU334
 771 02f8 77EE877A 		vadd.f32	s15, s15, s14
 772              	.LVL146:
 564:Drivers/CMSIS/DSP/Source/FilteringFunctions/arm_conv_f32.c **** 
 565:Drivers/CMSIS/DSP/Source/FilteringFunctions/arm_conv_f32.c ****       /* sum += x[srcALen - srcBLen + 3] * y[srcBLen - 3] */
 566:Drivers/CMSIS/DSP/Source/FilteringFunctions/arm_conv_f32.c ****       sum += *px++ * *py--;
 773              		.loc 1 566 7 is_stmt 1 view .LVU335
 774              		.loc 1 566 14 is_stmt 0 view .LVU336
 775 02fc 93ED027A 		vldr.32	s14, [r3, #8]
 776              	.LVL147:
 777              		.loc 1 566 22 view .LVU337
 778 0300 51ED026A 		vldr.32	s13, [r1, #-8]
 779              		.loc 1 566 20 view .LVU338
 780 0304 27EE267A 		vmul.f32	s14, s14, s13
 781              		.loc 1 566 11 view .LVU339
 782 0308 77EE877A 		vadd.f32	s15, s15, s14
 783              	.LVL148:
 567:Drivers/CMSIS/DSP/Source/FilteringFunctions/arm_conv_f32.c **** 
 568:Drivers/CMSIS/DSP/Source/FilteringFunctions/arm_conv_f32.c ****       /* sum += x[srcALen - srcBLen + 4] * y[srcBLen - 4] */
 569:Drivers/CMSIS/DSP/Source/FilteringFunctions/arm_conv_f32.c ****       sum += *px++ * *py--;
 784              		.loc 1 569 7 is_stmt 1 view .LVU340
 785              		.loc 1 569 14 is_stmt 0 view .LVU341
 786 030c 93ED037A 		vldr.32	s14, [r3, #12]
 787              	.LVL149:
 788              		.loc 1 569 22 view .LVU342
 789 0310 51ED036A 		vldr.32	s13, [r1, #-12]
 790              		.loc 1 569 20 view .LVU343
 791 0314 27EE267A 		vmul.f32	s14, s14, s13
 792              		.loc 1 569 11 view .LVU344
 793 0318 77EE877A 		vadd.f32	s15, s15, s14
ARM GAS  /var/folders/n6/c271nzx11xl4r4_m7sqjlt0m0000gn/T//ccJIZLIe.s 			page 28


 794              	.LVL150:
 570:Drivers/CMSIS/DSP/Source/FilteringFunctions/arm_conv_f32.c **** 
 571:Drivers/CMSIS/DSP/Source/FilteringFunctions/arm_conv_f32.c ****       /* Decrement the loop counter */
 572:Drivers/CMSIS/DSP/Source/FilteringFunctions/arm_conv_f32.c ****       k--;
 795              		.loc 1 572 7 is_stmt 1 view .LVU345
 796              		.loc 1 572 8 is_stmt 0 view .LVU346
 797 031c 013C     		subs	r4, r4, #1
 798              	.LVL151:
 569:Drivers/CMSIS/DSP/Source/FilteringFunctions/arm_conv_f32.c **** 
 799              		.loc 1 569 25 view .LVU347
 800 031e 1039     		subs	r1, r1, #16
 801              	.LVL152:
 569:Drivers/CMSIS/DSP/Source/FilteringFunctions/arm_conv_f32.c **** 
 802              		.loc 1 569 17 view .LVU348
 803 0320 1033     		adds	r3, r3, #16
 804              	.LVL153:
 805              	.L25:
 557:Drivers/CMSIS/DSP/Source/FilteringFunctions/arm_conv_f32.c ****     {
 806              		.loc 1 557 14 is_stmt 1 view .LVU349
 807 0322 002C     		cmp	r4, #0
 808 0324 DAD1     		bne	.L26
 573:Drivers/CMSIS/DSP/Source/FilteringFunctions/arm_conv_f32.c ****     }
 574:Drivers/CMSIS/DSP/Source/FilteringFunctions/arm_conv_f32.c **** 
 575:Drivers/CMSIS/DSP/Source/FilteringFunctions/arm_conv_f32.c ****     /* If the blockSize3 is not a multiple of 4, compute any remaining MACs here.
 576:Drivers/CMSIS/DSP/Source/FilteringFunctions/arm_conv_f32.c ****      ** No loop unrolling is used. */
 577:Drivers/CMSIS/DSP/Source/FilteringFunctions/arm_conv_f32.c ****     k = blockSize3 % 0x4U;
 809              		.loc 1 577 5 view .LVU350
 810              		.loc 1 577 7 is_stmt 0 view .LVU351
 811 0326 00F00304 		and	r4, r0, #3
 812              	.LVL154:
 578:Drivers/CMSIS/DSP/Source/FilteringFunctions/arm_conv_f32.c **** 
 579:Drivers/CMSIS/DSP/Source/FilteringFunctions/arm_conv_f32.c ****     while (k > 0U)
 813              		.loc 1 579 5 is_stmt 1 view .LVU352
 814              		.loc 1 579 11 is_stmt 0 view .LVU353
 815 032a 0AE0     		b	.L27
 816              	.L28:
 580:Drivers/CMSIS/DSP/Source/FilteringFunctions/arm_conv_f32.c ****     {
 581:Drivers/CMSIS/DSP/Source/FilteringFunctions/arm_conv_f32.c ****       /* Perform the multiply-accumulates */
 582:Drivers/CMSIS/DSP/Source/FilteringFunctions/arm_conv_f32.c ****       /* sum +=  x[srcALen-1] * y[srcBLen-1] */
 583:Drivers/CMSIS/DSP/Source/FilteringFunctions/arm_conv_f32.c ****       sum += *px++ * *py--;
 817              		.loc 1 583 7 is_stmt 1 view .LVU354
 818              	.LVL155:
 819              		.loc 1 583 14 is_stmt 0 view .LVU355
 820 032c B3EC017A 		vldmia.32	r3!, {s14}
 821              	.LVL156:
 822              		.loc 1 583 22 view .LVU356
 823 0330 0E46     		mov	r6, r1
 824 0332 0439     		subs	r1, r1, #4
 825              	.LVL157:
 826              		.loc 1 583 22 view .LVU357
 827 0334 D6ED006A 		vldr.32	s13, [r6]
 828              		.loc 1 583 20 view .LVU358
 829 0338 27EE267A 		vmul.f32	s14, s14, s13
 830              		.loc 1 583 11 view .LVU359
 831 033c 77EE877A 		vadd.f32	s15, s15, s14
 832              	.LVL158:
 584:Drivers/CMSIS/DSP/Source/FilteringFunctions/arm_conv_f32.c **** 
ARM GAS  /var/folders/n6/c271nzx11xl4r4_m7sqjlt0m0000gn/T//ccJIZLIe.s 			page 29


 585:Drivers/CMSIS/DSP/Source/FilteringFunctions/arm_conv_f32.c ****       /* Decrement the loop counter */
 586:Drivers/CMSIS/DSP/Source/FilteringFunctions/arm_conv_f32.c ****       k--;
 833              		.loc 1 586 7 is_stmt 1 view .LVU360
 834              		.loc 1 586 8 is_stmt 0 view .LVU361
 835 0340 013C     		subs	r4, r4, #1
 836              	.LVL159:
 837              	.L27:
 579:Drivers/CMSIS/DSP/Source/FilteringFunctions/arm_conv_f32.c ****     {
 838              		.loc 1 579 14 is_stmt 1 view .LVU362
 839 0342 002C     		cmp	r4, #0
 840 0344 F2D1     		bne	.L28
 587:Drivers/CMSIS/DSP/Source/FilteringFunctions/arm_conv_f32.c ****     }
 588:Drivers/CMSIS/DSP/Source/FilteringFunctions/arm_conv_f32.c **** 
 589:Drivers/CMSIS/DSP/Source/FilteringFunctions/arm_conv_f32.c ****     /* Store the result in the accumulator in the destination buffer. */
 590:Drivers/CMSIS/DSP/Source/FilteringFunctions/arm_conv_f32.c ****     *pOut++ = sum;
 841              		.loc 1 590 5 view .LVU363
 842              	.LVL160:
 843              		.loc 1 590 13 is_stmt 0 view .LVU364
 844 0346 E2EC017A 		vstmia.32	r2!, {s15}
 845              	.LVL161:
 591:Drivers/CMSIS/DSP/Source/FilteringFunctions/arm_conv_f32.c **** 
 592:Drivers/CMSIS/DSP/Source/FilteringFunctions/arm_conv_f32.c ****     /* Update the inputA and inputB pointers for next MAC calculation */
 593:Drivers/CMSIS/DSP/Source/FilteringFunctions/arm_conv_f32.c ****     px = ++pSrc1;
 846              		.loc 1 593 5 is_stmt 1 view .LVU365
 847              		.loc 1 593 8 is_stmt 0 view .LVU366
 848 034a 0EF1040E 		add	lr, lr, #4
 849              	.LVL162:
 594:Drivers/CMSIS/DSP/Source/FilteringFunctions/arm_conv_f32.c ****     py = pSrc2;
 850              		.loc 1 594 5 is_stmt 1 view .LVU367
 595:Drivers/CMSIS/DSP/Source/FilteringFunctions/arm_conv_f32.c **** 
 596:Drivers/CMSIS/DSP/Source/FilteringFunctions/arm_conv_f32.c ****     /* Decrement the loop counter */
 597:Drivers/CMSIS/DSP/Source/FilteringFunctions/arm_conv_f32.c ****     blockSize3--;
 851              		.loc 1 597 5 view .LVU368
 852              		.loc 1 597 15 is_stmt 0 view .LVU369
 853 034e 0138     		subs	r0, r0, #1
 854              	.LVL163:
 855              	.L24:
 547:Drivers/CMSIS/DSP/Source/FilteringFunctions/arm_conv_f32.c ****   {
 856              		.loc 1 547 21 is_stmt 1 view .LVU370
 857 0350 28B1     		cbz	r0, .L38
 550:Drivers/CMSIS/DSP/Source/FilteringFunctions/arm_conv_f32.c **** 
 858              		.loc 1 550 5 view .LVU371
 859              	.LVL164:
 553:Drivers/CMSIS/DSP/Source/FilteringFunctions/arm_conv_f32.c **** 
 860              		.loc 1 553 5 view .LVU372
 553:Drivers/CMSIS/DSP/Source/FilteringFunctions/arm_conv_f32.c **** 
 861              		.loc 1 553 7 is_stmt 0 view .LVU373
 862 0352 8408     		lsrs	r4, r0, #2
 863              	.LVL165:
 557:Drivers/CMSIS/DSP/Source/FilteringFunctions/arm_conv_f32.c ****     {
 864              		.loc 1 557 5 is_stmt 1 view .LVU374
 557:Drivers/CMSIS/DSP/Source/FilteringFunctions/arm_conv_f32.c ****     {
 865              		.loc 1 557 11 is_stmt 0 view .LVU375
 866 0354 2946     		mov	r1, r5
 867 0356 7346     		mov	r3, lr
 550:Drivers/CMSIS/DSP/Source/FilteringFunctions/arm_conv_f32.c **** 
 868              		.loc 1 550 9 view .LVU376
ARM GAS  /var/folders/n6/c271nzx11xl4r4_m7sqjlt0m0000gn/T//ccJIZLIe.s 			page 30


 869 0358 DFED027A 		vldr.32	s15, .L39
 557:Drivers/CMSIS/DSP/Source/FilteringFunctions/arm_conv_f32.c ****     {
 870              		.loc 1 557 11 view .LVU377
 871 035c E1E7     		b	.L25
 872              	.LVL166:
 873              	.L38:
 598:Drivers/CMSIS/DSP/Source/FilteringFunctions/arm_conv_f32.c ****   }
 599:Drivers/CMSIS/DSP/Source/FilteringFunctions/arm_conv_f32.c **** 
 600:Drivers/CMSIS/DSP/Source/FilteringFunctions/arm_conv_f32.c **** #else
 601:Drivers/CMSIS/DSP/Source/FilteringFunctions/arm_conv_f32.c **** 
 602:Drivers/CMSIS/DSP/Source/FilteringFunctions/arm_conv_f32.c ****   /* Run the below code for Cortex-M0 */
 603:Drivers/CMSIS/DSP/Source/FilteringFunctions/arm_conv_f32.c **** 
 604:Drivers/CMSIS/DSP/Source/FilteringFunctions/arm_conv_f32.c ****   float32_t *pIn1 = pSrcA;                       /* inputA pointer */
 605:Drivers/CMSIS/DSP/Source/FilteringFunctions/arm_conv_f32.c ****   float32_t *pIn2 = pSrcB;                       /* inputB pointer */
 606:Drivers/CMSIS/DSP/Source/FilteringFunctions/arm_conv_f32.c ****   float32_t sum;                                 /* Accumulator */
 607:Drivers/CMSIS/DSP/Source/FilteringFunctions/arm_conv_f32.c ****   uint32_t i, j;                                 /* loop counters */
 608:Drivers/CMSIS/DSP/Source/FilteringFunctions/arm_conv_f32.c **** 
 609:Drivers/CMSIS/DSP/Source/FilteringFunctions/arm_conv_f32.c ****   /* Loop to calculate convolution for output length number of times */
 610:Drivers/CMSIS/DSP/Source/FilteringFunctions/arm_conv_f32.c ****   for (i = 0U; i < ((srcALen + srcBLen) - 1U); i++)
 611:Drivers/CMSIS/DSP/Source/FilteringFunctions/arm_conv_f32.c ****   {
 612:Drivers/CMSIS/DSP/Source/FilteringFunctions/arm_conv_f32.c ****     /* Initialize sum with zero to carry out MAC operations */
 613:Drivers/CMSIS/DSP/Source/FilteringFunctions/arm_conv_f32.c ****     sum = 0.0f;
 614:Drivers/CMSIS/DSP/Source/FilteringFunctions/arm_conv_f32.c **** 
 615:Drivers/CMSIS/DSP/Source/FilteringFunctions/arm_conv_f32.c ****     /* Loop to perform MAC operations according to convolution equation */
 616:Drivers/CMSIS/DSP/Source/FilteringFunctions/arm_conv_f32.c ****     for (j = 0U; j <= i; j++)
 617:Drivers/CMSIS/DSP/Source/FilteringFunctions/arm_conv_f32.c ****     {
 618:Drivers/CMSIS/DSP/Source/FilteringFunctions/arm_conv_f32.c ****       /* Check the array limitations */
 619:Drivers/CMSIS/DSP/Source/FilteringFunctions/arm_conv_f32.c ****       if ((((i - j) < srcBLen) && (j < srcALen)))
 620:Drivers/CMSIS/DSP/Source/FilteringFunctions/arm_conv_f32.c ****       {
 621:Drivers/CMSIS/DSP/Source/FilteringFunctions/arm_conv_f32.c ****         /* z[i] += x[i-j] * y[j] */
 622:Drivers/CMSIS/DSP/Source/FilteringFunctions/arm_conv_f32.c ****         sum += pIn1[j] * pIn2[i - j];
 623:Drivers/CMSIS/DSP/Source/FilteringFunctions/arm_conv_f32.c ****       }
 624:Drivers/CMSIS/DSP/Source/FilteringFunctions/arm_conv_f32.c ****     }
 625:Drivers/CMSIS/DSP/Source/FilteringFunctions/arm_conv_f32.c ****     /* Store the output in the destination buffer */
 626:Drivers/CMSIS/DSP/Source/FilteringFunctions/arm_conv_f32.c ****     pDst[i] = sum;
 627:Drivers/CMSIS/DSP/Source/FilteringFunctions/arm_conv_f32.c ****   }
 628:Drivers/CMSIS/DSP/Source/FilteringFunctions/arm_conv_f32.c **** 
 629:Drivers/CMSIS/DSP/Source/FilteringFunctions/arm_conv_f32.c **** #endif /*   #if defined (ARM_MATH_DSP)        */
 630:Drivers/CMSIS/DSP/Source/FilteringFunctions/arm_conv_f32.c **** 
 631:Drivers/CMSIS/DSP/Source/FilteringFunctions/arm_conv_f32.c **** }
 874              		.loc 1 631 1 view .LVU378
 875 035e BDE8F087 		pop	{r4, r5, r6, r7, r8, r9, r10, pc}
 876              	.LVL167:
 877              	.L40:
 878              		.loc 1 631 1 view .LVU379
 879 0362 00BF     		.align	2
 880              	.L39:
 881 0364 00000000 		.word	0
 882              		.cfi_endproc
 883              	.LFE135:
 885              		.text
 886              	.Letext0:
 887              		.file 2 "/Users/killian/Library/Application Support/Code/User/globalStorage/bmd.stm32-for-vscode/@
 888              		.file 3 "/Users/killian/Library/Application Support/Code/User/globalStorage/bmd.stm32-for-vscode/@
 889              		.file 4 "Drivers/CMSIS/DSP/Include/arm_math.h"
ARM GAS  /var/folders/n6/c271nzx11xl4r4_m7sqjlt0m0000gn/T//ccJIZLIe.s 			page 31

