ARM GAS  /var/folders/n6/c271nzx11xl4r4_m7sqjlt0m0000gn/T//ccbFSkPm.s 			page 1


   1              		.cpu cortex-m7
   2              		.arch armv7e-m
   3              		.fpu fpv5-d16
   4              		.eabi_attribute 28, 1
   5              		.eabi_attribute 20, 1
   6              		.eabi_attribute 21, 1
   7              		.eabi_attribute 23, 3
   8              		.eabi_attribute 24, 1
   9              		.eabi_attribute 25, 1
  10              		.eabi_attribute 26, 1
  11              		.eabi_attribute 30, 1
  12              		.eabi_attribute 34, 1
  13              		.eabi_attribute 18, 4
  14              		.file	"arm_q7_to_float.c"
  15              		.text
  16              	.Ltext0:
  17              		.cfi_sections	.debug_frame
  18              		.file 1 "Drivers/CMSIS/DSP/Source/SupportFunctions/arm_q7_to_float.c"
  19              		.section	.text.arm_q7_to_float,"ax",%progbits
  20              		.align	1
  21              		.global	arm_q7_to_float
  22              		.syntax unified
  23              		.thumb
  24              		.thumb_func
  26              	arm_q7_to_float:
  27              	.LVL0:
  28              	.LFB135:
   1:Drivers/CMSIS/DSP/Source/SupportFunctions/arm_q7_to_float.c **** /* ----------------------------------------------------------------------
   2:Drivers/CMSIS/DSP/Source/SupportFunctions/arm_q7_to_float.c ****  * Project:      CMSIS DSP Library
   3:Drivers/CMSIS/DSP/Source/SupportFunctions/arm_q7_to_float.c ****  * Title:        arm_q7_to_float.c
   4:Drivers/CMSIS/DSP/Source/SupportFunctions/arm_q7_to_float.c ****  * Description:  Converts the elements of the Q7 vector to floating-point vector
   5:Drivers/CMSIS/DSP/Source/SupportFunctions/arm_q7_to_float.c ****  *
   6:Drivers/CMSIS/DSP/Source/SupportFunctions/arm_q7_to_float.c ****  * $Date:        27. January 2017
   7:Drivers/CMSIS/DSP/Source/SupportFunctions/arm_q7_to_float.c ****  * $Revision:    V.1.5.1
   8:Drivers/CMSIS/DSP/Source/SupportFunctions/arm_q7_to_float.c ****  *
   9:Drivers/CMSIS/DSP/Source/SupportFunctions/arm_q7_to_float.c ****  * Target Processor: Cortex-M cores
  10:Drivers/CMSIS/DSP/Source/SupportFunctions/arm_q7_to_float.c ****  * -------------------------------------------------------------------- */
  11:Drivers/CMSIS/DSP/Source/SupportFunctions/arm_q7_to_float.c **** /*
  12:Drivers/CMSIS/DSP/Source/SupportFunctions/arm_q7_to_float.c ****  * Copyright (C) 2010-2017 ARM Limited or its affiliates. All rights reserved.
  13:Drivers/CMSIS/DSP/Source/SupportFunctions/arm_q7_to_float.c ****  *
  14:Drivers/CMSIS/DSP/Source/SupportFunctions/arm_q7_to_float.c ****  * SPDX-License-Identifier: Apache-2.0
  15:Drivers/CMSIS/DSP/Source/SupportFunctions/arm_q7_to_float.c ****  *
  16:Drivers/CMSIS/DSP/Source/SupportFunctions/arm_q7_to_float.c ****  * Licensed under the Apache License, Version 2.0 (the License); you may
  17:Drivers/CMSIS/DSP/Source/SupportFunctions/arm_q7_to_float.c ****  * not use this file except in compliance with the License.
  18:Drivers/CMSIS/DSP/Source/SupportFunctions/arm_q7_to_float.c ****  * You may obtain a copy of the License at
  19:Drivers/CMSIS/DSP/Source/SupportFunctions/arm_q7_to_float.c ****  *
  20:Drivers/CMSIS/DSP/Source/SupportFunctions/arm_q7_to_float.c ****  * www.apache.org/licenses/LICENSE-2.0
  21:Drivers/CMSIS/DSP/Source/SupportFunctions/arm_q7_to_float.c ****  *
  22:Drivers/CMSIS/DSP/Source/SupportFunctions/arm_q7_to_float.c ****  * Unless required by applicable law or agreed to in writing, software
  23:Drivers/CMSIS/DSP/Source/SupportFunctions/arm_q7_to_float.c ****  * distributed under the License is distributed on an AS IS BASIS, WITHOUT
  24:Drivers/CMSIS/DSP/Source/SupportFunctions/arm_q7_to_float.c ****  * WARRANTIES OR CONDITIONS OF ANY KIND, either express or implied.
  25:Drivers/CMSIS/DSP/Source/SupportFunctions/arm_q7_to_float.c ****  * See the License for the specific language governing permissions and
  26:Drivers/CMSIS/DSP/Source/SupportFunctions/arm_q7_to_float.c ****  * limitations under the License.
  27:Drivers/CMSIS/DSP/Source/SupportFunctions/arm_q7_to_float.c ****  */
  28:Drivers/CMSIS/DSP/Source/SupportFunctions/arm_q7_to_float.c **** 
  29:Drivers/CMSIS/DSP/Source/SupportFunctions/arm_q7_to_float.c **** #include "arm_math.h"
  30:Drivers/CMSIS/DSP/Source/SupportFunctions/arm_q7_to_float.c **** 
ARM GAS  /var/folders/n6/c271nzx11xl4r4_m7sqjlt0m0000gn/T//ccbFSkPm.s 			page 2


  31:Drivers/CMSIS/DSP/Source/SupportFunctions/arm_q7_to_float.c **** /**
  32:Drivers/CMSIS/DSP/Source/SupportFunctions/arm_q7_to_float.c ****  * @ingroup groupSupport
  33:Drivers/CMSIS/DSP/Source/SupportFunctions/arm_q7_to_float.c ****  */
  34:Drivers/CMSIS/DSP/Source/SupportFunctions/arm_q7_to_float.c **** 
  35:Drivers/CMSIS/DSP/Source/SupportFunctions/arm_q7_to_float.c **** /**
  36:Drivers/CMSIS/DSP/Source/SupportFunctions/arm_q7_to_float.c ****  * @defgroup q7_to_x  Convert 8-bit Integer value
  37:Drivers/CMSIS/DSP/Source/SupportFunctions/arm_q7_to_float.c ****  */
  38:Drivers/CMSIS/DSP/Source/SupportFunctions/arm_q7_to_float.c **** 
  39:Drivers/CMSIS/DSP/Source/SupportFunctions/arm_q7_to_float.c **** /**
  40:Drivers/CMSIS/DSP/Source/SupportFunctions/arm_q7_to_float.c ****  * @addtogroup q7_to_x
  41:Drivers/CMSIS/DSP/Source/SupportFunctions/arm_q7_to_float.c ****  * @{
  42:Drivers/CMSIS/DSP/Source/SupportFunctions/arm_q7_to_float.c ****  */
  43:Drivers/CMSIS/DSP/Source/SupportFunctions/arm_q7_to_float.c **** 
  44:Drivers/CMSIS/DSP/Source/SupportFunctions/arm_q7_to_float.c **** /**
  45:Drivers/CMSIS/DSP/Source/SupportFunctions/arm_q7_to_float.c ****  * @brief Converts the elements of the Q7 vector to floating-point vector.
  46:Drivers/CMSIS/DSP/Source/SupportFunctions/arm_q7_to_float.c ****  * @param[in]       *pSrc points to the Q7 input vector
  47:Drivers/CMSIS/DSP/Source/SupportFunctions/arm_q7_to_float.c ****  * @param[out]      *pDst points to the floating-point output vector
  48:Drivers/CMSIS/DSP/Source/SupportFunctions/arm_q7_to_float.c ****  * @param[in]       blockSize length of the input vector
  49:Drivers/CMSIS/DSP/Source/SupportFunctions/arm_q7_to_float.c ****  * @return none.
  50:Drivers/CMSIS/DSP/Source/SupportFunctions/arm_q7_to_float.c ****  *
  51:Drivers/CMSIS/DSP/Source/SupportFunctions/arm_q7_to_float.c ****  * \par Description:
  52:Drivers/CMSIS/DSP/Source/SupportFunctions/arm_q7_to_float.c ****  *
  53:Drivers/CMSIS/DSP/Source/SupportFunctions/arm_q7_to_float.c ****  * The equation used for the conversion process is:
  54:Drivers/CMSIS/DSP/Source/SupportFunctions/arm_q7_to_float.c ****  *
  55:Drivers/CMSIS/DSP/Source/SupportFunctions/arm_q7_to_float.c ****  * <pre>
  56:Drivers/CMSIS/DSP/Source/SupportFunctions/arm_q7_to_float.c ****  * 	pDst[n] = (float32_t) pSrc[n] / 128;   0 <= n < blockSize.
  57:Drivers/CMSIS/DSP/Source/SupportFunctions/arm_q7_to_float.c ****  * </pre>
  58:Drivers/CMSIS/DSP/Source/SupportFunctions/arm_q7_to_float.c ****  *
  59:Drivers/CMSIS/DSP/Source/SupportFunctions/arm_q7_to_float.c ****  */
  60:Drivers/CMSIS/DSP/Source/SupportFunctions/arm_q7_to_float.c **** 
  61:Drivers/CMSIS/DSP/Source/SupportFunctions/arm_q7_to_float.c **** 
  62:Drivers/CMSIS/DSP/Source/SupportFunctions/arm_q7_to_float.c **** void arm_q7_to_float(
  63:Drivers/CMSIS/DSP/Source/SupportFunctions/arm_q7_to_float.c ****   q7_t * pSrc,
  64:Drivers/CMSIS/DSP/Source/SupportFunctions/arm_q7_to_float.c ****   float32_t * pDst,
  65:Drivers/CMSIS/DSP/Source/SupportFunctions/arm_q7_to_float.c ****   uint32_t blockSize)
  66:Drivers/CMSIS/DSP/Source/SupportFunctions/arm_q7_to_float.c **** {
  29              		.loc 1 66 1 view -0
  30              		.cfi_startproc
  31              		@ args = 0, pretend = 0, frame = 0
  32              		@ frame_needed = 0, uses_anonymous_args = 0
  33              		@ link register save eliminated.
  67:Drivers/CMSIS/DSP/Source/SupportFunctions/arm_q7_to_float.c ****   q7_t *pIn = pSrc;                              /* Src pointer */
  34              		.loc 1 67 3 view .LVU1
  68:Drivers/CMSIS/DSP/Source/SupportFunctions/arm_q7_to_float.c ****   uint32_t blkCnt;                               /* loop counter */
  35              		.loc 1 68 3 view .LVU2
  69:Drivers/CMSIS/DSP/Source/SupportFunctions/arm_q7_to_float.c **** 
  70:Drivers/CMSIS/DSP/Source/SupportFunctions/arm_q7_to_float.c **** 
  71:Drivers/CMSIS/DSP/Source/SupportFunctions/arm_q7_to_float.c **** #if defined (ARM_MATH_DSP)
  72:Drivers/CMSIS/DSP/Source/SupportFunctions/arm_q7_to_float.c **** 
  73:Drivers/CMSIS/DSP/Source/SupportFunctions/arm_q7_to_float.c ****   /* Run the below code for Cortex-M4 and Cortex-M3 */
  74:Drivers/CMSIS/DSP/Source/SupportFunctions/arm_q7_to_float.c **** 
  75:Drivers/CMSIS/DSP/Source/SupportFunctions/arm_q7_to_float.c ****   /*loop Unrolling */
  76:Drivers/CMSIS/DSP/Source/SupportFunctions/arm_q7_to_float.c ****   blkCnt = blockSize >> 2U;
  36              		.loc 1 76 3 view .LVU3
  37              		.loc 1 76 10 is_stmt 0 view .LVU4
  38 0000 9308     		lsrs	r3, r2, #2
  39              	.LVL1:
ARM GAS  /var/folders/n6/c271nzx11xl4r4_m7sqjlt0m0000gn/T//ccbFSkPm.s 			page 3


  77:Drivers/CMSIS/DSP/Source/SupportFunctions/arm_q7_to_float.c **** 
  78:Drivers/CMSIS/DSP/Source/SupportFunctions/arm_q7_to_float.c ****   /* First part of the processing with loop unrolling.  Compute 4 outputs at a time.
  79:Drivers/CMSIS/DSP/Source/SupportFunctions/arm_q7_to_float.c ****    ** a second loop below computes the remaining 1 to 3 samples. */
  80:Drivers/CMSIS/DSP/Source/SupportFunctions/arm_q7_to_float.c ****   while (blkCnt > 0U)
  40              		.loc 1 80 3 is_stmt 1 view .LVU5
  41              		.loc 1 80 9 is_stmt 0 view .LVU6
  42 0002 2CE0     		b	.L2
  43              	.LVL2:
  44              	.L3:
  81:Drivers/CMSIS/DSP/Source/SupportFunctions/arm_q7_to_float.c ****   {
  82:Drivers/CMSIS/DSP/Source/SupportFunctions/arm_q7_to_float.c ****     /* C = (float32_t) A / 128 */
  83:Drivers/CMSIS/DSP/Source/SupportFunctions/arm_q7_to_float.c ****     /* convert from q7 to float and then store the results in the destination buffer */
  84:Drivers/CMSIS/DSP/Source/SupportFunctions/arm_q7_to_float.c ****     *pDst++ = ((float32_t) * pIn++ / 128.0f);
  45              		.loc 1 84 5 is_stmt 1 view .LVU7
  46              		.loc 1 84 28 is_stmt 0 view .LVU8
  47 0004 90F900C0 		ldrsb	ip, [r0]
  48 0008 07EE90CA 		vmov	s15, ip	@ int
  49              		.loc 1 84 16 view .LVU9
  50 000c F8EEE77A 		vcvt.f32.s32	s15, s15
  51              	.LVL3:
  52              		.loc 1 84 36 view .LVU10
  53 0010 9FED1D7A 		vldr.32	s14, .L6
  54 0014 67EE877A 		vmul.f32	s15, s15, s14
  55              		.loc 1 84 13 view .LVU11
  56 0018 C1ED007A 		vstr.32	s15, [r1]
  85:Drivers/CMSIS/DSP/Source/SupportFunctions/arm_q7_to_float.c ****     *pDst++ = ((float32_t) * pIn++ / 128.0f);
  57              		.loc 1 85 5 is_stmt 1 view .LVU12
  58              	.LVL4:
  59              		.loc 1 85 28 is_stmt 0 view .LVU13
  60 001c 90F901C0 		ldrsb	ip, [r0, #1]
  61 0020 07EE90CA 		vmov	s15, ip	@ int
  62              		.loc 1 85 16 view .LVU14
  63 0024 F8EEE77A 		vcvt.f32.s32	s15, s15
  64              	.LVL5:
  65              		.loc 1 85 36 view .LVU15
  66 0028 67EE877A 		vmul.f32	s15, s15, s14
  67              		.loc 1 85 13 view .LVU16
  68 002c C1ED017A 		vstr.32	s15, [r1, #4]
  86:Drivers/CMSIS/DSP/Source/SupportFunctions/arm_q7_to_float.c ****     *pDst++ = ((float32_t) * pIn++ / 128.0f);
  69              		.loc 1 86 5 is_stmt 1 view .LVU17
  70              	.LVL6:
  71              		.loc 1 86 28 is_stmt 0 view .LVU18
  72 0030 90F902C0 		ldrsb	ip, [r0, #2]
  73 0034 07EE90CA 		vmov	s15, ip	@ int
  74              		.loc 1 86 16 view .LVU19
  75 0038 F8EEE77A 		vcvt.f32.s32	s15, s15
  76              	.LVL7:
  77              		.loc 1 86 36 view .LVU20
  78 003c 67EE877A 		vmul.f32	s15, s15, s14
  79              		.loc 1 86 13 view .LVU21
  80 0040 C1ED027A 		vstr.32	s15, [r1, #8]
  87:Drivers/CMSIS/DSP/Source/SupportFunctions/arm_q7_to_float.c ****     *pDst++ = ((float32_t) * pIn++ / 128.0f);
  81              		.loc 1 87 5 is_stmt 1 view .LVU22
  82              	.LVL8:
  83              		.loc 1 87 28 is_stmt 0 view .LVU23
  84 0044 90F903C0 		ldrsb	ip, [r0, #3]
  85 0048 07EE90CA 		vmov	s15, ip	@ int
ARM GAS  /var/folders/n6/c271nzx11xl4r4_m7sqjlt0m0000gn/T//ccbFSkPm.s 			page 4


  86              		.loc 1 87 16 view .LVU24
  87 004c F8EEE77A 		vcvt.f32.s32	s15, s15
  88              	.LVL9:
  89              		.loc 1 87 36 view .LVU25
  90 0050 67EE877A 		vmul.f32	s15, s15, s14
  91              		.loc 1 87 13 view .LVU26
  92 0054 C1ED037A 		vstr.32	s15, [r1, #12]
  88:Drivers/CMSIS/DSP/Source/SupportFunctions/arm_q7_to_float.c **** 
  89:Drivers/CMSIS/DSP/Source/SupportFunctions/arm_q7_to_float.c ****     /* Decrement the loop counter */
  90:Drivers/CMSIS/DSP/Source/SupportFunctions/arm_q7_to_float.c ****     blkCnt--;
  93              		.loc 1 90 5 is_stmt 1 view .LVU27
  94              		.loc 1 90 11 is_stmt 0 view .LVU28
  95 0058 013B     		subs	r3, r3, #1
  96              	.LVL10:
  87:Drivers/CMSIS/DSP/Source/SupportFunctions/arm_q7_to_float.c ****     *pDst++ = ((float32_t) * pIn++ / 128.0f);
  97              		.loc 1 87 33 view .LVU29
  98 005a 0430     		adds	r0, r0, #4
  99              	.LVL11:
  87:Drivers/CMSIS/DSP/Source/SupportFunctions/arm_q7_to_float.c ****     *pDst++ = ((float32_t) * pIn++ / 128.0f);
 100              		.loc 1 87 10 view .LVU30
 101 005c 1031     		adds	r1, r1, #16
 102              	.LVL12:
 103              	.L2:
  80:Drivers/CMSIS/DSP/Source/SupportFunctions/arm_q7_to_float.c ****   {
 104              		.loc 1 80 17 is_stmt 1 view .LVU31
 105 005e 002B     		cmp	r3, #0
 106 0060 D0D1     		bne	.L3
  91:Drivers/CMSIS/DSP/Source/SupportFunctions/arm_q7_to_float.c ****   }
  92:Drivers/CMSIS/DSP/Source/SupportFunctions/arm_q7_to_float.c **** 
  93:Drivers/CMSIS/DSP/Source/SupportFunctions/arm_q7_to_float.c ****   /* If the blockSize is not a multiple of 4, compute any remaining output samples here.
  94:Drivers/CMSIS/DSP/Source/SupportFunctions/arm_q7_to_float.c ****    ** No loop unrolling is used. */
  95:Drivers/CMSIS/DSP/Source/SupportFunctions/arm_q7_to_float.c ****   blkCnt = blockSize % 0x4U;
 107              		.loc 1 95 3 view .LVU32
 108              		.loc 1 95 10 is_stmt 0 view .LVU33
 109 0062 02F00302 		and	r2, r2, #3
 110              	.LVL13:
  96:Drivers/CMSIS/DSP/Source/SupportFunctions/arm_q7_to_float.c **** 
  97:Drivers/CMSIS/DSP/Source/SupportFunctions/arm_q7_to_float.c **** #else
  98:Drivers/CMSIS/DSP/Source/SupportFunctions/arm_q7_to_float.c **** 
  99:Drivers/CMSIS/DSP/Source/SupportFunctions/arm_q7_to_float.c ****   /* Run the below code for Cortex-M0 */
 100:Drivers/CMSIS/DSP/Source/SupportFunctions/arm_q7_to_float.c **** 
 101:Drivers/CMSIS/DSP/Source/SupportFunctions/arm_q7_to_float.c ****   /* Loop over blockSize number of values */
 102:Drivers/CMSIS/DSP/Source/SupportFunctions/arm_q7_to_float.c ****   blkCnt = blockSize;
 103:Drivers/CMSIS/DSP/Source/SupportFunctions/arm_q7_to_float.c **** 
 104:Drivers/CMSIS/DSP/Source/SupportFunctions/arm_q7_to_float.c **** #endif /* #if defined (ARM_MATH_DSP) */
 105:Drivers/CMSIS/DSP/Source/SupportFunctions/arm_q7_to_float.c **** 
 106:Drivers/CMSIS/DSP/Source/SupportFunctions/arm_q7_to_float.c ****   while (blkCnt > 0U)
 111              		.loc 1 106 3 is_stmt 1 view .LVU34
 112              		.loc 1 106 9 is_stmt 0 view .LVU35
 113 0066 0CE0     		b	.L4
 114              	.L5:
 107:Drivers/CMSIS/DSP/Source/SupportFunctions/arm_q7_to_float.c ****   {
 108:Drivers/CMSIS/DSP/Source/SupportFunctions/arm_q7_to_float.c ****     /* C = (float32_t) A / 128 */
 109:Drivers/CMSIS/DSP/Source/SupportFunctions/arm_q7_to_float.c ****     /* convert from q7 to float and then store the results in the destination buffer */
 110:Drivers/CMSIS/DSP/Source/SupportFunctions/arm_q7_to_float.c ****     *pDst++ = ((float32_t) * pIn++ / 128.0f);
 115              		.loc 1 110 5 is_stmt 1 view .LVU36
 116              	.LVL14:
ARM GAS  /var/folders/n6/c271nzx11xl4r4_m7sqjlt0m0000gn/T//ccbFSkPm.s 			page 5


 117              		.loc 1 110 28 is_stmt 0 view .LVU37
 118 0068 10F9013B 		ldrsb	r3, [r0], #1
 119              	.LVL15:
 120              		.loc 1 110 28 view .LVU38
 121 006c 07EE903A 		vmov	s15, r3	@ int
 122              		.loc 1 110 16 view .LVU39
 123 0070 F8EEE77A 		vcvt.f32.s32	s15, s15
 124              	.LVL16:
 125              		.loc 1 110 36 view .LVU40
 126 0074 9FED047A 		vldr.32	s14, .L6
 127 0078 67EE877A 		vmul.f32	s15, s15, s14
 128              		.loc 1 110 13 view .LVU41
 129 007c E1EC017A 		vstmia.32	r1!, {s15}
 130              	.LVL17:
 111:Drivers/CMSIS/DSP/Source/SupportFunctions/arm_q7_to_float.c **** 
 112:Drivers/CMSIS/DSP/Source/SupportFunctions/arm_q7_to_float.c ****     /* Decrement the loop counter */
 113:Drivers/CMSIS/DSP/Source/SupportFunctions/arm_q7_to_float.c ****     blkCnt--;
 131              		.loc 1 113 5 is_stmt 1 view .LVU42
 132              		.loc 1 113 11 is_stmt 0 view .LVU43
 133 0080 013A     		subs	r2, r2, #1
 134              	.LVL18:
 135              	.L4:
 106:Drivers/CMSIS/DSP/Source/SupportFunctions/arm_q7_to_float.c ****   {
 136              		.loc 1 106 17 is_stmt 1 view .LVU44
 137 0082 002A     		cmp	r2, #0
 138 0084 F0D1     		bne	.L5
 114:Drivers/CMSIS/DSP/Source/SupportFunctions/arm_q7_to_float.c ****   }
 115:Drivers/CMSIS/DSP/Source/SupportFunctions/arm_q7_to_float.c **** }
 139              		.loc 1 115 1 is_stmt 0 view .LVU45
 140 0086 7047     		bx	lr
 141              	.L7:
 142              		.align	2
 143              	.L6:
 144 0088 0000003C 		.word	1006632960
 145              		.cfi_endproc
 146              	.LFE135:
 148              		.text
 149              	.Letext0:
 150              		.file 2 "/Users/killian/Library/Application Support/Code/User/globalStorage/bmd.stm32-for-vscode/@
 151              		.file 3 "/Users/killian/Library/Application Support/Code/User/globalStorage/bmd.stm32-for-vscode/@
 152              		.file 4 "Drivers/CMSIS/DSP/Include/arm_math.h"
ARM GAS  /var/folders/n6/c271nzx11xl4r4_m7sqjlt0m0000gn/T//ccbFSkPm.s 			page 6


DEFINED SYMBOLS
                            *ABS*:00000000 arm_q7_to_float.c
/var/folders/n6/c271nzx11xl4r4_m7sqjlt0m0000gn/T//ccbFSkPm.s:20     .text.arm_q7_to_float:00000000 $t
/var/folders/n6/c271nzx11xl4r4_m7sqjlt0m0000gn/T//ccbFSkPm.s:26     .text.arm_q7_to_float:00000000 arm_q7_to_float
/var/folders/n6/c271nzx11xl4r4_m7sqjlt0m0000gn/T//ccbFSkPm.s:144    .text.arm_q7_to_float:00000088 $d

NO UNDEFINED SYMBOLS
