ARM GAS  /var/folders/n6/c271nzx11xl4r4_m7sqjlt0m0000gn/T//cc6o0pZs.s 			page 1


   1              		.cpu cortex-m7
   2              		.arch armv7e-m
   3              		.fpu fpv5-d16
   4              		.eabi_attribute 28, 1
   5              		.eabi_attribute 20, 1
   6              		.eabi_attribute 21, 1
   7              		.eabi_attribute 23, 3
   8              		.eabi_attribute 24, 1
   9              		.eabi_attribute 25, 1
  10              		.eabi_attribute 26, 1
  11              		.eabi_attribute 30, 1
  12              		.eabi_attribute 34, 1
  13              		.eabi_attribute 18, 4
  14              		.file	"arm_min_q7.c"
  15              		.text
  16              	.Ltext0:
  17              		.cfi_sections	.debug_frame
  18              		.file 1 "Drivers/CMSIS/DSP/Source/StatisticsFunctions/arm_min_q7.c"
  19              		.section	.text.arm_min_q7,"ax",%progbits
  20              		.align	1
  21              		.global	arm_min_q7
  22              		.syntax unified
  23              		.thumb
  24              		.thumb_func
  26              	arm_min_q7:
  27              	.LVL0:
  28              	.LFB135:
   1:Drivers/CMSIS/DSP/Source/StatisticsFunctions/arm_min_q7.c **** /* ----------------------------------------------------------------------
   2:Drivers/CMSIS/DSP/Source/StatisticsFunctions/arm_min_q7.c ****  * Project:      CMSIS DSP Library
   3:Drivers/CMSIS/DSP/Source/StatisticsFunctions/arm_min_q7.c ****  * Title:        arm_min_q7.c
   4:Drivers/CMSIS/DSP/Source/StatisticsFunctions/arm_min_q7.c ****  * Description:  Minimum value of a Q7 vector
   5:Drivers/CMSIS/DSP/Source/StatisticsFunctions/arm_min_q7.c ****  *
   6:Drivers/CMSIS/DSP/Source/StatisticsFunctions/arm_min_q7.c ****  * $Date:        27. January 2017
   7:Drivers/CMSIS/DSP/Source/StatisticsFunctions/arm_min_q7.c ****  * $Revision:    V.1.5.1
   8:Drivers/CMSIS/DSP/Source/StatisticsFunctions/arm_min_q7.c ****  *
   9:Drivers/CMSIS/DSP/Source/StatisticsFunctions/arm_min_q7.c ****  * Target Processor: Cortex-M cores
  10:Drivers/CMSIS/DSP/Source/StatisticsFunctions/arm_min_q7.c ****  * -------------------------------------------------------------------- */
  11:Drivers/CMSIS/DSP/Source/StatisticsFunctions/arm_min_q7.c **** /*
  12:Drivers/CMSIS/DSP/Source/StatisticsFunctions/arm_min_q7.c ****  * Copyright (C) 2010-2017 ARM Limited or its affiliates. All rights reserved.
  13:Drivers/CMSIS/DSP/Source/StatisticsFunctions/arm_min_q7.c ****  *
  14:Drivers/CMSIS/DSP/Source/StatisticsFunctions/arm_min_q7.c ****  * SPDX-License-Identifier: Apache-2.0
  15:Drivers/CMSIS/DSP/Source/StatisticsFunctions/arm_min_q7.c ****  *
  16:Drivers/CMSIS/DSP/Source/StatisticsFunctions/arm_min_q7.c ****  * Licensed under the Apache License, Version 2.0 (the License); you may
  17:Drivers/CMSIS/DSP/Source/StatisticsFunctions/arm_min_q7.c ****  * not use this file except in compliance with the License.
  18:Drivers/CMSIS/DSP/Source/StatisticsFunctions/arm_min_q7.c ****  * You may obtain a copy of the License at
  19:Drivers/CMSIS/DSP/Source/StatisticsFunctions/arm_min_q7.c ****  *
  20:Drivers/CMSIS/DSP/Source/StatisticsFunctions/arm_min_q7.c ****  * www.apache.org/licenses/LICENSE-2.0
  21:Drivers/CMSIS/DSP/Source/StatisticsFunctions/arm_min_q7.c ****  *
  22:Drivers/CMSIS/DSP/Source/StatisticsFunctions/arm_min_q7.c ****  * Unless required by applicable law or agreed to in writing, software
  23:Drivers/CMSIS/DSP/Source/StatisticsFunctions/arm_min_q7.c ****  * distributed under the License is distributed on an AS IS BASIS, WITHOUT
  24:Drivers/CMSIS/DSP/Source/StatisticsFunctions/arm_min_q7.c ****  * WARRANTIES OR CONDITIONS OF ANY KIND, either express or implied.
  25:Drivers/CMSIS/DSP/Source/StatisticsFunctions/arm_min_q7.c ****  * See the License for the specific language governing permissions and
  26:Drivers/CMSIS/DSP/Source/StatisticsFunctions/arm_min_q7.c ****  * limitations under the License.
  27:Drivers/CMSIS/DSP/Source/StatisticsFunctions/arm_min_q7.c ****  */
  28:Drivers/CMSIS/DSP/Source/StatisticsFunctions/arm_min_q7.c **** 
  29:Drivers/CMSIS/DSP/Source/StatisticsFunctions/arm_min_q7.c **** #include "arm_math.h"
  30:Drivers/CMSIS/DSP/Source/StatisticsFunctions/arm_min_q7.c **** 
ARM GAS  /var/folders/n6/c271nzx11xl4r4_m7sqjlt0m0000gn/T//cc6o0pZs.s 			page 2


  31:Drivers/CMSIS/DSP/Source/StatisticsFunctions/arm_min_q7.c **** /**
  32:Drivers/CMSIS/DSP/Source/StatisticsFunctions/arm_min_q7.c ****  * @ingroup groupStats
  33:Drivers/CMSIS/DSP/Source/StatisticsFunctions/arm_min_q7.c ****  */
  34:Drivers/CMSIS/DSP/Source/StatisticsFunctions/arm_min_q7.c **** 
  35:Drivers/CMSIS/DSP/Source/StatisticsFunctions/arm_min_q7.c **** 
  36:Drivers/CMSIS/DSP/Source/StatisticsFunctions/arm_min_q7.c **** /**
  37:Drivers/CMSIS/DSP/Source/StatisticsFunctions/arm_min_q7.c ****  * @addtogroup Min
  38:Drivers/CMSIS/DSP/Source/StatisticsFunctions/arm_min_q7.c ****  * @{
  39:Drivers/CMSIS/DSP/Source/StatisticsFunctions/arm_min_q7.c ****  */
  40:Drivers/CMSIS/DSP/Source/StatisticsFunctions/arm_min_q7.c **** 
  41:Drivers/CMSIS/DSP/Source/StatisticsFunctions/arm_min_q7.c **** 
  42:Drivers/CMSIS/DSP/Source/StatisticsFunctions/arm_min_q7.c **** /**
  43:Drivers/CMSIS/DSP/Source/StatisticsFunctions/arm_min_q7.c ****  * @brief Minimum value of a Q7 vector.
  44:Drivers/CMSIS/DSP/Source/StatisticsFunctions/arm_min_q7.c ****  * @param[in]       *pSrc points to the input vector
  45:Drivers/CMSIS/DSP/Source/StatisticsFunctions/arm_min_q7.c ****  * @param[in]       blockSize length of the input vector
  46:Drivers/CMSIS/DSP/Source/StatisticsFunctions/arm_min_q7.c ****  * @param[out]      *pResult minimum value returned here
  47:Drivers/CMSIS/DSP/Source/StatisticsFunctions/arm_min_q7.c ****  * @param[out]      *pIndex index of minimum value returned here
  48:Drivers/CMSIS/DSP/Source/StatisticsFunctions/arm_min_q7.c ****  * @return none.
  49:Drivers/CMSIS/DSP/Source/StatisticsFunctions/arm_min_q7.c ****  */
  50:Drivers/CMSIS/DSP/Source/StatisticsFunctions/arm_min_q7.c **** 
  51:Drivers/CMSIS/DSP/Source/StatisticsFunctions/arm_min_q7.c **** void arm_min_q7(
  52:Drivers/CMSIS/DSP/Source/StatisticsFunctions/arm_min_q7.c ****   q7_t * pSrc,
  53:Drivers/CMSIS/DSP/Source/StatisticsFunctions/arm_min_q7.c ****   uint32_t blockSize,
  54:Drivers/CMSIS/DSP/Source/StatisticsFunctions/arm_min_q7.c ****   q7_t * pResult,
  55:Drivers/CMSIS/DSP/Source/StatisticsFunctions/arm_min_q7.c ****   uint32_t * pIndex)
  56:Drivers/CMSIS/DSP/Source/StatisticsFunctions/arm_min_q7.c **** {
  29              		.loc 1 56 1 view -0
  30              		.cfi_startproc
  31              		@ args = 0, pretend = 0, frame = 0
  32              		@ frame_needed = 0, uses_anonymous_args = 0
  33              		.loc 1 56 1 is_stmt 0 view .LVU1
  34 0000 2DE9F041 		push	{r4, r5, r6, r7, r8, lr}
  35              		.cfi_def_cfa_offset 24
  36              		.cfi_offset 4, -24
  37              		.cfi_offset 5, -20
  38              		.cfi_offset 6, -16
  39              		.cfi_offset 7, -12
  40              		.cfi_offset 8, -8
  41              		.cfi_offset 14, -4
  57:Drivers/CMSIS/DSP/Source/StatisticsFunctions/arm_min_q7.c **** #if defined (ARM_MATH_DSP)
  58:Drivers/CMSIS/DSP/Source/StatisticsFunctions/arm_min_q7.c ****   /* Run the below code for Cortex-M4 and Cortex-M3 */
  59:Drivers/CMSIS/DSP/Source/StatisticsFunctions/arm_min_q7.c **** 
  60:Drivers/CMSIS/DSP/Source/StatisticsFunctions/arm_min_q7.c ****   q7_t minVal1, minVal2, out;                    /* Temporary variables to store the output value. 
  42              		.loc 1 60 3 is_stmt 1 view .LVU2
  61:Drivers/CMSIS/DSP/Source/StatisticsFunctions/arm_min_q7.c ****   uint32_t blkCnt, outIndex, count;              /* loop counter */
  43              		.loc 1 61 3 view .LVU3
  62:Drivers/CMSIS/DSP/Source/StatisticsFunctions/arm_min_q7.c **** 
  63:Drivers/CMSIS/DSP/Source/StatisticsFunctions/arm_min_q7.c ****   /* Initialise the count value. */
  64:Drivers/CMSIS/DSP/Source/StatisticsFunctions/arm_min_q7.c ****   count = 0U;
  44              		.loc 1 64 3 view .LVU4
  45              	.LVL1:
  65:Drivers/CMSIS/DSP/Source/StatisticsFunctions/arm_min_q7.c ****   /* Initialise the index value to zero. */
  66:Drivers/CMSIS/DSP/Source/StatisticsFunctions/arm_min_q7.c ****   outIndex = 0U;
  46              		.loc 1 66 3 view .LVU5
  67:Drivers/CMSIS/DSP/Source/StatisticsFunctions/arm_min_q7.c ****   /* Load first input value that act as reference value for comparision */
  68:Drivers/CMSIS/DSP/Source/StatisticsFunctions/arm_min_q7.c ****   out = *pSrc++;
  47              		.loc 1 68 3 view .LVU6
ARM GAS  /var/folders/n6/c271nzx11xl4r4_m7sqjlt0m0000gn/T//cc6o0pZs.s 			page 3


  48              		.loc 1 68 7 is_stmt 0 view .LVU7
  49 0004 10F901CB 		ldrsb	ip, [r0], #1
  50              	.LVL2:
  69:Drivers/CMSIS/DSP/Source/StatisticsFunctions/arm_min_q7.c **** 
  70:Drivers/CMSIS/DSP/Source/StatisticsFunctions/arm_min_q7.c ****   /* Loop unrolling */
  71:Drivers/CMSIS/DSP/Source/StatisticsFunctions/arm_min_q7.c ****   blkCnt = (blockSize - 1U) >> 2U;
  51              		.loc 1 71 3 is_stmt 1 view .LVU8
  52              		.loc 1 71 23 is_stmt 0 view .LVU9
  53 0008 4C1E     		subs	r4, r1, #1
  54              		.loc 1 71 10 view .LVU10
  55 000a A508     		lsrs	r5, r4, #2
  56              	.LVL3:
  72:Drivers/CMSIS/DSP/Source/StatisticsFunctions/arm_min_q7.c **** 
  73:Drivers/CMSIS/DSP/Source/StatisticsFunctions/arm_min_q7.c ****   while (blkCnt > 0U)
  57              		.loc 1 73 3 is_stmt 1 view .LVU11
  64:Drivers/CMSIS/DSP/Source/StatisticsFunctions/arm_min_q7.c ****   /* Initialise the index value to zero. */
  58              		.loc 1 64 9 is_stmt 0 view .LVU12
  59 000c 4FF0000E 		mov	lr, #0
  66:Drivers/CMSIS/DSP/Source/StatisticsFunctions/arm_min_q7.c ****   /* Load first input value that act as reference value for comparision */
  60              		.loc 1 66 12 view .LVU13
  61 0010 7646     		mov	r6, lr
  62              		.loc 1 73 9 view .LVU14
  63 0012 03E0     		b	.L2
  64              	.LVL4:
  65              	.L6:
  74:Drivers/CMSIS/DSP/Source/StatisticsFunctions/arm_min_q7.c ****   {
  75:Drivers/CMSIS/DSP/Source/StatisticsFunctions/arm_min_q7.c ****     /* Initialize minVal to the next consecutive values one by one */
  76:Drivers/CMSIS/DSP/Source/StatisticsFunctions/arm_min_q7.c ****     minVal1 = *pSrc++;
  77:Drivers/CMSIS/DSP/Source/StatisticsFunctions/arm_min_q7.c ****     minVal2 = *pSrc++;
  78:Drivers/CMSIS/DSP/Source/StatisticsFunctions/arm_min_q7.c **** 
  79:Drivers/CMSIS/DSP/Source/StatisticsFunctions/arm_min_q7.c ****     /* compare for the minimum value */
  80:Drivers/CMSIS/DSP/Source/StatisticsFunctions/arm_min_q7.c ****     if (out > minVal1)
  81:Drivers/CMSIS/DSP/Source/StatisticsFunctions/arm_min_q7.c ****     {
  82:Drivers/CMSIS/DSP/Source/StatisticsFunctions/arm_min_q7.c ****       /* Update the minimum value and its index */
  83:Drivers/CMSIS/DSP/Source/StatisticsFunctions/arm_min_q7.c ****       out = minVal1;
  84:Drivers/CMSIS/DSP/Source/StatisticsFunctions/arm_min_q7.c ****       outIndex = count + 1U;
  85:Drivers/CMSIS/DSP/Source/StatisticsFunctions/arm_min_q7.c ****     }
  86:Drivers/CMSIS/DSP/Source/StatisticsFunctions/arm_min_q7.c **** 
  87:Drivers/CMSIS/DSP/Source/StatisticsFunctions/arm_min_q7.c ****     /* compare for the minimum value */
  88:Drivers/CMSIS/DSP/Source/StatisticsFunctions/arm_min_q7.c ****     if (out > minVal2)
  89:Drivers/CMSIS/DSP/Source/StatisticsFunctions/arm_min_q7.c ****     {
  90:Drivers/CMSIS/DSP/Source/StatisticsFunctions/arm_min_q7.c ****       /* Update the minimum value and its index */
  91:Drivers/CMSIS/DSP/Source/StatisticsFunctions/arm_min_q7.c ****       out = minVal2;
  92:Drivers/CMSIS/DSP/Source/StatisticsFunctions/arm_min_q7.c ****       outIndex = count + 2U;
  93:Drivers/CMSIS/DSP/Source/StatisticsFunctions/arm_min_q7.c ****     }
  94:Drivers/CMSIS/DSP/Source/StatisticsFunctions/arm_min_q7.c **** 
  95:Drivers/CMSIS/DSP/Source/StatisticsFunctions/arm_min_q7.c ****     /* Initialize minVal to the next consecutive values one by one */
  96:Drivers/CMSIS/DSP/Source/StatisticsFunctions/arm_min_q7.c ****     minVal1 = *pSrc++;
  97:Drivers/CMSIS/DSP/Source/StatisticsFunctions/arm_min_q7.c ****     minVal2 = *pSrc++;
  98:Drivers/CMSIS/DSP/Source/StatisticsFunctions/arm_min_q7.c **** 
  99:Drivers/CMSIS/DSP/Source/StatisticsFunctions/arm_min_q7.c ****     /* compare for the minimum value */
 100:Drivers/CMSIS/DSP/Source/StatisticsFunctions/arm_min_q7.c ****     if (out > minVal1)
 101:Drivers/CMSIS/DSP/Source/StatisticsFunctions/arm_min_q7.c ****     {
 102:Drivers/CMSIS/DSP/Source/StatisticsFunctions/arm_min_q7.c ****       /* Update the minimum value and its index */
 103:Drivers/CMSIS/DSP/Source/StatisticsFunctions/arm_min_q7.c ****       out = minVal1;
 104:Drivers/CMSIS/DSP/Source/StatisticsFunctions/arm_min_q7.c ****       outIndex = count + 3U;
 105:Drivers/CMSIS/DSP/Source/StatisticsFunctions/arm_min_q7.c ****     }
ARM GAS  /var/folders/n6/c271nzx11xl4r4_m7sqjlt0m0000gn/T//cc6o0pZs.s 			page 4


 106:Drivers/CMSIS/DSP/Source/StatisticsFunctions/arm_min_q7.c **** 
 107:Drivers/CMSIS/DSP/Source/StatisticsFunctions/arm_min_q7.c ****     /* compare for the minimum value */
 108:Drivers/CMSIS/DSP/Source/StatisticsFunctions/arm_min_q7.c ****     if (out > minVal2)
 109:Drivers/CMSIS/DSP/Source/StatisticsFunctions/arm_min_q7.c ****     {
 110:Drivers/CMSIS/DSP/Source/StatisticsFunctions/arm_min_q7.c ****       /* Update the minimum value and its index */
 111:Drivers/CMSIS/DSP/Source/StatisticsFunctions/arm_min_q7.c ****       out = minVal2;
 112:Drivers/CMSIS/DSP/Source/StatisticsFunctions/arm_min_q7.c ****       outIndex = count + 4U;
 113:Drivers/CMSIS/DSP/Source/StatisticsFunctions/arm_min_q7.c ****     }
 114:Drivers/CMSIS/DSP/Source/StatisticsFunctions/arm_min_q7.c **** 
 115:Drivers/CMSIS/DSP/Source/StatisticsFunctions/arm_min_q7.c ****     count += 4U;
  66              		.loc 1 115 5 is_stmt 1 view .LVU15
  67              		.loc 1 115 11 is_stmt 0 view .LVU16
  68 0014 0EF1040E 		add	lr, lr, #4
  69              	.LVL5:
 116:Drivers/CMSIS/DSP/Source/StatisticsFunctions/arm_min_q7.c **** 
 117:Drivers/CMSIS/DSP/Source/StatisticsFunctions/arm_min_q7.c ****     /* Decrement the loop counter */
 118:Drivers/CMSIS/DSP/Source/StatisticsFunctions/arm_min_q7.c ****     blkCnt--;
  70              		.loc 1 118 5 is_stmt 1 view .LVU17
  71              		.loc 1 118 11 is_stmt 0 view .LVU18
  72 0018 013D     		subs	r5, r5, #1
  73              	.LVL6:
  97:Drivers/CMSIS/DSP/Source/StatisticsFunctions/arm_min_q7.c **** 
  74              		.loc 1 97 20 view .LVU19
  75 001a 4046     		mov	r0, r8
  76              	.LVL7:
  77              	.L2:
  73:Drivers/CMSIS/DSP/Source/StatisticsFunctions/arm_min_q7.c ****   {
  78              		.loc 1 73 17 is_stmt 1 view .LVU20
  79 001c F5B1     		cbz	r5, .L12
  76:Drivers/CMSIS/DSP/Source/StatisticsFunctions/arm_min_q7.c ****     minVal2 = *pSrc++;
  80              		.loc 1 76 5 view .LVU21
  81              	.LVL8:
  76:Drivers/CMSIS/DSP/Source/StatisticsFunctions/arm_min_q7.c ****     minVal2 = *pSrc++;
  82              		.loc 1 76 13 is_stmt 0 view .LVU22
  83 001e 90F90080 		ldrsb	r8, [r0]
  84              	.LVL9:
  77:Drivers/CMSIS/DSP/Source/StatisticsFunctions/arm_min_q7.c **** 
  85              		.loc 1 77 5 is_stmt 1 view .LVU23
  77:Drivers/CMSIS/DSP/Source/StatisticsFunctions/arm_min_q7.c **** 
  86              		.loc 1 77 13 is_stmt 0 view .LVU24
  87 0022 90F90170 		ldrsb	r7, [r0, #1]
  88              	.LVL10:
  80:Drivers/CMSIS/DSP/Source/StatisticsFunctions/arm_min_q7.c ****     {
  89              		.loc 1 80 5 is_stmt 1 view .LVU25
  80:Drivers/CMSIS/DSP/Source/StatisticsFunctions/arm_min_q7.c ****     {
  90              		.loc 1 80 8 is_stmt 0 view .LVU26
  91 0026 C445     		cmp	ip, r8
  92 0028 02DD     		ble	.L3
  83:Drivers/CMSIS/DSP/Source/StatisticsFunctions/arm_min_q7.c ****       outIndex = count + 1U;
  93              		.loc 1 83 7 is_stmt 1 view .LVU27
  94              	.LVL11:
  84:Drivers/CMSIS/DSP/Source/StatisticsFunctions/arm_min_q7.c ****     }
  95              		.loc 1 84 7 view .LVU28
  84:Drivers/CMSIS/DSP/Source/StatisticsFunctions/arm_min_q7.c ****     }
  96              		.loc 1 84 16 is_stmt 0 view .LVU29
  97 002a 0EF10106 		add	r6, lr, #1
  98              	.LVL12:
ARM GAS  /var/folders/n6/c271nzx11xl4r4_m7sqjlt0m0000gn/T//cc6o0pZs.s 			page 5


  83:Drivers/CMSIS/DSP/Source/StatisticsFunctions/arm_min_q7.c ****       outIndex = count + 1U;
  99              		.loc 1 83 11 view .LVU30
 100 002e C446     		mov	ip, r8
 101              	.LVL13:
 102              	.L3:
  88:Drivers/CMSIS/DSP/Source/StatisticsFunctions/arm_min_q7.c ****     {
 103              		.loc 1 88 5 is_stmt 1 view .LVU31
  88:Drivers/CMSIS/DSP/Source/StatisticsFunctions/arm_min_q7.c ****     {
 104              		.loc 1 88 8 is_stmt 0 view .LVU32
 105 0030 BC45     		cmp	ip, r7
 106 0032 02DD     		ble	.L4
  91:Drivers/CMSIS/DSP/Source/StatisticsFunctions/arm_min_q7.c ****       outIndex = count + 2U;
 107              		.loc 1 91 7 is_stmt 1 view .LVU33
 108              	.LVL14:
  92:Drivers/CMSIS/DSP/Source/StatisticsFunctions/arm_min_q7.c ****     }
 109              		.loc 1 92 7 view .LVU34
  92:Drivers/CMSIS/DSP/Source/StatisticsFunctions/arm_min_q7.c ****     }
 110              		.loc 1 92 16 is_stmt 0 view .LVU35
 111 0034 0EF10206 		add	r6, lr, #2
 112              	.LVL15:
  91:Drivers/CMSIS/DSP/Source/StatisticsFunctions/arm_min_q7.c ****       outIndex = count + 2U;
 113              		.loc 1 91 11 view .LVU36
 114 0038 BC46     		mov	ip, r7
 115              	.LVL16:
 116              	.L4:
  96:Drivers/CMSIS/DSP/Source/StatisticsFunctions/arm_min_q7.c ****     minVal2 = *pSrc++;
 117              		.loc 1 96 5 is_stmt 1 view .LVU37
  96:Drivers/CMSIS/DSP/Source/StatisticsFunctions/arm_min_q7.c ****     minVal2 = *pSrc++;
 118              		.loc 1 96 13 is_stmt 0 view .LVU38
 119 003a 90F90270 		ldrsb	r7, [r0, #2]
 120              	.LVL17:
  97:Drivers/CMSIS/DSP/Source/StatisticsFunctions/arm_min_q7.c **** 
 121              		.loc 1 97 5 is_stmt 1 view .LVU39
  97:Drivers/CMSIS/DSP/Source/StatisticsFunctions/arm_min_q7.c **** 
 122              		.loc 1 97 20 is_stmt 0 view .LVU40
 123 003e 00F10408 		add	r8, r0, #4
 124              	.LVL18:
  97:Drivers/CMSIS/DSP/Source/StatisticsFunctions/arm_min_q7.c **** 
 125              		.loc 1 97 13 view .LVU41
 126 0042 90F90300 		ldrsb	r0, [r0, #3]
 127              	.LVL19:
 100:Drivers/CMSIS/DSP/Source/StatisticsFunctions/arm_min_q7.c ****     {
 128              		.loc 1 100 5 is_stmt 1 view .LVU42
 100:Drivers/CMSIS/DSP/Source/StatisticsFunctions/arm_min_q7.c ****     {
 129              		.loc 1 100 8 is_stmt 0 view .LVU43
 130 0046 BC45     		cmp	ip, r7
 131 0048 02DD     		ble	.L5
 103:Drivers/CMSIS/DSP/Source/StatisticsFunctions/arm_min_q7.c ****       outIndex = count + 3U;
 132              		.loc 1 103 7 is_stmt 1 view .LVU44
 133              	.LVL20:
 104:Drivers/CMSIS/DSP/Source/StatisticsFunctions/arm_min_q7.c ****     }
 134              		.loc 1 104 7 view .LVU45
 104:Drivers/CMSIS/DSP/Source/StatisticsFunctions/arm_min_q7.c ****     }
 135              		.loc 1 104 16 is_stmt 0 view .LVU46
 136 004a 0EF10306 		add	r6, lr, #3
 137              	.LVL21:
 103:Drivers/CMSIS/DSP/Source/StatisticsFunctions/arm_min_q7.c ****       outIndex = count + 3U;
ARM GAS  /var/folders/n6/c271nzx11xl4r4_m7sqjlt0m0000gn/T//cc6o0pZs.s 			page 6


 138              		.loc 1 103 11 view .LVU47
 139 004e BC46     		mov	ip, r7
 140              	.LVL22:
 141              	.L5:
 108:Drivers/CMSIS/DSP/Source/StatisticsFunctions/arm_min_q7.c ****     {
 142              		.loc 1 108 5 is_stmt 1 view .LVU48
 108:Drivers/CMSIS/DSP/Source/StatisticsFunctions/arm_min_q7.c ****     {
 143              		.loc 1 108 8 is_stmt 0 view .LVU49
 144 0050 8445     		cmp	ip, r0
 145 0052 DFDD     		ble	.L6
 111:Drivers/CMSIS/DSP/Source/StatisticsFunctions/arm_min_q7.c ****       outIndex = count + 4U;
 146              		.loc 1 111 7 is_stmt 1 view .LVU50
 147              	.LVL23:
 112:Drivers/CMSIS/DSP/Source/StatisticsFunctions/arm_min_q7.c ****     }
 148              		.loc 1 112 7 view .LVU51
 112:Drivers/CMSIS/DSP/Source/StatisticsFunctions/arm_min_q7.c ****     }
 149              		.loc 1 112 16 is_stmt 0 view .LVU52
 150 0054 0EF10406 		add	r6, lr, #4
 151              	.LVL24:
 111:Drivers/CMSIS/DSP/Source/StatisticsFunctions/arm_min_q7.c ****       outIndex = count + 4U;
 152              		.loc 1 111 11 view .LVU53
 153 0058 8446     		mov	ip, r0
 154 005a DBE7     		b	.L6
 155              	.LVL25:
 156              	.L12:
 119:Drivers/CMSIS/DSP/Source/StatisticsFunctions/arm_min_q7.c ****   }
 120:Drivers/CMSIS/DSP/Source/StatisticsFunctions/arm_min_q7.c **** 
 121:Drivers/CMSIS/DSP/Source/StatisticsFunctions/arm_min_q7.c ****   /* if (blockSize - 1U) is not multiple of 4 */
 122:Drivers/CMSIS/DSP/Source/StatisticsFunctions/arm_min_q7.c ****   blkCnt = (blockSize - 1U) % 4U;
 157              		.loc 1 122 3 is_stmt 1 view .LVU54
 158              		.loc 1 122 10 is_stmt 0 view .LVU55
 159 005c 04F00304 		and	r4, r4, #3
 160              	.LVL26:
 123:Drivers/CMSIS/DSP/Source/StatisticsFunctions/arm_min_q7.c **** 
 124:Drivers/CMSIS/DSP/Source/StatisticsFunctions/arm_min_q7.c **** #else
 125:Drivers/CMSIS/DSP/Source/StatisticsFunctions/arm_min_q7.c ****   /* Run the below code for Cortex-M0 */
 126:Drivers/CMSIS/DSP/Source/StatisticsFunctions/arm_min_q7.c **** 
 127:Drivers/CMSIS/DSP/Source/StatisticsFunctions/arm_min_q7.c ****   q7_t minVal1, out;                             /* Temporary variables to store the output value. 
 128:Drivers/CMSIS/DSP/Source/StatisticsFunctions/arm_min_q7.c ****   uint32_t blkCnt, outIndex;                     /* loop counter */
 129:Drivers/CMSIS/DSP/Source/StatisticsFunctions/arm_min_q7.c **** 
 130:Drivers/CMSIS/DSP/Source/StatisticsFunctions/arm_min_q7.c ****   /* Initialise the index value to zero. */
 131:Drivers/CMSIS/DSP/Source/StatisticsFunctions/arm_min_q7.c ****   outIndex = 0U;
 132:Drivers/CMSIS/DSP/Source/StatisticsFunctions/arm_min_q7.c ****   /* Load first input value that act as reference value for comparision */
 133:Drivers/CMSIS/DSP/Source/StatisticsFunctions/arm_min_q7.c ****   out = *pSrc++;
 134:Drivers/CMSIS/DSP/Source/StatisticsFunctions/arm_min_q7.c **** 
 135:Drivers/CMSIS/DSP/Source/StatisticsFunctions/arm_min_q7.c ****   blkCnt = (blockSize - 1U);
 136:Drivers/CMSIS/DSP/Source/StatisticsFunctions/arm_min_q7.c **** 
 137:Drivers/CMSIS/DSP/Source/StatisticsFunctions/arm_min_q7.c **** #endif /* #if defined (ARM_MATH_DSP) */
 138:Drivers/CMSIS/DSP/Source/StatisticsFunctions/arm_min_q7.c **** 
 139:Drivers/CMSIS/DSP/Source/StatisticsFunctions/arm_min_q7.c ****   while (blkCnt > 0U)
 161              		.loc 1 139 3 is_stmt 1 view .LVU56
 162              		.loc 1 139 9 is_stmt 0 view .LVU57
 163 0060 00E0     		b	.L8
 164              	.LVL27:
 165              	.L9:
 140:Drivers/CMSIS/DSP/Source/StatisticsFunctions/arm_min_q7.c ****   {
 141:Drivers/CMSIS/DSP/Source/StatisticsFunctions/arm_min_q7.c ****     /* Initialize minVal to the next consecutive values one by one */
ARM GAS  /var/folders/n6/c271nzx11xl4r4_m7sqjlt0m0000gn/T//cc6o0pZs.s 			page 7


 142:Drivers/CMSIS/DSP/Source/StatisticsFunctions/arm_min_q7.c ****     minVal1 = *pSrc++;
 143:Drivers/CMSIS/DSP/Source/StatisticsFunctions/arm_min_q7.c **** 
 144:Drivers/CMSIS/DSP/Source/StatisticsFunctions/arm_min_q7.c ****     /* compare for the minimum value */
 145:Drivers/CMSIS/DSP/Source/StatisticsFunctions/arm_min_q7.c ****     if (out > minVal1)
 146:Drivers/CMSIS/DSP/Source/StatisticsFunctions/arm_min_q7.c ****     {
 147:Drivers/CMSIS/DSP/Source/StatisticsFunctions/arm_min_q7.c ****       /* Update the minimum value and it's index */
 148:Drivers/CMSIS/DSP/Source/StatisticsFunctions/arm_min_q7.c ****       out = minVal1;
 149:Drivers/CMSIS/DSP/Source/StatisticsFunctions/arm_min_q7.c ****       outIndex = blockSize - blkCnt;
 150:Drivers/CMSIS/DSP/Source/StatisticsFunctions/arm_min_q7.c ****     }
 151:Drivers/CMSIS/DSP/Source/StatisticsFunctions/arm_min_q7.c **** 
 152:Drivers/CMSIS/DSP/Source/StatisticsFunctions/arm_min_q7.c ****     /* Decrement the loop counter */
 153:Drivers/CMSIS/DSP/Source/StatisticsFunctions/arm_min_q7.c ****     blkCnt--;
 166              		.loc 1 153 5 is_stmt 1 view .LVU58
 167              		.loc 1 153 11 is_stmt 0 view .LVU59
 168 0062 013C     		subs	r4, r4, #1
 169              	.LVL28:
 170              	.L8:
 139:Drivers/CMSIS/DSP/Source/StatisticsFunctions/arm_min_q7.c ****   {
 171              		.loc 1 139 17 is_stmt 1 view .LVU60
 172 0064 34B1     		cbz	r4, .L13
 142:Drivers/CMSIS/DSP/Source/StatisticsFunctions/arm_min_q7.c **** 
 173              		.loc 1 142 5 view .LVU61
 174              	.LVL29:
 142:Drivers/CMSIS/DSP/Source/StatisticsFunctions/arm_min_q7.c **** 
 175              		.loc 1 142 13 is_stmt 0 view .LVU62
 176 0066 10F9015B 		ldrsb	r5, [r0], #1
 177              	.LVL30:
 145:Drivers/CMSIS/DSP/Source/StatisticsFunctions/arm_min_q7.c ****     {
 178              		.loc 1 145 5 is_stmt 1 view .LVU63
 145:Drivers/CMSIS/DSP/Source/StatisticsFunctions/arm_min_q7.c ****     {
 179              		.loc 1 145 8 is_stmt 0 view .LVU64
 180 006a AC45     		cmp	ip, r5
 181 006c F9DD     		ble	.L9
 148:Drivers/CMSIS/DSP/Source/StatisticsFunctions/arm_min_q7.c ****       outIndex = blockSize - blkCnt;
 182              		.loc 1 148 7 is_stmt 1 view .LVU65
 183              	.LVL31:
 149:Drivers/CMSIS/DSP/Source/StatisticsFunctions/arm_min_q7.c ****     }
 184              		.loc 1 149 7 view .LVU66
 149:Drivers/CMSIS/DSP/Source/StatisticsFunctions/arm_min_q7.c ****     }
 185              		.loc 1 149 16 is_stmt 0 view .LVU67
 186 006e 0E1B     		subs	r6, r1, r4
 187              	.LVL32:
 148:Drivers/CMSIS/DSP/Source/StatisticsFunctions/arm_min_q7.c ****       outIndex = blockSize - blkCnt;
 188              		.loc 1 148 11 view .LVU68
 189 0070 AC46     		mov	ip, r5
 190 0072 F6E7     		b	.L9
 191              	.LVL33:
 192              	.L13:
 154:Drivers/CMSIS/DSP/Source/StatisticsFunctions/arm_min_q7.c ****   }
 155:Drivers/CMSIS/DSP/Source/StatisticsFunctions/arm_min_q7.c **** 
 156:Drivers/CMSIS/DSP/Source/StatisticsFunctions/arm_min_q7.c ****   /* Store the minimum value and it's index into destination pointers */
 157:Drivers/CMSIS/DSP/Source/StatisticsFunctions/arm_min_q7.c ****   *pResult = out;
 193              		.loc 1 157 3 is_stmt 1 view .LVU69
 194              		.loc 1 157 12 is_stmt 0 view .LVU70
 195 0074 82F800C0 		strb	ip, [r2]
 158:Drivers/CMSIS/DSP/Source/StatisticsFunctions/arm_min_q7.c ****   *pIndex = outIndex;
 196              		.loc 1 158 3 is_stmt 1 view .LVU71
ARM GAS  /var/folders/n6/c271nzx11xl4r4_m7sqjlt0m0000gn/T//cc6o0pZs.s 			page 8


 197              		.loc 1 158 11 is_stmt 0 view .LVU72
 198 0078 1E60     		str	r6, [r3]
 159:Drivers/CMSIS/DSP/Source/StatisticsFunctions/arm_min_q7.c **** }
 199              		.loc 1 159 1 view .LVU73
 200 007a BDE8F081 		pop	{r4, r5, r6, r7, r8, pc}
 201              		.loc 1 159 1 view .LVU74
 202              		.cfi_endproc
 203              	.LFE135:
 205              		.text
 206              	.Letext0:
 207              		.file 2 "/Users/killian/Library/Application Support/Code/User/globalStorage/bmd.stm32-for-vscode/@
 208              		.file 3 "/Users/killian/Library/Application Support/Code/User/globalStorage/bmd.stm32-for-vscode/@
 209              		.file 4 "Drivers/CMSIS/DSP/Include/arm_math.h"
ARM GAS  /var/folders/n6/c271nzx11xl4r4_m7sqjlt0m0000gn/T//cc6o0pZs.s 			page 9

