ARM GAS  /var/folders/n6/c271nzx11xl4r4_m7sqjlt0m0000gn/T//ccPDZvZi.s 			page 1


   1              		.cpu cortex-m7
   2              		.arch armv7e-m
   3              		.fpu fpv5-d16
   4              		.eabi_attribute 28, 1
   5              		.eabi_attribute 20, 1
   6              		.eabi_attribute 21, 1
   7              		.eabi_attribute 23, 3
   8              		.eabi_attribute 24, 1
   9              		.eabi_attribute 25, 1
  10              		.eabi_attribute 26, 1
  11              		.eabi_attribute 30, 1
  12              		.eabi_attribute 34, 1
  13              		.eabi_attribute 18, 4
  14              		.file	"audio_classifier_data.c"
  15              		.text
  16              	.Ltext0:
  17              		.cfi_sections	.debug_frame
  18              		.file 1 "X-CUBE-AI/App/audio_classifier_data.c"
  19              		.section	.text.ai_audio_classifier_data_activations_buffer_get,"ax",%progbits
  20              		.align	1
  21              		.global	ai_audio_classifier_data_activations_buffer_get
  22              		.syntax unified
  23              		.thumb
  24              		.thumb_func
  26              	ai_audio_classifier_data_activations_buffer_get:
  27              	.LVL0:
  28              	.LFB0:
   1:X-CUBE-AI/App/audio_classifier_data.c **** /**
   2:X-CUBE-AI/App/audio_classifier_data.c ****   ******************************************************************************
   3:X-CUBE-AI/App/audio_classifier_data.c ****   * @file    audio_classifier_data.c
   4:X-CUBE-AI/App/audio_classifier_data.c ****   * @author  AST Embedded Analytics Research Platform
   5:X-CUBE-AI/App/audio_classifier_data.c ****   * @date    2025-01-13T16:52:02+0100
   6:X-CUBE-AI/App/audio_classifier_data.c ****   * @brief   AI Tool Automatic Code Generator for Embedded NN computing
   7:X-CUBE-AI/App/audio_classifier_data.c ****   ******************************************************************************
   8:X-CUBE-AI/App/audio_classifier_data.c ****   * @attention
   9:X-CUBE-AI/App/audio_classifier_data.c ****   *
  10:X-CUBE-AI/App/audio_classifier_data.c ****   * Copyright (c) 2025 STMicroelectronics.
  11:X-CUBE-AI/App/audio_classifier_data.c ****   * All rights reserved.
  12:X-CUBE-AI/App/audio_classifier_data.c ****   *
  13:X-CUBE-AI/App/audio_classifier_data.c ****   * This software is licensed under terms that can be found in the LICENSE file
  14:X-CUBE-AI/App/audio_classifier_data.c ****   * in the root directory of this software component.
  15:X-CUBE-AI/App/audio_classifier_data.c ****   * If no LICENSE file comes with this software, it is provided AS-IS.
  16:X-CUBE-AI/App/audio_classifier_data.c ****   ******************************************************************************
  17:X-CUBE-AI/App/audio_classifier_data.c ****   */
  18:X-CUBE-AI/App/audio_classifier_data.c **** #include "audio_classifier_data.h"
  19:X-CUBE-AI/App/audio_classifier_data.c **** #include "ai_platform_interface.h"
  20:X-CUBE-AI/App/audio_classifier_data.c **** 
  21:X-CUBE-AI/App/audio_classifier_data.c **** AI_API_DECLARE_BEGIN
  22:X-CUBE-AI/App/audio_classifier_data.c **** ai_buffer g_audio_classifier_data_map_activations[AI_AUDIO_CLASSIFIER_DATA_ACTIVATIONS_COUNT] = {
  23:X-CUBE-AI/App/audio_classifier_data.c ****   AI_BUFFER_INIT(AI_FLAG_NONE,  AI_BUFFER_FORMAT_U8,
  24:X-CUBE-AI/App/audio_classifier_data.c ****     AI_BUFFER_SHAPE_INIT(AI_SHAPE_BCWH, 4, 1, 19344, 1, 1),
  25:X-CUBE-AI/App/audio_classifier_data.c ****     19344, NULL, NULL),    /* heap_overlay_pool */
  26:X-CUBE-AI/App/audio_classifier_data.c ****   };
  27:X-CUBE-AI/App/audio_classifier_data.c **** ai_buffer g_audio_classifier_data_map_weights[AI_AUDIO_CLASSIFIER_DATA_WEIGHTS_COUNT] = {
  28:X-CUBE-AI/App/audio_classifier_data.c ****   AI_BUFFER_INIT(AI_FLAG_NONE,  AI_BUFFER_FORMAT_U8,
  29:X-CUBE-AI/App/audio_classifier_data.c ****     AI_BUFFER_SHAPE_INIT(AI_SHAPE_BCWH, 4, 1, 152496, 1, 1),
  30:X-CUBE-AI/App/audio_classifier_data.c ****     152496, NULL, s_audio_classifier_weights_array_u64),   /* weights_array */
ARM GAS  /var/folders/n6/c271nzx11xl4r4_m7sqjlt0m0000gn/T//ccPDZvZi.s 			page 2


  31:X-CUBE-AI/App/audio_classifier_data.c ****   };
  32:X-CUBE-AI/App/audio_classifier_data.c **** 
  33:X-CUBE-AI/App/audio_classifier_data.c **** 
  34:X-CUBE-AI/App/audio_classifier_data.c **** /*!
  35:X-CUBE-AI/App/audio_classifier_data.c ****  * @brief Get network activations buffer initialized struct.
  36:X-CUBE-AI/App/audio_classifier_data.c ****  * @ingroup audio_classifier_data
  37:X-CUBE-AI/App/audio_classifier_data.c ****  * @param[in] ptr a pointer to the activations array storage area
  38:X-CUBE-AI/App/audio_classifier_data.c ****  * @return an ai_buffer initialized struct
  39:X-CUBE-AI/App/audio_classifier_data.c ****  */
  40:X-CUBE-AI/App/audio_classifier_data.c **** AI_DEPRECATED
  41:X-CUBE-AI/App/audio_classifier_data.c **** AI_API_ENTRY
  42:X-CUBE-AI/App/audio_classifier_data.c **** ai_buffer ai_audio_classifier_data_activations_buffer_get(const ai_handle ptr)
  43:X-CUBE-AI/App/audio_classifier_data.c **** {
  29              		.loc 1 43 1 view -0
  30              		.cfi_startproc
  31              		@ args = 0, pretend = 0, frame = 16
  32              		@ frame_needed = 0, uses_anonymous_args = 0
  33              		@ link register save eliminated.
  34              		.loc 1 43 1 is_stmt 0 view .LVU1
  35 0000 10B4     		push	{r4}
  36              		.cfi_def_cfa_offset 4
  37              		.cfi_offset 4, -4
  38 0002 85B0     		sub	sp, sp, #20
  39              		.cfi_def_cfa_offset 24
  40 0004 8446     		mov	ip, r0
  44:X-CUBE-AI/App/audio_classifier_data.c ****   ai_buffer buf = AI_BUFFER_INIT(
  41              		.loc 1 44 3 is_stmt 1 view .LVU2
  42              		.loc 1 44 13 is_stmt 0 view .LVU3
  43 0006 0E4B     		ldr	r3, .L3
  44 0008 0360     		str	r3, [r0]
  45 000a 4160     		str	r1, [r0, #4]
  46 000c 0023     		movs	r3, #0
  47 000e 8360     		str	r3, [r0, #8]
  48 0010 C360     		str	r3, [r0, #12]
  49 0012 44F69033 		movw	r3, #19344
  50 0016 0361     		str	r3, [r0, #16]
  51 0018 0123     		movs	r3, #1
  52 001a 0375     		strb	r3, [r0, #20]
  53 001c 4369     		ldr	r3, [r0, #20]
  54 001e 0422     		movs	r2, #4
  55 0020 62F31F23 		bfi	r3, r2, #8, #24
  56 0024 4361     		str	r3, [r0, #20]
  57              		.loc 1 44 19 view .LVU4
  58 0026 074B     		ldr	r3, .L3+4
  59 0028 6C46     		mov	r4, sp
  60 002a 0FCB     		ldm	r3, {r0, r1, r2, r3}
  61              	.LVL1:
  62              		.loc 1 44 19 view .LVU5
  63 002c 84E80F00 		stm	r4, {r0, r1, r2, r3}
  64              		.loc 1 44 13 view .LVU6
  65 0030 CCF81840 		str	r4, [ip, #24]
  45:X-CUBE-AI/App/audio_classifier_data.c ****     AI_FLAG_NONE, AI_BUFFER_FORMAT_U8,
  46:X-CUBE-AI/App/audio_classifier_data.c ****     AI_BUFFER_SHAPE_INIT(AI_SHAPE_BCWH, 4, 1, AI_AUDIO_CLASSIFIER_DATA_ACTIVATIONS_SIZE, 1, AI_AUDI
  47:X-CUBE-AI/App/audio_classifier_data.c ****     AI_AUDIO_CLASSIFIER_DATA_ACTIVATIONS_SIZE,
  48:X-CUBE-AI/App/audio_classifier_data.c ****     NULL, ptr);
  49:X-CUBE-AI/App/audio_classifier_data.c ****   return buf;
  66              		.loc 1 49 3 is_stmt 1 view .LVU7
ARM GAS  /var/folders/n6/c271nzx11xl4r4_m7sqjlt0m0000gn/T//ccPDZvZi.s 			page 3


  50:X-CUBE-AI/App/audio_classifier_data.c **** }
  67              		.loc 1 50 1 is_stmt 0 view .LVU8
  68 0034 6046     		mov	r0, ip
  69 0036 05B0     		add	sp, sp, #20
  70              		.cfi_def_cfa_offset 4
  71              		@ sp needed
  72 0038 5DF8044B 		ldr	r4, [sp], #4
  73              		.cfi_restore 4
  74              		.cfi_def_cfa_offset 0
  75 003c 7047     		bx	lr
  76              	.L4:
  77 003e 00BF     		.align	2
  78              	.L3:
  79 0040 40040400 		.word	263232
  80 0044 00000000 		.word	.LANCHOR0
  81              		.cfi_endproc
  82              	.LFE0:
  84              		.section	.text.ai_audio_classifier_data_weights_buffer_get,"ax",%progbits
  85              		.align	1
  86              		.global	ai_audio_classifier_data_weights_buffer_get
  87              		.syntax unified
  88              		.thumb
  89              		.thumb_func
  91              	ai_audio_classifier_data_weights_buffer_get:
  92              	.LVL2:
  93              	.LFB1:
  51:X-CUBE-AI/App/audio_classifier_data.c **** 
  52:X-CUBE-AI/App/audio_classifier_data.c **** /*!
  53:X-CUBE-AI/App/audio_classifier_data.c ****  * @brief Get network weights buffer initialized struct.
  54:X-CUBE-AI/App/audio_classifier_data.c ****  * @ingroup audio_classifier_data
  55:X-CUBE-AI/App/audio_classifier_data.c ****  * @param[in] ptr a pointer to the weights array storage area
  56:X-CUBE-AI/App/audio_classifier_data.c ****  * @return an ai_buffer initialized struct
  57:X-CUBE-AI/App/audio_classifier_data.c ****  */
  58:X-CUBE-AI/App/audio_classifier_data.c **** AI_DEPRECATED
  59:X-CUBE-AI/App/audio_classifier_data.c **** AI_API_ENTRY
  60:X-CUBE-AI/App/audio_classifier_data.c **** ai_buffer ai_audio_classifier_data_weights_buffer_get(const ai_handle ptr)
  61:X-CUBE-AI/App/audio_classifier_data.c **** {
  94              		.loc 1 61 1 is_stmt 1 view -0
  95              		.cfi_startproc
  96              		@ args = 0, pretend = 0, frame = 16
  97              		@ frame_needed = 0, uses_anonymous_args = 0
  98              		@ link register save eliminated.
  99              		.loc 1 61 1 is_stmt 0 view .LVU10
 100 0000 10B4     		push	{r4}
 101              		.cfi_def_cfa_offset 4
 102              		.cfi_offset 4, -4
 103 0002 85B0     		sub	sp, sp, #20
 104              		.cfi_def_cfa_offset 24
 105 0004 8446     		mov	ip, r0
  62:X-CUBE-AI/App/audio_classifier_data.c ****   ai_buffer buf = AI_BUFFER_INIT(
 106              		.loc 1 62 3 is_stmt 1 view .LVU11
 107              		.loc 1 62 13 is_stmt 0 view .LVU12
 108 0006 0D4B     		ldr	r3, .L7
 109 0008 0360     		str	r3, [r0]
 110 000a 4160     		str	r1, [r0, #4]
 111 000c 0023     		movs	r3, #0
 112 000e 8360     		str	r3, [r0, #8]
ARM GAS  /var/folders/n6/c271nzx11xl4r4_m7sqjlt0m0000gn/T//ccPDZvZi.s 			page 4


 113 0010 C360     		str	r3, [r0, #12]
 114 0012 0B4B     		ldr	r3, .L7+4
 115 0014 0361     		str	r3, [r0, #16]
 116 0016 0123     		movs	r3, #1
 117 0018 0375     		strb	r3, [r0, #20]
 118 001a 4369     		ldr	r3, [r0, #20]
 119 001c 0422     		movs	r2, #4
 120 001e 62F31F23 		bfi	r3, r2, #8, #24
 121 0022 4361     		str	r3, [r0, #20]
 122              		.loc 1 62 19 view .LVU13
 123 0024 6C46     		mov	r4, sp
 124 0026 074B     		ldr	r3, .L7+8
 125 0028 0FCB     		ldm	r3, {r0, r1, r2, r3}
 126              	.LVL3:
 127              		.loc 1 62 19 view .LVU14
 128 002a 84E80F00 		stm	r4, {r0, r1, r2, r3}
 129              		.loc 1 62 13 view .LVU15
 130 002e CCF81840 		str	r4, [ip, #24]
  63:X-CUBE-AI/App/audio_classifier_data.c ****     AI_FLAG_NONE, AI_BUFFER_FORMAT_U8|AI_BUFFER_FMT_FLAG_CONST,
  64:X-CUBE-AI/App/audio_classifier_data.c ****     AI_BUFFER_SHAPE_INIT(AI_SHAPE_BCWH, 4, 1, AI_AUDIO_CLASSIFIER_DATA_WEIGHTS_SIZE, 1, AI_AUDIO_CL
  65:X-CUBE-AI/App/audio_classifier_data.c ****     AI_AUDIO_CLASSIFIER_DATA_WEIGHTS_SIZE,
  66:X-CUBE-AI/App/audio_classifier_data.c ****     NULL, ptr);
  67:X-CUBE-AI/App/audio_classifier_data.c ****   return buf;
 131              		.loc 1 67 3 is_stmt 1 view .LVU16
  68:X-CUBE-AI/App/audio_classifier_data.c **** }
 132              		.loc 1 68 1 is_stmt 0 view .LVU17
 133 0032 6046     		mov	r0, ip
 134 0034 05B0     		add	sp, sp, #20
 135              		.cfi_def_cfa_offset 4
 136              		@ sp needed
 137 0036 5DF8044B 		ldr	r4, [sp], #4
 138              		.cfi_restore 4
 139              		.cfi_def_cfa_offset 0
 140 003a 7047     		bx	lr
 141              	.L8:
 142              		.align	2
 143              	.L7:
 144 003c 40040440 		.word	1074005056
 145 0040 B0530200 		.word	152496
 146 0044 10000000 		.word	.LANCHOR0+16
 147              		.cfi_endproc
 148              	.LFE1:
 150              		.section	.text.ai_audio_classifier_data_weights_get,"ax",%progbits
 151              		.align	1
 152              		.global	ai_audio_classifier_data_weights_get
 153              		.syntax unified
 154              		.thumb
 155              		.thumb_func
 157              	ai_audio_classifier_data_weights_get:
 158              	.LFB2:
  69:X-CUBE-AI/App/audio_classifier_data.c **** 
  70:X-CUBE-AI/App/audio_classifier_data.c **** 
  71:X-CUBE-AI/App/audio_classifier_data.c **** /*!
  72:X-CUBE-AI/App/audio_classifier_data.c ****  * @brief Get network weights array pointer as a handle ptr.
  73:X-CUBE-AI/App/audio_classifier_data.c ****  * @ingroup audio_classifier_data
  74:X-CUBE-AI/App/audio_classifier_data.c ****  * @return a ai_handle pointer to the weights array
  75:X-CUBE-AI/App/audio_classifier_data.c ****  */
ARM GAS  /var/folders/n6/c271nzx11xl4r4_m7sqjlt0m0000gn/T//ccPDZvZi.s 			page 5


  76:X-CUBE-AI/App/audio_classifier_data.c **** AI_DEPRECATED
  77:X-CUBE-AI/App/audio_classifier_data.c **** AI_API_ENTRY
  78:X-CUBE-AI/App/audio_classifier_data.c **** ai_handle ai_audio_classifier_data_weights_get(void)
  79:X-CUBE-AI/App/audio_classifier_data.c **** {
 159              		.loc 1 79 1 is_stmt 1 view -0
 160              		.cfi_startproc
 161              		@ args = 0, pretend = 0, frame = 0
 162              		@ frame_needed = 0, uses_anonymous_args = 0
 163              		@ link register save eliminated.
  80:X-CUBE-AI/App/audio_classifier_data.c ****   return AI_HANDLE_PTR(g_audio_classifier_weights_table);
 164              		.loc 1 80 3 view .LVU19
  81:X-CUBE-AI/App/audio_classifier_data.c **** 
  82:X-CUBE-AI/App/audio_classifier_data.c **** }
 165              		.loc 1 82 1 is_stmt 0 view .LVU20
 166 0000 0048     		ldr	r0, .L10
 167 0002 7047     		bx	lr
 168              	.L11:
 169              		.align	2
 170              	.L10:
 171 0004 00000000 		.word	g_audio_classifier_weights_table
 172              		.cfi_endproc
 173              	.LFE2:
 175              		.section	.text.ai_audio_classifier_data_params_get,"ax",%progbits
 176              		.align	1
 177              		.global	ai_audio_classifier_data_params_get
 178              		.syntax unified
 179              		.thumb
 180              		.thumb_func
 182              	ai_audio_classifier_data_params_get:
 183              	.LVL4:
 184              	.LFB3:
  83:X-CUBE-AI/App/audio_classifier_data.c **** 
  84:X-CUBE-AI/App/audio_classifier_data.c **** 
  85:X-CUBE-AI/App/audio_classifier_data.c **** /*!
  86:X-CUBE-AI/App/audio_classifier_data.c ****  * @brief Get network params configuration data structure.
  87:X-CUBE-AI/App/audio_classifier_data.c ****  * @ingroup audio_classifier_data
  88:X-CUBE-AI/App/audio_classifier_data.c ****  * @return true if a valid configuration is present, false otherwise
  89:X-CUBE-AI/App/audio_classifier_data.c ****  */
  90:X-CUBE-AI/App/audio_classifier_data.c **** AI_API_ENTRY
  91:X-CUBE-AI/App/audio_classifier_data.c **** ai_bool ai_audio_classifier_data_params_get(ai_network_params* params)
  92:X-CUBE-AI/App/audio_classifier_data.c **** {
 185              		.loc 1 92 1 is_stmt 1 view -0
 186              		.cfi_startproc
 187              		@ args = 0, pretend = 0, frame = 16
 188              		@ frame_needed = 0, uses_anonymous_args = 0
  93:X-CUBE-AI/App/audio_classifier_data.c ****   if (!params) return false;
 189              		.loc 1 93 3 view .LVU22
 190              		.loc 1 93 6 is_stmt 0 view .LVU23
 191 0000 B0B1     		cbz	r0, .L14
  92:X-CUBE-AI/App/audio_classifier_data.c ****   if (!params) return false;
 192              		.loc 1 92 1 view .LVU24
 193 0002 00B5     		push	{lr}
 194              		.cfi_def_cfa_offset 4
 195              		.cfi_offset 14, -4
 196 0004 85B0     		sub	sp, sp, #20
 197              		.cfi_def_cfa_offset 24
 198 0006 8646     		mov	lr, r0
ARM GAS  /var/folders/n6/c271nzx11xl4r4_m7sqjlt0m0000gn/T//ccPDZvZi.s 			page 6


  94:X-CUBE-AI/App/audio_classifier_data.c ****   
  95:X-CUBE-AI/App/audio_classifier_data.c ****   const ai_buffer_array map_activations = 
 199              		.loc 1 95 3 is_stmt 1 view .LVU25
 200              		.loc 1 95 25 is_stmt 0 view .LVU26
 201 0008 0A4B     		ldr	r3, .L19
 202 000a 02AA     		add	r2, sp, #8
 203 000c 03F12001 		add	r1, r3, #32
 204 0010 03C9     		ldm	r1, {r0, r1}
 205              	.LVL5:
 206              		.loc 1 95 25 view .LVU27
 207 0012 82E80300 		stm	r2, {r0, r1}
  96:X-CUBE-AI/App/audio_classifier_data.c ****     AI_BUFFER_ARRAY_OBJ_INIT(AI_FLAG_NONE, AI_AUDIO_CLASSIFIER_DATA_ACTIVATIONS_COUNT, g_audio_clas
  97:X-CUBE-AI/App/audio_classifier_data.c ****   
  98:X-CUBE-AI/App/audio_classifier_data.c ****   const ai_buffer_array map_weights = 
 208              		.loc 1 98 3 is_stmt 1 view .LVU28
 209              		.loc 1 98 25 is_stmt 0 view .LVU29
 210 0016 EC46     		mov	ip, sp
 211 0018 2833     		adds	r3, r3, #40
 212 001a 93E80300 		ldm	r3, {r0, r1}
 213 001e 8CE80300 		stm	ip, {r0, r1}
  99:X-CUBE-AI/App/audio_classifier_data.c ****     AI_BUFFER_ARRAY_OBJ_INIT(AI_FLAG_NONE, AI_AUDIO_CLASSIFIER_DATA_WEIGHTS_COUNT, g_audio_classifi
 100:X-CUBE-AI/App/audio_classifier_data.c **** 
 101:X-CUBE-AI/App/audio_classifier_data.c ****   return ai_platform_bind_network_params(params, &map_weights, &map_activations);
 214              		.loc 1 101 3 is_stmt 1 view .LVU30
 215              		.loc 1 101 10 is_stmt 0 view .LVU31
 216 0022 6146     		mov	r1, ip
 217 0024 7046     		mov	r0, lr
 218 0026 FFF7FEFF 		bl	ai_platform_bind_network_params
 219              	.LVL6:
 102:X-CUBE-AI/App/audio_classifier_data.c **** }
 220              		.loc 1 102 1 view .LVU32
 221 002a 05B0     		add	sp, sp, #20
 222              		.cfi_def_cfa_offset 4
 223              		@ sp needed
 224 002c 5DF804FB 		ldr	pc, [sp], #4
 225              	.LVL7:
 226              	.L14:
 227              		.cfi_def_cfa_offset 0
 228              		.cfi_restore 14
  93:X-CUBE-AI/App/audio_classifier_data.c ****   
 229              		.loc 1 93 23 discriminator 1 view .LVU33
 230 0030 0020     		movs	r0, #0
 231              	.LVL8:
 232              		.loc 1 102 1 view .LVU34
 233 0032 7047     		bx	lr
 234              	.L20:
 235              		.align	2
 236              	.L19:
 237 0034 00000000 		.word	.LANCHOR0
 238              		.cfi_endproc
 239              	.LFE3:
 241              		.global	g_audio_classifier_data_map_weights
 242              		.section	.data.g_audio_classifier_data_map_weights,"aw"
 243              		.align	2
 246              	g_audio_classifier_data_map_weights:
 247 0000 40040400 		.word	263232
 248 0004 00000000 		.word	s_audio_classifier_weights_array_u64
ARM GAS  /var/folders/n6/c271nzx11xl4r4_m7sqjlt0m0000gn/T//ccPDZvZi.s 			page 7


 249 0008 00000000 		.word	0
 250 000c 00000000 		.word	0
 251 0010 B0530200 		.word	152496
 252 0014 01       		.byte	1
 253 0015 04       		.byte	4
 254 0016 00       		.byte	0
 255 0017 00       		.byte	0
 256 0018 00000000 		.word	__compound_literal.1
 257              		.section	.data.__compound_literal.1,"aw"
 258              		.align	2
 261              	__compound_literal.1:
 262 0000 01000000 		.word	1
 263 0004 B0530200 		.word	152496
 264 0008 01000000 		.word	1
 265 000c 01000000 		.word	1
 266              		.global	g_audio_classifier_data_map_activations
 267              		.section	.data.g_audio_classifier_data_map_activations,"aw"
 268              		.align	2
 271              	g_audio_classifier_data_map_activations:
 272 0000 40040400 		.word	263232
 273 0004 00000000 		.word	0
 274 0008 00000000 		.word	0
 275 000c 00000000 		.word	0
 276 0010 904B0000 		.word	19344
 277 0014 01       		.byte	1
 278 0015 04       		.byte	4
 279 0016 00       		.byte	0
 280 0017 00       		.byte	0
 281 0018 00000000 		.word	__compound_literal.0
 282              		.section	.data.__compound_literal.0,"aw"
 283              		.align	2
 286              	__compound_literal.0:
 287 0000 01000000 		.word	1
 288 0004 904B0000 		.word	19344
 289 0008 01000000 		.word	1
 290 000c 01000000 		.word	1
 291              		.section	.rodata
 292              		.align	2
 293              		.set	.LANCHOR0,. + 0
 294              	.LC0:
 295 0000 01000000 		.word	1
 296 0004 904B0000 		.word	19344
 297 0008 01000000 		.word	1
 298 000c 01000000 		.word	1
 299              	.LC1:
 300 0010 01000000 		.word	1
 301 0014 B0530200 		.word	152496
 302 0018 01000000 		.word	1
 303 001c 01000000 		.word	1
 304              	.LC4:
 305 0020 0000     		.short	0
 306 0022 0100     		.short	1
 307 0024 00000000 		.word	g_audio_classifier_data_map_activations
 308              	.LC5:
 309 0028 0000     		.short	0
 310 002a 0100     		.short	1
 311 002c 00000000 		.word	g_audio_classifier_data_map_weights
ARM GAS  /var/folders/n6/c271nzx11xl4r4_m7sqjlt0m0000gn/T//ccPDZvZi.s 			page 8


 312              		.text
 313              	.Letext0:
 314              		.file 2 "/Users/killian/Library/Application Support/Code/User/globalStorage/bmd.stm32-for-vscode/@
 315              		.file 3 "/Users/killian/Library/Application Support/Code/User/globalStorage/bmd.stm32-for-vscode/@
 316              		.file 4 "Middlewares/ST/AI/Inc/ai_platform.h"
 317              		.file 5 "X-CUBE-AI/App/audio_classifier_data_params.h"
 318              		.file 6 "X-CUBE-AI/App/audio_classifier_data.h"
 319              		.file 7 "Middlewares/ST/AI/Inc/ai_datatypes_format.h"
 320              		.file 8 "Middlewares/ST/AI/Inc/ai_platform_interface.h"
ARM GAS  /var/folders/n6/c271nzx11xl4r4_m7sqjlt0m0000gn/T//ccPDZvZi.s 			page 9

