ARM GAS  /var/folders/n6/c271nzx11xl4r4_m7sqjlt0m0000gn/T//ccCJ1kuw.s 			page 1


   1              		.cpu cortex-m7
   2              		.arch armv7e-m
   3              		.fpu fpv5-d16
   4              		.eabi_attribute 28, 1
   5              		.eabi_attribute 20, 1
   6              		.eabi_attribute 21, 1
   7              		.eabi_attribute 23, 3
   8              		.eabi_attribute 24, 1
   9              		.eabi_attribute 25, 1
  10              		.eabi_attribute 26, 1
  11              		.eabi_attribute 30, 1
  12              		.eabi_attribute 34, 1
  13              		.eabi_attribute 18, 4
  14              		.file	"audio_classifier.c"
  15              		.text
  16              	.Ltext0:
  17              		.cfi_sections	.debug_frame
  18              		.file 1 "X-CUBE-AI/App/audio_classifier.c"
  19              		.section	.text.audio_classifier_configure_weights,"ax",%progbits
  20              		.align	1
  21              		.syntax unified
  22              		.thumb
  23              		.thumb_func
  25              	audio_classifier_configure_weights:
  26              	.LVL0:
  27              	.LFB3:
   1:X-CUBE-AI/App/audio_classifier.c **** /**
   2:X-CUBE-AI/App/audio_classifier.c ****   ******************************************************************************
   3:X-CUBE-AI/App/audio_classifier.c ****   * @file    audio_classifier.c
   4:X-CUBE-AI/App/audio_classifier.c ****   * @author  AST Embedded Analytics Research Platform
   5:X-CUBE-AI/App/audio_classifier.c ****   * @date    2025-01-13T16:52:02+0100
   6:X-CUBE-AI/App/audio_classifier.c ****   * @brief   AI Tool Automatic Code Generator for Embedded NN computing
   7:X-CUBE-AI/App/audio_classifier.c ****   ******************************************************************************
   8:X-CUBE-AI/App/audio_classifier.c ****   * @attention
   9:X-CUBE-AI/App/audio_classifier.c ****   *
  10:X-CUBE-AI/App/audio_classifier.c ****   * Copyright (c) 2025 STMicroelectronics.
  11:X-CUBE-AI/App/audio_classifier.c ****   * All rights reserved.
  12:X-CUBE-AI/App/audio_classifier.c ****   *
  13:X-CUBE-AI/App/audio_classifier.c ****   * This software is licensed under terms that can be found in the LICENSE file
  14:X-CUBE-AI/App/audio_classifier.c ****   * in the root directory of this software component.
  15:X-CUBE-AI/App/audio_classifier.c ****   * If no LICENSE file comes with this software, it is provided AS-IS.
  16:X-CUBE-AI/App/audio_classifier.c ****   ******************************************************************************
  17:X-CUBE-AI/App/audio_classifier.c ****   */
  18:X-CUBE-AI/App/audio_classifier.c **** 
  19:X-CUBE-AI/App/audio_classifier.c **** 
  20:X-CUBE-AI/App/audio_classifier.c **** #include "audio_classifier.h"
  21:X-CUBE-AI/App/audio_classifier.c **** #include "audio_classifier_data.h"
  22:X-CUBE-AI/App/audio_classifier.c **** 
  23:X-CUBE-AI/App/audio_classifier.c **** #include "ai_platform.h"
  24:X-CUBE-AI/App/audio_classifier.c **** #include "ai_platform_interface.h"
  25:X-CUBE-AI/App/audio_classifier.c **** #include "ai_math_helpers.h"
  26:X-CUBE-AI/App/audio_classifier.c **** 
  27:X-CUBE-AI/App/audio_classifier.c **** #include "core_common.h"
  28:X-CUBE-AI/App/audio_classifier.c **** #include "core_convert.h"
  29:X-CUBE-AI/App/audio_classifier.c **** 
  30:X-CUBE-AI/App/audio_classifier.c **** #include "layers.h"
  31:X-CUBE-AI/App/audio_classifier.c **** 
ARM GAS  /var/folders/n6/c271nzx11xl4r4_m7sqjlt0m0000gn/T//ccCJ1kuw.s 			page 2


  32:X-CUBE-AI/App/audio_classifier.c **** 
  33:X-CUBE-AI/App/audio_classifier.c **** 
  34:X-CUBE-AI/App/audio_classifier.c **** #undef AI_NET_OBJ_INSTANCE
  35:X-CUBE-AI/App/audio_classifier.c **** #define AI_NET_OBJ_INSTANCE g_audio_classifier
  36:X-CUBE-AI/App/audio_classifier.c ****  
  37:X-CUBE-AI/App/audio_classifier.c **** #undef AI_AUDIO_CLASSIFIER_MODEL_SIGNATURE
  38:X-CUBE-AI/App/audio_classifier.c **** #define AI_AUDIO_CLASSIFIER_MODEL_SIGNATURE     "0xa1b612fd02abb0dd6389601db2ec0f4e"
  39:X-CUBE-AI/App/audio_classifier.c **** 
  40:X-CUBE-AI/App/audio_classifier.c **** #ifndef AI_TOOLS_REVISION_ID
  41:X-CUBE-AI/App/audio_classifier.c **** #define AI_TOOLS_REVISION_ID     ""
  42:X-CUBE-AI/App/audio_classifier.c **** #endif
  43:X-CUBE-AI/App/audio_classifier.c **** 
  44:X-CUBE-AI/App/audio_classifier.c **** #undef AI_TOOLS_DATE_TIME
  45:X-CUBE-AI/App/audio_classifier.c **** #define AI_TOOLS_DATE_TIME   "2025-01-13T16:52:02+0100"
  46:X-CUBE-AI/App/audio_classifier.c **** 
  47:X-CUBE-AI/App/audio_classifier.c **** #undef AI_TOOLS_COMPILE_TIME
  48:X-CUBE-AI/App/audio_classifier.c **** #define AI_TOOLS_COMPILE_TIME    __DATE__ " " __TIME__
  49:X-CUBE-AI/App/audio_classifier.c **** 
  50:X-CUBE-AI/App/audio_classifier.c **** #undef AI_AUDIO_CLASSIFIER_N_BATCHES
  51:X-CUBE-AI/App/audio_classifier.c **** #define AI_AUDIO_CLASSIFIER_N_BATCHES         (1)
  52:X-CUBE-AI/App/audio_classifier.c **** 
  53:X-CUBE-AI/App/audio_classifier.c **** static ai_ptr g_audio_classifier_activations_map[1] = AI_C_ARRAY_INIT;
  54:X-CUBE-AI/App/audio_classifier.c **** static ai_ptr g_audio_classifier_weights_map[1] = AI_C_ARRAY_INIT;
  55:X-CUBE-AI/App/audio_classifier.c **** 
  56:X-CUBE-AI/App/audio_classifier.c **** 
  57:X-CUBE-AI/App/audio_classifier.c **** 
  58:X-CUBE-AI/App/audio_classifier.c **** /**  Array declarations section  **********************************************/
  59:X-CUBE-AI/App/audio_classifier.c **** /* Array#0 */
  60:X-CUBE-AI/App/audio_classifier.c **** AI_ARRAY_OBJ_DECLARE(
  61:X-CUBE-AI/App/audio_classifier.c ****   input_output_array, AI_ARRAY_FORMAT_FLOAT|AI_FMT_FLAG_IS_IO,
  62:X-CUBE-AI/App/audio_classifier.c ****   NULL, NULL, 960, AI_STATIC)
  63:X-CUBE-AI/App/audio_classifier.c **** 
  64:X-CUBE-AI/App/audio_classifier.c **** /* Array#1 */
  65:X-CUBE-AI/App/audio_classifier.c **** AI_ARRAY_OBJ_DECLARE(
  66:X-CUBE-AI/App/audio_classifier.c ****   _conv1_conv1_0_Conv_output_0_output_array, AI_ARRAY_FORMAT_FLOAT,
  67:X-CUBE-AI/App/audio_classifier.c ****   NULL, NULL, 3840, AI_STATIC)
  68:X-CUBE-AI/App/audio_classifier.c **** 
  69:X-CUBE-AI/App/audio_classifier.c **** /* Array#2 */
  70:X-CUBE-AI/App/audio_classifier.c **** AI_ARRAY_OBJ_DECLARE(
  71:X-CUBE-AI/App/audio_classifier.c ****   _conv1_conv1_1_Relu_output_0_output_array, AI_ARRAY_FORMAT_FLOAT,
  72:X-CUBE-AI/App/audio_classifier.c ****   NULL, NULL, 3840, AI_STATIC)
  73:X-CUBE-AI/App/audio_classifier.c **** 
  74:X-CUBE-AI/App/audio_classifier.c **** /* Array#3 */
  75:X-CUBE-AI/App/audio_classifier.c **** AI_ARRAY_OBJ_DECLARE(
  76:X-CUBE-AI/App/audio_classifier.c ****   _conv1_conv1_2_MaxPool_output_0_output_array, AI_ARRAY_FORMAT_FLOAT,
  77:X-CUBE-AI/App/audio_classifier.c ****   NULL, NULL, 960, AI_STATIC)
  78:X-CUBE-AI/App/audio_classifier.c **** 
  79:X-CUBE-AI/App/audio_classifier.c **** /* Array#4 */
  80:X-CUBE-AI/App/audio_classifier.c **** AI_ARRAY_OBJ_DECLARE(
  81:X-CUBE-AI/App/audio_classifier.c ****   _conv2_conv2_0_Conv_output_0_output_array, AI_ARRAY_FORMAT_FLOAT,
  82:X-CUBE-AI/App/audio_classifier.c ****   NULL, NULL, 3840, AI_STATIC)
  83:X-CUBE-AI/App/audio_classifier.c **** 
  84:X-CUBE-AI/App/audio_classifier.c **** /* Array#5 */
  85:X-CUBE-AI/App/audio_classifier.c **** AI_ARRAY_OBJ_DECLARE(
  86:X-CUBE-AI/App/audio_classifier.c ****   _conv2_conv2_1_Relu_output_0_output_array, AI_ARRAY_FORMAT_FLOAT,
  87:X-CUBE-AI/App/audio_classifier.c ****   NULL, NULL, 3840, AI_STATIC)
  88:X-CUBE-AI/App/audio_classifier.c **** 
ARM GAS  /var/folders/n6/c271nzx11xl4r4_m7sqjlt0m0000gn/T//ccCJ1kuw.s 			page 3


  89:X-CUBE-AI/App/audio_classifier.c **** /* Array#6 */
  90:X-CUBE-AI/App/audio_classifier.c **** AI_ARRAY_OBJ_DECLARE(
  91:X-CUBE-AI/App/audio_classifier.c ****   _conv2_conv2_2_MaxPool_output_0_output_array, AI_ARRAY_FORMAT_FLOAT,
  92:X-CUBE-AI/App/audio_classifier.c ****   NULL, NULL, 896, AI_STATIC)
  93:X-CUBE-AI/App/audio_classifier.c **** 
  94:X-CUBE-AI/App/audio_classifier.c **** /* Array#7 */
  95:X-CUBE-AI/App/audio_classifier.c **** AI_ARRAY_OBJ_DECLARE(
  96:X-CUBE-AI/App/audio_classifier.c ****   _flatten_Flatten_output_0_to_chlast_output_array, AI_ARRAY_FORMAT_FLOAT,
  97:X-CUBE-AI/App/audio_classifier.c ****   NULL, NULL, 896, AI_STATIC)
  98:X-CUBE-AI/App/audio_classifier.c **** 
  99:X-CUBE-AI/App/audio_classifier.c **** /* Array#8 */
 100:X-CUBE-AI/App/audio_classifier.c **** AI_ARRAY_OBJ_DECLARE(
 101:X-CUBE-AI/App/audio_classifier.c ****   _fc1_fc1_0_Gemm_output_0_output_array, AI_ARRAY_FORMAT_FLOAT,
 102:X-CUBE-AI/App/audio_classifier.c ****   NULL, NULL, 40, AI_STATIC)
 103:X-CUBE-AI/App/audio_classifier.c **** 
 104:X-CUBE-AI/App/audio_classifier.c **** /* Array#9 */
 105:X-CUBE-AI/App/audio_classifier.c **** AI_ARRAY_OBJ_DECLARE(
 106:X-CUBE-AI/App/audio_classifier.c ****   _fc1_fc1_1_Relu_output_0_output_array, AI_ARRAY_FORMAT_FLOAT,
 107:X-CUBE-AI/App/audio_classifier.c ****   NULL, NULL, 40, AI_STATIC)
 108:X-CUBE-AI/App/audio_classifier.c **** 
 109:X-CUBE-AI/App/audio_classifier.c **** /* Array#10 */
 110:X-CUBE-AI/App/audio_classifier.c **** AI_ARRAY_OBJ_DECLARE(
 111:X-CUBE-AI/App/audio_classifier.c ****   _fc2_fc2_0_Gemm_output_0_output_array, AI_ARRAY_FORMAT_FLOAT,
 112:X-CUBE-AI/App/audio_classifier.c ****   NULL, NULL, 32, AI_STATIC)
 113:X-CUBE-AI/App/audio_classifier.c **** 
 114:X-CUBE-AI/App/audio_classifier.c **** /* Array#11 */
 115:X-CUBE-AI/App/audio_classifier.c **** AI_ARRAY_OBJ_DECLARE(
 116:X-CUBE-AI/App/audio_classifier.c ****   _fc2_fc2_1_Relu_output_0_output_array, AI_ARRAY_FORMAT_FLOAT,
 117:X-CUBE-AI/App/audio_classifier.c ****   NULL, NULL, 32, AI_STATIC)
 118:X-CUBE-AI/App/audio_classifier.c **** 
 119:X-CUBE-AI/App/audio_classifier.c **** /* Array#12 */
 120:X-CUBE-AI/App/audio_classifier.c **** AI_ARRAY_OBJ_DECLARE(
 121:X-CUBE-AI/App/audio_classifier.c ****   _fc3_fc3_0_Gemm_output_0_output_array, AI_ARRAY_FORMAT_FLOAT,
 122:X-CUBE-AI/App/audio_classifier.c ****   NULL, NULL, 8, AI_STATIC)
 123:X-CUBE-AI/App/audio_classifier.c **** 
 124:X-CUBE-AI/App/audio_classifier.c **** /* Array#13 */
 125:X-CUBE-AI/App/audio_classifier.c **** AI_ARRAY_OBJ_DECLARE(
 126:X-CUBE-AI/App/audio_classifier.c ****   _fc3_fc3_1_Relu_output_0_output_array, AI_ARRAY_FORMAT_FLOAT,
 127:X-CUBE-AI/App/audio_classifier.c ****   NULL, NULL, 8, AI_STATIC)
 128:X-CUBE-AI/App/audio_classifier.c **** 
 129:X-CUBE-AI/App/audio_classifier.c **** /* Array#14 */
 130:X-CUBE-AI/App/audio_classifier.c **** AI_ARRAY_OBJ_DECLARE(
 131:X-CUBE-AI/App/audio_classifier.c ****   _fc4_Gemm_output_0_output_array, AI_ARRAY_FORMAT_FLOAT,
 132:X-CUBE-AI/App/audio_classifier.c ****   NULL, NULL, 4, AI_STATIC)
 133:X-CUBE-AI/App/audio_classifier.c **** 
 134:X-CUBE-AI/App/audio_classifier.c **** /* Array#15 */
 135:X-CUBE-AI/App/audio_classifier.c **** AI_ARRAY_OBJ_DECLARE(
 136:X-CUBE-AI/App/audio_classifier.c ****   output_output_array, AI_ARRAY_FORMAT_FLOAT|AI_FMT_FLAG_IS_IO,
 137:X-CUBE-AI/App/audio_classifier.c ****   NULL, NULL, 4, AI_STATIC)
 138:X-CUBE-AI/App/audio_classifier.c **** 
 139:X-CUBE-AI/App/audio_classifier.c **** /* Array#16 */
 140:X-CUBE-AI/App/audio_classifier.c **** AI_ARRAY_OBJ_DECLARE(
 141:X-CUBE-AI/App/audio_classifier.c ****   _conv1_conv1_0_Conv_output_0_weights_array, AI_ARRAY_FORMAT_FLOAT,
 142:X-CUBE-AI/App/audio_classifier.c ****   NULL, NULL, 36, AI_STATIC)
 143:X-CUBE-AI/App/audio_classifier.c **** 
 144:X-CUBE-AI/App/audio_classifier.c **** /* Array#17 */
 145:X-CUBE-AI/App/audio_classifier.c **** AI_ARRAY_OBJ_DECLARE(
ARM GAS  /var/folders/n6/c271nzx11xl4r4_m7sqjlt0m0000gn/T//ccCJ1kuw.s 			page 4


 146:X-CUBE-AI/App/audio_classifier.c ****   _conv1_conv1_0_Conv_output_0_bias_array, AI_ARRAY_FORMAT_FLOAT,
 147:X-CUBE-AI/App/audio_classifier.c ****   NULL, NULL, 4, AI_STATIC)
 148:X-CUBE-AI/App/audio_classifier.c **** 
 149:X-CUBE-AI/App/audio_classifier.c **** /* Array#18 */
 150:X-CUBE-AI/App/audio_classifier.c **** AI_ARRAY_OBJ_DECLARE(
 151:X-CUBE-AI/App/audio_classifier.c ****   _conv2_conv2_0_Conv_output_0_weights_array, AI_ARRAY_FORMAT_FLOAT,
 152:X-CUBE-AI/App/audio_classifier.c ****   NULL, NULL, 576, AI_STATIC)
 153:X-CUBE-AI/App/audio_classifier.c **** 
 154:X-CUBE-AI/App/audio_classifier.c **** /* Array#19 */
 155:X-CUBE-AI/App/audio_classifier.c **** AI_ARRAY_OBJ_DECLARE(
 156:X-CUBE-AI/App/audio_classifier.c ****   _conv2_conv2_0_Conv_output_0_bias_array, AI_ARRAY_FORMAT_FLOAT,
 157:X-CUBE-AI/App/audio_classifier.c ****   NULL, NULL, 16, AI_STATIC)
 158:X-CUBE-AI/App/audio_classifier.c **** 
 159:X-CUBE-AI/App/audio_classifier.c **** /* Array#20 */
 160:X-CUBE-AI/App/audio_classifier.c **** AI_ARRAY_OBJ_DECLARE(
 161:X-CUBE-AI/App/audio_classifier.c ****   _fc1_fc1_0_Gemm_output_0_weights_array, AI_ARRAY_FORMAT_FLOAT,
 162:X-CUBE-AI/App/audio_classifier.c ****   NULL, NULL, 35840, AI_STATIC)
 163:X-CUBE-AI/App/audio_classifier.c **** 
 164:X-CUBE-AI/App/audio_classifier.c **** /* Array#21 */
 165:X-CUBE-AI/App/audio_classifier.c **** AI_ARRAY_OBJ_DECLARE(
 166:X-CUBE-AI/App/audio_classifier.c ****   _fc1_fc1_0_Gemm_output_0_bias_array, AI_ARRAY_FORMAT_FLOAT,
 167:X-CUBE-AI/App/audio_classifier.c ****   NULL, NULL, 40, AI_STATIC)
 168:X-CUBE-AI/App/audio_classifier.c **** 
 169:X-CUBE-AI/App/audio_classifier.c **** /* Array#22 */
 170:X-CUBE-AI/App/audio_classifier.c **** AI_ARRAY_OBJ_DECLARE(
 171:X-CUBE-AI/App/audio_classifier.c ****   _fc2_fc2_0_Gemm_output_0_weights_array, AI_ARRAY_FORMAT_FLOAT,
 172:X-CUBE-AI/App/audio_classifier.c ****   NULL, NULL, 1280, AI_STATIC)
 173:X-CUBE-AI/App/audio_classifier.c **** 
 174:X-CUBE-AI/App/audio_classifier.c **** /* Array#23 */
 175:X-CUBE-AI/App/audio_classifier.c **** AI_ARRAY_OBJ_DECLARE(
 176:X-CUBE-AI/App/audio_classifier.c ****   _fc2_fc2_0_Gemm_output_0_bias_array, AI_ARRAY_FORMAT_FLOAT,
 177:X-CUBE-AI/App/audio_classifier.c ****   NULL, NULL, 32, AI_STATIC)
 178:X-CUBE-AI/App/audio_classifier.c **** 
 179:X-CUBE-AI/App/audio_classifier.c **** /* Array#24 */
 180:X-CUBE-AI/App/audio_classifier.c **** AI_ARRAY_OBJ_DECLARE(
 181:X-CUBE-AI/App/audio_classifier.c ****   _fc3_fc3_0_Gemm_output_0_weights_array, AI_ARRAY_FORMAT_FLOAT,
 182:X-CUBE-AI/App/audio_classifier.c ****   NULL, NULL, 256, AI_STATIC)
 183:X-CUBE-AI/App/audio_classifier.c **** 
 184:X-CUBE-AI/App/audio_classifier.c **** /* Array#25 */
 185:X-CUBE-AI/App/audio_classifier.c **** AI_ARRAY_OBJ_DECLARE(
 186:X-CUBE-AI/App/audio_classifier.c ****   _fc3_fc3_0_Gemm_output_0_bias_array, AI_ARRAY_FORMAT_FLOAT,
 187:X-CUBE-AI/App/audio_classifier.c ****   NULL, NULL, 8, AI_STATIC)
 188:X-CUBE-AI/App/audio_classifier.c **** 
 189:X-CUBE-AI/App/audio_classifier.c **** /* Array#26 */
 190:X-CUBE-AI/App/audio_classifier.c **** AI_ARRAY_OBJ_DECLARE(
 191:X-CUBE-AI/App/audio_classifier.c ****   _fc4_Gemm_output_0_weights_array, AI_ARRAY_FORMAT_FLOAT,
 192:X-CUBE-AI/App/audio_classifier.c ****   NULL, NULL, 32, AI_STATIC)
 193:X-CUBE-AI/App/audio_classifier.c **** 
 194:X-CUBE-AI/App/audio_classifier.c **** /* Array#27 */
 195:X-CUBE-AI/App/audio_classifier.c **** AI_ARRAY_OBJ_DECLARE(
 196:X-CUBE-AI/App/audio_classifier.c ****   _fc4_Gemm_output_0_bias_array, AI_ARRAY_FORMAT_FLOAT,
 197:X-CUBE-AI/App/audio_classifier.c ****   NULL, NULL, 4, AI_STATIC)
 198:X-CUBE-AI/App/audio_classifier.c **** 
 199:X-CUBE-AI/App/audio_classifier.c **** /* Array#28 */
 200:X-CUBE-AI/App/audio_classifier.c **** AI_ARRAY_OBJ_DECLARE(
 201:X-CUBE-AI/App/audio_classifier.c ****   _conv1_conv1_0_Conv_output_0_scratch0_array, AI_ARRAY_FORMAT_FLOAT,
 202:X-CUBE-AI/App/audio_classifier.c ****   NULL, NULL, 9, AI_STATIC)
ARM GAS  /var/folders/n6/c271nzx11xl4r4_m7sqjlt0m0000gn/T//ccCJ1kuw.s 			page 5


 203:X-CUBE-AI/App/audio_classifier.c **** 
 204:X-CUBE-AI/App/audio_classifier.c **** /* Array#29 */
 205:X-CUBE-AI/App/audio_classifier.c **** AI_ARRAY_OBJ_DECLARE(
 206:X-CUBE-AI/App/audio_classifier.c ****   _conv2_conv2_0_Conv_output_0_scratch0_array, AI_ARRAY_FORMAT_FLOAT,
 207:X-CUBE-AI/App/audio_classifier.c ****   NULL, NULL, 36, AI_STATIC)
 208:X-CUBE-AI/App/audio_classifier.c **** 
 209:X-CUBE-AI/App/audio_classifier.c **** /**  Tensor declarations section  *********************************************/
 210:X-CUBE-AI/App/audio_classifier.c **** /* Tensor #0 */
 211:X-CUBE-AI/App/audio_classifier.c **** AI_TENSOR_OBJ_DECLARE(
 212:X-CUBE-AI/App/audio_classifier.c ****   input_output, AI_STATIC,
 213:X-CUBE-AI/App/audio_classifier.c ****   0, 0x0,
 214:X-CUBE-AI/App/audio_classifier.c ****   AI_SHAPE_INIT(4, 1, 1, 30, 32), AI_STRIDE_INIT(4, 4, 4, 4, 120),
 215:X-CUBE-AI/App/audio_classifier.c ****   1, &input_output_array, NULL)
 216:X-CUBE-AI/App/audio_classifier.c **** 
 217:X-CUBE-AI/App/audio_classifier.c **** /* Tensor #1 */
 218:X-CUBE-AI/App/audio_classifier.c **** AI_TENSOR_OBJ_DECLARE(
 219:X-CUBE-AI/App/audio_classifier.c ****   _conv1_conv1_0_Conv_output_0_output, AI_STATIC,
 220:X-CUBE-AI/App/audio_classifier.c ****   1, 0x0,
 221:X-CUBE-AI/App/audio_classifier.c ****   AI_SHAPE_INIT(4, 1, 4, 30, 32), AI_STRIDE_INIT(4, 4, 4, 16, 480),
 222:X-CUBE-AI/App/audio_classifier.c ****   1, &_conv1_conv1_0_Conv_output_0_output_array, NULL)
 223:X-CUBE-AI/App/audio_classifier.c **** 
 224:X-CUBE-AI/App/audio_classifier.c **** /* Tensor #2 */
 225:X-CUBE-AI/App/audio_classifier.c **** AI_TENSOR_OBJ_DECLARE(
 226:X-CUBE-AI/App/audio_classifier.c ****   _conv1_conv1_1_Relu_output_0_output, AI_STATIC,
 227:X-CUBE-AI/App/audio_classifier.c ****   2, 0x0,
 228:X-CUBE-AI/App/audio_classifier.c ****   AI_SHAPE_INIT(4, 1, 4, 30, 32), AI_STRIDE_INIT(4, 4, 4, 16, 480),
 229:X-CUBE-AI/App/audio_classifier.c ****   1, &_conv1_conv1_1_Relu_output_0_output_array, NULL)
 230:X-CUBE-AI/App/audio_classifier.c **** 
 231:X-CUBE-AI/App/audio_classifier.c **** /* Tensor #3 */
 232:X-CUBE-AI/App/audio_classifier.c **** AI_TENSOR_OBJ_DECLARE(
 233:X-CUBE-AI/App/audio_classifier.c ****   _conv1_conv1_2_MaxPool_output_0_output, AI_STATIC,
 234:X-CUBE-AI/App/audio_classifier.c ****   3, 0x0,
 235:X-CUBE-AI/App/audio_classifier.c ****   AI_SHAPE_INIT(4, 1, 4, 15, 16), AI_STRIDE_INIT(4, 4, 4, 16, 240),
 236:X-CUBE-AI/App/audio_classifier.c ****   1, &_conv1_conv1_2_MaxPool_output_0_output_array, NULL)
 237:X-CUBE-AI/App/audio_classifier.c **** 
 238:X-CUBE-AI/App/audio_classifier.c **** /* Tensor #4 */
 239:X-CUBE-AI/App/audio_classifier.c **** AI_TENSOR_OBJ_DECLARE(
 240:X-CUBE-AI/App/audio_classifier.c ****   _conv2_conv2_0_Conv_output_0_output, AI_STATIC,
 241:X-CUBE-AI/App/audio_classifier.c ****   4, 0x0,
 242:X-CUBE-AI/App/audio_classifier.c ****   AI_SHAPE_INIT(4, 1, 16, 15, 16), AI_STRIDE_INIT(4, 4, 4, 64, 960),
 243:X-CUBE-AI/App/audio_classifier.c ****   1, &_conv2_conv2_0_Conv_output_0_output_array, NULL)
 244:X-CUBE-AI/App/audio_classifier.c **** 
 245:X-CUBE-AI/App/audio_classifier.c **** /* Tensor #5 */
 246:X-CUBE-AI/App/audio_classifier.c **** AI_TENSOR_OBJ_DECLARE(
 247:X-CUBE-AI/App/audio_classifier.c ****   _conv2_conv2_1_Relu_output_0_output, AI_STATIC,
 248:X-CUBE-AI/App/audio_classifier.c ****   5, 0x0,
 249:X-CUBE-AI/App/audio_classifier.c ****   AI_SHAPE_INIT(4, 1, 16, 15, 16), AI_STRIDE_INIT(4, 4, 4, 64, 960),
 250:X-CUBE-AI/App/audio_classifier.c ****   1, &_conv2_conv2_1_Relu_output_0_output_array, NULL)
 251:X-CUBE-AI/App/audio_classifier.c **** 
 252:X-CUBE-AI/App/audio_classifier.c **** /* Tensor #6 */
 253:X-CUBE-AI/App/audio_classifier.c **** AI_TENSOR_OBJ_DECLARE(
 254:X-CUBE-AI/App/audio_classifier.c ****   _conv2_conv2_2_MaxPool_output_0_output, AI_STATIC,
 255:X-CUBE-AI/App/audio_classifier.c ****   6, 0x0,
 256:X-CUBE-AI/App/audio_classifier.c ****   AI_SHAPE_INIT(4, 1, 16, 7, 8), AI_STRIDE_INIT(4, 4, 4, 64, 448),
 257:X-CUBE-AI/App/audio_classifier.c ****   1, &_conv2_conv2_2_MaxPool_output_0_output_array, NULL)
 258:X-CUBE-AI/App/audio_classifier.c **** 
 259:X-CUBE-AI/App/audio_classifier.c **** /* Tensor #7 */
ARM GAS  /var/folders/n6/c271nzx11xl4r4_m7sqjlt0m0000gn/T//ccCJ1kuw.s 			page 6


 260:X-CUBE-AI/App/audio_classifier.c **** AI_TENSOR_OBJ_DECLARE(
 261:X-CUBE-AI/App/audio_classifier.c ****   _flatten_Flatten_output_0_to_chlast_output, AI_STATIC,
 262:X-CUBE-AI/App/audio_classifier.c ****   7, 0x0,
 263:X-CUBE-AI/App/audio_classifier.c ****   AI_SHAPE_INIT(4, 1, 7, 8, 16), AI_STRIDE_INIT(4, 4, 4, 28, 224),
 264:X-CUBE-AI/App/audio_classifier.c ****   1, &_flatten_Flatten_output_0_to_chlast_output_array, NULL)
 265:X-CUBE-AI/App/audio_classifier.c **** 
 266:X-CUBE-AI/App/audio_classifier.c **** /* Tensor #8 */
 267:X-CUBE-AI/App/audio_classifier.c **** AI_TENSOR_OBJ_DECLARE(
 268:X-CUBE-AI/App/audio_classifier.c ****   _flatten_Flatten_output_0_to_chlast_output0, AI_STATIC,
 269:X-CUBE-AI/App/audio_classifier.c ****   8, 0x0,
 270:X-CUBE-AI/App/audio_classifier.c ****   AI_SHAPE_INIT(4, 1, 896, 1, 1), AI_STRIDE_INIT(4, 4, 4, 3584, 3584),
 271:X-CUBE-AI/App/audio_classifier.c ****   1, &_flatten_Flatten_output_0_to_chlast_output_array, NULL)
 272:X-CUBE-AI/App/audio_classifier.c **** 
 273:X-CUBE-AI/App/audio_classifier.c **** /* Tensor #9 */
 274:X-CUBE-AI/App/audio_classifier.c **** AI_TENSOR_OBJ_DECLARE(
 275:X-CUBE-AI/App/audio_classifier.c ****   _fc1_fc1_0_Gemm_output_0_output, AI_STATIC,
 276:X-CUBE-AI/App/audio_classifier.c ****   9, 0x0,
 277:X-CUBE-AI/App/audio_classifier.c ****   AI_SHAPE_INIT(4, 1, 40, 1, 1), AI_STRIDE_INIT(4, 4, 4, 160, 160),
 278:X-CUBE-AI/App/audio_classifier.c ****   1, &_fc1_fc1_0_Gemm_output_0_output_array, NULL)
 279:X-CUBE-AI/App/audio_classifier.c **** 
 280:X-CUBE-AI/App/audio_classifier.c **** /* Tensor #10 */
 281:X-CUBE-AI/App/audio_classifier.c **** AI_TENSOR_OBJ_DECLARE(
 282:X-CUBE-AI/App/audio_classifier.c ****   _fc1_fc1_1_Relu_output_0_output, AI_STATIC,
 283:X-CUBE-AI/App/audio_classifier.c ****   10, 0x0,
 284:X-CUBE-AI/App/audio_classifier.c ****   AI_SHAPE_INIT(4, 1, 40, 1, 1), AI_STRIDE_INIT(4, 4, 4, 160, 160),
 285:X-CUBE-AI/App/audio_classifier.c ****   1, &_fc1_fc1_1_Relu_output_0_output_array, NULL)
 286:X-CUBE-AI/App/audio_classifier.c **** 
 287:X-CUBE-AI/App/audio_classifier.c **** /* Tensor #11 */
 288:X-CUBE-AI/App/audio_classifier.c **** AI_TENSOR_OBJ_DECLARE(
 289:X-CUBE-AI/App/audio_classifier.c ****   _fc2_fc2_0_Gemm_output_0_output, AI_STATIC,
 290:X-CUBE-AI/App/audio_classifier.c ****   11, 0x0,
 291:X-CUBE-AI/App/audio_classifier.c ****   AI_SHAPE_INIT(4, 1, 32, 1, 1), AI_STRIDE_INIT(4, 4, 4, 128, 128),
 292:X-CUBE-AI/App/audio_classifier.c ****   1, &_fc2_fc2_0_Gemm_output_0_output_array, NULL)
 293:X-CUBE-AI/App/audio_classifier.c **** 
 294:X-CUBE-AI/App/audio_classifier.c **** /* Tensor #12 */
 295:X-CUBE-AI/App/audio_classifier.c **** AI_TENSOR_OBJ_DECLARE(
 296:X-CUBE-AI/App/audio_classifier.c ****   _fc2_fc2_1_Relu_output_0_output, AI_STATIC,
 297:X-CUBE-AI/App/audio_classifier.c ****   12, 0x0,
 298:X-CUBE-AI/App/audio_classifier.c ****   AI_SHAPE_INIT(4, 1, 32, 1, 1), AI_STRIDE_INIT(4, 4, 4, 128, 128),
 299:X-CUBE-AI/App/audio_classifier.c ****   1, &_fc2_fc2_1_Relu_output_0_output_array, NULL)
 300:X-CUBE-AI/App/audio_classifier.c **** 
 301:X-CUBE-AI/App/audio_classifier.c **** /* Tensor #13 */
 302:X-CUBE-AI/App/audio_classifier.c **** AI_TENSOR_OBJ_DECLARE(
 303:X-CUBE-AI/App/audio_classifier.c ****   _fc3_fc3_0_Gemm_output_0_output, AI_STATIC,
 304:X-CUBE-AI/App/audio_classifier.c ****   13, 0x0,
 305:X-CUBE-AI/App/audio_classifier.c ****   AI_SHAPE_INIT(4, 1, 8, 1, 1), AI_STRIDE_INIT(4, 4, 4, 32, 32),
 306:X-CUBE-AI/App/audio_classifier.c ****   1, &_fc3_fc3_0_Gemm_output_0_output_array, NULL)
 307:X-CUBE-AI/App/audio_classifier.c **** 
 308:X-CUBE-AI/App/audio_classifier.c **** /* Tensor #14 */
 309:X-CUBE-AI/App/audio_classifier.c **** AI_TENSOR_OBJ_DECLARE(
 310:X-CUBE-AI/App/audio_classifier.c ****   _fc3_fc3_1_Relu_output_0_output, AI_STATIC,
 311:X-CUBE-AI/App/audio_classifier.c ****   14, 0x0,
 312:X-CUBE-AI/App/audio_classifier.c ****   AI_SHAPE_INIT(4, 1, 8, 1, 1), AI_STRIDE_INIT(4, 4, 4, 32, 32),
 313:X-CUBE-AI/App/audio_classifier.c ****   1, &_fc3_fc3_1_Relu_output_0_output_array, NULL)
 314:X-CUBE-AI/App/audio_classifier.c **** 
 315:X-CUBE-AI/App/audio_classifier.c **** /* Tensor #15 */
 316:X-CUBE-AI/App/audio_classifier.c **** AI_TENSOR_OBJ_DECLARE(
ARM GAS  /var/folders/n6/c271nzx11xl4r4_m7sqjlt0m0000gn/T//ccCJ1kuw.s 			page 7


 317:X-CUBE-AI/App/audio_classifier.c ****   _fc4_Gemm_output_0_output, AI_STATIC,
 318:X-CUBE-AI/App/audio_classifier.c ****   15, 0x0,
 319:X-CUBE-AI/App/audio_classifier.c ****   AI_SHAPE_INIT(4, 1, 4, 1, 1), AI_STRIDE_INIT(4, 4, 4, 16, 16),
 320:X-CUBE-AI/App/audio_classifier.c ****   1, &_fc4_Gemm_output_0_output_array, NULL)
 321:X-CUBE-AI/App/audio_classifier.c **** 
 322:X-CUBE-AI/App/audio_classifier.c **** /* Tensor #16 */
 323:X-CUBE-AI/App/audio_classifier.c **** AI_TENSOR_OBJ_DECLARE(
 324:X-CUBE-AI/App/audio_classifier.c ****   output_output, AI_STATIC,
 325:X-CUBE-AI/App/audio_classifier.c ****   16, 0x0,
 326:X-CUBE-AI/App/audio_classifier.c ****   AI_SHAPE_INIT(4, 1, 4, 1, 1), AI_STRIDE_INIT(4, 4, 4, 16, 16),
 327:X-CUBE-AI/App/audio_classifier.c ****   1, &output_output_array, NULL)
 328:X-CUBE-AI/App/audio_classifier.c **** 
 329:X-CUBE-AI/App/audio_classifier.c **** /* Tensor #17 */
 330:X-CUBE-AI/App/audio_classifier.c **** AI_TENSOR_OBJ_DECLARE(
 331:X-CUBE-AI/App/audio_classifier.c ****   _conv1_conv1_0_Conv_output_0_weights, AI_STATIC,
 332:X-CUBE-AI/App/audio_classifier.c ****   17, 0x0,
 333:X-CUBE-AI/App/audio_classifier.c ****   AI_SHAPE_INIT(4, 1, 3, 3, 4), AI_STRIDE_INIT(4, 4, 4, 16, 48),
 334:X-CUBE-AI/App/audio_classifier.c ****   1, &_conv1_conv1_0_Conv_output_0_weights_array, NULL)
 335:X-CUBE-AI/App/audio_classifier.c **** 
 336:X-CUBE-AI/App/audio_classifier.c **** /* Tensor #18 */
 337:X-CUBE-AI/App/audio_classifier.c **** AI_TENSOR_OBJ_DECLARE(
 338:X-CUBE-AI/App/audio_classifier.c ****   _conv1_conv1_0_Conv_output_0_bias, AI_STATIC,
 339:X-CUBE-AI/App/audio_classifier.c ****   18, 0x0,
 340:X-CUBE-AI/App/audio_classifier.c ****   AI_SHAPE_INIT(4, 1, 4, 1, 1), AI_STRIDE_INIT(4, 4, 4, 16, 16),
 341:X-CUBE-AI/App/audio_classifier.c ****   1, &_conv1_conv1_0_Conv_output_0_bias_array, NULL)
 342:X-CUBE-AI/App/audio_classifier.c **** 
 343:X-CUBE-AI/App/audio_classifier.c **** /* Tensor #19 */
 344:X-CUBE-AI/App/audio_classifier.c **** AI_TENSOR_OBJ_DECLARE(
 345:X-CUBE-AI/App/audio_classifier.c ****   _conv2_conv2_0_Conv_output_0_weights, AI_STATIC,
 346:X-CUBE-AI/App/audio_classifier.c ****   19, 0x0,
 347:X-CUBE-AI/App/audio_classifier.c ****   AI_SHAPE_INIT(4, 4, 3, 3, 16), AI_STRIDE_INIT(4, 4, 16, 256, 768),
 348:X-CUBE-AI/App/audio_classifier.c ****   1, &_conv2_conv2_0_Conv_output_0_weights_array, NULL)
 349:X-CUBE-AI/App/audio_classifier.c **** 
 350:X-CUBE-AI/App/audio_classifier.c **** /* Tensor #20 */
 351:X-CUBE-AI/App/audio_classifier.c **** AI_TENSOR_OBJ_DECLARE(
 352:X-CUBE-AI/App/audio_classifier.c ****   _conv2_conv2_0_Conv_output_0_bias, AI_STATIC,
 353:X-CUBE-AI/App/audio_classifier.c ****   20, 0x0,
 354:X-CUBE-AI/App/audio_classifier.c ****   AI_SHAPE_INIT(4, 1, 16, 1, 1), AI_STRIDE_INIT(4, 4, 4, 64, 64),
 355:X-CUBE-AI/App/audio_classifier.c ****   1, &_conv2_conv2_0_Conv_output_0_bias_array, NULL)
 356:X-CUBE-AI/App/audio_classifier.c **** 
 357:X-CUBE-AI/App/audio_classifier.c **** /* Tensor #21 */
 358:X-CUBE-AI/App/audio_classifier.c **** AI_TENSOR_OBJ_DECLARE(
 359:X-CUBE-AI/App/audio_classifier.c ****   _fc1_fc1_0_Gemm_output_0_weights, AI_STATIC,
 360:X-CUBE-AI/App/audio_classifier.c ****   21, 0x0,
 361:X-CUBE-AI/App/audio_classifier.c ****   AI_SHAPE_INIT(4, 896, 40, 1, 1), AI_STRIDE_INIT(4, 4, 3584, 143360, 143360),
 362:X-CUBE-AI/App/audio_classifier.c ****   1, &_fc1_fc1_0_Gemm_output_0_weights_array, NULL)
 363:X-CUBE-AI/App/audio_classifier.c **** 
 364:X-CUBE-AI/App/audio_classifier.c **** /* Tensor #22 */
 365:X-CUBE-AI/App/audio_classifier.c **** AI_TENSOR_OBJ_DECLARE(
 366:X-CUBE-AI/App/audio_classifier.c ****   _fc1_fc1_0_Gemm_output_0_bias, AI_STATIC,
 367:X-CUBE-AI/App/audio_classifier.c ****   22, 0x0,
 368:X-CUBE-AI/App/audio_classifier.c ****   AI_SHAPE_INIT(4, 1, 40, 1, 1), AI_STRIDE_INIT(4, 4, 4, 160, 160),
 369:X-CUBE-AI/App/audio_classifier.c ****   1, &_fc1_fc1_0_Gemm_output_0_bias_array, NULL)
 370:X-CUBE-AI/App/audio_classifier.c **** 
 371:X-CUBE-AI/App/audio_classifier.c **** /* Tensor #23 */
 372:X-CUBE-AI/App/audio_classifier.c **** AI_TENSOR_OBJ_DECLARE(
 373:X-CUBE-AI/App/audio_classifier.c ****   _fc2_fc2_0_Gemm_output_0_weights, AI_STATIC,
ARM GAS  /var/folders/n6/c271nzx11xl4r4_m7sqjlt0m0000gn/T//ccCJ1kuw.s 			page 8


 374:X-CUBE-AI/App/audio_classifier.c ****   23, 0x0,
 375:X-CUBE-AI/App/audio_classifier.c ****   AI_SHAPE_INIT(4, 40, 32, 1, 1), AI_STRIDE_INIT(4, 4, 160, 5120, 5120),
 376:X-CUBE-AI/App/audio_classifier.c ****   1, &_fc2_fc2_0_Gemm_output_0_weights_array, NULL)
 377:X-CUBE-AI/App/audio_classifier.c **** 
 378:X-CUBE-AI/App/audio_classifier.c **** /* Tensor #24 */
 379:X-CUBE-AI/App/audio_classifier.c **** AI_TENSOR_OBJ_DECLARE(
 380:X-CUBE-AI/App/audio_classifier.c ****   _fc2_fc2_0_Gemm_output_0_bias, AI_STATIC,
 381:X-CUBE-AI/App/audio_classifier.c ****   24, 0x0,
 382:X-CUBE-AI/App/audio_classifier.c ****   AI_SHAPE_INIT(4, 1, 32, 1, 1), AI_STRIDE_INIT(4, 4, 4, 128, 128),
 383:X-CUBE-AI/App/audio_classifier.c ****   1, &_fc2_fc2_0_Gemm_output_0_bias_array, NULL)
 384:X-CUBE-AI/App/audio_classifier.c **** 
 385:X-CUBE-AI/App/audio_classifier.c **** /* Tensor #25 */
 386:X-CUBE-AI/App/audio_classifier.c **** AI_TENSOR_OBJ_DECLARE(
 387:X-CUBE-AI/App/audio_classifier.c ****   _fc3_fc3_0_Gemm_output_0_weights, AI_STATIC,
 388:X-CUBE-AI/App/audio_classifier.c ****   25, 0x0,
 389:X-CUBE-AI/App/audio_classifier.c ****   AI_SHAPE_INIT(4, 32, 8, 1, 1), AI_STRIDE_INIT(4, 4, 128, 1024, 1024),
 390:X-CUBE-AI/App/audio_classifier.c ****   1, &_fc3_fc3_0_Gemm_output_0_weights_array, NULL)
 391:X-CUBE-AI/App/audio_classifier.c **** 
 392:X-CUBE-AI/App/audio_classifier.c **** /* Tensor #26 */
 393:X-CUBE-AI/App/audio_classifier.c **** AI_TENSOR_OBJ_DECLARE(
 394:X-CUBE-AI/App/audio_classifier.c ****   _fc3_fc3_0_Gemm_output_0_bias, AI_STATIC,
 395:X-CUBE-AI/App/audio_classifier.c ****   26, 0x0,
 396:X-CUBE-AI/App/audio_classifier.c ****   AI_SHAPE_INIT(4, 1, 8, 1, 1), AI_STRIDE_INIT(4, 4, 4, 32, 32),
 397:X-CUBE-AI/App/audio_classifier.c ****   1, &_fc3_fc3_0_Gemm_output_0_bias_array, NULL)
 398:X-CUBE-AI/App/audio_classifier.c **** 
 399:X-CUBE-AI/App/audio_classifier.c **** /* Tensor #27 */
 400:X-CUBE-AI/App/audio_classifier.c **** AI_TENSOR_OBJ_DECLARE(
 401:X-CUBE-AI/App/audio_classifier.c ****   _fc4_Gemm_output_0_weights, AI_STATIC,
 402:X-CUBE-AI/App/audio_classifier.c ****   27, 0x0,
 403:X-CUBE-AI/App/audio_classifier.c ****   AI_SHAPE_INIT(4, 8, 4, 1, 1), AI_STRIDE_INIT(4, 4, 32, 128, 128),
 404:X-CUBE-AI/App/audio_classifier.c ****   1, &_fc4_Gemm_output_0_weights_array, NULL)
 405:X-CUBE-AI/App/audio_classifier.c **** 
 406:X-CUBE-AI/App/audio_classifier.c **** /* Tensor #28 */
 407:X-CUBE-AI/App/audio_classifier.c **** AI_TENSOR_OBJ_DECLARE(
 408:X-CUBE-AI/App/audio_classifier.c ****   _fc4_Gemm_output_0_bias, AI_STATIC,
 409:X-CUBE-AI/App/audio_classifier.c ****   28, 0x0,
 410:X-CUBE-AI/App/audio_classifier.c ****   AI_SHAPE_INIT(4, 1, 4, 1, 1), AI_STRIDE_INIT(4, 4, 4, 16, 16),
 411:X-CUBE-AI/App/audio_classifier.c ****   1, &_fc4_Gemm_output_0_bias_array, NULL)
 412:X-CUBE-AI/App/audio_classifier.c **** 
 413:X-CUBE-AI/App/audio_classifier.c **** /* Tensor #29 */
 414:X-CUBE-AI/App/audio_classifier.c **** AI_TENSOR_OBJ_DECLARE(
 415:X-CUBE-AI/App/audio_classifier.c ****   _conv1_conv1_0_Conv_output_0_scratch0, AI_STATIC,
 416:X-CUBE-AI/App/audio_classifier.c ****   29, 0x0,
 417:X-CUBE-AI/App/audio_classifier.c ****   AI_SHAPE_INIT(4, 1, 1, 3, 3), AI_STRIDE_INIT(4, 4, 4, 4, 12),
 418:X-CUBE-AI/App/audio_classifier.c ****   1, &_conv1_conv1_0_Conv_output_0_scratch0_array, NULL)
 419:X-CUBE-AI/App/audio_classifier.c **** 
 420:X-CUBE-AI/App/audio_classifier.c **** /* Tensor #30 */
 421:X-CUBE-AI/App/audio_classifier.c **** AI_TENSOR_OBJ_DECLARE(
 422:X-CUBE-AI/App/audio_classifier.c ****   _conv2_conv2_0_Conv_output_0_scratch0, AI_STATIC,
 423:X-CUBE-AI/App/audio_classifier.c ****   30, 0x0,
 424:X-CUBE-AI/App/audio_classifier.c ****   AI_SHAPE_INIT(4, 1, 4, 3, 3), AI_STRIDE_INIT(4, 4, 4, 16, 48),
 425:X-CUBE-AI/App/audio_classifier.c ****   1, &_conv2_conv2_0_Conv_output_0_scratch0_array, NULL)
 426:X-CUBE-AI/App/audio_classifier.c **** 
 427:X-CUBE-AI/App/audio_classifier.c **** 
 428:X-CUBE-AI/App/audio_classifier.c **** 
 429:X-CUBE-AI/App/audio_classifier.c **** /**  Layer declarations section  **********************************************/
 430:X-CUBE-AI/App/audio_classifier.c **** 
ARM GAS  /var/folders/n6/c271nzx11xl4r4_m7sqjlt0m0000gn/T//ccCJ1kuw.s 			page 9


 431:X-CUBE-AI/App/audio_classifier.c **** 
 432:X-CUBE-AI/App/audio_classifier.c **** AI_TENSOR_CHAIN_OBJ_DECLARE(
 433:X-CUBE-AI/App/audio_classifier.c ****   output_chain, AI_STATIC_CONST, 4,
 434:X-CUBE-AI/App/audio_classifier.c ****   AI_TENSOR_LIST_OBJ_INIT(AI_FLAG_NONE, 1, &_fc4_Gemm_output_0_output),
 435:X-CUBE-AI/App/audio_classifier.c ****   AI_TENSOR_LIST_OBJ_INIT(AI_FLAG_NONE, 1, &output_output),
 436:X-CUBE-AI/App/audio_classifier.c ****   AI_TENSOR_LIST_OBJ_EMPTY,
 437:X-CUBE-AI/App/audio_classifier.c ****   AI_TENSOR_LIST_OBJ_EMPTY
 438:X-CUBE-AI/App/audio_classifier.c **** )
 439:X-CUBE-AI/App/audio_classifier.c **** 
 440:X-CUBE-AI/App/audio_classifier.c **** AI_LAYER_OBJ_DECLARE(
 441:X-CUBE-AI/App/audio_classifier.c ****   output_layer, 15,
 442:X-CUBE-AI/App/audio_classifier.c ****   NL_TYPE, 0x0, NULL,
 443:X-CUBE-AI/App/audio_classifier.c ****   nl, forward_sm,
 444:X-CUBE-AI/App/audio_classifier.c ****   &output_chain,
 445:X-CUBE-AI/App/audio_classifier.c ****   NULL, &output_layer, AI_STATIC, 
 446:X-CUBE-AI/App/audio_classifier.c ****   .nl_params = NULL, 
 447:X-CUBE-AI/App/audio_classifier.c **** )
 448:X-CUBE-AI/App/audio_classifier.c **** 
 449:X-CUBE-AI/App/audio_classifier.c **** AI_TENSOR_CHAIN_OBJ_DECLARE(
 450:X-CUBE-AI/App/audio_classifier.c ****   _fc4_Gemm_output_0_chain, AI_STATIC_CONST, 4,
 451:X-CUBE-AI/App/audio_classifier.c ****   AI_TENSOR_LIST_OBJ_INIT(AI_FLAG_NONE, 1, &_fc3_fc3_1_Relu_output_0_output),
 452:X-CUBE-AI/App/audio_classifier.c ****   AI_TENSOR_LIST_OBJ_INIT(AI_FLAG_NONE, 1, &_fc4_Gemm_output_0_output),
 453:X-CUBE-AI/App/audio_classifier.c ****   AI_TENSOR_LIST_OBJ_INIT(AI_FLAG_NONE, 2, &_fc4_Gemm_output_0_weights, &_fc4_Gemm_output_0_bias),
 454:X-CUBE-AI/App/audio_classifier.c ****   AI_TENSOR_LIST_OBJ_EMPTY
 455:X-CUBE-AI/App/audio_classifier.c **** )
 456:X-CUBE-AI/App/audio_classifier.c **** 
 457:X-CUBE-AI/App/audio_classifier.c **** AI_LAYER_OBJ_DECLARE(
 458:X-CUBE-AI/App/audio_classifier.c ****   _fc4_Gemm_output_0_layer, 14,
 459:X-CUBE-AI/App/audio_classifier.c ****   DENSE_TYPE, 0x0, NULL,
 460:X-CUBE-AI/App/audio_classifier.c ****   dense, forward_dense,
 461:X-CUBE-AI/App/audio_classifier.c ****   &_fc4_Gemm_output_0_chain,
 462:X-CUBE-AI/App/audio_classifier.c ****   NULL, &output_layer, AI_STATIC, 
 463:X-CUBE-AI/App/audio_classifier.c **** )
 464:X-CUBE-AI/App/audio_classifier.c **** 
 465:X-CUBE-AI/App/audio_classifier.c **** AI_TENSOR_CHAIN_OBJ_DECLARE(
 466:X-CUBE-AI/App/audio_classifier.c ****   _fc3_fc3_1_Relu_output_0_chain, AI_STATIC_CONST, 4,
 467:X-CUBE-AI/App/audio_classifier.c ****   AI_TENSOR_LIST_OBJ_INIT(AI_FLAG_NONE, 1, &_fc3_fc3_0_Gemm_output_0_output),
 468:X-CUBE-AI/App/audio_classifier.c ****   AI_TENSOR_LIST_OBJ_INIT(AI_FLAG_NONE, 1, &_fc3_fc3_1_Relu_output_0_output),
 469:X-CUBE-AI/App/audio_classifier.c ****   AI_TENSOR_LIST_OBJ_EMPTY,
 470:X-CUBE-AI/App/audio_classifier.c ****   AI_TENSOR_LIST_OBJ_EMPTY
 471:X-CUBE-AI/App/audio_classifier.c **** )
 472:X-CUBE-AI/App/audio_classifier.c **** 
 473:X-CUBE-AI/App/audio_classifier.c **** AI_LAYER_OBJ_DECLARE(
 474:X-CUBE-AI/App/audio_classifier.c ****   _fc3_fc3_1_Relu_output_0_layer, 13,
 475:X-CUBE-AI/App/audio_classifier.c ****   NL_TYPE, 0x0, NULL,
 476:X-CUBE-AI/App/audio_classifier.c ****   nl, forward_relu,
 477:X-CUBE-AI/App/audio_classifier.c ****   &_fc3_fc3_1_Relu_output_0_chain,
 478:X-CUBE-AI/App/audio_classifier.c ****   NULL, &_fc4_Gemm_output_0_layer, AI_STATIC, 
 479:X-CUBE-AI/App/audio_classifier.c ****   .nl_params = NULL, 
 480:X-CUBE-AI/App/audio_classifier.c **** )
 481:X-CUBE-AI/App/audio_classifier.c **** 
 482:X-CUBE-AI/App/audio_classifier.c **** AI_TENSOR_CHAIN_OBJ_DECLARE(
 483:X-CUBE-AI/App/audio_classifier.c ****   _fc3_fc3_0_Gemm_output_0_chain, AI_STATIC_CONST, 4,
 484:X-CUBE-AI/App/audio_classifier.c ****   AI_TENSOR_LIST_OBJ_INIT(AI_FLAG_NONE, 1, &_fc2_fc2_1_Relu_output_0_output),
 485:X-CUBE-AI/App/audio_classifier.c ****   AI_TENSOR_LIST_OBJ_INIT(AI_FLAG_NONE, 1, &_fc3_fc3_0_Gemm_output_0_output),
 486:X-CUBE-AI/App/audio_classifier.c ****   AI_TENSOR_LIST_OBJ_INIT(AI_FLAG_NONE, 2, &_fc3_fc3_0_Gemm_output_0_weights, &_fc3_fc3_0_Gemm_outp
 487:X-CUBE-AI/App/audio_classifier.c ****   AI_TENSOR_LIST_OBJ_EMPTY
ARM GAS  /var/folders/n6/c271nzx11xl4r4_m7sqjlt0m0000gn/T//ccCJ1kuw.s 			page 10


 488:X-CUBE-AI/App/audio_classifier.c **** )
 489:X-CUBE-AI/App/audio_classifier.c **** 
 490:X-CUBE-AI/App/audio_classifier.c **** AI_LAYER_OBJ_DECLARE(
 491:X-CUBE-AI/App/audio_classifier.c ****   _fc3_fc3_0_Gemm_output_0_layer, 12,
 492:X-CUBE-AI/App/audio_classifier.c ****   DENSE_TYPE, 0x0, NULL,
 493:X-CUBE-AI/App/audio_classifier.c ****   dense, forward_dense,
 494:X-CUBE-AI/App/audio_classifier.c ****   &_fc3_fc3_0_Gemm_output_0_chain,
 495:X-CUBE-AI/App/audio_classifier.c ****   NULL, &_fc3_fc3_1_Relu_output_0_layer, AI_STATIC, 
 496:X-CUBE-AI/App/audio_classifier.c **** )
 497:X-CUBE-AI/App/audio_classifier.c **** 
 498:X-CUBE-AI/App/audio_classifier.c **** AI_TENSOR_CHAIN_OBJ_DECLARE(
 499:X-CUBE-AI/App/audio_classifier.c ****   _fc2_fc2_1_Relu_output_0_chain, AI_STATIC_CONST, 4,
 500:X-CUBE-AI/App/audio_classifier.c ****   AI_TENSOR_LIST_OBJ_INIT(AI_FLAG_NONE, 1, &_fc2_fc2_0_Gemm_output_0_output),
 501:X-CUBE-AI/App/audio_classifier.c ****   AI_TENSOR_LIST_OBJ_INIT(AI_FLAG_NONE, 1, &_fc2_fc2_1_Relu_output_0_output),
 502:X-CUBE-AI/App/audio_classifier.c ****   AI_TENSOR_LIST_OBJ_EMPTY,
 503:X-CUBE-AI/App/audio_classifier.c ****   AI_TENSOR_LIST_OBJ_EMPTY
 504:X-CUBE-AI/App/audio_classifier.c **** )
 505:X-CUBE-AI/App/audio_classifier.c **** 
 506:X-CUBE-AI/App/audio_classifier.c **** AI_LAYER_OBJ_DECLARE(
 507:X-CUBE-AI/App/audio_classifier.c ****   _fc2_fc2_1_Relu_output_0_layer, 11,
 508:X-CUBE-AI/App/audio_classifier.c ****   NL_TYPE, 0x0, NULL,
 509:X-CUBE-AI/App/audio_classifier.c ****   nl, forward_relu,
 510:X-CUBE-AI/App/audio_classifier.c ****   &_fc2_fc2_1_Relu_output_0_chain,
 511:X-CUBE-AI/App/audio_classifier.c ****   NULL, &_fc3_fc3_0_Gemm_output_0_layer, AI_STATIC, 
 512:X-CUBE-AI/App/audio_classifier.c ****   .nl_params = NULL, 
 513:X-CUBE-AI/App/audio_classifier.c **** )
 514:X-CUBE-AI/App/audio_classifier.c **** 
 515:X-CUBE-AI/App/audio_classifier.c **** AI_TENSOR_CHAIN_OBJ_DECLARE(
 516:X-CUBE-AI/App/audio_classifier.c ****   _fc2_fc2_0_Gemm_output_0_chain, AI_STATIC_CONST, 4,
 517:X-CUBE-AI/App/audio_classifier.c ****   AI_TENSOR_LIST_OBJ_INIT(AI_FLAG_NONE, 1, &_fc1_fc1_1_Relu_output_0_output),
 518:X-CUBE-AI/App/audio_classifier.c ****   AI_TENSOR_LIST_OBJ_INIT(AI_FLAG_NONE, 1, &_fc2_fc2_0_Gemm_output_0_output),
 519:X-CUBE-AI/App/audio_classifier.c ****   AI_TENSOR_LIST_OBJ_INIT(AI_FLAG_NONE, 2, &_fc2_fc2_0_Gemm_output_0_weights, &_fc2_fc2_0_Gemm_outp
 520:X-CUBE-AI/App/audio_classifier.c ****   AI_TENSOR_LIST_OBJ_EMPTY
 521:X-CUBE-AI/App/audio_classifier.c **** )
 522:X-CUBE-AI/App/audio_classifier.c **** 
 523:X-CUBE-AI/App/audio_classifier.c **** AI_LAYER_OBJ_DECLARE(
 524:X-CUBE-AI/App/audio_classifier.c ****   _fc2_fc2_0_Gemm_output_0_layer, 10,
 525:X-CUBE-AI/App/audio_classifier.c ****   DENSE_TYPE, 0x0, NULL,
 526:X-CUBE-AI/App/audio_classifier.c ****   dense, forward_dense,
 527:X-CUBE-AI/App/audio_classifier.c ****   &_fc2_fc2_0_Gemm_output_0_chain,
 528:X-CUBE-AI/App/audio_classifier.c ****   NULL, &_fc2_fc2_1_Relu_output_0_layer, AI_STATIC, 
 529:X-CUBE-AI/App/audio_classifier.c **** )
 530:X-CUBE-AI/App/audio_classifier.c **** 
 531:X-CUBE-AI/App/audio_classifier.c **** AI_TENSOR_CHAIN_OBJ_DECLARE(
 532:X-CUBE-AI/App/audio_classifier.c ****   _fc1_fc1_1_Relu_output_0_chain, AI_STATIC_CONST, 4,
 533:X-CUBE-AI/App/audio_classifier.c ****   AI_TENSOR_LIST_OBJ_INIT(AI_FLAG_NONE, 1, &_fc1_fc1_0_Gemm_output_0_output),
 534:X-CUBE-AI/App/audio_classifier.c ****   AI_TENSOR_LIST_OBJ_INIT(AI_FLAG_NONE, 1, &_fc1_fc1_1_Relu_output_0_output),
 535:X-CUBE-AI/App/audio_classifier.c ****   AI_TENSOR_LIST_OBJ_EMPTY,
 536:X-CUBE-AI/App/audio_classifier.c ****   AI_TENSOR_LIST_OBJ_EMPTY
 537:X-CUBE-AI/App/audio_classifier.c **** )
 538:X-CUBE-AI/App/audio_classifier.c **** 
 539:X-CUBE-AI/App/audio_classifier.c **** AI_LAYER_OBJ_DECLARE(
 540:X-CUBE-AI/App/audio_classifier.c ****   _fc1_fc1_1_Relu_output_0_layer, 9,
 541:X-CUBE-AI/App/audio_classifier.c ****   NL_TYPE, 0x0, NULL,
 542:X-CUBE-AI/App/audio_classifier.c ****   nl, forward_relu,
 543:X-CUBE-AI/App/audio_classifier.c ****   &_fc1_fc1_1_Relu_output_0_chain,
 544:X-CUBE-AI/App/audio_classifier.c ****   NULL, &_fc2_fc2_0_Gemm_output_0_layer, AI_STATIC, 
ARM GAS  /var/folders/n6/c271nzx11xl4r4_m7sqjlt0m0000gn/T//ccCJ1kuw.s 			page 11


 545:X-CUBE-AI/App/audio_classifier.c ****   .nl_params = NULL, 
 546:X-CUBE-AI/App/audio_classifier.c **** )
 547:X-CUBE-AI/App/audio_classifier.c **** 
 548:X-CUBE-AI/App/audio_classifier.c **** AI_TENSOR_CHAIN_OBJ_DECLARE(
 549:X-CUBE-AI/App/audio_classifier.c ****   _fc1_fc1_0_Gemm_output_0_chain, AI_STATIC_CONST, 4,
 550:X-CUBE-AI/App/audio_classifier.c ****   AI_TENSOR_LIST_OBJ_INIT(AI_FLAG_NONE, 1, &_flatten_Flatten_output_0_to_chlast_output0),
 551:X-CUBE-AI/App/audio_classifier.c ****   AI_TENSOR_LIST_OBJ_INIT(AI_FLAG_NONE, 1, &_fc1_fc1_0_Gemm_output_0_output),
 552:X-CUBE-AI/App/audio_classifier.c ****   AI_TENSOR_LIST_OBJ_INIT(AI_FLAG_NONE, 2, &_fc1_fc1_0_Gemm_output_0_weights, &_fc1_fc1_0_Gemm_outp
 553:X-CUBE-AI/App/audio_classifier.c ****   AI_TENSOR_LIST_OBJ_EMPTY
 554:X-CUBE-AI/App/audio_classifier.c **** )
 555:X-CUBE-AI/App/audio_classifier.c **** 
 556:X-CUBE-AI/App/audio_classifier.c **** AI_LAYER_OBJ_DECLARE(
 557:X-CUBE-AI/App/audio_classifier.c ****   _fc1_fc1_0_Gemm_output_0_layer, 8,
 558:X-CUBE-AI/App/audio_classifier.c ****   DENSE_TYPE, 0x0, NULL,
 559:X-CUBE-AI/App/audio_classifier.c ****   dense, forward_dense,
 560:X-CUBE-AI/App/audio_classifier.c ****   &_fc1_fc1_0_Gemm_output_0_chain,
 561:X-CUBE-AI/App/audio_classifier.c ****   NULL, &_fc1_fc1_1_Relu_output_0_layer, AI_STATIC, 
 562:X-CUBE-AI/App/audio_classifier.c **** )
 563:X-CUBE-AI/App/audio_classifier.c **** 
 564:X-CUBE-AI/App/audio_classifier.c **** AI_TENSOR_CHAIN_OBJ_DECLARE(
 565:X-CUBE-AI/App/audio_classifier.c ****   _flatten_Flatten_output_0_to_chlast_chain, AI_STATIC_CONST, 4,
 566:X-CUBE-AI/App/audio_classifier.c ****   AI_TENSOR_LIST_OBJ_INIT(AI_FLAG_NONE, 1, &_conv2_conv2_2_MaxPool_output_0_output),
 567:X-CUBE-AI/App/audio_classifier.c ****   AI_TENSOR_LIST_OBJ_INIT(AI_FLAG_NONE, 1, &_flatten_Flatten_output_0_to_chlast_output),
 568:X-CUBE-AI/App/audio_classifier.c ****   AI_TENSOR_LIST_OBJ_EMPTY,
 569:X-CUBE-AI/App/audio_classifier.c ****   AI_TENSOR_LIST_OBJ_EMPTY
 570:X-CUBE-AI/App/audio_classifier.c **** )
 571:X-CUBE-AI/App/audio_classifier.c **** 
 572:X-CUBE-AI/App/audio_classifier.c **** AI_LAYER_OBJ_DECLARE(
 573:X-CUBE-AI/App/audio_classifier.c ****   _flatten_Flatten_output_0_to_chlast_layer, 7,
 574:X-CUBE-AI/App/audio_classifier.c ****   TRANSPOSE_TYPE, 0x0, NULL,
 575:X-CUBE-AI/App/audio_classifier.c ****   transpose, forward_transpose,
 576:X-CUBE-AI/App/audio_classifier.c ****   &_flatten_Flatten_output_0_to_chlast_chain,
 577:X-CUBE-AI/App/audio_classifier.c ****   NULL, &_fc1_fc1_0_Gemm_output_0_layer, AI_STATIC, 
 578:X-CUBE-AI/App/audio_classifier.c ****   .out_mapping = AI_SHAPE_INIT(6, AI_SHAPE_IN_CHANNEL, AI_SHAPE_WIDTH, AI_SHAPE_HEIGHT, AI_SHAPE_CH
 579:X-CUBE-AI/App/audio_classifier.c **** )
 580:X-CUBE-AI/App/audio_classifier.c **** 
 581:X-CUBE-AI/App/audio_classifier.c **** AI_TENSOR_CHAIN_OBJ_DECLARE(
 582:X-CUBE-AI/App/audio_classifier.c ****   _conv2_conv2_2_MaxPool_output_0_chain, AI_STATIC_CONST, 4,
 583:X-CUBE-AI/App/audio_classifier.c ****   AI_TENSOR_LIST_OBJ_INIT(AI_FLAG_NONE, 1, &_conv2_conv2_1_Relu_output_0_output),
 584:X-CUBE-AI/App/audio_classifier.c ****   AI_TENSOR_LIST_OBJ_INIT(AI_FLAG_NONE, 1, &_conv2_conv2_2_MaxPool_output_0_output),
 585:X-CUBE-AI/App/audio_classifier.c ****   AI_TENSOR_LIST_OBJ_EMPTY,
 586:X-CUBE-AI/App/audio_classifier.c ****   AI_TENSOR_LIST_OBJ_EMPTY
 587:X-CUBE-AI/App/audio_classifier.c **** )
 588:X-CUBE-AI/App/audio_classifier.c **** 
 589:X-CUBE-AI/App/audio_classifier.c **** AI_LAYER_OBJ_DECLARE(
 590:X-CUBE-AI/App/audio_classifier.c ****   _conv2_conv2_2_MaxPool_output_0_layer, 6,
 591:X-CUBE-AI/App/audio_classifier.c ****   POOL_TYPE, 0x0, NULL,
 592:X-CUBE-AI/App/audio_classifier.c ****   pool, forward_mp,
 593:X-CUBE-AI/App/audio_classifier.c ****   &_conv2_conv2_2_MaxPool_output_0_chain,
 594:X-CUBE-AI/App/audio_classifier.c ****   NULL, &_flatten_Flatten_output_0_to_chlast_layer, AI_STATIC, 
 595:X-CUBE-AI/App/audio_classifier.c ****   .pool_size = AI_SHAPE_2D_INIT(2, 2), 
 596:X-CUBE-AI/App/audio_classifier.c ****   .pool_stride = AI_SHAPE_2D_INIT(2, 2), 
 597:X-CUBE-AI/App/audio_classifier.c ****   .pool_pad = AI_SHAPE_INIT(4, 0, 0, 0, 0), 
 598:X-CUBE-AI/App/audio_classifier.c **** )
 599:X-CUBE-AI/App/audio_classifier.c **** 
 600:X-CUBE-AI/App/audio_classifier.c **** AI_TENSOR_CHAIN_OBJ_DECLARE(
 601:X-CUBE-AI/App/audio_classifier.c ****   _conv2_conv2_1_Relu_output_0_chain, AI_STATIC_CONST, 4,
ARM GAS  /var/folders/n6/c271nzx11xl4r4_m7sqjlt0m0000gn/T//ccCJ1kuw.s 			page 12


 602:X-CUBE-AI/App/audio_classifier.c ****   AI_TENSOR_LIST_OBJ_INIT(AI_FLAG_NONE, 1, &_conv2_conv2_0_Conv_output_0_output),
 603:X-CUBE-AI/App/audio_classifier.c ****   AI_TENSOR_LIST_OBJ_INIT(AI_FLAG_NONE, 1, &_conv2_conv2_1_Relu_output_0_output),
 604:X-CUBE-AI/App/audio_classifier.c ****   AI_TENSOR_LIST_OBJ_EMPTY,
 605:X-CUBE-AI/App/audio_classifier.c ****   AI_TENSOR_LIST_OBJ_EMPTY
 606:X-CUBE-AI/App/audio_classifier.c **** )
 607:X-CUBE-AI/App/audio_classifier.c **** 
 608:X-CUBE-AI/App/audio_classifier.c **** AI_LAYER_OBJ_DECLARE(
 609:X-CUBE-AI/App/audio_classifier.c ****   _conv2_conv2_1_Relu_output_0_layer, 5,
 610:X-CUBE-AI/App/audio_classifier.c ****   NL_TYPE, 0x0, NULL,
 611:X-CUBE-AI/App/audio_classifier.c ****   nl, forward_relu,
 612:X-CUBE-AI/App/audio_classifier.c ****   &_conv2_conv2_1_Relu_output_0_chain,
 613:X-CUBE-AI/App/audio_classifier.c ****   NULL, &_conv2_conv2_2_MaxPool_output_0_layer, AI_STATIC, 
 614:X-CUBE-AI/App/audio_classifier.c ****   .nl_params = NULL, 
 615:X-CUBE-AI/App/audio_classifier.c **** )
 616:X-CUBE-AI/App/audio_classifier.c **** 
 617:X-CUBE-AI/App/audio_classifier.c **** AI_TENSOR_CHAIN_OBJ_DECLARE(
 618:X-CUBE-AI/App/audio_classifier.c ****   _conv2_conv2_0_Conv_output_0_chain, AI_STATIC_CONST, 4,
 619:X-CUBE-AI/App/audio_classifier.c ****   AI_TENSOR_LIST_OBJ_INIT(AI_FLAG_NONE, 1, &_conv1_conv1_2_MaxPool_output_0_output),
 620:X-CUBE-AI/App/audio_classifier.c ****   AI_TENSOR_LIST_OBJ_INIT(AI_FLAG_NONE, 1, &_conv2_conv2_0_Conv_output_0_output),
 621:X-CUBE-AI/App/audio_classifier.c ****   AI_TENSOR_LIST_OBJ_INIT(AI_FLAG_NONE, 3, &_conv2_conv2_0_Conv_output_0_weights, &_conv2_conv2_0_C
 622:X-CUBE-AI/App/audio_classifier.c ****   AI_TENSOR_LIST_OBJ_INIT(AI_FLAG_NONE, 2, &_conv2_conv2_0_Conv_output_0_scratch0, NULL)
 623:X-CUBE-AI/App/audio_classifier.c **** )
 624:X-CUBE-AI/App/audio_classifier.c **** 
 625:X-CUBE-AI/App/audio_classifier.c **** AI_LAYER_OBJ_DECLARE(
 626:X-CUBE-AI/App/audio_classifier.c ****   _conv2_conv2_0_Conv_output_0_layer, 4,
 627:X-CUBE-AI/App/audio_classifier.c ****   CONV2D_TYPE, 0x0, NULL,
 628:X-CUBE-AI/App/audio_classifier.c ****   conv2d, forward_conv2d_if32of32wf32,
 629:X-CUBE-AI/App/audio_classifier.c ****   &_conv2_conv2_0_Conv_output_0_chain,
 630:X-CUBE-AI/App/audio_classifier.c ****   NULL, &_conv2_conv2_1_Relu_output_0_layer, AI_STATIC, 
 631:X-CUBE-AI/App/audio_classifier.c ****   .groups = 1, 
 632:X-CUBE-AI/App/audio_classifier.c ****   .filter_stride = AI_SHAPE_2D_INIT(1, 1), 
 633:X-CUBE-AI/App/audio_classifier.c ****   .dilation = AI_SHAPE_2D_INIT(1, 1), 
 634:X-CUBE-AI/App/audio_classifier.c ****   .filter_pad = AI_SHAPE_INIT(4, 1, 1, 1, 1), 
 635:X-CUBE-AI/App/audio_classifier.c ****   .in_ch_format = AI_LAYER_FORMAT_CHANNEL_LAST_SAME, 
 636:X-CUBE-AI/App/audio_classifier.c ****   .out_ch_format = AI_LAYER_FORMAT_CHANNEL_LAST_VALID, 
 637:X-CUBE-AI/App/audio_classifier.c **** )
 638:X-CUBE-AI/App/audio_classifier.c **** 
 639:X-CUBE-AI/App/audio_classifier.c **** AI_TENSOR_CHAIN_OBJ_DECLARE(
 640:X-CUBE-AI/App/audio_classifier.c ****   _conv1_conv1_2_MaxPool_output_0_chain, AI_STATIC_CONST, 4,
 641:X-CUBE-AI/App/audio_classifier.c ****   AI_TENSOR_LIST_OBJ_INIT(AI_FLAG_NONE, 1, &_conv1_conv1_1_Relu_output_0_output),
 642:X-CUBE-AI/App/audio_classifier.c ****   AI_TENSOR_LIST_OBJ_INIT(AI_FLAG_NONE, 1, &_conv1_conv1_2_MaxPool_output_0_output),
 643:X-CUBE-AI/App/audio_classifier.c ****   AI_TENSOR_LIST_OBJ_EMPTY,
 644:X-CUBE-AI/App/audio_classifier.c ****   AI_TENSOR_LIST_OBJ_EMPTY
 645:X-CUBE-AI/App/audio_classifier.c **** )
 646:X-CUBE-AI/App/audio_classifier.c **** 
 647:X-CUBE-AI/App/audio_classifier.c **** AI_LAYER_OBJ_DECLARE(
 648:X-CUBE-AI/App/audio_classifier.c ****   _conv1_conv1_2_MaxPool_output_0_layer, 3,
 649:X-CUBE-AI/App/audio_classifier.c ****   POOL_TYPE, 0x0, NULL,
 650:X-CUBE-AI/App/audio_classifier.c ****   pool, forward_mp,
 651:X-CUBE-AI/App/audio_classifier.c ****   &_conv1_conv1_2_MaxPool_output_0_chain,
 652:X-CUBE-AI/App/audio_classifier.c ****   NULL, &_conv2_conv2_0_Conv_output_0_layer, AI_STATIC, 
 653:X-CUBE-AI/App/audio_classifier.c ****   .pool_size = AI_SHAPE_2D_INIT(2, 2), 
 654:X-CUBE-AI/App/audio_classifier.c ****   .pool_stride = AI_SHAPE_2D_INIT(2, 2), 
 655:X-CUBE-AI/App/audio_classifier.c ****   .pool_pad = AI_SHAPE_INIT(4, 0, 0, 0, 0), 
 656:X-CUBE-AI/App/audio_classifier.c **** )
 657:X-CUBE-AI/App/audio_classifier.c **** 
 658:X-CUBE-AI/App/audio_classifier.c **** AI_TENSOR_CHAIN_OBJ_DECLARE(
ARM GAS  /var/folders/n6/c271nzx11xl4r4_m7sqjlt0m0000gn/T//ccCJ1kuw.s 			page 13


 659:X-CUBE-AI/App/audio_classifier.c ****   _conv1_conv1_1_Relu_output_0_chain, AI_STATIC_CONST, 4,
 660:X-CUBE-AI/App/audio_classifier.c ****   AI_TENSOR_LIST_OBJ_INIT(AI_FLAG_NONE, 1, &_conv1_conv1_0_Conv_output_0_output),
 661:X-CUBE-AI/App/audio_classifier.c ****   AI_TENSOR_LIST_OBJ_INIT(AI_FLAG_NONE, 1, &_conv1_conv1_1_Relu_output_0_output),
 662:X-CUBE-AI/App/audio_classifier.c ****   AI_TENSOR_LIST_OBJ_EMPTY,
 663:X-CUBE-AI/App/audio_classifier.c ****   AI_TENSOR_LIST_OBJ_EMPTY
 664:X-CUBE-AI/App/audio_classifier.c **** )
 665:X-CUBE-AI/App/audio_classifier.c **** 
 666:X-CUBE-AI/App/audio_classifier.c **** AI_LAYER_OBJ_DECLARE(
 667:X-CUBE-AI/App/audio_classifier.c ****   _conv1_conv1_1_Relu_output_0_layer, 2,
 668:X-CUBE-AI/App/audio_classifier.c ****   NL_TYPE, 0x0, NULL,
 669:X-CUBE-AI/App/audio_classifier.c ****   nl, forward_relu,
 670:X-CUBE-AI/App/audio_classifier.c ****   &_conv1_conv1_1_Relu_output_0_chain,
 671:X-CUBE-AI/App/audio_classifier.c ****   NULL, &_conv1_conv1_2_MaxPool_output_0_layer, AI_STATIC, 
 672:X-CUBE-AI/App/audio_classifier.c ****   .nl_params = NULL, 
 673:X-CUBE-AI/App/audio_classifier.c **** )
 674:X-CUBE-AI/App/audio_classifier.c **** 
 675:X-CUBE-AI/App/audio_classifier.c **** AI_TENSOR_CHAIN_OBJ_DECLARE(
 676:X-CUBE-AI/App/audio_classifier.c ****   _conv1_conv1_0_Conv_output_0_chain, AI_STATIC_CONST, 4,
 677:X-CUBE-AI/App/audio_classifier.c ****   AI_TENSOR_LIST_OBJ_INIT(AI_FLAG_NONE, 1, &input_output),
 678:X-CUBE-AI/App/audio_classifier.c ****   AI_TENSOR_LIST_OBJ_INIT(AI_FLAG_NONE, 1, &_conv1_conv1_0_Conv_output_0_output),
 679:X-CUBE-AI/App/audio_classifier.c ****   AI_TENSOR_LIST_OBJ_INIT(AI_FLAG_NONE, 3, &_conv1_conv1_0_Conv_output_0_weights, &_conv1_conv1_0_C
 680:X-CUBE-AI/App/audio_classifier.c ****   AI_TENSOR_LIST_OBJ_INIT(AI_FLAG_NONE, 2, &_conv1_conv1_0_Conv_output_0_scratch0, NULL)
 681:X-CUBE-AI/App/audio_classifier.c **** )
 682:X-CUBE-AI/App/audio_classifier.c **** 
 683:X-CUBE-AI/App/audio_classifier.c **** AI_LAYER_OBJ_DECLARE(
 684:X-CUBE-AI/App/audio_classifier.c ****   _conv1_conv1_0_Conv_output_0_layer, 1,
 685:X-CUBE-AI/App/audio_classifier.c ****   CONV2D_TYPE, 0x0, NULL,
 686:X-CUBE-AI/App/audio_classifier.c ****   conv2d, forward_conv2d_if32of32wf32,
 687:X-CUBE-AI/App/audio_classifier.c ****   &_conv1_conv1_0_Conv_output_0_chain,
 688:X-CUBE-AI/App/audio_classifier.c ****   NULL, &_conv1_conv1_1_Relu_output_0_layer, AI_STATIC, 
 689:X-CUBE-AI/App/audio_classifier.c ****   .groups = 1, 
 690:X-CUBE-AI/App/audio_classifier.c ****   .filter_stride = AI_SHAPE_2D_INIT(1, 1), 
 691:X-CUBE-AI/App/audio_classifier.c ****   .dilation = AI_SHAPE_2D_INIT(1, 1), 
 692:X-CUBE-AI/App/audio_classifier.c ****   .filter_pad = AI_SHAPE_INIT(4, 1, 1, 1, 1), 
 693:X-CUBE-AI/App/audio_classifier.c ****   .in_ch_format = AI_LAYER_FORMAT_CHANNEL_LAST_SAME, 
 694:X-CUBE-AI/App/audio_classifier.c ****   .out_ch_format = AI_LAYER_FORMAT_CHANNEL_LAST_VALID, 
 695:X-CUBE-AI/App/audio_classifier.c **** )
 696:X-CUBE-AI/App/audio_classifier.c **** 
 697:X-CUBE-AI/App/audio_classifier.c **** 
 698:X-CUBE-AI/App/audio_classifier.c **** #if (AI_TOOLS_API_VERSION < AI_TOOLS_API_VERSION_1_5)
 699:X-CUBE-AI/App/audio_classifier.c **** 
 700:X-CUBE-AI/App/audio_classifier.c **** AI_NETWORK_OBJ_DECLARE(
 701:X-CUBE-AI/App/audio_classifier.c ****   AI_NET_OBJ_INSTANCE, AI_STATIC,
 702:X-CUBE-AI/App/audio_classifier.c ****   AI_BUFFER_INIT(AI_FLAG_NONE,  AI_BUFFER_FORMAT_U8,
 703:X-CUBE-AI/App/audio_classifier.c ****     AI_BUFFER_SHAPE_INIT(AI_SHAPE_BCWH, 4, 1, 152496, 1, 1),
 704:X-CUBE-AI/App/audio_classifier.c ****     152496, NULL, NULL),
 705:X-CUBE-AI/App/audio_classifier.c ****   AI_BUFFER_INIT(AI_FLAG_NONE,  AI_BUFFER_FORMAT_U8,
 706:X-CUBE-AI/App/audio_classifier.c ****     AI_BUFFER_SHAPE_INIT(AI_SHAPE_BCWH, 4, 1, 19344, 1, 1),
 707:X-CUBE-AI/App/audio_classifier.c ****     19344, NULL, NULL),
 708:X-CUBE-AI/App/audio_classifier.c ****   AI_TENSOR_LIST_IO_OBJ_INIT(AI_FLAG_NONE, AI_AUDIO_CLASSIFIER_IN_NUM, &input_output),
 709:X-CUBE-AI/App/audio_classifier.c ****   AI_TENSOR_LIST_IO_OBJ_INIT(AI_FLAG_NONE, AI_AUDIO_CLASSIFIER_OUT_NUM, &output_output),
 710:X-CUBE-AI/App/audio_classifier.c ****   &_conv1_conv1_0_Conv_output_0_layer, 0x8817c493, NULL)
 711:X-CUBE-AI/App/audio_classifier.c **** 
 712:X-CUBE-AI/App/audio_classifier.c **** #else
 713:X-CUBE-AI/App/audio_classifier.c **** 
 714:X-CUBE-AI/App/audio_classifier.c **** AI_NETWORK_OBJ_DECLARE(
 715:X-CUBE-AI/App/audio_classifier.c ****   AI_NET_OBJ_INSTANCE, AI_STATIC,
ARM GAS  /var/folders/n6/c271nzx11xl4r4_m7sqjlt0m0000gn/T//ccCJ1kuw.s 			page 14


 716:X-CUBE-AI/App/audio_classifier.c ****   AI_BUFFER_ARRAY_OBJ_INIT_STATIC(
 717:X-CUBE-AI/App/audio_classifier.c ****   	AI_FLAG_NONE, 1,
 718:X-CUBE-AI/App/audio_classifier.c ****     AI_BUFFER_INIT(AI_FLAG_NONE,  AI_BUFFER_FORMAT_U8,
 719:X-CUBE-AI/App/audio_classifier.c ****       AI_BUFFER_SHAPE_INIT(AI_SHAPE_BCWH, 4, 1, 152496, 1, 1),
 720:X-CUBE-AI/App/audio_classifier.c ****       152496, NULL, NULL)
 721:X-CUBE-AI/App/audio_classifier.c ****   ),
 722:X-CUBE-AI/App/audio_classifier.c ****   AI_BUFFER_ARRAY_OBJ_INIT_STATIC(
 723:X-CUBE-AI/App/audio_classifier.c ****   	AI_FLAG_NONE, 1,
 724:X-CUBE-AI/App/audio_classifier.c ****     AI_BUFFER_INIT(AI_FLAG_NONE,  AI_BUFFER_FORMAT_U8,
 725:X-CUBE-AI/App/audio_classifier.c ****       AI_BUFFER_SHAPE_INIT(AI_SHAPE_BCWH, 4, 1, 19344, 1, 1),
 726:X-CUBE-AI/App/audio_classifier.c ****       19344, NULL, NULL)
 727:X-CUBE-AI/App/audio_classifier.c ****   ),
 728:X-CUBE-AI/App/audio_classifier.c ****   AI_TENSOR_LIST_IO_OBJ_INIT(AI_FLAG_NONE, AI_AUDIO_CLASSIFIER_IN_NUM, &input_output),
 729:X-CUBE-AI/App/audio_classifier.c ****   AI_TENSOR_LIST_IO_OBJ_INIT(AI_FLAG_NONE, AI_AUDIO_CLASSIFIER_OUT_NUM, &output_output),
 730:X-CUBE-AI/App/audio_classifier.c ****   &_conv1_conv1_0_Conv_output_0_layer, 0x8817c493, NULL)
 731:X-CUBE-AI/App/audio_classifier.c **** 
 732:X-CUBE-AI/App/audio_classifier.c **** #endif	/*(AI_TOOLS_API_VERSION < AI_TOOLS_API_VERSION_1_5)*/
 733:X-CUBE-AI/App/audio_classifier.c **** 
 734:X-CUBE-AI/App/audio_classifier.c **** 
 735:X-CUBE-AI/App/audio_classifier.c **** 
 736:X-CUBE-AI/App/audio_classifier.c **** /******************************************************************************/
 737:X-CUBE-AI/App/audio_classifier.c **** AI_DECLARE_STATIC
 738:X-CUBE-AI/App/audio_classifier.c **** ai_bool audio_classifier_configure_activations(
 739:X-CUBE-AI/App/audio_classifier.c ****   ai_network* net_ctx, const ai_network_params* params)
 740:X-CUBE-AI/App/audio_classifier.c **** {
 741:X-CUBE-AI/App/audio_classifier.c ****   AI_ASSERT(net_ctx)
 742:X-CUBE-AI/App/audio_classifier.c **** 
 743:X-CUBE-AI/App/audio_classifier.c ****   if (ai_platform_get_activations_map(g_audio_classifier_activations_map, 1, params)) {
 744:X-CUBE-AI/App/audio_classifier.c ****     /* Updating activations (byte) offsets */
 745:X-CUBE-AI/App/audio_classifier.c ****     
 746:X-CUBE-AI/App/audio_classifier.c ****     input_output_array.data = AI_PTR(g_audio_classifier_activations_map[0] + 0);
 747:X-CUBE-AI/App/audio_classifier.c ****     input_output_array.data_start = AI_PTR(g_audio_classifier_activations_map[0] + 0);
 748:X-CUBE-AI/App/audio_classifier.c ****     _conv1_conv1_0_Conv_output_0_scratch0_array.data = AI_PTR(g_audio_classifier_activations_map[0]
 749:X-CUBE-AI/App/audio_classifier.c ****     _conv1_conv1_0_Conv_output_0_scratch0_array.data_start = AI_PTR(g_audio_classifier_activations_
 750:X-CUBE-AI/App/audio_classifier.c ****     _conv1_conv1_0_Conv_output_0_output_array.data = AI_PTR(g_audio_classifier_activations_map[0] +
 751:X-CUBE-AI/App/audio_classifier.c ****     _conv1_conv1_0_Conv_output_0_output_array.data_start = AI_PTR(g_audio_classifier_activations_ma
 752:X-CUBE-AI/App/audio_classifier.c ****     _conv1_conv1_1_Relu_output_0_output_array.data = AI_PTR(g_audio_classifier_activations_map[0] +
 753:X-CUBE-AI/App/audio_classifier.c ****     _conv1_conv1_1_Relu_output_0_output_array.data_start = AI_PTR(g_audio_classifier_activations_ma
 754:X-CUBE-AI/App/audio_classifier.c ****     _conv1_conv1_2_MaxPool_output_0_output_array.data = AI_PTR(g_audio_classifier_activations_map[0
 755:X-CUBE-AI/App/audio_classifier.c ****     _conv1_conv1_2_MaxPool_output_0_output_array.data_start = AI_PTR(g_audio_classifier_activations
 756:X-CUBE-AI/App/audio_classifier.c ****     _conv2_conv2_0_Conv_output_0_scratch0_array.data = AI_PTR(g_audio_classifier_activations_map[0]
 757:X-CUBE-AI/App/audio_classifier.c ****     _conv2_conv2_0_Conv_output_0_scratch0_array.data_start = AI_PTR(g_audio_classifier_activations_
 758:X-CUBE-AI/App/audio_classifier.c ****     _conv2_conv2_0_Conv_output_0_output_array.data = AI_PTR(g_audio_classifier_activations_map[0] +
 759:X-CUBE-AI/App/audio_classifier.c ****     _conv2_conv2_0_Conv_output_0_output_array.data_start = AI_PTR(g_audio_classifier_activations_ma
 760:X-CUBE-AI/App/audio_classifier.c ****     _conv2_conv2_1_Relu_output_0_output_array.data = AI_PTR(g_audio_classifier_activations_map[0] +
 761:X-CUBE-AI/App/audio_classifier.c ****     _conv2_conv2_1_Relu_output_0_output_array.data_start = AI_PTR(g_audio_classifier_activations_ma
 762:X-CUBE-AI/App/audio_classifier.c ****     _conv2_conv2_2_MaxPool_output_0_output_array.data = AI_PTR(g_audio_classifier_activations_map[0
 763:X-CUBE-AI/App/audio_classifier.c ****     _conv2_conv2_2_MaxPool_output_0_output_array.data_start = AI_PTR(g_audio_classifier_activations
 764:X-CUBE-AI/App/audio_classifier.c ****     _flatten_Flatten_output_0_to_chlast_output_array.data = AI_PTR(g_audio_classifier_activations_m
 765:X-CUBE-AI/App/audio_classifier.c ****     _flatten_Flatten_output_0_to_chlast_output_array.data_start = AI_PTR(g_audio_classifier_activat
 766:X-CUBE-AI/App/audio_classifier.c ****     _fc1_fc1_0_Gemm_output_0_output_array.data = AI_PTR(g_audio_classifier_activations_map[0] + 0);
 767:X-CUBE-AI/App/audio_classifier.c ****     _fc1_fc1_0_Gemm_output_0_output_array.data_start = AI_PTR(g_audio_classifier_activations_map[0]
 768:X-CUBE-AI/App/audio_classifier.c ****     _fc1_fc1_1_Relu_output_0_output_array.data = AI_PTR(g_audio_classifier_activations_map[0] + 160
 769:X-CUBE-AI/App/audio_classifier.c ****     _fc1_fc1_1_Relu_output_0_output_array.data_start = AI_PTR(g_audio_classifier_activations_map[0]
 770:X-CUBE-AI/App/audio_classifier.c ****     _fc2_fc2_0_Gemm_output_0_output_array.data = AI_PTR(g_audio_classifier_activations_map[0] + 0);
 771:X-CUBE-AI/App/audio_classifier.c ****     _fc2_fc2_0_Gemm_output_0_output_array.data_start = AI_PTR(g_audio_classifier_activations_map[0]
 772:X-CUBE-AI/App/audio_classifier.c ****     _fc2_fc2_1_Relu_output_0_output_array.data = AI_PTR(g_audio_classifier_activations_map[0] + 128
ARM GAS  /var/folders/n6/c271nzx11xl4r4_m7sqjlt0m0000gn/T//ccCJ1kuw.s 			page 15


 773:X-CUBE-AI/App/audio_classifier.c ****     _fc2_fc2_1_Relu_output_0_output_array.data_start = AI_PTR(g_audio_classifier_activations_map[0]
 774:X-CUBE-AI/App/audio_classifier.c ****     _fc3_fc3_0_Gemm_output_0_output_array.data = AI_PTR(g_audio_classifier_activations_map[0] + 0);
 775:X-CUBE-AI/App/audio_classifier.c ****     _fc3_fc3_0_Gemm_output_0_output_array.data_start = AI_PTR(g_audio_classifier_activations_map[0]
 776:X-CUBE-AI/App/audio_classifier.c ****     _fc3_fc3_1_Relu_output_0_output_array.data = AI_PTR(g_audio_classifier_activations_map[0] + 32)
 777:X-CUBE-AI/App/audio_classifier.c ****     _fc3_fc3_1_Relu_output_0_output_array.data_start = AI_PTR(g_audio_classifier_activations_map[0]
 778:X-CUBE-AI/App/audio_classifier.c ****     _fc4_Gemm_output_0_output_array.data = AI_PTR(g_audio_classifier_activations_map[0] + 0);
 779:X-CUBE-AI/App/audio_classifier.c ****     _fc4_Gemm_output_0_output_array.data_start = AI_PTR(g_audio_classifier_activations_map[0] + 0);
 780:X-CUBE-AI/App/audio_classifier.c ****     output_output_array.data = AI_PTR(g_audio_classifier_activations_map[0] + 16);
 781:X-CUBE-AI/App/audio_classifier.c ****     output_output_array.data_start = AI_PTR(g_audio_classifier_activations_map[0] + 16);
 782:X-CUBE-AI/App/audio_classifier.c ****     return true;
 783:X-CUBE-AI/App/audio_classifier.c ****   }
 784:X-CUBE-AI/App/audio_classifier.c ****   AI_ERROR_TRAP(net_ctx, INIT_FAILED, NETWORK_ACTIVATIONS);
 785:X-CUBE-AI/App/audio_classifier.c ****   return false;
 786:X-CUBE-AI/App/audio_classifier.c **** }
 787:X-CUBE-AI/App/audio_classifier.c **** 
 788:X-CUBE-AI/App/audio_classifier.c **** 
 789:X-CUBE-AI/App/audio_classifier.c **** 
 790:X-CUBE-AI/App/audio_classifier.c **** 
 791:X-CUBE-AI/App/audio_classifier.c **** /******************************************************************************/
 792:X-CUBE-AI/App/audio_classifier.c **** AI_DECLARE_STATIC
 793:X-CUBE-AI/App/audio_classifier.c **** ai_bool audio_classifier_configure_weights(
 794:X-CUBE-AI/App/audio_classifier.c ****   ai_network* net_ctx, const ai_network_params* params)
 795:X-CUBE-AI/App/audio_classifier.c **** {
  28              		.loc 1 795 1 view -0
  29              		.cfi_startproc
  30              		@ args = 0, pretend = 0, frame = 0
  31              		@ frame_needed = 0, uses_anonymous_args = 0
  32              		.loc 1 795 1 is_stmt 0 view .LVU1
  33 0000 38B5     		push	{r3, r4, r5, lr}
  34              		.cfi_def_cfa_offset 16
  35              		.cfi_offset 3, -16
  36              		.cfi_offset 4, -12
  37              		.cfi_offset 5, -8
  38              		.cfi_offset 14, -4
  39 0002 0446     		mov	r4, r0
  40 0004 0A46     		mov	r2, r1
 796:X-CUBE-AI/App/audio_classifier.c ****   AI_ASSERT(net_ctx)
  41              		.loc 1 796 3 is_stmt 1 view .LVU2
 797:X-CUBE-AI/App/audio_classifier.c **** 
 798:X-CUBE-AI/App/audio_classifier.c ****   if (ai_platform_get_weights_map(g_audio_classifier_weights_map, 1, params)) {
  42              		.loc 1 798 3 view .LVU3
  43              		.loc 1 798 7 is_stmt 0 view .LVU4
  44 0006 0121     		movs	r1, #1
  45              	.LVL1:
  46              		.loc 1 798 7 view .LVU5
  47 0008 3C48     		ldr	r0, .L5
  48              	.LVL2:
  49              		.loc 1 798 7 view .LVU6
  50 000a FFF7FEFF 		bl	ai_platform_get_weights_map
  51              	.LVL3:
  52              		.loc 1 798 6 discriminator 1 view .LVU7
  53 000e 0546     		mov	r5, r0
  54 0010 0028     		cmp	r0, #0
  55 0012 6DD0     		beq	.L2
 799:X-CUBE-AI/App/audio_classifier.c ****     /* Updating weights (byte) offsets */
 800:X-CUBE-AI/App/audio_classifier.c ****     
 801:X-CUBE-AI/App/audio_classifier.c ****     _conv1_conv1_0_Conv_output_0_weights_array.format |= AI_FMT_FLAG_CONST;
ARM GAS  /var/folders/n6/c271nzx11xl4r4_m7sqjlt0m0000gn/T//ccCJ1kuw.s 			page 16


  56              		.loc 1 801 5 is_stmt 1 view .LVU8
  57              		.loc 1 801 47 is_stmt 0 view .LVU9
  58 0014 3A4A     		ldr	r2, .L5+4
  59 0016 1368     		ldr	r3, [r2]
  60              		.loc 1 801 55 view .LVU10
  61 0018 43F08043 		orr	r3, r3, #1073741824
  62 001c 1360     		str	r3, [r2]
 802:X-CUBE-AI/App/audio_classifier.c ****     _conv1_conv1_0_Conv_output_0_weights_array.data = AI_PTR(g_audio_classifier_weights_map[0] + 0)
  63              		.loc 1 802 5 is_stmt 1 view .LVU11
  64              		.loc 1 802 55 is_stmt 0 view .LVU12
  65 001e 374B     		ldr	r3, .L5
  66 0020 1B68     		ldr	r3, [r3]
  67              		.loc 1 802 53 view .LVU13
  68 0022 9360     		str	r3, [r2, #8]
 803:X-CUBE-AI/App/audio_classifier.c ****     _conv1_conv1_0_Conv_output_0_weights_array.data_start = AI_PTR(g_audio_classifier_weights_map[0
  69              		.loc 1 803 5 is_stmt 1 view .LVU14
  70              		.loc 1 803 59 is_stmt 0 view .LVU15
  71 0024 D360     		str	r3, [r2, #12]
 804:X-CUBE-AI/App/audio_classifier.c ****     _conv1_conv1_0_Conv_output_0_bias_array.format |= AI_FMT_FLAG_CONST;
  72              		.loc 1 804 5 is_stmt 1 view .LVU16
  73              		.loc 1 804 44 is_stmt 0 view .LVU17
  74 0026 374A     		ldr	r2, .L5+8
  75 0028 1168     		ldr	r1, [r2]
  76              		.loc 1 804 52 view .LVU18
  77 002a 41F08041 		orr	r1, r1, #1073741824
  78 002e 1160     		str	r1, [r2]
 805:X-CUBE-AI/App/audio_classifier.c ****     _conv1_conv1_0_Conv_output_0_bias_array.data = AI_PTR(g_audio_classifier_weights_map[0] + 144);
  79              		.loc 1 805 5 is_stmt 1 view .LVU19
  80              		.loc 1 805 52 is_stmt 0 view .LVU20
  81 0030 03F19001 		add	r1, r3, #144
  82              		.loc 1 805 50 view .LVU21
  83 0034 9160     		str	r1, [r2, #8]
 806:X-CUBE-AI/App/audio_classifier.c ****     _conv1_conv1_0_Conv_output_0_bias_array.data_start = AI_PTR(g_audio_classifier_weights_map[0] +
  84              		.loc 1 806 5 is_stmt 1 view .LVU22
  85              		.loc 1 806 56 is_stmt 0 view .LVU23
  86 0036 D160     		str	r1, [r2, #12]
 807:X-CUBE-AI/App/audio_classifier.c ****     _conv2_conv2_0_Conv_output_0_weights_array.format |= AI_FMT_FLAG_CONST;
  87              		.loc 1 807 5 is_stmt 1 view .LVU24
  88              		.loc 1 807 47 is_stmt 0 view .LVU25
  89 0038 334A     		ldr	r2, .L5+12
  90 003a 1168     		ldr	r1, [r2]
  91              		.loc 1 807 55 view .LVU26
  92 003c 41F08041 		orr	r1, r1, #1073741824
  93 0040 1160     		str	r1, [r2]
 808:X-CUBE-AI/App/audio_classifier.c ****     _conv2_conv2_0_Conv_output_0_weights_array.data = AI_PTR(g_audio_classifier_weights_map[0] + 16
  94              		.loc 1 808 5 is_stmt 1 view .LVU27
  95              		.loc 1 808 55 is_stmt 0 view .LVU28
  96 0042 03F1A001 		add	r1, r3, #160
  97              		.loc 1 808 53 view .LVU29
  98 0046 9160     		str	r1, [r2, #8]
 809:X-CUBE-AI/App/audio_classifier.c ****     _conv2_conv2_0_Conv_output_0_weights_array.data_start = AI_PTR(g_audio_classifier_weights_map[0
  99              		.loc 1 809 5 is_stmt 1 view .LVU30
 100              		.loc 1 809 59 is_stmt 0 view .LVU31
 101 0048 D160     		str	r1, [r2, #12]
 810:X-CUBE-AI/App/audio_classifier.c ****     _conv2_conv2_0_Conv_output_0_bias_array.format |= AI_FMT_FLAG_CONST;
 102              		.loc 1 810 5 is_stmt 1 view .LVU32
 103              		.loc 1 810 44 is_stmt 0 view .LVU33
ARM GAS  /var/folders/n6/c271nzx11xl4r4_m7sqjlt0m0000gn/T//ccCJ1kuw.s 			page 17


 104 004a 304A     		ldr	r2, .L5+16
 105 004c 1168     		ldr	r1, [r2]
 106              		.loc 1 810 52 view .LVU34
 107 004e 41F08041 		orr	r1, r1, #1073741824
 108 0052 1160     		str	r1, [r2]
 811:X-CUBE-AI/App/audio_classifier.c ****     _conv2_conv2_0_Conv_output_0_bias_array.data = AI_PTR(g_audio_classifier_weights_map[0] + 2464)
 109              		.loc 1 811 5 is_stmt 1 view .LVU35
 110              		.loc 1 811 52 is_stmt 0 view .LVU36
 111 0054 03F51A61 		add	r1, r3, #2464
 112              		.loc 1 811 50 view .LVU37
 113 0058 9160     		str	r1, [r2, #8]
 812:X-CUBE-AI/App/audio_classifier.c ****     _conv2_conv2_0_Conv_output_0_bias_array.data_start = AI_PTR(g_audio_classifier_weights_map[0] +
 114              		.loc 1 812 5 is_stmt 1 view .LVU38
 115              		.loc 1 812 56 is_stmt 0 view .LVU39
 116 005a D160     		str	r1, [r2, #12]
 813:X-CUBE-AI/App/audio_classifier.c ****     _fc1_fc1_0_Gemm_output_0_weights_array.format |= AI_FMT_FLAG_CONST;
 117              		.loc 1 813 5 is_stmt 1 view .LVU40
 118              		.loc 1 813 43 is_stmt 0 view .LVU41
 119 005c 2C4A     		ldr	r2, .L5+20
 120 005e 1168     		ldr	r1, [r2]
 121              		.loc 1 813 51 view .LVU42
 122 0060 41F08041 		orr	r1, r1, #1073741824
 123 0064 1160     		str	r1, [r2]
 814:X-CUBE-AI/App/audio_classifier.c ****     _fc1_fc1_0_Gemm_output_0_weights_array.data = AI_PTR(g_audio_classifier_weights_map[0] + 2528);
 124              		.loc 1 814 5 is_stmt 1 view .LVU43
 125              		.loc 1 814 51 is_stmt 0 view .LVU44
 126 0066 03F51E61 		add	r1, r3, #2528
 127              		.loc 1 814 49 view .LVU45
 128 006a 9160     		str	r1, [r2, #8]
 815:X-CUBE-AI/App/audio_classifier.c ****     _fc1_fc1_0_Gemm_output_0_weights_array.data_start = AI_PTR(g_audio_classifier_weights_map[0] + 
 129              		.loc 1 815 5 is_stmt 1 view .LVU46
 130              		.loc 1 815 55 is_stmt 0 view .LVU47
 131 006c D160     		str	r1, [r2, #12]
 816:X-CUBE-AI/App/audio_classifier.c ****     _fc1_fc1_0_Gemm_output_0_bias_array.format |= AI_FMT_FLAG_CONST;
 132              		.loc 1 816 5 is_stmt 1 view .LVU48
 133              		.loc 1 816 40 is_stmt 0 view .LVU49
 134 006e 294A     		ldr	r2, .L5+24
 135 0070 1168     		ldr	r1, [r2]
 136              		.loc 1 816 48 view .LVU50
 137 0072 41F08041 		orr	r1, r1, #1073741824
 138 0076 1160     		str	r1, [r2]
 817:X-CUBE-AI/App/audio_classifier.c ****     _fc1_fc1_0_Gemm_output_0_bias_array.data = AI_PTR(g_audio_classifier_weights_map[0] + 145888);
 139              		.loc 1 817 5 is_stmt 1 view .LVU51
 140              		.loc 1 817 48 is_stmt 0 view .LVU52
 141 0078 2749     		ldr	r1, .L5+28
 142 007a 1944     		add	r1, r1, r3
 143              		.loc 1 817 46 view .LVU53
 144 007c 9160     		str	r1, [r2, #8]
 818:X-CUBE-AI/App/audio_classifier.c ****     _fc1_fc1_0_Gemm_output_0_bias_array.data_start = AI_PTR(g_audio_classifier_weights_map[0] + 145
 145              		.loc 1 818 5 is_stmt 1 view .LVU54
 146              		.loc 1 818 52 is_stmt 0 view .LVU55
 147 007e D160     		str	r1, [r2, #12]
 819:X-CUBE-AI/App/audio_classifier.c ****     _fc2_fc2_0_Gemm_output_0_weights_array.format |= AI_FMT_FLAG_CONST;
 148              		.loc 1 819 5 is_stmt 1 view .LVU56
 149              		.loc 1 819 43 is_stmt 0 view .LVU57
 150 0080 264A     		ldr	r2, .L5+32
 151 0082 1168     		ldr	r1, [r2]
ARM GAS  /var/folders/n6/c271nzx11xl4r4_m7sqjlt0m0000gn/T//ccCJ1kuw.s 			page 18


 152              		.loc 1 819 51 view .LVU58
 153 0084 41F08041 		orr	r1, r1, #1073741824
 154 0088 1160     		str	r1, [r2]
 820:X-CUBE-AI/App/audio_classifier.c ****     _fc2_fc2_0_Gemm_output_0_weights_array.data = AI_PTR(g_audio_classifier_weights_map[0] + 146048
 155              		.loc 1 820 5 is_stmt 1 view .LVU59
 156              		.loc 1 820 51 is_stmt 0 view .LVU60
 157 008a 2549     		ldr	r1, .L5+36
 158 008c 1944     		add	r1, r1, r3
 159              		.loc 1 820 49 view .LVU61
 160 008e 9160     		str	r1, [r2, #8]
 821:X-CUBE-AI/App/audio_classifier.c ****     _fc2_fc2_0_Gemm_output_0_weights_array.data_start = AI_PTR(g_audio_classifier_weights_map[0] + 
 161              		.loc 1 821 5 is_stmt 1 view .LVU62
 162              		.loc 1 821 55 is_stmt 0 view .LVU63
 163 0090 D160     		str	r1, [r2, #12]
 822:X-CUBE-AI/App/audio_classifier.c ****     _fc2_fc2_0_Gemm_output_0_bias_array.format |= AI_FMT_FLAG_CONST;
 164              		.loc 1 822 5 is_stmt 1 view .LVU64
 165              		.loc 1 822 40 is_stmt 0 view .LVU65
 166 0092 244A     		ldr	r2, .L5+40
 167 0094 1168     		ldr	r1, [r2]
 168              		.loc 1 822 48 view .LVU66
 169 0096 41F08041 		orr	r1, r1, #1073741824
 170 009a 1160     		str	r1, [r2]
 823:X-CUBE-AI/App/audio_classifier.c ****     _fc2_fc2_0_Gemm_output_0_bias_array.data = AI_PTR(g_audio_classifier_weights_map[0] + 151168);
 171              		.loc 1 823 5 is_stmt 1 view .LVU67
 172              		.loc 1 823 48 is_stmt 0 view .LVU68
 173 009c 2249     		ldr	r1, .L5+44
 174 009e 1944     		add	r1, r1, r3
 175              		.loc 1 823 46 view .LVU69
 176 00a0 9160     		str	r1, [r2, #8]
 824:X-CUBE-AI/App/audio_classifier.c ****     _fc2_fc2_0_Gemm_output_0_bias_array.data_start = AI_PTR(g_audio_classifier_weights_map[0] + 151
 177              		.loc 1 824 5 is_stmt 1 view .LVU70
 178              		.loc 1 824 52 is_stmt 0 view .LVU71
 179 00a2 D160     		str	r1, [r2, #12]
 825:X-CUBE-AI/App/audio_classifier.c ****     _fc3_fc3_0_Gemm_output_0_weights_array.format |= AI_FMT_FLAG_CONST;
 180              		.loc 1 825 5 is_stmt 1 view .LVU72
 181              		.loc 1 825 43 is_stmt 0 view .LVU73
 182 00a4 214A     		ldr	r2, .L5+48
 183 00a6 1168     		ldr	r1, [r2]
 184              		.loc 1 825 51 view .LVU74
 185 00a8 41F08041 		orr	r1, r1, #1073741824
 186 00ac 1160     		str	r1, [r2]
 826:X-CUBE-AI/App/audio_classifier.c ****     _fc3_fc3_0_Gemm_output_0_weights_array.data = AI_PTR(g_audio_classifier_weights_map[0] + 151296
 187              		.loc 1 826 5 is_stmt 1 view .LVU75
 188              		.loc 1 826 51 is_stmt 0 view .LVU76
 189 00ae 2049     		ldr	r1, .L5+52
 190 00b0 1944     		add	r1, r1, r3
 191              		.loc 1 826 49 view .LVU77
 192 00b2 9160     		str	r1, [r2, #8]
 827:X-CUBE-AI/App/audio_classifier.c ****     _fc3_fc3_0_Gemm_output_0_weights_array.data_start = AI_PTR(g_audio_classifier_weights_map[0] + 
 193              		.loc 1 827 5 is_stmt 1 view .LVU78
 194              		.loc 1 827 55 is_stmt 0 view .LVU79
 195 00b4 D160     		str	r1, [r2, #12]
 828:X-CUBE-AI/App/audio_classifier.c ****     _fc3_fc3_0_Gemm_output_0_bias_array.format |= AI_FMT_FLAG_CONST;
 196              		.loc 1 828 5 is_stmt 1 view .LVU80
 197              		.loc 1 828 40 is_stmt 0 view .LVU81
 198 00b6 1F4A     		ldr	r2, .L5+56
 199 00b8 1168     		ldr	r1, [r2]
ARM GAS  /var/folders/n6/c271nzx11xl4r4_m7sqjlt0m0000gn/T//ccCJ1kuw.s 			page 19


 200              		.loc 1 828 48 view .LVU82
 201 00ba 41F08041 		orr	r1, r1, #1073741824
 202 00be 1160     		str	r1, [r2]
 829:X-CUBE-AI/App/audio_classifier.c ****     _fc3_fc3_0_Gemm_output_0_bias_array.data = AI_PTR(g_audio_classifier_weights_map[0] + 152320);
 203              		.loc 1 829 5 is_stmt 1 view .LVU83
 204              		.loc 1 829 48 is_stmt 0 view .LVU84
 205 00c0 1D49     		ldr	r1, .L5+60
 206 00c2 1944     		add	r1, r1, r3
 207              		.loc 1 829 46 view .LVU85
 208 00c4 9160     		str	r1, [r2, #8]
 830:X-CUBE-AI/App/audio_classifier.c ****     _fc3_fc3_0_Gemm_output_0_bias_array.data_start = AI_PTR(g_audio_classifier_weights_map[0] + 152
 209              		.loc 1 830 5 is_stmt 1 view .LVU86
 210              		.loc 1 830 52 is_stmt 0 view .LVU87
 211 00c6 D160     		str	r1, [r2, #12]
 831:X-CUBE-AI/App/audio_classifier.c ****     _fc4_Gemm_output_0_weights_array.format |= AI_FMT_FLAG_CONST;
 212              		.loc 1 831 5 is_stmt 1 view .LVU88
 213              		.loc 1 831 37 is_stmt 0 view .LVU89
 214 00c8 1C4A     		ldr	r2, .L5+64
 215 00ca 1168     		ldr	r1, [r2]
 216              		.loc 1 831 45 view .LVU90
 217 00cc 41F08041 		orr	r1, r1, #1073741824
 218 00d0 1160     		str	r1, [r2]
 832:X-CUBE-AI/App/audio_classifier.c ****     _fc4_Gemm_output_0_weights_array.data = AI_PTR(g_audio_classifier_weights_map[0] + 152352);
 219              		.loc 1 832 5 is_stmt 1 view .LVU91
 220              		.loc 1 832 45 is_stmt 0 view .LVU92
 221 00d2 1B49     		ldr	r1, .L5+68
 222 00d4 1944     		add	r1, r1, r3
 223              		.loc 1 832 43 view .LVU93
 224 00d6 9160     		str	r1, [r2, #8]
 833:X-CUBE-AI/App/audio_classifier.c ****     _fc4_Gemm_output_0_weights_array.data_start = AI_PTR(g_audio_classifier_weights_map[0] + 152352
 225              		.loc 1 833 5 is_stmt 1 view .LVU94
 226              		.loc 1 833 49 is_stmt 0 view .LVU95
 227 00d8 D160     		str	r1, [r2, #12]
 834:X-CUBE-AI/App/audio_classifier.c ****     _fc4_Gemm_output_0_bias_array.format |= AI_FMT_FLAG_CONST;
 228              		.loc 1 834 5 is_stmt 1 view .LVU96
 229              		.loc 1 834 34 is_stmt 0 view .LVU97
 230 00da 1A4A     		ldr	r2, .L5+72
 231 00dc 1168     		ldr	r1, [r2]
 232              		.loc 1 834 42 view .LVU98
 233 00de 41F08041 		orr	r1, r1, #1073741824
 234 00e2 1160     		str	r1, [r2]
 835:X-CUBE-AI/App/audio_classifier.c ****     _fc4_Gemm_output_0_bias_array.data = AI_PTR(g_audio_classifier_weights_map[0] + 152480);
 235              		.loc 1 835 5 is_stmt 1 view .LVU99
 236              		.loc 1 835 42 is_stmt 0 view .LVU100
 237 00e4 1849     		ldr	r1, .L5+76
 238 00e6 1944     		add	r1, r1, r3
 239              		.loc 1 835 40 view .LVU101
 240 00e8 9160     		str	r1, [r2, #8]
 836:X-CUBE-AI/App/audio_classifier.c ****     _fc4_Gemm_output_0_bias_array.data_start = AI_PTR(g_audio_classifier_weights_map[0] + 152480);
 241              		.loc 1 836 5 is_stmt 1 view .LVU102
 242              		.loc 1 836 46 is_stmt 0 view .LVU103
 243 00ea D160     		str	r1, [r2, #12]
 837:X-CUBE-AI/App/audio_classifier.c ****     return true;
 244              		.loc 1 837 5 is_stmt 1 view .LVU104
 245              	.L3:
 838:X-CUBE-AI/App/audio_classifier.c ****   }
 839:X-CUBE-AI/App/audio_classifier.c ****   AI_ERROR_TRAP(net_ctx, INIT_FAILED, NETWORK_WEIGHTS);
ARM GAS  /var/folders/n6/c271nzx11xl4r4_m7sqjlt0m0000gn/T//ccCJ1kuw.s 			page 20


 840:X-CUBE-AI/App/audio_classifier.c ****   return false;
 841:X-CUBE-AI/App/audio_classifier.c **** }
 246              		.loc 1 841 1 is_stmt 0 view .LVU105
 247 00ec 2846     		mov	r0, r5
 248 00ee 38BD     		pop	{r3, r4, r5, pc}
 249              	.LVL4:
 250              	.L2:
 839:X-CUBE-AI/App/audio_classifier.c ****   return false;
 251              		.loc 1 839 3 is_stmt 1 view .LVU106
 252 00f0 1222     		movs	r2, #18
 253 00f2 3021     		movs	r1, #48
 254 00f4 2046     		mov	r0, r4
 255 00f6 FFF7FEFF 		bl	ai_platform_network_set_error
 256              	.LVL5:
 840:X-CUBE-AI/App/audio_classifier.c **** }
 257              		.loc 1 840 3 view .LVU107
 840:X-CUBE-AI/App/audio_classifier.c **** }
 258              		.loc 1 840 10 is_stmt 0 view .LVU108
 259 00fa F7E7     		b	.L3
 260              	.L6:
 261              		.align	2
 262              	.L5:
 263 00fc 00000000 		.word	g_audio_classifier_weights_map
 264 0100 00000000 		.word	_conv1_conv1_0_Conv_output_0_weights_array
 265 0104 00000000 		.word	_conv1_conv1_0_Conv_output_0_bias_array
 266 0108 00000000 		.word	_conv2_conv2_0_Conv_output_0_weights_array
 267 010c 00000000 		.word	_conv2_conv2_0_Conv_output_0_bias_array
 268 0110 00000000 		.word	_fc1_fc1_0_Gemm_output_0_weights_array
 269 0114 00000000 		.word	_fc1_fc1_0_Gemm_output_0_bias_array
 270 0118 E0390200 		.word	145888
 271 011c 00000000 		.word	_fc2_fc2_0_Gemm_output_0_weights_array
 272 0120 803A0200 		.word	146048
 273 0124 00000000 		.word	_fc2_fc2_0_Gemm_output_0_bias_array
 274 0128 804E0200 		.word	151168
 275 012c 00000000 		.word	_fc3_fc3_0_Gemm_output_0_weights_array
 276 0130 004F0200 		.word	151296
 277 0134 00000000 		.word	_fc3_fc3_0_Gemm_output_0_bias_array
 278 0138 00530200 		.word	152320
 279 013c 00000000 		.word	_fc4_Gemm_output_0_weights_array
 280 0140 20530200 		.word	152352
 281 0144 00000000 		.word	_fc4_Gemm_output_0_bias_array
 282 0148 A0530200 		.word	152480
 283              		.cfi_endproc
 284              	.LFE3:
 286              		.section	.text.audio_classifier_configure_activations,"ax",%progbits
 287              		.align	1
 288              		.syntax unified
 289              		.thumb
 290              		.thumb_func
 292              	audio_classifier_configure_activations:
 293              	.LVL6:
 294              	.LFB2:
 740:X-CUBE-AI/App/audio_classifier.c ****   AI_ASSERT(net_ctx)
 295              		.loc 1 740 1 is_stmt 1 view -0
 296              		.cfi_startproc
 297              		@ args = 0, pretend = 0, frame = 0
 298              		@ frame_needed = 0, uses_anonymous_args = 0
ARM GAS  /var/folders/n6/c271nzx11xl4r4_m7sqjlt0m0000gn/T//ccCJ1kuw.s 			page 21


 740:X-CUBE-AI/App/audio_classifier.c ****   AI_ASSERT(net_ctx)
 299              		.loc 1 740 1 is_stmt 0 view .LVU110
 300 0000 38B5     		push	{r3, r4, r5, lr}
 301              		.cfi_def_cfa_offset 16
 302              		.cfi_offset 3, -16
 303              		.cfi_offset 4, -12
 304              		.cfi_offset 5, -8
 305              		.cfi_offset 14, -4
 306 0002 0446     		mov	r4, r0
 307 0004 0A46     		mov	r2, r1
 741:X-CUBE-AI/App/audio_classifier.c **** 
 308              		.loc 1 741 3 is_stmt 1 view .LVU111
 743:X-CUBE-AI/App/audio_classifier.c ****     /* Updating activations (byte) offsets */
 309              		.loc 1 743 3 view .LVU112
 743:X-CUBE-AI/App/audio_classifier.c ****     /* Updating activations (byte) offsets */
 310              		.loc 1 743 7 is_stmt 0 view .LVU113
 311 0006 0121     		movs	r1, #1
 312              	.LVL7:
 743:X-CUBE-AI/App/audio_classifier.c ****     /* Updating activations (byte) offsets */
 313              		.loc 1 743 7 view .LVU114
 314 0008 2A48     		ldr	r0, .L11
 315              	.LVL8:
 743:X-CUBE-AI/App/audio_classifier.c ****     /* Updating activations (byte) offsets */
 316              		.loc 1 743 7 view .LVU115
 317 000a FFF7FEFF 		bl	ai_platform_get_activations_map
 318              	.LVL9:
 743:X-CUBE-AI/App/audio_classifier.c ****     /* Updating activations (byte) offsets */
 319              		.loc 1 743 6 discriminator 1 view .LVU116
 320 000e 0546     		mov	r5, r0
 321 0010 0028     		cmp	r0, #0
 322 0012 48D0     		beq	.L8
 746:X-CUBE-AI/App/audio_classifier.c ****     input_output_array.data_start = AI_PTR(g_audio_classifier_activations_map[0] + 0);
 323              		.loc 1 746 5 is_stmt 1 view .LVU117
 746:X-CUBE-AI/App/audio_classifier.c ****     input_output_array.data_start = AI_PTR(g_audio_classifier_activations_map[0] + 0);
 324              		.loc 1 746 31 is_stmt 0 view .LVU118
 325 0014 274B     		ldr	r3, .L11
 326 0016 1B68     		ldr	r3, [r3]
 746:X-CUBE-AI/App/audio_classifier.c ****     input_output_array.data_start = AI_PTR(g_audio_classifier_activations_map[0] + 0);
 327              		.loc 1 746 29 view .LVU119
 328 0018 274A     		ldr	r2, .L11+4
 329 001a 9360     		str	r3, [r2, #8]
 747:X-CUBE-AI/App/audio_classifier.c ****     _conv1_conv1_0_Conv_output_0_scratch0_array.data = AI_PTR(g_audio_classifier_activations_map[0]
 330              		.loc 1 747 5 is_stmt 1 view .LVU120
 747:X-CUBE-AI/App/audio_classifier.c ****     _conv1_conv1_0_Conv_output_0_scratch0_array.data = AI_PTR(g_audio_classifier_activations_map[0]
 331              		.loc 1 747 35 is_stmt 0 view .LVU121
 332 001c D360     		str	r3, [r2, #12]
 748:X-CUBE-AI/App/audio_classifier.c ****     _conv1_conv1_0_Conv_output_0_scratch0_array.data_start = AI_PTR(g_audio_classifier_activations_
 333              		.loc 1 748 5 is_stmt 1 view .LVU122
 748:X-CUBE-AI/App/audio_classifier.c ****     _conv1_conv1_0_Conv_output_0_scratch0_array.data_start = AI_PTR(g_audio_classifier_activations_
 334              		.loc 1 748 56 is_stmt 0 view .LVU123
 335 001e 03F57062 		add	r2, r3, #3840
 748:X-CUBE-AI/App/audio_classifier.c ****     _conv1_conv1_0_Conv_output_0_scratch0_array.data_start = AI_PTR(g_audio_classifier_activations_
 336              		.loc 1 748 54 view .LVU124
 337 0022 2649     		ldr	r1, .L11+8
 338 0024 8A60     		str	r2, [r1, #8]
 749:X-CUBE-AI/App/audio_classifier.c ****     _conv1_conv1_0_Conv_output_0_output_array.data = AI_PTR(g_audio_classifier_activations_map[0] +
 339              		.loc 1 749 5 is_stmt 1 view .LVU125
ARM GAS  /var/folders/n6/c271nzx11xl4r4_m7sqjlt0m0000gn/T//ccCJ1kuw.s 			page 22


 749:X-CUBE-AI/App/audio_classifier.c ****     _conv1_conv1_0_Conv_output_0_output_array.data = AI_PTR(g_audio_classifier_activations_map[0] +
 340              		.loc 1 749 60 is_stmt 0 view .LVU126
 341 0026 CA60     		str	r2, [r1, #12]
 750:X-CUBE-AI/App/audio_classifier.c ****     _conv1_conv1_0_Conv_output_0_output_array.data_start = AI_PTR(g_audio_classifier_activations_ma
 342              		.loc 1 750 5 is_stmt 1 view .LVU127
 750:X-CUBE-AI/App/audio_classifier.c ****     _conv1_conv1_0_Conv_output_0_output_array.data_start = AI_PTR(g_audio_classifier_activations_ma
 343              		.loc 1 750 54 is_stmt 0 view .LVU128
 344 0028 03F62471 		addw	r1, r3, #3876
 750:X-CUBE-AI/App/audio_classifier.c ****     _conv1_conv1_0_Conv_output_0_output_array.data_start = AI_PTR(g_audio_classifier_activations_ma
 345              		.loc 1 750 52 view .LVU129
 346 002c 2448     		ldr	r0, .L11+12
 347 002e 8160     		str	r1, [r0, #8]
 751:X-CUBE-AI/App/audio_classifier.c ****     _conv1_conv1_1_Relu_output_0_output_array.data = AI_PTR(g_audio_classifier_activations_map[0] +
 348              		.loc 1 751 5 is_stmt 1 view .LVU130
 751:X-CUBE-AI/App/audio_classifier.c ****     _conv1_conv1_1_Relu_output_0_output_array.data = AI_PTR(g_audio_classifier_activations_map[0] +
 349              		.loc 1 751 58 is_stmt 0 view .LVU131
 350 0030 C160     		str	r1, [r0, #12]
 752:X-CUBE-AI/App/audio_classifier.c ****     _conv1_conv1_1_Relu_output_0_output_array.data_start = AI_PTR(g_audio_classifier_activations_ma
 351              		.loc 1 752 5 is_stmt 1 view .LVU132
 752:X-CUBE-AI/App/audio_classifier.c ****     _conv1_conv1_1_Relu_output_0_output_array.data_start = AI_PTR(g_audio_classifier_activations_ma
 352              		.loc 1 752 52 is_stmt 0 view .LVU133
 353 0032 2448     		ldr	r0, .L11+16
 354 0034 8160     		str	r1, [r0, #8]
 753:X-CUBE-AI/App/audio_classifier.c ****     _conv1_conv1_2_MaxPool_output_0_output_array.data = AI_PTR(g_audio_classifier_activations_map[0
 355              		.loc 1 753 5 is_stmt 1 view .LVU134
 753:X-CUBE-AI/App/audio_classifier.c ****     _conv1_conv1_2_MaxPool_output_0_output_array.data = AI_PTR(g_audio_classifier_activations_map[0
 356              		.loc 1 753 58 is_stmt 0 view .LVU135
 357 0036 C160     		str	r1, [r0, #12]
 754:X-CUBE-AI/App/audio_classifier.c ****     _conv1_conv1_2_MaxPool_output_0_output_array.data_start = AI_PTR(g_audio_classifier_activations
 358              		.loc 1 754 5 is_stmt 1 view .LVU136
 754:X-CUBE-AI/App/audio_classifier.c ****     _conv1_conv1_2_MaxPool_output_0_output_array.data_start = AI_PTR(g_audio_classifier_activations
 359              		.loc 1 754 55 is_stmt 0 view .LVU137
 360 0038 2349     		ldr	r1, .L11+20
 361 003a 8B60     		str	r3, [r1, #8]
 755:X-CUBE-AI/App/audio_classifier.c ****     _conv2_conv2_0_Conv_output_0_scratch0_array.data = AI_PTR(g_audio_classifier_activations_map[0]
 362              		.loc 1 755 5 is_stmt 1 view .LVU138
 755:X-CUBE-AI/App/audio_classifier.c ****     _conv2_conv2_0_Conv_output_0_scratch0_array.data = AI_PTR(g_audio_classifier_activations_map[0]
 363              		.loc 1 755 61 is_stmt 0 view .LVU139
 364 003c CB60     		str	r3, [r1, #12]
 756:X-CUBE-AI/App/audio_classifier.c ****     _conv2_conv2_0_Conv_output_0_scratch0_array.data_start = AI_PTR(g_audio_classifier_activations_
 365              		.loc 1 756 5 is_stmt 1 view .LVU140
 756:X-CUBE-AI/App/audio_classifier.c ****     _conv2_conv2_0_Conv_output_0_scratch0_array.data_start = AI_PTR(g_audio_classifier_activations_
 366              		.loc 1 756 54 is_stmt 0 view .LVU141
 367 003e 2349     		ldr	r1, .L11+24
 368 0040 8A60     		str	r2, [r1, #8]
 757:X-CUBE-AI/App/audio_classifier.c ****     _conv2_conv2_0_Conv_output_0_output_array.data = AI_PTR(g_audio_classifier_activations_map[0] +
 369              		.loc 1 757 5 is_stmt 1 view .LVU142
 757:X-CUBE-AI/App/audio_classifier.c ****     _conv2_conv2_0_Conv_output_0_output_array.data = AI_PTR(g_audio_classifier_activations_map[0] +
 370              		.loc 1 757 60 is_stmt 0 view .LVU143
 371 0042 CA60     		str	r2, [r1, #12]
 758:X-CUBE-AI/App/audio_classifier.c ****     _conv2_conv2_0_Conv_output_0_output_array.data_start = AI_PTR(g_audio_classifier_activations_ma
 372              		.loc 1 758 5 is_stmt 1 view .LVU144
 758:X-CUBE-AI/App/audio_classifier.c ****     _conv2_conv2_0_Conv_output_0_output_array.data_start = AI_PTR(g_audio_classifier_activations_ma
 373              		.loc 1 758 54 is_stmt 0 view .LVU145
 374 0044 03F57962 		add	r2, r3, #3984
 758:X-CUBE-AI/App/audio_classifier.c ****     _conv2_conv2_0_Conv_output_0_output_array.data_start = AI_PTR(g_audio_classifier_activations_ma
 375              		.loc 1 758 52 view .LVU146
ARM GAS  /var/folders/n6/c271nzx11xl4r4_m7sqjlt0m0000gn/T//ccCJ1kuw.s 			page 23


 376 0048 2149     		ldr	r1, .L11+28
 377 004a 8A60     		str	r2, [r1, #8]
 759:X-CUBE-AI/App/audio_classifier.c ****     _conv2_conv2_1_Relu_output_0_output_array.data = AI_PTR(g_audio_classifier_activations_map[0] +
 378              		.loc 1 759 5 is_stmt 1 view .LVU147
 759:X-CUBE-AI/App/audio_classifier.c ****     _conv2_conv2_1_Relu_output_0_output_array.data = AI_PTR(g_audio_classifier_activations_map[0] +
 379              		.loc 1 759 58 is_stmt 0 view .LVU148
 380 004c CA60     		str	r2, [r1, #12]
 760:X-CUBE-AI/App/audio_classifier.c ****     _conv2_conv2_1_Relu_output_0_output_array.data_start = AI_PTR(g_audio_classifier_activations_ma
 381              		.loc 1 760 5 is_stmt 1 view .LVU149
 760:X-CUBE-AI/App/audio_classifier.c ****     _conv2_conv2_1_Relu_output_0_output_array.data_start = AI_PTR(g_audio_classifier_activations_ma
 382              		.loc 1 760 52 is_stmt 0 view .LVU150
 383 004e 2149     		ldr	r1, .L11+32
 384 0050 8A60     		str	r2, [r1, #8]
 761:X-CUBE-AI/App/audio_classifier.c ****     _conv2_conv2_2_MaxPool_output_0_output_array.data = AI_PTR(g_audio_classifier_activations_map[0
 385              		.loc 1 761 5 is_stmt 1 view .LVU151
 761:X-CUBE-AI/App/audio_classifier.c ****     _conv2_conv2_2_MaxPool_output_0_output_array.data = AI_PTR(g_audio_classifier_activations_map[0
 386              		.loc 1 761 58 is_stmt 0 view .LVU152
 387 0052 CA60     		str	r2, [r1, #12]
 762:X-CUBE-AI/App/audio_classifier.c ****     _conv2_conv2_2_MaxPool_output_0_output_array.data_start = AI_PTR(g_audio_classifier_activations
 388              		.loc 1 762 5 is_stmt 1 view .LVU153
 762:X-CUBE-AI/App/audio_classifier.c ****     _conv2_conv2_2_MaxPool_output_0_output_array.data_start = AI_PTR(g_audio_classifier_activations
 389              		.loc 1 762 55 is_stmt 0 view .LVU154
 390 0054 204A     		ldr	r2, .L11+36
 391 0056 9360     		str	r3, [r2, #8]
 763:X-CUBE-AI/App/audio_classifier.c ****     _flatten_Flatten_output_0_to_chlast_output_array.data = AI_PTR(g_audio_classifier_activations_m
 392              		.loc 1 763 5 is_stmt 1 view .LVU155
 763:X-CUBE-AI/App/audio_classifier.c ****     _flatten_Flatten_output_0_to_chlast_output_array.data = AI_PTR(g_audio_classifier_activations_m
 393              		.loc 1 763 61 is_stmt 0 view .LVU156
 394 0058 D360     		str	r3, [r2, #12]
 764:X-CUBE-AI/App/audio_classifier.c ****     _flatten_Flatten_output_0_to_chlast_output_array.data_start = AI_PTR(g_audio_classifier_activat
 395              		.loc 1 764 5 is_stmt 1 view .LVU157
 764:X-CUBE-AI/App/audio_classifier.c ****     _flatten_Flatten_output_0_to_chlast_output_array.data_start = AI_PTR(g_audio_classifier_activat
 396              		.loc 1 764 61 is_stmt 0 view .LVU158
 397 005a 03F56061 		add	r1, r3, #3584
 764:X-CUBE-AI/App/audio_classifier.c ****     _flatten_Flatten_output_0_to_chlast_output_array.data_start = AI_PTR(g_audio_classifier_activat
 398              		.loc 1 764 59 view .LVU159
 399 005e 1F4A     		ldr	r2, .L11+40
 400 0060 9160     		str	r1, [r2, #8]
 765:X-CUBE-AI/App/audio_classifier.c ****     _fc1_fc1_0_Gemm_output_0_output_array.data = AI_PTR(g_audio_classifier_activations_map[0] + 0);
 401              		.loc 1 765 5 is_stmt 1 view .LVU160
 765:X-CUBE-AI/App/audio_classifier.c ****     _fc1_fc1_0_Gemm_output_0_output_array.data = AI_PTR(g_audio_classifier_activations_map[0] + 0);
 402              		.loc 1 765 65 is_stmt 0 view .LVU161
 403 0062 D160     		str	r1, [r2, #12]
 766:X-CUBE-AI/App/audio_classifier.c ****     _fc1_fc1_0_Gemm_output_0_output_array.data_start = AI_PTR(g_audio_classifier_activations_map[0]
 404              		.loc 1 766 5 is_stmt 1 view .LVU162
 766:X-CUBE-AI/App/audio_classifier.c ****     _fc1_fc1_0_Gemm_output_0_output_array.data_start = AI_PTR(g_audio_classifier_activations_map[0]
 405              		.loc 1 766 48 is_stmt 0 view .LVU163
 406 0064 1E4A     		ldr	r2, .L11+44
 407 0066 9360     		str	r3, [r2, #8]
 767:X-CUBE-AI/App/audio_classifier.c ****     _fc1_fc1_1_Relu_output_0_output_array.data = AI_PTR(g_audio_classifier_activations_map[0] + 160
 408              		.loc 1 767 5 is_stmt 1 view .LVU164
 767:X-CUBE-AI/App/audio_classifier.c ****     _fc1_fc1_1_Relu_output_0_output_array.data = AI_PTR(g_audio_classifier_activations_map[0] + 160
 409              		.loc 1 767 54 is_stmt 0 view .LVU165
 410 0068 D360     		str	r3, [r2, #12]
 768:X-CUBE-AI/App/audio_classifier.c ****     _fc1_fc1_1_Relu_output_0_output_array.data_start = AI_PTR(g_audio_classifier_activations_map[0]
 411              		.loc 1 768 5 is_stmt 1 view .LVU166
 768:X-CUBE-AI/App/audio_classifier.c ****     _fc1_fc1_1_Relu_output_0_output_array.data_start = AI_PTR(g_audio_classifier_activations_map[0]
ARM GAS  /var/folders/n6/c271nzx11xl4r4_m7sqjlt0m0000gn/T//ccCJ1kuw.s 			page 24


 412              		.loc 1 768 50 is_stmt 0 view .LVU167
 413 006a 03F1A001 		add	r1, r3, #160
 768:X-CUBE-AI/App/audio_classifier.c ****     _fc1_fc1_1_Relu_output_0_output_array.data_start = AI_PTR(g_audio_classifier_activations_map[0]
 414              		.loc 1 768 48 view .LVU168
 415 006e 1D4A     		ldr	r2, .L11+48
 416 0070 9160     		str	r1, [r2, #8]
 769:X-CUBE-AI/App/audio_classifier.c ****     _fc2_fc2_0_Gemm_output_0_output_array.data = AI_PTR(g_audio_classifier_activations_map[0] + 0);
 417              		.loc 1 769 5 is_stmt 1 view .LVU169
 769:X-CUBE-AI/App/audio_classifier.c ****     _fc2_fc2_0_Gemm_output_0_output_array.data = AI_PTR(g_audio_classifier_activations_map[0] + 0);
 418              		.loc 1 769 54 is_stmt 0 view .LVU170
 419 0072 D160     		str	r1, [r2, #12]
 770:X-CUBE-AI/App/audio_classifier.c ****     _fc2_fc2_0_Gemm_output_0_output_array.data_start = AI_PTR(g_audio_classifier_activations_map[0]
 420              		.loc 1 770 5 is_stmt 1 view .LVU171
 770:X-CUBE-AI/App/audio_classifier.c ****     _fc2_fc2_0_Gemm_output_0_output_array.data_start = AI_PTR(g_audio_classifier_activations_map[0]
 421              		.loc 1 770 48 is_stmt 0 view .LVU172
 422 0074 1C4A     		ldr	r2, .L11+52
 423 0076 9360     		str	r3, [r2, #8]
 771:X-CUBE-AI/App/audio_classifier.c ****     _fc2_fc2_1_Relu_output_0_output_array.data = AI_PTR(g_audio_classifier_activations_map[0] + 128
 424              		.loc 1 771 5 is_stmt 1 view .LVU173
 771:X-CUBE-AI/App/audio_classifier.c ****     _fc2_fc2_1_Relu_output_0_output_array.data = AI_PTR(g_audio_classifier_activations_map[0] + 128
 425              		.loc 1 771 54 is_stmt 0 view .LVU174
 426 0078 D360     		str	r3, [r2, #12]
 772:X-CUBE-AI/App/audio_classifier.c ****     _fc2_fc2_1_Relu_output_0_output_array.data_start = AI_PTR(g_audio_classifier_activations_map[0]
 427              		.loc 1 772 5 is_stmt 1 view .LVU175
 772:X-CUBE-AI/App/audio_classifier.c ****     _fc2_fc2_1_Relu_output_0_output_array.data_start = AI_PTR(g_audio_classifier_activations_map[0]
 428              		.loc 1 772 50 is_stmt 0 view .LVU176
 429 007a 03F18001 		add	r1, r3, #128
 772:X-CUBE-AI/App/audio_classifier.c ****     _fc2_fc2_1_Relu_output_0_output_array.data_start = AI_PTR(g_audio_classifier_activations_map[0]
 430              		.loc 1 772 48 view .LVU177
 431 007e 1B4A     		ldr	r2, .L11+56
 432 0080 9160     		str	r1, [r2, #8]
 773:X-CUBE-AI/App/audio_classifier.c ****     _fc3_fc3_0_Gemm_output_0_output_array.data = AI_PTR(g_audio_classifier_activations_map[0] + 0);
 433              		.loc 1 773 5 is_stmt 1 view .LVU178
 773:X-CUBE-AI/App/audio_classifier.c ****     _fc3_fc3_0_Gemm_output_0_output_array.data = AI_PTR(g_audio_classifier_activations_map[0] + 0);
 434              		.loc 1 773 54 is_stmt 0 view .LVU179
 435 0082 D160     		str	r1, [r2, #12]
 774:X-CUBE-AI/App/audio_classifier.c ****     _fc3_fc3_0_Gemm_output_0_output_array.data_start = AI_PTR(g_audio_classifier_activations_map[0]
 436              		.loc 1 774 5 is_stmt 1 view .LVU180
 774:X-CUBE-AI/App/audio_classifier.c ****     _fc3_fc3_0_Gemm_output_0_output_array.data_start = AI_PTR(g_audio_classifier_activations_map[0]
 437              		.loc 1 774 48 is_stmt 0 view .LVU181
 438 0084 1A4A     		ldr	r2, .L11+60
 439 0086 9360     		str	r3, [r2, #8]
 775:X-CUBE-AI/App/audio_classifier.c ****     _fc3_fc3_1_Relu_output_0_output_array.data = AI_PTR(g_audio_classifier_activations_map[0] + 32)
 440              		.loc 1 775 5 is_stmt 1 view .LVU182
 775:X-CUBE-AI/App/audio_classifier.c ****     _fc3_fc3_1_Relu_output_0_output_array.data = AI_PTR(g_audio_classifier_activations_map[0] + 32)
 441              		.loc 1 775 54 is_stmt 0 view .LVU183
 442 0088 D360     		str	r3, [r2, #12]
 776:X-CUBE-AI/App/audio_classifier.c ****     _fc3_fc3_1_Relu_output_0_output_array.data_start = AI_PTR(g_audio_classifier_activations_map[0]
 443              		.loc 1 776 5 is_stmt 1 view .LVU184
 776:X-CUBE-AI/App/audio_classifier.c ****     _fc3_fc3_1_Relu_output_0_output_array.data_start = AI_PTR(g_audio_classifier_activations_map[0]
 444              		.loc 1 776 50 is_stmt 0 view .LVU185
 445 008a 03F12001 		add	r1, r3, #32
 776:X-CUBE-AI/App/audio_classifier.c ****     _fc3_fc3_1_Relu_output_0_output_array.data_start = AI_PTR(g_audio_classifier_activations_map[0]
 446              		.loc 1 776 48 view .LVU186
 447 008e 194A     		ldr	r2, .L11+64
 448 0090 9160     		str	r1, [r2, #8]
 777:X-CUBE-AI/App/audio_classifier.c ****     _fc4_Gemm_output_0_output_array.data = AI_PTR(g_audio_classifier_activations_map[0] + 0);
ARM GAS  /var/folders/n6/c271nzx11xl4r4_m7sqjlt0m0000gn/T//ccCJ1kuw.s 			page 25


 449              		.loc 1 777 5 is_stmt 1 view .LVU187
 777:X-CUBE-AI/App/audio_classifier.c ****     _fc4_Gemm_output_0_output_array.data = AI_PTR(g_audio_classifier_activations_map[0] + 0);
 450              		.loc 1 777 54 is_stmt 0 view .LVU188
 451 0092 D160     		str	r1, [r2, #12]
 778:X-CUBE-AI/App/audio_classifier.c ****     _fc4_Gemm_output_0_output_array.data_start = AI_PTR(g_audio_classifier_activations_map[0] + 0);
 452              		.loc 1 778 5 is_stmt 1 view .LVU189
 778:X-CUBE-AI/App/audio_classifier.c ****     _fc4_Gemm_output_0_output_array.data_start = AI_PTR(g_audio_classifier_activations_map[0] + 0);
 453              		.loc 1 778 42 is_stmt 0 view .LVU190
 454 0094 184A     		ldr	r2, .L11+68
 455 0096 9360     		str	r3, [r2, #8]
 779:X-CUBE-AI/App/audio_classifier.c ****     output_output_array.data = AI_PTR(g_audio_classifier_activations_map[0] + 16);
 456              		.loc 1 779 5 is_stmt 1 view .LVU191
 779:X-CUBE-AI/App/audio_classifier.c ****     output_output_array.data = AI_PTR(g_audio_classifier_activations_map[0] + 16);
 457              		.loc 1 779 48 is_stmt 0 view .LVU192
 458 0098 D360     		str	r3, [r2, #12]
 780:X-CUBE-AI/App/audio_classifier.c ****     output_output_array.data_start = AI_PTR(g_audio_classifier_activations_map[0] + 16);
 459              		.loc 1 780 5 is_stmt 1 view .LVU193
 780:X-CUBE-AI/App/audio_classifier.c ****     output_output_array.data_start = AI_PTR(g_audio_classifier_activations_map[0] + 16);
 460              		.loc 1 780 32 is_stmt 0 view .LVU194
 461 009a 1033     		adds	r3, r3, #16
 780:X-CUBE-AI/App/audio_classifier.c ****     output_output_array.data_start = AI_PTR(g_audio_classifier_activations_map[0] + 16);
 462              		.loc 1 780 30 view .LVU195
 463 009c 174A     		ldr	r2, .L11+72
 464 009e 9360     		str	r3, [r2, #8]
 781:X-CUBE-AI/App/audio_classifier.c ****     return true;
 465              		.loc 1 781 5 is_stmt 1 view .LVU196
 781:X-CUBE-AI/App/audio_classifier.c ****     return true;
 466              		.loc 1 781 36 is_stmt 0 view .LVU197
 467 00a0 D360     		str	r3, [r2, #12]
 782:X-CUBE-AI/App/audio_classifier.c ****   }
 468              		.loc 1 782 5 is_stmt 1 view .LVU198
 469              	.L9:
 786:X-CUBE-AI/App/audio_classifier.c **** 
 470              		.loc 1 786 1 is_stmt 0 view .LVU199
 471 00a2 2846     		mov	r0, r5
 472 00a4 38BD     		pop	{r3, r4, r5, pc}
 473              	.LVL10:
 474              	.L8:
 784:X-CUBE-AI/App/audio_classifier.c ****   return false;
 475              		.loc 1 784 3 is_stmt 1 view .LVU200
 476 00a6 1322     		movs	r2, #19
 477 00a8 3021     		movs	r1, #48
 478 00aa 2046     		mov	r0, r4
 479 00ac FFF7FEFF 		bl	ai_platform_network_set_error
 480              	.LVL11:
 785:X-CUBE-AI/App/audio_classifier.c **** }
 481              		.loc 1 785 3 view .LVU201
 785:X-CUBE-AI/App/audio_classifier.c **** }
 482              		.loc 1 785 10 is_stmt 0 view .LVU202
 483 00b0 F7E7     		b	.L9
 484              	.L12:
 485 00b2 00BF     		.align	2
 486              	.L11:
 487 00b4 00000000 		.word	g_audio_classifier_activations_map
 488 00b8 00000000 		.word	input_output_array
 489 00bc 00000000 		.word	_conv1_conv1_0_Conv_output_0_scratch0_array
 490 00c0 00000000 		.word	_conv1_conv1_0_Conv_output_0_output_array
ARM GAS  /var/folders/n6/c271nzx11xl4r4_m7sqjlt0m0000gn/T//ccCJ1kuw.s 			page 26


 491 00c4 00000000 		.word	_conv1_conv1_1_Relu_output_0_output_array
 492 00c8 00000000 		.word	_conv1_conv1_2_MaxPool_output_0_output_array
 493 00cc 00000000 		.word	_conv2_conv2_0_Conv_output_0_scratch0_array
 494 00d0 00000000 		.word	_conv2_conv2_0_Conv_output_0_output_array
 495 00d4 00000000 		.word	_conv2_conv2_1_Relu_output_0_output_array
 496 00d8 00000000 		.word	_conv2_conv2_2_MaxPool_output_0_output_array
 497 00dc 00000000 		.word	_flatten_Flatten_output_0_to_chlast_output_array
 498 00e0 00000000 		.word	_fc1_fc1_0_Gemm_output_0_output_array
 499 00e4 00000000 		.word	_fc1_fc1_1_Relu_output_0_output_array
 500 00e8 00000000 		.word	_fc2_fc2_0_Gemm_output_0_output_array
 501 00ec 00000000 		.word	_fc2_fc2_1_Relu_output_0_output_array
 502 00f0 00000000 		.word	_fc3_fc3_0_Gemm_output_0_output_array
 503 00f4 00000000 		.word	_fc3_fc3_1_Relu_output_0_output_array
 504 00f8 00000000 		.word	_fc4_Gemm_output_0_output_array
 505 00fc 00000000 		.word	output_output_array
 506              		.cfi_endproc
 507              	.LFE2:
 509              		.section	.rodata.ai_audio_classifier_get_info.str1.4,"aMS",%progbits,1
 510              		.align	2
 511              	.LC0:
 512 0000 61756469 		.ascii	"audio_classifier\000"
 512      6F5F636C 
 512      61737369 
 512      66696572 
 512      00
 513 0011 000000   		.align	2
 514              	.LC1:
 515 0014 30786131 		.ascii	"0xa1b612fd02abb0dd6389601db2ec0f4e\000"
 515      62363132 
 515      66643032 
 515      61626230 
 515      64643633 
 516 0037 00       		.align	2
 517              	.LC2:
 518 0038 32303235 		.ascii	"2025-01-13T16:52:02+0100\000"
 518      2D30312D 
 518      31335431 
 518      363A3532 
 518      3A30322B 
 519 0051 000000   		.align	2
 520              	.LC3:
 521 0054 4A616E20 		.ascii	"Jan 15 2025 15:12:41\000"
 521      31352032 
 521      30323520 
 521      31353A31 
 521      323A3431 
 522 0069 000000   		.align	2
 523              	.LC4:
 524 006c 00       		.ascii	"\000"
 525              		.section	.text.ai_audio_classifier_get_info,"ax",%progbits
 526              		.align	1
 527              		.global	ai_audio_classifier_get_info
 528              		.syntax unified
 529              		.thumb
 530              		.thumb_func
 532              	ai_audio_classifier_get_info:
 533              	.LVL12:
ARM GAS  /var/folders/n6/c271nzx11xl4r4_m7sqjlt0m0000gn/T//ccCJ1kuw.s 			page 27


 534              	.LFB4:
 842:X-CUBE-AI/App/audio_classifier.c **** 
 843:X-CUBE-AI/App/audio_classifier.c **** 
 844:X-CUBE-AI/App/audio_classifier.c **** /**  PUBLIC APIs SECTION  *****************************************************/
 845:X-CUBE-AI/App/audio_classifier.c **** 
 846:X-CUBE-AI/App/audio_classifier.c **** 
 847:X-CUBE-AI/App/audio_classifier.c **** 
 848:X-CUBE-AI/App/audio_classifier.c **** AI_DEPRECATED
 849:X-CUBE-AI/App/audio_classifier.c **** AI_API_ENTRY
 850:X-CUBE-AI/App/audio_classifier.c **** ai_bool ai_audio_classifier_get_info(
 851:X-CUBE-AI/App/audio_classifier.c ****   ai_handle network, ai_network_report* report)
 852:X-CUBE-AI/App/audio_classifier.c **** {
 535              		.loc 1 852 1 is_stmt 1 view -0
 536              		.cfi_startproc
 537              		@ args = 0, pretend = 0, frame = 136
 538              		@ frame_needed = 0, uses_anonymous_args = 0
 539              		.loc 1 852 1 is_stmt 0 view .LVU204
 540 0000 70B5     		push	{r4, r5, r6, lr}
 541              		.cfi_def_cfa_offset 16
 542              		.cfi_offset 4, -16
 543              		.cfi_offset 5, -12
 544              		.cfi_offset 6, -8
 545              		.cfi_offset 14, -4
 546 0002 A2B0     		sub	sp, sp, #136
 547              		.cfi_def_cfa_offset 152
 548 0004 0646     		mov	r6, r0
 549 0006 0D46     		mov	r5, r1
 853:X-CUBE-AI/App/audio_classifier.c ****   ai_network* net_ctx = AI_NETWORK_ACQUIRE_CTX(network);
 550              		.loc 1 853 3 is_stmt 1 view .LVU205
 551              		.loc 1 853 25 is_stmt 0 view .LVU206
 552 0008 FFF7FEFF 		bl	ai_platform_context_acquire
 553              	.LVL13:
 854:X-CUBE-AI/App/audio_classifier.c **** 
 855:X-CUBE-AI/App/audio_classifier.c ****   if (report && net_ctx)
 554              		.loc 1 855 3 is_stmt 1 view .LVU207
 555              		.loc 1 855 6 is_stmt 0 view .LVU208
 556 000c 002D     		cmp	r5, #0
 557 000e 18BF     		it	ne
 558 0010 0028     		cmpne	r0, #0
 559 0012 14BF     		ite	ne
 560 0014 0124     		movne	r4, #1
 561 0016 0024     		moveq	r4, #0
 562 0018 02D1     		bne	.L17
 563              	.LVL14:
 564              	.L14:
 856:X-CUBE-AI/App/audio_classifier.c ****   {
 857:X-CUBE-AI/App/audio_classifier.c ****     ai_network_report r = {
 858:X-CUBE-AI/App/audio_classifier.c ****       .model_name        = AI_AUDIO_CLASSIFIER_MODEL_NAME,
 859:X-CUBE-AI/App/audio_classifier.c ****       .model_signature   = AI_AUDIO_CLASSIFIER_MODEL_SIGNATURE,
 860:X-CUBE-AI/App/audio_classifier.c ****       .model_datetime    = AI_TOOLS_DATE_TIME,
 861:X-CUBE-AI/App/audio_classifier.c ****       
 862:X-CUBE-AI/App/audio_classifier.c ****       .compile_datetime  = AI_TOOLS_COMPILE_TIME,
 863:X-CUBE-AI/App/audio_classifier.c ****       
 864:X-CUBE-AI/App/audio_classifier.c ****       .runtime_revision  = ai_platform_runtime_get_revision(),
 865:X-CUBE-AI/App/audio_classifier.c ****       .runtime_version   = ai_platform_runtime_get_version(),
 866:X-CUBE-AI/App/audio_classifier.c **** 
 867:X-CUBE-AI/App/audio_classifier.c ****       .tool_revision     = AI_TOOLS_REVISION_ID,
ARM GAS  /var/folders/n6/c271nzx11xl4r4_m7sqjlt0m0000gn/T//ccCJ1kuw.s 			page 28


 868:X-CUBE-AI/App/audio_classifier.c ****       .tool_version      = {AI_TOOLS_VERSION_MAJOR, AI_TOOLS_VERSION_MINOR,
 869:X-CUBE-AI/App/audio_classifier.c ****                             AI_TOOLS_VERSION_MICRO, 0x0},
 870:X-CUBE-AI/App/audio_classifier.c ****       .tool_api_version  = AI_STRUCT_INIT,
 871:X-CUBE-AI/App/audio_classifier.c **** 
 872:X-CUBE-AI/App/audio_classifier.c ****       .api_version            = ai_platform_api_get_version(),
 873:X-CUBE-AI/App/audio_classifier.c ****       .interface_api_version  = ai_platform_interface_api_get_version(),
 874:X-CUBE-AI/App/audio_classifier.c ****       
 875:X-CUBE-AI/App/audio_classifier.c ****       .n_macc            = 226004,
 876:X-CUBE-AI/App/audio_classifier.c ****       .n_inputs          = 0,
 877:X-CUBE-AI/App/audio_classifier.c ****       .inputs            = NULL,
 878:X-CUBE-AI/App/audio_classifier.c ****       .n_outputs         = 0,
 879:X-CUBE-AI/App/audio_classifier.c ****       .outputs           = NULL,
 880:X-CUBE-AI/App/audio_classifier.c ****       .params            = AI_STRUCT_INIT,
 881:X-CUBE-AI/App/audio_classifier.c ****       .activations       = AI_STRUCT_INIT,
 882:X-CUBE-AI/App/audio_classifier.c ****       .n_nodes           = 0,
 883:X-CUBE-AI/App/audio_classifier.c ****       .signature         = 0x8817c493,
 884:X-CUBE-AI/App/audio_classifier.c ****     };
 885:X-CUBE-AI/App/audio_classifier.c **** 
 886:X-CUBE-AI/App/audio_classifier.c ****     if (!ai_platform_api_get_network_report(network, &r)) return false;
 887:X-CUBE-AI/App/audio_classifier.c **** 
 888:X-CUBE-AI/App/audio_classifier.c ****     *report = r;
 889:X-CUBE-AI/App/audio_classifier.c ****     return true;
 890:X-CUBE-AI/App/audio_classifier.c ****   }
 891:X-CUBE-AI/App/audio_classifier.c ****   return false;
 892:X-CUBE-AI/App/audio_classifier.c **** }
 565              		.loc 1 892 1 view .LVU209
 566 001a 2046     		mov	r0, r4
 567 001c 22B0     		add	sp, sp, #136
 568              		.cfi_remember_state
 569              		.cfi_def_cfa_offset 16
 570              		@ sp needed
 571 001e 70BD     		pop	{r4, r5, r6, pc}
 572              	.LVL15:
 573              	.L17:
 574              		.cfi_restore_state
 575              	.LBB2:
 857:X-CUBE-AI/App/audio_classifier.c ****       .model_name        = AI_AUDIO_CLASSIFIER_MODEL_NAME,
 576              		.loc 1 857 5 is_stmt 1 view .LVU210
 857:X-CUBE-AI/App/audio_classifier.c ****       .model_name        = AI_AUDIO_CLASSIFIER_MODEL_NAME,
 577              		.loc 1 857 23 is_stmt 0 view .LVU211
 578 0020 8822     		movs	r2, #136
 579 0022 0021     		movs	r1, #0
 580 0024 6846     		mov	r0, sp
 581              	.LVL16:
 857:X-CUBE-AI/App/audio_classifier.c ****       .model_name        = AI_AUDIO_CLASSIFIER_MODEL_NAME,
 582              		.loc 1 857 23 view .LVU212
 583 0026 FFF7FEFF 		bl	memset
 584              	.LVL17:
 585 002a 164B     		ldr	r3, .L18
 586 002c 0093     		str	r3, [sp]
 587 002e 164B     		ldr	r3, .L18+4
 588 0030 0193     		str	r3, [sp, #4]
 589 0032 164B     		ldr	r3, .L18+8
 590 0034 0293     		str	r3, [sp, #8]
 591 0036 164B     		ldr	r3, .L18+12
 592 0038 0393     		str	r3, [sp, #12]
 864:X-CUBE-AI/App/audio_classifier.c ****       .runtime_version   = ai_platform_runtime_get_version(),
ARM GAS  /var/folders/n6/c271nzx11xl4r4_m7sqjlt0m0000gn/T//ccCJ1kuw.s 			page 29


 593              		.loc 1 864 28 view .LVU213
 594 003a FFF7FEFF 		bl	ai_platform_runtime_get_revision
 595              	.LVL18:
 857:X-CUBE-AI/App/audio_classifier.c ****       .model_name        = AI_AUDIO_CLASSIFIER_MODEL_NAME,
 596              		.loc 1 857 23 view .LVU214
 597 003e 0490     		str	r0, [sp, #16]
 865:X-CUBE-AI/App/audio_classifier.c **** 
 598              		.loc 1 865 28 view .LVU215
 599 0040 FFF7FEFF 		bl	ai_platform_runtime_get_version
 600              	.LVL19:
 601 0044 0590     		str	r0, [sp, #20]
 857:X-CUBE-AI/App/audio_classifier.c ****       .model_name        = AI_AUDIO_CLASSIFIER_MODEL_NAME,
 602              		.loc 1 857 23 view .LVU216
 603 0046 134B     		ldr	r3, .L18+16
 604 0048 0693     		str	r3, [sp, #24]
 605 004a 0123     		movs	r3, #1
 606 004c 8DF81C30 		strb	r3, [sp, #28]
 872:X-CUBE-AI/App/audio_classifier.c ****       .interface_api_version  = ai_platform_interface_api_get_version(),
 607              		.loc 1 872 33 view .LVU217
 608 0050 FFF7FEFF 		bl	ai_platform_api_get_version
 609              	.LVL20:
 610 0054 0990     		str	r0, [sp, #36]
 873:X-CUBE-AI/App/audio_classifier.c ****       
 611              		.loc 1 873 33 view .LVU218
 612 0056 FFF7FEFF 		bl	ai_platform_interface_api_get_version
 613              	.LVL21:
 614 005a 0A90     		str	r0, [sp, #40]
 857:X-CUBE-AI/App/audio_classifier.c ****       .model_name        = AI_AUDIO_CLASSIFIER_MODEL_NAME,
 615              		.loc 1 857 23 view .LVU219
 616 005c 0E4A     		ldr	r2, .L18+20
 617 005e 0023     		movs	r3, #0
 618 0060 CDE90C23 		strd	r2, [sp, #48]
 619 0064 0D4B     		ldr	r3, .L18+24
 620 0066 2093     		str	r3, [sp, #128]
 886:X-CUBE-AI/App/audio_classifier.c **** 
 621              		.loc 1 886 5 is_stmt 1 view .LVU220
 886:X-CUBE-AI/App/audio_classifier.c **** 
 622              		.loc 1 886 10 is_stmt 0 view .LVU221
 623 0068 6946     		mov	r1, sp
 624 006a 3046     		mov	r0, r6
 625 006c FFF7FEFF 		bl	ai_platform_api_get_network_report
 626              	.LVL22:
 886:X-CUBE-AI/App/audio_classifier.c **** 
 627              		.loc 1 886 8 discriminator 1 view .LVU222
 628 0070 0446     		mov	r4, r0
 629 0072 0028     		cmp	r0, #0
 630 0074 D1D0     		beq	.L14
 888:X-CUBE-AI/App/audio_classifier.c ****     return true;
 631              		.loc 1 888 5 is_stmt 1 view .LVU223
 888:X-CUBE-AI/App/audio_classifier.c ****     return true;
 632              		.loc 1 888 13 is_stmt 0 view .LVU224
 633 0076 8822     		movs	r2, #136
 634 0078 6946     		mov	r1, sp
 635 007a 2846     		mov	r0, r5
 636 007c FFF7FEFF 		bl	memcpy
 637              	.LVL23:
 889:X-CUBE-AI/App/audio_classifier.c ****   }
ARM GAS  /var/folders/n6/c271nzx11xl4r4_m7sqjlt0m0000gn/T//ccCJ1kuw.s 			page 30


 638              		.loc 1 889 5 is_stmt 1 view .LVU225
 889:X-CUBE-AI/App/audio_classifier.c ****   }
 639              		.loc 1 889 12 is_stmt 0 view .LVU226
 640 0080 CBE7     		b	.L14
 641              	.L19:
 642 0082 00BF     		.align	2
 643              	.L18:
 644 0084 00000000 		.word	.LC0
 645 0088 14000000 		.word	.LC1
 646 008c 38000000 		.word	.LC2
 647 0090 54000000 		.word	.LC3
 648 0094 6C000000 		.word	.LC4
 649 0098 D4720300 		.word	226004
 650 009c 93C41788 		.word	-2011708269
 651              	.LBE2:
 652              		.cfi_endproc
 653              	.LFE4:
 655              		.section	.text.ai_audio_classifier_get_report,"ax",%progbits
 656              		.align	1
 657              		.global	ai_audio_classifier_get_report
 658              		.syntax unified
 659              		.thumb
 660              		.thumb_func
 662              	ai_audio_classifier_get_report:
 663              	.LVL24:
 664              	.LFB5:
 893:X-CUBE-AI/App/audio_classifier.c **** 
 894:X-CUBE-AI/App/audio_classifier.c **** 
 895:X-CUBE-AI/App/audio_classifier.c **** 
 896:X-CUBE-AI/App/audio_classifier.c **** AI_API_ENTRY
 897:X-CUBE-AI/App/audio_classifier.c **** ai_bool ai_audio_classifier_get_report(
 898:X-CUBE-AI/App/audio_classifier.c ****   ai_handle network, ai_network_report* report)
 899:X-CUBE-AI/App/audio_classifier.c **** {
 665              		.loc 1 899 1 is_stmt 1 view -0
 666              		.cfi_startproc
 667              		@ args = 0, pretend = 0, frame = 136
 668              		@ frame_needed = 0, uses_anonymous_args = 0
 669              		.loc 1 899 1 is_stmt 0 view .LVU228
 670 0000 70B5     		push	{r4, r5, r6, lr}
 671              		.cfi_def_cfa_offset 16
 672              		.cfi_offset 4, -16
 673              		.cfi_offset 5, -12
 674              		.cfi_offset 6, -8
 675              		.cfi_offset 14, -4
 676 0002 A2B0     		sub	sp, sp, #136
 677              		.cfi_def_cfa_offset 152
 678 0004 0646     		mov	r6, r0
 679 0006 0D46     		mov	r5, r1
 900:X-CUBE-AI/App/audio_classifier.c ****   ai_network* net_ctx = AI_NETWORK_ACQUIRE_CTX(network);
 680              		.loc 1 900 3 is_stmt 1 view .LVU229
 681              		.loc 1 900 25 is_stmt 0 view .LVU230
 682 0008 FFF7FEFF 		bl	ai_platform_context_acquire
 683              	.LVL25:
 901:X-CUBE-AI/App/audio_classifier.c **** 
 902:X-CUBE-AI/App/audio_classifier.c ****   if (report && net_ctx)
 684              		.loc 1 902 3 is_stmt 1 view .LVU231
 685              		.loc 1 902 6 is_stmt 0 view .LVU232
ARM GAS  /var/folders/n6/c271nzx11xl4r4_m7sqjlt0m0000gn/T//ccCJ1kuw.s 			page 31


 686 000c 002D     		cmp	r5, #0
 687 000e 18BF     		it	ne
 688 0010 0028     		cmpne	r0, #0
 689 0012 14BF     		ite	ne
 690 0014 0124     		movne	r4, #1
 691 0016 0024     		moveq	r4, #0
 692 0018 02D1     		bne	.L24
 693              	.LVL26:
 694              	.L21:
 903:X-CUBE-AI/App/audio_classifier.c ****   {
 904:X-CUBE-AI/App/audio_classifier.c ****     ai_network_report r = {
 905:X-CUBE-AI/App/audio_classifier.c ****       .model_name        = AI_AUDIO_CLASSIFIER_MODEL_NAME,
 906:X-CUBE-AI/App/audio_classifier.c ****       .model_signature   = AI_AUDIO_CLASSIFIER_MODEL_SIGNATURE,
 907:X-CUBE-AI/App/audio_classifier.c ****       .model_datetime    = AI_TOOLS_DATE_TIME,
 908:X-CUBE-AI/App/audio_classifier.c ****       
 909:X-CUBE-AI/App/audio_classifier.c ****       .compile_datetime  = AI_TOOLS_COMPILE_TIME,
 910:X-CUBE-AI/App/audio_classifier.c ****       
 911:X-CUBE-AI/App/audio_classifier.c ****       .runtime_revision  = ai_platform_runtime_get_revision(),
 912:X-CUBE-AI/App/audio_classifier.c ****       .runtime_version   = ai_platform_runtime_get_version(),
 913:X-CUBE-AI/App/audio_classifier.c **** 
 914:X-CUBE-AI/App/audio_classifier.c ****       .tool_revision     = AI_TOOLS_REVISION_ID,
 915:X-CUBE-AI/App/audio_classifier.c ****       .tool_version      = {AI_TOOLS_VERSION_MAJOR, AI_TOOLS_VERSION_MINOR,
 916:X-CUBE-AI/App/audio_classifier.c ****                             AI_TOOLS_VERSION_MICRO, 0x0},
 917:X-CUBE-AI/App/audio_classifier.c ****       .tool_api_version  = AI_STRUCT_INIT,
 918:X-CUBE-AI/App/audio_classifier.c **** 
 919:X-CUBE-AI/App/audio_classifier.c ****       .api_version            = ai_platform_api_get_version(),
 920:X-CUBE-AI/App/audio_classifier.c ****       .interface_api_version  = ai_platform_interface_api_get_version(),
 921:X-CUBE-AI/App/audio_classifier.c ****       
 922:X-CUBE-AI/App/audio_classifier.c ****       .n_macc            = 226004,
 923:X-CUBE-AI/App/audio_classifier.c ****       .n_inputs          = 0,
 924:X-CUBE-AI/App/audio_classifier.c ****       .inputs            = NULL,
 925:X-CUBE-AI/App/audio_classifier.c ****       .n_outputs         = 0,
 926:X-CUBE-AI/App/audio_classifier.c ****       .outputs           = NULL,
 927:X-CUBE-AI/App/audio_classifier.c ****       .map_signature     = AI_MAGIC_SIGNATURE,
 928:X-CUBE-AI/App/audio_classifier.c ****       .map_weights       = AI_STRUCT_INIT,
 929:X-CUBE-AI/App/audio_classifier.c ****       .map_activations   = AI_STRUCT_INIT,
 930:X-CUBE-AI/App/audio_classifier.c ****       .n_nodes           = 0,
 931:X-CUBE-AI/App/audio_classifier.c ****       .signature         = 0x8817c493,
 932:X-CUBE-AI/App/audio_classifier.c ****     };
 933:X-CUBE-AI/App/audio_classifier.c **** 
 934:X-CUBE-AI/App/audio_classifier.c ****     if (!ai_platform_api_get_network_report(network, &r)) return false;
 935:X-CUBE-AI/App/audio_classifier.c **** 
 936:X-CUBE-AI/App/audio_classifier.c ****     *report = r;
 937:X-CUBE-AI/App/audio_classifier.c ****     return true;
 938:X-CUBE-AI/App/audio_classifier.c ****   }
 939:X-CUBE-AI/App/audio_classifier.c ****   return false;
 940:X-CUBE-AI/App/audio_classifier.c **** }
 695              		.loc 1 940 1 view .LVU233
 696 001a 2046     		mov	r0, r4
 697 001c 22B0     		add	sp, sp, #136
 698              		.cfi_remember_state
 699              		.cfi_def_cfa_offset 16
 700              		@ sp needed
 701 001e 70BD     		pop	{r4, r5, r6, pc}
 702              	.LVL27:
 703              	.L24:
 704              		.cfi_restore_state
ARM GAS  /var/folders/n6/c271nzx11xl4r4_m7sqjlt0m0000gn/T//ccCJ1kuw.s 			page 32


 705              	.LBB3:
 904:X-CUBE-AI/App/audio_classifier.c ****       .model_name        = AI_AUDIO_CLASSIFIER_MODEL_NAME,
 706              		.loc 1 904 5 is_stmt 1 view .LVU234
 904:X-CUBE-AI/App/audio_classifier.c ****       .model_name        = AI_AUDIO_CLASSIFIER_MODEL_NAME,
 707              		.loc 1 904 23 is_stmt 0 view .LVU235
 708 0020 8822     		movs	r2, #136
 709 0022 0021     		movs	r1, #0
 710 0024 6846     		mov	r0, sp
 711              	.LVL28:
 904:X-CUBE-AI/App/audio_classifier.c ****       .model_name        = AI_AUDIO_CLASSIFIER_MODEL_NAME,
 712              		.loc 1 904 23 view .LVU236
 713 0026 FFF7FEFF 		bl	memset
 714              	.LVL29:
 715 002a 174B     		ldr	r3, .L25
 716 002c 0093     		str	r3, [sp]
 717 002e 174B     		ldr	r3, .L25+4
 718 0030 0193     		str	r3, [sp, #4]
 719 0032 174B     		ldr	r3, .L25+8
 720 0034 0293     		str	r3, [sp, #8]
 721 0036 174B     		ldr	r3, .L25+12
 722 0038 0393     		str	r3, [sp, #12]
 911:X-CUBE-AI/App/audio_classifier.c ****       .runtime_version   = ai_platform_runtime_get_version(),
 723              		.loc 1 911 28 view .LVU237
 724 003a FFF7FEFF 		bl	ai_platform_runtime_get_revision
 725              	.LVL30:
 904:X-CUBE-AI/App/audio_classifier.c ****       .model_name        = AI_AUDIO_CLASSIFIER_MODEL_NAME,
 726              		.loc 1 904 23 view .LVU238
 727 003e 0490     		str	r0, [sp, #16]
 912:X-CUBE-AI/App/audio_classifier.c **** 
 728              		.loc 1 912 28 view .LVU239
 729 0040 FFF7FEFF 		bl	ai_platform_runtime_get_version
 730              	.LVL31:
 731 0044 0590     		str	r0, [sp, #20]
 904:X-CUBE-AI/App/audio_classifier.c ****       .model_name        = AI_AUDIO_CLASSIFIER_MODEL_NAME,
 732              		.loc 1 904 23 view .LVU240
 733 0046 144B     		ldr	r3, .L25+16
 734 0048 0693     		str	r3, [sp, #24]
 735 004a 0123     		movs	r3, #1
 736 004c 8DF81C30 		strb	r3, [sp, #28]
 919:X-CUBE-AI/App/audio_classifier.c ****       .interface_api_version  = ai_platform_interface_api_get_version(),
 737              		.loc 1 919 33 view .LVU241
 738 0050 FFF7FEFF 		bl	ai_platform_api_get_version
 739              	.LVL32:
 740 0054 0990     		str	r0, [sp, #36]
 920:X-CUBE-AI/App/audio_classifier.c ****       
 741              		.loc 1 920 33 view .LVU242
 742 0056 FFF7FEFF 		bl	ai_platform_interface_api_get_version
 743              	.LVL33:
 744 005a 0A90     		str	r0, [sp, #40]
 904:X-CUBE-AI/App/audio_classifier.c ****       .model_name        = AI_AUDIO_CLASSIFIER_MODEL_NAME,
 745              		.loc 1 904 23 view .LVU243
 746 005c 0F4A     		ldr	r2, .L25+20
 747 005e 0023     		movs	r3, #0
 748 0060 CDE90C23 		strd	r2, [sp, #48]
 749 0064 0E4B     		ldr	r3, .L25+24
 750 0066 1193     		str	r3, [sp, #68]
 751 0068 0E4B     		ldr	r3, .L25+28
ARM GAS  /var/folders/n6/c271nzx11xl4r4_m7sqjlt0m0000gn/T//ccCJ1kuw.s 			page 33


 752 006a 2093     		str	r3, [sp, #128]
 934:X-CUBE-AI/App/audio_classifier.c **** 
 753              		.loc 1 934 5 is_stmt 1 view .LVU244
 934:X-CUBE-AI/App/audio_classifier.c **** 
 754              		.loc 1 934 10 is_stmt 0 view .LVU245
 755 006c 6946     		mov	r1, sp
 756 006e 3046     		mov	r0, r6
 757 0070 FFF7FEFF 		bl	ai_platform_api_get_network_report
 758              	.LVL34:
 934:X-CUBE-AI/App/audio_classifier.c **** 
 759              		.loc 1 934 8 discriminator 1 view .LVU246
 760 0074 0446     		mov	r4, r0
 761 0076 0028     		cmp	r0, #0
 762 0078 CFD0     		beq	.L21
 936:X-CUBE-AI/App/audio_classifier.c ****     return true;
 763              		.loc 1 936 5 is_stmt 1 view .LVU247
 936:X-CUBE-AI/App/audio_classifier.c ****     return true;
 764              		.loc 1 936 13 is_stmt 0 view .LVU248
 765 007a 8822     		movs	r2, #136
 766 007c 6946     		mov	r1, sp
 767 007e 2846     		mov	r0, r5
 768 0080 FFF7FEFF 		bl	memcpy
 769              	.LVL35:
 937:X-CUBE-AI/App/audio_classifier.c ****   }
 770              		.loc 1 937 5 is_stmt 1 view .LVU249
 937:X-CUBE-AI/App/audio_classifier.c ****   }
 771              		.loc 1 937 12 is_stmt 0 view .LVU250
 772 0084 C9E7     		b	.L21
 773              	.L26:
 774 0086 00BF     		.align	2
 775              	.L25:
 776 0088 00000000 		.word	.LC0
 777 008c 14000000 		.word	.LC1
 778 0090 38000000 		.word	.LC2
 779 0094 54000000 		.word	.LC3
 780 0098 6C000000 		.word	.LC4
 781 009c D4720300 		.word	226004
 782 00a0 DECAFAA1 		.word	-1577399586
 783 00a4 93C41788 		.word	-2011708269
 784              	.LBE3:
 785              		.cfi_endproc
 786              	.LFE5:
 788              		.section	.text.ai_audio_classifier_get_error,"ax",%progbits
 789              		.align	1
 790              		.global	ai_audio_classifier_get_error
 791              		.syntax unified
 792              		.thumb
 793              		.thumb_func
 795              	ai_audio_classifier_get_error:
 796              	.LVL36:
 797              	.LFB6:
 941:X-CUBE-AI/App/audio_classifier.c **** 
 942:X-CUBE-AI/App/audio_classifier.c **** 
 943:X-CUBE-AI/App/audio_classifier.c **** AI_API_ENTRY
 944:X-CUBE-AI/App/audio_classifier.c **** ai_error ai_audio_classifier_get_error(ai_handle network)
 945:X-CUBE-AI/App/audio_classifier.c **** {
 798              		.loc 1 945 1 is_stmt 1 view -0
ARM GAS  /var/folders/n6/c271nzx11xl4r4_m7sqjlt0m0000gn/T//ccCJ1kuw.s 			page 34


 799              		.cfi_startproc
 800              		@ args = 0, pretend = 0, frame = 0
 801              		@ frame_needed = 0, uses_anonymous_args = 0
 802              		.loc 1 945 1 is_stmt 0 view .LVU252
 803 0000 08B5     		push	{r3, lr}
 804              		.cfi_def_cfa_offset 8
 805              		.cfi_offset 3, -8
 806              		.cfi_offset 14, -4
 946:X-CUBE-AI/App/audio_classifier.c ****   return ai_platform_network_get_error(network);
 807              		.loc 1 946 3 is_stmt 1 view .LVU253
 808              		.loc 1 946 10 is_stmt 0 view .LVU254
 809 0002 FFF7FEFF 		bl	ai_platform_network_get_error
 810              	.LVL37:
 947:X-CUBE-AI/App/audio_classifier.c **** }
 811              		.loc 1 947 1 view .LVU255
 812 0006 08BD     		pop	{r3, pc}
 813              		.cfi_endproc
 814              	.LFE6:
 816              		.section	.text.ai_audio_classifier_create,"ax",%progbits
 817              		.align	1
 818              		.global	ai_audio_classifier_create
 819              		.syntax unified
 820              		.thumb
 821              		.thumb_func
 823              	ai_audio_classifier_create:
 824              	.LVL38:
 825              	.LFB7:
 948:X-CUBE-AI/App/audio_classifier.c **** 
 949:X-CUBE-AI/App/audio_classifier.c **** 
 950:X-CUBE-AI/App/audio_classifier.c **** AI_API_ENTRY
 951:X-CUBE-AI/App/audio_classifier.c **** ai_error ai_audio_classifier_create(
 952:X-CUBE-AI/App/audio_classifier.c ****   ai_handle* network, const ai_buffer* network_config)
 953:X-CUBE-AI/App/audio_classifier.c **** {
 826              		.loc 1 953 1 is_stmt 1 view -0
 827              		.cfi_startproc
 828              		@ args = 0, pretend = 0, frame = 0
 829              		@ frame_needed = 0, uses_anonymous_args = 0
 830              		.loc 1 953 1 is_stmt 0 view .LVU257
 831 0000 00B5     		push	{lr}
 832              		.cfi_def_cfa_offset 4
 833              		.cfi_offset 14, -4
 834 0002 83B0     		sub	sp, sp, #12
 835              		.cfi_def_cfa_offset 16
 954:X-CUBE-AI/App/audio_classifier.c ****   return ai_platform_network_create(
 836              		.loc 1 954 3 is_stmt 1 view .LVU258
 837              		.loc 1 954 10 is_stmt 0 view .LVU259
 838 0004 0023     		movs	r3, #0
 839 0006 0193     		str	r3, [sp, #4]
 840 0008 0523     		movs	r3, #5
 841 000a 0093     		str	r3, [sp]
 842 000c 0123     		movs	r3, #1
 843 000e 034A     		ldr	r2, .L31
 844 0010 FFF7FEFF 		bl	ai_platform_network_create
 845              	.LVL39:
 955:X-CUBE-AI/App/audio_classifier.c ****     network, network_config, 
 956:X-CUBE-AI/App/audio_classifier.c ****     AI_CONTEXT_OBJ(&AI_NET_OBJ_INSTANCE),
 957:X-CUBE-AI/App/audio_classifier.c ****     AI_TOOLS_API_VERSION_MAJOR, AI_TOOLS_API_VERSION_MINOR, AI_TOOLS_API_VERSION_MICRO);
ARM GAS  /var/folders/n6/c271nzx11xl4r4_m7sqjlt0m0000gn/T//ccCJ1kuw.s 			page 35


 958:X-CUBE-AI/App/audio_classifier.c **** }
 846              		.loc 1 958 1 view .LVU260
 847 0014 03B0     		add	sp, sp, #12
 848              		.cfi_def_cfa_offset 4
 849              		@ sp needed
 850 0016 5DF804FB 		ldr	pc, [sp], #4
 851              	.L32:
 852 001a 00BF     		.align	2
 853              	.L31:
 854 001c 00000000 		.word	g_audio_classifier
 855              		.cfi_endproc
 856              	.LFE7:
 858              		.section	.text.ai_audio_classifier_inputs_get,"ax",%progbits
 859              		.align	1
 860              		.global	ai_audio_classifier_inputs_get
 861              		.syntax unified
 862              		.thumb
 863              		.thumb_func
 865              	ai_audio_classifier_inputs_get:
 866              	.LVL40:
 867              	.LFB9:
 959:X-CUBE-AI/App/audio_classifier.c **** 
 960:X-CUBE-AI/App/audio_classifier.c **** 
 961:X-CUBE-AI/App/audio_classifier.c **** AI_API_ENTRY
 962:X-CUBE-AI/App/audio_classifier.c **** ai_error ai_audio_classifier_create_and_init(
 963:X-CUBE-AI/App/audio_classifier.c ****   ai_handle* network, const ai_handle activations[], const ai_handle weights[])
 964:X-CUBE-AI/App/audio_classifier.c **** {
 965:X-CUBE-AI/App/audio_classifier.c ****   ai_error err;
 966:X-CUBE-AI/App/audio_classifier.c ****   ai_network_params params;
 967:X-CUBE-AI/App/audio_classifier.c **** 
 968:X-CUBE-AI/App/audio_classifier.c ****   err = ai_audio_classifier_create(network, AI_AUDIO_CLASSIFIER_DATA_CONFIG);
 969:X-CUBE-AI/App/audio_classifier.c ****   if (err.type != AI_ERROR_NONE) {
 970:X-CUBE-AI/App/audio_classifier.c ****     return err;
 971:X-CUBE-AI/App/audio_classifier.c ****   }
 972:X-CUBE-AI/App/audio_classifier.c ****   
 973:X-CUBE-AI/App/audio_classifier.c ****   if (ai_audio_classifier_data_params_get(&params) != true) {
 974:X-CUBE-AI/App/audio_classifier.c ****     err = ai_audio_classifier_get_error(*network);
 975:X-CUBE-AI/App/audio_classifier.c ****     return err;
 976:X-CUBE-AI/App/audio_classifier.c ****   }
 977:X-CUBE-AI/App/audio_classifier.c **** #if defined(AI_AUDIO_CLASSIFIER_DATA_ACTIVATIONS_COUNT)
 978:X-CUBE-AI/App/audio_classifier.c ****   /* set the addresses of the activations buffers */
 979:X-CUBE-AI/App/audio_classifier.c ****   for (ai_u16 idx=0; activations && idx<params.map_activations.size; idx++) {
 980:X-CUBE-AI/App/audio_classifier.c ****     AI_BUFFER_ARRAY_ITEM_SET_ADDRESS(&params.map_activations, idx, activations[idx]);
 981:X-CUBE-AI/App/audio_classifier.c ****   }
 982:X-CUBE-AI/App/audio_classifier.c **** #endif
 983:X-CUBE-AI/App/audio_classifier.c **** #if defined(AI_AUDIO_CLASSIFIER_DATA_WEIGHTS_COUNT)
 984:X-CUBE-AI/App/audio_classifier.c ****   /* set the addresses of the weight buffers */
 985:X-CUBE-AI/App/audio_classifier.c ****   for (ai_u16 idx=0; weights && idx<params.map_weights.size; idx++) {
 986:X-CUBE-AI/App/audio_classifier.c ****     AI_BUFFER_ARRAY_ITEM_SET_ADDRESS(&params.map_weights, idx, weights[idx]);
 987:X-CUBE-AI/App/audio_classifier.c ****   }
 988:X-CUBE-AI/App/audio_classifier.c **** #endif
 989:X-CUBE-AI/App/audio_classifier.c ****   if (ai_audio_classifier_init(*network, &params) != true) {
 990:X-CUBE-AI/App/audio_classifier.c ****     err = ai_audio_classifier_get_error(*network);
 991:X-CUBE-AI/App/audio_classifier.c ****   }
 992:X-CUBE-AI/App/audio_classifier.c ****   return err;
 993:X-CUBE-AI/App/audio_classifier.c **** }
 994:X-CUBE-AI/App/audio_classifier.c **** 
ARM GAS  /var/folders/n6/c271nzx11xl4r4_m7sqjlt0m0000gn/T//ccCJ1kuw.s 			page 36


 995:X-CUBE-AI/App/audio_classifier.c **** 
 996:X-CUBE-AI/App/audio_classifier.c **** AI_API_ENTRY
 997:X-CUBE-AI/App/audio_classifier.c **** ai_buffer* ai_audio_classifier_inputs_get(ai_handle network, ai_u16 *n_buffer)
 998:X-CUBE-AI/App/audio_classifier.c **** {
 868              		.loc 1 998 1 is_stmt 1 view -0
 869              		.cfi_startproc
 870              		@ args = 0, pretend = 0, frame = 0
 871              		@ frame_needed = 0, uses_anonymous_args = 0
 872              		.loc 1 998 1 is_stmt 0 view .LVU262
 873 0000 08B5     		push	{r3, lr}
 874              		.cfi_def_cfa_offset 8
 875              		.cfi_offset 3, -8
 876              		.cfi_offset 14, -4
 999:X-CUBE-AI/App/audio_classifier.c ****   if (network == AI_HANDLE_NULL) {
 877              		.loc 1 999 3 is_stmt 1 view .LVU263
 878              		.loc 1 999 6 is_stmt 0 view .LVU264
 879 0002 10B1     		cbz	r0, .L36
 880              	.LVL41:
 881              	.L34:
1000:X-CUBE-AI/App/audio_classifier.c ****     network = (ai_handle)&AI_NET_OBJ_INSTANCE;
1001:X-CUBE-AI/App/audio_classifier.c ****     AI_NETWORK_OBJ(network)->magic = AI_MAGIC_CONTEXT_TOKEN;
1002:X-CUBE-AI/App/audio_classifier.c ****   }
1003:X-CUBE-AI/App/audio_classifier.c ****   return ai_platform_inputs_get(network, n_buffer);
 882              		.loc 1 1003 3 is_stmt 1 view .LVU265
 883              		.loc 1 1003 10 is_stmt 0 view .LVU266
 884 0004 FFF7FEFF 		bl	ai_platform_inputs_get
 885              	.LVL42:
1004:X-CUBE-AI/App/audio_classifier.c **** }
 886              		.loc 1 1004 1 view .LVU267
 887 0008 08BD     		pop	{r3, pc}
 888              	.LVL43:
 889              	.L36:
1000:X-CUBE-AI/App/audio_classifier.c ****     network = (ai_handle)&AI_NET_OBJ_INSTANCE;
 890              		.loc 1 1000 5 is_stmt 1 view .LVU268
1001:X-CUBE-AI/App/audio_classifier.c ****   }
 891              		.loc 1 1001 5 view .LVU269
1001:X-CUBE-AI/App/audio_classifier.c ****   }
 892              		.loc 1 1001 36 is_stmt 0 view .LVU270
 893 000a 0248     		ldr	r0, .L37
 894 000c 024B     		ldr	r3, .L37+4
 895 000e 0360     		str	r3, [r0]
 896 0010 F8E7     		b	.L34
 897              	.L38:
 898 0012 00BF     		.align	2
 899              	.L37:
 900 0014 00000000 		.word	g_audio_classifier
 901 0018 0001C0A1 		.word	-1581252352
 902              		.cfi_endproc
 903              	.LFE9:
 905              		.section	.text.ai_audio_classifier_outputs_get,"ax",%progbits
 906              		.align	1
 907              		.global	ai_audio_classifier_outputs_get
 908              		.syntax unified
 909              		.thumb
 910              		.thumb_func
 912              	ai_audio_classifier_outputs_get:
 913              	.LVL44:
ARM GAS  /var/folders/n6/c271nzx11xl4r4_m7sqjlt0m0000gn/T//ccCJ1kuw.s 			page 37


 914              	.LFB10:
1005:X-CUBE-AI/App/audio_classifier.c **** 
1006:X-CUBE-AI/App/audio_classifier.c **** 
1007:X-CUBE-AI/App/audio_classifier.c **** AI_API_ENTRY
1008:X-CUBE-AI/App/audio_classifier.c **** ai_buffer* ai_audio_classifier_outputs_get(ai_handle network, ai_u16 *n_buffer)
1009:X-CUBE-AI/App/audio_classifier.c **** {
 915              		.loc 1 1009 1 is_stmt 1 view -0
 916              		.cfi_startproc
 917              		@ args = 0, pretend = 0, frame = 0
 918              		@ frame_needed = 0, uses_anonymous_args = 0
 919              		.loc 1 1009 1 is_stmt 0 view .LVU272
 920 0000 08B5     		push	{r3, lr}
 921              		.cfi_def_cfa_offset 8
 922              		.cfi_offset 3, -8
 923              		.cfi_offset 14, -4
1010:X-CUBE-AI/App/audio_classifier.c ****   if (network == AI_HANDLE_NULL) {
 924              		.loc 1 1010 3 is_stmt 1 view .LVU273
 925              		.loc 1 1010 6 is_stmt 0 view .LVU274
 926 0002 10B1     		cbz	r0, .L42
 927              	.LVL45:
 928              	.L40:
1011:X-CUBE-AI/App/audio_classifier.c ****     network = (ai_handle)&AI_NET_OBJ_INSTANCE;
1012:X-CUBE-AI/App/audio_classifier.c ****     AI_NETWORK_OBJ(network)->magic = AI_MAGIC_CONTEXT_TOKEN;
1013:X-CUBE-AI/App/audio_classifier.c ****   }
1014:X-CUBE-AI/App/audio_classifier.c ****   return ai_platform_outputs_get(network, n_buffer);
 929              		.loc 1 1014 3 is_stmt 1 view .LVU275
 930              		.loc 1 1014 10 is_stmt 0 view .LVU276
 931 0004 FFF7FEFF 		bl	ai_platform_outputs_get
 932              	.LVL46:
1015:X-CUBE-AI/App/audio_classifier.c **** }
 933              		.loc 1 1015 1 view .LVU277
 934 0008 08BD     		pop	{r3, pc}
 935              	.LVL47:
 936              	.L42:
1011:X-CUBE-AI/App/audio_classifier.c ****     network = (ai_handle)&AI_NET_OBJ_INSTANCE;
 937              		.loc 1 1011 5 is_stmt 1 view .LVU278
1012:X-CUBE-AI/App/audio_classifier.c ****   }
 938              		.loc 1 1012 5 view .LVU279
1012:X-CUBE-AI/App/audio_classifier.c ****   }
 939              		.loc 1 1012 36 is_stmt 0 view .LVU280
 940 000a 0248     		ldr	r0, .L43
 941 000c 024B     		ldr	r3, .L43+4
 942 000e 0360     		str	r3, [r0]
 943 0010 F8E7     		b	.L40
 944              	.L44:
 945 0012 00BF     		.align	2
 946              	.L43:
 947 0014 00000000 		.word	g_audio_classifier
 948 0018 0001C0A1 		.word	-1581252352
 949              		.cfi_endproc
 950              	.LFE10:
 952              		.section	.text.ai_audio_classifier_destroy,"ax",%progbits
 953              		.align	1
 954              		.global	ai_audio_classifier_destroy
 955              		.syntax unified
 956              		.thumb
 957              		.thumb_func
ARM GAS  /var/folders/n6/c271nzx11xl4r4_m7sqjlt0m0000gn/T//ccCJ1kuw.s 			page 38


 959              	ai_audio_classifier_destroy:
 960              	.LVL48:
 961              	.LFB11:
1016:X-CUBE-AI/App/audio_classifier.c **** 
1017:X-CUBE-AI/App/audio_classifier.c **** 
1018:X-CUBE-AI/App/audio_classifier.c **** AI_API_ENTRY
1019:X-CUBE-AI/App/audio_classifier.c **** ai_handle ai_audio_classifier_destroy(ai_handle network)
1020:X-CUBE-AI/App/audio_classifier.c **** {
 962              		.loc 1 1020 1 is_stmt 1 view -0
 963              		.cfi_startproc
 964              		@ args = 0, pretend = 0, frame = 0
 965              		@ frame_needed = 0, uses_anonymous_args = 0
 966              		.loc 1 1020 1 is_stmt 0 view .LVU282
 967 0000 08B5     		push	{r3, lr}
 968              		.cfi_def_cfa_offset 8
 969              		.cfi_offset 3, -8
 970              		.cfi_offset 14, -4
1021:X-CUBE-AI/App/audio_classifier.c ****   return ai_platform_network_destroy(network);
 971              		.loc 1 1021 3 is_stmt 1 view .LVU283
 972              		.loc 1 1021 10 is_stmt 0 view .LVU284
 973 0002 FFF7FEFF 		bl	ai_platform_network_destroy
 974              	.LVL49:
1022:X-CUBE-AI/App/audio_classifier.c **** }
 975              		.loc 1 1022 1 view .LVU285
 976 0006 08BD     		pop	{r3, pc}
 977              		.cfi_endproc
 978              	.LFE11:
 980              		.section	.text.ai_audio_classifier_init,"ax",%progbits
 981              		.align	1
 982              		.global	ai_audio_classifier_init
 983              		.syntax unified
 984              		.thumb
 985              		.thumb_func
 987              	ai_audio_classifier_init:
 988              	.LVL50:
 989              	.LFB12:
1023:X-CUBE-AI/App/audio_classifier.c **** 
1024:X-CUBE-AI/App/audio_classifier.c **** 
1025:X-CUBE-AI/App/audio_classifier.c **** AI_API_ENTRY
1026:X-CUBE-AI/App/audio_classifier.c **** ai_bool ai_audio_classifier_init(
1027:X-CUBE-AI/App/audio_classifier.c ****   ai_handle network, const ai_network_params* params)
1028:X-CUBE-AI/App/audio_classifier.c **** {
 990              		.loc 1 1028 1 is_stmt 1 view -0
 991              		.cfi_startproc
 992              		@ args = 0, pretend = 0, frame = 0
 993              		@ frame_needed = 0, uses_anonymous_args = 0
 994              		.loc 1 1028 1 is_stmt 0 view .LVU287
 995 0000 F8B5     		push	{r3, r4, r5, r6, r7, lr}
 996              		.cfi_def_cfa_offset 24
 997              		.cfi_offset 3, -24
 998              		.cfi_offset 4, -20
 999              		.cfi_offset 5, -16
 1000              		.cfi_offset 6, -12
 1001              		.cfi_offset 7, -8
 1002              		.cfi_offset 14, -4
 1003 0002 0646     		mov	r6, r0
 1004 0004 0D46     		mov	r5, r1
ARM GAS  /var/folders/n6/c271nzx11xl4r4_m7sqjlt0m0000gn/T//ccCJ1kuw.s 			page 39


1029:X-CUBE-AI/App/audio_classifier.c ****   ai_network* net_ctx = AI_NETWORK_OBJ(ai_platform_network_init(network, params));
 1005              		.loc 1 1029 3 is_stmt 1 view .LVU288
 1006              		.loc 1 1029 25 is_stmt 0 view .LVU289
 1007 0006 FFF7FEFF 		bl	ai_platform_network_init
 1008              	.LVL51:
1030:X-CUBE-AI/App/audio_classifier.c ****   ai_bool ok = true;
 1009              		.loc 1 1030 3 is_stmt 1 view .LVU290
1031:X-CUBE-AI/App/audio_classifier.c **** 
1032:X-CUBE-AI/App/audio_classifier.c ****   if (!net_ctx) return false;
 1010              		.loc 1 1032 3 view .LVU291
 1011              		.loc 1 1032 6 is_stmt 0 view .LVU292
 1012 000a 78B1     		cbz	r0, .L49
 1013 000c 0746     		mov	r7, r0
1033:X-CUBE-AI/App/audio_classifier.c ****   ok &= audio_classifier_configure_weights(net_ctx, params);
 1014              		.loc 1 1033 3 is_stmt 1 view .LVU293
 1015              		.loc 1 1033 9 is_stmt 0 view .LVU294
 1016 000e 2946     		mov	r1, r5
 1017 0010 FFF7FEFF 		bl	audio_classifier_configure_weights
 1018              	.LVL52:
 1019              		.loc 1 1033 9 view .LVU295
 1020 0014 0446     		mov	r4, r0
 1021              	.LVL53:
1034:X-CUBE-AI/App/audio_classifier.c ****   ok &= audio_classifier_configure_activations(net_ctx, params);
 1022              		.loc 1 1034 3 is_stmt 1 view .LVU296
 1023              		.loc 1 1034 9 is_stmt 0 view .LVU297
 1024 0016 2946     		mov	r1, r5
 1025 0018 3846     		mov	r0, r7
 1026 001a FFF7FEFF 		bl	audio_classifier_configure_activations
 1027              	.LVL54:
 1028 001e 0440     		ands	r4, r4, r0
 1029              	.LVL55:
 1030              		.loc 1 1034 9 view .LVU298
 1031 0020 E4B2     		uxtb	r4, r4
 1032              	.LVL56:
1035:X-CUBE-AI/App/audio_classifier.c **** 
1036:X-CUBE-AI/App/audio_classifier.c ****   ok &= ai_platform_network_post_init(network);
 1033              		.loc 1 1036 3 is_stmt 1 view .LVU299
 1034              		.loc 1 1036 9 is_stmt 0 view .LVU300
 1035 0022 3046     		mov	r0, r6
 1036 0024 FFF7FEFF 		bl	ai_platform_network_post_init
 1037              	.LVL57:
 1038 0028 2040     		ands	r0, r0, r4
 1039              	.LVL58:
1037:X-CUBE-AI/App/audio_classifier.c **** 
1038:X-CUBE-AI/App/audio_classifier.c ****   return ok;
 1040              		.loc 1 1038 3 is_stmt 1 view .LVU301
 1041              	.L48:
1039:X-CUBE-AI/App/audio_classifier.c **** }
 1042              		.loc 1 1039 1 is_stmt 0 view .LVU302
 1043 002a F8BD     		pop	{r3, r4, r5, r6, r7, pc}
 1044              	.LVL59:
 1045              	.L49:
1032:X-CUBE-AI/App/audio_classifier.c ****   ok &= audio_classifier_configure_weights(net_ctx, params);
 1046              		.loc 1 1032 24 discriminator 1 view .LVU303
 1047 002c 0020     		movs	r0, #0
 1048              	.LVL60:
1032:X-CUBE-AI/App/audio_classifier.c ****   ok &= audio_classifier_configure_weights(net_ctx, params);
ARM GAS  /var/folders/n6/c271nzx11xl4r4_m7sqjlt0m0000gn/T//ccCJ1kuw.s 			page 40


 1049              		.loc 1 1032 24 discriminator 1 view .LVU304
 1050 002e FCE7     		b	.L48
 1051              		.cfi_endproc
 1052              	.LFE12:
 1054              		.section	.text.ai_audio_classifier_create_and_init,"ax",%progbits
 1055              		.align	1
 1056              		.global	ai_audio_classifier_create_and_init
 1057              		.syntax unified
 1058              		.thumb
 1059              		.thumb_func
 1061              	ai_audio_classifier_create_and_init:
 1062              	.LVL61:
 1063              	.LFB8:
 964:X-CUBE-AI/App/audio_classifier.c ****   ai_error err;
 1064              		.loc 1 964 1 is_stmt 1 view -0
 1065              		.cfi_startproc
 1066              		@ args = 0, pretend = 0, frame = 56
 1067              		@ frame_needed = 0, uses_anonymous_args = 0
 964:X-CUBE-AI/App/audio_classifier.c ****   ai_error err;
 1068              		.loc 1 964 1 is_stmt 0 view .LVU306
 1069 0000 2DE9F041 		push	{r4, r5, r6, r7, r8, lr}
 1070              		.cfi_def_cfa_offset 24
 1071              		.cfi_offset 4, -24
 1072              		.cfi_offset 5, -20
 1073              		.cfi_offset 6, -16
 1074              		.cfi_offset 7, -12
 1075              		.cfi_offset 8, -8
 1076              		.cfi_offset 14, -4
 1077 0004 8EB0     		sub	sp, sp, #56
 1078              		.cfi_def_cfa_offset 80
 1079 0006 8046     		mov	r8, r0
 1080 0008 0E46     		mov	r6, r1
 1081 000a 1546     		mov	r5, r2
 965:X-CUBE-AI/App/audio_classifier.c ****   ai_network_params params;
 1082              		.loc 1 965 3 is_stmt 1 view .LVU307
 966:X-CUBE-AI/App/audio_classifier.c **** 
 1083              		.loc 1 966 3 view .LVU308
 968:X-CUBE-AI/App/audio_classifier.c ****   if (err.type != AI_ERROR_NONE) {
 1084              		.loc 1 968 3 view .LVU309
 968:X-CUBE-AI/App/audio_classifier.c ****   if (err.type != AI_ERROR_NONE) {
 1085              		.loc 1 968 9 is_stmt 0 view .LVU310
 1086 000c 0021     		movs	r1, #0
 1087              	.LVL62:
 968:X-CUBE-AI/App/audio_classifier.c ****   if (err.type != AI_ERROR_NONE) {
 1088              		.loc 1 968 9 view .LVU311
 1089 000e FFF7FEFF 		bl	ai_audio_classifier_create
 1090              	.LVL63:
 968:X-CUBE-AI/App/audio_classifier.c ****   if (err.type != AI_ERROR_NONE) {
 1091              		.loc 1 968 9 view .LVU312
 1092 0012 0746     		mov	r7, r0
 1093              	.LVL64:
 969:X-CUBE-AI/App/audio_classifier.c ****     return err;
 1094              		.loc 1 969 3 is_stmt 1 view .LVU313
 969:X-CUBE-AI/App/audio_classifier.c ****     return err;
 1095              		.loc 1 969 6 is_stmt 0 view .LVU314
 1096 0014 10F0FF0F 		tst	r0, #255
 1097 0018 02D0     		beq	.L52
ARM GAS  /var/folders/n6/c271nzx11xl4r4_m7sqjlt0m0000gn/T//ccCJ1kuw.s 			page 41


 1098              	.LVL65:
 1099              	.L53:
 993:X-CUBE-AI/App/audio_classifier.c **** 
 1100              		.loc 1 993 1 view .LVU315
 1101 001a 0EB0     		add	sp, sp, #56
 1102              		.cfi_remember_state
 1103              		.cfi_def_cfa_offset 24
 1104              		@ sp needed
 1105 001c BDE8F081 		pop	{r4, r5, r6, r7, r8, pc}
 1106              	.LVL66:
 1107              	.L52:
 1108              		.cfi_restore_state
 973:X-CUBE-AI/App/audio_classifier.c ****     err = ai_audio_classifier_get_error(*network);
 1109              		.loc 1 973 3 is_stmt 1 view .LVU316
 973:X-CUBE-AI/App/audio_classifier.c ****     err = ai_audio_classifier_get_error(*network);
 1110              		.loc 1 973 7 is_stmt 0 view .LVU317
 1111 0020 6846     		mov	r0, sp
 1112              	.LVL67:
 973:X-CUBE-AI/App/audio_classifier.c ****     err = ai_audio_classifier_get_error(*network);
 1113              		.loc 1 973 7 view .LVU318
 1114 0022 FFF7FEFF 		bl	ai_audio_classifier_data_params_get
 1115              	.LVL68:
 973:X-CUBE-AI/App/audio_classifier.c ****     err = ai_audio_classifier_get_error(*network);
 1116              		.loc 1 973 6 discriminator 1 view .LVU319
 1117 0026 08B1     		cbz	r0, .L64
 1118              	.LBB4:
 979:X-CUBE-AI/App/audio_classifier.c ****     AI_BUFFER_ARRAY_ITEM_SET_ADDRESS(&params.map_activations, idx, activations[idx]);
 1119              		.loc 1 979 15 view .LVU320
 1120 0028 0024     		movs	r4, #0
 1121 002a 0CE0     		b	.L54
 1122              	.L64:
 1123              	.LBE4:
 974:X-CUBE-AI/App/audio_classifier.c ****     return err;
 1124              		.loc 1 974 5 is_stmt 1 view .LVU321
 974:X-CUBE-AI/App/audio_classifier.c ****     return err;
 1125              		.loc 1 974 11 is_stmt 0 view .LVU322
 1126 002c D8F80000 		ldr	r0, [r8]
 1127 0030 FFF7FEFF 		bl	ai_audio_classifier_get_error
 1128              	.LVL69:
 975:X-CUBE-AI/App/audio_classifier.c ****   }
 1129              		.loc 1 975 5 is_stmt 1 view .LVU323
 975:X-CUBE-AI/App/audio_classifier.c ****   }
 1130              		.loc 1 975 12 is_stmt 0 view .LVU324
 1131 0034 F1E7     		b	.L53
 1132              	.LVL70:
 1133              	.L56:
 1134              	.LBB5:
 980:X-CUBE-AI/App/audio_classifier.c ****   }
 1135              		.loc 1 980 5 is_stmt 1 view .LVU325
 1136 0036 56F82420 		ldr	r2, [r6, r4, lsl #2]
 1137 003a 2146     		mov	r1, r4
 1138 003c 03A8     		add	r0, sp, #12
 1139 003e FFF7FEFF 		bl	ai_buffer_array_item_set_address
 1140              	.LVL71:
 979:X-CUBE-AI/App/audio_classifier.c ****     AI_BUFFER_ARRAY_ITEM_SET_ADDRESS(&params.map_activations, idx, activations[idx]);
 1141              		.loc 1 979 73 discriminator 4 view .LVU326
 1142 0042 0134     		adds	r4, r4, #1
ARM GAS  /var/folders/n6/c271nzx11xl4r4_m7sqjlt0m0000gn/T//ccCJ1kuw.s 			page 42


 1143              	.LVL72:
 979:X-CUBE-AI/App/audio_classifier.c ****     AI_BUFFER_ARRAY_ITEM_SET_ADDRESS(&params.map_activations, idx, activations[idx]);
 1144              		.loc 1 979 73 is_stmt 0 discriminator 4 view .LVU327
 1145 0044 A4B2     		uxth	r4, r4
 1146              	.LVL73:
 1147              	.L54:
 979:X-CUBE-AI/App/audio_classifier.c ****     AI_BUFFER_ARRAY_ITEM_SET_ADDRESS(&params.map_activations, idx, activations[idx]);
 1148              		.loc 1 979 34 is_stmt 1 discriminator 1 view .LVU328
 1149 0046 D6B1     		cbz	r6, .L62
 979:X-CUBE-AI/App/audio_classifier.c ****     AI_BUFFER_ARRAY_ITEM_SET_ADDRESS(&params.map_activations, idx, activations[idx]);
 1150              		.loc 1 979 63 is_stmt 0 discriminator 3 view .LVU329
 1151 0048 BDF80E30 		ldrh	r3, [sp, #14]
 979:X-CUBE-AI/App/audio_classifier.c ****     AI_BUFFER_ARRAY_ITEM_SET_ADDRESS(&params.map_activations, idx, activations[idx]);
 1152              		.loc 1 979 34 discriminator 3 view .LVU330
 1153 004c A342     		cmp	r3, r4
 1154 004e F2D8     		bhi	.L56
 1155 0050 0024     		movs	r4, #0
 1156              	.LVL74:
 979:X-CUBE-AI/App/audio_classifier.c ****     AI_BUFFER_ARRAY_ITEM_SET_ADDRESS(&params.map_activations, idx, activations[idx]);
 1157              		.loc 1 979 34 discriminator 3 view .LVU331
 1158 0052 07E0     		b	.L57
 1159              	.LVL75:
 1160              	.L59:
 979:X-CUBE-AI/App/audio_classifier.c ****     AI_BUFFER_ARRAY_ITEM_SET_ADDRESS(&params.map_activations, idx, activations[idx]);
 1161              		.loc 1 979 34 discriminator 3 view .LVU332
 1162              	.LBE5:
 1163              	.LBB6:
 986:X-CUBE-AI/App/audio_classifier.c ****   }
 1164              		.loc 1 986 5 is_stmt 1 view .LVU333
 1165 0054 55F82420 		ldr	r2, [r5, r4, lsl #2]
 1166 0058 2146     		mov	r1, r4
 1167 005a 01A8     		add	r0, sp, #4
 1168 005c FFF7FEFF 		bl	ai_buffer_array_item_set_address
 1169              	.LVL76:
 985:X-CUBE-AI/App/audio_classifier.c ****     AI_BUFFER_ARRAY_ITEM_SET_ADDRESS(&params.map_weights, idx, weights[idx]);
 1170              		.loc 1 985 65 discriminator 4 view .LVU334
 1171 0060 0134     		adds	r4, r4, #1
 1172              	.LVL77:
 985:X-CUBE-AI/App/audio_classifier.c ****     AI_BUFFER_ARRAY_ITEM_SET_ADDRESS(&params.map_weights, idx, weights[idx]);
 1173              		.loc 1 985 65 is_stmt 0 discriminator 4 view .LVU335
 1174 0062 A4B2     		uxth	r4, r4
 1175              	.LVL78:
 1176              	.L57:
 985:X-CUBE-AI/App/audio_classifier.c ****     AI_BUFFER_ARRAY_ITEM_SET_ADDRESS(&params.map_weights, idx, weights[idx]);
 1177              		.loc 1 985 30 is_stmt 1 discriminator 1 view .LVU336
 1178 0064 1DB1     		cbz	r5, .L58
 985:X-CUBE-AI/App/audio_classifier.c ****     AI_BUFFER_ARRAY_ITEM_SET_ADDRESS(&params.map_weights, idx, weights[idx]);
 1179              		.loc 1 985 55 is_stmt 0 discriminator 3 view .LVU337
 1180 0066 BDF80630 		ldrh	r3, [sp, #6]
 985:X-CUBE-AI/App/audio_classifier.c ****     AI_BUFFER_ARRAY_ITEM_SET_ADDRESS(&params.map_weights, idx, weights[idx]);
 1181              		.loc 1 985 30 discriminator 3 view .LVU338
 1182 006a A342     		cmp	r3, r4
 1183 006c F2D8     		bhi	.L59
 1184              	.L58:
 1185              	.LBE6:
 989:X-CUBE-AI/App/audio_classifier.c ****     err = ai_audio_classifier_get_error(*network);
 1186              		.loc 1 989 3 is_stmt 1 view .LVU339
ARM GAS  /var/folders/n6/c271nzx11xl4r4_m7sqjlt0m0000gn/T//ccCJ1kuw.s 			page 43


 989:X-CUBE-AI/App/audio_classifier.c ****     err = ai_audio_classifier_get_error(*network);
 1187              		.loc 1 989 7 is_stmt 0 view .LVU340
 1188 006e 6946     		mov	r1, sp
 1189 0070 D8F80000 		ldr	r0, [r8]
 1190 0074 FFF7FEFF 		bl	ai_audio_classifier_init
 1191              	.LVL79:
 989:X-CUBE-AI/App/audio_classifier.c ****     err = ai_audio_classifier_get_error(*network);
 1192              		.loc 1 989 6 discriminator 1 view .LVU341
 1193 0078 18B1     		cbz	r0, .L65
 1194              	.L60:
 992:X-CUBE-AI/App/audio_classifier.c **** }
 1195              		.loc 1 992 3 is_stmt 1 view .LVU342
 1196              	.LVL80:
 992:X-CUBE-AI/App/audio_classifier.c **** }
 1197              		.loc 1 992 10 is_stmt 0 view .LVU343
 1198 007a 3846     		mov	r0, r7
 1199 007c CDE7     		b	.L53
 1200              	.LVL81:
 1201              	.L62:
 1202              	.LBB7:
 992:X-CUBE-AI/App/audio_classifier.c **** }
 1203              		.loc 1 992 10 view .LVU344
 1204 007e 0024     		movs	r4, #0
 1205              	.LVL82:
 992:X-CUBE-AI/App/audio_classifier.c **** }
 1206              		.loc 1 992 10 view .LVU345
 1207 0080 F0E7     		b	.L57
 1208              	.LVL83:
 1209              	.L65:
 992:X-CUBE-AI/App/audio_classifier.c **** }
 1210              		.loc 1 992 10 view .LVU346
 1211              	.LBE7:
 990:X-CUBE-AI/App/audio_classifier.c ****   }
 1212              		.loc 1 990 5 is_stmt 1 view .LVU347
 990:X-CUBE-AI/App/audio_classifier.c ****   }
 1213              		.loc 1 990 11 is_stmt 0 view .LVU348
 1214 0082 D8F80000 		ldr	r0, [r8]
 1215 0086 FFF7FEFF 		bl	ai_audio_classifier_get_error
 1216              	.LVL84:
 1217 008a 0746     		mov	r7, r0
 990:X-CUBE-AI/App/audio_classifier.c ****   }
 1218              		.loc 1 990 11 view .LVU349
 1219 008c F5E7     		b	.L60
 1220              		.cfi_endproc
 1221              	.LFE8:
 1223              		.section	.text.ai_audio_classifier_run,"ax",%progbits
 1224              		.align	1
 1225              		.global	ai_audio_classifier_run
 1226              		.syntax unified
 1227              		.thumb
 1228              		.thumb_func
 1230              	ai_audio_classifier_run:
 1231              	.LVL85:
 1232              	.LFB13:
1040:X-CUBE-AI/App/audio_classifier.c **** 
1041:X-CUBE-AI/App/audio_classifier.c **** 
1042:X-CUBE-AI/App/audio_classifier.c **** AI_API_ENTRY
ARM GAS  /var/folders/n6/c271nzx11xl4r4_m7sqjlt0m0000gn/T//ccCJ1kuw.s 			page 44


1043:X-CUBE-AI/App/audio_classifier.c **** ai_i32 ai_audio_classifier_run(
1044:X-CUBE-AI/App/audio_classifier.c ****   ai_handle network, const ai_buffer* input, ai_buffer* output)
1045:X-CUBE-AI/App/audio_classifier.c **** {
 1233              		.loc 1 1045 1 is_stmt 1 view -0
 1234              		.cfi_startproc
 1235              		@ args = 0, pretend = 0, frame = 0
 1236              		@ frame_needed = 0, uses_anonymous_args = 0
 1237              		.loc 1 1045 1 is_stmt 0 view .LVU351
 1238 0000 08B5     		push	{r3, lr}
 1239              		.cfi_def_cfa_offset 8
 1240              		.cfi_offset 3, -8
 1241              		.cfi_offset 14, -4
1046:X-CUBE-AI/App/audio_classifier.c ****   return ai_platform_network_process(network, input, output);
 1242              		.loc 1 1046 3 is_stmt 1 view .LVU352
 1243              		.loc 1 1046 10 is_stmt 0 view .LVU353
 1244 0002 FFF7FEFF 		bl	ai_platform_network_process
 1245              	.LVL86:
1047:X-CUBE-AI/App/audio_classifier.c **** }
 1246              		.loc 1 1047 1 view .LVU354
 1247 0006 08BD     		pop	{r3, pc}
 1248              		.cfi_endproc
 1249              	.LFE13:
 1251              		.section	.text.ai_audio_classifier_forward,"ax",%progbits
 1252              		.align	1
 1253              		.global	ai_audio_classifier_forward
 1254              		.syntax unified
 1255              		.thumb
 1256              		.thumb_func
 1258              	ai_audio_classifier_forward:
 1259              	.LVL87:
 1260              	.LFB14:
1048:X-CUBE-AI/App/audio_classifier.c **** 
1049:X-CUBE-AI/App/audio_classifier.c **** 
1050:X-CUBE-AI/App/audio_classifier.c **** AI_API_ENTRY
1051:X-CUBE-AI/App/audio_classifier.c **** ai_i32 ai_audio_classifier_forward(ai_handle network, const ai_buffer* input)
1052:X-CUBE-AI/App/audio_classifier.c **** {
 1261              		.loc 1 1052 1 is_stmt 1 view -0
 1262              		.cfi_startproc
 1263              		@ args = 0, pretend = 0, frame = 0
 1264              		@ frame_needed = 0, uses_anonymous_args = 0
 1265              		.loc 1 1052 1 is_stmt 0 view .LVU356
 1266 0000 08B5     		push	{r3, lr}
 1267              		.cfi_def_cfa_offset 8
 1268              		.cfi_offset 3, -8
 1269              		.cfi_offset 14, -4
1053:X-CUBE-AI/App/audio_classifier.c ****   return ai_platform_network_process(network, input, NULL);
 1270              		.loc 1 1053 3 is_stmt 1 view .LVU357
 1271              		.loc 1 1053 10 is_stmt 0 view .LVU358
 1272 0002 0022     		movs	r2, #0
 1273 0004 FFF7FEFF 		bl	ai_platform_network_process
 1274              	.LVL88:
1054:X-CUBE-AI/App/audio_classifier.c **** }
 1275              		.loc 1 1054 1 view .LVU359
 1276 0008 08BD     		pop	{r3, pc}
 1277              		.cfi_endproc
 1278              	.LFE14:
 1280              		.section	.data.g_audio_classifier,"aw"
ARM GAS  /var/folders/n6/c271nzx11xl4r4_m7sqjlt0m0000gn/T//ccCJ1kuw.s 			page 45


 1281              		.align	2
 1284              	g_audio_classifier:
 1285 0000 0001C0A1 		.word	-1581252352
 1286 0004 93C41788 		.word	-2011708269
 1287 0008 00000000 		.word	0
 1288 000c 00       		.byte	0
 1289 000d 00       		.byte	0
 1290 000e 00       		.byte	0
 1291 000f 00       		.byte	0
 1292 0010 00000000 		.word	0
 1293 0014 00000000 		.word	0
 1294 0018 0000     		.short	0
 1295 001a 0000     		.short	0
 1296 001c DECAFAA1 		.word	-1577399586
 1297 0020 0000     		.short	0
 1298 0022 0100     		.short	1
 1299 0024 00000000 		.word	__compound_literal.143
 1300 0028 0000     		.short	0
 1301 002a 0100     		.short	1
 1302 002c 00000000 		.word	__compound_literal.145
 1303 0030 0200     		.short	2
 1304 0032 0000     		.short	0
 1305 0034 00000000 		.word	__compound_literal.156
 1306 0038 00000000 		.word	_conv1_conv1_0_Conv_output_0_layer
 1307 003c 00000000 		.word	0
 1308 0040 00000000 		.word	0
 1309 0044 00000000 		.word	0
 1310 0048 00000000 		.word	0
 1311              		.section	.data.__compound_literal.156,"aw"
 1312              		.align	2
 1315              	__compound_literal.156:
 1316 0000 0100     		.short	1
 1317 0002 0000     		.short	0
 1318 0004 00000000 		.word	__compound_literal.146
 1319 0008 00000000 		.word	__compound_literal.150
 1320 000c 0100     		.short	1
 1321 000e 0000     		.short	0
 1322 0010 00000000 		.word	__compound_literal.151
 1323 0014 00000000 		.word	__compound_literal.155
 1324              		.section	.data.__compound_literal.155,"aw"
 1325              		.align	2
 1328              	__compound_literal.155:
 1329 0000 00000000 		.word	__compound_literal.153
 1330 0004 00000000 		.word	__compound_literal.152
 1331 0008 00000000 		.word	__compound_literal.154
 1332              		.section	.bss.__compound_literal.154,"aw",%nobits
 1333              		.align	2
 1336              	__compound_literal.154:
 1337 0000 00000000 		.space	8
 1337      00000000 
 1338              		.section	.bss.__compound_literal.153,"aw",%nobits
 1339              		.align	2
 1342              	__compound_literal.153:
 1343 0000 00000000 		.space	16
 1343      00000000 
 1343      00000000 
 1343      00000000 
ARM GAS  /var/folders/n6/c271nzx11xl4r4_m7sqjlt0m0000gn/T//ccCJ1kuw.s 			page 46


 1344              		.section	.bss.__compound_literal.152,"aw",%nobits
 1345              		.align	2
 1348              	__compound_literal.152:
 1349 0000 00000000 		.space	28
 1349      00000000 
 1349      00000000 
 1349      00000000 
 1349      00000000 
 1350              		.section	.data.__compound_literal.151,"aw"
 1351              		.align	2
 1354              	__compound_literal.151:
 1355 0000 00000000 		.word	output_output
 1356              		.section	.data.__compound_literal.150,"aw"
 1357              		.align	2
 1360              	__compound_literal.150:
 1361 0000 00000000 		.word	__compound_literal.148
 1362 0004 00000000 		.word	__compound_literal.147
 1363 0008 00000000 		.word	__compound_literal.149
 1364              		.section	.bss.__compound_literal.149,"aw",%nobits
 1365              		.align	2
 1368              	__compound_literal.149:
 1369 0000 00000000 		.space	8
 1369      00000000 
 1370              		.section	.bss.__compound_literal.148,"aw",%nobits
 1371              		.align	2
 1374              	__compound_literal.148:
 1375 0000 00000000 		.space	16
 1375      00000000 
 1375      00000000 
 1375      00000000 
 1376              		.section	.bss.__compound_literal.147,"aw",%nobits
 1377              		.align	2
 1380              	__compound_literal.147:
 1381 0000 00000000 		.space	28
 1381      00000000 
 1381      00000000 
 1381      00000000 
 1381      00000000 
 1382              		.section	.data.__compound_literal.146,"aw"
 1383              		.align	2
 1386              	__compound_literal.146:
 1387 0000 00000000 		.word	input_output
 1388              		.section	.data.__compound_literal.145,"aw"
 1389              		.align	2
 1392              	__compound_literal.145:
 1393 0000 40040400 		.word	263232
 1394 0004 00000000 		.word	0
 1395 0008 00000000 		.word	0
 1396 000c 00000000 		.word	0
 1397 0010 904B0000 		.word	19344
 1398 0014 01       		.byte	1
 1399 0015 04       		.byte	4
 1400 0016 00       		.byte	0
 1401 0017 00       		.byte	0
 1402 0018 00000000 		.word	__compound_literal.144
 1403              		.section	.data.__compound_literal.144,"aw"
 1404              		.align	2
ARM GAS  /var/folders/n6/c271nzx11xl4r4_m7sqjlt0m0000gn/T//ccCJ1kuw.s 			page 47


 1407              	__compound_literal.144:
 1408 0000 01000000 		.word	1
 1409 0004 904B0000 		.word	19344
 1410 0008 01000000 		.word	1
 1411 000c 01000000 		.word	1
 1412              		.section	.data.__compound_literal.143,"aw"
 1413              		.align	2
 1416              	__compound_literal.143:
 1417 0000 40040400 		.word	263232
 1418 0004 00000000 		.word	0
 1419 0008 00000000 		.word	0
 1420 000c 00000000 		.word	0
 1421 0010 B0530200 		.word	152496
 1422 0014 01       		.byte	1
 1423 0015 04       		.byte	4
 1424 0016 00       		.byte	0
 1425 0017 00       		.byte	0
 1426 0018 00000000 		.word	__compound_literal.142
 1427              		.section	.data.__compound_literal.142,"aw"
 1428              		.align	2
 1431              	__compound_literal.142:
 1432 0000 01000000 		.word	1
 1433 0004 B0530200 		.word	152496
 1434 0008 01000000 		.word	1
 1435 000c 01000000 		.word	1
 1436              		.section	.data._conv1_conv1_0_Conv_output_0_layer,"aw"
 1437              		.align	2
 1440              	_conv1_conv1_0_Conv_output_0_layer:
 1441 0000 0301     		.short	259
 1442 0002 0100     		.short	1
 1443 0004 00000000 		.word	0
 1444 0008 00000000 		.word	0
 1445 000c 00000000 		.word	0
 1446 0010 00000000 		.word	_conv1_conv1_1_Relu_output_0_layer
 1447 0014 00000000 		.word	forward_conv2d_if32of32wf32
 1448 0018 00000000 		.word	_conv1_conv1_0_Conv_output_0_chain
 1449 001c 01000000 		.word	1
 1450 0020 00000000 		.space	8
 1450      00000000 
 1451 0028 01000000 		.word	1
 1452 002c 01000000 		.word	1
 1453 0030 01000000 		.word	1
 1454 0034 01000000 		.word	1
 1455 0038 01       		.byte	1
 1456 0039 04       		.byte	4
 1457 003a 00       		.byte	0
 1458 003b 00       		.byte	0
 1459 003c 00000000 		.word	__compound_literal.141
 1460 0040 01       		.byte	1
 1461 0041 00       		.byte	0
 1462 0042 0000     		.space	2
 1463              		.section	.data.__compound_literal.141,"aw"
 1464              		.align	2
 1467              	__compound_literal.141:
 1468 0000 01000000 		.word	1
 1469 0004 01000000 		.word	1
 1470 0008 01000000 		.word	1
ARM GAS  /var/folders/n6/c271nzx11xl4r4_m7sqjlt0m0000gn/T//ccCJ1kuw.s 			page 48


 1471 000c 01000000 		.word	1
 1472              		.section	.rodata._conv1_conv1_0_Conv_output_0_chain,"a"
 1473              		.align	2
 1476              	_conv1_conv1_0_Conv_output_0_chain:
 1477 0000 0400     		.short	4
 1478 0002 0000     		.short	0
 1479 0004 00000000 		.word	__compound_literal.140
 1480              		.section	.data.__compound_literal.140,"aw"
 1481              		.align	2
 1484              	__compound_literal.140:
 1485 0000 0100     		.short	1
 1486 0002 0000     		.short	0
 1487 0004 00000000 		.word	__compound_literal.136
 1488 0008 00000000 		.word	0
 1489 000c 0100     		.short	1
 1490 000e 0000     		.short	0
 1491 0010 00000000 		.word	__compound_literal.137
 1492 0014 00000000 		.word	0
 1493 0018 0300     		.short	3
 1494 001a 0000     		.short	0
 1495 001c 00000000 		.word	__compound_literal.138
 1496 0020 00000000 		.word	0
 1497 0024 0200     		.short	2
 1498 0026 0000     		.short	0
 1499 0028 00000000 		.word	__compound_literal.139
 1500 002c 00000000 		.word	0
 1501              		.section	.data.__compound_literal.139,"aw"
 1502              		.align	2
 1505              	__compound_literal.139:
 1506 0000 00000000 		.word	_conv1_conv1_0_Conv_output_0_scratch0
 1507 0004 00000000 		.word	0
 1508              		.section	.data.__compound_literal.138,"aw"
 1509              		.align	2
 1512              	__compound_literal.138:
 1513 0000 00000000 		.word	_conv1_conv1_0_Conv_output_0_weights
 1514 0004 00000000 		.word	_conv1_conv1_0_Conv_output_0_bias
 1515 0008 00000000 		.word	0
 1516              		.section	.data.__compound_literal.137,"aw"
 1517              		.align	2
 1520              	__compound_literal.137:
 1521 0000 00000000 		.word	_conv1_conv1_0_Conv_output_0_output
 1522              		.section	.data.__compound_literal.136,"aw"
 1523              		.align	2
 1526              	__compound_literal.136:
 1527 0000 00000000 		.word	input_output
 1528              		.section	.data._conv1_conv1_1_Relu_output_0_layer,"aw"
 1529              		.align	2
 1532              	_conv1_conv1_1_Relu_output_0_layer:
 1533 0000 0701     		.short	263
 1534 0002 0200     		.short	2
 1535 0004 00000000 		.word	0
 1536 0008 00000000 		.word	0
 1537 000c 00000000 		.word	0
 1538 0010 00000000 		.word	_conv1_conv1_2_MaxPool_output_0_layer
 1539 0014 00000000 		.word	forward_relu
 1540 0018 00000000 		.word	_conv1_conv1_1_Relu_output_0_chain
 1541 001c 00000000 		.word	0
ARM GAS  /var/folders/n6/c271nzx11xl4r4_m7sqjlt0m0000gn/T//ccCJ1kuw.s 			page 49


 1542              		.section	.rodata._conv1_conv1_1_Relu_output_0_chain,"a"
 1543              		.align	2
 1546              	_conv1_conv1_1_Relu_output_0_chain:
 1547 0000 0400     		.short	4
 1548 0002 0000     		.short	0
 1549 0004 00000000 		.word	__compound_literal.135
 1550              		.section	.data.__compound_literal.135,"aw"
 1551              		.align	2
 1554              	__compound_literal.135:
 1555 0000 0100     		.short	1
 1556 0002 0000     		.short	0
 1557 0004 00000000 		.word	__compound_literal.131
 1558 0008 00000000 		.word	0
 1559 000c 0100     		.short	1
 1560 000e 0000     		.short	0
 1561 0010 00000000 		.word	__compound_literal.132
 1562 0014 00000000 		.word	0
 1563 0018 0000     		.short	0
 1564 001a 0000     		.short	0
 1565 001c 00000000 		.word	__compound_literal.133
 1566 0020 00000000 		.word	0
 1567 0024 0000     		.short	0
 1568 0026 0000     		.short	0
 1569 0028 00000000 		.word	__compound_literal.134
 1570 002c 00000000 		.word	0
 1571              		.section	.bss.__compound_literal.134,"aw",%nobits
 1572              		.align	2
 1575              	__compound_literal.134:
 1576 0000 00000000 		.space	4
 1577              		.section	.bss.__compound_literal.133,"aw",%nobits
 1578              		.align	2
 1581              	__compound_literal.133:
 1582 0000 00000000 		.space	4
 1583              		.section	.data.__compound_literal.132,"aw"
 1584              		.align	2
 1587              	__compound_literal.132:
 1588 0000 00000000 		.word	_conv1_conv1_1_Relu_output_0_output
 1589              		.section	.data.__compound_literal.131,"aw"
 1590              		.align	2
 1593              	__compound_literal.131:
 1594 0000 00000000 		.word	_conv1_conv1_0_Conv_output_0_output
 1595              		.section	.data._conv1_conv1_2_MaxPool_output_0_layer,"aw"
 1596              		.align	2
 1599              	_conv1_conv1_2_MaxPool_output_0_layer:
 1600 0000 0B01     		.short	267
 1601 0002 0300     		.short	3
 1602 0004 00000000 		.word	0
 1603 0008 00000000 		.word	0
 1604 000c 00000000 		.word	0
 1605 0010 00000000 		.word	_conv2_conv2_0_Conv_output_0_layer
 1606 0014 00000000 		.word	forward_mp
 1607 0018 00000000 		.word	_conv1_conv1_2_MaxPool_output_0_chain
 1608 001c 02000000 		.word	2
 1609 0020 02000000 		.word	2
 1610 0024 02000000 		.word	2
 1611 0028 02000000 		.word	2
 1612 002c 01       		.byte	1
ARM GAS  /var/folders/n6/c271nzx11xl4r4_m7sqjlt0m0000gn/T//ccCJ1kuw.s 			page 50


 1613 002d 04       		.byte	4
 1614 002e 00       		.byte	0
 1615 002f 00       		.byte	0
 1616 0030 00000000 		.word	__compound_literal.130
 1617 0034 00000000 		.space	4
 1618              		.section	.bss.__compound_literal.130,"aw",%nobits
 1619              		.align	2
 1622              	__compound_literal.130:
 1623 0000 00000000 		.space	16
 1623      00000000 
 1623      00000000 
 1623      00000000 
 1624              		.section	.rodata._conv1_conv1_2_MaxPool_output_0_chain,"a"
 1625              		.align	2
 1628              	_conv1_conv1_2_MaxPool_output_0_chain:
 1629 0000 0400     		.short	4
 1630 0002 0000     		.short	0
 1631 0004 00000000 		.word	__compound_literal.129
 1632              		.section	.data.__compound_literal.129,"aw"
 1633              		.align	2
 1636              	__compound_literal.129:
 1637 0000 0100     		.short	1
 1638 0002 0000     		.short	0
 1639 0004 00000000 		.word	__compound_literal.125
 1640 0008 00000000 		.word	0
 1641 000c 0100     		.short	1
 1642 000e 0000     		.short	0
 1643 0010 00000000 		.word	__compound_literal.126
 1644 0014 00000000 		.word	0
 1645 0018 0000     		.short	0
 1646 001a 0000     		.short	0
 1647 001c 00000000 		.word	__compound_literal.127
 1648 0020 00000000 		.word	0
 1649 0024 0000     		.short	0
 1650 0026 0000     		.short	0
 1651 0028 00000000 		.word	__compound_literal.128
 1652 002c 00000000 		.word	0
 1653              		.section	.bss.__compound_literal.128,"aw",%nobits
 1654              		.align	2
 1657              	__compound_literal.128:
 1658 0000 00000000 		.space	4
 1659              		.section	.bss.__compound_literal.127,"aw",%nobits
 1660              		.align	2
 1663              	__compound_literal.127:
 1664 0000 00000000 		.space	4
 1665              		.section	.data.__compound_literal.126,"aw"
 1666              		.align	2
 1669              	__compound_literal.126:
 1670 0000 00000000 		.word	_conv1_conv1_2_MaxPool_output_0_output
 1671              		.section	.data.__compound_literal.125,"aw"
 1672              		.align	2
 1675              	__compound_literal.125:
 1676 0000 00000000 		.word	_conv1_conv1_1_Relu_output_0_output
 1677              		.section	.data._conv2_conv2_0_Conv_output_0_layer,"aw"
 1678              		.align	2
 1681              	_conv2_conv2_0_Conv_output_0_layer:
 1682 0000 0301     		.short	259
ARM GAS  /var/folders/n6/c271nzx11xl4r4_m7sqjlt0m0000gn/T//ccCJ1kuw.s 			page 51


 1683 0002 0400     		.short	4
 1684 0004 00000000 		.word	0
 1685 0008 00000000 		.word	0
 1686 000c 00000000 		.word	0
 1687 0010 00000000 		.word	_conv2_conv2_1_Relu_output_0_layer
 1688 0014 00000000 		.word	forward_conv2d_if32of32wf32
 1689 0018 00000000 		.word	_conv2_conv2_0_Conv_output_0_chain
 1690 001c 01000000 		.word	1
 1691 0020 00000000 		.space	8
 1691      00000000 
 1692 0028 01000000 		.word	1
 1693 002c 01000000 		.word	1
 1694 0030 01000000 		.word	1
 1695 0034 01000000 		.word	1
 1696 0038 01       		.byte	1
 1697 0039 04       		.byte	4
 1698 003a 00       		.byte	0
 1699 003b 00       		.byte	0
 1700 003c 00000000 		.word	__compound_literal.124
 1701 0040 01       		.byte	1
 1702 0041 00       		.byte	0
 1703 0042 0000     		.space	2
 1704              		.section	.data.__compound_literal.124,"aw"
 1705              		.align	2
 1708              	__compound_literal.124:
 1709 0000 01000000 		.word	1
 1710 0004 01000000 		.word	1
 1711 0008 01000000 		.word	1
 1712 000c 01000000 		.word	1
 1713              		.section	.rodata._conv2_conv2_0_Conv_output_0_chain,"a"
 1714              		.align	2
 1717              	_conv2_conv2_0_Conv_output_0_chain:
 1718 0000 0400     		.short	4
 1719 0002 0000     		.short	0
 1720 0004 00000000 		.word	__compound_literal.123
 1721              		.section	.data.__compound_literal.123,"aw"
 1722              		.align	2
 1725              	__compound_literal.123:
 1726 0000 0100     		.short	1
 1727 0002 0000     		.short	0
 1728 0004 00000000 		.word	__compound_literal.119
 1729 0008 00000000 		.word	0
 1730 000c 0100     		.short	1
 1731 000e 0000     		.short	0
 1732 0010 00000000 		.word	__compound_literal.120
 1733 0014 00000000 		.word	0
 1734 0018 0300     		.short	3
 1735 001a 0000     		.short	0
 1736 001c 00000000 		.word	__compound_literal.121
 1737 0020 00000000 		.word	0
 1738 0024 0200     		.short	2
 1739 0026 0000     		.short	0
 1740 0028 00000000 		.word	__compound_literal.122
 1741 002c 00000000 		.word	0
 1742              		.section	.data.__compound_literal.122,"aw"
 1743              		.align	2
 1746              	__compound_literal.122:
ARM GAS  /var/folders/n6/c271nzx11xl4r4_m7sqjlt0m0000gn/T//ccCJ1kuw.s 			page 52


 1747 0000 00000000 		.word	_conv2_conv2_0_Conv_output_0_scratch0
 1748 0004 00000000 		.word	0
 1749              		.section	.data.__compound_literal.121,"aw"
 1750              		.align	2
 1753              	__compound_literal.121:
 1754 0000 00000000 		.word	_conv2_conv2_0_Conv_output_0_weights
 1755 0004 00000000 		.word	_conv2_conv2_0_Conv_output_0_bias
 1756 0008 00000000 		.word	0
 1757              		.section	.data.__compound_literal.120,"aw"
 1758              		.align	2
 1761              	__compound_literal.120:
 1762 0000 00000000 		.word	_conv2_conv2_0_Conv_output_0_output
 1763              		.section	.data.__compound_literal.119,"aw"
 1764              		.align	2
 1767              	__compound_literal.119:
 1768 0000 00000000 		.word	_conv1_conv1_2_MaxPool_output_0_output
 1769              		.section	.data._conv2_conv2_1_Relu_output_0_layer,"aw"
 1770              		.align	2
 1773              	_conv2_conv2_1_Relu_output_0_layer:
 1774 0000 0701     		.short	263
 1775 0002 0500     		.short	5
 1776 0004 00000000 		.word	0
 1777 0008 00000000 		.word	0
 1778 000c 00000000 		.word	0
 1779 0010 00000000 		.word	_conv2_conv2_2_MaxPool_output_0_layer
 1780 0014 00000000 		.word	forward_relu
 1781 0018 00000000 		.word	_conv2_conv2_1_Relu_output_0_chain
 1782 001c 00000000 		.word	0
 1783              		.section	.rodata._conv2_conv2_1_Relu_output_0_chain,"a"
 1784              		.align	2
 1787              	_conv2_conv2_1_Relu_output_0_chain:
 1788 0000 0400     		.short	4
 1789 0002 0000     		.short	0
 1790 0004 00000000 		.word	__compound_literal.118
 1791              		.section	.data.__compound_literal.118,"aw"
 1792              		.align	2
 1795              	__compound_literal.118:
 1796 0000 0100     		.short	1
 1797 0002 0000     		.short	0
 1798 0004 00000000 		.word	__compound_literal.114
 1799 0008 00000000 		.word	0
 1800 000c 0100     		.short	1
 1801 000e 0000     		.short	0
 1802 0010 00000000 		.word	__compound_literal.115
 1803 0014 00000000 		.word	0
 1804 0018 0000     		.short	0
 1805 001a 0000     		.short	0
 1806 001c 00000000 		.word	__compound_literal.116
 1807 0020 00000000 		.word	0
 1808 0024 0000     		.short	0
 1809 0026 0000     		.short	0
 1810 0028 00000000 		.word	__compound_literal.117
 1811 002c 00000000 		.word	0
 1812              		.section	.bss.__compound_literal.117,"aw",%nobits
 1813              		.align	2
 1816              	__compound_literal.117:
 1817 0000 00000000 		.space	4
ARM GAS  /var/folders/n6/c271nzx11xl4r4_m7sqjlt0m0000gn/T//ccCJ1kuw.s 			page 53


 1818              		.section	.bss.__compound_literal.116,"aw",%nobits
 1819              		.align	2
 1822              	__compound_literal.116:
 1823 0000 00000000 		.space	4
 1824              		.section	.data.__compound_literal.115,"aw"
 1825              		.align	2
 1828              	__compound_literal.115:
 1829 0000 00000000 		.word	_conv2_conv2_1_Relu_output_0_output
 1830              		.section	.data.__compound_literal.114,"aw"
 1831              		.align	2
 1834              	__compound_literal.114:
 1835 0000 00000000 		.word	_conv2_conv2_0_Conv_output_0_output
 1836              		.section	.data._conv2_conv2_2_MaxPool_output_0_layer,"aw"
 1837              		.align	2
 1840              	_conv2_conv2_2_MaxPool_output_0_layer:
 1841 0000 0B01     		.short	267
 1842 0002 0600     		.short	6
 1843 0004 00000000 		.word	0
 1844 0008 00000000 		.word	0
 1845 000c 00000000 		.word	0
 1846 0010 00000000 		.word	_flatten_Flatten_output_0_to_chlast_layer
 1847 0014 00000000 		.word	forward_mp
 1848 0018 00000000 		.word	_conv2_conv2_2_MaxPool_output_0_chain
 1849 001c 02000000 		.word	2
 1850 0020 02000000 		.word	2
 1851 0024 02000000 		.word	2
 1852 0028 02000000 		.word	2
 1853 002c 01       		.byte	1
 1854 002d 04       		.byte	4
 1855 002e 00       		.byte	0
 1856 002f 00       		.byte	0
 1857 0030 00000000 		.word	__compound_literal.113
 1858 0034 00000000 		.space	4
 1859              		.section	.bss.__compound_literal.113,"aw",%nobits
 1860              		.align	2
 1863              	__compound_literal.113:
 1864 0000 00000000 		.space	16
 1864      00000000 
 1864      00000000 
 1864      00000000 
 1865              		.section	.rodata._conv2_conv2_2_MaxPool_output_0_chain,"a"
 1866              		.align	2
 1869              	_conv2_conv2_2_MaxPool_output_0_chain:
 1870 0000 0400     		.short	4
 1871 0002 0000     		.short	0
 1872 0004 00000000 		.word	__compound_literal.112
 1873              		.section	.data.__compound_literal.112,"aw"
 1874              		.align	2
 1877              	__compound_literal.112:
 1878 0000 0100     		.short	1
 1879 0002 0000     		.short	0
 1880 0004 00000000 		.word	__compound_literal.108
 1881 0008 00000000 		.word	0
 1882 000c 0100     		.short	1
 1883 000e 0000     		.short	0
 1884 0010 00000000 		.word	__compound_literal.109
 1885 0014 00000000 		.word	0
ARM GAS  /var/folders/n6/c271nzx11xl4r4_m7sqjlt0m0000gn/T//ccCJ1kuw.s 			page 54


 1886 0018 0000     		.short	0
 1887 001a 0000     		.short	0
 1888 001c 00000000 		.word	__compound_literal.110
 1889 0020 00000000 		.word	0
 1890 0024 0000     		.short	0
 1891 0026 0000     		.short	0
 1892 0028 00000000 		.word	__compound_literal.111
 1893 002c 00000000 		.word	0
 1894              		.section	.bss.__compound_literal.111,"aw",%nobits
 1895              		.align	2
 1898              	__compound_literal.111:
 1899 0000 00000000 		.space	4
 1900              		.section	.bss.__compound_literal.110,"aw",%nobits
 1901              		.align	2
 1904              	__compound_literal.110:
 1905 0000 00000000 		.space	4
 1906              		.section	.data.__compound_literal.109,"aw"
 1907              		.align	2
 1910              	__compound_literal.109:
 1911 0000 00000000 		.word	_conv2_conv2_2_MaxPool_output_0_output
 1912              		.section	.data.__compound_literal.108,"aw"
 1913              		.align	2
 1916              	__compound_literal.108:
 1917 0000 00000000 		.word	_conv2_conv2_1_Relu_output_0_output
 1918              		.section	.data._flatten_Flatten_output_0_to_chlast_layer,"aw"
 1919              		.align	2
 1922              	_flatten_Flatten_output_0_to_chlast_layer:
 1923 0000 0A01     		.short	266
 1924 0002 0700     		.short	7
 1925 0004 00000000 		.word	0
 1926 0008 00000000 		.word	0
 1927 000c 00000000 		.word	0
 1928 0010 00000000 		.word	_fc1_fc1_0_Gemm_output_0_layer
 1929 0014 00000000 		.word	forward_transpose
 1930 0018 00000000 		.word	_flatten_Flatten_output_0_to_chlast_chain
 1931 001c 01       		.byte	1
 1932 001d 06       		.byte	6
 1933 001e 00       		.byte	0
 1934 001f 00       		.byte	0
 1935 0020 00000000 		.word	__compound_literal.107
 1936              		.section	.data.__compound_literal.107,"aw"
 1937              		.align	2
 1940              	__compound_literal.107:
 1941 0000 00000000 		.word	0
 1942 0004 02000000 		.word	2
 1943 0008 03000000 		.word	3
 1944 000c 01000000 		.word	1
 1945 0010 04000000 		.word	4
 1946 0014 05000000 		.word	5
 1947              		.section	.rodata._flatten_Flatten_output_0_to_chlast_chain,"a"
 1948              		.align	2
 1951              	_flatten_Flatten_output_0_to_chlast_chain:
 1952 0000 0400     		.short	4
 1953 0002 0000     		.short	0
 1954 0004 00000000 		.word	__compound_literal.106
 1955              		.section	.data.__compound_literal.106,"aw"
 1956              		.align	2
ARM GAS  /var/folders/n6/c271nzx11xl4r4_m7sqjlt0m0000gn/T//ccCJ1kuw.s 			page 55


 1959              	__compound_literal.106:
 1960 0000 0100     		.short	1
 1961 0002 0000     		.short	0
 1962 0004 00000000 		.word	__compound_literal.102
 1963 0008 00000000 		.word	0
 1964 000c 0100     		.short	1
 1965 000e 0000     		.short	0
 1966 0010 00000000 		.word	__compound_literal.103
 1967 0014 00000000 		.word	0
 1968 0018 0000     		.short	0
 1969 001a 0000     		.short	0
 1970 001c 00000000 		.word	__compound_literal.104
 1971 0020 00000000 		.word	0
 1972 0024 0000     		.short	0
 1973 0026 0000     		.short	0
 1974 0028 00000000 		.word	__compound_literal.105
 1975 002c 00000000 		.word	0
 1976              		.section	.bss.__compound_literal.105,"aw",%nobits
 1977              		.align	2
 1980              	__compound_literal.105:
 1981 0000 00000000 		.space	4
 1982              		.section	.bss.__compound_literal.104,"aw",%nobits
 1983              		.align	2
 1986              	__compound_literal.104:
 1987 0000 00000000 		.space	4
 1988              		.section	.data.__compound_literal.103,"aw"
 1989              		.align	2
 1992              	__compound_literal.103:
 1993 0000 00000000 		.word	_flatten_Flatten_output_0_to_chlast_output
 1994              		.section	.data.__compound_literal.102,"aw"
 1995              		.align	2
 1998              	__compound_literal.102:
 1999 0000 00000000 		.word	_conv2_conv2_2_MaxPool_output_0_output
 2000              		.section	.data._fc1_fc1_0_Gemm_output_0_layer,"aw"
 2001              		.align	2
 2004              	_fc1_fc1_0_Gemm_output_0_layer:
 2005 0000 0401     		.short	260
 2006 0002 0800     		.short	8
 2007 0004 00000000 		.word	0
 2008 0008 00000000 		.word	0
 2009 000c 00000000 		.word	0
 2010 0010 00000000 		.word	_fc1_fc1_1_Relu_output_0_layer
 2011 0014 00000000 		.word	forward_dense
 2012 0018 00000000 		.word	_fc1_fc1_0_Gemm_output_0_chain
 2013              		.section	.rodata._fc1_fc1_0_Gemm_output_0_chain,"a"
 2014              		.align	2
 2017              	_fc1_fc1_0_Gemm_output_0_chain:
 2018 0000 0400     		.short	4
 2019 0002 0000     		.short	0
 2020 0004 00000000 		.word	__compound_literal.101
 2021              		.section	.data.__compound_literal.101,"aw"
 2022              		.align	2
 2025              	__compound_literal.101:
 2026 0000 0100     		.short	1
 2027 0002 0000     		.short	0
 2028 0004 00000000 		.word	__compound_literal.97
 2029 0008 00000000 		.word	0
ARM GAS  /var/folders/n6/c271nzx11xl4r4_m7sqjlt0m0000gn/T//ccCJ1kuw.s 			page 56


 2030 000c 0100     		.short	1
 2031 000e 0000     		.short	0
 2032 0010 00000000 		.word	__compound_literal.98
 2033 0014 00000000 		.word	0
 2034 0018 0200     		.short	2
 2035 001a 0000     		.short	0
 2036 001c 00000000 		.word	__compound_literal.99
 2037 0020 00000000 		.word	0
 2038 0024 0000     		.short	0
 2039 0026 0000     		.short	0
 2040 0028 00000000 		.word	__compound_literal.100
 2041 002c 00000000 		.word	0
 2042              		.section	.bss.__compound_literal.100,"aw",%nobits
 2043              		.align	2
 2046              	__compound_literal.100:
 2047 0000 00000000 		.space	4
 2048              		.section	.data.__compound_literal.99,"aw"
 2049              		.align	2
 2052              	__compound_literal.99:
 2053 0000 00000000 		.word	_fc1_fc1_0_Gemm_output_0_weights
 2054 0004 00000000 		.word	_fc1_fc1_0_Gemm_output_0_bias
 2055              		.section	.data.__compound_literal.98,"aw"
 2056              		.align	2
 2059              	__compound_literal.98:
 2060 0000 00000000 		.word	_fc1_fc1_0_Gemm_output_0_output
 2061              		.section	.data.__compound_literal.97,"aw"
 2062              		.align	2
 2065              	__compound_literal.97:
 2066 0000 00000000 		.word	_flatten_Flatten_output_0_to_chlast_output0
 2067              		.section	.data._fc1_fc1_1_Relu_output_0_layer,"aw"
 2068              		.align	2
 2071              	_fc1_fc1_1_Relu_output_0_layer:
 2072 0000 0701     		.short	263
 2073 0002 0900     		.short	9
 2074 0004 00000000 		.word	0
 2075 0008 00000000 		.word	0
 2076 000c 00000000 		.word	0
 2077 0010 00000000 		.word	_fc2_fc2_0_Gemm_output_0_layer
 2078 0014 00000000 		.word	forward_relu
 2079 0018 00000000 		.word	_fc1_fc1_1_Relu_output_0_chain
 2080 001c 00000000 		.word	0
 2081              		.section	.rodata._fc1_fc1_1_Relu_output_0_chain,"a"
 2082              		.align	2
 2085              	_fc1_fc1_1_Relu_output_0_chain:
 2086 0000 0400     		.short	4
 2087 0002 0000     		.short	0
 2088 0004 00000000 		.word	__compound_literal.96
 2089              		.section	.data.__compound_literal.96,"aw"
 2090              		.align	2
 2093              	__compound_literal.96:
 2094 0000 0100     		.short	1
 2095 0002 0000     		.short	0
 2096 0004 00000000 		.word	__compound_literal.92
 2097 0008 00000000 		.word	0
 2098 000c 0100     		.short	1
 2099 000e 0000     		.short	0
 2100 0010 00000000 		.word	__compound_literal.93
ARM GAS  /var/folders/n6/c271nzx11xl4r4_m7sqjlt0m0000gn/T//ccCJ1kuw.s 			page 57


 2101 0014 00000000 		.word	0
 2102 0018 0000     		.short	0
 2103 001a 0000     		.short	0
 2104 001c 00000000 		.word	__compound_literal.94
 2105 0020 00000000 		.word	0
 2106 0024 0000     		.short	0
 2107 0026 0000     		.short	0
 2108 0028 00000000 		.word	__compound_literal.95
 2109 002c 00000000 		.word	0
 2110              		.section	.bss.__compound_literal.95,"aw",%nobits
 2111              		.align	2
 2114              	__compound_literal.95:
 2115 0000 00000000 		.space	4
 2116              		.section	.bss.__compound_literal.94,"aw",%nobits
 2117              		.align	2
 2120              	__compound_literal.94:
 2121 0000 00000000 		.space	4
 2122              		.section	.data.__compound_literal.93,"aw"
 2123              		.align	2
 2126              	__compound_literal.93:
 2127 0000 00000000 		.word	_fc1_fc1_1_Relu_output_0_output
 2128              		.section	.data.__compound_literal.92,"aw"
 2129              		.align	2
 2132              	__compound_literal.92:
 2133 0000 00000000 		.word	_fc1_fc1_0_Gemm_output_0_output
 2134              		.section	.data._fc2_fc2_0_Gemm_output_0_layer,"aw"
 2135              		.align	2
 2138              	_fc2_fc2_0_Gemm_output_0_layer:
 2139 0000 0401     		.short	260
 2140 0002 0A00     		.short	10
 2141 0004 00000000 		.word	0
 2142 0008 00000000 		.word	0
 2143 000c 00000000 		.word	0
 2144 0010 00000000 		.word	_fc2_fc2_1_Relu_output_0_layer
 2145 0014 00000000 		.word	forward_dense
 2146 0018 00000000 		.word	_fc2_fc2_0_Gemm_output_0_chain
 2147              		.section	.rodata._fc2_fc2_0_Gemm_output_0_chain,"a"
 2148              		.align	2
 2151              	_fc2_fc2_0_Gemm_output_0_chain:
 2152 0000 0400     		.short	4
 2153 0002 0000     		.short	0
 2154 0004 00000000 		.word	__compound_literal.91
 2155              		.section	.data.__compound_literal.91,"aw"
 2156              		.align	2
 2159              	__compound_literal.91:
 2160 0000 0100     		.short	1
 2161 0002 0000     		.short	0
 2162 0004 00000000 		.word	__compound_literal.87
 2163 0008 00000000 		.word	0
 2164 000c 0100     		.short	1
 2165 000e 0000     		.short	0
 2166 0010 00000000 		.word	__compound_literal.88
 2167 0014 00000000 		.word	0
 2168 0018 0200     		.short	2
 2169 001a 0000     		.short	0
 2170 001c 00000000 		.word	__compound_literal.89
 2171 0020 00000000 		.word	0
ARM GAS  /var/folders/n6/c271nzx11xl4r4_m7sqjlt0m0000gn/T//ccCJ1kuw.s 			page 58


 2172 0024 0000     		.short	0
 2173 0026 0000     		.short	0
 2174 0028 00000000 		.word	__compound_literal.90
 2175 002c 00000000 		.word	0
 2176              		.section	.bss.__compound_literal.90,"aw",%nobits
 2177              		.align	2
 2180              	__compound_literal.90:
 2181 0000 00000000 		.space	4
 2182              		.section	.data.__compound_literal.89,"aw"
 2183              		.align	2
 2186              	__compound_literal.89:
 2187 0000 00000000 		.word	_fc2_fc2_0_Gemm_output_0_weights
 2188 0004 00000000 		.word	_fc2_fc2_0_Gemm_output_0_bias
 2189              		.section	.data.__compound_literal.88,"aw"
 2190              		.align	2
 2193              	__compound_literal.88:
 2194 0000 00000000 		.word	_fc2_fc2_0_Gemm_output_0_output
 2195              		.section	.data.__compound_literal.87,"aw"
 2196              		.align	2
 2199              	__compound_literal.87:
 2200 0000 00000000 		.word	_fc1_fc1_1_Relu_output_0_output
 2201              		.section	.data._fc2_fc2_1_Relu_output_0_layer,"aw"
 2202              		.align	2
 2205              	_fc2_fc2_1_Relu_output_0_layer:
 2206 0000 0701     		.short	263
 2207 0002 0B00     		.short	11
 2208 0004 00000000 		.word	0
 2209 0008 00000000 		.word	0
 2210 000c 00000000 		.word	0
 2211 0010 00000000 		.word	_fc3_fc3_0_Gemm_output_0_layer
 2212 0014 00000000 		.word	forward_relu
 2213 0018 00000000 		.word	_fc2_fc2_1_Relu_output_0_chain
 2214 001c 00000000 		.word	0
 2215              		.section	.rodata._fc2_fc2_1_Relu_output_0_chain,"a"
 2216              		.align	2
 2219              	_fc2_fc2_1_Relu_output_0_chain:
 2220 0000 0400     		.short	4
 2221 0002 0000     		.short	0
 2222 0004 00000000 		.word	__compound_literal.86
 2223              		.section	.data.__compound_literal.86,"aw"
 2224              		.align	2
 2227              	__compound_literal.86:
 2228 0000 0100     		.short	1
 2229 0002 0000     		.short	0
 2230 0004 00000000 		.word	__compound_literal.82
 2231 0008 00000000 		.word	0
 2232 000c 0100     		.short	1
 2233 000e 0000     		.short	0
 2234 0010 00000000 		.word	__compound_literal.83
 2235 0014 00000000 		.word	0
 2236 0018 0000     		.short	0
 2237 001a 0000     		.short	0
 2238 001c 00000000 		.word	__compound_literal.84
 2239 0020 00000000 		.word	0
 2240 0024 0000     		.short	0
 2241 0026 0000     		.short	0
 2242 0028 00000000 		.word	__compound_literal.85
ARM GAS  /var/folders/n6/c271nzx11xl4r4_m7sqjlt0m0000gn/T//ccCJ1kuw.s 			page 59


 2243 002c 00000000 		.word	0
 2244              		.section	.bss.__compound_literal.85,"aw",%nobits
 2245              		.align	2
 2248              	__compound_literal.85:
 2249 0000 00000000 		.space	4
 2250              		.section	.bss.__compound_literal.84,"aw",%nobits
 2251              		.align	2
 2254              	__compound_literal.84:
 2255 0000 00000000 		.space	4
 2256              		.section	.data.__compound_literal.83,"aw"
 2257              		.align	2
 2260              	__compound_literal.83:
 2261 0000 00000000 		.word	_fc2_fc2_1_Relu_output_0_output
 2262              		.section	.data.__compound_literal.82,"aw"
 2263              		.align	2
 2266              	__compound_literal.82:
 2267 0000 00000000 		.word	_fc2_fc2_0_Gemm_output_0_output
 2268              		.section	.data._fc3_fc3_0_Gemm_output_0_layer,"aw"
 2269              		.align	2
 2272              	_fc3_fc3_0_Gemm_output_0_layer:
 2273 0000 0401     		.short	260
 2274 0002 0C00     		.short	12
 2275 0004 00000000 		.word	0
 2276 0008 00000000 		.word	0
 2277 000c 00000000 		.word	0
 2278 0010 00000000 		.word	_fc3_fc3_1_Relu_output_0_layer
 2279 0014 00000000 		.word	forward_dense
 2280 0018 00000000 		.word	_fc3_fc3_0_Gemm_output_0_chain
 2281              		.section	.rodata._fc3_fc3_0_Gemm_output_0_chain,"a"
 2282              		.align	2
 2285              	_fc3_fc3_0_Gemm_output_0_chain:
 2286 0000 0400     		.short	4
 2287 0002 0000     		.short	0
 2288 0004 00000000 		.word	__compound_literal.81
 2289              		.section	.data.__compound_literal.81,"aw"
 2290              		.align	2
 2293              	__compound_literal.81:
 2294 0000 0100     		.short	1
 2295 0002 0000     		.short	0
 2296 0004 00000000 		.word	__compound_literal.77
 2297 0008 00000000 		.word	0
 2298 000c 0100     		.short	1
 2299 000e 0000     		.short	0
 2300 0010 00000000 		.word	__compound_literal.78
 2301 0014 00000000 		.word	0
 2302 0018 0200     		.short	2
 2303 001a 0000     		.short	0
 2304 001c 00000000 		.word	__compound_literal.79
 2305 0020 00000000 		.word	0
 2306 0024 0000     		.short	0
 2307 0026 0000     		.short	0
 2308 0028 00000000 		.word	__compound_literal.80
 2309 002c 00000000 		.word	0
 2310              		.section	.bss.__compound_literal.80,"aw",%nobits
 2311              		.align	2
 2314              	__compound_literal.80:
 2315 0000 00000000 		.space	4
ARM GAS  /var/folders/n6/c271nzx11xl4r4_m7sqjlt0m0000gn/T//ccCJ1kuw.s 			page 60


 2316              		.section	.data.__compound_literal.79,"aw"
 2317              		.align	2
 2320              	__compound_literal.79:
 2321 0000 00000000 		.word	_fc3_fc3_0_Gemm_output_0_weights
 2322 0004 00000000 		.word	_fc3_fc3_0_Gemm_output_0_bias
 2323              		.section	.data.__compound_literal.78,"aw"
 2324              		.align	2
 2327              	__compound_literal.78:
 2328 0000 00000000 		.word	_fc3_fc3_0_Gemm_output_0_output
 2329              		.section	.data.__compound_literal.77,"aw"
 2330              		.align	2
 2333              	__compound_literal.77:
 2334 0000 00000000 		.word	_fc2_fc2_1_Relu_output_0_output
 2335              		.section	.data._fc3_fc3_1_Relu_output_0_layer,"aw"
 2336              		.align	2
 2339              	_fc3_fc3_1_Relu_output_0_layer:
 2340 0000 0701     		.short	263
 2341 0002 0D00     		.short	13
 2342 0004 00000000 		.word	0
 2343 0008 00000000 		.word	0
 2344 000c 00000000 		.word	0
 2345 0010 00000000 		.word	_fc4_Gemm_output_0_layer
 2346 0014 00000000 		.word	forward_relu
 2347 0018 00000000 		.word	_fc3_fc3_1_Relu_output_0_chain
 2348 001c 00000000 		.word	0
 2349              		.section	.rodata._fc3_fc3_1_Relu_output_0_chain,"a"
 2350              		.align	2
 2353              	_fc3_fc3_1_Relu_output_0_chain:
 2354 0000 0400     		.short	4
 2355 0002 0000     		.short	0
 2356 0004 00000000 		.word	__compound_literal.76
 2357              		.section	.data.__compound_literal.76,"aw"
 2358              		.align	2
 2361              	__compound_literal.76:
 2362 0000 0100     		.short	1
 2363 0002 0000     		.short	0
 2364 0004 00000000 		.word	__compound_literal.72
 2365 0008 00000000 		.word	0
 2366 000c 0100     		.short	1
 2367 000e 0000     		.short	0
 2368 0010 00000000 		.word	__compound_literal.73
 2369 0014 00000000 		.word	0
 2370 0018 0000     		.short	0
 2371 001a 0000     		.short	0
 2372 001c 00000000 		.word	__compound_literal.74
 2373 0020 00000000 		.word	0
 2374 0024 0000     		.short	0
 2375 0026 0000     		.short	0
 2376 0028 00000000 		.word	__compound_literal.75
 2377 002c 00000000 		.word	0
 2378              		.section	.bss.__compound_literal.75,"aw",%nobits
 2379              		.align	2
 2382              	__compound_literal.75:
 2383 0000 00000000 		.space	4
 2384              		.section	.bss.__compound_literal.74,"aw",%nobits
 2385              		.align	2
 2388              	__compound_literal.74:
ARM GAS  /var/folders/n6/c271nzx11xl4r4_m7sqjlt0m0000gn/T//ccCJ1kuw.s 			page 61


 2389 0000 00000000 		.space	4
 2390              		.section	.data.__compound_literal.73,"aw"
 2391              		.align	2
 2394              	__compound_literal.73:
 2395 0000 00000000 		.word	_fc3_fc3_1_Relu_output_0_output
 2396              		.section	.data.__compound_literal.72,"aw"
 2397              		.align	2
 2400              	__compound_literal.72:
 2401 0000 00000000 		.word	_fc3_fc3_0_Gemm_output_0_output
 2402              		.section	.data._fc4_Gemm_output_0_layer,"aw"
 2403              		.align	2
 2406              	_fc4_Gemm_output_0_layer:
 2407 0000 0401     		.short	260
 2408 0002 0E00     		.short	14
 2409 0004 00000000 		.word	0
 2410 0008 00000000 		.word	0
 2411 000c 00000000 		.word	0
 2412 0010 00000000 		.word	output_layer
 2413 0014 00000000 		.word	forward_dense
 2414 0018 00000000 		.word	_fc4_Gemm_output_0_chain
 2415              		.section	.rodata._fc4_Gemm_output_0_chain,"a"
 2416              		.align	2
 2419              	_fc4_Gemm_output_0_chain:
 2420 0000 0400     		.short	4
 2421 0002 0000     		.short	0
 2422 0004 00000000 		.word	__compound_literal.71
 2423              		.section	.data.__compound_literal.71,"aw"
 2424              		.align	2
 2427              	__compound_literal.71:
 2428 0000 0100     		.short	1
 2429 0002 0000     		.short	0
 2430 0004 00000000 		.word	__compound_literal.67
 2431 0008 00000000 		.word	0
 2432 000c 0100     		.short	1
 2433 000e 0000     		.short	0
 2434 0010 00000000 		.word	__compound_literal.68
 2435 0014 00000000 		.word	0
 2436 0018 0200     		.short	2
 2437 001a 0000     		.short	0
 2438 001c 00000000 		.word	__compound_literal.69
 2439 0020 00000000 		.word	0
 2440 0024 0000     		.short	0
 2441 0026 0000     		.short	0
 2442 0028 00000000 		.word	__compound_literal.70
 2443 002c 00000000 		.word	0
 2444              		.section	.bss.__compound_literal.70,"aw",%nobits
 2445              		.align	2
 2448              	__compound_literal.70:
 2449 0000 00000000 		.space	4
 2450              		.section	.data.__compound_literal.69,"aw"
 2451              		.align	2
 2454              	__compound_literal.69:
 2455 0000 00000000 		.word	_fc4_Gemm_output_0_weights
 2456 0004 00000000 		.word	_fc4_Gemm_output_0_bias
 2457              		.section	.data.__compound_literal.68,"aw"
 2458              		.align	2
 2461              	__compound_literal.68:
ARM GAS  /var/folders/n6/c271nzx11xl4r4_m7sqjlt0m0000gn/T//ccCJ1kuw.s 			page 62


 2462 0000 00000000 		.word	_fc4_Gemm_output_0_output
 2463              		.section	.data.__compound_literal.67,"aw"
 2464              		.align	2
 2467              	__compound_literal.67:
 2468 0000 00000000 		.word	_fc3_fc3_1_Relu_output_0_output
 2469              		.section	.data.output_layer,"aw"
 2470              		.align	2
 2473              	output_layer:
 2474 0000 0701     		.short	263
 2475 0002 0F00     		.short	15
 2476 0004 00000000 		.word	0
 2477 0008 00000000 		.word	0
 2478 000c 00000000 		.word	0
 2479 0010 00000000 		.word	output_layer
 2480 0014 00000000 		.word	forward_sm
 2481 0018 00000000 		.word	output_chain
 2482 001c 00000000 		.word	0
 2483              		.section	.rodata.output_chain,"a"
 2484              		.align	2
 2487              	output_chain:
 2488 0000 0400     		.short	4
 2489 0002 0000     		.short	0
 2490 0004 00000000 		.word	__compound_literal.66
 2491              		.section	.data.__compound_literal.66,"aw"
 2492              		.align	2
 2495              	__compound_literal.66:
 2496 0000 0100     		.short	1
 2497 0002 0000     		.short	0
 2498 0004 00000000 		.word	__compound_literal.62
 2499 0008 00000000 		.word	0
 2500 000c 0100     		.short	1
 2501 000e 0000     		.short	0
 2502 0010 00000000 		.word	__compound_literal.63
 2503 0014 00000000 		.word	0
 2504 0018 0000     		.short	0
 2505 001a 0000     		.short	0
 2506 001c 00000000 		.word	__compound_literal.64
 2507 0020 00000000 		.word	0
 2508 0024 0000     		.short	0
 2509 0026 0000     		.short	0
 2510 0028 00000000 		.word	__compound_literal.65
 2511 002c 00000000 		.word	0
 2512              		.section	.bss.__compound_literal.65,"aw",%nobits
 2513              		.align	2
 2516              	__compound_literal.65:
 2517 0000 00000000 		.space	4
 2518              		.section	.bss.__compound_literal.64,"aw",%nobits
 2519              		.align	2
 2522              	__compound_literal.64:
 2523 0000 00000000 		.space	4
 2524              		.section	.data.__compound_literal.63,"aw"
 2525              		.align	2
 2528              	__compound_literal.63:
 2529 0000 00000000 		.word	output_output
 2530              		.section	.data.__compound_literal.62,"aw"
 2531              		.align	2
 2534              	__compound_literal.62:
ARM GAS  /var/folders/n6/c271nzx11xl4r4_m7sqjlt0m0000gn/T//ccCJ1kuw.s 			page 63


 2535 0000 00000000 		.word	_fc4_Gemm_output_0_output
 2536              		.section	.data._conv2_conv2_0_Conv_output_0_scratch0,"aw"
 2537              		.align	2
 2540              	_conv2_conv2_0_Conv_output_0_scratch0:
 2541 0000 00000000 		.word	0
 2542 0004 1E00     		.short	30
 2543 0006 00       		.byte	0
 2544 0007 01       		.byte	1
 2545 0008 01       		.byte	1
 2546 0009 04       		.byte	4
 2547 000a 00       		.byte	0
 2548 000b 00       		.byte	0
 2549 000c 00000000 		.word	__compound_literal.60
 2550 0010 02       		.byte	2
 2551 0011 04       		.byte	4
 2552 0012 00       		.byte	0
 2553 0013 00       		.byte	0
 2554 0014 00000000 		.word	__compound_literal.61
 2555 0018 00000000 		.word	_conv2_conv2_0_Conv_output_0_scratch0_array
 2556              		.section	.data.__compound_literal.61,"aw"
 2557              		.align	2
 2560              	__compound_literal.61:
 2561 0000 04000000 		.word	4
 2562 0004 04000000 		.word	4
 2563 0008 10000000 		.word	16
 2564 000c 30000000 		.word	48
 2565              		.section	.data.__compound_literal.60,"aw"
 2566              		.align	2
 2569              	__compound_literal.60:
 2570 0000 01000000 		.word	1
 2571 0004 04000000 		.word	4
 2572 0008 03000000 		.word	3
 2573 000c 03000000 		.word	3
 2574              		.section	.data._conv1_conv1_0_Conv_output_0_scratch0,"aw"
 2575              		.align	2
 2578              	_conv1_conv1_0_Conv_output_0_scratch0:
 2579 0000 00000000 		.word	0
 2580 0004 1D00     		.short	29
 2581 0006 00       		.byte	0
 2582 0007 01       		.byte	1
 2583 0008 01       		.byte	1
 2584 0009 04       		.byte	4
 2585 000a 00       		.byte	0
 2586 000b 00       		.byte	0
 2587 000c 00000000 		.word	__compound_literal.58
 2588 0010 02       		.byte	2
 2589 0011 04       		.byte	4
 2590 0012 00       		.byte	0
 2591 0013 00       		.byte	0
 2592 0014 00000000 		.word	__compound_literal.59
 2593 0018 00000000 		.word	_conv1_conv1_0_Conv_output_0_scratch0_array
 2594              		.section	.data.__compound_literal.59,"aw"
 2595              		.align	2
 2598              	__compound_literal.59:
 2599 0000 04000000 		.word	4
 2600 0004 04000000 		.word	4
 2601 0008 04000000 		.word	4
ARM GAS  /var/folders/n6/c271nzx11xl4r4_m7sqjlt0m0000gn/T//ccCJ1kuw.s 			page 64


 2602 000c 0C000000 		.word	12
 2603              		.section	.data.__compound_literal.58,"aw"
 2604              		.align	2
 2607              	__compound_literal.58:
 2608 0000 01000000 		.word	1
 2609 0004 01000000 		.word	1
 2610 0008 03000000 		.word	3
 2611 000c 03000000 		.word	3
 2612              		.section	.data._fc4_Gemm_output_0_bias,"aw"
 2613              		.align	2
 2616              	_fc4_Gemm_output_0_bias:
 2617 0000 00000000 		.word	0
 2618 0004 1C00     		.short	28
 2619 0006 00       		.byte	0
 2620 0007 01       		.byte	1
 2621 0008 01       		.byte	1
 2622 0009 04       		.byte	4
 2623 000a 00       		.byte	0
 2624 000b 00       		.byte	0
 2625 000c 00000000 		.word	__compound_literal.56
 2626 0010 02       		.byte	2
 2627 0011 04       		.byte	4
 2628 0012 00       		.byte	0
 2629 0013 00       		.byte	0
 2630 0014 00000000 		.word	__compound_literal.57
 2631 0018 00000000 		.word	_fc4_Gemm_output_0_bias_array
 2632              		.section	.data.__compound_literal.57,"aw"
 2633              		.align	2
 2636              	__compound_literal.57:
 2637 0000 04000000 		.word	4
 2638 0004 04000000 		.word	4
 2639 0008 10000000 		.word	16
 2640 000c 10000000 		.word	16
 2641              		.section	.data.__compound_literal.56,"aw"
 2642              		.align	2
 2645              	__compound_literal.56:
 2646 0000 01000000 		.word	1
 2647 0004 04000000 		.word	4
 2648 0008 01000000 		.word	1
 2649 000c 01000000 		.word	1
 2650              		.section	.data._fc4_Gemm_output_0_weights,"aw"
 2651              		.align	2
 2654              	_fc4_Gemm_output_0_weights:
 2655 0000 00000000 		.word	0
 2656 0004 1B00     		.short	27
 2657 0006 00       		.byte	0
 2658 0007 01       		.byte	1
 2659 0008 01       		.byte	1
 2660 0009 04       		.byte	4
 2661 000a 00       		.byte	0
 2662 000b 00       		.byte	0
 2663 000c 00000000 		.word	__compound_literal.54
 2664 0010 02       		.byte	2
 2665 0011 04       		.byte	4
 2666 0012 00       		.byte	0
 2667 0013 00       		.byte	0
 2668 0014 00000000 		.word	__compound_literal.55
ARM GAS  /var/folders/n6/c271nzx11xl4r4_m7sqjlt0m0000gn/T//ccCJ1kuw.s 			page 65


 2669 0018 00000000 		.word	_fc4_Gemm_output_0_weights_array
 2670              		.section	.data.__compound_literal.55,"aw"
 2671              		.align	2
 2674              	__compound_literal.55:
 2675 0000 04000000 		.word	4
 2676 0004 20000000 		.word	32
 2677 0008 80000000 		.word	128
 2678 000c 80000000 		.word	128
 2679              		.section	.data.__compound_literal.54,"aw"
 2680              		.align	2
 2683              	__compound_literal.54:
 2684 0000 08000000 		.word	8
 2685 0004 04000000 		.word	4
 2686 0008 01000000 		.word	1
 2687 000c 01000000 		.word	1
 2688              		.section	.data._fc3_fc3_0_Gemm_output_0_bias,"aw"
 2689              		.align	2
 2692              	_fc3_fc3_0_Gemm_output_0_bias:
 2693 0000 00000000 		.word	0
 2694 0004 1A00     		.short	26
 2695 0006 00       		.byte	0
 2696 0007 01       		.byte	1
 2697 0008 01       		.byte	1
 2698 0009 04       		.byte	4
 2699 000a 00       		.byte	0
 2700 000b 00       		.byte	0
 2701 000c 00000000 		.word	__compound_literal.52
 2702 0010 02       		.byte	2
 2703 0011 04       		.byte	4
 2704 0012 00       		.byte	0
 2705 0013 00       		.byte	0
 2706 0014 00000000 		.word	__compound_literal.53
 2707 0018 00000000 		.word	_fc3_fc3_0_Gemm_output_0_bias_array
 2708              		.section	.data.__compound_literal.53,"aw"
 2709              		.align	2
 2712              	__compound_literal.53:
 2713 0000 04000000 		.word	4
 2714 0004 04000000 		.word	4
 2715 0008 20000000 		.word	32
 2716 000c 20000000 		.word	32
 2717              		.section	.data.__compound_literal.52,"aw"
 2718              		.align	2
 2721              	__compound_literal.52:
 2722 0000 01000000 		.word	1
 2723 0004 08000000 		.word	8
 2724 0008 01000000 		.word	1
 2725 000c 01000000 		.word	1
 2726              		.section	.data._fc3_fc3_0_Gemm_output_0_weights,"aw"
 2727              		.align	2
 2730              	_fc3_fc3_0_Gemm_output_0_weights:
 2731 0000 00000000 		.word	0
 2732 0004 1900     		.short	25
 2733 0006 00       		.byte	0
 2734 0007 01       		.byte	1
 2735 0008 01       		.byte	1
 2736 0009 04       		.byte	4
 2737 000a 00       		.byte	0
ARM GAS  /var/folders/n6/c271nzx11xl4r4_m7sqjlt0m0000gn/T//ccCJ1kuw.s 			page 66


 2738 000b 00       		.byte	0
 2739 000c 00000000 		.word	__compound_literal.50
 2740 0010 02       		.byte	2
 2741 0011 04       		.byte	4
 2742 0012 00       		.byte	0
 2743 0013 00       		.byte	0
 2744 0014 00000000 		.word	__compound_literal.51
 2745 0018 00000000 		.word	_fc3_fc3_0_Gemm_output_0_weights_array
 2746              		.section	.data.__compound_literal.51,"aw"
 2747              		.align	2
 2750              	__compound_literal.51:
 2751 0000 04000000 		.word	4
 2752 0004 80000000 		.word	128
 2753 0008 00040000 		.word	1024
 2754 000c 00040000 		.word	1024
 2755              		.section	.data.__compound_literal.50,"aw"
 2756              		.align	2
 2759              	__compound_literal.50:
 2760 0000 20000000 		.word	32
 2761 0004 08000000 		.word	8
 2762 0008 01000000 		.word	1
 2763 000c 01000000 		.word	1
 2764              		.section	.data._fc2_fc2_0_Gemm_output_0_bias,"aw"
 2765              		.align	2
 2768              	_fc2_fc2_0_Gemm_output_0_bias:
 2769 0000 00000000 		.word	0
 2770 0004 1800     		.short	24
 2771 0006 00       		.byte	0
 2772 0007 01       		.byte	1
 2773 0008 01       		.byte	1
 2774 0009 04       		.byte	4
 2775 000a 00       		.byte	0
 2776 000b 00       		.byte	0
 2777 000c 00000000 		.word	__compound_literal.48
 2778 0010 02       		.byte	2
 2779 0011 04       		.byte	4
 2780 0012 00       		.byte	0
 2781 0013 00       		.byte	0
 2782 0014 00000000 		.word	__compound_literal.49
 2783 0018 00000000 		.word	_fc2_fc2_0_Gemm_output_0_bias_array
 2784              		.section	.data.__compound_literal.49,"aw"
 2785              		.align	2
 2788              	__compound_literal.49:
 2789 0000 04000000 		.word	4
 2790 0004 04000000 		.word	4
 2791 0008 80000000 		.word	128
 2792 000c 80000000 		.word	128
 2793              		.section	.data.__compound_literal.48,"aw"
 2794              		.align	2
 2797              	__compound_literal.48:
 2798 0000 01000000 		.word	1
 2799 0004 20000000 		.word	32
 2800 0008 01000000 		.word	1
 2801 000c 01000000 		.word	1
 2802              		.section	.data._fc2_fc2_0_Gemm_output_0_weights,"aw"
 2803              		.align	2
 2806              	_fc2_fc2_0_Gemm_output_0_weights:
ARM GAS  /var/folders/n6/c271nzx11xl4r4_m7sqjlt0m0000gn/T//ccCJ1kuw.s 			page 67


 2807 0000 00000000 		.word	0
 2808 0004 1700     		.short	23
 2809 0006 00       		.byte	0
 2810 0007 01       		.byte	1
 2811 0008 01       		.byte	1
 2812 0009 04       		.byte	4
 2813 000a 00       		.byte	0
 2814 000b 00       		.byte	0
 2815 000c 00000000 		.word	__compound_literal.46
 2816 0010 02       		.byte	2
 2817 0011 04       		.byte	4
 2818 0012 00       		.byte	0
 2819 0013 00       		.byte	0
 2820 0014 00000000 		.word	__compound_literal.47
 2821 0018 00000000 		.word	_fc2_fc2_0_Gemm_output_0_weights_array
 2822              		.section	.data.__compound_literal.47,"aw"
 2823              		.align	2
 2826              	__compound_literal.47:
 2827 0000 04000000 		.word	4
 2828 0004 A0000000 		.word	160
 2829 0008 00140000 		.word	5120
 2830 000c 00140000 		.word	5120
 2831              		.section	.data.__compound_literal.46,"aw"
 2832              		.align	2
 2835              	__compound_literal.46:
 2836 0000 28000000 		.word	40
 2837 0004 20000000 		.word	32
 2838 0008 01000000 		.word	1
 2839 000c 01000000 		.word	1
 2840              		.section	.data._fc1_fc1_0_Gemm_output_0_bias,"aw"
 2841              		.align	2
 2844              	_fc1_fc1_0_Gemm_output_0_bias:
 2845 0000 00000000 		.word	0
 2846 0004 1600     		.short	22
 2847 0006 00       		.byte	0
 2848 0007 01       		.byte	1
 2849 0008 01       		.byte	1
 2850 0009 04       		.byte	4
 2851 000a 00       		.byte	0
 2852 000b 00       		.byte	0
 2853 000c 00000000 		.word	__compound_literal.44
 2854 0010 02       		.byte	2
 2855 0011 04       		.byte	4
 2856 0012 00       		.byte	0
 2857 0013 00       		.byte	0
 2858 0014 00000000 		.word	__compound_literal.45
 2859 0018 00000000 		.word	_fc1_fc1_0_Gemm_output_0_bias_array
 2860              		.section	.data.__compound_literal.45,"aw"
 2861              		.align	2
 2864              	__compound_literal.45:
 2865 0000 04000000 		.word	4
 2866 0004 04000000 		.word	4
 2867 0008 A0000000 		.word	160
 2868 000c A0000000 		.word	160
 2869              		.section	.data.__compound_literal.44,"aw"
 2870              		.align	2
 2873              	__compound_literal.44:
ARM GAS  /var/folders/n6/c271nzx11xl4r4_m7sqjlt0m0000gn/T//ccCJ1kuw.s 			page 68


 2874 0000 01000000 		.word	1
 2875 0004 28000000 		.word	40
 2876 0008 01000000 		.word	1
 2877 000c 01000000 		.word	1
 2878              		.section	.data._fc1_fc1_0_Gemm_output_0_weights,"aw"
 2879              		.align	2
 2882              	_fc1_fc1_0_Gemm_output_0_weights:
 2883 0000 00000000 		.word	0
 2884 0004 1500     		.short	21
 2885 0006 00       		.byte	0
 2886 0007 01       		.byte	1
 2887 0008 01       		.byte	1
 2888 0009 04       		.byte	4
 2889 000a 00       		.byte	0
 2890 000b 00       		.byte	0
 2891 000c 00000000 		.word	__compound_literal.42
 2892 0010 02       		.byte	2
 2893 0011 04       		.byte	4
 2894 0012 00       		.byte	0
 2895 0013 00       		.byte	0
 2896 0014 00000000 		.word	__compound_literal.43
 2897 0018 00000000 		.word	_fc1_fc1_0_Gemm_output_0_weights_array
 2898              		.section	.data.__compound_literal.43,"aw"
 2899              		.align	2
 2902              	__compound_literal.43:
 2903 0000 04000000 		.word	4
 2904 0004 000E0000 		.word	3584
 2905 0008 00300200 		.word	143360
 2906 000c 00300200 		.word	143360
 2907              		.section	.data.__compound_literal.42,"aw"
 2908              		.align	2
 2911              	__compound_literal.42:
 2912 0000 80030000 		.word	896
 2913 0004 28000000 		.word	40
 2914 0008 01000000 		.word	1
 2915 000c 01000000 		.word	1
 2916              		.section	.data._conv2_conv2_0_Conv_output_0_bias,"aw"
 2917              		.align	2
 2920              	_conv2_conv2_0_Conv_output_0_bias:
 2921 0000 00000000 		.word	0
 2922 0004 1400     		.short	20
 2923 0006 00       		.byte	0
 2924 0007 01       		.byte	1
 2925 0008 01       		.byte	1
 2926 0009 04       		.byte	4
 2927 000a 00       		.byte	0
 2928 000b 00       		.byte	0
 2929 000c 00000000 		.word	__compound_literal.40
 2930 0010 02       		.byte	2
 2931 0011 04       		.byte	4
 2932 0012 00       		.byte	0
 2933 0013 00       		.byte	0
 2934 0014 00000000 		.word	__compound_literal.41
 2935 0018 00000000 		.word	_conv2_conv2_0_Conv_output_0_bias_array
 2936              		.section	.data.__compound_literal.41,"aw"
 2937              		.align	2
 2940              	__compound_literal.41:
ARM GAS  /var/folders/n6/c271nzx11xl4r4_m7sqjlt0m0000gn/T//ccCJ1kuw.s 			page 69


 2941 0000 04000000 		.word	4
 2942 0004 04000000 		.word	4
 2943 0008 40000000 		.word	64
 2944 000c 40000000 		.word	64
 2945              		.section	.data.__compound_literal.40,"aw"
 2946              		.align	2
 2949              	__compound_literal.40:
 2950 0000 01000000 		.word	1
 2951 0004 10000000 		.word	16
 2952 0008 01000000 		.word	1
 2953 000c 01000000 		.word	1
 2954              		.section	.data._conv2_conv2_0_Conv_output_0_weights,"aw"
 2955              		.align	2
 2958              	_conv2_conv2_0_Conv_output_0_weights:
 2959 0000 00000000 		.word	0
 2960 0004 1300     		.short	19
 2961 0006 00       		.byte	0
 2962 0007 01       		.byte	1
 2963 0008 01       		.byte	1
 2964 0009 04       		.byte	4
 2965 000a 00       		.byte	0
 2966 000b 00       		.byte	0
 2967 000c 00000000 		.word	__compound_literal.38
 2968 0010 02       		.byte	2
 2969 0011 04       		.byte	4
 2970 0012 00       		.byte	0
 2971 0013 00       		.byte	0
 2972 0014 00000000 		.word	__compound_literal.39
 2973 0018 00000000 		.word	_conv2_conv2_0_Conv_output_0_weights_array
 2974              		.section	.data.__compound_literal.39,"aw"
 2975              		.align	2
 2978              	__compound_literal.39:
 2979 0000 04000000 		.word	4
 2980 0004 10000000 		.word	16
 2981 0008 00010000 		.word	256
 2982 000c 00030000 		.word	768
 2983              		.section	.data.__compound_literal.38,"aw"
 2984              		.align	2
 2987              	__compound_literal.38:
 2988 0000 04000000 		.word	4
 2989 0004 03000000 		.word	3
 2990 0008 03000000 		.word	3
 2991 000c 10000000 		.word	16
 2992              		.section	.data._conv1_conv1_0_Conv_output_0_bias,"aw"
 2993              		.align	2
 2996              	_conv1_conv1_0_Conv_output_0_bias:
 2997 0000 00000000 		.word	0
 2998 0004 1200     		.short	18
 2999 0006 00       		.byte	0
 3000 0007 01       		.byte	1
 3001 0008 01       		.byte	1
 3002 0009 04       		.byte	4
 3003 000a 00       		.byte	0
 3004 000b 00       		.byte	0
 3005 000c 00000000 		.word	__compound_literal.36
 3006 0010 02       		.byte	2
 3007 0011 04       		.byte	4
ARM GAS  /var/folders/n6/c271nzx11xl4r4_m7sqjlt0m0000gn/T//ccCJ1kuw.s 			page 70


 3008 0012 00       		.byte	0
 3009 0013 00       		.byte	0
 3010 0014 00000000 		.word	__compound_literal.37
 3011 0018 00000000 		.word	_conv1_conv1_0_Conv_output_0_bias_array
 3012              		.section	.data.__compound_literal.37,"aw"
 3013              		.align	2
 3016              	__compound_literal.37:
 3017 0000 04000000 		.word	4
 3018 0004 04000000 		.word	4
 3019 0008 10000000 		.word	16
 3020 000c 10000000 		.word	16
 3021              		.section	.data.__compound_literal.36,"aw"
 3022              		.align	2
 3025              	__compound_literal.36:
 3026 0000 01000000 		.word	1
 3027 0004 04000000 		.word	4
 3028 0008 01000000 		.word	1
 3029 000c 01000000 		.word	1
 3030              		.section	.data._conv1_conv1_0_Conv_output_0_weights,"aw"
 3031              		.align	2
 3034              	_conv1_conv1_0_Conv_output_0_weights:
 3035 0000 00000000 		.word	0
 3036 0004 1100     		.short	17
 3037 0006 00       		.byte	0
 3038 0007 01       		.byte	1
 3039 0008 01       		.byte	1
 3040 0009 04       		.byte	4
 3041 000a 00       		.byte	0
 3042 000b 00       		.byte	0
 3043 000c 00000000 		.word	__compound_literal.34
 3044 0010 02       		.byte	2
 3045 0011 04       		.byte	4
 3046 0012 00       		.byte	0
 3047 0013 00       		.byte	0
 3048 0014 00000000 		.word	__compound_literal.35
 3049 0018 00000000 		.word	_conv1_conv1_0_Conv_output_0_weights_array
 3050              		.section	.data.__compound_literal.35,"aw"
 3051              		.align	2
 3054              	__compound_literal.35:
 3055 0000 04000000 		.word	4
 3056 0004 04000000 		.word	4
 3057 0008 10000000 		.word	16
 3058 000c 30000000 		.word	48
 3059              		.section	.data.__compound_literal.34,"aw"
 3060              		.align	2
 3063              	__compound_literal.34:
 3064 0000 01000000 		.word	1
 3065 0004 03000000 		.word	3
 3066 0008 03000000 		.word	3
 3067 000c 04000000 		.word	4
 3068              		.section	.data.output_output,"aw"
 3069              		.align	2
 3072              	output_output:
 3073 0000 00000000 		.word	0
 3074 0004 1000     		.short	16
 3075 0006 00       		.byte	0
 3076 0007 01       		.byte	1
ARM GAS  /var/folders/n6/c271nzx11xl4r4_m7sqjlt0m0000gn/T//ccCJ1kuw.s 			page 71


 3077 0008 01       		.byte	1
 3078 0009 04       		.byte	4
 3079 000a 00       		.byte	0
 3080 000b 00       		.byte	0
 3081 000c 00000000 		.word	__compound_literal.32
 3082 0010 02       		.byte	2
 3083 0011 04       		.byte	4
 3084 0012 00       		.byte	0
 3085 0013 00       		.byte	0
 3086 0014 00000000 		.word	__compound_literal.33
 3087 0018 00000000 		.word	output_output_array
 3088              		.section	.data.__compound_literal.33,"aw"
 3089              		.align	2
 3092              	__compound_literal.33:
 3093 0000 04000000 		.word	4
 3094 0004 04000000 		.word	4
 3095 0008 10000000 		.word	16
 3096 000c 10000000 		.word	16
 3097              		.section	.data.__compound_literal.32,"aw"
 3098              		.align	2
 3101              	__compound_literal.32:
 3102 0000 01000000 		.word	1
 3103 0004 04000000 		.word	4
 3104 0008 01000000 		.word	1
 3105 000c 01000000 		.word	1
 3106              		.section	.data._fc4_Gemm_output_0_output,"aw"
 3107              		.align	2
 3110              	_fc4_Gemm_output_0_output:
 3111 0000 00000000 		.word	0
 3112 0004 0F00     		.short	15
 3113 0006 00       		.byte	0
 3114 0007 01       		.byte	1
 3115 0008 01       		.byte	1
 3116 0009 04       		.byte	4
 3117 000a 00       		.byte	0
 3118 000b 00       		.byte	0
 3119 000c 00000000 		.word	__compound_literal.30
 3120 0010 02       		.byte	2
 3121 0011 04       		.byte	4
 3122 0012 00       		.byte	0
 3123 0013 00       		.byte	0
 3124 0014 00000000 		.word	__compound_literal.31
 3125 0018 00000000 		.word	_fc4_Gemm_output_0_output_array
 3126              		.section	.data.__compound_literal.31,"aw"
 3127              		.align	2
 3130              	__compound_literal.31:
 3131 0000 04000000 		.word	4
 3132 0004 04000000 		.word	4
 3133 0008 10000000 		.word	16
 3134 000c 10000000 		.word	16
 3135              		.section	.data.__compound_literal.30,"aw"
 3136              		.align	2
 3139              	__compound_literal.30:
 3140 0000 01000000 		.word	1
 3141 0004 04000000 		.word	4
 3142 0008 01000000 		.word	1
 3143 000c 01000000 		.word	1
ARM GAS  /var/folders/n6/c271nzx11xl4r4_m7sqjlt0m0000gn/T//ccCJ1kuw.s 			page 72


 3144              		.section	.data._fc3_fc3_1_Relu_output_0_output,"aw"
 3145              		.align	2
 3148              	_fc3_fc3_1_Relu_output_0_output:
 3149 0000 00000000 		.word	0
 3150 0004 0E00     		.short	14
 3151 0006 00       		.byte	0
 3152 0007 01       		.byte	1
 3153 0008 01       		.byte	1
 3154 0009 04       		.byte	4
 3155 000a 00       		.byte	0
 3156 000b 00       		.byte	0
 3157 000c 00000000 		.word	__compound_literal.28
 3158 0010 02       		.byte	2
 3159 0011 04       		.byte	4
 3160 0012 00       		.byte	0
 3161 0013 00       		.byte	0
 3162 0014 00000000 		.word	__compound_literal.29
 3163 0018 00000000 		.word	_fc3_fc3_1_Relu_output_0_output_array
 3164              		.section	.data.__compound_literal.29,"aw"
 3165              		.align	2
 3168              	__compound_literal.29:
 3169 0000 04000000 		.word	4
 3170 0004 04000000 		.word	4
 3171 0008 20000000 		.word	32
 3172 000c 20000000 		.word	32
 3173              		.section	.data.__compound_literal.28,"aw"
 3174              		.align	2
 3177              	__compound_literal.28:
 3178 0000 01000000 		.word	1
 3179 0004 08000000 		.word	8
 3180 0008 01000000 		.word	1
 3181 000c 01000000 		.word	1
 3182              		.section	.data._fc3_fc3_0_Gemm_output_0_output,"aw"
 3183              		.align	2
 3186              	_fc3_fc3_0_Gemm_output_0_output:
 3187 0000 00000000 		.word	0
 3188 0004 0D00     		.short	13
 3189 0006 00       		.byte	0
 3190 0007 01       		.byte	1
 3191 0008 01       		.byte	1
 3192 0009 04       		.byte	4
 3193 000a 00       		.byte	0
 3194 000b 00       		.byte	0
 3195 000c 00000000 		.word	__compound_literal.26
 3196 0010 02       		.byte	2
 3197 0011 04       		.byte	4
 3198 0012 00       		.byte	0
 3199 0013 00       		.byte	0
 3200 0014 00000000 		.word	__compound_literal.27
 3201 0018 00000000 		.word	_fc3_fc3_0_Gemm_output_0_output_array
 3202              		.section	.data.__compound_literal.27,"aw"
 3203              		.align	2
 3206              	__compound_literal.27:
 3207 0000 04000000 		.word	4
 3208 0004 04000000 		.word	4
 3209 0008 20000000 		.word	32
 3210 000c 20000000 		.word	32
ARM GAS  /var/folders/n6/c271nzx11xl4r4_m7sqjlt0m0000gn/T//ccCJ1kuw.s 			page 73


 3211              		.section	.data.__compound_literal.26,"aw"
 3212              		.align	2
 3215              	__compound_literal.26:
 3216 0000 01000000 		.word	1
 3217 0004 08000000 		.word	8
 3218 0008 01000000 		.word	1
 3219 000c 01000000 		.word	1
 3220              		.section	.data._fc2_fc2_1_Relu_output_0_output,"aw"
 3221              		.align	2
 3224              	_fc2_fc2_1_Relu_output_0_output:
 3225 0000 00000000 		.word	0
 3226 0004 0C00     		.short	12
 3227 0006 00       		.byte	0
 3228 0007 01       		.byte	1
 3229 0008 01       		.byte	1
 3230 0009 04       		.byte	4
 3231 000a 00       		.byte	0
 3232 000b 00       		.byte	0
 3233 000c 00000000 		.word	__compound_literal.24
 3234 0010 02       		.byte	2
 3235 0011 04       		.byte	4
 3236 0012 00       		.byte	0
 3237 0013 00       		.byte	0
 3238 0014 00000000 		.word	__compound_literal.25
 3239 0018 00000000 		.word	_fc2_fc2_1_Relu_output_0_output_array
 3240              		.section	.data.__compound_literal.25,"aw"
 3241              		.align	2
 3244              	__compound_literal.25:
 3245 0000 04000000 		.word	4
 3246 0004 04000000 		.word	4
 3247 0008 80000000 		.word	128
 3248 000c 80000000 		.word	128
 3249              		.section	.data.__compound_literal.24,"aw"
 3250              		.align	2
 3253              	__compound_literal.24:
 3254 0000 01000000 		.word	1
 3255 0004 20000000 		.word	32
 3256 0008 01000000 		.word	1
 3257 000c 01000000 		.word	1
 3258              		.section	.data._fc2_fc2_0_Gemm_output_0_output,"aw"
 3259              		.align	2
 3262              	_fc2_fc2_0_Gemm_output_0_output:
 3263 0000 00000000 		.word	0
 3264 0004 0B00     		.short	11
 3265 0006 00       		.byte	0
 3266 0007 01       		.byte	1
 3267 0008 01       		.byte	1
 3268 0009 04       		.byte	4
 3269 000a 00       		.byte	0
 3270 000b 00       		.byte	0
 3271 000c 00000000 		.word	__compound_literal.22
 3272 0010 02       		.byte	2
 3273 0011 04       		.byte	4
 3274 0012 00       		.byte	0
 3275 0013 00       		.byte	0
 3276 0014 00000000 		.word	__compound_literal.23
 3277 0018 00000000 		.word	_fc2_fc2_0_Gemm_output_0_output_array
ARM GAS  /var/folders/n6/c271nzx11xl4r4_m7sqjlt0m0000gn/T//ccCJ1kuw.s 			page 74


 3278              		.section	.data.__compound_literal.23,"aw"
 3279              		.align	2
 3282              	__compound_literal.23:
 3283 0000 04000000 		.word	4
 3284 0004 04000000 		.word	4
 3285 0008 80000000 		.word	128
 3286 000c 80000000 		.word	128
 3287              		.section	.data.__compound_literal.22,"aw"
 3288              		.align	2
 3291              	__compound_literal.22:
 3292 0000 01000000 		.word	1
 3293 0004 20000000 		.word	32
 3294 0008 01000000 		.word	1
 3295 000c 01000000 		.word	1
 3296              		.section	.data._fc1_fc1_1_Relu_output_0_output,"aw"
 3297              		.align	2
 3300              	_fc1_fc1_1_Relu_output_0_output:
 3301 0000 00000000 		.word	0
 3302 0004 0A00     		.short	10
 3303 0006 00       		.byte	0
 3304 0007 01       		.byte	1
 3305 0008 01       		.byte	1
 3306 0009 04       		.byte	4
 3307 000a 00       		.byte	0
 3308 000b 00       		.byte	0
 3309 000c 00000000 		.word	__compound_literal.20
 3310 0010 02       		.byte	2
 3311 0011 04       		.byte	4
 3312 0012 00       		.byte	0
 3313 0013 00       		.byte	0
 3314 0014 00000000 		.word	__compound_literal.21
 3315 0018 00000000 		.word	_fc1_fc1_1_Relu_output_0_output_array
 3316              		.section	.data.__compound_literal.21,"aw"
 3317              		.align	2
 3320              	__compound_literal.21:
 3321 0000 04000000 		.word	4
 3322 0004 04000000 		.word	4
 3323 0008 A0000000 		.word	160
 3324 000c A0000000 		.word	160
 3325              		.section	.data.__compound_literal.20,"aw"
 3326              		.align	2
 3329              	__compound_literal.20:
 3330 0000 01000000 		.word	1
 3331 0004 28000000 		.word	40
 3332 0008 01000000 		.word	1
 3333 000c 01000000 		.word	1
 3334              		.section	.data._fc1_fc1_0_Gemm_output_0_output,"aw"
 3335              		.align	2
 3338              	_fc1_fc1_0_Gemm_output_0_output:
 3339 0000 00000000 		.word	0
 3340 0004 0900     		.short	9
 3341 0006 00       		.byte	0
 3342 0007 01       		.byte	1
 3343 0008 01       		.byte	1
 3344 0009 04       		.byte	4
 3345 000a 00       		.byte	0
 3346 000b 00       		.byte	0
ARM GAS  /var/folders/n6/c271nzx11xl4r4_m7sqjlt0m0000gn/T//ccCJ1kuw.s 			page 75


 3347 000c 00000000 		.word	__compound_literal.18
 3348 0010 02       		.byte	2
 3349 0011 04       		.byte	4
 3350 0012 00       		.byte	0
 3351 0013 00       		.byte	0
 3352 0014 00000000 		.word	__compound_literal.19
 3353 0018 00000000 		.word	_fc1_fc1_0_Gemm_output_0_output_array
 3354              		.section	.data.__compound_literal.19,"aw"
 3355              		.align	2
 3358              	__compound_literal.19:
 3359 0000 04000000 		.word	4
 3360 0004 04000000 		.word	4
 3361 0008 A0000000 		.word	160
 3362 000c A0000000 		.word	160
 3363              		.section	.data.__compound_literal.18,"aw"
 3364              		.align	2
 3367              	__compound_literal.18:
 3368 0000 01000000 		.word	1
 3369 0004 28000000 		.word	40
 3370 0008 01000000 		.word	1
 3371 000c 01000000 		.word	1
 3372              		.section	.data._flatten_Flatten_output_0_to_chlast_output0,"aw"
 3373              		.align	2
 3376              	_flatten_Flatten_output_0_to_chlast_output0:
 3377 0000 00000000 		.word	0
 3378 0004 0800     		.short	8
 3379 0006 00       		.byte	0
 3380 0007 01       		.byte	1
 3381 0008 01       		.byte	1
 3382 0009 04       		.byte	4
 3383 000a 00       		.byte	0
 3384 000b 00       		.byte	0
 3385 000c 00000000 		.word	__compound_literal.16
 3386 0010 02       		.byte	2
 3387 0011 04       		.byte	4
 3388 0012 00       		.byte	0
 3389 0013 00       		.byte	0
 3390 0014 00000000 		.word	__compound_literal.17
 3391 0018 00000000 		.word	_flatten_Flatten_output_0_to_chlast_output_array
 3392              		.section	.data.__compound_literal.17,"aw"
 3393              		.align	2
 3396              	__compound_literal.17:
 3397 0000 04000000 		.word	4
 3398 0004 04000000 		.word	4
 3399 0008 000E0000 		.word	3584
 3400 000c 000E0000 		.word	3584
 3401              		.section	.data.__compound_literal.16,"aw"
 3402              		.align	2
 3405              	__compound_literal.16:
 3406 0000 01000000 		.word	1
 3407 0004 80030000 		.word	896
 3408 0008 01000000 		.word	1
 3409 000c 01000000 		.word	1
 3410              		.section	.data._flatten_Flatten_output_0_to_chlast_output,"aw"
 3411              		.align	2
 3414              	_flatten_Flatten_output_0_to_chlast_output:
 3415 0000 00000000 		.word	0
ARM GAS  /var/folders/n6/c271nzx11xl4r4_m7sqjlt0m0000gn/T//ccCJ1kuw.s 			page 76


 3416 0004 0700     		.short	7
 3417 0006 00       		.byte	0
 3418 0007 01       		.byte	1
 3419 0008 01       		.byte	1
 3420 0009 04       		.byte	4
 3421 000a 00       		.byte	0
 3422 000b 00       		.byte	0
 3423 000c 00000000 		.word	__compound_literal.14
 3424 0010 02       		.byte	2
 3425 0011 04       		.byte	4
 3426 0012 00       		.byte	0
 3427 0013 00       		.byte	0
 3428 0014 00000000 		.word	__compound_literal.15
 3429 0018 00000000 		.word	_flatten_Flatten_output_0_to_chlast_output_array
 3430              		.section	.data.__compound_literal.15,"aw"
 3431              		.align	2
 3434              	__compound_literal.15:
 3435 0000 04000000 		.word	4
 3436 0004 04000000 		.word	4
 3437 0008 1C000000 		.word	28
 3438 000c E0000000 		.word	224
 3439              		.section	.data.__compound_literal.14,"aw"
 3440              		.align	2
 3443              	__compound_literal.14:
 3444 0000 01000000 		.word	1
 3445 0004 07000000 		.word	7
 3446 0008 08000000 		.word	8
 3447 000c 10000000 		.word	16
 3448              		.section	.data._conv2_conv2_2_MaxPool_output_0_output,"aw"
 3449              		.align	2
 3452              	_conv2_conv2_2_MaxPool_output_0_output:
 3453 0000 00000000 		.word	0
 3454 0004 0600     		.short	6
 3455 0006 00       		.byte	0
 3456 0007 01       		.byte	1
 3457 0008 01       		.byte	1
 3458 0009 04       		.byte	4
 3459 000a 00       		.byte	0
 3460 000b 00       		.byte	0
 3461 000c 00000000 		.word	__compound_literal.12
 3462 0010 02       		.byte	2
 3463 0011 04       		.byte	4
 3464 0012 00       		.byte	0
 3465 0013 00       		.byte	0
 3466 0014 00000000 		.word	__compound_literal.13
 3467 0018 00000000 		.word	_conv2_conv2_2_MaxPool_output_0_output_array
 3468              		.section	.data.__compound_literal.13,"aw"
 3469              		.align	2
 3472              	__compound_literal.13:
 3473 0000 04000000 		.word	4
 3474 0004 04000000 		.word	4
 3475 0008 40000000 		.word	64
 3476 000c C0010000 		.word	448
 3477              		.section	.data.__compound_literal.12,"aw"
 3478              		.align	2
 3481              	__compound_literal.12:
 3482 0000 01000000 		.word	1
ARM GAS  /var/folders/n6/c271nzx11xl4r4_m7sqjlt0m0000gn/T//ccCJ1kuw.s 			page 77


 3483 0004 10000000 		.word	16
 3484 0008 07000000 		.word	7
 3485 000c 08000000 		.word	8
 3486              		.section	.data._conv2_conv2_1_Relu_output_0_output,"aw"
 3487              		.align	2
 3490              	_conv2_conv2_1_Relu_output_0_output:
 3491 0000 00000000 		.word	0
 3492 0004 0500     		.short	5
 3493 0006 00       		.byte	0
 3494 0007 01       		.byte	1
 3495 0008 01       		.byte	1
 3496 0009 04       		.byte	4
 3497 000a 00       		.byte	0
 3498 000b 00       		.byte	0
 3499 000c 00000000 		.word	__compound_literal.10
 3500 0010 02       		.byte	2
 3501 0011 04       		.byte	4
 3502 0012 00       		.byte	0
 3503 0013 00       		.byte	0
 3504 0014 00000000 		.word	__compound_literal.11
 3505 0018 00000000 		.word	_conv2_conv2_1_Relu_output_0_output_array
 3506              		.section	.data.__compound_literal.11,"aw"
 3507              		.align	2
 3510              	__compound_literal.11:
 3511 0000 04000000 		.word	4
 3512 0004 04000000 		.word	4
 3513 0008 40000000 		.word	64
 3514 000c C0030000 		.word	960
 3515              		.section	.data.__compound_literal.10,"aw"
 3516              		.align	2
 3519              	__compound_literal.10:
 3520 0000 01000000 		.word	1
 3521 0004 10000000 		.word	16
 3522 0008 0F000000 		.word	15
 3523 000c 10000000 		.word	16
 3524              		.section	.data._conv2_conv2_0_Conv_output_0_output,"aw"
 3525              		.align	2
 3528              	_conv2_conv2_0_Conv_output_0_output:
 3529 0000 00000000 		.word	0
 3530 0004 0400     		.short	4
 3531 0006 00       		.byte	0
 3532 0007 01       		.byte	1
 3533 0008 01       		.byte	1
 3534 0009 04       		.byte	4
 3535 000a 00       		.byte	0
 3536 000b 00       		.byte	0
 3537 000c 00000000 		.word	__compound_literal.8
 3538 0010 02       		.byte	2
 3539 0011 04       		.byte	4
 3540 0012 00       		.byte	0
 3541 0013 00       		.byte	0
 3542 0014 00000000 		.word	__compound_literal.9
 3543 0018 00000000 		.word	_conv2_conv2_0_Conv_output_0_output_array
 3544              		.section	.data.__compound_literal.9,"aw"
 3545              		.align	2
 3548              	__compound_literal.9:
 3549 0000 04000000 		.word	4
ARM GAS  /var/folders/n6/c271nzx11xl4r4_m7sqjlt0m0000gn/T//ccCJ1kuw.s 			page 78


 3550 0004 04000000 		.word	4
 3551 0008 40000000 		.word	64
 3552 000c C0030000 		.word	960
 3553              		.section	.data.__compound_literal.8,"aw"
 3554              		.align	2
 3557              	__compound_literal.8:
 3558 0000 01000000 		.word	1
 3559 0004 10000000 		.word	16
 3560 0008 0F000000 		.word	15
 3561 000c 10000000 		.word	16
 3562              		.section	.data._conv1_conv1_2_MaxPool_output_0_output,"aw"
 3563              		.align	2
 3566              	_conv1_conv1_2_MaxPool_output_0_output:
 3567 0000 00000000 		.word	0
 3568 0004 0300     		.short	3
 3569 0006 00       		.byte	0
 3570 0007 01       		.byte	1
 3571 0008 01       		.byte	1
 3572 0009 04       		.byte	4
 3573 000a 00       		.byte	0
 3574 000b 00       		.byte	0
 3575 000c 00000000 		.word	__compound_literal.6
 3576 0010 02       		.byte	2
 3577 0011 04       		.byte	4
 3578 0012 00       		.byte	0
 3579 0013 00       		.byte	0
 3580 0014 00000000 		.word	__compound_literal.7
 3581 0018 00000000 		.word	_conv1_conv1_2_MaxPool_output_0_output_array
 3582              		.section	.data.__compound_literal.7,"aw"
 3583              		.align	2
 3586              	__compound_literal.7:
 3587 0000 04000000 		.word	4
 3588 0004 04000000 		.word	4
 3589 0008 10000000 		.word	16
 3590 000c F0000000 		.word	240
 3591              		.section	.data.__compound_literal.6,"aw"
 3592              		.align	2
 3595              	__compound_literal.6:
 3596 0000 01000000 		.word	1
 3597 0004 04000000 		.word	4
 3598 0008 0F000000 		.word	15
 3599 000c 10000000 		.word	16
 3600              		.section	.data._conv1_conv1_1_Relu_output_0_output,"aw"
 3601              		.align	2
 3604              	_conv1_conv1_1_Relu_output_0_output:
 3605 0000 00000000 		.word	0
 3606 0004 0200     		.short	2
 3607 0006 00       		.byte	0
 3608 0007 01       		.byte	1
 3609 0008 01       		.byte	1
 3610 0009 04       		.byte	4
 3611 000a 00       		.byte	0
 3612 000b 00       		.byte	0
 3613 000c 00000000 		.word	__compound_literal.4
 3614 0010 02       		.byte	2
 3615 0011 04       		.byte	4
 3616 0012 00       		.byte	0
ARM GAS  /var/folders/n6/c271nzx11xl4r4_m7sqjlt0m0000gn/T//ccCJ1kuw.s 			page 79


 3617 0013 00       		.byte	0
 3618 0014 00000000 		.word	__compound_literal.5
 3619 0018 00000000 		.word	_conv1_conv1_1_Relu_output_0_output_array
 3620              		.section	.data.__compound_literal.5,"aw"
 3621              		.align	2
 3624              	__compound_literal.5:
 3625 0000 04000000 		.word	4
 3626 0004 04000000 		.word	4
 3627 0008 10000000 		.word	16
 3628 000c E0010000 		.word	480
 3629              		.section	.data.__compound_literal.4,"aw"
 3630              		.align	2
 3633              	__compound_literal.4:
 3634 0000 01000000 		.word	1
 3635 0004 04000000 		.word	4
 3636 0008 1E000000 		.word	30
 3637 000c 20000000 		.word	32
 3638              		.section	.data._conv1_conv1_0_Conv_output_0_output,"aw"
 3639              		.align	2
 3642              	_conv1_conv1_0_Conv_output_0_output:
 3643 0000 00000000 		.word	0
 3644 0004 0100     		.short	1
 3645 0006 00       		.byte	0
 3646 0007 01       		.byte	1
 3647 0008 01       		.byte	1
 3648 0009 04       		.byte	4
 3649 000a 00       		.byte	0
 3650 000b 00       		.byte	0
 3651 000c 00000000 		.word	__compound_literal.2
 3652 0010 02       		.byte	2
 3653 0011 04       		.byte	4
 3654 0012 00       		.byte	0
 3655 0013 00       		.byte	0
 3656 0014 00000000 		.word	__compound_literal.3
 3657 0018 00000000 		.word	_conv1_conv1_0_Conv_output_0_output_array
 3658              		.section	.data.__compound_literal.3,"aw"
 3659              		.align	2
 3662              	__compound_literal.3:
 3663 0000 04000000 		.word	4
 3664 0004 04000000 		.word	4
 3665 0008 10000000 		.word	16
 3666 000c E0010000 		.word	480
 3667              		.section	.data.__compound_literal.2,"aw"
 3668              		.align	2
 3671              	__compound_literal.2:
 3672 0000 01000000 		.word	1
 3673 0004 04000000 		.word	4
 3674 0008 1E000000 		.word	30
 3675 000c 20000000 		.word	32
 3676              		.section	.data.input_output,"aw"
 3677              		.align	2
 3680              	input_output:
 3681 0000 00000000 		.word	0
 3682 0004 0000     		.short	0
 3683 0006 00       		.byte	0
 3684 0007 01       		.byte	1
 3685 0008 01       		.byte	1
ARM GAS  /var/folders/n6/c271nzx11xl4r4_m7sqjlt0m0000gn/T//ccCJ1kuw.s 			page 80


 3686 0009 04       		.byte	4
 3687 000a 00       		.byte	0
 3688 000b 00       		.byte	0
 3689 000c 00000000 		.word	__compound_literal.0
 3690 0010 02       		.byte	2
 3691 0011 04       		.byte	4
 3692 0012 00       		.byte	0
 3693 0013 00       		.byte	0
 3694 0014 00000000 		.word	__compound_literal.1
 3695 0018 00000000 		.word	input_output_array
 3696              		.section	.data.__compound_literal.1,"aw"
 3697              		.align	2
 3700              	__compound_literal.1:
 3701 0000 04000000 		.word	4
 3702 0004 04000000 		.word	4
 3703 0008 04000000 		.word	4
 3704 000c 78000000 		.word	120
 3705              		.section	.data.__compound_literal.0,"aw"
 3706              		.align	2
 3709              	__compound_literal.0:
 3710 0000 01000000 		.word	1
 3711 0004 01000000 		.word	1
 3712 0008 1E000000 		.word	30
 3713 000c 20000000 		.word	32
 3714              		.section	.data._conv2_conv2_0_Conv_output_0_scratch0_array,"aw"
 3715              		.align	2
 3718              	_conv2_conv2_0_Conv_output_0_scratch0_array:
 3719 0000 40108201 		.word	25301056
 3720 0004 24000000 		.word	36
 3721 0008 00000000 		.word	0
 3722 000c 00000000 		.word	0
 3723              		.section	.data._conv1_conv1_0_Conv_output_0_scratch0_array,"aw"
 3724              		.align	2
 3727              	_conv1_conv1_0_Conv_output_0_scratch0_array:
 3728 0000 40108201 		.word	25301056
 3729 0004 09000000 		.word	9
 3730 0008 00000000 		.word	0
 3731 000c 00000000 		.word	0
 3732              		.section	.data._fc4_Gemm_output_0_bias_array,"aw"
 3733              		.align	2
 3736              	_fc4_Gemm_output_0_bias_array:
 3737 0000 40108201 		.word	25301056
 3738 0004 04000000 		.word	4
 3739 0008 00000000 		.word	0
 3740 000c 00000000 		.word	0
 3741              		.section	.data._fc4_Gemm_output_0_weights_array,"aw"
 3742              		.align	2
 3745              	_fc4_Gemm_output_0_weights_array:
 3746 0000 40108201 		.word	25301056
 3747 0004 20000000 		.word	32
 3748 0008 00000000 		.word	0
 3749 000c 00000000 		.word	0
 3750              		.section	.data._fc3_fc3_0_Gemm_output_0_bias_array,"aw"
 3751              		.align	2
 3754              	_fc3_fc3_0_Gemm_output_0_bias_array:
 3755 0000 40108201 		.word	25301056
 3756 0004 08000000 		.word	8
ARM GAS  /var/folders/n6/c271nzx11xl4r4_m7sqjlt0m0000gn/T//ccCJ1kuw.s 			page 81


 3757 0008 00000000 		.word	0
 3758 000c 00000000 		.word	0
 3759              		.section	.data._fc3_fc3_0_Gemm_output_0_weights_array,"aw"
 3760              		.align	2
 3763              	_fc3_fc3_0_Gemm_output_0_weights_array:
 3764 0000 40108201 		.word	25301056
 3765 0004 00010000 		.word	256
 3766 0008 00000000 		.word	0
 3767 000c 00000000 		.word	0
 3768              		.section	.data._fc2_fc2_0_Gemm_output_0_bias_array,"aw"
 3769              		.align	2
 3772              	_fc2_fc2_0_Gemm_output_0_bias_array:
 3773 0000 40108201 		.word	25301056
 3774 0004 20000000 		.word	32
 3775 0008 00000000 		.word	0
 3776 000c 00000000 		.word	0
 3777              		.section	.data._fc2_fc2_0_Gemm_output_0_weights_array,"aw"
 3778              		.align	2
 3781              	_fc2_fc2_0_Gemm_output_0_weights_array:
 3782 0000 40108201 		.word	25301056
 3783 0004 00050000 		.word	1280
 3784 0008 00000000 		.word	0
 3785 000c 00000000 		.word	0
 3786              		.section	.data._fc1_fc1_0_Gemm_output_0_bias_array,"aw"
 3787              		.align	2
 3790              	_fc1_fc1_0_Gemm_output_0_bias_array:
 3791 0000 40108201 		.word	25301056
 3792 0004 28000000 		.word	40
 3793 0008 00000000 		.word	0
 3794 000c 00000000 		.word	0
 3795              		.section	.data._fc1_fc1_0_Gemm_output_0_weights_array,"aw"
 3796              		.align	2
 3799              	_fc1_fc1_0_Gemm_output_0_weights_array:
 3800 0000 40108201 		.word	25301056
 3801 0004 008C0000 		.word	35840
 3802 0008 00000000 		.word	0
 3803 000c 00000000 		.word	0
 3804              		.section	.data._conv2_conv2_0_Conv_output_0_bias_array,"aw"
 3805              		.align	2
 3808              	_conv2_conv2_0_Conv_output_0_bias_array:
 3809 0000 40108201 		.word	25301056
 3810 0004 10000000 		.word	16
 3811 0008 00000000 		.word	0
 3812 000c 00000000 		.word	0
 3813              		.section	.data._conv2_conv2_0_Conv_output_0_weights_array,"aw"
 3814              		.align	2
 3817              	_conv2_conv2_0_Conv_output_0_weights_array:
 3818 0000 40108201 		.word	25301056
 3819 0004 40020000 		.word	576
 3820 0008 00000000 		.word	0
 3821 000c 00000000 		.word	0
 3822              		.section	.data._conv1_conv1_0_Conv_output_0_bias_array,"aw"
 3823              		.align	2
 3826              	_conv1_conv1_0_Conv_output_0_bias_array:
 3827 0000 40108201 		.word	25301056
 3828 0004 04000000 		.word	4
 3829 0008 00000000 		.word	0
ARM GAS  /var/folders/n6/c271nzx11xl4r4_m7sqjlt0m0000gn/T//ccCJ1kuw.s 			page 82


 3830 000c 00000000 		.word	0
 3831              		.section	.data._conv1_conv1_0_Conv_output_0_weights_array,"aw"
 3832              		.align	2
 3835              	_conv1_conv1_0_Conv_output_0_weights_array:
 3836 0000 40108201 		.word	25301056
 3837 0004 24000000 		.word	36
 3838 0008 00000000 		.word	0
 3839 000c 00000000 		.word	0
 3840              		.section	.data.output_output_array,"aw"
 3841              		.align	2
 3844              	output_output_array:
 3845 0000 40108209 		.word	159518784
 3846 0004 04000000 		.word	4
 3847 0008 00000000 		.word	0
 3848 000c 00000000 		.word	0
 3849              		.section	.data._fc4_Gemm_output_0_output_array,"aw"
 3850              		.align	2
 3853              	_fc4_Gemm_output_0_output_array:
 3854 0000 40108201 		.word	25301056
 3855 0004 04000000 		.word	4
 3856 0008 00000000 		.word	0
 3857 000c 00000000 		.word	0
 3858              		.section	.data._fc3_fc3_1_Relu_output_0_output_array,"aw"
 3859              		.align	2
 3862              	_fc3_fc3_1_Relu_output_0_output_array:
 3863 0000 40108201 		.word	25301056
 3864 0004 08000000 		.word	8
 3865 0008 00000000 		.word	0
 3866 000c 00000000 		.word	0
 3867              		.section	.data._fc3_fc3_0_Gemm_output_0_output_array,"aw"
 3868              		.align	2
 3871              	_fc3_fc3_0_Gemm_output_0_output_array:
 3872 0000 40108201 		.word	25301056
 3873 0004 08000000 		.word	8
 3874 0008 00000000 		.word	0
 3875 000c 00000000 		.word	0
 3876              		.section	.data._fc2_fc2_1_Relu_output_0_output_array,"aw"
 3877              		.align	2
 3880              	_fc2_fc2_1_Relu_output_0_output_array:
 3881 0000 40108201 		.word	25301056
 3882 0004 20000000 		.word	32
 3883 0008 00000000 		.word	0
 3884 000c 00000000 		.word	0
 3885              		.section	.data._fc2_fc2_0_Gemm_output_0_output_array,"aw"
 3886              		.align	2
 3889              	_fc2_fc2_0_Gemm_output_0_output_array:
 3890 0000 40108201 		.word	25301056
 3891 0004 20000000 		.word	32
 3892 0008 00000000 		.word	0
 3893 000c 00000000 		.word	0
 3894              		.section	.data._fc1_fc1_1_Relu_output_0_output_array,"aw"
 3895              		.align	2
 3898              	_fc1_fc1_1_Relu_output_0_output_array:
 3899 0000 40108201 		.word	25301056
 3900 0004 28000000 		.word	40
 3901 0008 00000000 		.word	0
 3902 000c 00000000 		.word	0
ARM GAS  /var/folders/n6/c271nzx11xl4r4_m7sqjlt0m0000gn/T//ccCJ1kuw.s 			page 83


 3903              		.section	.data._fc1_fc1_0_Gemm_output_0_output_array,"aw"
 3904              		.align	2
 3907              	_fc1_fc1_0_Gemm_output_0_output_array:
 3908 0000 40108201 		.word	25301056
 3909 0004 28000000 		.word	40
 3910 0008 00000000 		.word	0
 3911 000c 00000000 		.word	0
 3912              		.section	.data._flatten_Flatten_output_0_to_chlast_output_array,"aw"
 3913              		.align	2
 3916              	_flatten_Flatten_output_0_to_chlast_output_array:
 3917 0000 40108201 		.word	25301056
 3918 0004 80030000 		.word	896
 3919 0008 00000000 		.word	0
 3920 000c 00000000 		.word	0
 3921              		.section	.data._conv2_conv2_2_MaxPool_output_0_output_array,"aw"
 3922              		.align	2
 3925              	_conv2_conv2_2_MaxPool_output_0_output_array:
 3926 0000 40108201 		.word	25301056
 3927 0004 80030000 		.word	896
 3928 0008 00000000 		.word	0
 3929 000c 00000000 		.word	0
 3930              		.section	.data._conv2_conv2_1_Relu_output_0_output_array,"aw"
 3931              		.align	2
 3934              	_conv2_conv2_1_Relu_output_0_output_array:
 3935 0000 40108201 		.word	25301056
 3936 0004 000F0000 		.word	3840
 3937 0008 00000000 		.word	0
 3938 000c 00000000 		.word	0
 3939              		.section	.data._conv2_conv2_0_Conv_output_0_output_array,"aw"
 3940              		.align	2
 3943              	_conv2_conv2_0_Conv_output_0_output_array:
 3944 0000 40108201 		.word	25301056
 3945 0004 000F0000 		.word	3840
 3946 0008 00000000 		.word	0
 3947 000c 00000000 		.word	0
 3948              		.section	.data._conv1_conv1_2_MaxPool_output_0_output_array,"aw"
 3949              		.align	2
 3952              	_conv1_conv1_2_MaxPool_output_0_output_array:
 3953 0000 40108201 		.word	25301056
 3954 0004 C0030000 		.word	960
 3955 0008 00000000 		.word	0
 3956 000c 00000000 		.word	0
 3957              		.section	.data._conv1_conv1_1_Relu_output_0_output_array,"aw"
 3958              		.align	2
 3961              	_conv1_conv1_1_Relu_output_0_output_array:
 3962 0000 40108201 		.word	25301056
 3963 0004 000F0000 		.word	3840
 3964 0008 00000000 		.word	0
 3965 000c 00000000 		.word	0
 3966              		.section	.data._conv1_conv1_0_Conv_output_0_output_array,"aw"
 3967              		.align	2
 3970              	_conv1_conv1_0_Conv_output_0_output_array:
 3971 0000 40108201 		.word	25301056
 3972 0004 000F0000 		.word	3840
 3973 0008 00000000 		.word	0
 3974 000c 00000000 		.word	0
