ARM GAS  /var/folders/n6/c271nzx11xl4r4_m7sqjlt0m0000gn/T//cc5HVXC8.s 			page 1


   1              		.cpu cortex-m7
   2              		.arch armv7e-m
   3              		.fpu fpv5-d16
   4              		.eabi_attribute 28, 1
   5              		.eabi_attribute 20, 1
   6              		.eabi_attribute 21, 1
   7              		.eabi_attribute 23, 3
   8              		.eabi_attribute 24, 1
   9              		.eabi_attribute 25, 1
  10              		.eabi_attribute 26, 1
  11              		.eabi_attribute 30, 1
  12              		.eabi_attribute 34, 1
  13              		.eabi_attribute 18, 4
  14              		.file	"bsp_driver_sd.c"
  15              		.text
  16              	.Ltext0:
  17              		.cfi_sections	.debug_frame
  18              		.file 1 "FATFS/Target/bsp_driver_sd.c"
  19              		.section	.text.BSP_SD_ITConfig,"ax",%progbits
  20              		.align	1
  21              		.global	BSP_SD_ITConfig
  22              		.syntax unified
  23              		.thumb
  24              		.thumb_func
  26              	BSP_SD_ITConfig:
  27              	.LFB143:
   1:FATFS/Target/bsp_driver_sd.c **** /**
   2:FATFS/Target/bsp_driver_sd.c ****  ******************************************************************************
   3:FATFS/Target/bsp_driver_sd.c ****  * @file    stm32f769i_discovery_sd.c
   4:FATFS/Target/bsp_driver_sd.c ****  * @author  MCD Application Team
   5:FATFS/Target/bsp_driver_sd.c ****  * @brief   This file includes the uSD card driver mounted on STM32F769I-Discovery
   6:FATFS/Target/bsp_driver_sd.c ****  *          board.
   7:FATFS/Target/bsp_driver_sd.c ****  ******************************************************************************
   8:FATFS/Target/bsp_driver_sd.c ****  * @attention
   9:FATFS/Target/bsp_driver_sd.c ****  *
  10:FATFS/Target/bsp_driver_sd.c ****  * Copyright (c) 2016 STMicroelectronics.
  11:FATFS/Target/bsp_driver_sd.c ****  * All rights reserved.
  12:FATFS/Target/bsp_driver_sd.c ****  *
  13:FATFS/Target/bsp_driver_sd.c ****  * This software is licensed under terms that can be found in the LICENSE file
  14:FATFS/Target/bsp_driver_sd.c ****  * in the root directory of this software component.
  15:FATFS/Target/bsp_driver_sd.c ****  * If no LICENSE file comes with this software, it is provided AS-IS.
  16:FATFS/Target/bsp_driver_sd.c ****  *
  17:FATFS/Target/bsp_driver_sd.c ****  ******************************************************************************
  18:FATFS/Target/bsp_driver_sd.c ****  */
  19:FATFS/Target/bsp_driver_sd.c **** 
  20:FATFS/Target/bsp_driver_sd.c **** /* File Info : -----------------------------------------------------------------
  21:FATFS/Target/bsp_driver_sd.c ****                                    User NOTES
  22:FATFS/Target/bsp_driver_sd.c **** 1. How To use this driver:
  23:FATFS/Target/bsp_driver_sd.c **** --------------------------
  24:FATFS/Target/bsp_driver_sd.c ****    - This driver is used to drive the micro SD external card mounted on STM32F769I-Discovery
  25:FATFS/Target/bsp_driver_sd.c ****      board.
  26:FATFS/Target/bsp_driver_sd.c ****    - This driver does not need a specific component driver for the micro SD device
  27:FATFS/Target/bsp_driver_sd.c ****      to be included with.
  28:FATFS/Target/bsp_driver_sd.c **** 
  29:FATFS/Target/bsp_driver_sd.c **** 2. Driver description:
  30:FATFS/Target/bsp_driver_sd.c **** ---------------------
  31:FATFS/Target/bsp_driver_sd.c ****   + Initialization steps:
ARM GAS  /var/folders/n6/c271nzx11xl4r4_m7sqjlt0m0000gn/T//cc5HVXC8.s 			page 2


  32:FATFS/Target/bsp_driver_sd.c ****      o Initialize the micro SD card using the BSP_SD_Init() function. This
  33:FATFS/Target/bsp_driver_sd.c ****        function includes the MSP layer hardware resources initialization and the
  34:FATFS/Target/bsp_driver_sd.c ****        SDIO interface configuration to interface with the external micro SD. It
  35:FATFS/Target/bsp_driver_sd.c ****        also includes the micro SD initialization sequence.
  36:FATFS/Target/bsp_driver_sd.c ****      o To check the SD card presence you can use the function BSP_SD_IsDetected() which
  37:FATFS/Target/bsp_driver_sd.c ****        returns the detection status
  38:FATFS/Target/bsp_driver_sd.c ****      o If SD presence detection interrupt mode is desired, you must configure the
  39:FATFS/Target/bsp_driver_sd.c ****        SD detection interrupt mode by calling the function BSP_SD_ITConfig(). The interrupt
  40:FATFS/Target/bsp_driver_sd.c ****        is generated as an external interrupt whenever the micro SD card is
  41:FATFS/Target/bsp_driver_sd.c ****        plugged/unplugged in/from the discovery board.
  42:FATFS/Target/bsp_driver_sd.c ****      o The function BSP_SD_GetCardInfo() is used to get the micro SD card information
  43:FATFS/Target/bsp_driver_sd.c ****        which is stored in the structure "HAL_SD_CardInfoTypedef".
  44:FATFS/Target/bsp_driver_sd.c **** 
  45:FATFS/Target/bsp_driver_sd.c ****   + Micro SD card operations
  46:FATFS/Target/bsp_driver_sd.c ****      o The micro SD card can be accessed with read/write block(s) operations once
  47:FATFS/Target/bsp_driver_sd.c ****        it is reay for access. The access cand be performed whether using the polling
  48:FATFS/Target/bsp_driver_sd.c ****        mode by calling the functions BSP_SD_ReadBlocks()/BSP_SD_WriteBlocks(), or by DMA
  49:FATFS/Target/bsp_driver_sd.c ****        transfer using the functions BSP_SD_ReadBlocks_DMA()/BSP_SD_WriteBlocks_DMA()
  50:FATFS/Target/bsp_driver_sd.c ****      o The DMA transfer complete is used with interrupt mode. Once the SD transfer
  51:FATFS/Target/bsp_driver_sd.c ****        is complete, the SD interrupt is handeled using the function BSP_SD_IRQHandler(),
  52:FATFS/Target/bsp_driver_sd.c ****        the DMA Tx/Rx transfer complete are handeled using the functions
  53:FATFS/Target/bsp_driver_sd.c ****        BSP_SD_DMA_Tx_IRQHandler()/BSP_SD_DMA_Rx_IRQHandler(). The corresponding user callbacks
  54:FATFS/Target/bsp_driver_sd.c ****        are implemented by the user at application level.
  55:FATFS/Target/bsp_driver_sd.c ****      o The SD erase block(s) is performed using the function BSP_SD_Erase() with specifying
  56:FATFS/Target/bsp_driver_sd.c ****        the number of blocks to erase.
  57:FATFS/Target/bsp_driver_sd.c ****      o The SD runtime status is returned when calling the function BSP_SD_GetCardState().
  58:FATFS/Target/bsp_driver_sd.c **** 
  59:FATFS/Target/bsp_driver_sd.c **** ------------------------------------------------------------------------------*/
  60:FATFS/Target/bsp_driver_sd.c **** 
  61:FATFS/Target/bsp_driver_sd.c **** /* Dependencies
  62:FATFS/Target/bsp_driver_sd.c **** - stm32f7xx_hal_sd.c
  63:FATFS/Target/bsp_driver_sd.c **** - stm32f7xx_ll_sdmmc.c
  64:FATFS/Target/bsp_driver_sd.c **** - stm32f7xx_hal_dma.c
  65:FATFS/Target/bsp_driver_sd.c **** - stm32f7xx_hal_gpio.c
  66:FATFS/Target/bsp_driver_sd.c **** - stm32f7xx_hal_cortex.c
  67:FATFS/Target/bsp_driver_sd.c **** - stm32f7xx_hal_rcc_ex.h
  68:FATFS/Target/bsp_driver_sd.c **** EndDependencies */
  69:FATFS/Target/bsp_driver_sd.c **** 
  70:FATFS/Target/bsp_driver_sd.c **** /* Includes ------------------------------------------------------------------*/
  71:FATFS/Target/bsp_driver_sd.c **** #include "bsp_driver_sd.h"
  72:FATFS/Target/bsp_driver_sd.c **** 
  73:FATFS/Target/bsp_driver_sd.c **** /** @addtogroup BSP
  74:FATFS/Target/bsp_driver_sd.c ****  * @{
  75:FATFS/Target/bsp_driver_sd.c ****  */
  76:FATFS/Target/bsp_driver_sd.c **** 
  77:FATFS/Target/bsp_driver_sd.c **** /** @addtogroup STM32F769I_DISCOVERY
  78:FATFS/Target/bsp_driver_sd.c ****  * @{
  79:FATFS/Target/bsp_driver_sd.c ****  */
  80:FATFS/Target/bsp_driver_sd.c **** 
  81:FATFS/Target/bsp_driver_sd.c **** /** @defgroup STM32F769I_DISCOVERY_SD STM32F769I_DISCOVERY SD
  82:FATFS/Target/bsp_driver_sd.c ****  * @{
  83:FATFS/Target/bsp_driver_sd.c ****  */
  84:FATFS/Target/bsp_driver_sd.c **** 
  85:FATFS/Target/bsp_driver_sd.c **** /** @defgroup STM32F769I_DISCOVERY_SD_Private_TypesDefinitions STM32F769I Discovery Sd Private Type
  86:FATFS/Target/bsp_driver_sd.c ****  * @{
  87:FATFS/Target/bsp_driver_sd.c ****  */
  88:FATFS/Target/bsp_driver_sd.c **** /**
ARM GAS  /var/folders/n6/c271nzx11xl4r4_m7sqjlt0m0000gn/T//cc5HVXC8.s 			page 3


  89:FATFS/Target/bsp_driver_sd.c ****  * @}
  90:FATFS/Target/bsp_driver_sd.c ****  */
  91:FATFS/Target/bsp_driver_sd.c **** 
  92:FATFS/Target/bsp_driver_sd.c **** /** @defgroup STM32F769I_DISCOVERY_SD_Private_Defines STM32F769I Discovery Sd Private Defines
  93:FATFS/Target/bsp_driver_sd.c ****  * @{
  94:FATFS/Target/bsp_driver_sd.c ****  */
  95:FATFS/Target/bsp_driver_sd.c **** /**
  96:FATFS/Target/bsp_driver_sd.c ****  * @}
  97:FATFS/Target/bsp_driver_sd.c ****  */
  98:FATFS/Target/bsp_driver_sd.c **** 
  99:FATFS/Target/bsp_driver_sd.c **** /** @defgroup STM32F769I_DISCOVERY_SD_Private_Macros STM32F769I Discovery Sd Private Macro
 100:FATFS/Target/bsp_driver_sd.c ****  * @{
 101:FATFS/Target/bsp_driver_sd.c ****  */
 102:FATFS/Target/bsp_driver_sd.c **** /**
 103:FATFS/Target/bsp_driver_sd.c ****  * @}
 104:FATFS/Target/bsp_driver_sd.c ****  */
 105:FATFS/Target/bsp_driver_sd.c **** 
 106:FATFS/Target/bsp_driver_sd.c **** /** @defgroup STM32F769I_DISCOVERY_SD_Private_Variables STM32F769I Discovery Sd Private Variables
 107:FATFS/Target/bsp_driver_sd.c ****  * @{
 108:FATFS/Target/bsp_driver_sd.c ****  */
 109:FATFS/Target/bsp_driver_sd.c **** SD_HandleTypeDef uSdHandle;
 110:FATFS/Target/bsp_driver_sd.c **** 
 111:FATFS/Target/bsp_driver_sd.c **** /**
 112:FATFS/Target/bsp_driver_sd.c ****  * @}
 113:FATFS/Target/bsp_driver_sd.c ****  */
 114:FATFS/Target/bsp_driver_sd.c **** 
 115:FATFS/Target/bsp_driver_sd.c **** /** @defgroup STM32F769I_DISCOVERY_SD_Private_FunctionPrototypes STM32F769I Discovery Sd Private Pr
 116:FATFS/Target/bsp_driver_sd.c ****  * @{
 117:FATFS/Target/bsp_driver_sd.c ****  */
 118:FATFS/Target/bsp_driver_sd.c **** /**
 119:FATFS/Target/bsp_driver_sd.c ****  * @}
 120:FATFS/Target/bsp_driver_sd.c ****  */
 121:FATFS/Target/bsp_driver_sd.c **** 
 122:FATFS/Target/bsp_driver_sd.c **** /** @defgroup STM32F769I_DISCOVERY_SD_Private_Functions STM32F769I Discovery Sd Private Functions
 123:FATFS/Target/bsp_driver_sd.c ****  * @{
 124:FATFS/Target/bsp_driver_sd.c ****  */
 125:FATFS/Target/bsp_driver_sd.c **** 
 126:FATFS/Target/bsp_driver_sd.c **** /**
 127:FATFS/Target/bsp_driver_sd.c ****  * @brief  Initializes the SD card device.
 128:FATFS/Target/bsp_driver_sd.c ****  * @retval SD status
 129:FATFS/Target/bsp_driver_sd.c ****  */
 130:FATFS/Target/bsp_driver_sd.c **** uint8_t BSP_SD_Init(void)
 131:FATFS/Target/bsp_driver_sd.c **** {
 132:FATFS/Target/bsp_driver_sd.c ****   uint8_t sd_state = MSD_OK;
 133:FATFS/Target/bsp_driver_sd.c **** 
 134:FATFS/Target/bsp_driver_sd.c ****   /* PLLSAI is dedicated to LCD periph. Do not use it to get 48MHz*/
 135:FATFS/Target/bsp_driver_sd.c **** 
 136:FATFS/Target/bsp_driver_sd.c ****   /* uSD device interface configuration */
 137:FATFS/Target/bsp_driver_sd.c ****   uSdHandle.Instance = SDMMC2;
 138:FATFS/Target/bsp_driver_sd.c ****   uSdHandle.Init.ClockEdge = SDMMC_CLOCK_EDGE_RISING;
 139:FATFS/Target/bsp_driver_sd.c ****   uSdHandle.Init.ClockBypass = SDMMC_CLOCK_BYPASS_DISABLE;
 140:FATFS/Target/bsp_driver_sd.c ****   uSdHandle.Init.ClockPowerSave = SDMMC_CLOCK_POWER_SAVE_DISABLE;
 141:FATFS/Target/bsp_driver_sd.c ****   uSdHandle.Init.BusWide = SDMMC_BUS_WIDE_1B;
 142:FATFS/Target/bsp_driver_sd.c ****   uSdHandle.Init.HardwareFlowControl = SDMMC_HARDWARE_FLOW_CONTROL_ENABLE;
 143:FATFS/Target/bsp_driver_sd.c ****   uSdHandle.Init.ClockDiv = SDMMC_TRANSFER_CLK_DIV;
 144:FATFS/Target/bsp_driver_sd.c **** 
 145:FATFS/Target/bsp_driver_sd.c ****   /* Msp SD Detect pin initialization */
ARM GAS  /var/folders/n6/c271nzx11xl4r4_m7sqjlt0m0000gn/T//cc5HVXC8.s 			page 4


 146:FATFS/Target/bsp_driver_sd.c ****   BSP_SD_Detect_MspInit(&uSdHandle, NULL);
 147:FATFS/Target/bsp_driver_sd.c ****   if (BSP_SD_IsDetected() != SD_PRESENT) /* Check if SD card is present */
 148:FATFS/Target/bsp_driver_sd.c ****   {
 149:FATFS/Target/bsp_driver_sd.c ****     return MSD_ERROR_SD_NOT_PRESENT;
 150:FATFS/Target/bsp_driver_sd.c ****   }
 151:FATFS/Target/bsp_driver_sd.c **** 
 152:FATFS/Target/bsp_driver_sd.c ****   /* Msp SD initialization */
 153:FATFS/Target/bsp_driver_sd.c ****   BSP_SD_MspInit(&uSdHandle, NULL);
 154:FATFS/Target/bsp_driver_sd.c **** 
 155:FATFS/Target/bsp_driver_sd.c ****   /* HAL SD initialization */
 156:FATFS/Target/bsp_driver_sd.c ****   if (HAL_SD_Init(&uSdHandle) != HAL_OK)
 157:FATFS/Target/bsp_driver_sd.c ****   {
 158:FATFS/Target/bsp_driver_sd.c ****     sd_state = MSD_ERROR;
 159:FATFS/Target/bsp_driver_sd.c ****   }
 160:FATFS/Target/bsp_driver_sd.c **** 
 161:FATFS/Target/bsp_driver_sd.c ****   /* Configure SD Bus width */
 162:FATFS/Target/bsp_driver_sd.c ****   if (sd_state == MSD_OK)
 163:FATFS/Target/bsp_driver_sd.c ****   {
 164:FATFS/Target/bsp_driver_sd.c ****     /* Enable wide operation */
 165:FATFS/Target/bsp_driver_sd.c ****     if (HAL_SD_ConfigWideBusOperation(&uSdHandle, SDMMC_BUS_WIDE_4B) != HAL_OK)
 166:FATFS/Target/bsp_driver_sd.c ****     {
 167:FATFS/Target/bsp_driver_sd.c ****       sd_state = MSD_ERROR;
 168:FATFS/Target/bsp_driver_sd.c ****     }
 169:FATFS/Target/bsp_driver_sd.c ****     else
 170:FATFS/Target/bsp_driver_sd.c ****     {
 171:FATFS/Target/bsp_driver_sd.c ****       sd_state = MSD_OK;
 172:FATFS/Target/bsp_driver_sd.c ****     }
 173:FATFS/Target/bsp_driver_sd.c ****   }
 174:FATFS/Target/bsp_driver_sd.c ****   return sd_state;
 175:FATFS/Target/bsp_driver_sd.c **** }
 176:FATFS/Target/bsp_driver_sd.c **** 
 177:FATFS/Target/bsp_driver_sd.c **** /**
 178:FATFS/Target/bsp_driver_sd.c ****  * @brief  DeInitializes the SD card device.
 179:FATFS/Target/bsp_driver_sd.c ****  * @retval SD status
 180:FATFS/Target/bsp_driver_sd.c ****  */
 181:FATFS/Target/bsp_driver_sd.c **** uint8_t BSP_SD_DeInit(void)
 182:FATFS/Target/bsp_driver_sd.c **** {
 183:FATFS/Target/bsp_driver_sd.c ****   uint8_t sd_state = MSD_OK;
 184:FATFS/Target/bsp_driver_sd.c **** 
 185:FATFS/Target/bsp_driver_sd.c ****   uSdHandle.Instance = SDMMC2;
 186:FATFS/Target/bsp_driver_sd.c **** 
 187:FATFS/Target/bsp_driver_sd.c ****   /* HAL SD deinitialization */
 188:FATFS/Target/bsp_driver_sd.c ****   if (HAL_SD_DeInit(&uSdHandle) != HAL_OK)
 189:FATFS/Target/bsp_driver_sd.c ****   {
 190:FATFS/Target/bsp_driver_sd.c ****     sd_state = MSD_ERROR;
 191:FATFS/Target/bsp_driver_sd.c ****   }
 192:FATFS/Target/bsp_driver_sd.c **** 
 193:FATFS/Target/bsp_driver_sd.c ****   /* Msp SD deinitialization */
 194:FATFS/Target/bsp_driver_sd.c ****   uSdHandle.Instance = SDMMC2;
 195:FATFS/Target/bsp_driver_sd.c ****   BSP_SD_MspDeInit(&uSdHandle, NULL);
 196:FATFS/Target/bsp_driver_sd.c **** 
 197:FATFS/Target/bsp_driver_sd.c ****   return sd_state;
 198:FATFS/Target/bsp_driver_sd.c **** }
 199:FATFS/Target/bsp_driver_sd.c **** 
 200:FATFS/Target/bsp_driver_sd.c **** /**
 201:FATFS/Target/bsp_driver_sd.c ****  * @brief  Configures Interrupt mode for SD detection pin.
 202:FATFS/Target/bsp_driver_sd.c ****  * @retval Returns 0
ARM GAS  /var/folders/n6/c271nzx11xl4r4_m7sqjlt0m0000gn/T//cc5HVXC8.s 			page 5


 203:FATFS/Target/bsp_driver_sd.c ****  */
 204:FATFS/Target/bsp_driver_sd.c **** uint8_t BSP_SD_ITConfig(void)
 205:FATFS/Target/bsp_driver_sd.c **** {
  28              		.loc 1 205 1 view -0
  29              		.cfi_startproc
  30              		@ args = 0, pretend = 0, frame = 24
  31              		@ frame_needed = 0, uses_anonymous_args = 0
  32 0000 00B5     		push	{lr}
  33              		.cfi_def_cfa_offset 4
  34              		.cfi_offset 14, -4
  35 0002 87B0     		sub	sp, sp, #28
  36              		.cfi_def_cfa_offset 32
 206:FATFS/Target/bsp_driver_sd.c ****   GPIO_InitTypeDef gpio_init_structure;
  37              		.loc 1 206 3 view .LVU1
 207:FATFS/Target/bsp_driver_sd.c **** 
 208:FATFS/Target/bsp_driver_sd.c ****   /* Configure Interrupt mode for SD detection pin */
 209:FATFS/Target/bsp_driver_sd.c ****   gpio_init_structure.Pin = SD_DETECT_PIN;
  38              		.loc 1 209 3 view .LVU2
  39              		.loc 1 209 27 is_stmt 0 view .LVU3
  40 0004 4FF40043 		mov	r3, #32768
  41 0008 0193     		str	r3, [sp, #4]
 210:FATFS/Target/bsp_driver_sd.c ****   gpio_init_structure.Pull = GPIO_PULLUP;
  42              		.loc 1 210 3 is_stmt 1 view .LVU4
  43              		.loc 1 210 28 is_stmt 0 view .LVU5
  44 000a 0123     		movs	r3, #1
  45 000c 0393     		str	r3, [sp, #12]
 211:FATFS/Target/bsp_driver_sd.c ****   gpio_init_structure.Speed = GPIO_SPEED_FAST;
  46              		.loc 1 211 3 is_stmt 1 view .LVU6
  47              		.loc 1 211 29 is_stmt 0 view .LVU7
  48 000e 0223     		movs	r3, #2
  49 0010 0493     		str	r3, [sp, #16]
 212:FATFS/Target/bsp_driver_sd.c ****   gpio_init_structure.Mode = GPIO_MODE_IT_RISING_FALLING;
  50              		.loc 1 212 3 is_stmt 1 view .LVU8
  51              		.loc 1 212 28 is_stmt 0 view .LVU9
  52 0012 4FF44413 		mov	r3, #3211264
  53 0016 0293     		str	r3, [sp, #8]
 213:FATFS/Target/bsp_driver_sd.c ****   HAL_GPIO_Init(SD_DETECT_GPIO_PORT, &gpio_init_structure);
  54              		.loc 1 213 3 is_stmt 1 view .LVU10
  55 0018 01A9     		add	r1, sp, #4
  56 001a 0748     		ldr	r0, .L3
  57 001c FFF7FEFF 		bl	HAL_GPIO_Init
  58              	.LVL0:
 214:FATFS/Target/bsp_driver_sd.c **** 
 215:FATFS/Target/bsp_driver_sd.c ****   /* Enable and set SD detect EXTI Interrupt to the lowest priority */
 216:FATFS/Target/bsp_driver_sd.c ****   HAL_NVIC_SetPriority((IRQn_Type)(SD_DETECT_EXTI_IRQn), 0x0F, 0x00);
  59              		.loc 1 216 3 view .LVU11
  60 0020 0022     		movs	r2, #0
  61 0022 0F21     		movs	r1, #15
  62 0024 2820     		movs	r0, #40
  63 0026 FFF7FEFF 		bl	HAL_NVIC_SetPriority
  64              	.LVL1:
 217:FATFS/Target/bsp_driver_sd.c ****   HAL_NVIC_EnableIRQ((IRQn_Type)(SD_DETECT_EXTI_IRQn));
  65              		.loc 1 217 3 view .LVU12
  66 002a 2820     		movs	r0, #40
  67 002c FFF7FEFF 		bl	HAL_NVIC_EnableIRQ
  68              	.LVL2:
 218:FATFS/Target/bsp_driver_sd.c **** 
ARM GAS  /var/folders/n6/c271nzx11xl4r4_m7sqjlt0m0000gn/T//cc5HVXC8.s 			page 6


 219:FATFS/Target/bsp_driver_sd.c ****   return MSD_OK;
  69              		.loc 1 219 3 view .LVU13
 220:FATFS/Target/bsp_driver_sd.c **** }
  70              		.loc 1 220 1 is_stmt 0 view .LVU14
  71 0030 0020     		movs	r0, #0
  72 0032 07B0     		add	sp, sp, #28
  73              		.cfi_def_cfa_offset 4
  74              		@ sp needed
  75 0034 5DF804FB 		ldr	pc, [sp], #4
  76              	.L4:
  77              		.align	2
  78              	.L3:
  79 0038 00200240 		.word	1073881088
  80              		.cfi_endproc
  81              	.LFE143:
  83              		.section	.text.BSP_SD_IsDetected,"ax",%progbits
  84              		.align	1
  85              		.global	BSP_SD_IsDetected
  86              		.syntax unified
  87              		.thumb
  88              		.thumb_func
  90              	BSP_SD_IsDetected:
  91              	.LFB144:
 221:FATFS/Target/bsp_driver_sd.c **** 
 222:FATFS/Target/bsp_driver_sd.c **** /**
 223:FATFS/Target/bsp_driver_sd.c ****  * @brief  Detects if SD card is correctly plugged in the memory slot or not.
 224:FATFS/Target/bsp_driver_sd.c ****  * @retval Returns if SD is detected or not
 225:FATFS/Target/bsp_driver_sd.c ****  */
 226:FATFS/Target/bsp_driver_sd.c **** uint8_t BSP_SD_IsDetected(void)
 227:FATFS/Target/bsp_driver_sd.c **** {
  92              		.loc 1 227 1 is_stmt 1 view -0
  93              		.cfi_startproc
  94              		@ args = 0, pretend = 0, frame = 8
  95              		@ frame_needed = 0, uses_anonymous_args = 0
  96 0000 00B5     		push	{lr}
  97              		.cfi_def_cfa_offset 4
  98              		.cfi_offset 14, -4
  99 0002 83B0     		sub	sp, sp, #12
 100              		.cfi_def_cfa_offset 16
 228:FATFS/Target/bsp_driver_sd.c ****   __IO uint8_t status = SD_PRESENT;
 101              		.loc 1 228 3 view .LVU16
 102              		.loc 1 228 16 is_stmt 0 view .LVU17
 103 0004 0123     		movs	r3, #1
 104 0006 8DF80730 		strb	r3, [sp, #7]
 229:FATFS/Target/bsp_driver_sd.c **** 
 230:FATFS/Target/bsp_driver_sd.c ****   /* Check SD card detect pin */
 231:FATFS/Target/bsp_driver_sd.c ****   if (HAL_GPIO_ReadPin(SD_DETECT_GPIO_PORT, SD_DETECT_PIN) == GPIO_PIN_SET)
 105              		.loc 1 231 3 is_stmt 1 view .LVU18
 106              		.loc 1 231 7 is_stmt 0 view .LVU19
 107 000a 4FF40041 		mov	r1, #32768
 108 000e 0748     		ldr	r0, .L9
 109 0010 FFF7FEFF 		bl	HAL_GPIO_ReadPin
 110              	.LVL3:
 111              		.loc 1 231 6 discriminator 1 view .LVU20
 112 0014 0128     		cmp	r0, #1
 113 0016 04D0     		beq	.L8
 114              	.L6:
ARM GAS  /var/folders/n6/c271nzx11xl4r4_m7sqjlt0m0000gn/T//cc5HVXC8.s 			page 7


 232:FATFS/Target/bsp_driver_sd.c ****   {
 233:FATFS/Target/bsp_driver_sd.c ****     status = SD_NOT_PRESENT;
 234:FATFS/Target/bsp_driver_sd.c ****   }
 235:FATFS/Target/bsp_driver_sd.c **** 
 236:FATFS/Target/bsp_driver_sd.c ****   return status;
 115              		.loc 1 236 3 is_stmt 1 view .LVU21
 116              		.loc 1 236 10 is_stmt 0 view .LVU22
 117 0018 9DF80700 		ldrb	r0, [sp, #7]	@ zero_extendqisi2
 237:FATFS/Target/bsp_driver_sd.c **** }
 118              		.loc 1 237 1 view .LVU23
 119 001c 03B0     		add	sp, sp, #12
 120              		.cfi_remember_state
 121              		.cfi_def_cfa_offset 4
 122              		@ sp needed
 123 001e 5DF804FB 		ldr	pc, [sp], #4
 124              	.L8:
 125              		.cfi_restore_state
 233:FATFS/Target/bsp_driver_sd.c ****   }
 126              		.loc 1 233 5 is_stmt 1 view .LVU24
 233:FATFS/Target/bsp_driver_sd.c ****   }
 127              		.loc 1 233 12 is_stmt 0 view .LVU25
 128 0022 0023     		movs	r3, #0
 129 0024 8DF80730 		strb	r3, [sp, #7]
 130 0028 F6E7     		b	.L6
 131              	.L10:
 132 002a 00BF     		.align	2
 133              	.L9:
 134 002c 00200240 		.word	1073881088
 135              		.cfi_endproc
 136              	.LFE144:
 138              		.section	.text.BSP_SD_ReadBlocks,"ax",%progbits
 139              		.align	1
 140              		.global	BSP_SD_ReadBlocks
 141              		.syntax unified
 142              		.thumb
 143              		.thumb_func
 145              	BSP_SD_ReadBlocks:
 146              	.LVL4:
 147              	.LFB145:
 238:FATFS/Target/bsp_driver_sd.c **** 
 239:FATFS/Target/bsp_driver_sd.c **** /**
 240:FATFS/Target/bsp_driver_sd.c ****  * @brief  Reads block(s) from a specified address in an SD card, in polling mode.
 241:FATFS/Target/bsp_driver_sd.c ****  * @param  pData: Pointer to the buffer that will contain the data to transmit
 242:FATFS/Target/bsp_driver_sd.c ****  * @param  ReadAddr: Address from where data is to be read
 243:FATFS/Target/bsp_driver_sd.c ****  * @param  NumOfBlocks: Number of SD blocks to read
 244:FATFS/Target/bsp_driver_sd.c ****  * @param  Timeout: Timeout for read operation
 245:FATFS/Target/bsp_driver_sd.c ****  * @retval SD status
 246:FATFS/Target/bsp_driver_sd.c ****  */
 247:FATFS/Target/bsp_driver_sd.c **** uint8_t BSP_SD_ReadBlocks(uint32_t *pData, uint32_t ReadAddr, uint32_t NumOfBlocks, uint32_t Timeou
 248:FATFS/Target/bsp_driver_sd.c **** {
 148              		.loc 1 248 1 is_stmt 1 view -0
 149              		.cfi_startproc
 150              		@ args = 0, pretend = 0, frame = 0
 151              		@ frame_needed = 0, uses_anonymous_args = 0
 152              		.loc 1 248 1 is_stmt 0 view .LVU27
 153 0000 00B5     		push	{lr}
 154              		.cfi_def_cfa_offset 4
ARM GAS  /var/folders/n6/c271nzx11xl4r4_m7sqjlt0m0000gn/T//cc5HVXC8.s 			page 8


 155              		.cfi_offset 14, -4
 156 0002 83B0     		sub	sp, sp, #12
 157              		.cfi_def_cfa_offset 16
 249:FATFS/Target/bsp_driver_sd.c ****   if (HAL_SD_ReadBlocks(&uSdHandle, (uint8_t *)pData, ReadAddr, NumOfBlocks, Timeout) != HAL_OK)
 158              		.loc 1 249 3 is_stmt 1 view .LVU28
 159              		.loc 1 249 7 is_stmt 0 view .LVU29
 160 0004 0093     		str	r3, [sp]
 161 0006 1346     		mov	r3, r2
 162              	.LVL5:
 163              		.loc 1 249 7 view .LVU30
 164 0008 0A46     		mov	r2, r1
 165              	.LVL6:
 166              		.loc 1 249 7 view .LVU31
 167 000a 0146     		mov	r1, r0
 168              	.LVL7:
 169              		.loc 1 249 7 view .LVU32
 170 000c 0348     		ldr	r0, .L14
 171              	.LVL8:
 172              		.loc 1 249 7 view .LVU33
 173 000e FFF7FEFF 		bl	HAL_SD_ReadBlocks
 174              	.LVL9:
 175              		.loc 1 249 6 discriminator 1 view .LVU34
 176 0012 00B1     		cbz	r0, .L12
 250:FATFS/Target/bsp_driver_sd.c ****   {
 251:FATFS/Target/bsp_driver_sd.c ****     return MSD_ERROR;
 177              		.loc 1 251 12 view .LVU35
 178 0014 0120     		movs	r0, #1
 179              	.L12:
 252:FATFS/Target/bsp_driver_sd.c ****   }
 253:FATFS/Target/bsp_driver_sd.c ****   else
 254:FATFS/Target/bsp_driver_sd.c ****   {
 255:FATFS/Target/bsp_driver_sd.c ****     return MSD_OK;
 256:FATFS/Target/bsp_driver_sd.c ****   }
 257:FATFS/Target/bsp_driver_sd.c **** }
 180              		.loc 1 257 1 view .LVU36
 181 0016 03B0     		add	sp, sp, #12
 182              		.cfi_def_cfa_offset 4
 183              		@ sp needed
 184 0018 5DF804FB 		ldr	pc, [sp], #4
 185              	.L15:
 186              		.align	2
 187              	.L14:
 188 001c 00000000 		.word	uSdHandle
 189              		.cfi_endproc
 190              	.LFE145:
 192              		.section	.text.BSP_SD_WriteBlocks,"ax",%progbits
 193              		.align	1
 194              		.global	BSP_SD_WriteBlocks
 195              		.syntax unified
 196              		.thumb
 197              		.thumb_func
 199              	BSP_SD_WriteBlocks:
 200              	.LVL10:
 201              	.LFB146:
 258:FATFS/Target/bsp_driver_sd.c **** 
 259:FATFS/Target/bsp_driver_sd.c **** /**
 260:FATFS/Target/bsp_driver_sd.c ****  * @brief  Writes block(s) to a specified address in an SD card, in polling mode.
ARM GAS  /var/folders/n6/c271nzx11xl4r4_m7sqjlt0m0000gn/T//cc5HVXC8.s 			page 9


 261:FATFS/Target/bsp_driver_sd.c ****  * @param  pData: Pointer to the buffer that will contain the data to transmit
 262:FATFS/Target/bsp_driver_sd.c ****  * @param  WriteAddr: Address from where data is to be written
 263:FATFS/Target/bsp_driver_sd.c ****  * @param  NumOfBlocks: Number of SD blocks to write
 264:FATFS/Target/bsp_driver_sd.c ****  * @param  Timeout: Timeout for write operation
 265:FATFS/Target/bsp_driver_sd.c ****  * @retval SD status
 266:FATFS/Target/bsp_driver_sd.c ****  */
 267:FATFS/Target/bsp_driver_sd.c **** uint8_t BSP_SD_WriteBlocks(uint32_t *pData, uint32_t WriteAddr, uint32_t NumOfBlocks, uint32_t Time
 268:FATFS/Target/bsp_driver_sd.c **** {
 202              		.loc 1 268 1 is_stmt 1 view -0
 203              		.cfi_startproc
 204              		@ args = 0, pretend = 0, frame = 0
 205              		@ frame_needed = 0, uses_anonymous_args = 0
 206              		.loc 1 268 1 is_stmt 0 view .LVU38
 207 0000 00B5     		push	{lr}
 208              		.cfi_def_cfa_offset 4
 209              		.cfi_offset 14, -4
 210 0002 83B0     		sub	sp, sp, #12
 211              		.cfi_def_cfa_offset 16
 269:FATFS/Target/bsp_driver_sd.c ****   if (HAL_SD_WriteBlocks(&uSdHandle, (uint8_t *)pData, WriteAddr, NumOfBlocks, Timeout) != HAL_OK)
 212              		.loc 1 269 3 is_stmt 1 view .LVU39
 213              		.loc 1 269 7 is_stmt 0 view .LVU40
 214 0004 0093     		str	r3, [sp]
 215 0006 1346     		mov	r3, r2
 216              	.LVL11:
 217              		.loc 1 269 7 view .LVU41
 218 0008 0A46     		mov	r2, r1
 219              	.LVL12:
 220              		.loc 1 269 7 view .LVU42
 221 000a 0146     		mov	r1, r0
 222              	.LVL13:
 223              		.loc 1 269 7 view .LVU43
 224 000c 0348     		ldr	r0, .L19
 225              	.LVL14:
 226              		.loc 1 269 7 view .LVU44
 227 000e FFF7FEFF 		bl	HAL_SD_WriteBlocks
 228              	.LVL15:
 229              		.loc 1 269 6 discriminator 1 view .LVU45
 230 0012 00B1     		cbz	r0, .L17
 270:FATFS/Target/bsp_driver_sd.c ****   {
 271:FATFS/Target/bsp_driver_sd.c ****     return MSD_ERROR;
 231              		.loc 1 271 12 view .LVU46
 232 0014 0120     		movs	r0, #1
 233              	.L17:
 272:FATFS/Target/bsp_driver_sd.c ****   }
 273:FATFS/Target/bsp_driver_sd.c ****   else
 274:FATFS/Target/bsp_driver_sd.c ****   {
 275:FATFS/Target/bsp_driver_sd.c ****     return MSD_OK;
 276:FATFS/Target/bsp_driver_sd.c ****   }
 277:FATFS/Target/bsp_driver_sd.c **** }
 234              		.loc 1 277 1 view .LVU47
 235 0016 03B0     		add	sp, sp, #12
 236              		.cfi_def_cfa_offset 4
 237              		@ sp needed
 238 0018 5DF804FB 		ldr	pc, [sp], #4
 239              	.L20:
 240              		.align	2
 241              	.L19:
ARM GAS  /var/folders/n6/c271nzx11xl4r4_m7sqjlt0m0000gn/T//cc5HVXC8.s 			page 10


 242 001c 00000000 		.word	uSdHandle
 243              		.cfi_endproc
 244              	.LFE146:
 246              		.section	.text.BSP_SD_ReadBlocks_DMA,"ax",%progbits
 247              		.align	1
 248              		.global	BSP_SD_ReadBlocks_DMA
 249              		.syntax unified
 250              		.thumb
 251              		.thumb_func
 253              	BSP_SD_ReadBlocks_DMA:
 254              	.LVL16:
 255              	.LFB147:
 278:FATFS/Target/bsp_driver_sd.c **** 
 279:FATFS/Target/bsp_driver_sd.c **** /**
 280:FATFS/Target/bsp_driver_sd.c ****  * @brief  Reads block(s) from a specified address in an SD card, in DMA mode.
 281:FATFS/Target/bsp_driver_sd.c ****  * @param  pData: Pointer to the buffer that will contain the data to transmit
 282:FATFS/Target/bsp_driver_sd.c ****  * @param  ReadAddr: Address from where data is to be read
 283:FATFS/Target/bsp_driver_sd.c ****  * @param  NumOfBlocks: Number of SD blocks to read
 284:FATFS/Target/bsp_driver_sd.c ****  * @retval SD status
 285:FATFS/Target/bsp_driver_sd.c ****  */
 286:FATFS/Target/bsp_driver_sd.c **** uint8_t BSP_SD_ReadBlocks_DMA(uint32_t *pData, uint32_t ReadAddr, uint32_t NumOfBlocks)
 287:FATFS/Target/bsp_driver_sd.c **** {
 256              		.loc 1 287 1 is_stmt 1 view -0
 257              		.cfi_startproc
 258              		@ args = 0, pretend = 0, frame = 0
 259              		@ frame_needed = 0, uses_anonymous_args = 0
 260              		.loc 1 287 1 is_stmt 0 view .LVU49
 261 0000 08B5     		push	{r3, lr}
 262              		.cfi_def_cfa_offset 8
 263              		.cfi_offset 3, -8
 264              		.cfi_offset 14, -4
 265 0002 1346     		mov	r3, r2
 288:FATFS/Target/bsp_driver_sd.c ****   /* Read block(s) in DMA transfer mode */
 289:FATFS/Target/bsp_driver_sd.c ****   if (HAL_SD_ReadBlocks_DMA(&uSdHandle, (uint8_t *)pData, ReadAddr, NumOfBlocks) != HAL_OK)
 266              		.loc 1 289 3 is_stmt 1 view .LVU50
 267              		.loc 1 289 7 is_stmt 0 view .LVU51
 268 0004 0A46     		mov	r2, r1
 269              	.LVL17:
 270              		.loc 1 289 7 view .LVU52
 271 0006 0146     		mov	r1, r0
 272              	.LVL18:
 273              		.loc 1 289 7 view .LVU53
 274 0008 0248     		ldr	r0, .L24
 275              	.LVL19:
 276              		.loc 1 289 7 view .LVU54
 277 000a FFF7FEFF 		bl	HAL_SD_ReadBlocks_DMA
 278              	.LVL20:
 279              		.loc 1 289 6 discriminator 1 view .LVU55
 280 000e 00B1     		cbz	r0, .L22
 290:FATFS/Target/bsp_driver_sd.c ****   {
 291:FATFS/Target/bsp_driver_sd.c ****     return MSD_ERROR;
 281              		.loc 1 291 12 view .LVU56
 282 0010 0120     		movs	r0, #1
 283              	.L22:
 292:FATFS/Target/bsp_driver_sd.c ****   }
 293:FATFS/Target/bsp_driver_sd.c ****   else
 294:FATFS/Target/bsp_driver_sd.c ****   {
ARM GAS  /var/folders/n6/c271nzx11xl4r4_m7sqjlt0m0000gn/T//cc5HVXC8.s 			page 11


 295:FATFS/Target/bsp_driver_sd.c ****     return MSD_OK;
 296:FATFS/Target/bsp_driver_sd.c ****   }
 297:FATFS/Target/bsp_driver_sd.c **** }
 284              		.loc 1 297 1 view .LVU57
 285 0012 08BD     		pop	{r3, pc}
 286              	.L25:
 287              		.align	2
 288              	.L24:
 289 0014 00000000 		.word	uSdHandle
 290              		.cfi_endproc
 291              	.LFE147:
 293              		.section	.text.BSP_SD_WriteBlocks_DMA,"ax",%progbits
 294              		.align	1
 295              		.global	BSP_SD_WriteBlocks_DMA
 296              		.syntax unified
 297              		.thumb
 298              		.thumb_func
 300              	BSP_SD_WriteBlocks_DMA:
 301              	.LVL21:
 302              	.LFB148:
 298:FATFS/Target/bsp_driver_sd.c **** 
 299:FATFS/Target/bsp_driver_sd.c **** /**
 300:FATFS/Target/bsp_driver_sd.c ****  * @brief  Writes block(s) to a specified address in an SD card, in DMA mode.
 301:FATFS/Target/bsp_driver_sd.c ****  * @param  pData: Pointer to the buffer that will contain the data to transmit
 302:FATFS/Target/bsp_driver_sd.c ****  * @param  WriteAddr: Address from where data is to be written
 303:FATFS/Target/bsp_driver_sd.c ****  * @param  NumOfBlocks: Number of SD blocks to write
 304:FATFS/Target/bsp_driver_sd.c ****  * @retval SD status
 305:FATFS/Target/bsp_driver_sd.c ****  */
 306:FATFS/Target/bsp_driver_sd.c **** uint8_t BSP_SD_WriteBlocks_DMA(uint32_t *pData, uint32_t WriteAddr, uint32_t NumOfBlocks)
 307:FATFS/Target/bsp_driver_sd.c **** {
 303              		.loc 1 307 1 is_stmt 1 view -0
 304              		.cfi_startproc
 305              		@ args = 0, pretend = 0, frame = 0
 306              		@ frame_needed = 0, uses_anonymous_args = 0
 307              		.loc 1 307 1 is_stmt 0 view .LVU59
 308 0000 08B5     		push	{r3, lr}
 309              		.cfi_def_cfa_offset 8
 310              		.cfi_offset 3, -8
 311              		.cfi_offset 14, -4
 312 0002 1346     		mov	r3, r2
 308:FATFS/Target/bsp_driver_sd.c ****   /* Write block(s) in DMA transfer mode */
 309:FATFS/Target/bsp_driver_sd.c ****   if (HAL_SD_WriteBlocks_DMA(&uSdHandle, (uint8_t *)pData, WriteAddr, NumOfBlocks) != HAL_OK)
 313              		.loc 1 309 3 is_stmt 1 view .LVU60
 314              		.loc 1 309 7 is_stmt 0 view .LVU61
 315 0004 0A46     		mov	r2, r1
 316              	.LVL22:
 317              		.loc 1 309 7 view .LVU62
 318 0006 0146     		mov	r1, r0
 319              	.LVL23:
 320              		.loc 1 309 7 view .LVU63
 321 0008 0248     		ldr	r0, .L29
 322              	.LVL24:
 323              		.loc 1 309 7 view .LVU64
 324 000a FFF7FEFF 		bl	HAL_SD_WriteBlocks_DMA
 325              	.LVL25:
 326              		.loc 1 309 6 discriminator 1 view .LVU65
 327 000e 00B1     		cbz	r0, .L27
ARM GAS  /var/folders/n6/c271nzx11xl4r4_m7sqjlt0m0000gn/T//cc5HVXC8.s 			page 12


 310:FATFS/Target/bsp_driver_sd.c ****   {
 311:FATFS/Target/bsp_driver_sd.c ****     return MSD_ERROR;
 328              		.loc 1 311 12 view .LVU66
 329 0010 0120     		movs	r0, #1
 330              	.L27:
 312:FATFS/Target/bsp_driver_sd.c ****   }
 313:FATFS/Target/bsp_driver_sd.c ****   else
 314:FATFS/Target/bsp_driver_sd.c ****   {
 315:FATFS/Target/bsp_driver_sd.c ****     return MSD_OK;
 316:FATFS/Target/bsp_driver_sd.c ****   }
 317:FATFS/Target/bsp_driver_sd.c **** }
 331              		.loc 1 317 1 view .LVU67
 332 0012 08BD     		pop	{r3, pc}
 333              	.L30:
 334              		.align	2
 335              	.L29:
 336 0014 00000000 		.word	uSdHandle
 337              		.cfi_endproc
 338              	.LFE148:
 340              		.section	.text.BSP_SD_Erase,"ax",%progbits
 341              		.align	1
 342              		.global	BSP_SD_Erase
 343              		.syntax unified
 344              		.thumb
 345              		.thumb_func
 347              	BSP_SD_Erase:
 348              	.LVL26:
 349              	.LFB149:
 318:FATFS/Target/bsp_driver_sd.c **** 
 319:FATFS/Target/bsp_driver_sd.c **** /**
 320:FATFS/Target/bsp_driver_sd.c ****  * @brief  Erases the specified memory area of the given SD card.
 321:FATFS/Target/bsp_driver_sd.c ****  * @param  StartAddr: Start byte address
 322:FATFS/Target/bsp_driver_sd.c ****  * @param  EndAddr: End byte address
 323:FATFS/Target/bsp_driver_sd.c ****  * @retval SD status
 324:FATFS/Target/bsp_driver_sd.c ****  */
 325:FATFS/Target/bsp_driver_sd.c **** uint8_t BSP_SD_Erase(uint32_t StartAddr, uint32_t EndAddr)
 326:FATFS/Target/bsp_driver_sd.c **** {
 350              		.loc 1 326 1 is_stmt 1 view -0
 351              		.cfi_startproc
 352              		@ args = 0, pretend = 0, frame = 0
 353              		@ frame_needed = 0, uses_anonymous_args = 0
 354              		.loc 1 326 1 is_stmt 0 view .LVU69
 355 0000 08B5     		push	{r3, lr}
 356              		.cfi_def_cfa_offset 8
 357              		.cfi_offset 3, -8
 358              		.cfi_offset 14, -4
 359 0002 0A46     		mov	r2, r1
 327:FATFS/Target/bsp_driver_sd.c ****   if (HAL_SD_Erase(&uSdHandle, StartAddr, EndAddr) != HAL_OK)
 360              		.loc 1 327 3 is_stmt 1 view .LVU70
 361              		.loc 1 327 7 is_stmt 0 view .LVU71
 362 0004 0146     		mov	r1, r0
 363              	.LVL27:
 364              		.loc 1 327 7 view .LVU72
 365 0006 0348     		ldr	r0, .L34
 366              	.LVL28:
 367              		.loc 1 327 7 view .LVU73
 368 0008 FFF7FEFF 		bl	HAL_SD_Erase
ARM GAS  /var/folders/n6/c271nzx11xl4r4_m7sqjlt0m0000gn/T//cc5HVXC8.s 			page 13


 369              	.LVL29:
 370              		.loc 1 327 6 discriminator 1 view .LVU74
 371 000c 00B1     		cbz	r0, .L32
 328:FATFS/Target/bsp_driver_sd.c ****   {
 329:FATFS/Target/bsp_driver_sd.c ****     return MSD_ERROR;
 372              		.loc 1 329 12 view .LVU75
 373 000e 0120     		movs	r0, #1
 374              	.L32:
 330:FATFS/Target/bsp_driver_sd.c ****   }
 331:FATFS/Target/bsp_driver_sd.c ****   else
 332:FATFS/Target/bsp_driver_sd.c ****   {
 333:FATFS/Target/bsp_driver_sd.c ****     return MSD_OK;
 334:FATFS/Target/bsp_driver_sd.c ****   }
 335:FATFS/Target/bsp_driver_sd.c **** }
 375              		.loc 1 335 1 view .LVU76
 376 0010 08BD     		pop	{r3, pc}
 377              	.L35:
 378 0012 00BF     		.align	2
 379              	.L34:
 380 0014 00000000 		.word	uSdHandle
 381              		.cfi_endproc
 382              	.LFE149:
 384              		.section	.text.BSP_SD_MspInit,"ax",%progbits
 385              		.align	1
 386              		.weak	BSP_SD_MspInit
 387              		.syntax unified
 388              		.thumb
 389              		.thumb_func
 391              	BSP_SD_MspInit:
 392              	.LVL30:
 393              	.LFB150:
 336:FATFS/Target/bsp_driver_sd.c **** 
 337:FATFS/Target/bsp_driver_sd.c **** /**
 338:FATFS/Target/bsp_driver_sd.c ****  * @brief  Initializes the SD MSP.
 339:FATFS/Target/bsp_driver_sd.c ****  * @param  hsd: SD handle
 340:FATFS/Target/bsp_driver_sd.c ****  * @param  Params : pointer on additional configuration parameters, can be NULL.
 341:FATFS/Target/bsp_driver_sd.c ****  */
 342:FATFS/Target/bsp_driver_sd.c **** __weak void BSP_SD_MspInit(SD_HandleTypeDef *hsd, void *Params)
 343:FATFS/Target/bsp_driver_sd.c **** {
 394              		.loc 1 343 1 is_stmt 1 view -0
 395              		.cfi_startproc
 396              		@ args = 0, pretend = 0, frame = 40
 397              		@ frame_needed = 0, uses_anonymous_args = 0
 398              		.loc 1 343 1 is_stmt 0 view .LVU78
 399 0000 00B5     		push	{lr}
 400              		.cfi_def_cfa_offset 4
 401              		.cfi_offset 14, -4
 402 0002 8BB0     		sub	sp, sp, #44
 403              		.cfi_def_cfa_offset 48
 344:FATFS/Target/bsp_driver_sd.c ****   GPIO_InitTypeDef gpio_init_structure;
 404              		.loc 1 344 3 is_stmt 1 view .LVU79
 345:FATFS/Target/bsp_driver_sd.c **** 
 346:FATFS/Target/bsp_driver_sd.c ****   /* Enable SDMMC2 clock */
 347:FATFS/Target/bsp_driver_sd.c ****   __HAL_RCC_SDMMC2_CLK_ENABLE();
 405              		.loc 1 347 3 view .LVU80
 406              	.LBB2:
 407              		.loc 1 347 3 view .LVU81
ARM GAS  /var/folders/n6/c271nzx11xl4r4_m7sqjlt0m0000gn/T//cc5HVXC8.s 			page 14


 408              		.loc 1 347 3 view .LVU82
 409 0004 2A4B     		ldr	r3, .L38
 410 0006 5A6C     		ldr	r2, [r3, #68]
 411 0008 42F08002 		orr	r2, r2, #128
 412 000c 5A64     		str	r2, [r3, #68]
 413              		.loc 1 347 3 view .LVU83
 414 000e 5A6C     		ldr	r2, [r3, #68]
 415 0010 02F08002 		and	r2, r2, #128
 416 0014 0092     		str	r2, [sp]
 417              		.loc 1 347 3 view .LVU84
 418 0016 009A     		ldr	r2, [sp]
 419              	.LBE2:
 420              		.loc 1 347 3 view .LVU85
 348:FATFS/Target/bsp_driver_sd.c **** 
 349:FATFS/Target/bsp_driver_sd.c ****   /* Enable DMA2 clocks */
 350:FATFS/Target/bsp_driver_sd.c ****   __DMAx_TxRx_CLK_ENABLE();
 421              		.loc 1 350 3 view .LVU86
 422              	.LBB3:
 423              		.loc 1 350 3 view .LVU87
 424              		.loc 1 350 3 view .LVU88
 425 0018 1A6B     		ldr	r2, [r3, #48]
 426 001a 42F48002 		orr	r2, r2, #4194304
 427 001e 1A63     		str	r2, [r3, #48]
 428              		.loc 1 350 3 view .LVU89
 429 0020 1A6B     		ldr	r2, [r3, #48]
 430 0022 02F48002 		and	r2, r2, #4194304
 431 0026 0192     		str	r2, [sp, #4]
 432              		.loc 1 350 3 view .LVU90
 433 0028 019A     		ldr	r2, [sp, #4]
 434              	.LBE3:
 435              		.loc 1 350 3 view .LVU91
 351:FATFS/Target/bsp_driver_sd.c **** 
 352:FATFS/Target/bsp_driver_sd.c ****   /* Enable GPIOs clock */
 353:FATFS/Target/bsp_driver_sd.c ****   __HAL_RCC_GPIOB_CLK_ENABLE();
 436              		.loc 1 353 3 view .LVU92
 437              	.LBB4:
 438              		.loc 1 353 3 view .LVU93
 439              		.loc 1 353 3 view .LVU94
 440 002a 1A6B     		ldr	r2, [r3, #48]
 441 002c 42F00202 		orr	r2, r2, #2
 442 0030 1A63     		str	r2, [r3, #48]
 443              		.loc 1 353 3 view .LVU95
 444 0032 1A6B     		ldr	r2, [r3, #48]
 445 0034 02F00202 		and	r2, r2, #2
 446 0038 0292     		str	r2, [sp, #8]
 447              		.loc 1 353 3 view .LVU96
 448 003a 029A     		ldr	r2, [sp, #8]
 449              	.LBE4:
 450              		.loc 1 353 3 view .LVU97
 354:FATFS/Target/bsp_driver_sd.c ****   __HAL_RCC_GPIOD_CLK_ENABLE();
 451              		.loc 1 354 3 view .LVU98
 452              	.LBB5:
 453              		.loc 1 354 3 view .LVU99
 454              		.loc 1 354 3 view .LVU100
 455 003c 1A6B     		ldr	r2, [r3, #48]
 456 003e 42F00802 		orr	r2, r2, #8
 457 0042 1A63     		str	r2, [r3, #48]
ARM GAS  /var/folders/n6/c271nzx11xl4r4_m7sqjlt0m0000gn/T//cc5HVXC8.s 			page 15


 458              		.loc 1 354 3 view .LVU101
 459 0044 1A6B     		ldr	r2, [r3, #48]
 460 0046 02F00802 		and	r2, r2, #8
 461 004a 0392     		str	r2, [sp, #12]
 462              		.loc 1 354 3 view .LVU102
 463 004c 039A     		ldr	r2, [sp, #12]
 464              	.LBE5:
 465              		.loc 1 354 3 view .LVU103
 355:FATFS/Target/bsp_driver_sd.c ****   __HAL_RCC_GPIOG_CLK_ENABLE();
 466              		.loc 1 355 3 view .LVU104
 467              	.LBB6:
 468              		.loc 1 355 3 view .LVU105
 469              		.loc 1 355 3 view .LVU106
 470 004e 1A6B     		ldr	r2, [r3, #48]
 471 0050 42F04002 		orr	r2, r2, #64
 472 0054 1A63     		str	r2, [r3, #48]
 473              		.loc 1 355 3 view .LVU107
 474 0056 1B6B     		ldr	r3, [r3, #48]
 475 0058 03F04003 		and	r3, r3, #64
 476 005c 0493     		str	r3, [sp, #16]
 477              		.loc 1 355 3 view .LVU108
 478 005e 049B     		ldr	r3, [sp, #16]
 479              	.LBE6:
 480              		.loc 1 355 3 view .LVU109
 356:FATFS/Target/bsp_driver_sd.c **** 
 357:FATFS/Target/bsp_driver_sd.c ****   /* Common GPIO configuration */
 358:FATFS/Target/bsp_driver_sd.c ****   gpio_init_structure.Mode = GPIO_MODE_AF_PP;
 481              		.loc 1 358 3 view .LVU110
 482              		.loc 1 358 28 is_stmt 0 view .LVU111
 483 0060 0223     		movs	r3, #2
 484 0062 0693     		str	r3, [sp, #24]
 359:FATFS/Target/bsp_driver_sd.c ****   gpio_init_structure.Pull = GPIO_PULLUP;
 485              		.loc 1 359 3 is_stmt 1 view .LVU112
 486              		.loc 1 359 28 is_stmt 0 view .LVU113
 487 0064 0123     		movs	r3, #1
 488 0066 0793     		str	r3, [sp, #28]
 360:FATFS/Target/bsp_driver_sd.c ****   gpio_init_structure.Speed = GPIO_SPEED_HIGH;
 489              		.loc 1 360 3 is_stmt 1 view .LVU114
 490              		.loc 1 360 29 is_stmt 0 view .LVU115
 491 0068 0323     		movs	r3, #3
 492 006a 0893     		str	r3, [sp, #32]
 361:FATFS/Target/bsp_driver_sd.c **** 
 362:FATFS/Target/bsp_driver_sd.c ****   /* GPIOB configuration */
 363:FATFS/Target/bsp_driver_sd.c ****   gpio_init_structure.Alternate = GPIO_AF10_SDMMC2;
 493              		.loc 1 363 3 is_stmt 1 view .LVU116
 494              		.loc 1 363 33 is_stmt 0 view .LVU117
 495 006c 0A23     		movs	r3, #10
 496 006e 0993     		str	r3, [sp, #36]
 364:FATFS/Target/bsp_driver_sd.c ****   gpio_init_structure.Pin = GPIO_PIN_3 | GPIO_PIN_4;
 497              		.loc 1 364 3 is_stmt 1 view .LVU118
 498              		.loc 1 364 27 is_stmt 0 view .LVU119
 499 0070 1823     		movs	r3, #24
 500 0072 0593     		str	r3, [sp, #20]
 365:FATFS/Target/bsp_driver_sd.c ****   HAL_GPIO_Init(GPIOB, &gpio_init_structure);
 501              		.loc 1 365 3 is_stmt 1 view .LVU120
 502 0074 05A9     		add	r1, sp, #20
 503              	.LVL31:
ARM GAS  /var/folders/n6/c271nzx11xl4r4_m7sqjlt0m0000gn/T//cc5HVXC8.s 			page 16


 504              		.loc 1 365 3 is_stmt 0 view .LVU121
 505 0076 0F48     		ldr	r0, .L38+4
 506              	.LVL32:
 507              		.loc 1 365 3 view .LVU122
 508 0078 FFF7FEFF 		bl	HAL_GPIO_Init
 509              	.LVL33:
 366:FATFS/Target/bsp_driver_sd.c **** 
 367:FATFS/Target/bsp_driver_sd.c ****   /* GPIOD configuration */
 368:FATFS/Target/bsp_driver_sd.c ****   gpio_init_structure.Alternate = GPIO_AF11_SDMMC2;
 510              		.loc 1 368 3 is_stmt 1 view .LVU123
 511              		.loc 1 368 33 is_stmt 0 view .LVU124
 512 007c 0B23     		movs	r3, #11
 513 007e 0993     		str	r3, [sp, #36]
 369:FATFS/Target/bsp_driver_sd.c ****   gpio_init_structure.Pin = GPIO_PIN_6 | GPIO_PIN_7;
 514              		.loc 1 369 3 is_stmt 1 view .LVU125
 515              		.loc 1 369 27 is_stmt 0 view .LVU126
 516 0080 C023     		movs	r3, #192
 517 0082 0593     		str	r3, [sp, #20]
 370:FATFS/Target/bsp_driver_sd.c ****   HAL_GPIO_Init(GPIOD, &gpio_init_structure);
 518              		.loc 1 370 3 is_stmt 1 view .LVU127
 519 0084 05A9     		add	r1, sp, #20
 520 0086 0C48     		ldr	r0, .L38+8
 521 0088 FFF7FEFF 		bl	HAL_GPIO_Init
 522              	.LVL34:
 371:FATFS/Target/bsp_driver_sd.c **** 
 372:FATFS/Target/bsp_driver_sd.c ****   /* GPIOG configuration */
 373:FATFS/Target/bsp_driver_sd.c ****   gpio_init_structure.Pin = GPIO_PIN_9 | GPIO_PIN_10;
 523              		.loc 1 373 3 view .LVU128
 524              		.loc 1 373 27 is_stmt 0 view .LVU129
 525 008c 4FF4C063 		mov	r3, #1536
 526 0090 0593     		str	r3, [sp, #20]
 374:FATFS/Target/bsp_driver_sd.c ****   HAL_GPIO_Init(GPIOG, &gpio_init_structure);
 527              		.loc 1 374 3 is_stmt 1 view .LVU130
 528 0092 05A9     		add	r1, sp, #20
 529 0094 0948     		ldr	r0, .L38+12
 530 0096 FFF7FEFF 		bl	HAL_GPIO_Init
 531              	.LVL35:
 375:FATFS/Target/bsp_driver_sd.c **** 
 376:FATFS/Target/bsp_driver_sd.c ****   /* NVIC configuration for SDMMC2 interrupts */
 377:FATFS/Target/bsp_driver_sd.c ****   HAL_NVIC_SetPriority(SDMMC2_IRQn, 0x0E, 0);
 532              		.loc 1 377 3 view .LVU131
 533 009a 0022     		movs	r2, #0
 534 009c 0E21     		movs	r1, #14
 535 009e 6720     		movs	r0, #103
 536 00a0 FFF7FEFF 		bl	HAL_NVIC_SetPriority
 537              	.LVL36:
 378:FATFS/Target/bsp_driver_sd.c ****   HAL_NVIC_EnableIRQ(SDMMC2_IRQn);
 538              		.loc 1 378 3 view .LVU132
 539 00a4 6720     		movs	r0, #103
 540 00a6 FFF7FEFF 		bl	HAL_NVIC_EnableIRQ
 541              	.LVL37:
 379:FATFS/Target/bsp_driver_sd.c **** }
 542              		.loc 1 379 1 is_stmt 0 view .LVU133
 543 00aa 0BB0     		add	sp, sp, #44
 544              		.cfi_def_cfa_offset 4
 545              		@ sp needed
 546 00ac 5DF804FB 		ldr	pc, [sp], #4
ARM GAS  /var/folders/n6/c271nzx11xl4r4_m7sqjlt0m0000gn/T//cc5HVXC8.s 			page 17


 547              	.L39:
 548              		.align	2
 549              	.L38:
 550 00b0 00380240 		.word	1073887232
 551 00b4 00040240 		.word	1073873920
 552 00b8 000C0240 		.word	1073875968
 553 00bc 00180240 		.word	1073879040
 554              		.cfi_endproc
 555              	.LFE150:
 557              		.section	.text.BSP_SD_Detect_MspInit,"ax",%progbits
 558              		.align	1
 559              		.weak	BSP_SD_Detect_MspInit
 560              		.syntax unified
 561              		.thumb
 562              		.thumb_func
 564              	BSP_SD_Detect_MspInit:
 565              	.LVL38:
 566              	.LFB151:
 380:FATFS/Target/bsp_driver_sd.c **** 
 381:FATFS/Target/bsp_driver_sd.c **** /**
 382:FATFS/Target/bsp_driver_sd.c ****  * @brief  Initializes the SD Detect pin MSP.
 383:FATFS/Target/bsp_driver_sd.c ****  * @param  hsd: SD handle
 384:FATFS/Target/bsp_driver_sd.c ****  * @param  Params : pointer on additional configuration parameters, can be NULL.
 385:FATFS/Target/bsp_driver_sd.c ****  * @retval None
 386:FATFS/Target/bsp_driver_sd.c ****  */
 387:FATFS/Target/bsp_driver_sd.c **** __weak void BSP_SD_Detect_MspInit(SD_HandleTypeDef *hsd, void *Params)
 388:FATFS/Target/bsp_driver_sd.c **** {
 567              		.loc 1 388 1 is_stmt 1 view -0
 568              		.cfi_startproc
 569              		@ args = 0, pretend = 0, frame = 24
 570              		@ frame_needed = 0, uses_anonymous_args = 0
 571              		.loc 1 388 1 is_stmt 0 view .LVU135
 572 0000 00B5     		push	{lr}
 573              		.cfi_def_cfa_offset 4
 574              		.cfi_offset 14, -4
 575 0002 87B0     		sub	sp, sp, #28
 576              		.cfi_def_cfa_offset 32
 389:FATFS/Target/bsp_driver_sd.c ****   GPIO_InitTypeDef gpio_init_structure;
 577              		.loc 1 389 3 is_stmt 1 view .LVU136
 390:FATFS/Target/bsp_driver_sd.c **** 
 391:FATFS/Target/bsp_driver_sd.c ****   SD_DETECT_GPIO_CLK_ENABLE();
 578              		.loc 1 391 3 view .LVU137
 579              	.LBB7:
 580              		.loc 1 391 3 view .LVU138
 581              		.loc 1 391 3 view .LVU139
 582 0004 0C4B     		ldr	r3, .L42
 583 0006 1A6B     		ldr	r2, [r3, #48]
 584 0008 42F48072 		orr	r2, r2, #256
 585 000c 1A63     		str	r2, [r3, #48]
 586              		.loc 1 391 3 view .LVU140
 587 000e 1B6B     		ldr	r3, [r3, #48]
 588 0010 03F48073 		and	r3, r3, #256
 589 0014 0093     		str	r3, [sp]
 590              		.loc 1 391 3 view .LVU141
 591 0016 009B     		ldr	r3, [sp]
 592              	.LBE7:
 593              		.loc 1 391 3 view .LVU142
ARM GAS  /var/folders/n6/c271nzx11xl4r4_m7sqjlt0m0000gn/T//cc5HVXC8.s 			page 18


 392:FATFS/Target/bsp_driver_sd.c **** 
 393:FATFS/Target/bsp_driver_sd.c ****   /* GPIO configuration in input for uSD_Detect signal */
 394:FATFS/Target/bsp_driver_sd.c ****   gpio_init_structure.Pin = SD_DETECT_PIN;
 594              		.loc 1 394 3 view .LVU143
 595              		.loc 1 394 27 is_stmt 0 view .LVU144
 596 0018 4FF40043 		mov	r3, #32768
 597 001c 0193     		str	r3, [sp, #4]
 395:FATFS/Target/bsp_driver_sd.c ****   gpio_init_structure.Mode = GPIO_MODE_INPUT;
 598              		.loc 1 395 3 is_stmt 1 view .LVU145
 599              		.loc 1 395 28 is_stmt 0 view .LVU146
 600 001e 0023     		movs	r3, #0
 601 0020 0293     		str	r3, [sp, #8]
 396:FATFS/Target/bsp_driver_sd.c ****   gpio_init_structure.Pull = GPIO_PULLUP;
 602              		.loc 1 396 3 is_stmt 1 view .LVU147
 603              		.loc 1 396 28 is_stmt 0 view .LVU148
 604 0022 0123     		movs	r3, #1
 605 0024 0393     		str	r3, [sp, #12]
 397:FATFS/Target/bsp_driver_sd.c ****   gpio_init_structure.Speed = GPIO_SPEED_HIGH;
 606              		.loc 1 397 3 is_stmt 1 view .LVU149
 607              		.loc 1 397 29 is_stmt 0 view .LVU150
 608 0026 0323     		movs	r3, #3
 609 0028 0493     		str	r3, [sp, #16]
 398:FATFS/Target/bsp_driver_sd.c ****   HAL_GPIO_Init(SD_DETECT_GPIO_PORT, &gpio_init_structure);
 610              		.loc 1 398 3 is_stmt 1 view .LVU151
 611 002a 01A9     		add	r1, sp, #4
 612              	.LVL39:
 613              		.loc 1 398 3 is_stmt 0 view .LVU152
 614 002c 0348     		ldr	r0, .L42+4
 615              	.LVL40:
 616              		.loc 1 398 3 view .LVU153
 617 002e FFF7FEFF 		bl	HAL_GPIO_Init
 618              	.LVL41:
 399:FATFS/Target/bsp_driver_sd.c **** }
 619              		.loc 1 399 1 view .LVU154
 620 0032 07B0     		add	sp, sp, #28
 621              		.cfi_def_cfa_offset 4
 622              		@ sp needed
 623 0034 5DF804FB 		ldr	pc, [sp], #4
 624              	.L43:
 625              		.align	2
 626              	.L42:
 627 0038 00380240 		.word	1073887232
 628 003c 00200240 		.word	1073881088
 629              		.cfi_endproc
 630              	.LFE151:
 632              		.section	.text.BSP_SD_Init,"ax",%progbits
 633              		.align	1
 634              		.global	BSP_SD_Init
 635              		.syntax unified
 636              		.thumb
 637              		.thumb_func
 639              	BSP_SD_Init:
 640              	.LFB141:
 131:FATFS/Target/bsp_driver_sd.c ****   uint8_t sd_state = MSD_OK;
 641              		.loc 1 131 1 is_stmt 1 view -0
 642              		.cfi_startproc
 643              		@ args = 0, pretend = 0, frame = 0
ARM GAS  /var/folders/n6/c271nzx11xl4r4_m7sqjlt0m0000gn/T//cc5HVXC8.s 			page 19


 644              		@ frame_needed = 0, uses_anonymous_args = 0
 645 0000 38B5     		push	{r3, r4, r5, lr}
 646              		.cfi_def_cfa_offset 16
 647              		.cfi_offset 3, -16
 648              		.cfi_offset 4, -12
 649              		.cfi_offset 5, -8
 650              		.cfi_offset 14, -4
 132:FATFS/Target/bsp_driver_sd.c **** 
 651              		.loc 1 132 3 view .LVU156
 652              	.LVL42:
 137:FATFS/Target/bsp_driver_sd.c ****   uSdHandle.Init.ClockEdge = SDMMC_CLOCK_EDGE_RISING;
 653              		.loc 1 137 3 view .LVU157
 137:FATFS/Target/bsp_driver_sd.c ****   uSdHandle.Init.ClockEdge = SDMMC_CLOCK_EDGE_RISING;
 654              		.loc 1 137 22 is_stmt 0 view .LVU158
 655 0002 1448     		ldr	r0, .L50
 656 0004 144B     		ldr	r3, .L50+4
 657 0006 0360     		str	r3, [r0]
 138:FATFS/Target/bsp_driver_sd.c ****   uSdHandle.Init.ClockBypass = SDMMC_CLOCK_BYPASS_DISABLE;
 658              		.loc 1 138 3 is_stmt 1 view .LVU159
 138:FATFS/Target/bsp_driver_sd.c ****   uSdHandle.Init.ClockBypass = SDMMC_CLOCK_BYPASS_DISABLE;
 659              		.loc 1 138 28 is_stmt 0 view .LVU160
 660 0008 0021     		movs	r1, #0
 661 000a 4160     		str	r1, [r0, #4]
 139:FATFS/Target/bsp_driver_sd.c ****   uSdHandle.Init.ClockPowerSave = SDMMC_CLOCK_POWER_SAVE_DISABLE;
 662              		.loc 1 139 3 is_stmt 1 view .LVU161
 139:FATFS/Target/bsp_driver_sd.c ****   uSdHandle.Init.ClockPowerSave = SDMMC_CLOCK_POWER_SAVE_DISABLE;
 663              		.loc 1 139 30 is_stmt 0 view .LVU162
 664 000c 8160     		str	r1, [r0, #8]
 140:FATFS/Target/bsp_driver_sd.c ****   uSdHandle.Init.BusWide = SDMMC_BUS_WIDE_1B;
 665              		.loc 1 140 3 is_stmt 1 view .LVU163
 140:FATFS/Target/bsp_driver_sd.c ****   uSdHandle.Init.BusWide = SDMMC_BUS_WIDE_1B;
 666              		.loc 1 140 33 is_stmt 0 view .LVU164
 667 000e C160     		str	r1, [r0, #12]
 141:FATFS/Target/bsp_driver_sd.c ****   uSdHandle.Init.HardwareFlowControl = SDMMC_HARDWARE_FLOW_CONTROL_ENABLE;
 668              		.loc 1 141 3 is_stmt 1 view .LVU165
 141:FATFS/Target/bsp_driver_sd.c ****   uSdHandle.Init.HardwareFlowControl = SDMMC_HARDWARE_FLOW_CONTROL_ENABLE;
 669              		.loc 1 141 26 is_stmt 0 view .LVU166
 670 0010 0161     		str	r1, [r0, #16]
 142:FATFS/Target/bsp_driver_sd.c ****   uSdHandle.Init.ClockDiv = SDMMC_TRANSFER_CLK_DIV;
 671              		.loc 1 142 3 is_stmt 1 view .LVU167
 142:FATFS/Target/bsp_driver_sd.c ****   uSdHandle.Init.ClockDiv = SDMMC_TRANSFER_CLK_DIV;
 672              		.loc 1 142 38 is_stmt 0 view .LVU168
 673 0012 4FF48043 		mov	r3, #16384
 674 0016 4361     		str	r3, [r0, #20]
 143:FATFS/Target/bsp_driver_sd.c **** 
 675              		.loc 1 143 3 is_stmt 1 view .LVU169
 143:FATFS/Target/bsp_driver_sd.c **** 
 676              		.loc 1 143 27 is_stmt 0 view .LVU170
 677 0018 8161     		str	r1, [r0, #24]
 146:FATFS/Target/bsp_driver_sd.c ****   if (BSP_SD_IsDetected() != SD_PRESENT) /* Check if SD card is present */
 678              		.loc 1 146 3 is_stmt 1 view .LVU171
 679 001a FFF7FEFF 		bl	BSP_SD_Detect_MspInit
 680              	.LVL43:
 147:FATFS/Target/bsp_driver_sd.c ****   {
 681              		.loc 1 147 3 view .LVU172
 147:FATFS/Target/bsp_driver_sd.c ****   {
 682              		.loc 1 147 7 is_stmt 0 view .LVU173
ARM GAS  /var/folders/n6/c271nzx11xl4r4_m7sqjlt0m0000gn/T//cc5HVXC8.s 			page 20


 683 001e FFF7FEFF 		bl	BSP_SD_IsDetected
 684              	.LVL44:
 147:FATFS/Target/bsp_driver_sd.c ****   {
 685              		.loc 1 147 6 discriminator 1 view .LVU174
 686 0022 0128     		cmp	r0, #1
 687 0024 02D0     		beq	.L49
 149:FATFS/Target/bsp_driver_sd.c ****   }
 688              		.loc 1 149 12 view .LVU175
 689 0026 0224     		movs	r4, #2
 690              	.L45:
 691              	.LVL45:
 175:FATFS/Target/bsp_driver_sd.c **** 
 692              		.loc 1 175 1 view .LVU176
 693 0028 2046     		mov	r0, r4
 694 002a 38BD     		pop	{r3, r4, r5, pc}
 695              	.LVL46:
 696              	.L49:
 175:FATFS/Target/bsp_driver_sd.c **** 
 697              		.loc 1 175 1 view .LVU177
 698 002c 0446     		mov	r4, r0
 153:FATFS/Target/bsp_driver_sd.c **** 
 699              		.loc 1 153 3 is_stmt 1 view .LVU178
 700 002e 094D     		ldr	r5, .L50
 701 0030 0021     		movs	r1, #0
 702 0032 2846     		mov	r0, r5
 703 0034 FFF7FEFF 		bl	BSP_SD_MspInit
 704              	.LVL47:
 156:FATFS/Target/bsp_driver_sd.c ****   {
 705              		.loc 1 156 3 view .LVU179
 156:FATFS/Target/bsp_driver_sd.c ****   {
 706              		.loc 1 156 7 is_stmt 0 view .LVU180
 707 0038 2846     		mov	r0, r5
 708 003a FFF7FEFF 		bl	HAL_SD_Init
 709              	.LVL48:
 156:FATFS/Target/bsp_driver_sd.c ****   {
 710              		.loc 1 156 6 discriminator 1 view .LVU181
 711 003e 0028     		cmp	r0, #0
 712 0040 F2D1     		bne	.L45
 162:FATFS/Target/bsp_driver_sd.c ****   {
 713              		.loc 1 162 3 is_stmt 1 view .LVU182
 165:FATFS/Target/bsp_driver_sd.c ****     {
 714              		.loc 1 165 5 view .LVU183
 165:FATFS/Target/bsp_driver_sd.c ****     {
 715              		.loc 1 165 9 is_stmt 0 view .LVU184
 716 0042 4FF40061 		mov	r1, #2048
 717 0046 2846     		mov	r0, r5
 718 0048 FFF7FEFF 		bl	HAL_SD_ConfigWideBusOperation
 719              	.LVL49:
 165:FATFS/Target/bsp_driver_sd.c ****     {
 720              		.loc 1 165 8 discriminator 1 view .LVU185
 721 004c 0028     		cmp	r0, #0
 722 004e EBD1     		bne	.L45
 171:FATFS/Target/bsp_driver_sd.c ****     }
 723              		.loc 1 171 16 view .LVU186
 724 0050 0446     		mov	r4, r0
 725 0052 E9E7     		b	.L45
 726              	.L51:
ARM GAS  /var/folders/n6/c271nzx11xl4r4_m7sqjlt0m0000gn/T//cc5HVXC8.s 			page 21


 727              		.align	2
 728              	.L50:
 729 0054 00000000 		.word	uSdHandle
 730 0058 001C0140 		.word	1073814528
 731              		.cfi_endproc
 732              	.LFE141:
 734              		.section	.text.BSP_SD_MspDeInit,"ax",%progbits
 735              		.align	1
 736              		.weak	BSP_SD_MspDeInit
 737              		.syntax unified
 738              		.thumb
 739              		.thumb_func
 741              	BSP_SD_MspDeInit:
 742              	.LVL50:
 743              	.LFB152:
 400:FATFS/Target/bsp_driver_sd.c **** 
 401:FATFS/Target/bsp_driver_sd.c **** /**
 402:FATFS/Target/bsp_driver_sd.c ****  * @brief  DeInitializes the SD MSP.
 403:FATFS/Target/bsp_driver_sd.c ****  * @param  hsd: SD handle
 404:FATFS/Target/bsp_driver_sd.c ****  * @param  Params : pointer on additional configuration parameters, can be NULL.
 405:FATFS/Target/bsp_driver_sd.c ****  */
 406:FATFS/Target/bsp_driver_sd.c **** __weak void BSP_SD_MspDeInit(SD_HandleTypeDef *hsd, void *Params)
 407:FATFS/Target/bsp_driver_sd.c **** {
 744              		.loc 1 407 1 is_stmt 1 view -0
 745              		.cfi_startproc
 746              		@ args = 0, pretend = 0, frame = 0
 747              		@ frame_needed = 0, uses_anonymous_args = 0
 748              		.loc 1 407 1 is_stmt 0 view .LVU188
 749 0000 08B5     		push	{r3, lr}
 750              		.cfi_def_cfa_offset 8
 751              		.cfi_offset 3, -8
 752              		.cfi_offset 14, -4
 408:FATFS/Target/bsp_driver_sd.c ****   static DMA_HandleTypeDef dma_rx_handle;
 753              		.loc 1 408 3 is_stmt 1 view .LVU189
 409:FATFS/Target/bsp_driver_sd.c ****   static DMA_HandleTypeDef dma_tx_handle;
 754              		.loc 1 409 3 view .LVU190
 410:FATFS/Target/bsp_driver_sd.c **** 
 411:FATFS/Target/bsp_driver_sd.c ****   /* Disable NVIC for DMA transfer complete interrupts */
 412:FATFS/Target/bsp_driver_sd.c ****   HAL_NVIC_DisableIRQ(SD_DMAx_Rx_IRQn);
 755              		.loc 1 412 3 view .LVU191
 756 0002 3820     		movs	r0, #56
 757              	.LVL51:
 758              		.loc 1 412 3 is_stmt 0 view .LVU192
 759 0004 FFF7FEFF 		bl	HAL_NVIC_DisableIRQ
 760              	.LVL52:
 413:FATFS/Target/bsp_driver_sd.c ****   HAL_NVIC_DisableIRQ(SD_DMAx_Tx_IRQn);
 761              		.loc 1 413 3 is_stmt 1 view .LVU193
 762 0008 4420     		movs	r0, #68
 763 000a FFF7FEFF 		bl	HAL_NVIC_DisableIRQ
 764              	.LVL53:
 414:FATFS/Target/bsp_driver_sd.c **** 
 415:FATFS/Target/bsp_driver_sd.c ****   /* Deinitialize the stream for new transfer */
 416:FATFS/Target/bsp_driver_sd.c ****   dma_rx_handle.Instance = SD_DMAx_Rx_STREAM;
 765              		.loc 1 416 3 view .LVU194
 766              		.loc 1 416 26 is_stmt 0 view .LVU195
 767 000e 0948     		ldr	r0, .L54
 768 0010 094B     		ldr	r3, .L54+4
ARM GAS  /var/folders/n6/c271nzx11xl4r4_m7sqjlt0m0000gn/T//cc5HVXC8.s 			page 22


 769 0012 0360     		str	r3, [r0]
 417:FATFS/Target/bsp_driver_sd.c ****   HAL_DMA_DeInit(&dma_rx_handle);
 770              		.loc 1 417 3 is_stmt 1 view .LVU196
 771 0014 FFF7FEFF 		bl	HAL_DMA_DeInit
 772              	.LVL54:
 418:FATFS/Target/bsp_driver_sd.c **** 
 419:FATFS/Target/bsp_driver_sd.c ****   /* Deinitialize the stream for new transfer */
 420:FATFS/Target/bsp_driver_sd.c ****   dma_tx_handle.Instance = SD_DMAx_Tx_STREAM;
 773              		.loc 1 420 3 view .LVU197
 774              		.loc 1 420 26 is_stmt 0 view .LVU198
 775 0018 0848     		ldr	r0, .L54+8
 776 001a 094B     		ldr	r3, .L54+12
 777 001c 0360     		str	r3, [r0]
 421:FATFS/Target/bsp_driver_sd.c ****   HAL_DMA_DeInit(&dma_tx_handle);
 778              		.loc 1 421 3 is_stmt 1 view .LVU199
 779 001e FFF7FEFF 		bl	HAL_DMA_DeInit
 780              	.LVL55:
 422:FATFS/Target/bsp_driver_sd.c **** 
 423:FATFS/Target/bsp_driver_sd.c ****   /* Disable NVIC for SDIO interrupts */
 424:FATFS/Target/bsp_driver_sd.c ****   HAL_NVIC_DisableIRQ(SDIO_IRQn);
 781              		.loc 1 424 3 view .LVU200
 782 0022 3120     		movs	r0, #49
 783 0024 FFF7FEFF 		bl	HAL_NVIC_DisableIRQ
 784              	.LVL56:
 425:FATFS/Target/bsp_driver_sd.c **** 
 426:FATFS/Target/bsp_driver_sd.c ****   /* DeInit GPIO pins can be done in the application
 427:FATFS/Target/bsp_driver_sd.c ****      (by surcharging this __weak function) */
 428:FATFS/Target/bsp_driver_sd.c **** 
 429:FATFS/Target/bsp_driver_sd.c ****   /* Disable SDIO clock */
 430:FATFS/Target/bsp_driver_sd.c ****   __HAL_RCC_SDIO_CLK_DISABLE();
 785              		.loc 1 430 3 view .LVU201
 786 0028 064A     		ldr	r2, .L54+16
 787 002a 536C     		ldr	r3, [r2, #68]
 788 002c 23F40063 		bic	r3, r3, #2048
 789 0030 5364     		str	r3, [r2, #68]
 431:FATFS/Target/bsp_driver_sd.c **** 
 432:FATFS/Target/bsp_driver_sd.c ****   /* GPOI pins clock and DMA cloks can be shut down in the applic
 433:FATFS/Target/bsp_driver_sd.c ****      by surcgarging this __weak function */
 434:FATFS/Target/bsp_driver_sd.c **** }
 790              		.loc 1 434 1 is_stmt 0 view .LVU202
 791 0032 08BD     		pop	{r3, pc}
 792              	.L55:
 793              		.align	2
 794              	.L54:
 795 0034 00000000 		.word	dma_rx_handle.1
 796 0038 10640240 		.word	1073898512
 797 003c 00000000 		.word	dma_tx_handle.0
 798 0040 88640240 		.word	1073898632
 799 0044 00380240 		.word	1073887232
 800              		.cfi_endproc
 801              	.LFE152:
 803              		.section	.text.BSP_SD_DeInit,"ax",%progbits
 804              		.align	1
 805              		.global	BSP_SD_DeInit
 806              		.syntax unified
 807              		.thumb
 808              		.thumb_func
ARM GAS  /var/folders/n6/c271nzx11xl4r4_m7sqjlt0m0000gn/T//cc5HVXC8.s 			page 23


 810              	BSP_SD_DeInit:
 811              	.LFB142:
 182:FATFS/Target/bsp_driver_sd.c ****   uint8_t sd_state = MSD_OK;
 812              		.loc 1 182 1 is_stmt 1 view -0
 813              		.cfi_startproc
 814              		@ args = 0, pretend = 0, frame = 0
 815              		@ frame_needed = 0, uses_anonymous_args = 0
 816 0000 10B5     		push	{r4, lr}
 817              		.cfi_def_cfa_offset 8
 818              		.cfi_offset 4, -8
 819              		.cfi_offset 14, -4
 183:FATFS/Target/bsp_driver_sd.c **** 
 820              		.loc 1 183 3 view .LVU204
 821              	.LVL57:
 185:FATFS/Target/bsp_driver_sd.c **** 
 822              		.loc 1 185 3 view .LVU205
 185:FATFS/Target/bsp_driver_sd.c **** 
 823              		.loc 1 185 22 is_stmt 0 view .LVU206
 824 0002 0848     		ldr	r0, .L60
 825 0004 084B     		ldr	r3, .L60+4
 826 0006 0360     		str	r3, [r0]
 188:FATFS/Target/bsp_driver_sd.c ****   {
 827              		.loc 1 188 3 is_stmt 1 view .LVU207
 188:FATFS/Target/bsp_driver_sd.c ****   {
 828              		.loc 1 188 7 is_stmt 0 view .LVU208
 829 0008 FFF7FEFF 		bl	HAL_SD_DeInit
 830              	.LVL58:
 188:FATFS/Target/bsp_driver_sd.c ****   {
 831              		.loc 1 188 6 discriminator 1 view .LVU209
 832 000c 0446     		mov	r4, r0
 833 000e 00B1     		cbz	r0, .L57
 190:FATFS/Target/bsp_driver_sd.c ****   }
 834              		.loc 1 190 14 view .LVU210
 835 0010 0124     		movs	r4, #1
 836              	.L57:
 837              	.LVL59:
 194:FATFS/Target/bsp_driver_sd.c ****   BSP_SD_MspDeInit(&uSdHandle, NULL);
 838              		.loc 1 194 3 is_stmt 1 view .LVU211
 194:FATFS/Target/bsp_driver_sd.c ****   BSP_SD_MspDeInit(&uSdHandle, NULL);
 839              		.loc 1 194 22 is_stmt 0 view .LVU212
 840 0012 0448     		ldr	r0, .L60
 841 0014 044B     		ldr	r3, .L60+4
 842 0016 0360     		str	r3, [r0]
 195:FATFS/Target/bsp_driver_sd.c **** 
 843              		.loc 1 195 3 is_stmt 1 view .LVU213
 844 0018 0021     		movs	r1, #0
 845 001a FFF7FEFF 		bl	BSP_SD_MspDeInit
 846              	.LVL60:
 197:FATFS/Target/bsp_driver_sd.c **** }
 847              		.loc 1 197 3 view .LVU214
 198:FATFS/Target/bsp_driver_sd.c **** 
 848              		.loc 1 198 1 is_stmt 0 view .LVU215
 849 001e 2046     		mov	r0, r4
 850 0020 10BD     		pop	{r4, pc}
 851              	.LVL61:
 852              	.L61:
 198:FATFS/Target/bsp_driver_sd.c **** 
ARM GAS  /var/folders/n6/c271nzx11xl4r4_m7sqjlt0m0000gn/T//cc5HVXC8.s 			page 24


 853              		.loc 1 198 1 view .LVU216
 854 0022 00BF     		.align	2
 855              	.L60:
 856 0024 00000000 		.word	uSdHandle
 857 0028 001C0140 		.word	1073814528
 858              		.cfi_endproc
 859              	.LFE142:
 861              		.section	.text.BSP_SD_GetCardState,"ax",%progbits
 862              		.align	1
 863              		.global	BSP_SD_GetCardState
 864              		.syntax unified
 865              		.thumb
 866              		.thumb_func
 868              	BSP_SD_GetCardState:
 869              	.LFB153:
 435:FATFS/Target/bsp_driver_sd.c **** 
 436:FATFS/Target/bsp_driver_sd.c **** /**
 437:FATFS/Target/bsp_driver_sd.c ****  * @brief  Gets the current SD card data status.
 438:FATFS/Target/bsp_driver_sd.c ****  * @retval Data transfer state.
 439:FATFS/Target/bsp_driver_sd.c ****  *          This value can be one of the following values:
 440:FATFS/Target/bsp_driver_sd.c ****  *            @arg  SD_TRANSFER_OK: No data transfer is acting
 441:FATFS/Target/bsp_driver_sd.c ****  *            @arg  SD_TRANSFER_BUSY: Data transfer is acting
 442:FATFS/Target/bsp_driver_sd.c ****  */
 443:FATFS/Target/bsp_driver_sd.c **** uint8_t BSP_SD_GetCardState(void)
 444:FATFS/Target/bsp_driver_sd.c **** {
 870              		.loc 1 444 1 is_stmt 1 view -0
 871              		.cfi_startproc
 872              		@ args = 0, pretend = 0, frame = 0
 873              		@ frame_needed = 0, uses_anonymous_args = 0
 874 0000 08B5     		push	{r3, lr}
 875              		.cfi_def_cfa_offset 8
 876              		.cfi_offset 3, -8
 877              		.cfi_offset 14, -4
 445:FATFS/Target/bsp_driver_sd.c ****   return ((HAL_SD_GetCardState(&uSdHandle) == HAL_SD_CARD_TRANSFER) ? SD_TRANSFER_OK : SD_TRANSFER_
 878              		.loc 1 445 3 view .LVU218
 879              		.loc 1 445 12 is_stmt 0 view .LVU219
 880 0002 0348     		ldr	r0, .L64
 881 0004 FFF7FEFF 		bl	HAL_SD_GetCardState
 882              	.LVL62:
 446:FATFS/Target/bsp_driver_sd.c **** }
 883              		.loc 1 446 1 view .LVU220
 884 0008 0438     		subs	r0, r0, #4
 885 000a 18BF     		it	ne
 886 000c 0120     		movne	r0, #1
 887 000e 08BD     		pop	{r3, pc}
 888              	.L65:
 889              		.align	2
 890              	.L64:
 891 0010 00000000 		.word	uSdHandle
 892              		.cfi_endproc
 893              	.LFE153:
 895              		.section	.text.BSP_SD_GetCardInfo,"ax",%progbits
 896              		.align	1
 897              		.global	BSP_SD_GetCardInfo
 898              		.syntax unified
 899              		.thumb
 900              		.thumb_func
ARM GAS  /var/folders/n6/c271nzx11xl4r4_m7sqjlt0m0000gn/T//cc5HVXC8.s 			page 25


 902              	BSP_SD_GetCardInfo:
 903              	.LVL63:
 904              	.LFB154:
 447:FATFS/Target/bsp_driver_sd.c **** 
 448:FATFS/Target/bsp_driver_sd.c **** /**
 449:FATFS/Target/bsp_driver_sd.c ****  * @brief  Get SD information about specific SD card.
 450:FATFS/Target/bsp_driver_sd.c ****  * @param  CardInfo: Pointer to HAL_SD_CardInfoTypedef structure
 451:FATFS/Target/bsp_driver_sd.c ****  * @retval None
 452:FATFS/Target/bsp_driver_sd.c ****  */
 453:FATFS/Target/bsp_driver_sd.c **** void BSP_SD_GetCardInfo(HAL_SD_CardInfoTypeDef *CardInfo)
 454:FATFS/Target/bsp_driver_sd.c **** {
 905              		.loc 1 454 1 is_stmt 1 view -0
 906              		.cfi_startproc
 907              		@ args = 0, pretend = 0, frame = 0
 908              		@ frame_needed = 0, uses_anonymous_args = 0
 909              		.loc 1 454 1 is_stmt 0 view .LVU222
 910 0000 08B5     		push	{r3, lr}
 911              		.cfi_def_cfa_offset 8
 912              		.cfi_offset 3, -8
 913              		.cfi_offset 14, -4
 914 0002 0146     		mov	r1, r0
 455:FATFS/Target/bsp_driver_sd.c ****   /* Get SD card Information */
 456:FATFS/Target/bsp_driver_sd.c ****   HAL_SD_GetCardInfo(&uSdHandle, CardInfo);
 915              		.loc 1 456 3 is_stmt 1 view .LVU223
 916 0004 0148     		ldr	r0, .L68
 917              	.LVL64:
 918              		.loc 1 456 3 is_stmt 0 view .LVU224
 919 0006 FFF7FEFF 		bl	HAL_SD_GetCardInfo
 920              	.LVL65:
 457:FATFS/Target/bsp_driver_sd.c **** }
 921              		.loc 1 457 1 view .LVU225
 922 000a 08BD     		pop	{r3, pc}
 923              	.L69:
 924              		.align	2
 925              	.L68:
 926 000c 00000000 		.word	uSdHandle
 927              		.cfi_endproc
 928              	.LFE154:
 930              		.section	.text.BSP_SD_AbortCallback,"ax",%progbits
 931              		.align	1
 932              		.weak	BSP_SD_AbortCallback
 933              		.syntax unified
 934              		.thumb
 935              		.thumb_func
 937              	BSP_SD_AbortCallback:
 938              	.LFB158:
 458:FATFS/Target/bsp_driver_sd.c **** 
 459:FATFS/Target/bsp_driver_sd.c **** /**
 460:FATFS/Target/bsp_driver_sd.c ****  * @brief SD Abort callbacks
 461:FATFS/Target/bsp_driver_sd.c ****  * @param hsd: SD handle
 462:FATFS/Target/bsp_driver_sd.c ****  * @retval None
 463:FATFS/Target/bsp_driver_sd.c ****  */
 464:FATFS/Target/bsp_driver_sd.c **** void HAL_SD_AbortCallback(SD_HandleTypeDef *hsd)
 465:FATFS/Target/bsp_driver_sd.c **** {
 466:FATFS/Target/bsp_driver_sd.c ****   BSP_SD_AbortCallback();
 467:FATFS/Target/bsp_driver_sd.c **** }
 468:FATFS/Target/bsp_driver_sd.c **** 
ARM GAS  /var/folders/n6/c271nzx11xl4r4_m7sqjlt0m0000gn/T//cc5HVXC8.s 			page 26


 469:FATFS/Target/bsp_driver_sd.c **** /**
 470:FATFS/Target/bsp_driver_sd.c ****  * @brief Tx Transfer completed callbacks
 471:FATFS/Target/bsp_driver_sd.c ****  * @param hsd: SD handle
 472:FATFS/Target/bsp_driver_sd.c ****  * @retval None
 473:FATFS/Target/bsp_driver_sd.c ****  */
 474:FATFS/Target/bsp_driver_sd.c **** void HAL_SD_TxCpltCallback(SD_HandleTypeDef *hsd)
 475:FATFS/Target/bsp_driver_sd.c **** {
 476:FATFS/Target/bsp_driver_sd.c ****   BSP_SD_WriteCpltCallback();
 477:FATFS/Target/bsp_driver_sd.c **** }
 478:FATFS/Target/bsp_driver_sd.c **** 
 479:FATFS/Target/bsp_driver_sd.c **** /**
 480:FATFS/Target/bsp_driver_sd.c ****  * @brief Rx Transfer completed callbacks
 481:FATFS/Target/bsp_driver_sd.c ****  * @param hsd: SD handle
 482:FATFS/Target/bsp_driver_sd.c ****  * @retval None
 483:FATFS/Target/bsp_driver_sd.c ****  */
 484:FATFS/Target/bsp_driver_sd.c **** void HAL_SD_RxCpltCallback(SD_HandleTypeDef *hsd)
 485:FATFS/Target/bsp_driver_sd.c **** {
 486:FATFS/Target/bsp_driver_sd.c ****   BSP_SD_ReadCpltCallback();
 487:FATFS/Target/bsp_driver_sd.c **** }
 488:FATFS/Target/bsp_driver_sd.c **** 
 489:FATFS/Target/bsp_driver_sd.c **** /**
 490:FATFS/Target/bsp_driver_sd.c ****  * @brief BSP SD Abort callbacks
 491:FATFS/Target/bsp_driver_sd.c ****  * @retval None
 492:FATFS/Target/bsp_driver_sd.c ****  */
 493:FATFS/Target/bsp_driver_sd.c **** __weak void BSP_SD_AbortCallback(void)
 494:FATFS/Target/bsp_driver_sd.c **** {
 939              		.loc 1 494 1 is_stmt 1 view -0
 940              		.cfi_startproc
 941              		@ args = 0, pretend = 0, frame = 0
 942              		@ frame_needed = 0, uses_anonymous_args = 0
 943              		@ link register save eliminated.
 495:FATFS/Target/bsp_driver_sd.c **** }
 944              		.loc 1 495 1 view .LVU227
 945 0000 7047     		bx	lr
 946              		.cfi_endproc
 947              	.LFE158:
 949              		.section	.text.HAL_SD_AbortCallback,"ax",%progbits
 950              		.align	1
 951              		.global	HAL_SD_AbortCallback
 952              		.syntax unified
 953              		.thumb
 954              		.thumb_func
 956              	HAL_SD_AbortCallback:
 957              	.LVL66:
 958              	.LFB155:
 465:FATFS/Target/bsp_driver_sd.c ****   BSP_SD_AbortCallback();
 959              		.loc 1 465 1 view -0
 960              		.cfi_startproc
 961              		@ args = 0, pretend = 0, frame = 0
 962              		@ frame_needed = 0, uses_anonymous_args = 0
 465:FATFS/Target/bsp_driver_sd.c ****   BSP_SD_AbortCallback();
 963              		.loc 1 465 1 is_stmt 0 view .LVU229
 964 0000 08B5     		push	{r3, lr}
 965              		.cfi_def_cfa_offset 8
 966              		.cfi_offset 3, -8
 967              		.cfi_offset 14, -4
 466:FATFS/Target/bsp_driver_sd.c **** }
ARM GAS  /var/folders/n6/c271nzx11xl4r4_m7sqjlt0m0000gn/T//cc5HVXC8.s 			page 27


 968              		.loc 1 466 3 is_stmt 1 view .LVU230
 969 0002 FFF7FEFF 		bl	BSP_SD_AbortCallback
 970              	.LVL67:
 467:FATFS/Target/bsp_driver_sd.c **** 
 971              		.loc 1 467 1 is_stmt 0 view .LVU231
 972 0006 08BD     		pop	{r3, pc}
 973              		.cfi_endproc
 974              	.LFE155:
 976              		.section	.text.BSP_SD_WriteCpltCallback,"ax",%progbits
 977              		.align	1
 978              		.weak	BSP_SD_WriteCpltCallback
 979              		.syntax unified
 980              		.thumb
 981              		.thumb_func
 983              	BSP_SD_WriteCpltCallback:
 984              	.LFB159:
 496:FATFS/Target/bsp_driver_sd.c **** 
 497:FATFS/Target/bsp_driver_sd.c **** /**
 498:FATFS/Target/bsp_driver_sd.c ****  * @brief BSP Tx Transfer completed callbacks
 499:FATFS/Target/bsp_driver_sd.c ****  * @retval None
 500:FATFS/Target/bsp_driver_sd.c ****  */
 501:FATFS/Target/bsp_driver_sd.c **** __weak void BSP_SD_WriteCpltCallback(void)
 502:FATFS/Target/bsp_driver_sd.c **** {
 985              		.loc 1 502 1 is_stmt 1 view -0
 986              		.cfi_startproc
 987              		@ args = 0, pretend = 0, frame = 0
 988              		@ frame_needed = 0, uses_anonymous_args = 0
 989              		@ link register save eliminated.
 503:FATFS/Target/bsp_driver_sd.c **** }
 990              		.loc 1 503 1 view .LVU233
 991 0000 7047     		bx	lr
 992              		.cfi_endproc
 993              	.LFE159:
 995              		.section	.text.HAL_SD_TxCpltCallback,"ax",%progbits
 996              		.align	1
 997              		.global	HAL_SD_TxCpltCallback
 998              		.syntax unified
 999              		.thumb
 1000              		.thumb_func
 1002              	HAL_SD_TxCpltCallback:
 1003              	.LVL68:
 1004              	.LFB156:
 475:FATFS/Target/bsp_driver_sd.c ****   BSP_SD_WriteCpltCallback();
 1005              		.loc 1 475 1 view -0
 1006              		.cfi_startproc
 1007              		@ args = 0, pretend = 0, frame = 0
 1008              		@ frame_needed = 0, uses_anonymous_args = 0
 475:FATFS/Target/bsp_driver_sd.c ****   BSP_SD_WriteCpltCallback();
 1009              		.loc 1 475 1 is_stmt 0 view .LVU235
 1010 0000 08B5     		push	{r3, lr}
 1011              		.cfi_def_cfa_offset 8
 1012              		.cfi_offset 3, -8
 1013              		.cfi_offset 14, -4
 476:FATFS/Target/bsp_driver_sd.c **** }
 1014              		.loc 1 476 3 is_stmt 1 view .LVU236
 1015 0002 FFF7FEFF 		bl	BSP_SD_WriteCpltCallback
 1016              	.LVL69:
ARM GAS  /var/folders/n6/c271nzx11xl4r4_m7sqjlt0m0000gn/T//cc5HVXC8.s 			page 28


 477:FATFS/Target/bsp_driver_sd.c **** 
 1017              		.loc 1 477 1 is_stmt 0 view .LVU237
 1018 0006 08BD     		pop	{r3, pc}
 1019              		.cfi_endproc
 1020              	.LFE156:
 1022              		.section	.text.BSP_SD_ReadCpltCallback,"ax",%progbits
 1023              		.align	1
 1024              		.weak	BSP_SD_ReadCpltCallback
 1025              		.syntax unified
 1026              		.thumb
 1027              		.thumb_func
 1029              	BSP_SD_ReadCpltCallback:
 1030              	.LFB160:
 504:FATFS/Target/bsp_driver_sd.c **** 
 505:FATFS/Target/bsp_driver_sd.c **** /**
 506:FATFS/Target/bsp_driver_sd.c ****  * @brief BSP Rx Transfer completed callbacks
 507:FATFS/Target/bsp_driver_sd.c ****  * @retval None
 508:FATFS/Target/bsp_driver_sd.c ****  */
 509:FATFS/Target/bsp_driver_sd.c **** __weak void BSP_SD_ReadCpltCallback(void)
 510:FATFS/Target/bsp_driver_sd.c **** {
 1031              		.loc 1 510 1 is_stmt 1 view -0
 1032              		.cfi_startproc
 1033              		@ args = 0, pretend = 0, frame = 0
 1034              		@ frame_needed = 0, uses_anonymous_args = 0
 1035              		@ link register save eliminated.
 511:FATFS/Target/bsp_driver_sd.c **** }
 1036              		.loc 1 511 1 view .LVU239
 1037 0000 7047     		bx	lr
 1038              		.cfi_endproc
 1039              	.LFE160:
 1041              		.section	.text.HAL_SD_RxCpltCallback,"ax",%progbits
 1042              		.align	1
 1043              		.global	HAL_SD_RxCpltCallback
 1044              		.syntax unified
 1045              		.thumb
 1046              		.thumb_func
 1048              	HAL_SD_RxCpltCallback:
 1049              	.LVL70:
 1050              	.LFB157:
 485:FATFS/Target/bsp_driver_sd.c ****   BSP_SD_ReadCpltCallback();
 1051              		.loc 1 485 1 view -0
 1052              		.cfi_startproc
 1053              		@ args = 0, pretend = 0, frame = 0
 1054              		@ frame_needed = 0, uses_anonymous_args = 0
 485:FATFS/Target/bsp_driver_sd.c ****   BSP_SD_ReadCpltCallback();
 1055              		.loc 1 485 1 is_stmt 0 view .LVU241
 1056 0000 08B5     		push	{r3, lr}
 1057              		.cfi_def_cfa_offset 8
 1058              		.cfi_offset 3, -8
 1059              		.cfi_offset 14, -4
 486:FATFS/Target/bsp_driver_sd.c **** }
 1060              		.loc 1 486 3 is_stmt 1 view .LVU242
 1061 0002 FFF7FEFF 		bl	BSP_SD_ReadCpltCallback
 1062              	.LVL71:
 487:FATFS/Target/bsp_driver_sd.c **** 
 1063              		.loc 1 487 1 is_stmt 0 view .LVU243
 1064 0006 08BD     		pop	{r3, pc}
ARM GAS  /var/folders/n6/c271nzx11xl4r4_m7sqjlt0m0000gn/T//cc5HVXC8.s 			page 29


 1065              		.cfi_endproc
 1066              	.LFE157:
 1068              		.section	.bss.dma_tx_handle.0,"aw",%nobits
 1069              		.align	2
 1072              	dma_tx_handle.0:
 1073 0000 00000000 		.space	96
 1073      00000000 
 1073      00000000 
 1073      00000000 
 1073      00000000 
 1074              		.section	.bss.dma_rx_handle.1,"aw",%nobits
 1075              		.align	2
 1078              	dma_rx_handle.1:
 1079 0000 00000000 		.space	96
 1079      00000000 
 1079      00000000 
 1079      00000000 
 1079      00000000 
 1080              		.global	uSdHandle
 1081              		.section	.bss.uSdHandle,"aw",%nobits
 1082              		.align	2
 1085              	uSdHandle:
 1086 0000 00000000 		.space	132
 1086      00000000 
 1086      00000000 
 1086      00000000 
 1086      00000000 
 1087              		.text
 1088              	.Letext0:
 1089              		.file 2 "Drivers/CMSIS/Device/ST/STM32F7xx/Include/stm32f769xx.h"
 1090              		.file 3 "/Users/killian/Library/Application Support/Code/User/globalStorage/bmd.stm32-for-vscode/@
 1091              		.file 4 "/Users/killian/Library/Application Support/Code/User/globalStorage/bmd.stm32-for-vscode/@
 1092              		.file 5 "Drivers/STM32F7xx_HAL_Driver/Inc/stm32f7xx_hal_def.h"
 1093              		.file 6 "Drivers/STM32F7xx_HAL_Driver/Inc/stm32f7xx_hal_gpio.h"
 1094              		.file 7 "Drivers/STM32F7xx_HAL_Driver/Inc/stm32f7xx_hal_dma.h"
 1095              		.file 8 "Drivers/STM32F7xx_HAL_Driver/Inc/stm32f7xx_ll_sdmmc.h"
 1096              		.file 9 "Drivers/STM32F7xx_HAL_Driver/Inc/stm32f7xx_hal_sd.h"
 1097              		.file 10 "Drivers/STM32F7xx_HAL_Driver/Inc/stm32f7xx_hal_cortex.h"
ARM GAS  /var/folders/n6/c271nzx11xl4r4_m7sqjlt0m0000gn/T//cc5HVXC8.s 			page 30

