ARM GAS  /var/folders/n6/c271nzx11xl4r4_m7sqjlt0m0000gn/T//cckOlhJn.s 			page 1


   1              		.cpu cortex-m7
   2              		.arch armv7e-m
   3              		.fpu fpv5-d16
   4              		.eabi_attribute 28, 1
   5              		.eabi_attribute 20, 1
   6              		.eabi_attribute 21, 1
   7              		.eabi_attribute 23, 3
   8              		.eabi_attribute 24, 1
   9              		.eabi_attribute 25, 1
  10              		.eabi_attribute 26, 1
  11              		.eabi_attribute 30, 1
  12              		.eabi_attribute 34, 1
  13              		.eabi_attribute 18, 4
  14              		.file	"dp83848.c"
  15              		.text
  16              	.Ltext0:
  17              		.cfi_sections	.debug_frame
  18              		.file 1 "Drivers/BSP/Components/dp83848/dp83848.c"
  19              		.section	.text.DP83848_RegisterBusIO,"ax",%progbits
  20              		.align	1
  21              		.global	DP83848_RegisterBusIO
  22              		.syntax unified
  23              		.thumb
  24              		.thumb_func
  26              	DP83848_RegisterBusIO:
  27              	.LVL0:
  28              	.LFB0:
   1:Drivers/BSP/Components/dp83848/dp83848.c **** /**
   2:Drivers/BSP/Components/dp83848/dp83848.c ****   ******************************************************************************
   3:Drivers/BSP/Components/dp83848/dp83848.c ****   * @file    dp83848.c
   4:Drivers/BSP/Components/dp83848/dp83848.c ****   * @author  MCD Application Team
   5:Drivers/BSP/Components/dp83848/dp83848.c ****   * @brief   This file provides a set of functions needed to manage the DP83848
   6:Drivers/BSP/Components/dp83848/dp83848.c ****   *          PHY devices.
   7:Drivers/BSP/Components/dp83848/dp83848.c ****   ******************************************************************************
   8:Drivers/BSP/Components/dp83848/dp83848.c ****   * @attention
   9:Drivers/BSP/Components/dp83848/dp83848.c ****   *
  10:Drivers/BSP/Components/dp83848/dp83848.c ****   * Copyright (c) 2021 STMicroelectronics.
  11:Drivers/BSP/Components/dp83848/dp83848.c ****   * All rights reserved.
  12:Drivers/BSP/Components/dp83848/dp83848.c ****   *
  13:Drivers/BSP/Components/dp83848/dp83848.c ****   * This software is licensed under terms that can be found in the LICENSE file
  14:Drivers/BSP/Components/dp83848/dp83848.c ****   * in the root directory of this software component.
  15:Drivers/BSP/Components/dp83848/dp83848.c ****   * If no LICENSE file comes with this software, it is provided AS-IS.
  16:Drivers/BSP/Components/dp83848/dp83848.c ****   *
  17:Drivers/BSP/Components/dp83848/dp83848.c ****   ******************************************************************************
  18:Drivers/BSP/Components/dp83848/dp83848.c ****   */
  19:Drivers/BSP/Components/dp83848/dp83848.c **** 
  20:Drivers/BSP/Components/dp83848/dp83848.c **** /* Includes ------------------------------------------------------------------*/
  21:Drivers/BSP/Components/dp83848/dp83848.c **** #include "dp83848.h"
  22:Drivers/BSP/Components/dp83848/dp83848.c **** 
  23:Drivers/BSP/Components/dp83848/dp83848.c **** /** @addtogroup BSP
  24:Drivers/BSP/Components/dp83848/dp83848.c ****   * @{
  25:Drivers/BSP/Components/dp83848/dp83848.c ****   */
  26:Drivers/BSP/Components/dp83848/dp83848.c **** 
  27:Drivers/BSP/Components/dp83848/dp83848.c **** /** @addtogroup Component
  28:Drivers/BSP/Components/dp83848/dp83848.c ****   * @{
  29:Drivers/BSP/Components/dp83848/dp83848.c ****   */
  30:Drivers/BSP/Components/dp83848/dp83848.c **** 
ARM GAS  /var/folders/n6/c271nzx11xl4r4_m7sqjlt0m0000gn/T//cckOlhJn.s 			page 2


  31:Drivers/BSP/Components/dp83848/dp83848.c **** /** @defgroup DP83848 DP83848
  32:Drivers/BSP/Components/dp83848/dp83848.c ****   * @{
  33:Drivers/BSP/Components/dp83848/dp83848.c ****   */
  34:Drivers/BSP/Components/dp83848/dp83848.c **** 
  35:Drivers/BSP/Components/dp83848/dp83848.c **** /* Private typedef -----------------------------------------------------------*/
  36:Drivers/BSP/Components/dp83848/dp83848.c **** /* Private define ------------------------------------------------------------*/
  37:Drivers/BSP/Components/dp83848/dp83848.c **** /** @defgroup DP83848_Private_Defines DP83848 Private Defines
  38:Drivers/BSP/Components/dp83848/dp83848.c ****   * @{
  39:Drivers/BSP/Components/dp83848/dp83848.c ****   */
  40:Drivers/BSP/Components/dp83848/dp83848.c **** #define DP83848_MAX_DEV_ADDR   ((uint32_t)31U)
  41:Drivers/BSP/Components/dp83848/dp83848.c **** /**
  42:Drivers/BSP/Components/dp83848/dp83848.c ****   * @}
  43:Drivers/BSP/Components/dp83848/dp83848.c ****   */
  44:Drivers/BSP/Components/dp83848/dp83848.c **** 
  45:Drivers/BSP/Components/dp83848/dp83848.c **** /* Private macro -------------------------------------------------------------*/
  46:Drivers/BSP/Components/dp83848/dp83848.c **** /* Private variables ---------------------------------------------------------*/
  47:Drivers/BSP/Components/dp83848/dp83848.c **** /* Private function prototypes -----------------------------------------------*/
  48:Drivers/BSP/Components/dp83848/dp83848.c **** /* Private functions ---------------------------------------------------------*/
  49:Drivers/BSP/Components/dp83848/dp83848.c **** /** @defgroup DP83848_Private_Functions DP83848 Private Functions
  50:Drivers/BSP/Components/dp83848/dp83848.c ****   * @{
  51:Drivers/BSP/Components/dp83848/dp83848.c ****   */
  52:Drivers/BSP/Components/dp83848/dp83848.c **** 
  53:Drivers/BSP/Components/dp83848/dp83848.c **** /**
  54:Drivers/BSP/Components/dp83848/dp83848.c ****   * @brief  Register IO functions to component object
  55:Drivers/BSP/Components/dp83848/dp83848.c ****   * @param  pObj: device object  of DP83848_Object_t.
  56:Drivers/BSP/Components/dp83848/dp83848.c ****   * @param  ioctx: holds device IO functions.
  57:Drivers/BSP/Components/dp83848/dp83848.c ****   * @retval DP83848_STATUS_OK  if OK
  58:Drivers/BSP/Components/dp83848/dp83848.c ****   *         DP83848_STATUS_ERROR if missing mandatory function
  59:Drivers/BSP/Components/dp83848/dp83848.c ****   */
  60:Drivers/BSP/Components/dp83848/dp83848.c **** int32_t  DP83848_RegisterBusIO(dp83848_Object_t *pObj, dp83848_IOCtx_t *ioctx)
  61:Drivers/BSP/Components/dp83848/dp83848.c **** {
  29              		.loc 1 61 1 view -0
  30              		.cfi_startproc
  31              		@ args = 0, pretend = 0, frame = 0
  32              		@ frame_needed = 0, uses_anonymous_args = 0
  33              		@ link register save eliminated.
  62:Drivers/BSP/Components/dp83848/dp83848.c ****   if(!pObj || !ioctx->ReadReg || !ioctx->WriteReg || !ioctx->GetTick)
  34              		.loc 1 62 3 view .LVU1
  35              		.loc 1 62 5 is_stmt 0 view .LVU2
  36 0000 88B1     		cbz	r0, .L3
  37              		.loc 1 62 21 discriminator 1 view .LVU3
  38 0002 CA68     		ldr	r2, [r1, #12]
  39              		.loc 1 62 12 discriminator 1 view .LVU4
  40 0004 92B1     		cbz	r2, .L4
  41              		.loc 1 62 40 discriminator 2 view .LVU5
  42 0006 8A68     		ldr	r2, [r1, #8]
  43              		.loc 1 62 31 discriminator 2 view .LVU6
  44 0008 9AB1     		cbz	r2, .L5
  45              		.loc 1 62 60 discriminator 3 view .LVU7
  46 000a 0A69     		ldr	r2, [r1, #16]
  47              		.loc 1 62 51 discriminator 3 view .LVU8
  48 000c A2B1     		cbz	r2, .L6
  63:Drivers/BSP/Components/dp83848/dp83848.c ****   {
  64:Drivers/BSP/Components/dp83848/dp83848.c ****     return DP83848_STATUS_ERROR;
  65:Drivers/BSP/Components/dp83848/dp83848.c ****   }
  66:Drivers/BSP/Components/dp83848/dp83848.c **** 
  67:Drivers/BSP/Components/dp83848/dp83848.c ****   pObj->IO.Init = ioctx->Init;
ARM GAS  /var/folders/n6/c271nzx11xl4r4_m7sqjlt0m0000gn/T//cckOlhJn.s 			page 3


  49              		.loc 1 67 3 is_stmt 1 view .LVU9
  50              		.loc 1 67 24 is_stmt 0 view .LVU10
  51 000e 0A68     		ldr	r2, [r1]
  52              		.loc 1 67 17 view .LVU11
  53 0010 8260     		str	r2, [r0, #8]
  68:Drivers/BSP/Components/dp83848/dp83848.c ****   pObj->IO.DeInit = ioctx->DeInit;
  54              		.loc 1 68 3 is_stmt 1 view .LVU12
  55              		.loc 1 68 26 is_stmt 0 view .LVU13
  56 0012 4A68     		ldr	r2, [r1, #4]
  57              		.loc 1 68 19 view .LVU14
  58 0014 C260     		str	r2, [r0, #12]
  69:Drivers/BSP/Components/dp83848/dp83848.c ****   pObj->IO.ReadReg = ioctx->ReadReg;
  59              		.loc 1 69 3 is_stmt 1 view .LVU15
  60              		.loc 1 69 27 is_stmt 0 view .LVU16
  61 0016 CA68     		ldr	r2, [r1, #12]
  62              		.loc 1 69 20 view .LVU17
  63 0018 4261     		str	r2, [r0, #20]
  70:Drivers/BSP/Components/dp83848/dp83848.c ****   pObj->IO.WriteReg = ioctx->WriteReg;
  64              		.loc 1 70 3 is_stmt 1 view .LVU18
  65              		.loc 1 70 28 is_stmt 0 view .LVU19
  66 001a 8A68     		ldr	r2, [r1, #8]
  67              		.loc 1 70 21 view .LVU20
  68 001c 0261     		str	r2, [r0, #16]
  71:Drivers/BSP/Components/dp83848/dp83848.c ****   pObj->IO.GetTick = ioctx->GetTick;
  69              		.loc 1 71 3 is_stmt 1 view .LVU21
  70              		.loc 1 71 27 is_stmt 0 view .LVU22
  71 001e 0A69     		ldr	r2, [r1, #16]
  72              		.loc 1 71 20 view .LVU23
  73 0020 8261     		str	r2, [r0, #24]
  72:Drivers/BSP/Components/dp83848/dp83848.c **** 
  73:Drivers/BSP/Components/dp83848/dp83848.c ****   return DP83848_STATUS_OK;
  74              		.loc 1 73 3 is_stmt 1 view .LVU24
  75              		.loc 1 73 10 is_stmt 0 view .LVU25
  76 0022 0020     		movs	r0, #0
  77              	.LVL1:
  78              		.loc 1 73 10 view .LVU26
  79 0024 7047     		bx	lr
  80              	.LVL2:
  81              	.L3:
  64:Drivers/BSP/Components/dp83848/dp83848.c ****   }
  82              		.loc 1 64 12 view .LVU27
  83 0026 4FF0FF30 		mov	r0, #-1
  84              	.LVL3:
  64:Drivers/BSP/Components/dp83848/dp83848.c ****   }
  85              		.loc 1 64 12 view .LVU28
  86 002a 7047     		bx	lr
  87              	.LVL4:
  88              	.L4:
  64:Drivers/BSP/Components/dp83848/dp83848.c ****   }
  89              		.loc 1 64 12 view .LVU29
  90 002c 4FF0FF30 		mov	r0, #-1
  91              	.LVL5:
  64:Drivers/BSP/Components/dp83848/dp83848.c ****   }
  92              		.loc 1 64 12 view .LVU30
  93 0030 7047     		bx	lr
  94              	.LVL6:
  95              	.L5:
ARM GAS  /var/folders/n6/c271nzx11xl4r4_m7sqjlt0m0000gn/T//cckOlhJn.s 			page 4


  64:Drivers/BSP/Components/dp83848/dp83848.c ****   }
  96              		.loc 1 64 12 view .LVU31
  97 0032 4FF0FF30 		mov	r0, #-1
  98              	.LVL7:
  64:Drivers/BSP/Components/dp83848/dp83848.c ****   }
  99              		.loc 1 64 12 view .LVU32
 100 0036 7047     		bx	lr
 101              	.LVL8:
 102              	.L6:
  64:Drivers/BSP/Components/dp83848/dp83848.c ****   }
 103              		.loc 1 64 12 view .LVU33
 104 0038 4FF0FF30 		mov	r0, #-1
 105              	.LVL9:
  74:Drivers/BSP/Components/dp83848/dp83848.c **** }
 106              		.loc 1 74 1 view .LVU34
 107 003c 7047     		bx	lr
 108              		.cfi_endproc
 109              	.LFE0:
 111              		.section	.text.DP83848_Init,"ax",%progbits
 112              		.align	1
 113              		.global	DP83848_Init
 114              		.syntax unified
 115              		.thumb
 116              		.thumb_func
 118              	DP83848_Init:
 119              	.LVL10:
 120              	.LFB1:
  75:Drivers/BSP/Components/dp83848/dp83848.c **** 
  76:Drivers/BSP/Components/dp83848/dp83848.c **** /**
  77:Drivers/BSP/Components/dp83848/dp83848.c ****   * @brief  Initialize the DP83848 and configure the needed hardware resources
  78:Drivers/BSP/Components/dp83848/dp83848.c ****   * @param  pObj: device object DP83848_Object_t.
  79:Drivers/BSP/Components/dp83848/dp83848.c ****   * @retval DP83848_STATUS_OK  if OK
  80:Drivers/BSP/Components/dp83848/dp83848.c ****   *         DP83848_STATUS_ADDRESS_ERROR if cannot find device address
  81:Drivers/BSP/Components/dp83848/dp83848.c ****   *         DP83848_STATUS_READ_ERROR if connot read register
  82:Drivers/BSP/Components/dp83848/dp83848.c ****   */
  83:Drivers/BSP/Components/dp83848/dp83848.c ****  int32_t DP83848_Init(dp83848_Object_t *pObj)
  84:Drivers/BSP/Components/dp83848/dp83848.c ****  {
 121              		.loc 1 84 2 is_stmt 1 view -0
 122              		.cfi_startproc
 123              		@ args = 0, pretend = 0, frame = 8
 124              		@ frame_needed = 0, uses_anonymous_args = 0
 125              		.loc 1 84 2 is_stmt 0 view .LVU36
 126 0000 70B5     		push	{r4, r5, r6, lr}
 127              		.cfi_def_cfa_offset 16
 128              		.cfi_offset 4, -16
 129              		.cfi_offset 5, -12
 130              		.cfi_offset 6, -8
 131              		.cfi_offset 14, -4
 132 0002 82B0     		sub	sp, sp, #8
 133              		.cfi_def_cfa_offset 24
  85:Drivers/BSP/Components/dp83848/dp83848.c ****    uint32_t regvalue = 0, addr = 0;
 134              		.loc 1 85 4 is_stmt 1 view .LVU37
 135              		.loc 1 85 13 is_stmt 0 view .LVU38
 136 0004 0023     		movs	r3, #0
 137 0006 0193     		str	r3, [sp, #4]
 138              	.LVL11:
  86:Drivers/BSP/Components/dp83848/dp83848.c ****    int32_t status = DP83848_STATUS_OK;
ARM GAS  /var/folders/n6/c271nzx11xl4r4_m7sqjlt0m0000gn/T//cckOlhJn.s 			page 5


 139              		.loc 1 86 4 is_stmt 1 view .LVU39
  87:Drivers/BSP/Components/dp83848/dp83848.c **** 
  88:Drivers/BSP/Components/dp83848/dp83848.c ****    if(pObj->Is_Initialized == 0)
 140              		.loc 1 88 4 view .LVU40
 141              		.loc 1 88 11 is_stmt 0 view .LVU41
 142 0008 4468     		ldr	r4, [r0, #4]
 143              		.loc 1 88 6 view .LVU42
 144 000a 0CBB     		cbnz	r4, .L14
 145 000c 0546     		mov	r5, r0
  89:Drivers/BSP/Components/dp83848/dp83848.c ****    {
  90:Drivers/BSP/Components/dp83848/dp83848.c ****      if(pObj->IO.Init != 0)
 146              		.loc 1 90 6 is_stmt 1 view .LVU43
 147              		.loc 1 90 17 is_stmt 0 view .LVU44
 148 000e 8368     		ldr	r3, [r0, #8]
 149              		.loc 1 90 8 view .LVU45
 150 0010 03B1     		cbz	r3, .L9
  91:Drivers/BSP/Components/dp83848/dp83848.c ****      {
  92:Drivers/BSP/Components/dp83848/dp83848.c ****        /* GPIO and Clocks initialization */
  93:Drivers/BSP/Components/dp83848/dp83848.c ****        pObj->IO.Init();
 151              		.loc 1 93 8 is_stmt 1 view .LVU46
 152 0012 9847     		blx	r3
 153              	.LVL12:
 154              	.L9:
  94:Drivers/BSP/Components/dp83848/dp83848.c ****      }
  95:Drivers/BSP/Components/dp83848/dp83848.c **** 
  96:Drivers/BSP/Components/dp83848/dp83848.c ****      /* for later check */
  97:Drivers/BSP/Components/dp83848/dp83848.c ****      pObj->DevAddr = DP83848_MAX_DEV_ADDR + 1;
 155              		.loc 1 97 6 view .LVU47
 156              		.loc 1 97 20 is_stmt 0 view .LVU48
 157 0014 2023     		movs	r3, #32
 158 0016 2B60     		str	r3, [r5]
  98:Drivers/BSP/Components/dp83848/dp83848.c **** 
  99:Drivers/BSP/Components/dp83848/dp83848.c ****      /* Get the device address from special mode register */
 100:Drivers/BSP/Components/dp83848/dp83848.c ****      for(addr = 0; addr <= DP83848_MAX_DEV_ADDR; addr ++)
 159              		.loc 1 100 6 is_stmt 1 view .LVU49
  86:Drivers/BSP/Components/dp83848/dp83848.c **** 
 160              		.loc 1 86 12 is_stmt 0 view .LVU50
 161 0018 0026     		movs	r6, #0
 162              		.loc 1 100 6 view .LVU51
 163 001a 02E0     		b	.L10
 164              	.LVL13:
 165              	.L15:
 101:Drivers/BSP/Components/dp83848/dp83848.c ****      {
 102:Drivers/BSP/Components/dp83848/dp83848.c ****        if(pObj->IO.ReadReg(addr, DP83848_SMR, &regvalue) < 0)
 103:Drivers/BSP/Components/dp83848/dp83848.c ****        {
 104:Drivers/BSP/Components/dp83848/dp83848.c ****          status = DP83848_STATUS_READ_ERROR;
 166              		.loc 1 104 17 view .LVU52
 167 001c 6FF00406 		mvn	r6, #4
 168              	.LVL14:
 169              	.L11:
 100:Drivers/BSP/Components/dp83848/dp83848.c ****      {
 170              		.loc 1 100 55 is_stmt 1 discriminator 2 view .LVU53
 171 0020 0134     		adds	r4, r4, #1
 172              	.LVL15:
 173              	.L10:
 100:Drivers/BSP/Components/dp83848/dp83848.c ****      {
 174              		.loc 1 100 25 discriminator 1 view .LVU54
ARM GAS  /var/folders/n6/c271nzx11xl4r4_m7sqjlt0m0000gn/T//cckOlhJn.s 			page 6


 175 0022 1F2C     		cmp	r4, #31
 176 0024 0DD8     		bhi	.L12
 102:Drivers/BSP/Components/dp83848/dp83848.c ****        {
 177              		.loc 1 102 8 view .LVU55
 102:Drivers/BSP/Components/dp83848/dp83848.c ****        {
 178              		.loc 1 102 19 is_stmt 0 view .LVU56
 179 0026 6B69     		ldr	r3, [r5, #20]
 102:Drivers/BSP/Components/dp83848/dp83848.c ****        {
 180              		.loc 1 102 11 view .LVU57
 181 0028 01AA     		add	r2, sp, #4
 182 002a 1921     		movs	r1, #25
 183 002c 2046     		mov	r0, r4
 184 002e 9847     		blx	r3
 185              	.LVL16:
 102:Drivers/BSP/Components/dp83848/dp83848.c ****        {
 186              		.loc 1 102 10 discriminator 1 view .LVU58
 187 0030 0028     		cmp	r0, #0
 188 0032 F3DB     		blt	.L15
 105:Drivers/BSP/Components/dp83848/dp83848.c ****          /* Can't read from this device address
 106:Drivers/BSP/Components/dp83848/dp83848.c ****             continue with next address */
 107:Drivers/BSP/Components/dp83848/dp83848.c ****          continue;
 108:Drivers/BSP/Components/dp83848/dp83848.c ****        }
 109:Drivers/BSP/Components/dp83848/dp83848.c **** 
 110:Drivers/BSP/Components/dp83848/dp83848.c ****        if((regvalue & DP83848_SMR_PHY_ADDR) == addr)
 189              		.loc 1 110 8 is_stmt 1 view .LVU59
 190              		.loc 1 110 21 is_stmt 0 view .LVU60
 191 0034 019B     		ldr	r3, [sp, #4]
 192 0036 03F01F03 		and	r3, r3, #31
 193              		.loc 1 110 10 view .LVU61
 194 003a A342     		cmp	r3, r4
 195 003c F0D1     		bne	.L11
 111:Drivers/BSP/Components/dp83848/dp83848.c ****        {
 112:Drivers/BSP/Components/dp83848/dp83848.c ****          pObj->DevAddr = addr;
 196              		.loc 1 112 10 is_stmt 1 view .LVU62
 197              		.loc 1 112 24 is_stmt 0 view .LVU63
 198 003e 2C60     		str	r4, [r5]
 113:Drivers/BSP/Components/dp83848/dp83848.c ****          status = DP83848_STATUS_OK;
 199              		.loc 1 113 10 is_stmt 1 view .LVU64
 200              	.LVL17:
 114:Drivers/BSP/Components/dp83848/dp83848.c ****          break;
 201              		.loc 1 114 10 view .LVU65
 113:Drivers/BSP/Components/dp83848/dp83848.c ****          status = DP83848_STATUS_OK;
 202              		.loc 1 113 17 is_stmt 0 view .LVU66
 203 0040 0026     		movs	r6, #0
 204              	.LVL18:
 205              	.L12:
 115:Drivers/BSP/Components/dp83848/dp83848.c ****        }
 116:Drivers/BSP/Components/dp83848/dp83848.c ****      }
 117:Drivers/BSP/Components/dp83848/dp83848.c **** 
 118:Drivers/BSP/Components/dp83848/dp83848.c ****      if(pObj->DevAddr > DP83848_MAX_DEV_ADDR)
 206              		.loc 1 118 6 is_stmt 1 view .LVU67
 207              		.loc 1 118 13 is_stmt 0 view .LVU68
 208 0042 2B68     		ldr	r3, [r5]
 209              		.loc 1 118 8 view .LVU69
 210 0044 1F2B     		cmp	r3, #31
 211 0046 07D8     		bhi	.L16
 119:Drivers/BSP/Components/dp83848/dp83848.c ****      {
ARM GAS  /var/folders/n6/c271nzx11xl4r4_m7sqjlt0m0000gn/T//cckOlhJn.s 			page 7


 120:Drivers/BSP/Components/dp83848/dp83848.c ****        status = DP83848_STATUS_ADDRESS_ERROR;
 121:Drivers/BSP/Components/dp83848/dp83848.c ****      }
 122:Drivers/BSP/Components/dp83848/dp83848.c **** 
 123:Drivers/BSP/Components/dp83848/dp83848.c ****      /* if device address is matched */
 124:Drivers/BSP/Components/dp83848/dp83848.c ****      if(status == DP83848_STATUS_OK)
 212              		.loc 1 124 6 is_stmt 1 view .LVU70
 213              		.loc 1 124 8 is_stmt 0 view .LVU71
 214 0048 1EB9     		cbnz	r6, .L7
 125:Drivers/BSP/Components/dp83848/dp83848.c ****      {
 126:Drivers/BSP/Components/dp83848/dp83848.c ****        pObj->Is_Initialized = 1;
 215              		.loc 1 126 8 is_stmt 1 view .LVU72
 216              		.loc 1 126 29 is_stmt 0 view .LVU73
 217 004a 0123     		movs	r3, #1
 218 004c 6B60     		str	r3, [r5, #4]
 219 004e 00E0     		b	.L7
 220              	.LVL19:
 221              	.L14:
  86:Drivers/BSP/Components/dp83848/dp83848.c **** 
 222              		.loc 1 86 12 view .LVU74
 223 0050 0026     		movs	r6, #0
 224              	.LVL20:
 225              	.L7:
 127:Drivers/BSP/Components/dp83848/dp83848.c ****      }
 128:Drivers/BSP/Components/dp83848/dp83848.c ****    }
 129:Drivers/BSP/Components/dp83848/dp83848.c **** 
 130:Drivers/BSP/Components/dp83848/dp83848.c ****    return status;
 131:Drivers/BSP/Components/dp83848/dp83848.c ****  }
 226              		.loc 1 131 2 view .LVU75
 227 0052 3046     		mov	r0, r6
 228 0054 02B0     		add	sp, sp, #8
 229              		.cfi_remember_state
 230              		.cfi_def_cfa_offset 16
 231              		@ sp needed
 232 0056 70BD     		pop	{r4, r5, r6, pc}
 233              	.LVL21:
 234              	.L16:
 235              		.cfi_restore_state
 120:Drivers/BSP/Components/dp83848/dp83848.c ****      }
 236              		.loc 1 120 15 view .LVU76
 237 0058 6FF00206 		mvn	r6, #2
 238              	.LVL22:
 130:Drivers/BSP/Components/dp83848/dp83848.c ****  }
 239              		.loc 1 130 4 is_stmt 1 view .LVU77
 130:Drivers/BSP/Components/dp83848/dp83848.c ****  }
 240              		.loc 1 130 11 is_stmt 0 view .LVU78
 241 005c F9E7     		b	.L7
 242              		.cfi_endproc
 243              	.LFE1:
 245              		.section	.text.DP83848_DeInit,"ax",%progbits
 246              		.align	1
 247              		.global	DP83848_DeInit
 248              		.syntax unified
 249              		.thumb
 250              		.thumb_func
 252              	DP83848_DeInit:
 253              	.LVL23:
 254              	.LFB2:
ARM GAS  /var/folders/n6/c271nzx11xl4r4_m7sqjlt0m0000gn/T//cckOlhJn.s 			page 8


 132:Drivers/BSP/Components/dp83848/dp83848.c **** 
 133:Drivers/BSP/Components/dp83848/dp83848.c **** /**
 134:Drivers/BSP/Components/dp83848/dp83848.c ****   * @brief  De-Initialize the dp83848 and it's hardware resources
 135:Drivers/BSP/Components/dp83848/dp83848.c ****   * @param  pObj: device object DP83848_Object_t.
 136:Drivers/BSP/Components/dp83848/dp83848.c ****   * @retval None
 137:Drivers/BSP/Components/dp83848/dp83848.c ****   */
 138:Drivers/BSP/Components/dp83848/dp83848.c **** int32_t DP83848_DeInit(dp83848_Object_t *pObj)
 139:Drivers/BSP/Components/dp83848/dp83848.c **** {
 255              		.loc 1 139 1 is_stmt 1 view -0
 256              		.cfi_startproc
 257              		@ args = 0, pretend = 0, frame = 0
 258              		@ frame_needed = 0, uses_anonymous_args = 0
 140:Drivers/BSP/Components/dp83848/dp83848.c ****   if(pObj->Is_Initialized)
 259              		.loc 1 140 3 view .LVU80
 260              		.loc 1 140 10 is_stmt 0 view .LVU81
 261 0000 4368     		ldr	r3, [r0, #4]
 262              		.loc 1 140 5 view .LVU82
 263 0002 4BB1     		cbz	r3, .L21
 139:Drivers/BSP/Components/dp83848/dp83848.c ****   if(pObj->Is_Initialized)
 264              		.loc 1 139 1 view .LVU83
 265 0004 10B5     		push	{r4, lr}
 266              		.cfi_def_cfa_offset 8
 267              		.cfi_offset 4, -8
 268              		.cfi_offset 14, -4
 269 0006 0446     		mov	r4, r0
 141:Drivers/BSP/Components/dp83848/dp83848.c ****   {
 142:Drivers/BSP/Components/dp83848/dp83848.c ****     if(pObj->IO.DeInit != 0)
 270              		.loc 1 142 5 is_stmt 1 view .LVU84
 271              		.loc 1 142 16 is_stmt 0 view .LVU85
 272 0008 C368     		ldr	r3, [r0, #12]
 273              		.loc 1 142 7 view .LVU86
 274 000a 13B1     		cbz	r3, .L20
 143:Drivers/BSP/Components/dp83848/dp83848.c ****     {
 144:Drivers/BSP/Components/dp83848/dp83848.c ****       if(pObj->IO.DeInit() < 0)
 275              		.loc 1 144 7 is_stmt 1 view .LVU87
 276              		.loc 1 144 10 is_stmt 0 view .LVU88
 277 000c 9847     		blx	r3
 278              	.LVL24:
 279              		.loc 1 144 9 discriminator 1 view .LVU89
 280 000e 0028     		cmp	r0, #0
 281 0010 04DB     		blt	.L22
 282              	.L20:
 145:Drivers/BSP/Components/dp83848/dp83848.c ****       {
 146:Drivers/BSP/Components/dp83848/dp83848.c ****         return DP83848_STATUS_ERROR;
 147:Drivers/BSP/Components/dp83848/dp83848.c ****       }
 148:Drivers/BSP/Components/dp83848/dp83848.c ****     }
 149:Drivers/BSP/Components/dp83848/dp83848.c **** 
 150:Drivers/BSP/Components/dp83848/dp83848.c ****     pObj->Is_Initialized = 0;
 283              		.loc 1 150 5 is_stmt 1 view .LVU90
 284              		.loc 1 150 26 is_stmt 0 view .LVU91
 285 0012 0020     		movs	r0, #0
 286 0014 6060     		str	r0, [r4, #4]
 287              	.L18:
 151:Drivers/BSP/Components/dp83848/dp83848.c ****   }
 152:Drivers/BSP/Components/dp83848/dp83848.c **** 
 153:Drivers/BSP/Components/dp83848/dp83848.c ****   return DP83848_STATUS_OK;
 154:Drivers/BSP/Components/dp83848/dp83848.c **** }
ARM GAS  /var/folders/n6/c271nzx11xl4r4_m7sqjlt0m0000gn/T//cckOlhJn.s 			page 9


 288              		.loc 1 154 1 view .LVU92
 289 0016 10BD     		pop	{r4, pc}
 290              	.LVL25:
 291              	.L21:
 292              		.cfi_def_cfa_offset 0
 293              		.cfi_restore 4
 294              		.cfi_restore 14
 153:Drivers/BSP/Components/dp83848/dp83848.c **** }
 295              		.loc 1 153 10 view .LVU93
 296 0018 0020     		movs	r0, #0
 297              	.LVL26:
 298              		.loc 1 154 1 view .LVU94
 299 001a 7047     		bx	lr
 300              	.LVL27:
 301              	.L22:
 302              		.cfi_def_cfa_offset 8
 303              		.cfi_offset 4, -8
 304              		.cfi_offset 14, -4
 146:Drivers/BSP/Components/dp83848/dp83848.c ****       }
 305              		.loc 1 146 16 view .LVU95
 306 001c 4FF0FF30 		mov	r0, #-1
 307 0020 F9E7     		b	.L18
 308              		.cfi_endproc
 309              	.LFE2:
 311              		.section	.text.DP83848_DisablePowerDownMode,"ax",%progbits
 312              		.align	1
 313              		.global	DP83848_DisablePowerDownMode
 314              		.syntax unified
 315              		.thumb
 316              		.thumb_func
 318              	DP83848_DisablePowerDownMode:
 319              	.LVL28:
 320              	.LFB3:
 155:Drivers/BSP/Components/dp83848/dp83848.c **** 
 156:Drivers/BSP/Components/dp83848/dp83848.c **** /**
 157:Drivers/BSP/Components/dp83848/dp83848.c ****   * @brief  Disable the DP83848 power down mode.
 158:Drivers/BSP/Components/dp83848/dp83848.c ****   * @param  pObj: device object DP83848_Object_t.
 159:Drivers/BSP/Components/dp83848/dp83848.c ****   * @retval DP83848_STATUS_OK  if OK
 160:Drivers/BSP/Components/dp83848/dp83848.c ****   *         DP83848_STATUS_READ_ERROR if connot read register
 161:Drivers/BSP/Components/dp83848/dp83848.c ****   *         DP83848_STATUS_WRITE_ERROR if connot write to register
 162:Drivers/BSP/Components/dp83848/dp83848.c ****   */
 163:Drivers/BSP/Components/dp83848/dp83848.c **** int32_t DP83848_DisablePowerDownMode(dp83848_Object_t *pObj)
 164:Drivers/BSP/Components/dp83848/dp83848.c **** {
 321              		.loc 1 164 1 is_stmt 1 view -0
 322              		.cfi_startproc
 323              		@ args = 0, pretend = 0, frame = 8
 324              		@ frame_needed = 0, uses_anonymous_args = 0
 325              		.loc 1 164 1 is_stmt 0 view .LVU97
 326 0000 10B5     		push	{r4, lr}
 327              		.cfi_def_cfa_offset 8
 328              		.cfi_offset 4, -8
 329              		.cfi_offset 14, -4
 330 0002 82B0     		sub	sp, sp, #8
 331              		.cfi_def_cfa_offset 16
 332 0004 0446     		mov	r4, r0
 165:Drivers/BSP/Components/dp83848/dp83848.c ****   uint32_t readval = 0;
 333              		.loc 1 165 3 is_stmt 1 view .LVU98
ARM GAS  /var/folders/n6/c271nzx11xl4r4_m7sqjlt0m0000gn/T//cckOlhJn.s 			page 10


 334              		.loc 1 165 12 is_stmt 0 view .LVU99
 335 0006 0021     		movs	r1, #0
 336 0008 0191     		str	r1, [sp, #4]
 166:Drivers/BSP/Components/dp83848/dp83848.c ****   int32_t status = DP83848_STATUS_OK;
 337              		.loc 1 166 3 is_stmt 1 view .LVU100
 338              	.LVL29:
 167:Drivers/BSP/Components/dp83848/dp83848.c **** 
 168:Drivers/BSP/Components/dp83848/dp83848.c ****   if(pObj->IO.ReadReg(pObj->DevAddr, DP83848_BCR, &readval) >= 0)
 339              		.loc 1 168 3 view .LVU101
 340              		.loc 1 168 14 is_stmt 0 view .LVU102
 341 000a 4369     		ldr	r3, [r0, #20]
 342              		.loc 1 168 6 view .LVU103
 343 000c 01AA     		add	r2, sp, #4
 344 000e 0068     		ldr	r0, [r0]
 345              	.LVL30:
 346              		.loc 1 168 6 view .LVU104
 347 0010 9847     		blx	r3
 348              	.LVL31:
 349              		.loc 1 168 5 discriminator 1 view .LVU105
 350 0012 0028     		cmp	r0, #0
 351 0014 0CDB     		blt	.L29
 169:Drivers/BSP/Components/dp83848/dp83848.c ****   {
 170:Drivers/BSP/Components/dp83848/dp83848.c ****     readval &= ~DP83848_BCR_POWER_DOWN;
 352              		.loc 1 170 5 is_stmt 1 view .LVU106
 353              		.loc 1 170 13 is_stmt 0 view .LVU107
 354 0016 019A     		ldr	r2, [sp, #4]
 355 0018 22F40062 		bic	r2, r2, #2048
 356 001c 0192     		str	r2, [sp, #4]
 171:Drivers/BSP/Components/dp83848/dp83848.c **** 
 172:Drivers/BSP/Components/dp83848/dp83848.c ****     /* Apply configuration */
 173:Drivers/BSP/Components/dp83848/dp83848.c ****     if(pObj->IO.WriteReg(pObj->DevAddr, DP83848_BCR, readval) < 0)
 357              		.loc 1 173 5 is_stmt 1 view .LVU108
 358              		.loc 1 173 16 is_stmt 0 view .LVU109
 359 001e 2369     		ldr	r3, [r4, #16]
 360              		.loc 1 173 8 view .LVU110
 361 0020 0021     		movs	r1, #0
 362 0022 2068     		ldr	r0, [r4]
 363 0024 9847     		blx	r3
 364              	.LVL32:
 365              		.loc 1 173 7 discriminator 1 view .LVU111
 366 0026 0028     		cmp	r0, #0
 367 0028 05DB     		blt	.L30
 166:Drivers/BSP/Components/dp83848/dp83848.c **** 
 368              		.loc 1 166 11 view .LVU112
 369 002a 0020     		movs	r0, #0
 370              	.LVL33:
 371              	.L27:
 174:Drivers/BSP/Components/dp83848/dp83848.c ****     {
 175:Drivers/BSP/Components/dp83848/dp83848.c ****       status =  DP83848_STATUS_WRITE_ERROR;
 176:Drivers/BSP/Components/dp83848/dp83848.c ****     }
 177:Drivers/BSP/Components/dp83848/dp83848.c ****   }
 178:Drivers/BSP/Components/dp83848/dp83848.c ****   else
 179:Drivers/BSP/Components/dp83848/dp83848.c ****   {
 180:Drivers/BSP/Components/dp83848/dp83848.c ****     status = DP83848_STATUS_READ_ERROR;
 181:Drivers/BSP/Components/dp83848/dp83848.c ****   }
 182:Drivers/BSP/Components/dp83848/dp83848.c **** 
 183:Drivers/BSP/Components/dp83848/dp83848.c ****   return status;
ARM GAS  /var/folders/n6/c271nzx11xl4r4_m7sqjlt0m0000gn/T//cckOlhJn.s 			page 11


 184:Drivers/BSP/Components/dp83848/dp83848.c **** }
 372              		.loc 1 184 1 view .LVU113
 373 002c 02B0     		add	sp, sp, #8
 374              		.cfi_remember_state
 375              		.cfi_def_cfa_offset 8
 376              		@ sp needed
 377 002e 10BD     		pop	{r4, pc}
 378              	.LVL34:
 379              	.L29:
 380              		.cfi_restore_state
 180:Drivers/BSP/Components/dp83848/dp83848.c ****   }
 381              		.loc 1 180 12 view .LVU114
 382 0030 6FF00400 		mvn	r0, #4
 383 0034 FAE7     		b	.L27
 384              	.L30:
 175:Drivers/BSP/Components/dp83848/dp83848.c ****     }
 385              		.loc 1 175 14 view .LVU115
 386 0036 6FF00300 		mvn	r0, #3
 387              	.LVL35:
 183:Drivers/BSP/Components/dp83848/dp83848.c **** }
 388              		.loc 1 183 3 is_stmt 1 view .LVU116
 183:Drivers/BSP/Components/dp83848/dp83848.c **** }
 389              		.loc 1 183 10 is_stmt 0 view .LVU117
 390 003a F7E7     		b	.L27
 391              		.cfi_endproc
 392              	.LFE3:
 394              		.section	.text.DP83848_EnablePowerDownMode,"ax",%progbits
 395              		.align	1
 396              		.global	DP83848_EnablePowerDownMode
 397              		.syntax unified
 398              		.thumb
 399              		.thumb_func
 401              	DP83848_EnablePowerDownMode:
 402              	.LVL36:
 403              	.LFB4:
 185:Drivers/BSP/Components/dp83848/dp83848.c **** 
 186:Drivers/BSP/Components/dp83848/dp83848.c **** /**
 187:Drivers/BSP/Components/dp83848/dp83848.c ****   * @brief  Enable the DP83848 power down mode.
 188:Drivers/BSP/Components/dp83848/dp83848.c ****   * @param  pObj: device object DP83848_Object_t.
 189:Drivers/BSP/Components/dp83848/dp83848.c ****   * @retval DP83848_STATUS_OK  if OK
 190:Drivers/BSP/Components/dp83848/dp83848.c ****   *         DP83848_STATUS_READ_ERROR if connot read register
 191:Drivers/BSP/Components/dp83848/dp83848.c ****   *         DP83848_STATUS_WRITE_ERROR if connot write to register
 192:Drivers/BSP/Components/dp83848/dp83848.c ****   */
 193:Drivers/BSP/Components/dp83848/dp83848.c **** int32_t DP83848_EnablePowerDownMode(dp83848_Object_t *pObj)
 194:Drivers/BSP/Components/dp83848/dp83848.c **** {
 404              		.loc 1 194 1 is_stmt 1 view -0
 405              		.cfi_startproc
 406              		@ args = 0, pretend = 0, frame = 8
 407              		@ frame_needed = 0, uses_anonymous_args = 0
 408              		.loc 1 194 1 is_stmt 0 view .LVU119
 409 0000 10B5     		push	{r4, lr}
 410              		.cfi_def_cfa_offset 8
 411              		.cfi_offset 4, -8
 412              		.cfi_offset 14, -4
 413 0002 82B0     		sub	sp, sp, #8
 414              		.cfi_def_cfa_offset 16
 415 0004 0446     		mov	r4, r0
ARM GAS  /var/folders/n6/c271nzx11xl4r4_m7sqjlt0m0000gn/T//cckOlhJn.s 			page 12


 195:Drivers/BSP/Components/dp83848/dp83848.c ****   uint32_t readval = 0;
 416              		.loc 1 195 3 is_stmt 1 view .LVU120
 417              		.loc 1 195 12 is_stmt 0 view .LVU121
 418 0006 0021     		movs	r1, #0
 419 0008 0191     		str	r1, [sp, #4]
 196:Drivers/BSP/Components/dp83848/dp83848.c ****   int32_t status = DP83848_STATUS_OK;
 420              		.loc 1 196 3 is_stmt 1 view .LVU122
 421              	.LVL37:
 197:Drivers/BSP/Components/dp83848/dp83848.c **** 
 198:Drivers/BSP/Components/dp83848/dp83848.c ****   if(pObj->IO.ReadReg(pObj->DevAddr, DP83848_BCR, &readval) >= 0)
 422              		.loc 1 198 3 view .LVU123
 423              		.loc 1 198 14 is_stmt 0 view .LVU124
 424 000a 4369     		ldr	r3, [r0, #20]
 425              		.loc 1 198 6 view .LVU125
 426 000c 01AA     		add	r2, sp, #4
 427 000e 0068     		ldr	r0, [r0]
 428              	.LVL38:
 429              		.loc 1 198 6 view .LVU126
 430 0010 9847     		blx	r3
 431              	.LVL39:
 432              		.loc 1 198 5 discriminator 1 view .LVU127
 433 0012 0028     		cmp	r0, #0
 434 0014 0CDB     		blt	.L34
 199:Drivers/BSP/Components/dp83848/dp83848.c ****   {
 200:Drivers/BSP/Components/dp83848/dp83848.c ****     readval |= DP83848_BCR_POWER_DOWN;
 435              		.loc 1 200 5 is_stmt 1 view .LVU128
 436              		.loc 1 200 13 is_stmt 0 view .LVU129
 437 0016 019A     		ldr	r2, [sp, #4]
 438 0018 42F40062 		orr	r2, r2, #2048
 439 001c 0192     		str	r2, [sp, #4]
 201:Drivers/BSP/Components/dp83848/dp83848.c **** 
 202:Drivers/BSP/Components/dp83848/dp83848.c ****     /* Apply configuration */
 203:Drivers/BSP/Components/dp83848/dp83848.c ****     if(pObj->IO.WriteReg(pObj->DevAddr, DP83848_BCR, readval) < 0)
 440              		.loc 1 203 5 is_stmt 1 view .LVU130
 441              		.loc 1 203 16 is_stmt 0 view .LVU131
 442 001e 2369     		ldr	r3, [r4, #16]
 443              		.loc 1 203 8 view .LVU132
 444 0020 0021     		movs	r1, #0
 445 0022 2068     		ldr	r0, [r4]
 446 0024 9847     		blx	r3
 447              	.LVL40:
 448              		.loc 1 203 7 discriminator 1 view .LVU133
 449 0026 0028     		cmp	r0, #0
 450 0028 05DB     		blt	.L35
 196:Drivers/BSP/Components/dp83848/dp83848.c **** 
 451              		.loc 1 196 11 view .LVU134
 452 002a 0020     		movs	r0, #0
 453              	.LVL41:
 454              	.L32:
 204:Drivers/BSP/Components/dp83848/dp83848.c ****     {
 205:Drivers/BSP/Components/dp83848/dp83848.c ****       status =  DP83848_STATUS_WRITE_ERROR;
 206:Drivers/BSP/Components/dp83848/dp83848.c ****     }
 207:Drivers/BSP/Components/dp83848/dp83848.c ****   }
 208:Drivers/BSP/Components/dp83848/dp83848.c ****   else
 209:Drivers/BSP/Components/dp83848/dp83848.c ****   {
 210:Drivers/BSP/Components/dp83848/dp83848.c ****     status = DP83848_STATUS_READ_ERROR;
 211:Drivers/BSP/Components/dp83848/dp83848.c ****   }
ARM GAS  /var/folders/n6/c271nzx11xl4r4_m7sqjlt0m0000gn/T//cckOlhJn.s 			page 13


 212:Drivers/BSP/Components/dp83848/dp83848.c **** 
 213:Drivers/BSP/Components/dp83848/dp83848.c ****   return status;
 214:Drivers/BSP/Components/dp83848/dp83848.c **** }
 455              		.loc 1 214 1 view .LVU135
 456 002c 02B0     		add	sp, sp, #8
 457              		.cfi_remember_state
 458              		.cfi_def_cfa_offset 8
 459              		@ sp needed
 460 002e 10BD     		pop	{r4, pc}
 461              	.LVL42:
 462              	.L34:
 463              		.cfi_restore_state
 210:Drivers/BSP/Components/dp83848/dp83848.c ****   }
 464              		.loc 1 210 12 view .LVU136
 465 0030 6FF00400 		mvn	r0, #4
 466 0034 FAE7     		b	.L32
 467              	.L35:
 205:Drivers/BSP/Components/dp83848/dp83848.c ****     }
 468              		.loc 1 205 14 view .LVU137
 469 0036 6FF00300 		mvn	r0, #3
 470              	.LVL43:
 213:Drivers/BSP/Components/dp83848/dp83848.c **** }
 471              		.loc 1 213 3 is_stmt 1 view .LVU138
 213:Drivers/BSP/Components/dp83848/dp83848.c **** }
 472              		.loc 1 213 10 is_stmt 0 view .LVU139
 473 003a F7E7     		b	.L32
 474              		.cfi_endproc
 475              	.LFE4:
 477              		.section	.text.DP83848_StartAutoNego,"ax",%progbits
 478              		.align	1
 479              		.global	DP83848_StartAutoNego
 480              		.syntax unified
 481              		.thumb
 482              		.thumb_func
 484              	DP83848_StartAutoNego:
 485              	.LVL44:
 486              	.LFB5:
 215:Drivers/BSP/Components/dp83848/dp83848.c **** 
 216:Drivers/BSP/Components/dp83848/dp83848.c **** /**
 217:Drivers/BSP/Components/dp83848/dp83848.c ****   * @brief  Start the auto negotiation process.
 218:Drivers/BSP/Components/dp83848/dp83848.c ****   * @param  pObj: device object DP83848_Object_t.
 219:Drivers/BSP/Components/dp83848/dp83848.c ****   * @retval DP83848_STATUS_OK  if OK
 220:Drivers/BSP/Components/dp83848/dp83848.c ****   *         DP83848_STATUS_READ_ERROR if connot read register
 221:Drivers/BSP/Components/dp83848/dp83848.c ****   *         DP83848_STATUS_WRITE_ERROR if connot write to register
 222:Drivers/BSP/Components/dp83848/dp83848.c ****   */
 223:Drivers/BSP/Components/dp83848/dp83848.c **** int32_t DP83848_StartAutoNego(dp83848_Object_t *pObj)
 224:Drivers/BSP/Components/dp83848/dp83848.c **** {
 487              		.loc 1 224 1 is_stmt 1 view -0
 488              		.cfi_startproc
 489              		@ args = 0, pretend = 0, frame = 8
 490              		@ frame_needed = 0, uses_anonymous_args = 0
 491              		.loc 1 224 1 is_stmt 0 view .LVU141
 492 0000 10B5     		push	{r4, lr}
 493              		.cfi_def_cfa_offset 8
 494              		.cfi_offset 4, -8
 495              		.cfi_offset 14, -4
 496 0002 82B0     		sub	sp, sp, #8
ARM GAS  /var/folders/n6/c271nzx11xl4r4_m7sqjlt0m0000gn/T//cckOlhJn.s 			page 14


 497              		.cfi_def_cfa_offset 16
 498 0004 0446     		mov	r4, r0
 225:Drivers/BSP/Components/dp83848/dp83848.c ****   uint32_t readval = 0;
 499              		.loc 1 225 3 is_stmt 1 view .LVU142
 500              		.loc 1 225 12 is_stmt 0 view .LVU143
 501 0006 0021     		movs	r1, #0
 502 0008 0191     		str	r1, [sp, #4]
 226:Drivers/BSP/Components/dp83848/dp83848.c ****   int32_t status = DP83848_STATUS_OK;
 503              		.loc 1 226 3 is_stmt 1 view .LVU144
 504              	.LVL45:
 227:Drivers/BSP/Components/dp83848/dp83848.c **** 
 228:Drivers/BSP/Components/dp83848/dp83848.c ****   if(pObj->IO.ReadReg(pObj->DevAddr, DP83848_BCR, &readval) >= 0)
 505              		.loc 1 228 3 view .LVU145
 506              		.loc 1 228 14 is_stmt 0 view .LVU146
 507 000a 4369     		ldr	r3, [r0, #20]
 508              		.loc 1 228 6 view .LVU147
 509 000c 01AA     		add	r2, sp, #4
 510 000e 0068     		ldr	r0, [r0]
 511              	.LVL46:
 512              		.loc 1 228 6 view .LVU148
 513 0010 9847     		blx	r3
 514              	.LVL47:
 515              		.loc 1 228 5 discriminator 1 view .LVU149
 516 0012 0028     		cmp	r0, #0
 517 0014 0CDB     		blt	.L39
 229:Drivers/BSP/Components/dp83848/dp83848.c ****   {
 230:Drivers/BSP/Components/dp83848/dp83848.c ****     readval |= DP83848_BCR_AUTONEGO_EN;
 518              		.loc 1 230 5 is_stmt 1 view .LVU150
 519              		.loc 1 230 13 is_stmt 0 view .LVU151
 520 0016 019A     		ldr	r2, [sp, #4]
 521 0018 42F48052 		orr	r2, r2, #4096
 522 001c 0192     		str	r2, [sp, #4]
 231:Drivers/BSP/Components/dp83848/dp83848.c **** 
 232:Drivers/BSP/Components/dp83848/dp83848.c ****     /* Apply configuration */
 233:Drivers/BSP/Components/dp83848/dp83848.c ****     if(pObj->IO.WriteReg(pObj->DevAddr, DP83848_BCR, readval) < 0)
 523              		.loc 1 233 5 is_stmt 1 view .LVU152
 524              		.loc 1 233 16 is_stmt 0 view .LVU153
 525 001e 2369     		ldr	r3, [r4, #16]
 526              		.loc 1 233 8 view .LVU154
 527 0020 0021     		movs	r1, #0
 528 0022 2068     		ldr	r0, [r4]
 529 0024 9847     		blx	r3
 530              	.LVL48:
 531              		.loc 1 233 7 discriminator 1 view .LVU155
 532 0026 0028     		cmp	r0, #0
 533 0028 05DB     		blt	.L40
 226:Drivers/BSP/Components/dp83848/dp83848.c **** 
 534              		.loc 1 226 11 view .LVU156
 535 002a 0020     		movs	r0, #0
 536              	.LVL49:
 537              	.L37:
 234:Drivers/BSP/Components/dp83848/dp83848.c ****     {
 235:Drivers/BSP/Components/dp83848/dp83848.c ****       status =  DP83848_STATUS_WRITE_ERROR;
 236:Drivers/BSP/Components/dp83848/dp83848.c ****     }
 237:Drivers/BSP/Components/dp83848/dp83848.c ****   }
 238:Drivers/BSP/Components/dp83848/dp83848.c ****   else
 239:Drivers/BSP/Components/dp83848/dp83848.c ****   {
ARM GAS  /var/folders/n6/c271nzx11xl4r4_m7sqjlt0m0000gn/T//cckOlhJn.s 			page 15


 240:Drivers/BSP/Components/dp83848/dp83848.c ****     status = DP83848_STATUS_READ_ERROR;
 241:Drivers/BSP/Components/dp83848/dp83848.c ****   }
 242:Drivers/BSP/Components/dp83848/dp83848.c **** 
 243:Drivers/BSP/Components/dp83848/dp83848.c ****   return status;
 244:Drivers/BSP/Components/dp83848/dp83848.c **** }
 538              		.loc 1 244 1 view .LVU157
 539 002c 02B0     		add	sp, sp, #8
 540              		.cfi_remember_state
 541              		.cfi_def_cfa_offset 8
 542              		@ sp needed
 543 002e 10BD     		pop	{r4, pc}
 544              	.LVL50:
 545              	.L39:
 546              		.cfi_restore_state
 240:Drivers/BSP/Components/dp83848/dp83848.c ****   }
 547              		.loc 1 240 12 view .LVU158
 548 0030 6FF00400 		mvn	r0, #4
 549 0034 FAE7     		b	.L37
 550              	.L40:
 235:Drivers/BSP/Components/dp83848/dp83848.c ****     }
 551              		.loc 1 235 14 view .LVU159
 552 0036 6FF00300 		mvn	r0, #3
 553              	.LVL51:
 243:Drivers/BSP/Components/dp83848/dp83848.c **** }
 554              		.loc 1 243 3 is_stmt 1 view .LVU160
 243:Drivers/BSP/Components/dp83848/dp83848.c **** }
 555              		.loc 1 243 10 is_stmt 0 view .LVU161
 556 003a F7E7     		b	.L37
 557              		.cfi_endproc
 558              	.LFE5:
 560              		.section	.text.DP83848_GetLinkState,"ax",%progbits
 561              		.align	1
 562              		.global	DP83848_GetLinkState
 563              		.syntax unified
 564              		.thumb
 565              		.thumb_func
 567              	DP83848_GetLinkState:
 568              	.LVL52:
 569              	.LFB6:
 245:Drivers/BSP/Components/dp83848/dp83848.c **** 
 246:Drivers/BSP/Components/dp83848/dp83848.c **** /**
 247:Drivers/BSP/Components/dp83848/dp83848.c ****   * @brief  Get the link state of DP83848 device.
 248:Drivers/BSP/Components/dp83848/dp83848.c ****   * @param  pObj: Pointer to device object.
 249:Drivers/BSP/Components/dp83848/dp83848.c ****   * @param  pLinkState: Pointer to link state
 250:Drivers/BSP/Components/dp83848/dp83848.c ****   * @retval DP83848_STATUS_LINK_DOWN  if link is down
 251:Drivers/BSP/Components/dp83848/dp83848.c ****   *         DP83848_STATUS_AUTONEGO_NOTDONE if Auto nego not completed
 252:Drivers/BSP/Components/dp83848/dp83848.c ****   *         DP83848_STATUS_100MBITS_FULLDUPLEX if 100Mb/s FD
 253:Drivers/BSP/Components/dp83848/dp83848.c ****   *         DP83848_STATUS_100MBITS_HALFDUPLEX if 100Mb/s HD
 254:Drivers/BSP/Components/dp83848/dp83848.c ****   *         DP83848_STATUS_10MBITS_FULLDUPLEX  if 10Mb/s FD
 255:Drivers/BSP/Components/dp83848/dp83848.c ****   *         DP83848_STATUS_10MBITS_HALFDUPLEX  if 10Mb/s HD
 256:Drivers/BSP/Components/dp83848/dp83848.c ****   *         DP83848_STATUS_READ_ERROR if connot read register
 257:Drivers/BSP/Components/dp83848/dp83848.c ****   *         DP83848_STATUS_WRITE_ERROR if connot write to register
 258:Drivers/BSP/Components/dp83848/dp83848.c ****   */
 259:Drivers/BSP/Components/dp83848/dp83848.c **** int32_t DP83848_GetLinkState(dp83848_Object_t *pObj)
 260:Drivers/BSP/Components/dp83848/dp83848.c **** {
 570              		.loc 1 260 1 is_stmt 1 view -0
 571              		.cfi_startproc
ARM GAS  /var/folders/n6/c271nzx11xl4r4_m7sqjlt0m0000gn/T//cckOlhJn.s 			page 16


 572              		@ args = 0, pretend = 0, frame = 8
 573              		@ frame_needed = 0, uses_anonymous_args = 0
 574              		.loc 1 260 1 is_stmt 0 view .LVU163
 575 0000 10B5     		push	{r4, lr}
 576              		.cfi_def_cfa_offset 8
 577              		.cfi_offset 4, -8
 578              		.cfi_offset 14, -4
 579 0002 82B0     		sub	sp, sp, #8
 580              		.cfi_def_cfa_offset 16
 581 0004 0446     		mov	r4, r0
 261:Drivers/BSP/Components/dp83848/dp83848.c ****   uint32_t readval = 0;
 582              		.loc 1 261 3 is_stmt 1 view .LVU164
 583              		.loc 1 261 12 is_stmt 0 view .LVU165
 584 0006 0023     		movs	r3, #0
 585 0008 0193     		str	r3, [sp, #4]
 262:Drivers/BSP/Components/dp83848/dp83848.c **** 
 263:Drivers/BSP/Components/dp83848/dp83848.c ****   /* Read Status register  */
 264:Drivers/BSP/Components/dp83848/dp83848.c ****   if(pObj->IO.ReadReg(pObj->DevAddr, DP83848_BSR, &readval) < 0)
 586              		.loc 1 264 3 is_stmt 1 view .LVU166
 587              		.loc 1 264 14 is_stmt 0 view .LVU167
 588 000a 4369     		ldr	r3, [r0, #20]
 589              		.loc 1 264 6 view .LVU168
 590 000c 01AA     		add	r2, sp, #4
 591 000e 0121     		movs	r1, #1
 592 0010 0068     		ldr	r0, [r0]
 593              	.LVL53:
 594              		.loc 1 264 6 view .LVU169
 595 0012 9847     		blx	r3
 596              	.LVL54:
 597              		.loc 1 264 5 discriminator 1 view .LVU170
 598 0014 0028     		cmp	r0, #0
 599 0016 38DB     		blt	.L45
 265:Drivers/BSP/Components/dp83848/dp83848.c ****   {
 266:Drivers/BSP/Components/dp83848/dp83848.c ****     return DP83848_STATUS_READ_ERROR;
 267:Drivers/BSP/Components/dp83848/dp83848.c ****   }
 268:Drivers/BSP/Components/dp83848/dp83848.c **** 
 269:Drivers/BSP/Components/dp83848/dp83848.c ****   /* Read Status register again */
 270:Drivers/BSP/Components/dp83848/dp83848.c ****   if(pObj->IO.ReadReg(pObj->DevAddr, DP83848_BSR, &readval) < 0)
 600              		.loc 1 270 3 is_stmt 1 view .LVU171
 601              		.loc 1 270 14 is_stmt 0 view .LVU172
 602 0018 6369     		ldr	r3, [r4, #20]
 603              		.loc 1 270 6 view .LVU173
 604 001a 01AA     		add	r2, sp, #4
 605 001c 0121     		movs	r1, #1
 606 001e 2068     		ldr	r0, [r4]
 607 0020 9847     		blx	r3
 608              	.LVL55:
 609              		.loc 1 270 5 discriminator 1 view .LVU174
 610 0022 0028     		cmp	r0, #0
 611 0024 34DB     		blt	.L46
 271:Drivers/BSP/Components/dp83848/dp83848.c ****   {
 272:Drivers/BSP/Components/dp83848/dp83848.c ****     return DP83848_STATUS_READ_ERROR;
 273:Drivers/BSP/Components/dp83848/dp83848.c ****   }
 274:Drivers/BSP/Components/dp83848/dp83848.c **** 
 275:Drivers/BSP/Components/dp83848/dp83848.c ****   if((readval & DP83848_BSR_LINK_STATUS) == 0)
 612              		.loc 1 275 3 is_stmt 1 view .LVU175
 613              		.loc 1 275 5 is_stmt 0 view .LVU176
ARM GAS  /var/folders/n6/c271nzx11xl4r4_m7sqjlt0m0000gn/T//cckOlhJn.s 			page 17


 614 0026 019B     		ldr	r3, [sp, #4]
 615 0028 13F0040F 		tst	r3, #4
 616 002c 33D0     		beq	.L47
 276:Drivers/BSP/Components/dp83848/dp83848.c ****   {
 277:Drivers/BSP/Components/dp83848/dp83848.c ****     /* Return Link Down status */
 278:Drivers/BSP/Components/dp83848/dp83848.c ****     return DP83848_STATUS_LINK_DOWN;
 279:Drivers/BSP/Components/dp83848/dp83848.c ****   }
 280:Drivers/BSP/Components/dp83848/dp83848.c **** 
 281:Drivers/BSP/Components/dp83848/dp83848.c ****   /* Check Auto negotiaition */
 282:Drivers/BSP/Components/dp83848/dp83848.c ****   if(pObj->IO.ReadReg(pObj->DevAddr, DP83848_BCR, &readval) < 0)
 617              		.loc 1 282 3 is_stmt 1 view .LVU177
 618              		.loc 1 282 14 is_stmt 0 view .LVU178
 619 002e 6369     		ldr	r3, [r4, #20]
 620              		.loc 1 282 6 view .LVU179
 621 0030 01AA     		add	r2, sp, #4
 622 0032 0021     		movs	r1, #0
 623 0034 2068     		ldr	r0, [r4]
 624 0036 9847     		blx	r3
 625              	.LVL56:
 626              		.loc 1 282 5 discriminator 1 view .LVU180
 627 0038 0028     		cmp	r0, #0
 628 003a 2FDB     		blt	.L48
 283:Drivers/BSP/Components/dp83848/dp83848.c ****   {
 284:Drivers/BSP/Components/dp83848/dp83848.c ****     return DP83848_STATUS_READ_ERROR;
 285:Drivers/BSP/Components/dp83848/dp83848.c ****   }
 286:Drivers/BSP/Components/dp83848/dp83848.c **** 
 287:Drivers/BSP/Components/dp83848/dp83848.c ****   if((readval & DP83848_BCR_AUTONEGO_EN) != DP83848_BCR_AUTONEGO_EN)
 629              		.loc 1 287 3 is_stmt 1 view .LVU181
 630              		.loc 1 287 15 is_stmt 0 view .LVU182
 631 003c 019B     		ldr	r3, [sp, #4]
 632              		.loc 1 287 5 view .LVU183
 633 003e 13F4805F 		tst	r3, #4096
 634 0042 0CD1     		bne	.L44
 288:Drivers/BSP/Components/dp83848/dp83848.c ****   {
 289:Drivers/BSP/Components/dp83848/dp83848.c ****     if(((readval & DP83848_BCR_SPEED_SELECT) == DP83848_BCR_SPEED_SELECT) && ((readval & DP83848_BC
 635              		.loc 1 289 5 is_stmt 1 view .LVU184
 636              		.loc 1 289 75 is_stmt 0 view .LVU185
 637 0044 03F40452 		and	r2, r3, #8448
 638              		.loc 1 289 7 view .LVU186
 639 0048 B2F5045F 		cmp	r2, #8448
 640 004c 29D0     		beq	.L49
 290:Drivers/BSP/Components/dp83848/dp83848.c ****     {
 291:Drivers/BSP/Components/dp83848/dp83848.c ****       return DP83848_STATUS_100MBITS_FULLDUPLEX;
 292:Drivers/BSP/Components/dp83848/dp83848.c ****     }
 293:Drivers/BSP/Components/dp83848/dp83848.c ****     else if ((readval & DP83848_BCR_SPEED_SELECT) == DP83848_BCR_SPEED_SELECT)
 641              		.loc 1 293 10 is_stmt 1 view .LVU187
 642              		.loc 1 293 13 is_stmt 0 view .LVU188
 643 004e 13F4005F 		tst	r3, #8192
 644 0052 28D1     		bne	.L50
 294:Drivers/BSP/Components/dp83848/dp83848.c ****     {
 295:Drivers/BSP/Components/dp83848/dp83848.c ****       return DP83848_STATUS_100MBITS_HALFDUPLEX;
 296:Drivers/BSP/Components/dp83848/dp83848.c ****     }
 297:Drivers/BSP/Components/dp83848/dp83848.c ****     else if ((readval & DP83848_BCR_DUPLEX_MODE) == DP83848_BCR_DUPLEX_MODE)
 645              		.loc 1 297 10 is_stmt 1 view .LVU189
 646              		.loc 1 297 13 is_stmt 0 view .LVU190
 647 0054 13F4807F 		tst	r3, #256
 648 0058 27D0     		beq	.L51
ARM GAS  /var/folders/n6/c271nzx11xl4r4_m7sqjlt0m0000gn/T//cckOlhJn.s 			page 18


 298:Drivers/BSP/Components/dp83848/dp83848.c ****     {
 299:Drivers/BSP/Components/dp83848/dp83848.c ****       return DP83848_STATUS_10MBITS_FULLDUPLEX;
 649              		.loc 1 299 14 view .LVU191
 650 005a 0420     		movs	r0, #4
 651 005c 1CE0     		b	.L42
 652              	.L44:
 300:Drivers/BSP/Components/dp83848/dp83848.c ****     }
 301:Drivers/BSP/Components/dp83848/dp83848.c ****     else
 302:Drivers/BSP/Components/dp83848/dp83848.c ****     {
 303:Drivers/BSP/Components/dp83848/dp83848.c ****       return DP83848_STATUS_10MBITS_HALFDUPLEX;
 304:Drivers/BSP/Components/dp83848/dp83848.c ****     }
 305:Drivers/BSP/Components/dp83848/dp83848.c ****   }
 306:Drivers/BSP/Components/dp83848/dp83848.c ****   else /* Auto Nego enabled */
 307:Drivers/BSP/Components/dp83848/dp83848.c ****   {
 308:Drivers/BSP/Components/dp83848/dp83848.c ****     if(pObj->IO.ReadReg(pObj->DevAddr, DP83848_PHYSCSR, &readval) < 0)
 653              		.loc 1 308 5 is_stmt 1 view .LVU192
 654              		.loc 1 308 16 is_stmt 0 view .LVU193
 655 005e 6369     		ldr	r3, [r4, #20]
 656              		.loc 1 308 8 view .LVU194
 657 0060 01AA     		add	r2, sp, #4
 658 0062 1021     		movs	r1, #16
 659 0064 2068     		ldr	r0, [r4]
 660 0066 9847     		blx	r3
 661              	.LVL57:
 662              		.loc 1 308 7 discriminator 1 view .LVU195
 663 0068 0028     		cmp	r0, #0
 664 006a 20DB     		blt	.L52
 309:Drivers/BSP/Components/dp83848/dp83848.c ****     {
 310:Drivers/BSP/Components/dp83848/dp83848.c ****       return DP83848_STATUS_READ_ERROR;
 311:Drivers/BSP/Components/dp83848/dp83848.c ****     }
 312:Drivers/BSP/Components/dp83848/dp83848.c **** 
 313:Drivers/BSP/Components/dp83848/dp83848.c ****     /* Check if auto nego not done */
 314:Drivers/BSP/Components/dp83848/dp83848.c ****     if((readval & DP83848_PHYSCSR_AUTONEGO_DONE) == 0)
 665              		.loc 1 314 5 is_stmt 1 view .LVU196
 666              		.loc 1 314 17 is_stmt 0 view .LVU197
 667 006c 019B     		ldr	r3, [sp, #4]
 668              		.loc 1 314 7 view .LVU198
 669 006e 13F0100F 		tst	r3, #16
 670 0072 1FD0     		beq	.L53
 315:Drivers/BSP/Components/dp83848/dp83848.c ****     {
 316:Drivers/BSP/Components/dp83848/dp83848.c ****       return DP83848_STATUS_AUTONEGO_NOTDONE;
 317:Drivers/BSP/Components/dp83848/dp83848.c ****     }
 318:Drivers/BSP/Components/dp83848/dp83848.c **** 
 319:Drivers/BSP/Components/dp83848/dp83848.c ****     if((readval & DP83848_PHYSCSR_HCDSPEEDMASK) == DP83848_PHYSCSR_100BTX_FD)
 671              		.loc 1 319 5 is_stmt 1 view .LVU199
 672              		.loc 1 319 17 is_stmt 0 view .LVU200
 673 0074 03F00603 		and	r3, r3, #6
 674              		.loc 1 319 7 view .LVU201
 675 0078 042B     		cmp	r3, #4
 676 007a 1DD0     		beq	.L54
 320:Drivers/BSP/Components/dp83848/dp83848.c ****     {
 321:Drivers/BSP/Components/dp83848/dp83848.c ****       return DP83848_STATUS_100MBITS_FULLDUPLEX;
 322:Drivers/BSP/Components/dp83848/dp83848.c ****     }
 323:Drivers/BSP/Components/dp83848/dp83848.c ****     else if ((readval & DP83848_PHYSCSR_HCDSPEEDMASK) == DP83848_PHYSCSR_100BTX_HD)
 677              		.loc 1 323 10 is_stmt 1 view .LVU202
 678              		.loc 1 323 13 is_stmt 0 view .LVU203
 679 007c F3B1     		cbz	r3, .L55
ARM GAS  /var/folders/n6/c271nzx11xl4r4_m7sqjlt0m0000gn/T//cckOlhJn.s 			page 19


 324:Drivers/BSP/Components/dp83848/dp83848.c ****     {
 325:Drivers/BSP/Components/dp83848/dp83848.c ****       return DP83848_STATUS_100MBITS_HALFDUPLEX;
 326:Drivers/BSP/Components/dp83848/dp83848.c ****     }
 327:Drivers/BSP/Components/dp83848/dp83848.c ****     else if ((readval & DP83848_PHYSCSR_HCDSPEEDMASK) == DP83848_PHYSCSR_10BT_FD)
 680              		.loc 1 327 10 is_stmt 1 view .LVU204
 681              		.loc 1 327 13 is_stmt 0 view .LVU205
 682 007e 062B     		cmp	r3, #6
 683 0080 01D0     		beq	.L58
 328:Drivers/BSP/Components/dp83848/dp83848.c ****     {
 329:Drivers/BSP/Components/dp83848/dp83848.c ****       return DP83848_STATUS_10MBITS_FULLDUPLEX;
 330:Drivers/BSP/Components/dp83848/dp83848.c ****     }
 331:Drivers/BSP/Components/dp83848/dp83848.c ****     else
 332:Drivers/BSP/Components/dp83848/dp83848.c ****     {
 333:Drivers/BSP/Components/dp83848/dp83848.c ****       return DP83848_STATUS_10MBITS_HALFDUPLEX;
 684              		.loc 1 333 14 view .LVU206
 685 0082 0520     		movs	r0, #5
 686 0084 08E0     		b	.L42
 687              	.L58:
 329:Drivers/BSP/Components/dp83848/dp83848.c ****     }
 688              		.loc 1 329 14 view .LVU207
 689 0086 0420     		movs	r0, #4
 690 0088 06E0     		b	.L42
 691              	.L45:
 266:Drivers/BSP/Components/dp83848/dp83848.c ****   }
 692              		.loc 1 266 12 view .LVU208
 693 008a 6FF00400 		mvn	r0, #4
 694 008e 03E0     		b	.L42
 695              	.L46:
 272:Drivers/BSP/Components/dp83848/dp83848.c ****   }
 696              		.loc 1 272 12 view .LVU209
 697 0090 6FF00400 		mvn	r0, #4
 698 0094 00E0     		b	.L42
 699              	.L47:
 278:Drivers/BSP/Components/dp83848/dp83848.c ****   }
 700              		.loc 1 278 12 view .LVU210
 701 0096 0120     		movs	r0, #1
 702              	.L42:
 334:Drivers/BSP/Components/dp83848/dp83848.c ****     }
 335:Drivers/BSP/Components/dp83848/dp83848.c ****   }
 336:Drivers/BSP/Components/dp83848/dp83848.c **** }
 703              		.loc 1 336 1 view .LVU211
 704 0098 02B0     		add	sp, sp, #8
 705              		.cfi_remember_state
 706              		.cfi_def_cfa_offset 8
 707              		@ sp needed
 708 009a 10BD     		pop	{r4, pc}
 709              	.LVL58:
 710              	.L48:
 711              		.cfi_restore_state
 284:Drivers/BSP/Components/dp83848/dp83848.c ****   }
 712              		.loc 1 284 12 view .LVU212
 713 009c 6FF00400 		mvn	r0, #4
 714 00a0 FAE7     		b	.L42
 715              	.L49:
 291:Drivers/BSP/Components/dp83848/dp83848.c ****     }
 716              		.loc 1 291 14 view .LVU213
 717 00a2 0220     		movs	r0, #2
ARM GAS  /var/folders/n6/c271nzx11xl4r4_m7sqjlt0m0000gn/T//cckOlhJn.s 			page 20


 718 00a4 F8E7     		b	.L42
 719              	.L50:
 295:Drivers/BSP/Components/dp83848/dp83848.c ****     }
 720              		.loc 1 295 14 view .LVU214
 721 00a6 0320     		movs	r0, #3
 722 00a8 F6E7     		b	.L42
 723              	.L51:
 303:Drivers/BSP/Components/dp83848/dp83848.c ****     }
 724              		.loc 1 303 14 view .LVU215
 725 00aa 0520     		movs	r0, #5
 726 00ac F4E7     		b	.L42
 727              	.L52:
 310:Drivers/BSP/Components/dp83848/dp83848.c ****     }
 728              		.loc 1 310 14 view .LVU216
 729 00ae 6FF00400 		mvn	r0, #4
 730 00b2 F1E7     		b	.L42
 731              	.L53:
 316:Drivers/BSP/Components/dp83848/dp83848.c ****     }
 732              		.loc 1 316 14 view .LVU217
 733 00b4 0620     		movs	r0, #6
 734 00b6 EFE7     		b	.L42
 735              	.L54:
 321:Drivers/BSP/Components/dp83848/dp83848.c ****     }
 736              		.loc 1 321 14 view .LVU218
 737 00b8 0220     		movs	r0, #2
 738 00ba EDE7     		b	.L42
 739              	.L55:
 325:Drivers/BSP/Components/dp83848/dp83848.c ****     }
 740              		.loc 1 325 14 view .LVU219
 741 00bc 0320     		movs	r0, #3
 742 00be EBE7     		b	.L42
 743              		.cfi_endproc
 744              	.LFE6:
 746              		.section	.text.DP83848_SetLinkState,"ax",%progbits
 747              		.align	1
 748              		.global	DP83848_SetLinkState
 749              		.syntax unified
 750              		.thumb
 751              		.thumb_func
 753              	DP83848_SetLinkState:
 754              	.LVL59:
 755              	.LFB7:
 337:Drivers/BSP/Components/dp83848/dp83848.c **** 
 338:Drivers/BSP/Components/dp83848/dp83848.c **** /**
 339:Drivers/BSP/Components/dp83848/dp83848.c ****   * @brief  Set the link state of DP83848 device.
 340:Drivers/BSP/Components/dp83848/dp83848.c ****   * @param  pObj: Pointer to device object.
 341:Drivers/BSP/Components/dp83848/dp83848.c ****   * @param  pLinkState: link state can be one of the following
 342:Drivers/BSP/Components/dp83848/dp83848.c ****   *         DP83848_STATUS_100MBITS_FULLDUPLEX if 100Mb/s FD
 343:Drivers/BSP/Components/dp83848/dp83848.c ****   *         DP83848_STATUS_100MBITS_HALFDUPLEX if 100Mb/s HD
 344:Drivers/BSP/Components/dp83848/dp83848.c ****   *         DP83848_STATUS_10MBITS_FULLDUPLEX  if 10Mb/s FD
 345:Drivers/BSP/Components/dp83848/dp83848.c ****   *         DP83848_STATUS_10MBITS_HALFDUPLEX  if 10Mb/s HD
 346:Drivers/BSP/Components/dp83848/dp83848.c ****   * @retval DP83848_STATUS_OK  if OK
 347:Drivers/BSP/Components/dp83848/dp83848.c ****   *         DP83848_STATUS_ERROR  if parameter error
 348:Drivers/BSP/Components/dp83848/dp83848.c ****   *         DP83848_STATUS_READ_ERROR if connot read register
 349:Drivers/BSP/Components/dp83848/dp83848.c ****   *         DP83848_STATUS_WRITE_ERROR if connot write to register
 350:Drivers/BSP/Components/dp83848/dp83848.c ****   */
 351:Drivers/BSP/Components/dp83848/dp83848.c **** int32_t DP83848_SetLinkState(dp83848_Object_t *pObj, uint32_t LinkState)
ARM GAS  /var/folders/n6/c271nzx11xl4r4_m7sqjlt0m0000gn/T//cckOlhJn.s 			page 21


 352:Drivers/BSP/Components/dp83848/dp83848.c **** {
 756              		.loc 1 352 1 is_stmt 1 view -0
 757              		.cfi_startproc
 758              		@ args = 0, pretend = 0, frame = 8
 759              		@ frame_needed = 0, uses_anonymous_args = 0
 760              		.loc 1 352 1 is_stmt 0 view .LVU221
 761 0000 30B5     		push	{r4, r5, lr}
 762              		.cfi_def_cfa_offset 12
 763              		.cfi_offset 4, -12
 764              		.cfi_offset 5, -8
 765              		.cfi_offset 14, -4
 766 0002 83B0     		sub	sp, sp, #12
 767              		.cfi_def_cfa_offset 24
 768 0004 0446     		mov	r4, r0
 769 0006 0D46     		mov	r5, r1
 353:Drivers/BSP/Components/dp83848/dp83848.c ****   uint32_t bcrvalue = 0;
 770              		.loc 1 353 3 is_stmt 1 view .LVU222
 771              		.loc 1 353 12 is_stmt 0 view .LVU223
 772 0008 0021     		movs	r1, #0
 773              	.LVL60:
 774              		.loc 1 353 12 view .LVU224
 775 000a 0191     		str	r1, [sp, #4]
 354:Drivers/BSP/Components/dp83848/dp83848.c ****   int32_t status = DP83848_STATUS_OK;
 776              		.loc 1 354 3 is_stmt 1 view .LVU225
 777              	.LVL61:
 355:Drivers/BSP/Components/dp83848/dp83848.c **** 
 356:Drivers/BSP/Components/dp83848/dp83848.c ****   if(pObj->IO.ReadReg(pObj->DevAddr, DP83848_BCR, &bcrvalue) >= 0)
 778              		.loc 1 356 3 view .LVU226
 779              		.loc 1 356 14 is_stmt 0 view .LVU227
 780 000c 4369     		ldr	r3, [r0, #20]
 781              		.loc 1 356 6 view .LVU228
 782 000e 01AA     		add	r2, sp, #4
 783 0010 0068     		ldr	r0, [r0]
 784              	.LVL62:
 785              		.loc 1 356 6 view .LVU229
 786 0012 9847     		blx	r3
 787              	.LVL63:
 788              		.loc 1 356 5 discriminator 1 view .LVU230
 789 0014 0028     		cmp	r0, #0
 790 0016 1EDB     		blt	.L64
 357:Drivers/BSP/Components/dp83848/dp83848.c ****   {
 358:Drivers/BSP/Components/dp83848/dp83848.c ****     /* Disable link config (Auto nego, speed and duplex) */
 359:Drivers/BSP/Components/dp83848/dp83848.c ****     bcrvalue &= ~(DP83848_BCR_AUTONEGO_EN | DP83848_BCR_SPEED_SELECT | DP83848_BCR_DUPLEX_MODE);
 791              		.loc 1 359 5 is_stmt 1 view .LVU231
 792              		.loc 1 359 14 is_stmt 0 view .LVU232
 793 0018 019B     		ldr	r3, [sp, #4]
 794 001a 23F44453 		bic	r3, r3, #12544
 795 001e 0193     		str	r3, [sp, #4]
 360:Drivers/BSP/Components/dp83848/dp83848.c **** 
 361:Drivers/BSP/Components/dp83848/dp83848.c ****     if(LinkState == DP83848_STATUS_100MBITS_FULLDUPLEX)
 796              		.loc 1 361 5 is_stmt 1 view .LVU233
 797              		.loc 1 361 7 is_stmt 0 view .LVU234
 798 0020 022D     		cmp	r5, #2
 799 0022 10D0     		beq	.L68
 362:Drivers/BSP/Components/dp83848/dp83848.c ****     {
 363:Drivers/BSP/Components/dp83848/dp83848.c ****       bcrvalue |= (DP83848_BCR_SPEED_SELECT | DP83848_BCR_DUPLEX_MODE);
 364:Drivers/BSP/Components/dp83848/dp83848.c ****     }
ARM GAS  /var/folders/n6/c271nzx11xl4r4_m7sqjlt0m0000gn/T//cckOlhJn.s 			page 22


 365:Drivers/BSP/Components/dp83848/dp83848.c ****     else if (LinkState == DP83848_STATUS_100MBITS_HALFDUPLEX)
 800              		.loc 1 365 10 is_stmt 1 view .LVU235
 801              		.loc 1 365 13 is_stmt 0 view .LVU236
 802 0024 032D     		cmp	r5, #3
 803 0026 12D0     		beq	.L69
 366:Drivers/BSP/Components/dp83848/dp83848.c ****     {
 367:Drivers/BSP/Components/dp83848/dp83848.c ****       bcrvalue |= DP83848_BCR_SPEED_SELECT;
 368:Drivers/BSP/Components/dp83848/dp83848.c ****     }
 369:Drivers/BSP/Components/dp83848/dp83848.c ****     else if (LinkState == DP83848_STATUS_10MBITS_FULLDUPLEX)
 804              		.loc 1 369 10 is_stmt 1 view .LVU237
 805              		.loc 1 369 13 is_stmt 0 view .LVU238
 806 0028 042D     		cmp	r5, #4
 807 002a 17D1     		bne	.L65
 370:Drivers/BSP/Components/dp83848/dp83848.c ****     {
 371:Drivers/BSP/Components/dp83848/dp83848.c ****       bcrvalue |= DP83848_BCR_DUPLEX_MODE;
 808              		.loc 1 371 7 is_stmt 1 view .LVU239
 809              		.loc 1 371 16 is_stmt 0 view .LVU240
 810 002c 43F48073 		orr	r3, r3, #256
 811 0030 0193     		str	r3, [sp, #4]
 372:Drivers/BSP/Components/dp83848/dp83848.c ****     }
 373:Drivers/BSP/Components/dp83848/dp83848.c ****     else
 374:Drivers/BSP/Components/dp83848/dp83848.c ****     {
 375:Drivers/BSP/Components/dp83848/dp83848.c ****       /* Wrong link status parameter */
 376:Drivers/BSP/Components/dp83848/dp83848.c ****       status = DP83848_STATUS_ERROR;
 377:Drivers/BSP/Components/dp83848/dp83848.c ****     }
 378:Drivers/BSP/Components/dp83848/dp83848.c ****   }
 379:Drivers/BSP/Components/dp83848/dp83848.c ****   else
 380:Drivers/BSP/Components/dp83848/dp83848.c ****   {
 381:Drivers/BSP/Components/dp83848/dp83848.c ****     status = DP83848_STATUS_READ_ERROR;
 382:Drivers/BSP/Components/dp83848/dp83848.c ****   }
 383:Drivers/BSP/Components/dp83848/dp83848.c **** 
 384:Drivers/BSP/Components/dp83848/dp83848.c ****   if(status == DP83848_STATUS_OK)
 812              		.loc 1 384 3 is_stmt 1 view .LVU241
 813              	.L62:
 385:Drivers/BSP/Components/dp83848/dp83848.c ****   {
 386:Drivers/BSP/Components/dp83848/dp83848.c ****     /* Apply configuration */
 387:Drivers/BSP/Components/dp83848/dp83848.c ****     if(pObj->IO.WriteReg(pObj->DevAddr, DP83848_BCR, bcrvalue) < 0)
 814              		.loc 1 387 5 view .LVU242
 815              		.loc 1 387 16 is_stmt 0 view .LVU243
 816 0032 2369     		ldr	r3, [r4, #16]
 817              		.loc 1 387 8 view .LVU244
 818 0034 019A     		ldr	r2, [sp, #4]
 819 0036 0021     		movs	r1, #0
 820 0038 2068     		ldr	r0, [r4]
 821 003a 9847     		blx	r3
 822              	.LVL64:
 823              		.loc 1 387 7 discriminator 1 view .LVU245
 824 003c 0028     		cmp	r0, #0
 825 003e 10DB     		blt	.L66
 826 0040 0020     		movs	r0, #0
 827              	.LVL65:
 828              	.L59:
 388:Drivers/BSP/Components/dp83848/dp83848.c ****     {
 389:Drivers/BSP/Components/dp83848/dp83848.c ****       status = DP83848_STATUS_WRITE_ERROR;
 390:Drivers/BSP/Components/dp83848/dp83848.c ****     }
 391:Drivers/BSP/Components/dp83848/dp83848.c ****   }
 392:Drivers/BSP/Components/dp83848/dp83848.c **** 
ARM GAS  /var/folders/n6/c271nzx11xl4r4_m7sqjlt0m0000gn/T//cckOlhJn.s 			page 23


 393:Drivers/BSP/Components/dp83848/dp83848.c ****   return status;
 394:Drivers/BSP/Components/dp83848/dp83848.c **** }
 829              		.loc 1 394 1 view .LVU246
 830 0042 03B0     		add	sp, sp, #12
 831              		.cfi_remember_state
 832              		.cfi_def_cfa_offset 12
 833              		@ sp needed
 834 0044 30BD     		pop	{r4, r5, pc}
 835              	.LVL66:
 836              	.L68:
 837              		.cfi_restore_state
 363:Drivers/BSP/Components/dp83848/dp83848.c ****     }
 838              		.loc 1 363 7 is_stmt 1 view .LVU247
 363:Drivers/BSP/Components/dp83848/dp83848.c ****     }
 839              		.loc 1 363 16 is_stmt 0 view .LVU248
 840 0046 43F40453 		orr	r3, r3, #8448
 841 004a 0193     		str	r3, [sp, #4]
 384:Drivers/BSP/Components/dp83848/dp83848.c ****   {
 842              		.loc 1 384 3 is_stmt 1 view .LVU249
 843 004c F1E7     		b	.L62
 844              	.L69:
 367:Drivers/BSP/Components/dp83848/dp83848.c ****     }
 845              		.loc 1 367 7 view .LVU250
 367:Drivers/BSP/Components/dp83848/dp83848.c ****     }
 846              		.loc 1 367 16 is_stmt 0 view .LVU251
 847 004e 43F40053 		orr	r3, r3, #8192
 848 0052 0193     		str	r3, [sp, #4]
 384:Drivers/BSP/Components/dp83848/dp83848.c ****   {
 849              		.loc 1 384 3 is_stmt 1 view .LVU252
 850 0054 EDE7     		b	.L62
 851              	.L64:
 381:Drivers/BSP/Components/dp83848/dp83848.c ****   }
 852              		.loc 1 381 12 is_stmt 0 view .LVU253
 853 0056 6FF00400 		mvn	r0, #4
 854 005a F2E7     		b	.L59
 855              	.L65:
 376:Drivers/BSP/Components/dp83848/dp83848.c ****     }
 856              		.loc 1 376 14 view .LVU254
 857 005c 4FF0FF30 		mov	r0, #-1
 858 0060 EFE7     		b	.L59
 859              	.L66:
 389:Drivers/BSP/Components/dp83848/dp83848.c ****     }
 860              		.loc 1 389 14 view .LVU255
 861 0062 6FF00300 		mvn	r0, #3
 862              	.LVL67:
 393:Drivers/BSP/Components/dp83848/dp83848.c **** }
 863              		.loc 1 393 3 is_stmt 1 view .LVU256
 393:Drivers/BSP/Components/dp83848/dp83848.c **** }
 864              		.loc 1 393 10 is_stmt 0 view .LVU257
 865 0066 ECE7     		b	.L59
 866              		.cfi_endproc
 867              	.LFE7:
 869              		.section	.text.DP83848_EnableLoopbackMode,"ax",%progbits
 870              		.align	1
 871              		.global	DP83848_EnableLoopbackMode
 872              		.syntax unified
 873              		.thumb
ARM GAS  /var/folders/n6/c271nzx11xl4r4_m7sqjlt0m0000gn/T//cckOlhJn.s 			page 24


 874              		.thumb_func
 876              	DP83848_EnableLoopbackMode:
 877              	.LVL68:
 878              	.LFB8:
 395:Drivers/BSP/Components/dp83848/dp83848.c **** 
 396:Drivers/BSP/Components/dp83848/dp83848.c **** /**
 397:Drivers/BSP/Components/dp83848/dp83848.c ****   * @brief  Enable loopback mode.
 398:Drivers/BSP/Components/dp83848/dp83848.c ****   * @param  pObj: Pointer to device object.
 399:Drivers/BSP/Components/dp83848/dp83848.c ****   * @retval DP83848_STATUS_OK  if OK
 400:Drivers/BSP/Components/dp83848/dp83848.c ****   *         DP83848_STATUS_READ_ERROR if connot read register
 401:Drivers/BSP/Components/dp83848/dp83848.c ****   *         DP83848_STATUS_WRITE_ERROR if connot write to register
 402:Drivers/BSP/Components/dp83848/dp83848.c ****   */
 403:Drivers/BSP/Components/dp83848/dp83848.c **** int32_t DP83848_EnableLoopbackMode(dp83848_Object_t *pObj)
 404:Drivers/BSP/Components/dp83848/dp83848.c **** {
 879              		.loc 1 404 1 is_stmt 1 view -0
 880              		.cfi_startproc
 881              		@ args = 0, pretend = 0, frame = 8
 882              		@ frame_needed = 0, uses_anonymous_args = 0
 883              		.loc 1 404 1 is_stmt 0 view .LVU259
 884 0000 10B5     		push	{r4, lr}
 885              		.cfi_def_cfa_offset 8
 886              		.cfi_offset 4, -8
 887              		.cfi_offset 14, -4
 888 0002 82B0     		sub	sp, sp, #8
 889              		.cfi_def_cfa_offset 16
 890 0004 0446     		mov	r4, r0
 405:Drivers/BSP/Components/dp83848/dp83848.c ****   uint32_t readval = 0;
 891              		.loc 1 405 3 is_stmt 1 view .LVU260
 892              		.loc 1 405 12 is_stmt 0 view .LVU261
 893 0006 0021     		movs	r1, #0
 894 0008 0191     		str	r1, [sp, #4]
 406:Drivers/BSP/Components/dp83848/dp83848.c ****   int32_t status = DP83848_STATUS_OK;
 895              		.loc 1 406 3 is_stmt 1 view .LVU262
 896              	.LVL69:
 407:Drivers/BSP/Components/dp83848/dp83848.c **** 
 408:Drivers/BSP/Components/dp83848/dp83848.c ****   if(pObj->IO.ReadReg(pObj->DevAddr, DP83848_BCR, &readval) >= 0)
 897              		.loc 1 408 3 view .LVU263
 898              		.loc 1 408 14 is_stmt 0 view .LVU264
 899 000a 4369     		ldr	r3, [r0, #20]
 900              		.loc 1 408 6 view .LVU265
 901 000c 01AA     		add	r2, sp, #4
 902 000e 0068     		ldr	r0, [r0]
 903              	.LVL70:
 904              		.loc 1 408 6 view .LVU266
 905 0010 9847     		blx	r3
 906              	.LVL71:
 907              		.loc 1 408 5 discriminator 1 view .LVU267
 908 0012 0028     		cmp	r0, #0
 909 0014 0CDB     		blt	.L72
 409:Drivers/BSP/Components/dp83848/dp83848.c ****   {
 410:Drivers/BSP/Components/dp83848/dp83848.c ****     readval |= DP83848_BCR_LOOPBACK;
 910              		.loc 1 410 5 is_stmt 1 view .LVU268
 911              		.loc 1 410 13 is_stmt 0 view .LVU269
 912 0016 019A     		ldr	r2, [sp, #4]
 913 0018 42F48042 		orr	r2, r2, #16384
 914 001c 0192     		str	r2, [sp, #4]
 411:Drivers/BSP/Components/dp83848/dp83848.c **** 
ARM GAS  /var/folders/n6/c271nzx11xl4r4_m7sqjlt0m0000gn/T//cckOlhJn.s 			page 25


 412:Drivers/BSP/Components/dp83848/dp83848.c ****     /* Apply configuration */
 413:Drivers/BSP/Components/dp83848/dp83848.c ****     if(pObj->IO.WriteReg(pObj->DevAddr, DP83848_BCR, readval) < 0)
 915              		.loc 1 413 5 is_stmt 1 view .LVU270
 916              		.loc 1 413 16 is_stmt 0 view .LVU271
 917 001e 2369     		ldr	r3, [r4, #16]
 918              		.loc 1 413 8 view .LVU272
 919 0020 0021     		movs	r1, #0
 920 0022 2068     		ldr	r0, [r4]
 921 0024 9847     		blx	r3
 922              	.LVL72:
 923              		.loc 1 413 7 discriminator 1 view .LVU273
 924 0026 0028     		cmp	r0, #0
 925 0028 05DB     		blt	.L73
 406:Drivers/BSP/Components/dp83848/dp83848.c **** 
 926              		.loc 1 406 11 view .LVU274
 927 002a 0020     		movs	r0, #0
 928              	.LVL73:
 929              	.L70:
 414:Drivers/BSP/Components/dp83848/dp83848.c ****     {
 415:Drivers/BSP/Components/dp83848/dp83848.c ****       status = DP83848_STATUS_WRITE_ERROR;
 416:Drivers/BSP/Components/dp83848/dp83848.c ****     }
 417:Drivers/BSP/Components/dp83848/dp83848.c ****   }
 418:Drivers/BSP/Components/dp83848/dp83848.c ****   else
 419:Drivers/BSP/Components/dp83848/dp83848.c ****   {
 420:Drivers/BSP/Components/dp83848/dp83848.c ****     status = DP83848_STATUS_READ_ERROR;
 421:Drivers/BSP/Components/dp83848/dp83848.c ****   }
 422:Drivers/BSP/Components/dp83848/dp83848.c **** 
 423:Drivers/BSP/Components/dp83848/dp83848.c ****   return status;
 424:Drivers/BSP/Components/dp83848/dp83848.c **** }
 930              		.loc 1 424 1 view .LVU275
 931 002c 02B0     		add	sp, sp, #8
 932              		.cfi_remember_state
 933              		.cfi_def_cfa_offset 8
 934              		@ sp needed
 935 002e 10BD     		pop	{r4, pc}
 936              	.LVL74:
 937              	.L72:
 938              		.cfi_restore_state
 420:Drivers/BSP/Components/dp83848/dp83848.c ****   }
 939              		.loc 1 420 12 view .LVU276
 940 0030 6FF00400 		mvn	r0, #4
 941 0034 FAE7     		b	.L70
 942              	.L73:
 415:Drivers/BSP/Components/dp83848/dp83848.c ****     }
 943              		.loc 1 415 14 view .LVU277
 944 0036 6FF00300 		mvn	r0, #3
 945              	.LVL75:
 423:Drivers/BSP/Components/dp83848/dp83848.c **** }
 946              		.loc 1 423 3 is_stmt 1 view .LVU278
 423:Drivers/BSP/Components/dp83848/dp83848.c **** }
 947              		.loc 1 423 10 is_stmt 0 view .LVU279
 948 003a F7E7     		b	.L70
 949              		.cfi_endproc
 950              	.LFE8:
 952              		.section	.text.DP83848_DisableLoopbackMode,"ax",%progbits
 953              		.align	1
 954              		.global	DP83848_DisableLoopbackMode
ARM GAS  /var/folders/n6/c271nzx11xl4r4_m7sqjlt0m0000gn/T//cckOlhJn.s 			page 26


 955              		.syntax unified
 956              		.thumb
 957              		.thumb_func
 959              	DP83848_DisableLoopbackMode:
 960              	.LVL76:
 961              	.LFB9:
 425:Drivers/BSP/Components/dp83848/dp83848.c **** 
 426:Drivers/BSP/Components/dp83848/dp83848.c **** /**
 427:Drivers/BSP/Components/dp83848/dp83848.c ****   * @brief  Disable loopback mode.
 428:Drivers/BSP/Components/dp83848/dp83848.c ****   * @param  pObj: Pointer to device object.
 429:Drivers/BSP/Components/dp83848/dp83848.c ****   * @retval DP83848_STATUS_OK  if OK
 430:Drivers/BSP/Components/dp83848/dp83848.c ****   *         DP83848_STATUS_READ_ERROR if connot read register
 431:Drivers/BSP/Components/dp83848/dp83848.c ****   *         DP83848_STATUS_WRITE_ERROR if connot write to register
 432:Drivers/BSP/Components/dp83848/dp83848.c ****   */
 433:Drivers/BSP/Components/dp83848/dp83848.c **** int32_t DP83848_DisableLoopbackMode(dp83848_Object_t *pObj)
 434:Drivers/BSP/Components/dp83848/dp83848.c **** {
 962              		.loc 1 434 1 is_stmt 1 view -0
 963              		.cfi_startproc
 964              		@ args = 0, pretend = 0, frame = 8
 965              		@ frame_needed = 0, uses_anonymous_args = 0
 966              		.loc 1 434 1 is_stmt 0 view .LVU281
 967 0000 10B5     		push	{r4, lr}
 968              		.cfi_def_cfa_offset 8
 969              		.cfi_offset 4, -8
 970              		.cfi_offset 14, -4
 971 0002 82B0     		sub	sp, sp, #8
 972              		.cfi_def_cfa_offset 16
 973 0004 0446     		mov	r4, r0
 435:Drivers/BSP/Components/dp83848/dp83848.c ****   uint32_t readval = 0;
 974              		.loc 1 435 3 is_stmt 1 view .LVU282
 975              		.loc 1 435 12 is_stmt 0 view .LVU283
 976 0006 0021     		movs	r1, #0
 977 0008 0191     		str	r1, [sp, #4]
 436:Drivers/BSP/Components/dp83848/dp83848.c ****   int32_t status = DP83848_STATUS_OK;
 978              		.loc 1 436 3 is_stmt 1 view .LVU284
 979              	.LVL77:
 437:Drivers/BSP/Components/dp83848/dp83848.c **** 
 438:Drivers/BSP/Components/dp83848/dp83848.c ****   if(pObj->IO.ReadReg(pObj->DevAddr, DP83848_BCR, &readval) >= 0)
 980              		.loc 1 438 3 view .LVU285
 981              		.loc 1 438 14 is_stmt 0 view .LVU286
 982 000a 4369     		ldr	r3, [r0, #20]
 983              		.loc 1 438 6 view .LVU287
 984 000c 01AA     		add	r2, sp, #4
 985 000e 0068     		ldr	r0, [r0]
 986              	.LVL78:
 987              		.loc 1 438 6 view .LVU288
 988 0010 9847     		blx	r3
 989              	.LVL79:
 990              		.loc 1 438 5 discriminator 1 view .LVU289
 991 0012 0028     		cmp	r0, #0
 992 0014 0CDB     		blt	.L77
 439:Drivers/BSP/Components/dp83848/dp83848.c ****   {
 440:Drivers/BSP/Components/dp83848/dp83848.c ****     readval &= ~DP83848_BCR_LOOPBACK;
 993              		.loc 1 440 5 is_stmt 1 view .LVU290
 994              		.loc 1 440 13 is_stmt 0 view .LVU291
 995 0016 019A     		ldr	r2, [sp, #4]
 996 0018 22F48042 		bic	r2, r2, #16384
ARM GAS  /var/folders/n6/c271nzx11xl4r4_m7sqjlt0m0000gn/T//cckOlhJn.s 			page 27


 997 001c 0192     		str	r2, [sp, #4]
 441:Drivers/BSP/Components/dp83848/dp83848.c **** 
 442:Drivers/BSP/Components/dp83848/dp83848.c ****     /* Apply configuration */
 443:Drivers/BSP/Components/dp83848/dp83848.c ****     if(pObj->IO.WriteReg(pObj->DevAddr, DP83848_BCR, readval) < 0)
 998              		.loc 1 443 5 is_stmt 1 view .LVU292
 999              		.loc 1 443 16 is_stmt 0 view .LVU293
 1000 001e 2369     		ldr	r3, [r4, #16]
 1001              		.loc 1 443 8 view .LVU294
 1002 0020 0021     		movs	r1, #0
 1003 0022 2068     		ldr	r0, [r4]
 1004 0024 9847     		blx	r3
 1005              	.LVL80:
 1006              		.loc 1 443 7 discriminator 1 view .LVU295
 1007 0026 0028     		cmp	r0, #0
 1008 0028 05DB     		blt	.L78
 436:Drivers/BSP/Components/dp83848/dp83848.c **** 
 1009              		.loc 1 436 11 view .LVU296
 1010 002a 0020     		movs	r0, #0
 1011              	.LVL81:
 1012              	.L75:
 444:Drivers/BSP/Components/dp83848/dp83848.c ****     {
 445:Drivers/BSP/Components/dp83848/dp83848.c ****       status =  DP83848_STATUS_WRITE_ERROR;
 446:Drivers/BSP/Components/dp83848/dp83848.c ****     }
 447:Drivers/BSP/Components/dp83848/dp83848.c ****   }
 448:Drivers/BSP/Components/dp83848/dp83848.c ****   else
 449:Drivers/BSP/Components/dp83848/dp83848.c ****   {
 450:Drivers/BSP/Components/dp83848/dp83848.c ****     status = DP83848_STATUS_READ_ERROR;
 451:Drivers/BSP/Components/dp83848/dp83848.c ****   }
 452:Drivers/BSP/Components/dp83848/dp83848.c **** 
 453:Drivers/BSP/Components/dp83848/dp83848.c ****   return status;
 454:Drivers/BSP/Components/dp83848/dp83848.c **** }
 1013              		.loc 1 454 1 view .LVU297
 1014 002c 02B0     		add	sp, sp, #8
 1015              		.cfi_remember_state
 1016              		.cfi_def_cfa_offset 8
 1017              		@ sp needed
 1018 002e 10BD     		pop	{r4, pc}
 1019              	.LVL82:
 1020              	.L77:
 1021              		.cfi_restore_state
 450:Drivers/BSP/Components/dp83848/dp83848.c ****   }
 1022              		.loc 1 450 12 view .LVU298
 1023 0030 6FF00400 		mvn	r0, #4
 1024 0034 FAE7     		b	.L75
 1025              	.L78:
 445:Drivers/BSP/Components/dp83848/dp83848.c ****     }
 1026              		.loc 1 445 14 view .LVU299
 1027 0036 6FF00300 		mvn	r0, #3
 1028              	.LVL83:
 453:Drivers/BSP/Components/dp83848/dp83848.c **** }
 1029              		.loc 1 453 3 is_stmt 1 view .LVU300
 453:Drivers/BSP/Components/dp83848/dp83848.c **** }
 1030              		.loc 1 453 10 is_stmt 0 view .LVU301
 1031 003a F7E7     		b	.L75
 1032              		.cfi_endproc
 1033              	.LFE9:
 1035              		.section	.text.DP83848_EnableIT,"ax",%progbits
ARM GAS  /var/folders/n6/c271nzx11xl4r4_m7sqjlt0m0000gn/T//cckOlhJn.s 			page 28


 1036              		.align	1
 1037              		.global	DP83848_EnableIT
 1038              		.syntax unified
 1039              		.thumb
 1040              		.thumb_func
 1042              	DP83848_EnableIT:
 1043              	.LVL84:
 1044              	.LFB10:
 455:Drivers/BSP/Components/dp83848/dp83848.c **** 
 456:Drivers/BSP/Components/dp83848/dp83848.c **** /**
 457:Drivers/BSP/Components/dp83848/dp83848.c ****   * @brief  Enable IT source.
 458:Drivers/BSP/Components/dp83848/dp83848.c ****   * @param  pObj: Pointer to device object.
 459:Drivers/BSP/Components/dp83848/dp83848.c ****   * @param  Interrupt: IT source to be enabled
 460:Drivers/BSP/Components/dp83848/dp83848.c ****   *         should be a value or a combination of the following:
 461:Drivers/BSP/Components/dp83848/dp83848.c ****   *         DP83848_WOL_IT
 462:Drivers/BSP/Components/dp83848/dp83848.c ****   *         DP83848_ENERGYON_IT
 463:Drivers/BSP/Components/dp83848/dp83848.c ****   *         DP83848_AUTONEGO_COMPLETE_IT
 464:Drivers/BSP/Components/dp83848/dp83848.c ****   *         DP83848_REMOTE_FAULT_IT
 465:Drivers/BSP/Components/dp83848/dp83848.c ****   *         DP83848_LINK_DOWN_IT
 466:Drivers/BSP/Components/dp83848/dp83848.c ****   *         DP83848_AUTONEGO_LP_ACK_IT
 467:Drivers/BSP/Components/dp83848/dp83848.c ****   *         DP83848_PARALLEL_DETECTION_FAULT_IT
 468:Drivers/BSP/Components/dp83848/dp83848.c ****   *         DP83848_AUTONEGO_PAGE_RECEIVED_IT
 469:Drivers/BSP/Components/dp83848/dp83848.c ****   * @retval DP83848_STATUS_OK  if OK
 470:Drivers/BSP/Components/dp83848/dp83848.c ****   *         DP83848_STATUS_READ_ERROR if connot read register
 471:Drivers/BSP/Components/dp83848/dp83848.c ****   *         DP83848_STATUS_WRITE_ERROR if connot write to register
 472:Drivers/BSP/Components/dp83848/dp83848.c ****   */
 473:Drivers/BSP/Components/dp83848/dp83848.c **** int32_t DP83848_EnableIT(dp83848_Object_t *pObj, uint32_t Interrupt)
 474:Drivers/BSP/Components/dp83848/dp83848.c **** {
 1045              		.loc 1 474 1 is_stmt 1 view -0
 1046              		.cfi_startproc
 1047              		@ args = 0, pretend = 0, frame = 8
 1048              		@ frame_needed = 0, uses_anonymous_args = 0
 1049              		.loc 1 474 1 is_stmt 0 view .LVU303
 1050 0000 30B5     		push	{r4, r5, lr}
 1051              		.cfi_def_cfa_offset 12
 1052              		.cfi_offset 4, -12
 1053              		.cfi_offset 5, -8
 1054              		.cfi_offset 14, -4
 1055 0002 83B0     		sub	sp, sp, #12
 1056              		.cfi_def_cfa_offset 24
 1057 0004 0446     		mov	r4, r0
 1058 0006 0D46     		mov	r5, r1
 475:Drivers/BSP/Components/dp83848/dp83848.c ****   uint32_t readval = 0;
 1059              		.loc 1 475 3 is_stmt 1 view .LVU304
 1060              		.loc 1 475 12 is_stmt 0 view .LVU305
 1061 0008 0023     		movs	r3, #0
 1062 000a 0193     		str	r3, [sp, #4]
 476:Drivers/BSP/Components/dp83848/dp83848.c ****   int32_t status = DP83848_STATUS_OK;
 1063              		.loc 1 476 3 is_stmt 1 view .LVU306
 1064              	.LVL85:
 477:Drivers/BSP/Components/dp83848/dp83848.c **** 
 478:Drivers/BSP/Components/dp83848/dp83848.c ****   if(pObj->IO.ReadReg(pObj->DevAddr, DP83848_IMR, &readval) >= 0)
 1065              		.loc 1 478 3 view .LVU307
 1066              		.loc 1 478 14 is_stmt 0 view .LVU308
 1067 000c 4369     		ldr	r3, [r0, #20]
 1068              		.loc 1 478 6 view .LVU309
 1069 000e 01AA     		add	r2, sp, #4
ARM GAS  /var/folders/n6/c271nzx11xl4r4_m7sqjlt0m0000gn/T//cckOlhJn.s 			page 29


 1070 0010 1121     		movs	r1, #17
 1071              	.LVL86:
 1072              		.loc 1 478 6 view .LVU310
 1073 0012 0068     		ldr	r0, [r0]
 1074              	.LVL87:
 1075              		.loc 1 478 6 view .LVU311
 1076 0014 9847     		blx	r3
 1077              	.LVL88:
 1078              		.loc 1 478 5 discriminator 1 view .LVU312
 1079 0016 0028     		cmp	r0, #0
 1080 0018 0CDB     		blt	.L82
 479:Drivers/BSP/Components/dp83848/dp83848.c ****   {
 480:Drivers/BSP/Components/dp83848/dp83848.c ****     readval |= Interrupt;
 1081              		.loc 1 480 5 is_stmt 1 view .LVU313
 1082              		.loc 1 480 13 is_stmt 0 view .LVU314
 1083 001a 019B     		ldr	r3, [sp, #4]
 1084 001c 45EA0302 		orr	r2, r5, r3
 1085 0020 0192     		str	r2, [sp, #4]
 481:Drivers/BSP/Components/dp83848/dp83848.c **** 
 482:Drivers/BSP/Components/dp83848/dp83848.c ****     /* Apply configuration */
 483:Drivers/BSP/Components/dp83848/dp83848.c ****     if(pObj->IO.WriteReg(pObj->DevAddr, DP83848_IMR, readval) < 0)
 1086              		.loc 1 483 5 is_stmt 1 view .LVU315
 1087              		.loc 1 483 16 is_stmt 0 view .LVU316
 1088 0022 2369     		ldr	r3, [r4, #16]
 1089              		.loc 1 483 8 view .LVU317
 1090 0024 1121     		movs	r1, #17
 1091 0026 2068     		ldr	r0, [r4]
 1092 0028 9847     		blx	r3
 1093              	.LVL89:
 1094              		.loc 1 483 7 discriminator 1 view .LVU318
 1095 002a 0028     		cmp	r0, #0
 1096 002c 05DB     		blt	.L83
 476:Drivers/BSP/Components/dp83848/dp83848.c **** 
 1097              		.loc 1 476 11 view .LVU319
 1098 002e 0020     		movs	r0, #0
 1099              	.LVL90:
 1100              	.L80:
 484:Drivers/BSP/Components/dp83848/dp83848.c ****     {
 485:Drivers/BSP/Components/dp83848/dp83848.c ****       status =  DP83848_STATUS_WRITE_ERROR;
 486:Drivers/BSP/Components/dp83848/dp83848.c ****     }
 487:Drivers/BSP/Components/dp83848/dp83848.c ****   }
 488:Drivers/BSP/Components/dp83848/dp83848.c ****   else
 489:Drivers/BSP/Components/dp83848/dp83848.c ****   {
 490:Drivers/BSP/Components/dp83848/dp83848.c ****     status = DP83848_STATUS_READ_ERROR;
 491:Drivers/BSP/Components/dp83848/dp83848.c ****   }
 492:Drivers/BSP/Components/dp83848/dp83848.c **** 
 493:Drivers/BSP/Components/dp83848/dp83848.c ****   return status;
 494:Drivers/BSP/Components/dp83848/dp83848.c **** }
 1101              		.loc 1 494 1 view .LVU320
 1102 0030 03B0     		add	sp, sp, #12
 1103              		.cfi_remember_state
 1104              		.cfi_def_cfa_offset 12
 1105              		@ sp needed
 1106 0032 30BD     		pop	{r4, r5, pc}
 1107              	.LVL91:
 1108              	.L82:
 1109              		.cfi_restore_state
ARM GAS  /var/folders/n6/c271nzx11xl4r4_m7sqjlt0m0000gn/T//cckOlhJn.s 			page 30


 490:Drivers/BSP/Components/dp83848/dp83848.c ****   }
 1110              		.loc 1 490 12 view .LVU321
 1111 0034 6FF00400 		mvn	r0, #4
 1112 0038 FAE7     		b	.L80
 1113              	.L83:
 485:Drivers/BSP/Components/dp83848/dp83848.c ****     }
 1114              		.loc 1 485 14 view .LVU322
 1115 003a 6FF00300 		mvn	r0, #3
 1116              	.LVL92:
 493:Drivers/BSP/Components/dp83848/dp83848.c **** }
 1117              		.loc 1 493 3 is_stmt 1 view .LVU323
 493:Drivers/BSP/Components/dp83848/dp83848.c **** }
 1118              		.loc 1 493 10 is_stmt 0 view .LVU324
 1119 003e F7E7     		b	.L80
 1120              		.cfi_endproc
 1121              	.LFE10:
 1123              		.section	.text.DP83848_DisableIT,"ax",%progbits
 1124              		.align	1
 1125              		.global	DP83848_DisableIT
 1126              		.syntax unified
 1127              		.thumb
 1128              		.thumb_func
 1130              	DP83848_DisableIT:
 1131              	.LVL93:
 1132              	.LFB11:
 495:Drivers/BSP/Components/dp83848/dp83848.c **** 
 496:Drivers/BSP/Components/dp83848/dp83848.c **** /**
 497:Drivers/BSP/Components/dp83848/dp83848.c ****   * @brief  Disable IT source.
 498:Drivers/BSP/Components/dp83848/dp83848.c ****   * @param  pObj: Pointer to device object.
 499:Drivers/BSP/Components/dp83848/dp83848.c ****   * @param  Interrupt: IT source to be disabled
 500:Drivers/BSP/Components/dp83848/dp83848.c ****   *         should be a value or a combination of the following:
 501:Drivers/BSP/Components/dp83848/dp83848.c ****   *         DP83848_WOL_IT
 502:Drivers/BSP/Components/dp83848/dp83848.c ****   *         DP83848_ENERGYON_IT
 503:Drivers/BSP/Components/dp83848/dp83848.c ****   *         DP83848_AUTONEGO_COMPLETE_IT
 504:Drivers/BSP/Components/dp83848/dp83848.c ****   *         DP83848_REMOTE_FAULT_IT
 505:Drivers/BSP/Components/dp83848/dp83848.c ****   *         DP83848_LINK_DOWN_IT
 506:Drivers/BSP/Components/dp83848/dp83848.c ****   *         DP83848_AUTONEGO_LP_ACK_IT
 507:Drivers/BSP/Components/dp83848/dp83848.c ****   *         DP83848_PARALLEL_DETECTION_FAULT_IT
 508:Drivers/BSP/Components/dp83848/dp83848.c ****   *         DP83848_AUTONEGO_PAGE_RECEIVED_IT
 509:Drivers/BSP/Components/dp83848/dp83848.c ****   * @retval DP83848_STATUS_OK  if OK
 510:Drivers/BSP/Components/dp83848/dp83848.c ****   *         DP83848_STATUS_READ_ERROR if connot read register
 511:Drivers/BSP/Components/dp83848/dp83848.c ****   *         DP83848_STATUS_WRITE_ERROR if connot write to register
 512:Drivers/BSP/Components/dp83848/dp83848.c ****   */
 513:Drivers/BSP/Components/dp83848/dp83848.c **** int32_t DP83848_DisableIT(dp83848_Object_t *pObj, uint32_t Interrupt)
 514:Drivers/BSP/Components/dp83848/dp83848.c **** {
 1133              		.loc 1 514 1 is_stmt 1 view -0
 1134              		.cfi_startproc
 1135              		@ args = 0, pretend = 0, frame = 8
 1136              		@ frame_needed = 0, uses_anonymous_args = 0
 1137              		.loc 1 514 1 is_stmt 0 view .LVU326
 1138 0000 30B5     		push	{r4, r5, lr}
 1139              		.cfi_def_cfa_offset 12
 1140              		.cfi_offset 4, -12
 1141              		.cfi_offset 5, -8
 1142              		.cfi_offset 14, -4
 1143 0002 83B0     		sub	sp, sp, #12
 1144              		.cfi_def_cfa_offset 24
ARM GAS  /var/folders/n6/c271nzx11xl4r4_m7sqjlt0m0000gn/T//cckOlhJn.s 			page 31


 1145 0004 0446     		mov	r4, r0
 1146 0006 0D46     		mov	r5, r1
 515:Drivers/BSP/Components/dp83848/dp83848.c ****   uint32_t readval = 0;
 1147              		.loc 1 515 3 is_stmt 1 view .LVU327
 1148              		.loc 1 515 12 is_stmt 0 view .LVU328
 1149 0008 0023     		movs	r3, #0
 1150 000a 0193     		str	r3, [sp, #4]
 516:Drivers/BSP/Components/dp83848/dp83848.c ****   int32_t status = DP83848_STATUS_OK;
 1151              		.loc 1 516 3 is_stmt 1 view .LVU329
 1152              	.LVL94:
 517:Drivers/BSP/Components/dp83848/dp83848.c **** 
 518:Drivers/BSP/Components/dp83848/dp83848.c ****   if(pObj->IO.ReadReg(pObj->DevAddr, DP83848_IMR, &readval) >= 0)
 1153              		.loc 1 518 3 view .LVU330
 1154              		.loc 1 518 14 is_stmt 0 view .LVU331
 1155 000c 4369     		ldr	r3, [r0, #20]
 1156              		.loc 1 518 6 view .LVU332
 1157 000e 01AA     		add	r2, sp, #4
 1158 0010 1121     		movs	r1, #17
 1159              	.LVL95:
 1160              		.loc 1 518 6 view .LVU333
 1161 0012 0068     		ldr	r0, [r0]
 1162              	.LVL96:
 1163              		.loc 1 518 6 view .LVU334
 1164 0014 9847     		blx	r3
 1165              	.LVL97:
 1166              		.loc 1 518 5 discriminator 1 view .LVU335
 1167 0016 0028     		cmp	r0, #0
 1168 0018 0CDB     		blt	.L87
 519:Drivers/BSP/Components/dp83848/dp83848.c ****   {
 520:Drivers/BSP/Components/dp83848/dp83848.c ****     readval &= ~Interrupt;
 1169              		.loc 1 520 5 is_stmt 1 view .LVU336
 1170              		.loc 1 520 13 is_stmt 0 view .LVU337
 1171 001a 019A     		ldr	r2, [sp, #4]
 1172 001c 22EA0502 		bic	r2, r2, r5
 1173 0020 0192     		str	r2, [sp, #4]
 521:Drivers/BSP/Components/dp83848/dp83848.c **** 
 522:Drivers/BSP/Components/dp83848/dp83848.c ****     /* Apply configuration */
 523:Drivers/BSP/Components/dp83848/dp83848.c ****     if(pObj->IO.WriteReg(pObj->DevAddr, DP83848_IMR, readval) < 0)
 1174              		.loc 1 523 5 is_stmt 1 view .LVU338
 1175              		.loc 1 523 16 is_stmt 0 view .LVU339
 1176 0022 2369     		ldr	r3, [r4, #16]
 1177              		.loc 1 523 8 view .LVU340
 1178 0024 1121     		movs	r1, #17
 1179 0026 2068     		ldr	r0, [r4]
 1180 0028 9847     		blx	r3
 1181              	.LVL98:
 1182              		.loc 1 523 7 discriminator 1 view .LVU341
 1183 002a 0028     		cmp	r0, #0
 1184 002c 05DB     		blt	.L88
 516:Drivers/BSP/Components/dp83848/dp83848.c **** 
 1185              		.loc 1 516 11 view .LVU342
 1186 002e 0020     		movs	r0, #0
 1187              	.LVL99:
 1188              	.L85:
 524:Drivers/BSP/Components/dp83848/dp83848.c ****     {
 525:Drivers/BSP/Components/dp83848/dp83848.c ****       status = DP83848_STATUS_WRITE_ERROR;
 526:Drivers/BSP/Components/dp83848/dp83848.c ****     }
ARM GAS  /var/folders/n6/c271nzx11xl4r4_m7sqjlt0m0000gn/T//cckOlhJn.s 			page 32


 527:Drivers/BSP/Components/dp83848/dp83848.c ****   }
 528:Drivers/BSP/Components/dp83848/dp83848.c ****   else
 529:Drivers/BSP/Components/dp83848/dp83848.c ****   {
 530:Drivers/BSP/Components/dp83848/dp83848.c ****     status = DP83848_STATUS_READ_ERROR;
 531:Drivers/BSP/Components/dp83848/dp83848.c ****   }
 532:Drivers/BSP/Components/dp83848/dp83848.c **** 
 533:Drivers/BSP/Components/dp83848/dp83848.c ****   return status;
 534:Drivers/BSP/Components/dp83848/dp83848.c **** }
 1189              		.loc 1 534 1 view .LVU343
 1190 0030 03B0     		add	sp, sp, #12
 1191              		.cfi_remember_state
 1192              		.cfi_def_cfa_offset 12
 1193              		@ sp needed
 1194 0032 30BD     		pop	{r4, r5, pc}
 1195              	.LVL100:
 1196              	.L87:
 1197              		.cfi_restore_state
 530:Drivers/BSP/Components/dp83848/dp83848.c ****   }
 1198              		.loc 1 530 12 view .LVU344
 1199 0034 6FF00400 		mvn	r0, #4
 1200 0038 FAE7     		b	.L85
 1201              	.L88:
 525:Drivers/BSP/Components/dp83848/dp83848.c ****     }
 1202              		.loc 1 525 14 view .LVU345
 1203 003a 6FF00300 		mvn	r0, #3
 1204              	.LVL101:
 533:Drivers/BSP/Components/dp83848/dp83848.c **** }
 1205              		.loc 1 533 3 is_stmt 1 view .LVU346
 533:Drivers/BSP/Components/dp83848/dp83848.c **** }
 1206              		.loc 1 533 10 is_stmt 0 view .LVU347
 1207 003e F7E7     		b	.L85
 1208              		.cfi_endproc
 1209              	.LFE11:
 1211              		.section	.text.DP83848_ClearIT,"ax",%progbits
 1212              		.align	1
 1213              		.global	DP83848_ClearIT
 1214              		.syntax unified
 1215              		.thumb
 1216              		.thumb_func
 1218              	DP83848_ClearIT:
 1219              	.LVL102:
 1220              	.LFB12:
 535:Drivers/BSP/Components/dp83848/dp83848.c **** 
 536:Drivers/BSP/Components/dp83848/dp83848.c **** /**
 537:Drivers/BSP/Components/dp83848/dp83848.c ****   * @brief  Clear IT flag.
 538:Drivers/BSP/Components/dp83848/dp83848.c ****   * @param  pObj: Pointer to device object.
 539:Drivers/BSP/Components/dp83848/dp83848.c ****   * @param  Interrupt: IT flag to be cleared
 540:Drivers/BSP/Components/dp83848/dp83848.c ****   *         should be a value or a combination of the following:
 541:Drivers/BSP/Components/dp83848/dp83848.c ****   *         DP83848_WOL_IT
 542:Drivers/BSP/Components/dp83848/dp83848.c ****   *         DP83848_ENERGYON_IT
 543:Drivers/BSP/Components/dp83848/dp83848.c ****   *         DP83848_AUTONEGO_COMPLETE_IT
 544:Drivers/BSP/Components/dp83848/dp83848.c ****   *         DP83848_REMOTE_FAULT_IT
 545:Drivers/BSP/Components/dp83848/dp83848.c ****   *         DP83848_LINK_DOWN_IT
 546:Drivers/BSP/Components/dp83848/dp83848.c ****   *         DP83848_AUTONEGO_LP_ACK_IT
 547:Drivers/BSP/Components/dp83848/dp83848.c ****   *         DP83848_PARALLEL_DETECTION_FAULT_IT
 548:Drivers/BSP/Components/dp83848/dp83848.c ****   *         DP83848_AUTONEGO_PAGE_RECEIVED_IT
 549:Drivers/BSP/Components/dp83848/dp83848.c ****   * @retval DP83848_STATUS_OK  if OK
ARM GAS  /var/folders/n6/c271nzx11xl4r4_m7sqjlt0m0000gn/T//cckOlhJn.s 			page 33


 550:Drivers/BSP/Components/dp83848/dp83848.c ****   *         DP83848_STATUS_READ_ERROR if connot read register
 551:Drivers/BSP/Components/dp83848/dp83848.c ****   */
 552:Drivers/BSP/Components/dp83848/dp83848.c **** int32_t  DP83848_ClearIT(dp83848_Object_t *pObj, uint32_t Interrupt)
 553:Drivers/BSP/Components/dp83848/dp83848.c **** {
 1221              		.loc 1 553 1 is_stmt 1 view -0
 1222              		.cfi_startproc
 1223              		@ args = 0, pretend = 0, frame = 8
 1224              		@ frame_needed = 0, uses_anonymous_args = 0
 1225              		.loc 1 553 1 is_stmt 0 view .LVU349
 1226 0000 00B5     		push	{lr}
 1227              		.cfi_def_cfa_offset 4
 1228              		.cfi_offset 14, -4
 1229 0002 83B0     		sub	sp, sp, #12
 1230              		.cfi_def_cfa_offset 16
 554:Drivers/BSP/Components/dp83848/dp83848.c ****   uint32_t readval = 0;
 1231              		.loc 1 554 3 is_stmt 1 view .LVU350
 1232              		.loc 1 554 12 is_stmt 0 view .LVU351
 1233 0004 0023     		movs	r3, #0
 1234 0006 0193     		str	r3, [sp, #4]
 555:Drivers/BSP/Components/dp83848/dp83848.c ****   int32_t status = DP83848_STATUS_OK;
 1235              		.loc 1 555 3 is_stmt 1 view .LVU352
 1236              	.LVL103:
 556:Drivers/BSP/Components/dp83848/dp83848.c **** 
 557:Drivers/BSP/Components/dp83848/dp83848.c ****   if(pObj->IO.ReadReg(pObj->DevAddr, DP83848_ISFR, &readval) < 0)
 1237              		.loc 1 557 3 view .LVU353
 1238              		.loc 1 557 14 is_stmt 0 view .LVU354
 1239 0008 4369     		ldr	r3, [r0, #20]
 1240              		.loc 1 557 6 view .LVU355
 1241 000a 01AA     		add	r2, sp, #4
 1242 000c 1221     		movs	r1, #18
 1243              	.LVL104:
 1244              		.loc 1 557 6 view .LVU356
 1245 000e 0068     		ldr	r0, [r0]
 1246              	.LVL105:
 1247              		.loc 1 557 6 view .LVU357
 1248 0010 9847     		blx	r3
 1249              	.LVL106:
 1250              		.loc 1 557 5 discriminator 1 view .LVU358
 1251 0012 0028     		cmp	r0, #0
 1252 0014 03DB     		blt	.L92
 555:Drivers/BSP/Components/dp83848/dp83848.c ****   int32_t status = DP83848_STATUS_OK;
 1253              		.loc 1 555 11 view .LVU359
 1254 0016 0020     		movs	r0, #0
 1255              	.LVL107:
 1256              	.L90:
 558:Drivers/BSP/Components/dp83848/dp83848.c ****   {
 559:Drivers/BSP/Components/dp83848/dp83848.c ****     status =  DP83848_STATUS_READ_ERROR;
 560:Drivers/BSP/Components/dp83848/dp83848.c ****   }
 561:Drivers/BSP/Components/dp83848/dp83848.c **** 
 562:Drivers/BSP/Components/dp83848/dp83848.c ****   return status;
 563:Drivers/BSP/Components/dp83848/dp83848.c **** }
 1257              		.loc 1 563 1 view .LVU360
 1258 0018 03B0     		add	sp, sp, #12
 1259              		.cfi_remember_state
 1260              		.cfi_def_cfa_offset 4
 1261              		@ sp needed
 1262 001a 5DF804FB 		ldr	pc, [sp], #4
ARM GAS  /var/folders/n6/c271nzx11xl4r4_m7sqjlt0m0000gn/T//cckOlhJn.s 			page 34


 1263              	.LVL108:
 1264              	.L92:
 1265              		.cfi_restore_state
 559:Drivers/BSP/Components/dp83848/dp83848.c ****   }
 1266              		.loc 1 559 12 view .LVU361
 1267 001e 6FF00400 		mvn	r0, #4
 1268              	.LVL109:
 562:Drivers/BSP/Components/dp83848/dp83848.c **** }
 1269              		.loc 1 562 3 is_stmt 1 view .LVU362
 562:Drivers/BSP/Components/dp83848/dp83848.c **** }
 1270              		.loc 1 562 10 is_stmt 0 view .LVU363
 1271 0022 F9E7     		b	.L90
 1272              		.cfi_endproc
 1273              	.LFE12:
 1275              		.section	.text.DP83848_GetITStatus,"ax",%progbits
 1276              		.align	1
 1277              		.global	DP83848_GetITStatus
 1278              		.syntax unified
 1279              		.thumb
 1280              		.thumb_func
 1282              	DP83848_GetITStatus:
 1283              	.LVL110:
 1284              	.LFB13:
 564:Drivers/BSP/Components/dp83848/dp83848.c **** 
 565:Drivers/BSP/Components/dp83848/dp83848.c **** /**
 566:Drivers/BSP/Components/dp83848/dp83848.c ****   * @brief  Get IT Flag status.
 567:Drivers/BSP/Components/dp83848/dp83848.c ****   * @param  pObj: Pointer to device object.
 568:Drivers/BSP/Components/dp83848/dp83848.c ****   * @param  Interrupt: IT Flag to be checked,
 569:Drivers/BSP/Components/dp83848/dp83848.c ****   *         should be a value or a combination of the following:
 570:Drivers/BSP/Components/dp83848/dp83848.c ****   *         DP83848_WOL_IT
 571:Drivers/BSP/Components/dp83848/dp83848.c ****   *         DP83848_ENERGYON_IT
 572:Drivers/BSP/Components/dp83848/dp83848.c ****   *         DP83848_AUTONEGO_COMPLETE_IT
 573:Drivers/BSP/Components/dp83848/dp83848.c ****   *         DP83848_REMOTE_FAULT_IT
 574:Drivers/BSP/Components/dp83848/dp83848.c ****   *         DP83848_LINK_DOWN_IT
 575:Drivers/BSP/Components/dp83848/dp83848.c ****   *         DP83848_AUTONEGO_LP_ACK_IT
 576:Drivers/BSP/Components/dp83848/dp83848.c ****   *         DP83848_PARALLEL_DETECTION_FAULT_IT
 577:Drivers/BSP/Components/dp83848/dp83848.c ****   *         DP83848_AUTONEGO_PAGE_RECEIVED_IT
 578:Drivers/BSP/Components/dp83848/dp83848.c ****   * @retval 1 IT flag is SET
 579:Drivers/BSP/Components/dp83848/dp83848.c ****   *         0 IT flag is RESET
 580:Drivers/BSP/Components/dp83848/dp83848.c ****   *         DP83848_STATUS_READ_ERROR if connot read register
 581:Drivers/BSP/Components/dp83848/dp83848.c ****   */
 582:Drivers/BSP/Components/dp83848/dp83848.c **** int32_t DP83848_GetITStatus(dp83848_Object_t *pObj, uint32_t Interrupt)
 583:Drivers/BSP/Components/dp83848/dp83848.c **** {
 1285              		.loc 1 583 1 is_stmt 1 view -0
 1286              		.cfi_startproc
 1287              		@ args = 0, pretend = 0, frame = 8
 1288              		@ frame_needed = 0, uses_anonymous_args = 0
 1289              		.loc 1 583 1 is_stmt 0 view .LVU365
 1290 0000 10B5     		push	{r4, lr}
 1291              		.cfi_def_cfa_offset 8
 1292              		.cfi_offset 4, -8
 1293              		.cfi_offset 14, -4
 1294 0002 82B0     		sub	sp, sp, #8
 1295              		.cfi_def_cfa_offset 16
 1296 0004 0C46     		mov	r4, r1
 584:Drivers/BSP/Components/dp83848/dp83848.c ****   uint32_t readval = 0;
 1297              		.loc 1 584 3 is_stmt 1 view .LVU366
ARM GAS  /var/folders/n6/c271nzx11xl4r4_m7sqjlt0m0000gn/T//cckOlhJn.s 			page 35


 1298              		.loc 1 584 12 is_stmt 0 view .LVU367
 1299 0006 0023     		movs	r3, #0
 1300 0008 0193     		str	r3, [sp, #4]
 585:Drivers/BSP/Components/dp83848/dp83848.c ****   int32_t status = 0;
 1301              		.loc 1 585 3 is_stmt 1 view .LVU368
 1302              	.LVL111:
 586:Drivers/BSP/Components/dp83848/dp83848.c **** 
 587:Drivers/BSP/Components/dp83848/dp83848.c ****   if(pObj->IO.ReadReg(pObj->DevAddr, DP83848_ISFR, &readval) >= 0)
 1303              		.loc 1 587 3 view .LVU369
 1304              		.loc 1 587 14 is_stmt 0 view .LVU370
 1305 000a 4369     		ldr	r3, [r0, #20]
 1306              		.loc 1 587 6 view .LVU371
 1307 000c 01AA     		add	r2, sp, #4
 1308 000e 1221     		movs	r1, #18
 1309              	.LVL112:
 1310              		.loc 1 587 6 view .LVU372
 1311 0010 0068     		ldr	r0, [r0]
 1312              	.LVL113:
 1313              		.loc 1 587 6 view .LVU373
 1314 0012 9847     		blx	r3
 1315              	.LVL114:
 1316              		.loc 1 587 5 discriminator 1 view .LVU374
 1317 0014 0028     		cmp	r0, #0
 1318 0016 07DB     		blt	.L96
 588:Drivers/BSP/Components/dp83848/dp83848.c ****   {
 589:Drivers/BSP/Components/dp83848/dp83848.c ****     status = ((readval & Interrupt) == Interrupt);
 1319              		.loc 1 589 5 is_stmt 1 view .LVU375
 1320              		.loc 1 589 37 is_stmt 0 view .LVU376
 1321 0018 019B     		ldr	r3, [sp, #4]
 1322 001a 34EA0301 		bics	r1, r4, r3
 1323 001e 0CBF     		ite	eq
 1324 0020 0120     		moveq	r0, #1
 1325 0022 0020     		movne	r0, #0
 1326              	.LVL115:
 1327              	.L94:
 590:Drivers/BSP/Components/dp83848/dp83848.c ****   }
 591:Drivers/BSP/Components/dp83848/dp83848.c ****   else
 592:Drivers/BSP/Components/dp83848/dp83848.c ****   {
 593:Drivers/BSP/Components/dp83848/dp83848.c ****     status = DP83848_STATUS_READ_ERROR;
 594:Drivers/BSP/Components/dp83848/dp83848.c ****   }
 595:Drivers/BSP/Components/dp83848/dp83848.c **** 
 596:Drivers/BSP/Components/dp83848/dp83848.c ****   return status;
 597:Drivers/BSP/Components/dp83848/dp83848.c **** }
 1328              		.loc 1 597 1 view .LVU377
 1329 0024 02B0     		add	sp, sp, #8
 1330              		.cfi_remember_state
 1331              		.cfi_def_cfa_offset 8
 1332              		@ sp needed
 1333 0026 10BD     		pop	{r4, pc}
 1334              	.LVL116:
 1335              	.L96:
 1336              		.cfi_restore_state
 593:Drivers/BSP/Components/dp83848/dp83848.c ****   }
 1337              		.loc 1 593 12 view .LVU378
 1338 0028 6FF00400 		mvn	r0, #4
 1339              	.LVL117:
 596:Drivers/BSP/Components/dp83848/dp83848.c **** }
ARM GAS  /var/folders/n6/c271nzx11xl4r4_m7sqjlt0m0000gn/T//cckOlhJn.s 			page 36


 1340              		.loc 1 596 3 is_stmt 1 view .LVU379
 596:Drivers/BSP/Components/dp83848/dp83848.c **** }
 1341              		.loc 1 596 10 is_stmt 0 view .LVU380
 1342 002c FAE7     		b	.L94
 1343              		.cfi_endproc
 1344              	.LFE13:
 1346              		.text
 1347              	.Letext0:
 1348              		.file 2 "/Users/killian/Library/Application Support/Code/User/globalStorage/bmd.stm32-for-vscode/@
 1349              		.file 3 "/Users/killian/Library/Application Support/Code/User/globalStorage/bmd.stm32-for-vscode/@
 1350              		.file 4 "Drivers/BSP/Components/dp83848/dp83848.h"
ARM GAS  /var/folders/n6/c271nzx11xl4r4_m7sqjlt0m0000gn/T//cckOlhJn.s 			page 37

