ARM GAS  /var/folders/n6/c271nzx11xl4r4_m7sqjlt0m0000gn/T//ccGo3Vqh.s 			page 1


   1              		.cpu cortex-m7
   2              		.arch armv7e-m
   3              		.fpu fpv5-d16
   4              		.eabi_attribute 28, 1
   5              		.eabi_attribute 20, 1
   6              		.eabi_attribute 21, 1
   7              		.eabi_attribute 23, 3
   8              		.eabi_attribute 24, 1
   9              		.eabi_attribute 25, 1
  10              		.eabi_attribute 26, 1
  11              		.eabi_attribute 30, 1
  12              		.eabi_attribute 34, 1
  13              		.eabi_attribute 18, 4
  14              		.file	"filtrage.c"
  15              		.text
  16              	.Ltext0:
  17              		.cfi_sections	.debug_frame
  18              		.file 1 "Core/Src/filtrage.c"
  19              		.section	.text.StereoToMono,"ax",%progbits
  20              		.align	1
  21              		.global	StereoToMono
  22              		.syntax unified
  23              		.thumb
  24              		.thumb_func
  26              	StereoToMono:
  27              	.LVL0:
  28              	.LFB177:
   1:Core/Src/filtrage.c **** 
   2:Core/Src/filtrage.c **** #include "filtrage.h"
   3:Core/Src/filtrage.c **** #include "hammingWindow.h"
   4:Core/Src/filtrage.c **** #include "hanningWindow.h"
   5:Core/Src/filtrage.c **** #include "mel_filters.h"
   6:Core/Src/filtrage.c **** #include "fatfs.h"
   7:Core/Src/filtrage.c **** 
   8:Core/Src/filtrage.c **** DMA_HandleTypeDef hdma_memtomem_dma2_stream2;
   9:Core/Src/filtrage.c **** 
  10:Core/Src/filtrage.c **** arm_rfft_fast_instance_f32 FFT_struct;
  11:Core/Src/filtrage.c **** int32_t cReadIndex = FILTRAGE_SIZE;
  12:Core/Src/filtrage.c **** 
  13:Core/Src/filtrage.c **** int16_t distIndex = 0;
  14:Core/Src/filtrage.c **** int16_t rawPCMdata[FILTRAGE_SIZE];
  15:Core/Src/filtrage.c **** int16_t sd_wav_cache[(FILTRAGE_SIZE * 31 / 2 + FILTRAGE_SIZE) * 2];
  16:Core/Src/filtrage.c **** float32_t tmp_buf_1[FILTRAGE_SIZE];
  17:Core/Src/filtrage.c **** float32_t tmp_buf_2[FILTRAGE_SIZE];
  18:Core/Src/filtrage.c **** 
  19:Core/Src/filtrage.c **** uint8_t buffer_run = BUFFER_HALF_FIRST;
  20:Core/Src/filtrage.c **** uint8_t mel_indice = 0;
  21:Core/Src/filtrage.c **** uint32_t wav_indice = 0;
  22:Core/Src/filtrage.c **** 
  23:Core/Src/filtrage.c **** uint8_t StereoToMono(int16_t *pOut, int16_t *pIn, uint32_t size)
  24:Core/Src/filtrage.c **** {
  29              		.loc 1 24 1 view -0
  30              		.cfi_startproc
  31              		@ args = 0, pretend = 0, frame = 0
  32              		@ frame_needed = 0, uses_anonymous_args = 0
  25:Core/Src/filtrage.c ****     uint32_t i = 0;
  33              		.loc 1 25 5 view .LVU1
ARM GAS  /var/folders/n6/c271nzx11xl4r4_m7sqjlt0m0000gn/T//ccGo3Vqh.s 			page 2


  26:Core/Src/filtrage.c **** 
  27:Core/Src/filtrage.c ****     if (pIn == NULL || pOut == NULL || size == 0)
  34              		.loc 1 27 5 view .LVU2
  35              		.loc 1 27 8 is_stmt 0 view .LVU3
  36 0000 0028     		cmp	r0, #0
  37 0002 18BF     		it	ne
  38 0004 0029     		cmpne	r1, #0
  39 0006 11D0     		beq	.L5
  24:Core/Src/filtrage.c ****     uint32_t i = 0;
  40              		.loc 1 24 1 view .LVU4
  41 0008 00B5     		push	{lr}
  42              		.cfi_def_cfa_offset 4
  43              		.cfi_offset 14, -4
  44 000a 8E46     		mov	lr, r1
  45 000c 8446     		mov	ip, r0
  46              		.loc 1 27 37 discriminator 1 view .LVU5
  47 000e 7AB1     		cbz	r2, .L6
  28:Core/Src/filtrage.c ****     {
  29:Core/Src/filtrage.c ****         return STEREO_TO_MONO_ERROR;
  30:Core/Src/filtrage.c ****     }
  31:Core/Src/filtrage.c **** 
  32:Core/Src/filtrage.c ****     for (i = 0; i < size; i += 2)
  48              		.loc 1 32 12 view .LVU6
  49 0010 0023     		movs	r3, #0
  50 0012 06E0     		b	.L3
  51              	.LVL1:
  52              	.L4:
  33:Core/Src/filtrage.c ****     {
  34:Core/Src/filtrage.c ****         pOut[i / 2] = pIn[i];
  53              		.loc 1 34 9 is_stmt 1 view .LVU7
  54              		.loc 1 34 13 is_stmt 0 view .LVU8
  55 0014 23F00101 		bic	r1, r3, #1
  56              		.loc 1 34 26 view .LVU9
  57 0018 3EF91300 		ldrsh	r0, [lr, r3, lsl #1]
  58              		.loc 1 34 21 view .LVU10
  59 001c 2CF80100 		strh	r0, [ip, r1]	@ movhi
  32:Core/Src/filtrage.c ****     {
  60              		.loc 1 32 29 is_stmt 1 discriminator 3 view .LVU11
  61 0020 0233     		adds	r3, r3, #2
  62              	.LVL2:
  63              	.L3:
  32:Core/Src/filtrage.c ****     {
  64              		.loc 1 32 19 discriminator 1 view .LVU12
  65 0022 9342     		cmp	r3, r2
  66 0024 F6D3     		bcc	.L4
  35:Core/Src/filtrage.c ****     }
  36:Core/Src/filtrage.c **** 
  37:Core/Src/filtrage.c ****     return STEREO_TO_MONO_OK;
  67              		.loc 1 37 12 is_stmt 0 view .LVU13
  68 0026 0120     		movs	r0, #1
  69              	.LVL3:
  70              	.L2:
  38:Core/Src/filtrage.c **** }
  71              		.loc 1 38 1 view .LVU14
  72 0028 5DF804FB 		ldr	pc, [sp], #4
  73              	.LVL4:
  74              	.L5:
ARM GAS  /var/folders/n6/c271nzx11xl4r4_m7sqjlt0m0000gn/T//ccGo3Vqh.s 			page 3


  75              		.cfi_def_cfa_offset 0
  76              		.cfi_restore 14
  29:Core/Src/filtrage.c ****     }
  77              		.loc 1 29 16 view .LVU15
  78 002c 0020     		movs	r0, #0
  79              	.LVL5:
  80              		.loc 1 38 1 view .LVU16
  81 002e 7047     		bx	lr
  82              	.LVL6:
  83              	.L6:
  84              		.cfi_def_cfa_offset 4
  85              		.cfi_offset 14, -4
  29:Core/Src/filtrage.c ****     }
  86              		.loc 1 29 16 view .LVU17
  87 0030 0020     		movs	r0, #0
  88              	.LVL7:
  29:Core/Src/filtrage.c ****     }
  89              		.loc 1 29 16 view .LVU18
  90 0032 F9E7     		b	.L2
  91              		.cfi_endproc
  92              	.LFE177:
  94              		.section	.text.Hamming_window,"ax",%progbits
  95              		.align	1
  96              		.global	Hamming_window
  97              		.syntax unified
  98              		.thumb
  99              		.thumb_func
 101              	Hamming_window:
 102              	.LVL8:
 103              	.LFB178:
  39:Core/Src/filtrage.c **** 
  40:Core/Src/filtrage.c **** uint8_t Hamming_window(float32_t *pOut, int16_t *pIn, uint32_t size, uint8_t signal_input_type)
  41:Core/Src/filtrage.c **** {
 104              		.loc 1 41 1 is_stmt 1 view -0
 105              		.cfi_startproc
 106              		@ args = 0, pretend = 0, frame = 0
 107              		@ frame_needed = 1, uses_anonymous_args = 0
  42:Core/Src/filtrage.c **** 
  43:Core/Src/filtrage.c ****     if (pIn == NULL || pOut == NULL)
 108              		.loc 1 43 5 view .LVU20
 109              		.loc 1 43 8 is_stmt 0 view .LVU21
 110 0000 0028     		cmp	r0, #0
 111 0002 18BF     		it	ne
 112 0004 0029     		cmpne	r1, #0
 113 0006 2FD0     		beq	.L16
  41:Core/Src/filtrage.c **** 
 114              		.loc 1 41 1 view .LVU22
 115 0008 2DE9F041 		push	{r4, r5, r6, r7, r8, lr}
 116              		.cfi_def_cfa_offset 24
 117              		.cfi_offset 4, -24
 118              		.cfi_offset 5, -20
 119              		.cfi_offset 6, -16
 120              		.cfi_offset 7, -12
 121              		.cfi_offset 8, -8
 122              		.cfi_offset 14, -4
 123 000c 00AF     		add	r7, sp, #0
 124              		.cfi_def_cfa_register 7
ARM GAS  /var/folders/n6/c271nzx11xl4r4_m7sqjlt0m0000gn/T//ccGo3Vqh.s 			page 4


 125 000e 1446     		mov	r4, r2
 126 0010 8C46     		mov	ip, r1
 127 0012 0546     		mov	r5, r0
  44:Core/Src/filtrage.c ****     {
  45:Core/Src/filtrage.c ****         return HAMMING_FILTER_ERROR;
  46:Core/Src/filtrage.c ****     }
  47:Core/Src/filtrage.c ****     int16_t *pIn_tmp = pIn;
 128              		.loc 1 47 5 is_stmt 1 view .LVU23
 129              	.LVL9:
  48:Core/Src/filtrage.c **** 
  49:Core/Src/filtrage.c ****     if (signal_input_type == STEREO)
 130              		.loc 1 49 5 view .LVU24
 131              		.loc 1 49 8 is_stmt 0 view .LVU25
 132 0014 012B     		cmp	r3, #1
 133 0016 01D0     		beq	.L21
 134              	.LVL10:
 135              	.L13:
  50:Core/Src/filtrage.c ****     {
  51:Core/Src/filtrage.c ****         int16_t tmpSteroBff[size];
  52:Core/Src/filtrage.c ****         StereoToMono(tmpSteroBff, pIn, size * 2);
  53:Core/Src/filtrage.c ****         pIn_tmp = tmpSteroBff;
  54:Core/Src/filtrage.c ****     }
  55:Core/Src/filtrage.c ****     for (uint32_t i = 0; i < size; i++)
 136              		.loc 1 55 5 is_stmt 1 view .LVU26
 137              	.LBB10:
 138              		.loc 1 55 10 view .LVU27
 139              		.loc 1 55 19 is_stmt 0 view .LVU28
 140 0018 0023     		movs	r3, #0
 141              		.loc 1 55 5 view .LVU29
 142 001a 1FE0     		b	.L14
 143              	.LVL11:
 144              	.L21:
 145              		.loc 1 55 5 view .LVU30
 146              	.LBE10:
 147              	.LBB11:
  50:Core/Src/filtrage.c ****     {
 148              		.loc 1 50 5 view .LVU31
 149 001c E846     		mov	r8, sp
  51:Core/Src/filtrage.c ****         StereoToMono(tmpSteroBff, pIn, size * 2);
 150              		.loc 1 51 9 is_stmt 1 view .LVU32
 151              	.LVL12:
  51:Core/Src/filtrage.c ****         StereoToMono(tmpSteroBff, pIn, size * 2);
 152              		.loc 1 51 17 is_stmt 0 view .LVU33
 153 001e 5200     		lsls	r2, r2, #1
 154              	.LVL13:
  51:Core/Src/filtrage.c ****         StereoToMono(tmpSteroBff, pIn, size * 2);
 155              		.loc 1 51 17 view .LVU34
 156 0020 D31D     		adds	r3, r2, #7
 157              	.LVL14:
  51:Core/Src/filtrage.c ****         StereoToMono(tmpSteroBff, pIn, size * 2);
 158              		.loc 1 51 17 view .LVU35
 159 0022 23F00703 		bic	r3, r3, #7
 160 0026 ADEB030D 		sub	sp, sp, r3
 161 002a 6E46     		mov	r6, sp
 162              	.LVL15:
  52:Core/Src/filtrage.c ****         pIn_tmp = tmpSteroBff;
 163              		.loc 1 52 9 is_stmt 1 view .LVU36
ARM GAS  /var/folders/n6/c271nzx11xl4r4_m7sqjlt0m0000gn/T//ccGo3Vqh.s 			page 5


 164 002c 3046     		mov	r0, r6
 165              	.LVL16:
  52:Core/Src/filtrage.c ****         pIn_tmp = tmpSteroBff;
 166              		.loc 1 52 9 is_stmt 0 view .LVU37
 167 002e FFF7FEFF 		bl	StereoToMono
 168              	.LVL17:
  53:Core/Src/filtrage.c ****     }
 169              		.loc 1 53 9 is_stmt 1 view .LVU38
  53:Core/Src/filtrage.c ****     }
 170              		.loc 1 53 9 is_stmt 0 view .LVU39
 171 0032 C546     		mov	sp, r8
  53:Core/Src/filtrage.c ****     }
 172              		.loc 1 53 17 view .LVU40
 173 0034 B446     		mov	ip, r6
 174 0036 EFE7     		b	.L13
 175              	.LVL18:
 176              	.L15:
  53:Core/Src/filtrage.c ****     }
 177              		.loc 1 53 17 view .LVU41
 178              	.LBE11:
 179              	.LBB12:
  56:Core/Src/filtrage.c ****     {
  57:Core/Src/filtrage.c ****         pOut[i] = (hammingWindow[i] * (float)pIn_tmp[i]);
 180              		.loc 1 57 9 is_stmt 1 view .LVU42
 181              		.loc 1 57 33 is_stmt 0 view .LVU43
 182 0038 0C48     		ldr	r0, .L22
 183 003a 00EB8300 		add	r0, r0, r3, lsl #2
 184 003e D0ED007A 		vldr.32	s15, [r0]
 185              		.loc 1 57 53 view .LVU44
 186 0042 3CF91320 		ldrsh	r2, [ip, r3, lsl #1]
 187 0046 07EE102A 		vmov	s14, r2	@ int
 188              		.loc 1 57 39 view .LVU45
 189 004a B8EEC77A 		vcvt.f32.s32	s14, s14
 190              		.loc 1 57 13 view .LVU46
 191 004e 05EB8300 		add	r0, r5, r3, lsl #2
 192              		.loc 1 57 37 view .LVU47
 193 0052 67EE877A 		vmul.f32	s15, s15, s14
 194              		.loc 1 57 17 view .LVU48
 195 0056 C0ED007A 		vstr.32	s15, [r0]
  55:Core/Src/filtrage.c ****     {
 196              		.loc 1 55 37 is_stmt 1 discriminator 3 view .LVU49
 197 005a 0133     		adds	r3, r3, #1
 198              	.LVL19:
 199              	.L14:
  55:Core/Src/filtrage.c ****     {
 200              		.loc 1 55 28 discriminator 1 view .LVU50
 201 005c A342     		cmp	r3, r4
 202 005e EBD3     		bcc	.L15
 203              	.LBE12:
  58:Core/Src/filtrage.c ****     }
  59:Core/Src/filtrage.c ****     return HAMMING_FILTER_OK;
 204              		.loc 1 59 12 is_stmt 0 view .LVU51
 205 0060 0120     		movs	r0, #1
  60:Core/Src/filtrage.c **** }
 206              		.loc 1 60 1 view .LVU52
 207 0062 BD46     		mov	sp, r7
 208              		.cfi_def_cfa_register 13
ARM GAS  /var/folders/n6/c271nzx11xl4r4_m7sqjlt0m0000gn/T//ccGo3Vqh.s 			page 6


 209              		@ sp needed
 210 0064 BDE8F081 		pop	{r4, r5, r6, r7, r8, pc}
 211              	.LVL20:
 212              	.L16:
 213              		.cfi_def_cfa_offset 0
 214              		.cfi_restore 4
 215              		.cfi_restore 5
 216              		.cfi_restore 6
 217              		.cfi_restore 7
 218              		.cfi_restore 8
 219              		.cfi_restore 14
  45:Core/Src/filtrage.c ****     }
 220              		.loc 1 45 16 view .LVU53
 221 0068 0020     		movs	r0, #0
 222              	.LVL21:
 223              		.loc 1 60 1 view .LVU54
 224 006a 7047     		bx	lr
 225              	.L23:
 226              		.align	2
 227              	.L22:
 228 006c 00000000 		.word	hammingWindow
 229              		.cfi_endproc
 230              	.LFE178:
 232              		.section	.text.Hanning_window,"ax",%progbits
 233              		.align	1
 234              		.global	Hanning_window
 235              		.syntax unified
 236              		.thumb
 237              		.thumb_func
 239              	Hanning_window:
 240              	.LVL22:
 241              	.LFB179:
  61:Core/Src/filtrage.c **** 
  62:Core/Src/filtrage.c **** uint8_t Hanning_window(float32_t *pOut, int16_t *pIn, uint32_t size, uint8_t signal_input_type)
  63:Core/Src/filtrage.c **** {
 242              		.loc 1 63 1 is_stmt 1 view -0
 243              		.cfi_startproc
 244              		@ args = 0, pretend = 0, frame = 0
 245              		@ frame_needed = 1, uses_anonymous_args = 0
  64:Core/Src/filtrage.c **** 
  65:Core/Src/filtrage.c ****     if (pIn == NULL || pOut == NULL)
 246              		.loc 1 65 5 view .LVU56
 247              		.loc 1 65 8 is_stmt 0 view .LVU57
 248 0000 0028     		cmp	r0, #0
 249 0002 18BF     		it	ne
 250 0004 0029     		cmpne	r1, #0
 251 0006 2FD0     		beq	.L29
  63:Core/Src/filtrage.c **** 
 252              		.loc 1 63 1 view .LVU58
 253 0008 2DE9F041 		push	{r4, r5, r6, r7, r8, lr}
 254              		.cfi_def_cfa_offset 24
 255              		.cfi_offset 4, -24
 256              		.cfi_offset 5, -20
 257              		.cfi_offset 6, -16
 258              		.cfi_offset 7, -12
 259              		.cfi_offset 8, -8
 260              		.cfi_offset 14, -4
ARM GAS  /var/folders/n6/c271nzx11xl4r4_m7sqjlt0m0000gn/T//ccGo3Vqh.s 			page 7


 261 000c 00AF     		add	r7, sp, #0
 262              		.cfi_def_cfa_register 7
 263 000e 1446     		mov	r4, r2
 264 0010 8C46     		mov	ip, r1
 265 0012 0546     		mov	r5, r0
  66:Core/Src/filtrage.c ****     {
  67:Core/Src/filtrage.c ****         return HANNING_FILTER_ERROR;
  68:Core/Src/filtrage.c ****     }
  69:Core/Src/filtrage.c ****     int16_t *pIn_tmp = pIn;
 266              		.loc 1 69 5 is_stmt 1 view .LVU59
 267              	.LVL23:
  70:Core/Src/filtrage.c **** 
  71:Core/Src/filtrage.c ****     if (signal_input_type == STEREO)
 268              		.loc 1 71 5 view .LVU60
 269              		.loc 1 71 8 is_stmt 0 view .LVU61
 270 0014 012B     		cmp	r3, #1
 271 0016 01D0     		beq	.L34
 272              	.LVL24:
 273              	.L26:
  72:Core/Src/filtrage.c ****     {
  73:Core/Src/filtrage.c ****         int16_t tmpSteroBff[size];
  74:Core/Src/filtrage.c ****         StereoToMono(tmpSteroBff, pIn, size * 2);
  75:Core/Src/filtrage.c ****         pIn_tmp = tmpSteroBff;
  76:Core/Src/filtrage.c ****     }
  77:Core/Src/filtrage.c ****     for (uint32_t i = 0; i < size; i++)
 274              		.loc 1 77 5 is_stmt 1 view .LVU62
 275              	.LBB13:
 276              		.loc 1 77 10 view .LVU63
 277              		.loc 1 77 19 is_stmt 0 view .LVU64
 278 0018 0023     		movs	r3, #0
 279              		.loc 1 77 5 view .LVU65
 280 001a 1FE0     		b	.L27
 281              	.LVL25:
 282              	.L34:
 283              		.loc 1 77 5 view .LVU66
 284              	.LBE13:
 285              	.LBB14:
  72:Core/Src/filtrage.c ****     {
 286              		.loc 1 72 5 view .LVU67
 287 001c E846     		mov	r8, sp
  73:Core/Src/filtrage.c ****         StereoToMono(tmpSteroBff, pIn, size * 2);
 288              		.loc 1 73 9 is_stmt 1 view .LVU68
 289              	.LVL26:
  73:Core/Src/filtrage.c ****         StereoToMono(tmpSteroBff, pIn, size * 2);
 290              		.loc 1 73 17 is_stmt 0 view .LVU69
 291 001e 5200     		lsls	r2, r2, #1
 292              	.LVL27:
  73:Core/Src/filtrage.c ****         StereoToMono(tmpSteroBff, pIn, size * 2);
 293              		.loc 1 73 17 view .LVU70
 294 0020 D31D     		adds	r3, r2, #7
 295              	.LVL28:
  73:Core/Src/filtrage.c ****         StereoToMono(tmpSteroBff, pIn, size * 2);
 296              		.loc 1 73 17 view .LVU71
 297 0022 23F00703 		bic	r3, r3, #7
 298 0026 ADEB030D 		sub	sp, sp, r3
 299 002a 6E46     		mov	r6, sp
 300              	.LVL29:
ARM GAS  /var/folders/n6/c271nzx11xl4r4_m7sqjlt0m0000gn/T//ccGo3Vqh.s 			page 8


  74:Core/Src/filtrage.c ****         pIn_tmp = tmpSteroBff;
 301              		.loc 1 74 9 is_stmt 1 view .LVU72
 302 002c 3046     		mov	r0, r6
 303              	.LVL30:
  74:Core/Src/filtrage.c ****         pIn_tmp = tmpSteroBff;
 304              		.loc 1 74 9 is_stmt 0 view .LVU73
 305 002e FFF7FEFF 		bl	StereoToMono
 306              	.LVL31:
  75:Core/Src/filtrage.c ****     }
 307              		.loc 1 75 9 is_stmt 1 view .LVU74
  75:Core/Src/filtrage.c ****     }
 308              		.loc 1 75 9 is_stmt 0 view .LVU75
 309 0032 C546     		mov	sp, r8
  75:Core/Src/filtrage.c ****     }
 310              		.loc 1 75 17 view .LVU76
 311 0034 B446     		mov	ip, r6
 312 0036 EFE7     		b	.L26
 313              	.LVL32:
 314              	.L28:
  75:Core/Src/filtrage.c ****     }
 315              		.loc 1 75 17 view .LVU77
 316              	.LBE14:
 317              	.LBB15:
  78:Core/Src/filtrage.c ****     {
  79:Core/Src/filtrage.c ****         pOut[i] = (hanningWindow[i] * (float)pIn_tmp[i]);
 318              		.loc 1 79 9 is_stmt 1 view .LVU78
 319              		.loc 1 79 33 is_stmt 0 view .LVU79
 320 0038 0C48     		ldr	r0, .L35
 321 003a 00EB8300 		add	r0, r0, r3, lsl #2
 322 003e D0ED007A 		vldr.32	s15, [r0]
 323              		.loc 1 79 53 view .LVU80
 324 0042 3CF91320 		ldrsh	r2, [ip, r3, lsl #1]
 325 0046 07EE102A 		vmov	s14, r2	@ int
 326              		.loc 1 79 39 view .LVU81
 327 004a B8EEC77A 		vcvt.f32.s32	s14, s14
 328              		.loc 1 79 13 view .LVU82
 329 004e 05EB8300 		add	r0, r5, r3, lsl #2
 330              		.loc 1 79 37 view .LVU83
 331 0052 67EE877A 		vmul.f32	s15, s15, s14
 332              		.loc 1 79 17 view .LVU84
 333 0056 C0ED007A 		vstr.32	s15, [r0]
  77:Core/Src/filtrage.c ****     {
 334              		.loc 1 77 37 is_stmt 1 discriminator 3 view .LVU85
 335 005a 0133     		adds	r3, r3, #1
 336              	.LVL33:
 337              	.L27:
  77:Core/Src/filtrage.c ****     {
 338              		.loc 1 77 28 discriminator 1 view .LVU86
 339 005c A342     		cmp	r3, r4
 340 005e EBD3     		bcc	.L28
 341              	.LBE15:
  80:Core/Src/filtrage.c ****     }
  81:Core/Src/filtrage.c ****     return HANNING_FILTER_OK;
 342              		.loc 1 81 12 is_stmt 0 view .LVU87
 343 0060 0120     		movs	r0, #1
  82:Core/Src/filtrage.c **** }
 344              		.loc 1 82 1 view .LVU88
ARM GAS  /var/folders/n6/c271nzx11xl4r4_m7sqjlt0m0000gn/T//ccGo3Vqh.s 			page 9


 345 0062 BD46     		mov	sp, r7
 346              		.cfi_def_cfa_register 13
 347              		@ sp needed
 348 0064 BDE8F081 		pop	{r4, r5, r6, r7, r8, pc}
 349              	.LVL34:
 350              	.L29:
 351              		.cfi_def_cfa_offset 0
 352              		.cfi_restore 4
 353              		.cfi_restore 5
 354              		.cfi_restore 6
 355              		.cfi_restore 7
 356              		.cfi_restore 8
 357              		.cfi_restore 14
  67:Core/Src/filtrage.c ****     }
 358              		.loc 1 67 16 view .LVU89
 359 0068 0020     		movs	r0, #0
 360              	.LVL35:
 361              		.loc 1 82 1 view .LVU90
 362 006a 7047     		bx	lr
 363              	.L36:
 364              		.align	2
 365              	.L35:
 366 006c 00000000 		.word	hanningWindow
 367              		.cfi_endproc
 368              	.LFE179:
 370              		.section	.text.FFT_init,"ax",%progbits
 371              		.align	1
 372              		.global	FFT_init
 373              		.syntax unified
 374              		.thumb
 375              		.thumb_func
 377              	FFT_init:
 378              	.LVL36:
 379              	.LFB180:
  83:Core/Src/filtrage.c **** 
  84:Core/Src/filtrage.c **** uint8_t FFT_init(uint32_t size)
  85:Core/Src/filtrage.c **** {
 380              		.loc 1 85 1 is_stmt 1 view -0
 381              		.cfi_startproc
 382              		@ args = 0, pretend = 0, frame = 0
 383              		@ frame_needed = 0, uses_anonymous_args = 0
 384              		.loc 1 85 1 is_stmt 0 view .LVU92
 385 0000 08B5     		push	{r3, lr}
 386              		.cfi_def_cfa_offset 8
 387              		.cfi_offset 3, -8
 388              		.cfi_offset 14, -4
  86:Core/Src/filtrage.c ****     if (arm_rfft_fast_init_f32(&FFT_struct, size) != ARM_MATH_SUCCESS)
 389              		.loc 1 86 5 is_stmt 1 view .LVU93
 390              		.loc 1 86 9 is_stmt 0 view .LVU94
 391 0002 81B2     		uxth	r1, r0
 392 0004 0548     		ldr	r0, .L42
 393              	.LVL37:
 394              		.loc 1 86 9 view .LVU95
 395 0006 FFF7FEFF 		bl	arm_rfft_fast_init_f32
 396              	.LVL38:
 397              		.loc 1 86 8 discriminator 1 view .LVU96
 398 000a 08B1     		cbz	r0, .L41
ARM GAS  /var/folders/n6/c271nzx11xl4r4_m7sqjlt0m0000gn/T//ccGo3Vqh.s 			page 10


  87:Core/Src/filtrage.c ****     {
  88:Core/Src/filtrage.c ****         return FILTER_CALCULATION_ERROR;
 399              		.loc 1 88 16 view .LVU97
 400 000c 0020     		movs	r0, #0
 401              	.L38:
  89:Core/Src/filtrage.c ****     }
  90:Core/Src/filtrage.c ****     OpenWavFile(MONO_WAV);
  91:Core/Src/filtrage.c ****     return FILTER_CALCULATION_OK;
  92:Core/Src/filtrage.c **** }
 402              		.loc 1 92 1 view .LVU98
 403 000e 08BD     		pop	{r3, pc}
 404              	.L41:
  90:Core/Src/filtrage.c ****     return FILTER_CALCULATION_OK;
 405              		.loc 1 90 5 is_stmt 1 view .LVU99
 406 0010 0120     		movs	r0, #1
 407 0012 FFF7FEFF 		bl	OpenWavFile
 408              	.LVL39:
  91:Core/Src/filtrage.c **** }
 409              		.loc 1 91 5 view .LVU100
  91:Core/Src/filtrage.c **** }
 410              		.loc 1 91 12 is_stmt 0 view .LVU101
 411 0016 0120     		movs	r0, #1
 412 0018 F9E7     		b	.L38
 413              	.L43:
 414 001a 00BF     		.align	2
 415              	.L42:
 416 001c 00000000 		.word	FFT_struct
 417              		.cfi_endproc
 418              	.LFE180:
 420              		.section	.text.FFT_Calculation,"ax",%progbits
 421              		.align	1
 422              		.global	FFT_Calculation
 423              		.syntax unified
 424              		.thumb
 425              		.thumb_func
 427              	FFT_Calculation:
 428              	.LVL40:
 429              	.LFB181:
  93:Core/Src/filtrage.c **** 
  94:Core/Src/filtrage.c **** uint8_t FFT_Calculation(float32_t *pOut, float32_t *pIn)
  95:Core/Src/filtrage.c **** {
 430              		.loc 1 95 1 is_stmt 1 view -0
 431              		.cfi_startproc
 432              		@ args = 0, pretend = 0, frame = 0
 433              		@ frame_needed = 0, uses_anonymous_args = 0
  96:Core/Src/filtrage.c ****     if (pIn == NULL || pOut == NULL)
 434              		.loc 1 96 5 view .LVU103
 435              		.loc 1 96 8 is_stmt 0 view .LVU104
 436 0000 0028     		cmp	r0, #0
 437 0002 18BF     		it	ne
 438 0004 0029     		cmpne	r1, #0
 439 0006 01D1     		bne	.L51
  97:Core/Src/filtrage.c ****     {
  98:Core/Src/filtrage.c ****         return FILTER_CALCULATION_ERROR;
 440              		.loc 1 98 16 view .LVU105
 441 0008 0020     		movs	r0, #0
 442              	.LVL41:
ARM GAS  /var/folders/n6/c271nzx11xl4r4_m7sqjlt0m0000gn/T//ccGo3Vqh.s 			page 11


  99:Core/Src/filtrage.c ****     }
 100:Core/Src/filtrage.c **** 
 101:Core/Src/filtrage.c ****     arm_rfft_fast_f32(&FFT_struct, pIn, pOut, 0);
 102:Core/Src/filtrage.c **** 
 103:Core/Src/filtrage.c ****     return FILTER_CALCULATION_OK;
 104:Core/Src/filtrage.c **** }
 443              		.loc 1 104 1 view .LVU106
 444 000a 7047     		bx	lr
 445              	.LVL42:
 446              	.L51:
  95:Core/Src/filtrage.c ****     if (pIn == NULL || pOut == NULL)
 447              		.loc 1 95 1 view .LVU107
 448 000c 08B5     		push	{r3, lr}
 449              		.cfi_def_cfa_offset 8
 450              		.cfi_offset 3, -8
 451              		.cfi_offset 14, -4
 452 000e 0246     		mov	r2, r0
 101:Core/Src/filtrage.c **** 
 453              		.loc 1 101 5 is_stmt 1 view .LVU108
 454 0010 0023     		movs	r3, #0
 455 0012 0248     		ldr	r0, .L52
 456              	.LVL43:
 101:Core/Src/filtrage.c **** 
 457              		.loc 1 101 5 is_stmt 0 view .LVU109
 458 0014 FFF7FEFF 		bl	arm_rfft_fast_f32
 459              	.LVL44:
 103:Core/Src/filtrage.c **** }
 460              		.loc 1 103 5 is_stmt 1 view .LVU110
 103:Core/Src/filtrage.c **** }
 461              		.loc 1 103 12 is_stmt 0 view .LVU111
 462 0018 0120     		movs	r0, #1
 463              		.loc 1 104 1 view .LVU112
 464 001a 08BD     		pop	{r3, pc}
 465              	.L53:
 466              		.align	2
 467              	.L52:
 468 001c 00000000 		.word	FFT_struct
 469              		.cfi_endproc
 470              	.LFE181:
 472              		.section	.text.DSE_Calculation,"ax",%progbits
 473              		.align	1
 474              		.global	DSE_Calculation
 475              		.syntax unified
 476              		.thumb
 477              		.thumb_func
 479              	DSE_Calculation:
 480              	.LVL45:
 481              	.LFB182:
 105:Core/Src/filtrage.c **** 
 106:Core/Src/filtrage.c **** uint8_t DSE_Calculation(float32_t *pOut, float32_t *pIn)
 107:Core/Src/filtrage.c **** {
 482              		.loc 1 107 1 is_stmt 1 view -0
 483              		.cfi_startproc
 484              		@ args = 0, pretend = 0, frame = 0
 485              		@ frame_needed = 0, uses_anonymous_args = 0
 108:Core/Src/filtrage.c ****     if (pIn == NULL || pOut == NULL)
 486              		.loc 1 108 5 view .LVU114
ARM GAS  /var/folders/n6/c271nzx11xl4r4_m7sqjlt0m0000gn/T//ccGo3Vqh.s 			page 12


 487              		.loc 1 108 8 is_stmt 0 view .LVU115
 488 0000 0028     		cmp	r0, #0
 489 0002 18BF     		it	ne
 490 0004 0029     		cmpne	r1, #0
 491 0006 01D1     		bne	.L61
 109:Core/Src/filtrage.c ****     {
 110:Core/Src/filtrage.c ****         return FILTER_CALCULATION_ERROR;
 492              		.loc 1 110 16 view .LVU116
 493 0008 0020     		movs	r0, #0
 494              	.LVL46:
 111:Core/Src/filtrage.c ****     }
 112:Core/Src/filtrage.c ****     uint32_t size = FFT_struct.fftLenRFFT / 2;
 113:Core/Src/filtrage.c **** 
 114:Core/Src/filtrage.c ****     // Calculer le module au carré des coefficients de la FFT
 115:Core/Src/filtrage.c ****     arm_cmplx_mag_squared_f32(pIn + 2, pOut + 1, size - 1);
 116:Core/Src/filtrage.c **** 
 117:Core/Src/filtrage.c ****     // Traiter les deux premières valeurs spéciales
 118:Core/Src/filtrage.c ****     pOut[0] = pIn[0] * pIn[0];    // Coefficient DC
 119:Core/Src/filtrage.c ****     pOut[size] = pIn[1] * pIn[1]; // Coefficient de la fréquence de Nyquist
 120:Core/Src/filtrage.c **** 
 121:Core/Src/filtrage.c ****     return FILTER_CALCULATION_OK;
 122:Core/Src/filtrage.c **** }
 495              		.loc 1 122 1 view .LVU117
 496 000a 7047     		bx	lr
 497              	.LVL47:
 498              	.L61:
 107:Core/Src/filtrage.c ****     if (pIn == NULL || pOut == NULL)
 499              		.loc 1 107 1 view .LVU118
 500 000c 70B5     		push	{r4, r5, r6, lr}
 501              		.cfi_def_cfa_offset 16
 502              		.cfi_offset 4, -16
 503              		.cfi_offset 5, -12
 504              		.cfi_offset 6, -8
 505              		.cfi_offset 14, -4
 506 000e 0D46     		mov	r5, r1
 507 0010 0446     		mov	r4, r0
 112:Core/Src/filtrage.c **** 
 508              		.loc 1 112 5 is_stmt 1 view .LVU119
 112:Core/Src/filtrage.c **** 
 509              		.loc 1 112 31 is_stmt 0 view .LVU120
 510 0012 0C4B     		ldr	r3, .L62
 511 0014 1E8A     		ldrh	r6, [r3, #16]
 112:Core/Src/filtrage.c **** 
 512              		.loc 1 112 43 view .LVU121
 513 0016 7608     		lsrs	r6, r6, #1
 514              	.LVL48:
 115:Core/Src/filtrage.c **** 
 515              		.loc 1 115 5 is_stmt 1 view .LVU122
 516 0018 721E     		subs	r2, r6, #1
 517 001a 011D     		adds	r1, r0, #4
 518              	.LVL49:
 115:Core/Src/filtrage.c **** 
 519              		.loc 1 115 5 is_stmt 0 view .LVU123
 520 001c 05F10800 		add	r0, r5, #8
 521              	.LVL50:
 115:Core/Src/filtrage.c **** 
 522              		.loc 1 115 5 view .LVU124
ARM GAS  /var/folders/n6/c271nzx11xl4r4_m7sqjlt0m0000gn/T//ccGo3Vqh.s 			page 13


 523 0020 FFF7FEFF 		bl	arm_cmplx_mag_squared_f32
 524              	.LVL51:
 118:Core/Src/filtrage.c ****     pOut[size] = pIn[1] * pIn[1]; // Coefficient de la fréquence de Nyquist
 525              		.loc 1 118 5 is_stmt 1 view .LVU125
 118:Core/Src/filtrage.c ****     pOut[size] = pIn[1] * pIn[1]; // Coefficient de la fréquence de Nyquist
 526              		.loc 1 118 18 is_stmt 0 view .LVU126
 527 0024 D5ED007A 		vldr.32	s15, [r5]
 118:Core/Src/filtrage.c ****     pOut[size] = pIn[1] * pIn[1]; // Coefficient de la fréquence de Nyquist
 528              		.loc 1 118 22 view .LVU127
 529 0028 67EEA77A 		vmul.f32	s15, s15, s15
 118:Core/Src/filtrage.c ****     pOut[size] = pIn[1] * pIn[1]; // Coefficient de la fréquence de Nyquist
 530              		.loc 1 118 13 view .LVU128
 531 002c C4ED007A 		vstr.32	s15, [r4]
 119:Core/Src/filtrage.c **** 
 532              		.loc 1 119 5 is_stmt 1 view .LVU129
 119:Core/Src/filtrage.c **** 
 533              		.loc 1 119 21 is_stmt 0 view .LVU130
 534 0030 D5ED017A 		vldr.32	s15, [r5, #4]
 119:Core/Src/filtrage.c **** 
 535              		.loc 1 119 9 view .LVU131
 536 0034 04EB8604 		add	r4, r4, r6, lsl #2
 537              	.LVL52:
 119:Core/Src/filtrage.c **** 
 538              		.loc 1 119 25 view .LVU132
 539 0038 67EEA77A 		vmul.f32	s15, s15, s15
 119:Core/Src/filtrage.c **** 
 540              		.loc 1 119 16 view .LVU133
 541 003c C4ED007A 		vstr.32	s15, [r4]
 121:Core/Src/filtrage.c **** }
 542              		.loc 1 121 5 is_stmt 1 view .LVU134
 121:Core/Src/filtrage.c **** }
 543              		.loc 1 121 12 is_stmt 0 view .LVU135
 544 0040 0120     		movs	r0, #1
 545              		.loc 1 122 1 view .LVU136
 546 0042 70BD     		pop	{r4, r5, r6, pc}
 547              	.LVL53:
 548              	.L63:
 549              		.loc 1 122 1 view .LVU137
 550              		.align	2
 551              	.L62:
 552 0044 00000000 		.word	FFT_struct
 553              		.cfi_endproc
 554              	.LFE182:
 556              		.section	.text.MEL_Calculation,"ax",%progbits
 557              		.align	1
 558              		.global	MEL_Calculation
 559              		.syntax unified
 560              		.thumb
 561              		.thumb_func
 563              	MEL_Calculation:
 564              	.LVL54:
 565              	.LFB183:
 123:Core/Src/filtrage.c **** 
 124:Core/Src/filtrage.c **** uint8_t MEL_Calculation(float32_t *pOut, float32_t *pIn)
 125:Core/Src/filtrage.c **** {
 566              		.loc 1 125 1 is_stmt 1 view -0
 567              		.cfi_startproc
ARM GAS  /var/folders/n6/c271nzx11xl4r4_m7sqjlt0m0000gn/T//ccGo3Vqh.s 			page 14


 568              		@ args = 0, pretend = 0, frame = 0
 569              		@ frame_needed = 0, uses_anonymous_args = 0
 126:Core/Src/filtrage.c ****     if (pIn == NULL || pOut == NULL)
 570              		.loc 1 126 5 view .LVU139
 571              		.loc 1 126 8 is_stmt 0 view .LVU140
 572 0000 0028     		cmp	r0, #0
 573 0002 18BF     		it	ne
 574 0004 0029     		cmpne	r1, #0
 575 0006 35D0     		beq	.L70
 125:Core/Src/filtrage.c ****     if (pIn == NULL || pOut == NULL)
 576              		.loc 1 125 1 view .LVU141
 577 0008 2DE9F041 		push	{r4, r5, r6, r7, r8, lr}
 578              		.cfi_def_cfa_offset 24
 579              		.cfi_offset 4, -24
 580              		.cfi_offset 5, -20
 581              		.cfi_offset 6, -16
 582              		.cfi_offset 7, -12
 583              		.cfi_offset 8, -8
 584              		.cfi_offset 14, -4
 585 000c 0D46     		mov	r5, r1
 586 000e 0746     		mov	r7, r0
 587              	.LBB16:
 127:Core/Src/filtrage.c ****     {
 128:Core/Src/filtrage.c ****         return FILTER_CALCULATION_ERROR;
 129:Core/Src/filtrage.c ****     }
 130:Core/Src/filtrage.c **** 
 131:Core/Src/filtrage.c ****     int start_data = 0;
 132:Core/Src/filtrage.c ****     for (int i = 0; i < N_MELS; i++)
 588              		.loc 1 132 14 view .LVU142
 589 0010 0026     		movs	r6, #0
 590              	.LBE16:
 131:Core/Src/filtrage.c ****     for (int i = 0; i < N_MELS; i++)
 591              		.loc 1 131 9 view .LVU143
 592 0012 3346     		mov	r3, r6
 593 0014 20E0     		b	.L66
 594              	.LVL55:
 595              	.L68:
 596              	.LBB23:
 597              	.LBB17:
 598              	.LBB18:
 133:Core/Src/filtrage.c ****     {
 134:Core/Src/filtrage.c ****         float sum = 0.0;
 135:Core/Src/filtrage.c ****         int end_data = mel_filters_num_non_zero[i] + start_data;
 136:Core/Src/filtrage.c ****         int start_segment = mel_filters_zeros_before[i];
 137:Core/Src/filtrage.c ****         for (int j = start_data, x = start_segment; j < end_data; j++, x++)
 138:Core/Src/filtrage.c ****         {
 139:Core/Src/filtrage.c ****             sum += pIn[x] * mel_filters_non_zero_data[j];
 599              		.loc 1 139 13 is_stmt 1 view .LVU144
 600              		.loc 1 139 23 is_stmt 0 view .LVU145
 601 0016 05EB8102 		add	r2, r5, r1, lsl #2
 602 001a D2ED007A 		vldr.32	s15, [r2]
 603              		.loc 1 139 54 view .LVU146
 604 001e 184A     		ldr	r2, .L76+8
 605 0020 02EB8302 		add	r2, r2, r3, lsl #2
 606 0024 92ED007A 		vldr.32	s14, [r2]
 607              		.loc 1 139 27 view .LVU147
 608 0028 67EE877A 		vmul.f32	s15, s15, s14
ARM GAS  /var/folders/n6/c271nzx11xl4r4_m7sqjlt0m0000gn/T//ccGo3Vqh.s 			page 15


 609              		.loc 1 139 17 view .LVU148
 610 002c 30EE270A 		vadd.f32	s0, s0, s15
 611              	.LVL56:
 137:Core/Src/filtrage.c ****         {
 612              		.loc 1 137 70 is_stmt 1 discriminator 3 view .LVU149
 137:Core/Src/filtrage.c ****         {
 613              		.loc 1 137 68 is_stmt 0 discriminator 3 view .LVU150
 614 0030 0133     		adds	r3, r3, #1
 615              	.LVL57:
 137:Core/Src/filtrage.c ****         {
 616              		.loc 1 137 73 discriminator 3 view .LVU151
 617 0032 0131     		adds	r1, r1, #1
 618              	.LVL58:
 619              	.L67:
 137:Core/Src/filtrage.c ****         {
 620              		.loc 1 137 55 is_stmt 1 discriminator 1 view .LVU152
 621 0034 A342     		cmp	r3, r4
 622 0036 EEDB     		blt	.L68
 137:Core/Src/filtrage.c ****         {
 623              		.loc 1 137 55 is_stmt 0 discriminator 1 view .LVU153
 624              	.LBE18:
 140:Core/Src/filtrage.c ****         }
 141:Core/Src/filtrage.c ****         start_data = end_data;
 625              		.loc 1 141 9 is_stmt 1 view .LVU154
 626              	.LVL59:
 142:Core/Src/filtrage.c **** 
 143:Core/Src/filtrage.c ****         pOut[i] = logf(sum + 1e-10);
 627              		.loc 1 143 9 view .LVU155
 628              		.loc 1 143 28 is_stmt 0 view .LVU156
 629 0038 B7EEC00A 		vcvt.f64.f32	d0, s0
 630              	.LVL60:
 631              		.loc 1 143 28 view .LVU157
 632 003c 9FED0E7B 		vldr.64	d7, .L76
 633 0040 30EE070B 		vadd.f64	d0, d0, d7
 634              		.loc 1 143 13 view .LVU158
 635 0044 07EB8608 		add	r8, r7, r6, lsl #2
 636              		.loc 1 143 19 view .LVU159
 637 0048 B7EEC00B 		vcvt.f32.f64	s0, d0
 638 004c FFF7FEFF 		bl	logf
 639              	.LVL61:
 640              		.loc 1 143 17 discriminator 1 view .LVU160
 641 0050 88ED000A 		vstr.32	s0, [r8]
 642              	.LBE17:
 132:Core/Src/filtrage.c ****     {
 643              		.loc 1 132 34 is_stmt 1 discriminator 2 view .LVU161
 644 0054 0136     		adds	r6, r6, #1
 645              	.LVL62:
 646              	.LBB21:
 141:Core/Src/filtrage.c **** 
 647              		.loc 1 141 20 is_stmt 0 view .LVU162
 648 0056 2346     		mov	r3, r4
 649              	.LVL63:
 650              	.L66:
 141:Core/Src/filtrage.c **** 
 651              		.loc 1 141 20 view .LVU163
 652              	.LBE21:
 132:Core/Src/filtrage.c ****     {
ARM GAS  /var/folders/n6/c271nzx11xl4r4_m7sqjlt0m0000gn/T//ccGo3Vqh.s 			page 16


 653              		.loc 1 132 23 is_stmt 1 discriminator 1 view .LVU164
 654 0058 1D2E     		cmp	r6, #29
 655 005a 08DC     		bgt	.L75
 656              	.LBB22:
 134:Core/Src/filtrage.c ****         int end_data = mel_filters_num_non_zero[i] + start_data;
 657              		.loc 1 134 9 view .LVU165
 658              	.LVL64:
 135:Core/Src/filtrage.c ****         int start_segment = mel_filters_zeros_before[i];
 659              		.loc 1 135 9 view .LVU166
 135:Core/Src/filtrage.c ****         int start_segment = mel_filters_zeros_before[i];
 660              		.loc 1 135 48 is_stmt 0 view .LVU167
 661 005c 094A     		ldr	r2, .L76+12
 662 005e 945D     		ldrb	r4, [r2, r6]	@ zero_extendqisi2
 135:Core/Src/filtrage.c ****         int start_segment = mel_filters_zeros_before[i];
 663              		.loc 1 135 13 view .LVU168
 664 0060 1C44     		add	r4, r4, r3
 665              	.LVL65:
 136:Core/Src/filtrage.c ****         for (int j = start_data, x = start_segment; j < end_data; j++, x++)
 666              		.loc 1 136 9 is_stmt 1 view .LVU169
 136:Core/Src/filtrage.c ****         for (int j = start_data, x = start_segment; j < end_data; j++, x++)
 667              		.loc 1 136 53 is_stmt 0 view .LVU170
 668 0062 094A     		ldr	r2, .L76+16
 669 0064 32F91610 		ldrsh	r1, [r2, r6, lsl #1]
 670              	.LVL66:
 137:Core/Src/filtrage.c ****         {
 671              		.loc 1 137 9 is_stmt 1 view .LVU171
 672              	.LBB19:
 137:Core/Src/filtrage.c ****         {
 673              		.loc 1 137 14 view .LVU172
 137:Core/Src/filtrage.c ****         {
 674              		.loc 1 137 14 is_stmt 0 view .LVU173
 675              	.LBE19:
 134:Core/Src/filtrage.c ****         int end_data = mel_filters_num_non_zero[i] + start_data;
 676              		.loc 1 134 15 view .LVU174
 677 0068 9FED080A 		vldr.32	s0, .L76+20
 678              	.LBB20:
 137:Core/Src/filtrage.c ****         {
 679              		.loc 1 137 9 view .LVU175
 680 006c E2E7     		b	.L67
 681              	.LVL67:
 682              	.L75:
 137:Core/Src/filtrage.c ****         {
 683              		.loc 1 137 9 view .LVU176
 684              	.LBE20:
 685              	.LBE22:
 686              	.LBE23:
 144:Core/Src/filtrage.c ****     }
 145:Core/Src/filtrage.c ****     return FILTER_CALCULATION_OK;
 687              		.loc 1 145 12 view .LVU177
 688 006e 0120     		movs	r0, #1
 146:Core/Src/filtrage.c **** }
 689              		.loc 1 146 1 view .LVU178
 690 0070 BDE8F081 		pop	{r4, r5, r6, r7, r8, pc}
 691              	.LVL68:
 692              	.L70:
 693              		.cfi_def_cfa_offset 0
 694              		.cfi_restore 4
ARM GAS  /var/folders/n6/c271nzx11xl4r4_m7sqjlt0m0000gn/T//ccGo3Vqh.s 			page 17


 695              		.cfi_restore 5
 696              		.cfi_restore 6
 697              		.cfi_restore 7
 698              		.cfi_restore 8
 699              		.cfi_restore 14
 128:Core/Src/filtrage.c ****     }
 700              		.loc 1 128 16 view .LVU179
 701 0074 0020     		movs	r0, #0
 702              	.LVL69:
 703              		.loc 1 146 1 view .LVU180
 704 0076 7047     		bx	lr
 705              	.L77:
 706              		.align	3
 707              	.L76:
 708 0078 BBBDD7D9 		.word	-640172613
 709 007c DF7CDB3D 		.word	1037794527
 710 0080 00000000 		.word	mel_filters_non_zero_data
 711 0084 00000000 		.word	mel_filters_num_non_zero
 712 0088 00000000 		.word	mel_filters_zeros_before
 713 008c 00000000 		.word	0
 714              		.cfi_endproc
 715              	.LFE183:
 717              		.section	.rodata.print_mel_filters.str1.4,"aMS",%progbits,1
 718              		.align	2
 719              	.LC0:
 720 0000 73746172 		.ascii	"start_data: %d\012\015\000"
 720      745F6461 
 720      74613A20 
 720      25640A0D 
 720      00
 721 0011 000000   		.align	2
 722              	.LC1:
 723 0014 656E645F 		.ascii	"end_data: %d\012\015\000"
 723      64617461 
 723      3A202564 
 723      0A0D00
 724              		.section	.text.print_mel_filters,"ax",%progbits
 725              		.align	1
 726              		.global	print_mel_filters
 727              		.syntax unified
 728              		.thumb
 729              		.thumb_func
 731              	print_mel_filters:
 732              	.LVL70:
 733              	.LFB184:
 147:Core/Src/filtrage.c **** 
 148:Core/Src/filtrage.c **** void print_mel_filters(float32_t *pOut, int n_mels)
 149:Core/Src/filtrage.c **** {
 734              		.loc 1 149 1 is_stmt 1 view -0
 735              		.cfi_startproc
 736              		@ args = 0, pretend = 0, frame = 0
 737              		@ frame_needed = 0, uses_anonymous_args = 0
 738              		.loc 1 149 1 is_stmt 0 view .LVU182
 739 0000 2DE9F041 		push	{r4, r5, r6, r7, r8, lr}
 740              		.cfi_def_cfa_offset 24
 741              		.cfi_offset 4, -24
 742              		.cfi_offset 5, -20
ARM GAS  /var/folders/n6/c271nzx11xl4r4_m7sqjlt0m0000gn/T//ccGo3Vqh.s 			page 18


 743              		.cfi_offset 6, -16
 744              		.cfi_offset 7, -12
 745              		.cfi_offset 8, -8
 746              		.cfi_offset 14, -4
 747 0004 0446     		mov	r4, r0
 748 0006 0F46     		mov	r7, r1
 150:Core/Src/filtrage.c **** 
 151:Core/Src/filtrage.c ****     int start_data = 0;
 749              		.loc 1 151 5 is_stmt 1 view .LVU183
 750              	.LVL71:
 152:Core/Src/filtrage.c **** 
 153:Core/Src/filtrage.c ****     for (int j = 0; j < 512; j++)
 751              		.loc 1 153 5 view .LVU184
 752              	.LBB24:
 753              		.loc 1 153 10 view .LVU185
 754              		.loc 1 153 14 is_stmt 0 view .LVU186
 755 0008 0023     		movs	r3, #0
 756              		.loc 1 153 5 view .LVU187
 757 000a 06E0     		b	.L79
 758              	.LVL72:
 759              	.L80:
 154:Core/Src/filtrage.c ****     {
 155:Core/Src/filtrage.c ****         pOut[j] = 1.0;
 760              		.loc 1 155 9 is_stmt 1 view .LVU188
 761              		.loc 1 155 13 is_stmt 0 view .LVU189
 762 000c 04EB8302 		add	r2, r4, r3, lsl #2
 763              		.loc 1 155 17 view .LVU190
 764 0010 4FF07E5C 		mov	ip, #1065353216
 765 0014 C2F800C0 		str	ip, [r2]	@ float
 153:Core/Src/filtrage.c ****     {
 766              		.loc 1 153 31 is_stmt 1 discriminator 3 view .LVU191
 767 0018 0133     		adds	r3, r3, #1
 768              	.LVL73:
 769              	.L79:
 153:Core/Src/filtrage.c ****     {
 770              		.loc 1 153 23 discriminator 1 view .LVU192
 771 001a B3F5007F 		cmp	r3, #512
 772 001e F5DB     		blt	.L80
 773              	.LBE24:
 774              	.LBB25:
 156:Core/Src/filtrage.c ****     }
 157:Core/Src/filtrage.c **** 
 158:Core/Src/filtrage.c ****     for (int i = 0; i < n_mels; i++)
 775              		.loc 1 158 14 is_stmt 0 view .LVU193
 776 0020 0023     		movs	r3, #0
 777              	.LVL74:
 778              		.loc 1 158 14 view .LVU194
 779              	.LBE25:
 151:Core/Src/filtrage.c **** 
 780              		.loc 1 151 9 view .LVU195
 781 0022 1D46     		mov	r5, r3
 782 0024 03E0     		b	.L81
 783              	.LVL75:
 784              	.L82:
 785              	.LBB26:
 159:Core/Src/filtrage.c ****     {
 160:Core/Src/filtrage.c ****         start_data += mel_filters_num_non_zero[i];
ARM GAS  /var/folders/n6/c271nzx11xl4r4_m7sqjlt0m0000gn/T//ccGo3Vqh.s 			page 19


 786              		.loc 1 160 9 is_stmt 1 view .LVU196
 787              		.loc 1 160 47 is_stmt 0 view .LVU197
 788 0026 1B4A     		ldr	r2, .L90
 789 0028 D25C     		ldrb	r2, [r2, r3]	@ zero_extendqisi2
 790              		.loc 1 160 20 view .LVU198
 791 002a 1544     		add	r5, r5, r2
 792              	.LVL76:
 158:Core/Src/filtrage.c ****     {
 793              		.loc 1 158 34 is_stmt 1 discriminator 3 view .LVU199
 794 002c 0133     		adds	r3, r3, #1
 795              	.LVL77:
 796              	.L81:
 158:Core/Src/filtrage.c ****     {
 797              		.loc 1 158 23 discriminator 1 view .LVU200
 798 002e BB42     		cmp	r3, r7
 799 0030 F9DB     		blt	.L82
 800              	.LBE26:
 161:Core/Src/filtrage.c ****     }
 162:Core/Src/filtrage.c ****     printf("start_data: %d\n\r", start_data);
 801              		.loc 1 162 5 view .LVU201
 802 0032 2946     		mov	r1, r5
 803              	.LVL78:
 804              		.loc 1 162 5 is_stmt 0 view .LVU202
 805 0034 1848     		ldr	r0, .L90+4
 806              	.LVL79:
 807              		.loc 1 162 5 view .LVU203
 808 0036 FFF7FEFF 		bl	printf
 809              	.LVL80:
 163:Core/Src/filtrage.c **** 
 164:Core/Src/filtrage.c ****     int end_data = mel_filters_num_non_zero[n_mels] + start_data;
 810              		.loc 1 164 5 is_stmt 1 view .LVU204
 811              		.loc 1 164 44 is_stmt 0 view .LVU205
 812 003a 164B     		ldr	r3, .L90
 813 003c DE5D     		ldrb	r6, [r3, r7]	@ zero_extendqisi2
 814              		.loc 1 164 9 view .LVU206
 815 003e 06EB0508 		add	r8, r6, r5
 816              	.LVL81:
 165:Core/Src/filtrage.c ****     int start_segment = mel_filters_zeros_before[n_mels];
 817              		.loc 1 165 5 is_stmt 1 view .LVU207
 818              		.loc 1 165 49 is_stmt 0 view .LVU208
 819 0042 164B     		ldr	r3, .L90+8
 820 0044 33F91770 		ldrsh	r7, [r3, r7, lsl #1]
 821              	.LVL82:
 166:Core/Src/filtrage.c **** 
 167:Core/Src/filtrage.c ****     printf("end_data: %d\n\r", end_data);
 822              		.loc 1 167 5 is_stmt 1 view .LVU209
 823 0048 4146     		mov	r1, r8
 824 004a 1548     		ldr	r0, .L90+12
 825 004c FFF7FEFF 		bl	printf
 826              	.LVL83:
 168:Core/Src/filtrage.c **** 
 169:Core/Src/filtrage.c ****     for (int j = 0; j < start_segment; j++)
 827              		.loc 1 169 5 view .LVU210
 828              	.LBB27:
 829              		.loc 1 169 10 view .LVU211
 830              		.loc 1 169 14 is_stmt 0 view .LVU212
 831 0050 0023     		movs	r3, #0
ARM GAS  /var/folders/n6/c271nzx11xl4r4_m7sqjlt0m0000gn/T//ccGo3Vqh.s 			page 20


 832              		.loc 1 169 5 view .LVU213
 833 0052 04E0     		b	.L83
 834              	.LVL84:
 835              	.L84:
 170:Core/Src/filtrage.c ****     {
 171:Core/Src/filtrage.c ****         pOut[j] = 0;
 836              		.loc 1 171 9 is_stmt 1 view .LVU214
 837              		.loc 1 171 13 is_stmt 0 view .LVU215
 838 0054 04EB8302 		add	r2, r4, r3, lsl #2
 839              		.loc 1 171 17 view .LVU216
 840 0058 0021     		movs	r1, #0
 841 005a 1160     		str	r1, [r2]	@ float
 169:Core/Src/filtrage.c ****     {
 842              		.loc 1 169 41 is_stmt 1 discriminator 3 view .LVU217
 843 005c 0133     		adds	r3, r3, #1
 844              	.LVL85:
 845              	.L83:
 169:Core/Src/filtrage.c ****     {
 846              		.loc 1 169 23 discriminator 1 view .LVU218
 847 005e BB42     		cmp	r3, r7
 848 0060 F8DB     		blt	.L84
 849              	.LBE27:
 850              	.LBB28:
 172:Core/Src/filtrage.c ****     }
 173:Core/Src/filtrage.c **** 
 174:Core/Src/filtrage.c ****     for (int j = start_data, x = start_segment; j < end_data; j++, x++)
 851              		.loc 1 174 30 is_stmt 0 view .LVU219
 852 0062 3A46     		mov	r2, r7
 853 0064 08E0     		b	.L85
 854              	.LVL86:
 855              	.L86:
 175:Core/Src/filtrage.c ****     {
 176:Core/Src/filtrage.c ****         pOut[x] = mel_filters_non_zero_data[j];
 856              		.loc 1 176 9 is_stmt 1 view .LVU220
 857              		.loc 1 176 13 is_stmt 0 view .LVU221
 858 0066 04EB8201 		add	r1, r4, r2, lsl #2
 859              		.loc 1 176 44 view .LVU222
 860 006a 0E4B     		ldr	r3, .L90+16
 861 006c 03EB8503 		add	r3, r3, r5, lsl #2
 862 0070 1B68     		ldr	r3, [r3]	@ float
 863              		.loc 1 176 17 view .LVU223
 864 0072 0B60     		str	r3, [r1]	@ float
 174:Core/Src/filtrage.c ****     {
 865              		.loc 1 174 66 is_stmt 1 discriminator 3 view .LVU224
 174:Core/Src/filtrage.c ****     {
 866              		.loc 1 174 64 is_stmt 0 discriminator 3 view .LVU225
 867 0074 0135     		adds	r5, r5, #1
 868              	.LVL87:
 174:Core/Src/filtrage.c ****     {
 869              		.loc 1 174 69 discriminator 3 view .LVU226
 870 0076 0132     		adds	r2, r2, #1
 871              	.LVL88:
 872              	.L85:
 174:Core/Src/filtrage.c ****     {
 873              		.loc 1 174 51 is_stmt 1 discriminator 1 view .LVU227
 874 0078 4545     		cmp	r5, r8
 875 007a F4DB     		blt	.L86
ARM GAS  /var/folders/n6/c271nzx11xl4r4_m7sqjlt0m0000gn/T//ccGo3Vqh.s 			page 21


 876              	.LBE28:
 177:Core/Src/filtrage.c ****     }
 178:Core/Src/filtrage.c **** 
 179:Core/Src/filtrage.c ****     for (int j = start_segment + mel_filters_num_non_zero[n_mels]; j < 512; j++)
 877              		.loc 1 179 5 view .LVU228
 878              	.LBB29:
 879              		.loc 1 179 10 view .LVU229
 880              		.loc 1 179 14 is_stmt 0 view .LVU230
 881 007c F319     		adds	r3, r6, r7
 882              	.LVL89:
 883              		.loc 1 179 5 view .LVU231
 884 007e 04E0     		b	.L87
 885              	.LVL90:
 886              	.L88:
 180:Core/Src/filtrage.c ****     {
 181:Core/Src/filtrage.c ****         pOut[j] = 0;
 887              		.loc 1 181 9 is_stmt 1 view .LVU232
 888              		.loc 1 181 13 is_stmt 0 view .LVU233
 889 0080 04EB8302 		add	r2, r4, r3, lsl #2
 890              		.loc 1 181 17 view .LVU234
 891 0084 0021     		movs	r1, #0
 892 0086 1160     		str	r1, [r2]	@ float
 179:Core/Src/filtrage.c ****     {
 893              		.loc 1 179 78 is_stmt 1 discriminator 3 view .LVU235
 894 0088 0133     		adds	r3, r3, #1
 895              	.LVL91:
 896              	.L87:
 179:Core/Src/filtrage.c ****     {
 897              		.loc 1 179 70 discriminator 1 view .LVU236
 898 008a B3F5007F 		cmp	r3, #512
 899 008e F7DB     		blt	.L88
 179:Core/Src/filtrage.c ****     {
 900              		.loc 1 179 70 is_stmt 0 discriminator 1 view .LVU237
 901              	.LBE29:
 182:Core/Src/filtrage.c ****     }
 183:Core/Src/filtrage.c **** }
 902              		.loc 1 183 1 view .LVU238
 903 0090 BDE8F081 		pop	{r4, r5, r6, r7, r8, pc}
 904              	.LVL92:
 905              	.L91:
 906              		.loc 1 183 1 view .LVU239
 907              		.align	2
 908              	.L90:
 909 0094 00000000 		.word	mel_filters_num_non_zero
 910 0098 00000000 		.word	.LC0
 911 009c 00000000 		.word	mel_filters_zeros_before
 912 00a0 14000000 		.word	.LC1
 913 00a4 00000000 		.word	mel_filters_non_zero_data
 914              		.cfi_endproc
 915              	.LFE184:
 917              		.section	.text.ZScore_Calculation,"ax",%progbits
 918              		.align	1
 919              		.global	ZScore_Calculation
 920              		.syntax unified
 921              		.thumb
 922              		.thumb_func
 924              	ZScore_Calculation:
ARM GAS  /var/folders/n6/c271nzx11xl4r4_m7sqjlt0m0000gn/T//ccGo3Vqh.s 			page 22


 925              	.LVL93:
 926              	.LFB185:
 184:Core/Src/filtrage.c **** 
 185:Core/Src/filtrage.c **** uint8_t ZScore_Calculation(float32_t *pIn, uint32_t size)
 186:Core/Src/filtrage.c **** {
 927              		.loc 1 186 1 is_stmt 1 view -0
 928              		.cfi_startproc
 929              		@ args = 0, pretend = 0, frame = 8
 930              		@ frame_needed = 0, uses_anonymous_args = 0
 187:Core/Src/filtrage.c ****     if (pIn == NULL)
 931              		.loc 1 187 5 view .LVU241
 932              		.loc 1 187 8 is_stmt 0 view .LVU242
 933 0000 08B3     		cbz	r0, .L96
 186:Core/Src/filtrage.c ****     if (pIn == NULL)
 934              		.loc 1 186 1 view .LVU243
 935 0002 30B5     		push	{r4, r5, lr}
 936              		.cfi_def_cfa_offset 12
 937              		.cfi_offset 4, -12
 938              		.cfi_offset 5, -8
 939              		.cfi_offset 14, -4
 940 0004 83B0     		sub	sp, sp, #12
 941              		.cfi_def_cfa_offset 24
 942 0006 0C46     		mov	r4, r1
 943 0008 0546     		mov	r5, r0
 188:Core/Src/filtrage.c ****     {
 189:Core/Src/filtrage.c ****         return FILTER_CALCULATION_ERROR;
 190:Core/Src/filtrage.c ****     }
 191:Core/Src/filtrage.c **** 
 192:Core/Src/filtrage.c ****     float32_t mean;
 944              		.loc 1 192 5 is_stmt 1 view .LVU244
 193:Core/Src/filtrage.c ****     float32_t std;
 945              		.loc 1 193 5 view .LVU245
 194:Core/Src/filtrage.c **** 
 195:Core/Src/filtrage.c ****     arm_mean_f32(pIn, size, &mean);
 946              		.loc 1 195 5 view .LVU246
 947 000a 01AA     		add	r2, sp, #4
 948 000c FFF7FEFF 		bl	arm_mean_f32
 949              	.LVL94:
 196:Core/Src/filtrage.c ****     arm_std_f32(pIn, size, &std);
 950              		.loc 1 196 5 view .LVU247
 951 0010 6A46     		mov	r2, sp
 952 0012 2146     		mov	r1, r4
 953 0014 2846     		mov	r0, r5
 954 0016 FFF7FEFF 		bl	arm_std_f32
 955              	.LVL95:
 197:Core/Src/filtrage.c **** 
 198:Core/Src/filtrage.c ****     for (int i = 0; i < size; i++)
 956              		.loc 1 198 5 view .LVU248
 957              	.LBB30:
 958              		.loc 1 198 10 view .LVU249
 959              		.loc 1 198 14 is_stmt 0 view .LVU250
 960 001a 0023     		movs	r3, #0
 961              		.loc 1 198 5 view .LVU251
 962 001c 0EE0     		b	.L94
 963              	.LVL96:
 964              	.L95:
 199:Core/Src/filtrage.c ****     {
ARM GAS  /var/folders/n6/c271nzx11xl4r4_m7sqjlt0m0000gn/T//ccGo3Vqh.s 			page 23


 200:Core/Src/filtrage.c ****         pIn[i] = (pIn[i] - mean) / std;
 965              		.loc 1 200 9 is_stmt 1 view .LVU252
 966              		.loc 1 200 22 is_stmt 0 view .LVU253
 967 001e 05EB8302 		add	r2, r5, r3, lsl #2
 968 0022 D2ED007A 		vldr.32	s15, [r2]
 969              		.loc 1 200 26 view .LVU254
 970 0026 9DED017A 		vldr.32	s14, [sp, #4]
 971 002a 77EEC77A 		vsub.f32	s15, s15, s14
 972              		.loc 1 200 34 view .LVU255
 973 002e DDED006A 		vldr.32	s13, [sp]
 974 0032 87EEA67A 		vdiv.f32	s14, s15, s13
 975              		.loc 1 200 16 view .LVU256
 976 0036 82ED007A 		vstr.32	s14, [r2]
 198:Core/Src/filtrage.c ****     {
 977              		.loc 1 198 32 is_stmt 1 discriminator 3 view .LVU257
 978 003a 0133     		adds	r3, r3, #1
 979              	.LVL97:
 980              	.L94:
 198:Core/Src/filtrage.c ****     {
 981              		.loc 1 198 23 discriminator 1 view .LVU258
 982 003c A342     		cmp	r3, r4
 983 003e EED3     		bcc	.L95
 984              	.LBE30:
 201:Core/Src/filtrage.c ****     }
 202:Core/Src/filtrage.c **** 
 203:Core/Src/filtrage.c ****     return FILTER_CALCULATION_OK;
 985              		.loc 1 203 12 is_stmt 0 view .LVU259
 986 0040 0120     		movs	r0, #1
 204:Core/Src/filtrage.c **** }
 987              		.loc 1 204 1 view .LVU260
 988 0042 03B0     		add	sp, sp, #12
 989              		.cfi_def_cfa_offset 12
 990              		@ sp needed
 991 0044 30BD     		pop	{r4, r5, pc}
 992              	.LVL98:
 993              	.L96:
 994              		.cfi_def_cfa_offset 0
 995              		.cfi_restore 4
 996              		.cfi_restore 5
 997              		.cfi_restore 14
 189:Core/Src/filtrage.c ****     }
 998              		.loc 1 189 16 view .LVU261
 999 0046 0020     		movs	r0, #0
 1000              	.LVL99:
 1001              		.loc 1 204 1 view .LVU262
 1002 0048 7047     		bx	lr
 1003              		.cfi_endproc
 1004              	.LFE185:
 1006              		.section	.text.DMA_Config,"ax",%progbits
 1007              		.align	1
 1008              		.global	DMA_Config
 1009              		.syntax unified
 1010              		.thumb
 1011              		.thumb_func
 1013              	DMA_Config:
 1014              	.LFB186:
 205:Core/Src/filtrage.c **** 
ARM GAS  /var/folders/n6/c271nzx11xl4r4_m7sqjlt0m0000gn/T//ccGo3Vqh.s 			page 24


 206:Core/Src/filtrage.c **** uint8_t DMA_Config(void)
 207:Core/Src/filtrage.c **** {
 1015              		.loc 1 207 1 is_stmt 1 view -0
 1016              		.cfi_startproc
 1017              		@ args = 0, pretend = 0, frame = 8
 1018              		@ frame_needed = 0, uses_anonymous_args = 0
 1019 0000 00B5     		push	{lr}
 1020              		.cfi_def_cfa_offset 4
 1021              		.cfi_offset 14, -4
 1022 0002 83B0     		sub	sp, sp, #12
 1023              		.cfi_def_cfa_offset 16
 208:Core/Src/filtrage.c ****     __HAL_RCC_DMA2_CLK_ENABLE();
 1024              		.loc 1 208 5 view .LVU264
 1025              	.LBB31:
 1026              		.loc 1 208 5 view .LVU265
 1027              		.loc 1 208 5 view .LVU266
 1028 0004 154B     		ldr	r3, .L105
 1029 0006 1A6B     		ldr	r2, [r3, #48]
 1030 0008 42F48002 		orr	r2, r2, #4194304
 1031 000c 1A63     		str	r2, [r3, #48]
 1032              		.loc 1 208 5 view .LVU267
 1033 000e 1B6B     		ldr	r3, [r3, #48]
 1034 0010 03F48003 		and	r3, r3, #4194304
 1035 0014 0193     		str	r3, [sp, #4]
 1036              		.loc 1 208 5 view .LVU268
 1037 0016 019B     		ldr	r3, [sp, #4]
 1038              	.LBE31:
 1039              		.loc 1 208 5 view .LVU269
 209:Core/Src/filtrage.c **** 
 210:Core/Src/filtrage.c ****     hdma_memtomem_dma2_stream2.Instance = DMA2_Stream2;
 1040              		.loc 1 210 5 view .LVU270
 1041              		.loc 1 210 41 is_stmt 0 view .LVU271
 1042 0018 1148     		ldr	r0, .L105+4
 1043 001a 124B     		ldr	r3, .L105+8
 1044 001c 0360     		str	r3, [r0]
 211:Core/Src/filtrage.c ****     hdma_memtomem_dma2_stream2.Init.Channel = DMA_CHANNEL_0;
 1045              		.loc 1 211 5 is_stmt 1 view .LVU272
 1046              		.loc 1 211 45 is_stmt 0 view .LVU273
 1047 001e 0023     		movs	r3, #0
 1048 0020 4360     		str	r3, [r0, #4]
 212:Core/Src/filtrage.c ****     hdma_memtomem_dma2_stream2.Init.Direction = DMA_MEMORY_TO_MEMORY;
 1049              		.loc 1 212 5 is_stmt 1 view .LVU274
 1050              		.loc 1 212 47 is_stmt 0 view .LVU275
 1051 0022 8022     		movs	r2, #128
 1052 0024 8260     		str	r2, [r0, #8]
 213:Core/Src/filtrage.c ****     hdma_memtomem_dma2_stream2.Init.PeriphInc = DMA_PINC_ENABLE;
 1053              		.loc 1 213 5 is_stmt 1 view .LVU276
 1054              		.loc 1 213 47 is_stmt 0 view .LVU277
 1055 0026 4FF40072 		mov	r2, #512
 1056 002a C260     		str	r2, [r0, #12]
 214:Core/Src/filtrage.c ****     hdma_memtomem_dma2_stream2.Init.MemInc = DMA_MINC_ENABLE;
 1057              		.loc 1 214 5 is_stmt 1 view .LVU278
 1058              		.loc 1 214 44 is_stmt 0 view .LVU279
 1059 002c 4FF48062 		mov	r2, #1024
 1060 0030 0261     		str	r2, [r0, #16]
 215:Core/Src/filtrage.c ****     hdma_memtomem_dma2_stream2.Init.PeriphDataAlignment = DMA_PDATAALIGN_HALFWORD;
 1061              		.loc 1 215 5 is_stmt 1 view .LVU280
ARM GAS  /var/folders/n6/c271nzx11xl4r4_m7sqjlt0m0000gn/T//ccGo3Vqh.s 			page 25


 1062              		.loc 1 215 57 is_stmt 0 view .LVU281
 1063 0032 4FF40062 		mov	r2, #2048
 1064 0036 4261     		str	r2, [r0, #20]
 216:Core/Src/filtrage.c ****     hdma_memtomem_dma2_stream2.Init.MemDataAlignment = DMA_MDATAALIGN_HALFWORD;
 1065              		.loc 1 216 5 is_stmt 1 view .LVU282
 1066              		.loc 1 216 54 is_stmt 0 view .LVU283
 1067 0038 4FF40052 		mov	r2, #8192
 1068 003c 8261     		str	r2, [r0, #24]
 217:Core/Src/filtrage.c ****     hdma_memtomem_dma2_stream2.Init.Mode = DMA_NORMAL;
 1069              		.loc 1 217 5 is_stmt 1 view .LVU284
 1070              		.loc 1 217 42 is_stmt 0 view .LVU285
 1071 003e C361     		str	r3, [r0, #28]
 218:Core/Src/filtrage.c ****     hdma_memtomem_dma2_stream2.Init.Priority = DMA_PRIORITY_HIGH;
 1072              		.loc 1 218 5 is_stmt 1 view .LVU286
 1073              		.loc 1 218 46 is_stmt 0 view .LVU287
 1074 0040 4FF40032 		mov	r2, #131072
 1075 0044 0262     		str	r2, [r0, #32]
 219:Core/Src/filtrage.c ****     hdma_memtomem_dma2_stream2.Init.FIFOMode = DMA_FIFOMODE_DISABLE;
 1076              		.loc 1 219 5 is_stmt 1 view .LVU288
 1077              		.loc 1 219 46 is_stmt 0 view .LVU289
 1078 0046 4362     		str	r3, [r0, #36]
 220:Core/Src/filtrage.c **** 
 221:Core/Src/filtrage.c ****     if (HAL_DMA_Init(&hdma_memtomem_dma2_stream2) != HAL_OK)
 1079              		.loc 1 221 5 is_stmt 1 view .LVU290
 1080              		.loc 1 221 9 is_stmt 0 view .LVU291
 1081 0048 FFF7FEFF 		bl	HAL_DMA_Init
 1082              	.LVL100:
 1083              		.loc 1 221 8 discriminator 1 view .LVU292
 1084 004c 18B9     		cbnz	r0, .L103
 222:Core/Src/filtrage.c ****     {
 223:Core/Src/filtrage.c ****         return FILTER_CALCULATION_ERROR;
 224:Core/Src/filtrage.c ****     }
 225:Core/Src/filtrage.c ****     return FILTER_CALCULATION_OK;
 1085              		.loc 1 225 12 view .LVU293
 1086 004e 0120     		movs	r0, #1
 1087              	.L102:
 226:Core/Src/filtrage.c **** }
 1088              		.loc 1 226 1 view .LVU294
 1089 0050 03B0     		add	sp, sp, #12
 1090              		.cfi_remember_state
 1091              		.cfi_def_cfa_offset 4
 1092              		@ sp needed
 1093 0052 5DF804FB 		ldr	pc, [sp], #4
 1094              	.L103:
 1095              		.cfi_restore_state
 223:Core/Src/filtrage.c ****     }
 1096              		.loc 1 223 16 view .LVU295
 1097 0056 0020     		movs	r0, #0
 1098 0058 FAE7     		b	.L102
 1099              	.L106:
 1100 005a 00BF     		.align	2
 1101              	.L105:
 1102 005c 00380240 		.word	1073887232
 1103 0060 00000000 		.word	hdma_memtomem_dma2_stream2
 1104 0064 40640240 		.word	1073898560
 1105              		.cfi_endproc
 1106              	.LFE186:
ARM GAS  /var/folders/n6/c271nzx11xl4r4_m7sqjlt0m0000gn/T//ccGo3Vqh.s 			page 26


 1108              		.section	.text.Feature_Export,"ax",%progbits
 1109              		.align	1
 1110              		.global	Feature_Export
 1111              		.syntax unified
 1112              		.thumb
 1113              		.thumb_func
 1115              	Feature_Export:
 1116              	.LVL101:
 1117              	.LFB187:
 227:Core/Src/filtrage.c **** 
 228:Core/Src/filtrage.c **** uint8_t Feature_Export(float32_t *pOut, int16_t *pIn, uint8_t bufferState)
 229:Core/Src/filtrage.c **** {
 1118              		.loc 1 229 1 is_stmt 1 view -0
 1119              		.cfi_startproc
 1120              		@ args = 0, pretend = 0, frame = 0
 1121              		@ frame_needed = 0, uses_anonymous_args = 0
 1122              		.loc 1 229 1 is_stmt 0 view .LVU297
 1123 0000 2DE9F041 		push	{r4, r5, r6, r7, r8, lr}
 1124              		.cfi_def_cfa_offset 24
 1125              		.cfi_offset 4, -24
 1126              		.cfi_offset 5, -20
 1127              		.cfi_offset 6, -16
 1128              		.cfi_offset 7, -12
 1129              		.cfi_offset 8, -8
 1130              		.cfi_offset 14, -4
 1131 0004 8046     		mov	r8, r0
 1132 0006 0C46     		mov	r4, r1
 1133 0008 1746     		mov	r7, r2
 230:Core/Src/filtrage.c ****     if (bufferState == BUFFER_HALF)
 1134              		.loc 1 230 5 is_stmt 1 view .LVU298
 1135              		.loc 1 230 8 is_stmt 0 view .LVU299
 1136 000a 012A     		cmp	r2, #1
 1137 000c 05D0     		beq	.L135
 231:Core/Src/filtrage.c ****     {
 232:Core/Src/filtrage.c ****         if (buffer_run != BUFFER_HALF_FIRST)
 233:Core/Src/filtrage.c ****         {
 234:Core/Src/filtrage.c ****             cReadIndex = 3 * FILTRAGE_SIZE;
 235:Core/Src/filtrage.c ****             arm_circularRead_q15(pIn, STEREO_RECORD_BUFFER_SIZE, &cReadIndex, 2, rawPCMdata, &distI
 236:Core/Src/filtrage.c **** 
 237:Core/Src/filtrage.c ****             Hanning_window(tmp_buf_1, rawPCMdata, FILTRAGE_SIZE, MONO);
 238:Core/Src/filtrage.c ****             FFT_Calculation(tmp_buf_2, tmp_buf_1);
 239:Core/Src/filtrage.c ****             DSE_Calculation(tmp_buf_1, tmp_buf_2);
 240:Core/Src/filtrage.c ****             MEL_Calculation(&pOut[mel_indice * N_MELS], tmp_buf_1);
 241:Core/Src/filtrage.c ****             ZScore_Calculation(&pOut[mel_indice * N_MELS], N_MELS);
 242:Core/Src/filtrage.c ****             mel_indice++;
 243:Core/Src/filtrage.c ****         }
 244:Core/Src/filtrage.c ****         if (mel_indice == 32)
 245:Core/Src/filtrage.c ****         {
 246:Core/Src/filtrage.c ****             mel_indice = 0;
 247:Core/Src/filtrage.c ****             arm_copy_q15(&rawPCMdata[FILTRAGE_SIZE / 2], &sd_wav_cache[FILTRAGE_SIZE * wav_indice],
 248:Core/Src/filtrage.c ****             WriteWAVFile((uint8_t *)sd_wav_cache, sizeof(sd_wav_cache), END_WAV_FILE);
 249:Core/Src/filtrage.c ****             wav_indice = 0;
 250:Core/Src/filtrage.c ****             return FEATURE_EXPORT_OK;
 251:Core/Src/filtrage.c ****         }
 252:Core/Src/filtrage.c **** 
 253:Core/Src/filtrage.c ****         cReadIndex = 0;
 254:Core/Src/filtrage.c ****         arm_circularRead_q15(pIn, STEREO_RECORD_BUFFER_SIZE, &cReadIndex, 2, rawPCMdata, &distIndex
ARM GAS  /var/folders/n6/c271nzx11xl4r4_m7sqjlt0m0000gn/T//ccGo3Vqh.s 			page 27


 255:Core/Src/filtrage.c **** 
 256:Core/Src/filtrage.c ****         Hanning_window(tmp_buf_1, rawPCMdata, FILTRAGE_SIZE, MONO);
 257:Core/Src/filtrage.c ****         FFT_Calculation(tmp_buf_2, tmp_buf_1);
 258:Core/Src/filtrage.c ****         DSE_Calculation(tmp_buf_1, tmp_buf_2);
 259:Core/Src/filtrage.c ****         MEL_Calculation(&pOut[mel_indice * N_MELS], tmp_buf_1);
 260:Core/Src/filtrage.c ****         ZScore_Calculation(&pOut[mel_indice * N_MELS], N_MELS);
 261:Core/Src/filtrage.c ****         buffer_run = BUFFER_HALF_NONE;
 262:Core/Src/filtrage.c ****         mel_indice++;
 263:Core/Src/filtrage.c ****         arm_copy_q15(rawPCMdata, &sd_wav_cache[FILTRAGE_SIZE * wav_indice++], FILTRAGE_SIZE);
 264:Core/Src/filtrage.c ****     }
 265:Core/Src/filtrage.c ****     else if (bufferState == BUFFER_FULL)
 1138              		.loc 1 265 10 is_stmt 1 view .LVU300
 1139              		.loc 1 265 13 is_stmt 0 view .LVU301
 1140 000e 022A     		cmp	r2, #2
 1141 0010 00F0B880 		beq	.L136
 266:Core/Src/filtrage.c ****     {
 267:Core/Src/filtrage.c ****         cReadIndex = FILTRAGE_SIZE;
 268:Core/Src/filtrage.c ****         arm_circularRead_q15(pIn, STEREO_RECORD_BUFFER_SIZE, &cReadIndex, 2, rawPCMdata, &distIndex
 269:Core/Src/filtrage.c **** 
 270:Core/Src/filtrage.c ****         Hanning_window(tmp_buf_1, rawPCMdata, FILTRAGE_SIZE, MONO);
 271:Core/Src/filtrage.c ****         FFT_Calculation(tmp_buf_2, tmp_buf_1);
 272:Core/Src/filtrage.c ****         DSE_Calculation(tmp_buf_1, tmp_buf_2);
 273:Core/Src/filtrage.c ****         MEL_Calculation(&pOut[mel_indice * N_MELS], tmp_buf_1);
 274:Core/Src/filtrage.c ****         ZScore_Calculation(&pOut[mel_indice * N_MELS], N_MELS);
 275:Core/Src/filtrage.c ****         mel_indice++;
 276:Core/Src/filtrage.c **** 
 277:Core/Src/filtrage.c ****         if (mel_indice == 32)
 278:Core/Src/filtrage.c ****         {
 279:Core/Src/filtrage.c ****             mel_indice = 0;
 280:Core/Src/filtrage.c ****             arm_copy_q15(&rawPCMdata[FILTRAGE_SIZE / 2], &sd_wav_cache[FILTRAGE_SIZE * wav_indice],
 281:Core/Src/filtrage.c ****             WriteWAVFile((uint8_t *)sd_wav_cache, sizeof(sd_wav_cache), END_WAV_FILE);
 282:Core/Src/filtrage.c ****             wav_indice = 0;
 283:Core/Src/filtrage.c ****             return FEATURE_EXPORT_OK;
 284:Core/Src/filtrage.c ****         }
 285:Core/Src/filtrage.c **** 
 286:Core/Src/filtrage.c ****         cReadIndex = 2 * FILTRAGE_SIZE;
 287:Core/Src/filtrage.c ****         arm_circularRead_q15(pIn, STEREO_RECORD_BUFFER_SIZE, &cReadIndex, 2, rawPCMdata, &distIndex
 288:Core/Src/filtrage.c **** 
 289:Core/Src/filtrage.c ****         Hanning_window(tmp_buf_1, rawPCMdata, FILTRAGE_SIZE, MONO);
 290:Core/Src/filtrage.c ****         FFT_Calculation(tmp_buf_2, tmp_buf_1);
 291:Core/Src/filtrage.c ****         DSE_Calculation(tmp_buf_1, tmp_buf_2);
 292:Core/Src/filtrage.c ****         MEL_Calculation(&pOut[mel_indice * N_MELS], tmp_buf_1);
 293:Core/Src/filtrage.c ****         ZScore_Calculation(&pOut[mel_indice * N_MELS], N_MELS);
 294:Core/Src/filtrage.c ****         mel_indice++;
 295:Core/Src/filtrage.c ****         arm_copy_q15(rawPCMdata, &sd_wav_cache[FILTRAGE_SIZE * wav_indice++], FILTRAGE_SIZE);
 296:Core/Src/filtrage.c ****     }
 297:Core/Src/filtrage.c **** 
 298:Core/Src/filtrage.c ****     return FEATURE_EXPORT_PROGRESS;
 1142              		.loc 1 298 12 view .LVU302
 1143 0014 0120     		movs	r0, #1
 1144              	.LVL102:
 1145              	.L115:
 299:Core/Src/filtrage.c **** }
 1146              		.loc 1 299 1 view .LVU303
 1147 0016 BDE8F081 		pop	{r4, r5, r6, r7, r8, pc}
 1148              	.LVL103:
 1149              	.L135:
ARM GAS  /var/folders/n6/c271nzx11xl4r4_m7sqjlt0m0000gn/T//ccGo3Vqh.s 			page 28


 232:Core/Src/filtrage.c ****         {
 1150              		.loc 1 232 9 is_stmt 1 view .LVU304
 232:Core/Src/filtrage.c ****         {
 1151              		.loc 1 232 24 is_stmt 0 view .LVU305
 1152 001a B14B     		ldr	r3, .L147
 1153 001c 1B78     		ldrb	r3, [r3]	@ zero_extendqisi2
 232:Core/Src/filtrage.c ****         {
 1154              		.loc 1 232 12 view .LVU306
 1155 001e 012B     		cmp	r3, #1
 1156 0020 42D0     		beq	.L109
 234:Core/Src/filtrage.c ****             arm_circularRead_q15(pIn, STEREO_RECORD_BUFFER_SIZE, &cReadIndex, 2, rawPCMdata, &distI
 1157              		.loc 1 234 13 is_stmt 1 view .LVU307
 234:Core/Src/filtrage.c ****             arm_circularRead_q15(pIn, STEREO_RECORD_BUFFER_SIZE, &cReadIndex, 2, rawPCMdata, &distI
 1158              		.loc 1 234 24 is_stmt 0 view .LVU308
 1159 0022 4FF44063 		mov	r3, #3072
 1160 0026 AF4A     		ldr	r2, .L147+4
 1161              	.LVL104:
 234:Core/Src/filtrage.c ****             arm_circularRead_q15(pIn, STEREO_RECORD_BUFFER_SIZE, &cReadIndex, 2, rawPCMdata, &distI
 1162              		.loc 1 234 24 view .LVU309
 1163 0028 1360     		str	r3, [r2]
 235:Core/Src/filtrage.c **** 
 1164              		.loc 1 235 13 is_stmt 1 view .LVU310
 1165              	.LVL105:
 1166              	.LBB32:
 1167              	.LBI32:
 1168              		.file 2 "Core/Inc/../../Drivers/CMSIS/DSP/Include/arm_math.h"
   1:Core/Inc/../../Drivers/CMSIS/DSP/Include/arm_math.h **** /******************************************************************************
   2:Core/Inc/../../Drivers/CMSIS/DSP/Include/arm_math.h ****  * @file     arm_math.h
   3:Core/Inc/../../Drivers/CMSIS/DSP/Include/arm_math.h ****  * @brief    Public header file for CMSIS DSP LibraryU
   4:Core/Inc/../../Drivers/CMSIS/DSP/Include/arm_math.h ****  * @version  V1.5.3
   5:Core/Inc/../../Drivers/CMSIS/DSP/Include/arm_math.h ****  * @date     10. January 2018
   6:Core/Inc/../../Drivers/CMSIS/DSP/Include/arm_math.h ****  ******************************************************************************/
   7:Core/Inc/../../Drivers/CMSIS/DSP/Include/arm_math.h **** /*
   8:Core/Inc/../../Drivers/CMSIS/DSP/Include/arm_math.h ****  * Copyright (c) 2010-2018 Arm Limited or its affiliates. All rights reserved.
   9:Core/Inc/../../Drivers/CMSIS/DSP/Include/arm_math.h ****  *
  10:Core/Inc/../../Drivers/CMSIS/DSP/Include/arm_math.h ****  * SPDX-License-Identifier: Apache-2.0
  11:Core/Inc/../../Drivers/CMSIS/DSP/Include/arm_math.h ****  *
  12:Core/Inc/../../Drivers/CMSIS/DSP/Include/arm_math.h ****  * Licensed under the Apache License, Version 2.0 (the License); you may
  13:Core/Inc/../../Drivers/CMSIS/DSP/Include/arm_math.h ****  * not use this file except in compliance with the License.
  14:Core/Inc/../../Drivers/CMSIS/DSP/Include/arm_math.h ****  * You may obtain a copy of the License at
  15:Core/Inc/../../Drivers/CMSIS/DSP/Include/arm_math.h ****  *
  16:Core/Inc/../../Drivers/CMSIS/DSP/Include/arm_math.h ****  * www.apache.org/licenses/LICENSE-2.0
  17:Core/Inc/../../Drivers/CMSIS/DSP/Include/arm_math.h ****  *
  18:Core/Inc/../../Drivers/CMSIS/DSP/Include/arm_math.h ****  * Unless required by applicable law or agreed to in writing, software
  19:Core/Inc/../../Drivers/CMSIS/DSP/Include/arm_math.h ****  * distributed under the License is distributed on an AS IS BASIS, WITHOUT
  20:Core/Inc/../../Drivers/CMSIS/DSP/Include/arm_math.h ****  * WARRANTIES OR CONDITIONS OF ANY KIND, either express or implied.
  21:Core/Inc/../../Drivers/CMSIS/DSP/Include/arm_math.h ****  * See the License for the specific language governing permissions and
  22:Core/Inc/../../Drivers/CMSIS/DSP/Include/arm_math.h ****  * limitations under the License.
  23:Core/Inc/../../Drivers/CMSIS/DSP/Include/arm_math.h ****  */
  24:Core/Inc/../../Drivers/CMSIS/DSP/Include/arm_math.h **** 
  25:Core/Inc/../../Drivers/CMSIS/DSP/Include/arm_math.h **** /**
  26:Core/Inc/../../Drivers/CMSIS/DSP/Include/arm_math.h ****    \mainpage CMSIS DSP Software Library
  27:Core/Inc/../../Drivers/CMSIS/DSP/Include/arm_math.h ****    *
  28:Core/Inc/../../Drivers/CMSIS/DSP/Include/arm_math.h ****    * Introduction
  29:Core/Inc/../../Drivers/CMSIS/DSP/Include/arm_math.h ****    * ------------
  30:Core/Inc/../../Drivers/CMSIS/DSP/Include/arm_math.h ****    *
  31:Core/Inc/../../Drivers/CMSIS/DSP/Include/arm_math.h ****    * This user manual describes the CMSIS DSP software library,
ARM GAS  /var/folders/n6/c271nzx11xl4r4_m7sqjlt0m0000gn/T//ccGo3Vqh.s 			page 29


  32:Core/Inc/../../Drivers/CMSIS/DSP/Include/arm_math.h ****    * a suite of common signal processing functions for use on Cortex-M processor based devices.
  33:Core/Inc/../../Drivers/CMSIS/DSP/Include/arm_math.h ****    *
  34:Core/Inc/../../Drivers/CMSIS/DSP/Include/arm_math.h ****    * The library is divided into a number of functions each covering a specific category:
  35:Core/Inc/../../Drivers/CMSIS/DSP/Include/arm_math.h ****    * - Basic math functions
  36:Core/Inc/../../Drivers/CMSIS/DSP/Include/arm_math.h ****    * - Fast math functions
  37:Core/Inc/../../Drivers/CMSIS/DSP/Include/arm_math.h ****    * - Complex math functions
  38:Core/Inc/../../Drivers/CMSIS/DSP/Include/arm_math.h ****    * - Filters
  39:Core/Inc/../../Drivers/CMSIS/DSP/Include/arm_math.h ****    * - Matrix functions
  40:Core/Inc/../../Drivers/CMSIS/DSP/Include/arm_math.h ****    * - Transforms
  41:Core/Inc/../../Drivers/CMSIS/DSP/Include/arm_math.h ****    * - Motor control functions
  42:Core/Inc/../../Drivers/CMSIS/DSP/Include/arm_math.h ****    * - Statistical functions
  43:Core/Inc/../../Drivers/CMSIS/DSP/Include/arm_math.h ****    * - Support functions
  44:Core/Inc/../../Drivers/CMSIS/DSP/Include/arm_math.h ****    * - Interpolation functions
  45:Core/Inc/../../Drivers/CMSIS/DSP/Include/arm_math.h ****    *
  46:Core/Inc/../../Drivers/CMSIS/DSP/Include/arm_math.h ****    * The library has separate functions for operating on 8-bit integers, 16-bit integers,
  47:Core/Inc/../../Drivers/CMSIS/DSP/Include/arm_math.h ****    * 32-bit integer and 32-bit floating-point values.
  48:Core/Inc/../../Drivers/CMSIS/DSP/Include/arm_math.h ****    *
  49:Core/Inc/../../Drivers/CMSIS/DSP/Include/arm_math.h ****    * Using the Library
  50:Core/Inc/../../Drivers/CMSIS/DSP/Include/arm_math.h ****    * ------------
  51:Core/Inc/../../Drivers/CMSIS/DSP/Include/arm_math.h ****    *
  52:Core/Inc/../../Drivers/CMSIS/DSP/Include/arm_math.h ****    * The library installer contains prebuilt versions of the libraries in the <code>Lib</code> fold
  53:Core/Inc/../../Drivers/CMSIS/DSP/Include/arm_math.h ****    * - arm_cortexM7lfdp_math.lib (Cortex-M7, Little endian, Double Precision Floating Point Unit)
  54:Core/Inc/../../Drivers/CMSIS/DSP/Include/arm_math.h ****    * - arm_cortexM7bfdp_math.lib (Cortex-M7, Big endian, Double Precision Floating Point Unit)
  55:Core/Inc/../../Drivers/CMSIS/DSP/Include/arm_math.h ****    * - arm_cortexM7lfsp_math.lib (Cortex-M7, Little endian, Single Precision Floating Point Unit)
  56:Core/Inc/../../Drivers/CMSIS/DSP/Include/arm_math.h ****    * - arm_cortexM7bfsp_math.lib (Cortex-M7, Big endian and Single Precision Floating Point Unit on
  57:Core/Inc/../../Drivers/CMSIS/DSP/Include/arm_math.h ****    * - arm_cortexM7l_math.lib (Cortex-M7, Little endian)
  58:Core/Inc/../../Drivers/CMSIS/DSP/Include/arm_math.h ****    * - arm_cortexM7b_math.lib (Cortex-M7, Big endian)
  59:Core/Inc/../../Drivers/CMSIS/DSP/Include/arm_math.h ****    * - arm_cortexM4lf_math.lib (Cortex-M4, Little endian, Floating Point Unit)
  60:Core/Inc/../../Drivers/CMSIS/DSP/Include/arm_math.h ****    * - arm_cortexM4bf_math.lib (Cortex-M4, Big endian, Floating Point Unit)
  61:Core/Inc/../../Drivers/CMSIS/DSP/Include/arm_math.h ****    * - arm_cortexM4l_math.lib (Cortex-M4, Little endian)
  62:Core/Inc/../../Drivers/CMSIS/DSP/Include/arm_math.h ****    * - arm_cortexM4b_math.lib (Cortex-M4, Big endian)
  63:Core/Inc/../../Drivers/CMSIS/DSP/Include/arm_math.h ****    * - arm_cortexM3l_math.lib (Cortex-M3, Little endian)
  64:Core/Inc/../../Drivers/CMSIS/DSP/Include/arm_math.h ****    * - arm_cortexM3b_math.lib (Cortex-M3, Big endian)
  65:Core/Inc/../../Drivers/CMSIS/DSP/Include/arm_math.h ****    * - arm_cortexM0l_math.lib (Cortex-M0 / Cortex-M0+, Little endian)
  66:Core/Inc/../../Drivers/CMSIS/DSP/Include/arm_math.h ****    * - arm_cortexM0b_math.lib (Cortex-M0 / Cortex-M0+, Big endian)
  67:Core/Inc/../../Drivers/CMSIS/DSP/Include/arm_math.h ****    * - arm_ARMv8MBLl_math.lib (Armv8-M Baseline, Little endian)
  68:Core/Inc/../../Drivers/CMSIS/DSP/Include/arm_math.h ****    * - arm_ARMv8MMLl_math.lib (Armv8-M Mainline, Little endian)
  69:Core/Inc/../../Drivers/CMSIS/DSP/Include/arm_math.h ****    * - arm_ARMv8MMLlfsp_math.lib (Armv8-M Mainline, Little endian, Single Precision Floating Point 
  70:Core/Inc/../../Drivers/CMSIS/DSP/Include/arm_math.h ****    * - arm_ARMv8MMLld_math.lib (Armv8-M Mainline, Little endian, DSP instructions)
  71:Core/Inc/../../Drivers/CMSIS/DSP/Include/arm_math.h ****    * - arm_ARMv8MMLldfsp_math.lib (Armv8-M Mainline, Little endian, DSP instructions, Single Precis
  72:Core/Inc/../../Drivers/CMSIS/DSP/Include/arm_math.h ****    *
  73:Core/Inc/../../Drivers/CMSIS/DSP/Include/arm_math.h ****    * The library functions are declared in the public file <code>arm_math.h</code> which is placed 
  74:Core/Inc/../../Drivers/CMSIS/DSP/Include/arm_math.h ****    * Simply include this file and link the appropriate library in the application and begin calling
  75:Core/Inc/../../Drivers/CMSIS/DSP/Include/arm_math.h ****    * public header file <code> arm_math.h</code> for Cortex-M cores with little endian and big endi
  76:Core/Inc/../../Drivers/CMSIS/DSP/Include/arm_math.h ****    * Define the appropriate preprocessor macro ARM_MATH_CM7 or ARM_MATH_CM4 or ARM_MATH_CM3 or
  77:Core/Inc/../../Drivers/CMSIS/DSP/Include/arm_math.h ****    * ARM_MATH_CM0 or ARM_MATH_CM0PLUS depending on the target processor in the application.
  78:Core/Inc/../../Drivers/CMSIS/DSP/Include/arm_math.h ****    * For Armv8-M cores define preprocessor macro ARM_MATH_ARMV8MBL or ARM_MATH_ARMV8MML.
  79:Core/Inc/../../Drivers/CMSIS/DSP/Include/arm_math.h ****    * Set preprocessor macro __DSP_PRESENT if Armv8-M Mainline core supports DSP instructions.
  80:Core/Inc/../../Drivers/CMSIS/DSP/Include/arm_math.h ****    *
  81:Core/Inc/../../Drivers/CMSIS/DSP/Include/arm_math.h ****    *
  82:Core/Inc/../../Drivers/CMSIS/DSP/Include/arm_math.h ****    * Examples
  83:Core/Inc/../../Drivers/CMSIS/DSP/Include/arm_math.h ****    * --------
  84:Core/Inc/../../Drivers/CMSIS/DSP/Include/arm_math.h ****    *
  85:Core/Inc/../../Drivers/CMSIS/DSP/Include/arm_math.h ****    * The library ships with a number of examples which demonstrate how to use the library functions
  86:Core/Inc/../../Drivers/CMSIS/DSP/Include/arm_math.h ****    *
  87:Core/Inc/../../Drivers/CMSIS/DSP/Include/arm_math.h ****    * Toolchain Support
  88:Core/Inc/../../Drivers/CMSIS/DSP/Include/arm_math.h ****    * ------------
ARM GAS  /var/folders/n6/c271nzx11xl4r4_m7sqjlt0m0000gn/T//ccGo3Vqh.s 			page 30


  89:Core/Inc/../../Drivers/CMSIS/DSP/Include/arm_math.h ****    *
  90:Core/Inc/../../Drivers/CMSIS/DSP/Include/arm_math.h ****    * The library has been developed and tested with MDK version 5.14.0.0
  91:Core/Inc/../../Drivers/CMSIS/DSP/Include/arm_math.h ****    * The library is being tested in GCC and IAR toolchains and updates on this activity will be mad
  92:Core/Inc/../../Drivers/CMSIS/DSP/Include/arm_math.h ****    *
  93:Core/Inc/../../Drivers/CMSIS/DSP/Include/arm_math.h ****    * Building the Library
  94:Core/Inc/../../Drivers/CMSIS/DSP/Include/arm_math.h ****    * ------------
  95:Core/Inc/../../Drivers/CMSIS/DSP/Include/arm_math.h ****    *
  96:Core/Inc/../../Drivers/CMSIS/DSP/Include/arm_math.h ****    * The library installer contains a project file to rebuild libraries on MDK toolchain in the <co
  97:Core/Inc/../../Drivers/CMSIS/DSP/Include/arm_math.h ****    * - arm_cortexM_math.uvprojx
  98:Core/Inc/../../Drivers/CMSIS/DSP/Include/arm_math.h ****    *
  99:Core/Inc/../../Drivers/CMSIS/DSP/Include/arm_math.h ****    *
 100:Core/Inc/../../Drivers/CMSIS/DSP/Include/arm_math.h ****    * The libraries can be built by opening the arm_cortexM_math.uvprojx project in MDK-ARM, selecti
 101:Core/Inc/../../Drivers/CMSIS/DSP/Include/arm_math.h ****    *
 102:Core/Inc/../../Drivers/CMSIS/DSP/Include/arm_math.h ****    * Preprocessor Macros
 103:Core/Inc/../../Drivers/CMSIS/DSP/Include/arm_math.h ****    * ------------
 104:Core/Inc/../../Drivers/CMSIS/DSP/Include/arm_math.h ****    *
 105:Core/Inc/../../Drivers/CMSIS/DSP/Include/arm_math.h ****    * Each library project have different preprocessor macros.
 106:Core/Inc/../../Drivers/CMSIS/DSP/Include/arm_math.h ****    *
 107:Core/Inc/../../Drivers/CMSIS/DSP/Include/arm_math.h ****    * - UNALIGNED_SUPPORT_DISABLE:
 108:Core/Inc/../../Drivers/CMSIS/DSP/Include/arm_math.h ****    *
 109:Core/Inc/../../Drivers/CMSIS/DSP/Include/arm_math.h ****    * Define macro UNALIGNED_SUPPORT_DISABLE, If the silicon does not support unaligned memory acces
 110:Core/Inc/../../Drivers/CMSIS/DSP/Include/arm_math.h ****    *
 111:Core/Inc/../../Drivers/CMSIS/DSP/Include/arm_math.h ****    * - ARM_MATH_BIG_ENDIAN:
 112:Core/Inc/../../Drivers/CMSIS/DSP/Include/arm_math.h ****    *
 113:Core/Inc/../../Drivers/CMSIS/DSP/Include/arm_math.h ****    * Define macro ARM_MATH_BIG_ENDIAN to build the library for big endian targets. By default libra
 114:Core/Inc/../../Drivers/CMSIS/DSP/Include/arm_math.h ****    *
 115:Core/Inc/../../Drivers/CMSIS/DSP/Include/arm_math.h ****    * - ARM_MATH_MATRIX_CHECK:
 116:Core/Inc/../../Drivers/CMSIS/DSP/Include/arm_math.h ****    *
 117:Core/Inc/../../Drivers/CMSIS/DSP/Include/arm_math.h ****    * Define macro ARM_MATH_MATRIX_CHECK for checking on the input and output sizes of matrices
 118:Core/Inc/../../Drivers/CMSIS/DSP/Include/arm_math.h ****    *
 119:Core/Inc/../../Drivers/CMSIS/DSP/Include/arm_math.h ****    * - ARM_MATH_ROUNDING:
 120:Core/Inc/../../Drivers/CMSIS/DSP/Include/arm_math.h ****    *
 121:Core/Inc/../../Drivers/CMSIS/DSP/Include/arm_math.h ****    * Define macro ARM_MATH_ROUNDING for rounding on support functions
 122:Core/Inc/../../Drivers/CMSIS/DSP/Include/arm_math.h ****    *
 123:Core/Inc/../../Drivers/CMSIS/DSP/Include/arm_math.h ****    * - ARM_MATH_CMx:
 124:Core/Inc/../../Drivers/CMSIS/DSP/Include/arm_math.h ****    *
 125:Core/Inc/../../Drivers/CMSIS/DSP/Include/arm_math.h ****    * Define macro ARM_MATH_CM4 for building the library on Cortex-M4 target, ARM_MATH_CM3 for build
 126:Core/Inc/../../Drivers/CMSIS/DSP/Include/arm_math.h ****    * and ARM_MATH_CM0 for building library on Cortex-M0 target, ARM_MATH_CM0PLUS for building libra
 127:Core/Inc/../../Drivers/CMSIS/DSP/Include/arm_math.h ****    * ARM_MATH_CM7 for building the library on cortex-M7.
 128:Core/Inc/../../Drivers/CMSIS/DSP/Include/arm_math.h ****    *
 129:Core/Inc/../../Drivers/CMSIS/DSP/Include/arm_math.h ****    * - ARM_MATH_ARMV8MxL:
 130:Core/Inc/../../Drivers/CMSIS/DSP/Include/arm_math.h ****    *
 131:Core/Inc/../../Drivers/CMSIS/DSP/Include/arm_math.h ****    * Define macro ARM_MATH_ARMV8MBL for building the library on Armv8-M Baseline target, ARM_MATH_A
 132:Core/Inc/../../Drivers/CMSIS/DSP/Include/arm_math.h ****    * on Armv8-M Mainline target.
 133:Core/Inc/../../Drivers/CMSIS/DSP/Include/arm_math.h ****    *
 134:Core/Inc/../../Drivers/CMSIS/DSP/Include/arm_math.h ****    * - __FPU_PRESENT:
 135:Core/Inc/../../Drivers/CMSIS/DSP/Include/arm_math.h ****    *
 136:Core/Inc/../../Drivers/CMSIS/DSP/Include/arm_math.h ****    * Initialize macro __FPU_PRESENT = 1 when building on FPU supported Targets. Enable this macro f
 137:Core/Inc/../../Drivers/CMSIS/DSP/Include/arm_math.h ****    *
 138:Core/Inc/../../Drivers/CMSIS/DSP/Include/arm_math.h ****    * - __DSP_PRESENT:
 139:Core/Inc/../../Drivers/CMSIS/DSP/Include/arm_math.h ****    *
 140:Core/Inc/../../Drivers/CMSIS/DSP/Include/arm_math.h ****    * Initialize macro __DSP_PRESENT = 1 when Armv8-M Mainline core supports DSP instructions.
 141:Core/Inc/../../Drivers/CMSIS/DSP/Include/arm_math.h ****    *
 142:Core/Inc/../../Drivers/CMSIS/DSP/Include/arm_math.h ****    * <hr>
 143:Core/Inc/../../Drivers/CMSIS/DSP/Include/arm_math.h ****    * CMSIS-DSP in ARM::CMSIS Pack
 144:Core/Inc/../../Drivers/CMSIS/DSP/Include/arm_math.h ****    * -----------------------------
 145:Core/Inc/../../Drivers/CMSIS/DSP/Include/arm_math.h ****    *
ARM GAS  /var/folders/n6/c271nzx11xl4r4_m7sqjlt0m0000gn/T//ccGo3Vqh.s 			page 31


 146:Core/Inc/../../Drivers/CMSIS/DSP/Include/arm_math.h ****    * The following files relevant to CMSIS-DSP are present in the <b>ARM::CMSIS</b> Pack directorie
 147:Core/Inc/../../Drivers/CMSIS/DSP/Include/arm_math.h ****    * |File/Folder                   |Content                                                       
 148:Core/Inc/../../Drivers/CMSIS/DSP/Include/arm_math.h ****    * |------------------------------|--------------------------------------------------------------
 149:Core/Inc/../../Drivers/CMSIS/DSP/Include/arm_math.h ****    * |\b CMSIS\\Documentation\\DSP  | This documentation                                           
 150:Core/Inc/../../Drivers/CMSIS/DSP/Include/arm_math.h ****    * |\b CMSIS\\DSP_Lib             | Software license agreement (license.txt)                     
 151:Core/Inc/../../Drivers/CMSIS/DSP/Include/arm_math.h ****    * |\b CMSIS\\DSP_Lib\\Examples   | Example projects demonstrating the usage of the library funct
 152:Core/Inc/../../Drivers/CMSIS/DSP/Include/arm_math.h ****    * |\b CMSIS\\DSP_Lib\\Source     | Source files for rebuilding the library                      
 153:Core/Inc/../../Drivers/CMSIS/DSP/Include/arm_math.h ****    *
 154:Core/Inc/../../Drivers/CMSIS/DSP/Include/arm_math.h ****    * <hr>
 155:Core/Inc/../../Drivers/CMSIS/DSP/Include/arm_math.h ****    * Revision History of CMSIS-DSP
 156:Core/Inc/../../Drivers/CMSIS/DSP/Include/arm_math.h ****    * ------------
 157:Core/Inc/../../Drivers/CMSIS/DSP/Include/arm_math.h ****    * Please refer to \ref ChangeLog_pg.
 158:Core/Inc/../../Drivers/CMSIS/DSP/Include/arm_math.h ****    *
 159:Core/Inc/../../Drivers/CMSIS/DSP/Include/arm_math.h ****    * Copyright Notice
 160:Core/Inc/../../Drivers/CMSIS/DSP/Include/arm_math.h ****    * ------------
 161:Core/Inc/../../Drivers/CMSIS/DSP/Include/arm_math.h ****    *
 162:Core/Inc/../../Drivers/CMSIS/DSP/Include/arm_math.h ****    * Copyright (C) 2010-2015 Arm Limited. All rights reserved.
 163:Core/Inc/../../Drivers/CMSIS/DSP/Include/arm_math.h ****    */
 164:Core/Inc/../../Drivers/CMSIS/DSP/Include/arm_math.h **** 
 165:Core/Inc/../../Drivers/CMSIS/DSP/Include/arm_math.h **** /**
 166:Core/Inc/../../Drivers/CMSIS/DSP/Include/arm_math.h ****  * @defgroup groupMath Basic Math Functions
 167:Core/Inc/../../Drivers/CMSIS/DSP/Include/arm_math.h ****  */
 168:Core/Inc/../../Drivers/CMSIS/DSP/Include/arm_math.h **** 
 169:Core/Inc/../../Drivers/CMSIS/DSP/Include/arm_math.h **** /**
 170:Core/Inc/../../Drivers/CMSIS/DSP/Include/arm_math.h ****  * @defgroup groupFastMath Fast Math Functions
 171:Core/Inc/../../Drivers/CMSIS/DSP/Include/arm_math.h ****  * This set of functions provides a fast approximation to sine, cosine, and square root.
 172:Core/Inc/../../Drivers/CMSIS/DSP/Include/arm_math.h ****  * As compared to most of the other functions in the CMSIS math library, the fast math functions
 173:Core/Inc/../../Drivers/CMSIS/DSP/Include/arm_math.h ****  * operate on individual values and not arrays.
 174:Core/Inc/../../Drivers/CMSIS/DSP/Include/arm_math.h ****  * There are separate functions for Q15, Q31, and floating-point data.
 175:Core/Inc/../../Drivers/CMSIS/DSP/Include/arm_math.h ****  *
 176:Core/Inc/../../Drivers/CMSIS/DSP/Include/arm_math.h ****  */
 177:Core/Inc/../../Drivers/CMSIS/DSP/Include/arm_math.h **** 
 178:Core/Inc/../../Drivers/CMSIS/DSP/Include/arm_math.h **** /**
 179:Core/Inc/../../Drivers/CMSIS/DSP/Include/arm_math.h ****  * @defgroup groupCmplxMath Complex Math Functions
 180:Core/Inc/../../Drivers/CMSIS/DSP/Include/arm_math.h ****  * This set of functions operates on complex data vectors.
 181:Core/Inc/../../Drivers/CMSIS/DSP/Include/arm_math.h ****  * The data in the complex arrays is stored in an interleaved fashion
 182:Core/Inc/../../Drivers/CMSIS/DSP/Include/arm_math.h ****  * (real, imag, real, imag, ...).
 183:Core/Inc/../../Drivers/CMSIS/DSP/Include/arm_math.h ****  * In the API functions, the number of samples in a complex array refers
 184:Core/Inc/../../Drivers/CMSIS/DSP/Include/arm_math.h ****  * to the number of complex values; the array contains twice this number of
 185:Core/Inc/../../Drivers/CMSIS/DSP/Include/arm_math.h ****  * real values.
 186:Core/Inc/../../Drivers/CMSIS/DSP/Include/arm_math.h ****  */
 187:Core/Inc/../../Drivers/CMSIS/DSP/Include/arm_math.h **** 
 188:Core/Inc/../../Drivers/CMSIS/DSP/Include/arm_math.h **** /**
 189:Core/Inc/../../Drivers/CMSIS/DSP/Include/arm_math.h ****  * @defgroup groupFilters Filtering Functions
 190:Core/Inc/../../Drivers/CMSIS/DSP/Include/arm_math.h ****  */
 191:Core/Inc/../../Drivers/CMSIS/DSP/Include/arm_math.h **** 
 192:Core/Inc/../../Drivers/CMSIS/DSP/Include/arm_math.h **** /**
 193:Core/Inc/../../Drivers/CMSIS/DSP/Include/arm_math.h ****  * @defgroup groupMatrix Matrix Functions
 194:Core/Inc/../../Drivers/CMSIS/DSP/Include/arm_math.h ****  *
 195:Core/Inc/../../Drivers/CMSIS/DSP/Include/arm_math.h ****  * This set of functions provides basic matrix math operations.
 196:Core/Inc/../../Drivers/CMSIS/DSP/Include/arm_math.h ****  * The functions operate on matrix data structures.  For example,
 197:Core/Inc/../../Drivers/CMSIS/DSP/Include/arm_math.h ****  * the type
 198:Core/Inc/../../Drivers/CMSIS/DSP/Include/arm_math.h ****  * definition for the floating-point matrix structure is shown
 199:Core/Inc/../../Drivers/CMSIS/DSP/Include/arm_math.h ****  * below:
 200:Core/Inc/../../Drivers/CMSIS/DSP/Include/arm_math.h ****  * <pre>
 201:Core/Inc/../../Drivers/CMSIS/DSP/Include/arm_math.h ****  *     typedef struct
 202:Core/Inc/../../Drivers/CMSIS/DSP/Include/arm_math.h ****  *     {
ARM GAS  /var/folders/n6/c271nzx11xl4r4_m7sqjlt0m0000gn/T//ccGo3Vqh.s 			page 32


 203:Core/Inc/../../Drivers/CMSIS/DSP/Include/arm_math.h ****  *       uint16_t numRows;     // number of rows of the matrix.
 204:Core/Inc/../../Drivers/CMSIS/DSP/Include/arm_math.h ****  *       uint16_t numCols;     // number of columns of the matrix.
 205:Core/Inc/../../Drivers/CMSIS/DSP/Include/arm_math.h ****  *       float32_t *pData;     // points to the data of the matrix.
 206:Core/Inc/../../Drivers/CMSIS/DSP/Include/arm_math.h ****  *     } arm_matrix_instance_f32;
 207:Core/Inc/../../Drivers/CMSIS/DSP/Include/arm_math.h ****  * </pre>
 208:Core/Inc/../../Drivers/CMSIS/DSP/Include/arm_math.h ****  * There are similar definitions for Q15 and Q31 data types.
 209:Core/Inc/../../Drivers/CMSIS/DSP/Include/arm_math.h ****  *
 210:Core/Inc/../../Drivers/CMSIS/DSP/Include/arm_math.h ****  * The structure specifies the size of the matrix and then points to
 211:Core/Inc/../../Drivers/CMSIS/DSP/Include/arm_math.h ****  * an array of data.  The array is of size <code>numRows X numCols</code>
 212:Core/Inc/../../Drivers/CMSIS/DSP/Include/arm_math.h ****  * and the values are arranged in row order.  That is, the
 213:Core/Inc/../../Drivers/CMSIS/DSP/Include/arm_math.h ****  * matrix element (i, j) is stored at:
 214:Core/Inc/../../Drivers/CMSIS/DSP/Include/arm_math.h ****  * <pre>
 215:Core/Inc/../../Drivers/CMSIS/DSP/Include/arm_math.h ****  *     pData[i*numCols + j]
 216:Core/Inc/../../Drivers/CMSIS/DSP/Include/arm_math.h ****  * </pre>
 217:Core/Inc/../../Drivers/CMSIS/DSP/Include/arm_math.h ****  *
 218:Core/Inc/../../Drivers/CMSIS/DSP/Include/arm_math.h ****  * \par Init Functions
 219:Core/Inc/../../Drivers/CMSIS/DSP/Include/arm_math.h ****  * There is an associated initialization function for each type of matrix
 220:Core/Inc/../../Drivers/CMSIS/DSP/Include/arm_math.h ****  * data structure.
 221:Core/Inc/../../Drivers/CMSIS/DSP/Include/arm_math.h ****  * The initialization function sets the values of the internal structure fields.
 222:Core/Inc/../../Drivers/CMSIS/DSP/Include/arm_math.h ****  * Refer to the function <code>arm_mat_init_f32()</code>, <code>arm_mat_init_q31()</code>
 223:Core/Inc/../../Drivers/CMSIS/DSP/Include/arm_math.h ****  * and <code>arm_mat_init_q15()</code> for floating-point, Q31 and Q15 types,  respectively.
 224:Core/Inc/../../Drivers/CMSIS/DSP/Include/arm_math.h ****  *
 225:Core/Inc/../../Drivers/CMSIS/DSP/Include/arm_math.h ****  * \par
 226:Core/Inc/../../Drivers/CMSIS/DSP/Include/arm_math.h ****  * Use of the initialization function is optional. However, if initialization function is used
 227:Core/Inc/../../Drivers/CMSIS/DSP/Include/arm_math.h ****  * then the instance structure cannot be placed into a const data section.
 228:Core/Inc/../../Drivers/CMSIS/DSP/Include/arm_math.h ****  * To place the instance structure in a const data
 229:Core/Inc/../../Drivers/CMSIS/DSP/Include/arm_math.h ****  * section, manually initialize the data structure.  For example:
 230:Core/Inc/../../Drivers/CMSIS/DSP/Include/arm_math.h ****  * <pre>
 231:Core/Inc/../../Drivers/CMSIS/DSP/Include/arm_math.h ****  * <code>arm_matrix_instance_f32 S = {nRows, nColumns, pData};</code>
 232:Core/Inc/../../Drivers/CMSIS/DSP/Include/arm_math.h ****  * <code>arm_matrix_instance_q31 S = {nRows, nColumns, pData};</code>
 233:Core/Inc/../../Drivers/CMSIS/DSP/Include/arm_math.h ****  * <code>arm_matrix_instance_q15 S = {nRows, nColumns, pData};</code>
 234:Core/Inc/../../Drivers/CMSIS/DSP/Include/arm_math.h ****  * </pre>
 235:Core/Inc/../../Drivers/CMSIS/DSP/Include/arm_math.h ****  * where <code>nRows</code> specifies the number of rows, <code>nColumns</code>
 236:Core/Inc/../../Drivers/CMSIS/DSP/Include/arm_math.h ****  * specifies the number of columns, and <code>pData</code> points to the
 237:Core/Inc/../../Drivers/CMSIS/DSP/Include/arm_math.h ****  * data array.
 238:Core/Inc/../../Drivers/CMSIS/DSP/Include/arm_math.h ****  *
 239:Core/Inc/../../Drivers/CMSIS/DSP/Include/arm_math.h ****  * \par Size Checking
 240:Core/Inc/../../Drivers/CMSIS/DSP/Include/arm_math.h ****  * By default all of the matrix functions perform size checking on the input and
 241:Core/Inc/../../Drivers/CMSIS/DSP/Include/arm_math.h ****  * output matrices. For example, the matrix addition function verifies that the
 242:Core/Inc/../../Drivers/CMSIS/DSP/Include/arm_math.h ****  * two input matrices and the output matrix all have the same number of rows and
 243:Core/Inc/../../Drivers/CMSIS/DSP/Include/arm_math.h ****  * columns. If the size check fails the functions return:
 244:Core/Inc/../../Drivers/CMSIS/DSP/Include/arm_math.h ****  * <pre>
 245:Core/Inc/../../Drivers/CMSIS/DSP/Include/arm_math.h ****  *     ARM_MATH_SIZE_MISMATCH
 246:Core/Inc/../../Drivers/CMSIS/DSP/Include/arm_math.h ****  * </pre>
 247:Core/Inc/../../Drivers/CMSIS/DSP/Include/arm_math.h ****  * Otherwise the functions return
 248:Core/Inc/../../Drivers/CMSIS/DSP/Include/arm_math.h ****  * <pre>
 249:Core/Inc/../../Drivers/CMSIS/DSP/Include/arm_math.h ****  *     ARM_MATH_SUCCESS
 250:Core/Inc/../../Drivers/CMSIS/DSP/Include/arm_math.h ****  * </pre>
 251:Core/Inc/../../Drivers/CMSIS/DSP/Include/arm_math.h ****  * There is some overhead associated with this matrix size checking.
 252:Core/Inc/../../Drivers/CMSIS/DSP/Include/arm_math.h ****  * The matrix size checking is enabled via the \#define
 253:Core/Inc/../../Drivers/CMSIS/DSP/Include/arm_math.h ****  * <pre>
 254:Core/Inc/../../Drivers/CMSIS/DSP/Include/arm_math.h ****  *     ARM_MATH_MATRIX_CHECK
 255:Core/Inc/../../Drivers/CMSIS/DSP/Include/arm_math.h ****  * </pre>
 256:Core/Inc/../../Drivers/CMSIS/DSP/Include/arm_math.h ****  * within the library project settings.  By default this macro is defined
 257:Core/Inc/../../Drivers/CMSIS/DSP/Include/arm_math.h ****  * and size checking is enabled. By changing the project settings and
 258:Core/Inc/../../Drivers/CMSIS/DSP/Include/arm_math.h ****  * undefining this macro size checking is eliminated and the functions
 259:Core/Inc/../../Drivers/CMSIS/DSP/Include/arm_math.h ****  * run a bit faster. With size checking disabled the functions always
ARM GAS  /var/folders/n6/c271nzx11xl4r4_m7sqjlt0m0000gn/T//ccGo3Vqh.s 			page 33


 260:Core/Inc/../../Drivers/CMSIS/DSP/Include/arm_math.h ****  * return <code>ARM_MATH_SUCCESS</code>.
 261:Core/Inc/../../Drivers/CMSIS/DSP/Include/arm_math.h ****  */
 262:Core/Inc/../../Drivers/CMSIS/DSP/Include/arm_math.h **** 
 263:Core/Inc/../../Drivers/CMSIS/DSP/Include/arm_math.h **** /**
 264:Core/Inc/../../Drivers/CMSIS/DSP/Include/arm_math.h ****  * @defgroup groupTransforms Transform Functions
 265:Core/Inc/../../Drivers/CMSIS/DSP/Include/arm_math.h ****  */
 266:Core/Inc/../../Drivers/CMSIS/DSP/Include/arm_math.h **** 
 267:Core/Inc/../../Drivers/CMSIS/DSP/Include/arm_math.h **** /**
 268:Core/Inc/../../Drivers/CMSIS/DSP/Include/arm_math.h ****  * @defgroup groupController Controller Functions
 269:Core/Inc/../../Drivers/CMSIS/DSP/Include/arm_math.h ****  */
 270:Core/Inc/../../Drivers/CMSIS/DSP/Include/arm_math.h **** 
 271:Core/Inc/../../Drivers/CMSIS/DSP/Include/arm_math.h **** /**
 272:Core/Inc/../../Drivers/CMSIS/DSP/Include/arm_math.h ****  * @defgroup groupStats Statistics Functions
 273:Core/Inc/../../Drivers/CMSIS/DSP/Include/arm_math.h ****  */
 274:Core/Inc/../../Drivers/CMSIS/DSP/Include/arm_math.h **** /**
 275:Core/Inc/../../Drivers/CMSIS/DSP/Include/arm_math.h ****  * @defgroup groupSupport Support Functions
 276:Core/Inc/../../Drivers/CMSIS/DSP/Include/arm_math.h ****  */
 277:Core/Inc/../../Drivers/CMSIS/DSP/Include/arm_math.h **** 
 278:Core/Inc/../../Drivers/CMSIS/DSP/Include/arm_math.h **** /**
 279:Core/Inc/../../Drivers/CMSIS/DSP/Include/arm_math.h ****  * @defgroup groupInterpolation Interpolation Functions
 280:Core/Inc/../../Drivers/CMSIS/DSP/Include/arm_math.h ****  * These functions perform 1- and 2-dimensional interpolation of data.
 281:Core/Inc/../../Drivers/CMSIS/DSP/Include/arm_math.h ****  * Linear interpolation is used for 1-dimensional data and
 282:Core/Inc/../../Drivers/CMSIS/DSP/Include/arm_math.h ****  * bilinear interpolation is used for 2-dimensional data.
 283:Core/Inc/../../Drivers/CMSIS/DSP/Include/arm_math.h ****  */
 284:Core/Inc/../../Drivers/CMSIS/DSP/Include/arm_math.h **** 
 285:Core/Inc/../../Drivers/CMSIS/DSP/Include/arm_math.h **** /**
 286:Core/Inc/../../Drivers/CMSIS/DSP/Include/arm_math.h ****  * @defgroup groupExamples Examples
 287:Core/Inc/../../Drivers/CMSIS/DSP/Include/arm_math.h ****  */
 288:Core/Inc/../../Drivers/CMSIS/DSP/Include/arm_math.h **** #ifndef _ARM_MATH_H
 289:Core/Inc/../../Drivers/CMSIS/DSP/Include/arm_math.h **** #define _ARM_MATH_H
 290:Core/Inc/../../Drivers/CMSIS/DSP/Include/arm_math.h **** 
 291:Core/Inc/../../Drivers/CMSIS/DSP/Include/arm_math.h **** /* Compiler specific diagnostic adjustment */
 292:Core/Inc/../../Drivers/CMSIS/DSP/Include/arm_math.h **** #if defined(__CC_ARM)
 293:Core/Inc/../../Drivers/CMSIS/DSP/Include/arm_math.h **** 
 294:Core/Inc/../../Drivers/CMSIS/DSP/Include/arm_math.h **** #elif defined(__ARMCC_VERSION) && (__ARMCC_VERSION >= 6010050)
 295:Core/Inc/../../Drivers/CMSIS/DSP/Include/arm_math.h **** 
 296:Core/Inc/../../Drivers/CMSIS/DSP/Include/arm_math.h **** #elif defined(__GNUC__)
 297:Core/Inc/../../Drivers/CMSIS/DSP/Include/arm_math.h **** #pragma GCC diagnostic push
 298:Core/Inc/../../Drivers/CMSIS/DSP/Include/arm_math.h **** #pragma GCC diagnostic ignored "-Wsign-conversion"
 299:Core/Inc/../../Drivers/CMSIS/DSP/Include/arm_math.h **** #pragma GCC diagnostic ignored "-Wconversion"
 300:Core/Inc/../../Drivers/CMSIS/DSP/Include/arm_math.h **** #pragma GCC diagnostic ignored "-Wunused-parameter"
 301:Core/Inc/../../Drivers/CMSIS/DSP/Include/arm_math.h **** 
 302:Core/Inc/../../Drivers/CMSIS/DSP/Include/arm_math.h **** #elif defined(__ICCARM__)
 303:Core/Inc/../../Drivers/CMSIS/DSP/Include/arm_math.h **** 
 304:Core/Inc/../../Drivers/CMSIS/DSP/Include/arm_math.h **** #elif defined(__TI_ARM__)
 305:Core/Inc/../../Drivers/CMSIS/DSP/Include/arm_math.h **** 
 306:Core/Inc/../../Drivers/CMSIS/DSP/Include/arm_math.h **** #elif defined(__CSMC__)
 307:Core/Inc/../../Drivers/CMSIS/DSP/Include/arm_math.h **** 
 308:Core/Inc/../../Drivers/CMSIS/DSP/Include/arm_math.h **** #elif defined(__TASKING__)
 309:Core/Inc/../../Drivers/CMSIS/DSP/Include/arm_math.h **** 
 310:Core/Inc/../../Drivers/CMSIS/DSP/Include/arm_math.h **** #else
 311:Core/Inc/../../Drivers/CMSIS/DSP/Include/arm_math.h **** #error Unknown compiler
 312:Core/Inc/../../Drivers/CMSIS/DSP/Include/arm_math.h **** #endif
 313:Core/Inc/../../Drivers/CMSIS/DSP/Include/arm_math.h **** #define ARM_MATH_CM7
 314:Core/Inc/../../Drivers/CMSIS/DSP/Include/arm_math.h **** 
 315:Core/Inc/../../Drivers/CMSIS/DSP/Include/arm_math.h **** #define __CMSIS_GENERIC /* disable NVIC and Systick functions */
 316:Core/Inc/../../Drivers/CMSIS/DSP/Include/arm_math.h **** 
ARM GAS  /var/folders/n6/c271nzx11xl4r4_m7sqjlt0m0000gn/T//ccGo3Vqh.s 			page 34


 317:Core/Inc/../../Drivers/CMSIS/DSP/Include/arm_math.h **** #if defined(ARM_MATH_CM7)
 318:Core/Inc/../../Drivers/CMSIS/DSP/Include/arm_math.h **** #include "core_cm7.h"
 319:Core/Inc/../../Drivers/CMSIS/DSP/Include/arm_math.h **** #define ARM_MATH_DSP
 320:Core/Inc/../../Drivers/CMSIS/DSP/Include/arm_math.h **** #elif defined(ARM_MATH_CM4)
 321:Core/Inc/../../Drivers/CMSIS/DSP/Include/arm_math.h **** #include "core_cm4.h"
 322:Core/Inc/../../Drivers/CMSIS/DSP/Include/arm_math.h **** #define ARM_MATH_DSP
 323:Core/Inc/../../Drivers/CMSIS/DSP/Include/arm_math.h **** #elif defined(ARM_MATH_CM3)
 324:Core/Inc/../../Drivers/CMSIS/DSP/Include/arm_math.h **** #include "core_cm3.h"
 325:Core/Inc/../../Drivers/CMSIS/DSP/Include/arm_math.h **** #elif defined(ARM_MATH_CM0)
 326:Core/Inc/../../Drivers/CMSIS/DSP/Include/arm_math.h **** #include "core_cm0.h"
 327:Core/Inc/../../Drivers/CMSIS/DSP/Include/arm_math.h **** #define ARM_MATH_CM0_FAMILY
 328:Core/Inc/../../Drivers/CMSIS/DSP/Include/arm_math.h **** #elif defined(ARM_MATH_CM0PLUS)
 329:Core/Inc/../../Drivers/CMSIS/DSP/Include/arm_math.h **** #include "core_cm0plus.h"
 330:Core/Inc/../../Drivers/CMSIS/DSP/Include/arm_math.h **** #define ARM_MATH_CM0_FAMILY
 331:Core/Inc/../../Drivers/CMSIS/DSP/Include/arm_math.h **** #elif defined(ARM_MATH_ARMV8MBL)
 332:Core/Inc/../../Drivers/CMSIS/DSP/Include/arm_math.h **** #include "core_armv8mbl.h"
 333:Core/Inc/../../Drivers/CMSIS/DSP/Include/arm_math.h **** #define ARM_MATH_CM0_FAMILY
 334:Core/Inc/../../Drivers/CMSIS/DSP/Include/arm_math.h **** #elif defined(ARM_MATH_ARMV8MML)
 335:Core/Inc/../../Drivers/CMSIS/DSP/Include/arm_math.h **** #include "core_armv8mml.h"
 336:Core/Inc/../../Drivers/CMSIS/DSP/Include/arm_math.h **** #if (defined(__DSP_PRESENT) && (__DSP_PRESENT == 1))
 337:Core/Inc/../../Drivers/CMSIS/DSP/Include/arm_math.h **** #define ARM_MATH_DSP
 338:Core/Inc/../../Drivers/CMSIS/DSP/Include/arm_math.h **** #endif
 339:Core/Inc/../../Drivers/CMSIS/DSP/Include/arm_math.h **** #else
 340:Core/Inc/../../Drivers/CMSIS/DSP/Include/arm_math.h **** #error "Define according the used Cortex core ARM_MATH_CM7, ARM_MATH_CM4, ARM_MATH_CM3, ARM_MATH_CM
 341:Core/Inc/../../Drivers/CMSIS/DSP/Include/arm_math.h **** #endif
 342:Core/Inc/../../Drivers/CMSIS/DSP/Include/arm_math.h **** 
 343:Core/Inc/../../Drivers/CMSIS/DSP/Include/arm_math.h **** #undef __CMSIS_GENERIC /* enable NVIC and Systick functions */
 344:Core/Inc/../../Drivers/CMSIS/DSP/Include/arm_math.h **** #include "string.h"
 345:Core/Inc/../../Drivers/CMSIS/DSP/Include/arm_math.h **** #include "math.h"
 346:Core/Inc/../../Drivers/CMSIS/DSP/Include/arm_math.h **** #ifdef __cplusplus
 347:Core/Inc/../../Drivers/CMSIS/DSP/Include/arm_math.h **** extern "C"
 348:Core/Inc/../../Drivers/CMSIS/DSP/Include/arm_math.h **** {
 349:Core/Inc/../../Drivers/CMSIS/DSP/Include/arm_math.h **** #endif
 350:Core/Inc/../../Drivers/CMSIS/DSP/Include/arm_math.h **** 
 351:Core/Inc/../../Drivers/CMSIS/DSP/Include/arm_math.h ****   /**
 352:Core/Inc/../../Drivers/CMSIS/DSP/Include/arm_math.h ****    * @brief Macros required for reciprocal calculation in Normalized LMS
 353:Core/Inc/../../Drivers/CMSIS/DSP/Include/arm_math.h ****    */
 354:Core/Inc/../../Drivers/CMSIS/DSP/Include/arm_math.h **** 
 355:Core/Inc/../../Drivers/CMSIS/DSP/Include/arm_math.h **** #define DELTA_Q31 (0x100)
 356:Core/Inc/../../Drivers/CMSIS/DSP/Include/arm_math.h **** #define DELTA_Q15 0x5
 357:Core/Inc/../../Drivers/CMSIS/DSP/Include/arm_math.h **** #define INDEX_MASK 0x0000003F
 358:Core/Inc/../../Drivers/CMSIS/DSP/Include/arm_math.h **** #ifndef PI
 359:Core/Inc/../../Drivers/CMSIS/DSP/Include/arm_math.h **** #define PI 3.14159265358979f
 360:Core/Inc/../../Drivers/CMSIS/DSP/Include/arm_math.h **** #endif
 361:Core/Inc/../../Drivers/CMSIS/DSP/Include/arm_math.h **** 
 362:Core/Inc/../../Drivers/CMSIS/DSP/Include/arm_math.h ****   /**
 363:Core/Inc/../../Drivers/CMSIS/DSP/Include/arm_math.h ****    * @brief Macros required for SINE and COSINE Fast math approximations
 364:Core/Inc/../../Drivers/CMSIS/DSP/Include/arm_math.h ****    */
 365:Core/Inc/../../Drivers/CMSIS/DSP/Include/arm_math.h **** 
 366:Core/Inc/../../Drivers/CMSIS/DSP/Include/arm_math.h **** #define FAST_MATH_TABLE_SIZE 512
 367:Core/Inc/../../Drivers/CMSIS/DSP/Include/arm_math.h **** #define FAST_MATH_Q31_SHIFT (32 - 10)
 368:Core/Inc/../../Drivers/CMSIS/DSP/Include/arm_math.h **** #define FAST_MATH_Q15_SHIFT (16 - 10)
 369:Core/Inc/../../Drivers/CMSIS/DSP/Include/arm_math.h **** #define CONTROLLER_Q31_SHIFT (32 - 9)
 370:Core/Inc/../../Drivers/CMSIS/DSP/Include/arm_math.h **** #define TABLE_SPACING_Q31 0x400000
 371:Core/Inc/../../Drivers/CMSIS/DSP/Include/arm_math.h **** #define TABLE_SPACING_Q15 0x80
 372:Core/Inc/../../Drivers/CMSIS/DSP/Include/arm_math.h **** 
 373:Core/Inc/../../Drivers/CMSIS/DSP/Include/arm_math.h ****   /**
ARM GAS  /var/folders/n6/c271nzx11xl4r4_m7sqjlt0m0000gn/T//ccGo3Vqh.s 			page 35


 374:Core/Inc/../../Drivers/CMSIS/DSP/Include/arm_math.h ****    * @brief Macros required for SINE and COSINE Controller functions
 375:Core/Inc/../../Drivers/CMSIS/DSP/Include/arm_math.h ****    */
 376:Core/Inc/../../Drivers/CMSIS/DSP/Include/arm_math.h ****   /* 1.31(q31) Fixed value of 2/360 */
 377:Core/Inc/../../Drivers/CMSIS/DSP/Include/arm_math.h ****   /* -1 to +1 is divided into 360 values so total spacing is (2/360) */
 378:Core/Inc/../../Drivers/CMSIS/DSP/Include/arm_math.h **** #define INPUT_SPACING 0xB60B61
 379:Core/Inc/../../Drivers/CMSIS/DSP/Include/arm_math.h **** 
 380:Core/Inc/../../Drivers/CMSIS/DSP/Include/arm_math.h ****   /**
 381:Core/Inc/../../Drivers/CMSIS/DSP/Include/arm_math.h ****    * @brief Macro for Unaligned Support
 382:Core/Inc/../../Drivers/CMSIS/DSP/Include/arm_math.h ****    */
 383:Core/Inc/../../Drivers/CMSIS/DSP/Include/arm_math.h **** #ifndef UNALIGNED_SUPPORT_DISABLE
 384:Core/Inc/../../Drivers/CMSIS/DSP/Include/arm_math.h **** #define ALIGN4
 385:Core/Inc/../../Drivers/CMSIS/DSP/Include/arm_math.h **** #else
 386:Core/Inc/../../Drivers/CMSIS/DSP/Include/arm_math.h **** #if defined(__GNUC__)
 387:Core/Inc/../../Drivers/CMSIS/DSP/Include/arm_math.h **** #define ALIGN4 __attribute__((aligned(4)))
 388:Core/Inc/../../Drivers/CMSIS/DSP/Include/arm_math.h **** #else
 389:Core/Inc/../../Drivers/CMSIS/DSP/Include/arm_math.h **** #define ALIGN4 __align(4)
 390:Core/Inc/../../Drivers/CMSIS/DSP/Include/arm_math.h **** #endif
 391:Core/Inc/../../Drivers/CMSIS/DSP/Include/arm_math.h **** #endif /* #ifndef UNALIGNED_SUPPORT_DISABLE */
 392:Core/Inc/../../Drivers/CMSIS/DSP/Include/arm_math.h **** 
 393:Core/Inc/../../Drivers/CMSIS/DSP/Include/arm_math.h ****   /**
 394:Core/Inc/../../Drivers/CMSIS/DSP/Include/arm_math.h ****    * @brief Error status returned by some functions in the library.
 395:Core/Inc/../../Drivers/CMSIS/DSP/Include/arm_math.h ****    */
 396:Core/Inc/../../Drivers/CMSIS/DSP/Include/arm_math.h **** 
 397:Core/Inc/../../Drivers/CMSIS/DSP/Include/arm_math.h ****   typedef enum
 398:Core/Inc/../../Drivers/CMSIS/DSP/Include/arm_math.h ****   {
 399:Core/Inc/../../Drivers/CMSIS/DSP/Include/arm_math.h ****     ARM_MATH_SUCCESS = 0,         /**< No error */
 400:Core/Inc/../../Drivers/CMSIS/DSP/Include/arm_math.h ****     ARM_MATH_ARGUMENT_ERROR = -1, /**< One or more arguments are incorrect */
 401:Core/Inc/../../Drivers/CMSIS/DSP/Include/arm_math.h ****     ARM_MATH_LENGTH_ERROR = -2,   /**< Length of data buffer is incorrect */
 402:Core/Inc/../../Drivers/CMSIS/DSP/Include/arm_math.h ****     ARM_MATH_SIZE_MISMATCH = -3,  /**< Size of matrices is not compatible with the operation. */
 403:Core/Inc/../../Drivers/CMSIS/DSP/Include/arm_math.h ****     ARM_MATH_NANINF = -4,         /**< Not-a-number (NaN) or infinity is generated */
 404:Core/Inc/../../Drivers/CMSIS/DSP/Include/arm_math.h ****     ARM_MATH_SINGULAR = -5,       /**< Generated by matrix inversion if the input matrix is singula
 405:Core/Inc/../../Drivers/CMSIS/DSP/Include/arm_math.h ****     ARM_MATH_TEST_FAILURE = -6    /**< Test Failed  */
 406:Core/Inc/../../Drivers/CMSIS/DSP/Include/arm_math.h ****   } arm_status;
 407:Core/Inc/../../Drivers/CMSIS/DSP/Include/arm_math.h **** 
 408:Core/Inc/../../Drivers/CMSIS/DSP/Include/arm_math.h ****   /**
 409:Core/Inc/../../Drivers/CMSIS/DSP/Include/arm_math.h ****    * @brief 8-bit fractional data type in 1.7 format.
 410:Core/Inc/../../Drivers/CMSIS/DSP/Include/arm_math.h ****    */
 411:Core/Inc/../../Drivers/CMSIS/DSP/Include/arm_math.h ****   typedef int8_t q7_t;
 412:Core/Inc/../../Drivers/CMSIS/DSP/Include/arm_math.h **** 
 413:Core/Inc/../../Drivers/CMSIS/DSP/Include/arm_math.h ****   /**
 414:Core/Inc/../../Drivers/CMSIS/DSP/Include/arm_math.h ****    * @brief 16-bit fractional data type in 1.15 format.
 415:Core/Inc/../../Drivers/CMSIS/DSP/Include/arm_math.h ****    */
 416:Core/Inc/../../Drivers/CMSIS/DSP/Include/arm_math.h ****   typedef int16_t q15_t;
 417:Core/Inc/../../Drivers/CMSIS/DSP/Include/arm_math.h **** 
 418:Core/Inc/../../Drivers/CMSIS/DSP/Include/arm_math.h ****   /**
 419:Core/Inc/../../Drivers/CMSIS/DSP/Include/arm_math.h ****    * @brief 32-bit fractional data type in 1.31 format.
 420:Core/Inc/../../Drivers/CMSIS/DSP/Include/arm_math.h ****    */
 421:Core/Inc/../../Drivers/CMSIS/DSP/Include/arm_math.h ****   typedef int32_t q31_t;
 422:Core/Inc/../../Drivers/CMSIS/DSP/Include/arm_math.h **** 
 423:Core/Inc/../../Drivers/CMSIS/DSP/Include/arm_math.h ****   /**
 424:Core/Inc/../../Drivers/CMSIS/DSP/Include/arm_math.h ****    * @brief 64-bit fractional data type in 1.63 format.
 425:Core/Inc/../../Drivers/CMSIS/DSP/Include/arm_math.h ****    */
 426:Core/Inc/../../Drivers/CMSIS/DSP/Include/arm_math.h ****   typedef int64_t q63_t;
 427:Core/Inc/../../Drivers/CMSIS/DSP/Include/arm_math.h **** 
 428:Core/Inc/../../Drivers/CMSIS/DSP/Include/arm_math.h ****   /**
 429:Core/Inc/../../Drivers/CMSIS/DSP/Include/arm_math.h ****    * @brief 32-bit floating-point type definition.
 430:Core/Inc/../../Drivers/CMSIS/DSP/Include/arm_math.h ****    */
ARM GAS  /var/folders/n6/c271nzx11xl4r4_m7sqjlt0m0000gn/T//ccGo3Vqh.s 			page 36


 431:Core/Inc/../../Drivers/CMSIS/DSP/Include/arm_math.h ****   typedef float float32_t;
 432:Core/Inc/../../Drivers/CMSIS/DSP/Include/arm_math.h **** 
 433:Core/Inc/../../Drivers/CMSIS/DSP/Include/arm_math.h ****   /**
 434:Core/Inc/../../Drivers/CMSIS/DSP/Include/arm_math.h ****    * @brief 64-bit floating-point type definition.
 435:Core/Inc/../../Drivers/CMSIS/DSP/Include/arm_math.h ****    */
 436:Core/Inc/../../Drivers/CMSIS/DSP/Include/arm_math.h ****   typedef double float64_t;
 437:Core/Inc/../../Drivers/CMSIS/DSP/Include/arm_math.h **** 
 438:Core/Inc/../../Drivers/CMSIS/DSP/Include/arm_math.h ****   /**
 439:Core/Inc/../../Drivers/CMSIS/DSP/Include/arm_math.h ****    * @brief definition to read/write two 16 bit values.
 440:Core/Inc/../../Drivers/CMSIS/DSP/Include/arm_math.h ****    */
 441:Core/Inc/../../Drivers/CMSIS/DSP/Include/arm_math.h **** #if defined(__CC_ARM)
 442:Core/Inc/../../Drivers/CMSIS/DSP/Include/arm_math.h **** #define __SIMD32_TYPE int32_t __packed
 443:Core/Inc/../../Drivers/CMSIS/DSP/Include/arm_math.h **** #define CMSIS_UNUSED __attribute__((unused))
 444:Core/Inc/../../Drivers/CMSIS/DSP/Include/arm_math.h **** #define CMSIS_INLINE __attribute__((always_inline))
 445:Core/Inc/../../Drivers/CMSIS/DSP/Include/arm_math.h **** 
 446:Core/Inc/../../Drivers/CMSIS/DSP/Include/arm_math.h **** #elif defined(__ARMCC_VERSION) && (__ARMCC_VERSION >= 6010050)
 447:Core/Inc/../../Drivers/CMSIS/DSP/Include/arm_math.h **** #define __SIMD32_TYPE int32_t
 448:Core/Inc/../../Drivers/CMSIS/DSP/Include/arm_math.h **** #define CMSIS_UNUSED __attribute__((unused))
 449:Core/Inc/../../Drivers/CMSIS/DSP/Include/arm_math.h **** #define CMSIS_INLINE __attribute__((always_inline))
 450:Core/Inc/../../Drivers/CMSIS/DSP/Include/arm_math.h **** 
 451:Core/Inc/../../Drivers/CMSIS/DSP/Include/arm_math.h **** #elif defined(__GNUC__)
 452:Core/Inc/../../Drivers/CMSIS/DSP/Include/arm_math.h **** #define __SIMD32_TYPE int32_t
 453:Core/Inc/../../Drivers/CMSIS/DSP/Include/arm_math.h **** #define CMSIS_UNUSED __attribute__((unused))
 454:Core/Inc/../../Drivers/CMSIS/DSP/Include/arm_math.h **** #define CMSIS_INLINE __attribute__((always_inline))
 455:Core/Inc/../../Drivers/CMSIS/DSP/Include/arm_math.h **** 
 456:Core/Inc/../../Drivers/CMSIS/DSP/Include/arm_math.h **** #elif defined(__ICCARM__)
 457:Core/Inc/../../Drivers/CMSIS/DSP/Include/arm_math.h **** #define __SIMD32_TYPE int32_t __packed
 458:Core/Inc/../../Drivers/CMSIS/DSP/Include/arm_math.h **** #define CMSIS_UNUSED
 459:Core/Inc/../../Drivers/CMSIS/DSP/Include/arm_math.h **** #define CMSIS_INLINE
 460:Core/Inc/../../Drivers/CMSIS/DSP/Include/arm_math.h **** 
 461:Core/Inc/../../Drivers/CMSIS/DSP/Include/arm_math.h **** #elif defined(__TI_ARM__)
 462:Core/Inc/../../Drivers/CMSIS/DSP/Include/arm_math.h **** #define __SIMD32_TYPE int32_t
 463:Core/Inc/../../Drivers/CMSIS/DSP/Include/arm_math.h **** #define CMSIS_UNUSED __attribute__((unused))
 464:Core/Inc/../../Drivers/CMSIS/DSP/Include/arm_math.h **** #define CMSIS_INLINE
 465:Core/Inc/../../Drivers/CMSIS/DSP/Include/arm_math.h **** 
 466:Core/Inc/../../Drivers/CMSIS/DSP/Include/arm_math.h **** #elif defined(__CSMC__)
 467:Core/Inc/../../Drivers/CMSIS/DSP/Include/arm_math.h **** #define __SIMD32_TYPE int32_t
 468:Core/Inc/../../Drivers/CMSIS/DSP/Include/arm_math.h **** #define CMSIS_UNUSED
 469:Core/Inc/../../Drivers/CMSIS/DSP/Include/arm_math.h **** #define CMSIS_INLINE
 470:Core/Inc/../../Drivers/CMSIS/DSP/Include/arm_math.h **** 
 471:Core/Inc/../../Drivers/CMSIS/DSP/Include/arm_math.h **** #elif defined(__TASKING__)
 472:Core/Inc/../../Drivers/CMSIS/DSP/Include/arm_math.h **** #define __SIMD32_TYPE __unaligned int32_t
 473:Core/Inc/../../Drivers/CMSIS/DSP/Include/arm_math.h **** #define CMSIS_UNUSED
 474:Core/Inc/../../Drivers/CMSIS/DSP/Include/arm_math.h **** #define CMSIS_INLINE
 475:Core/Inc/../../Drivers/CMSIS/DSP/Include/arm_math.h **** 
 476:Core/Inc/../../Drivers/CMSIS/DSP/Include/arm_math.h **** #else
 477:Core/Inc/../../Drivers/CMSIS/DSP/Include/arm_math.h **** #error Unknown compiler
 478:Core/Inc/../../Drivers/CMSIS/DSP/Include/arm_math.h **** #endif
 479:Core/Inc/../../Drivers/CMSIS/DSP/Include/arm_math.h **** 
 480:Core/Inc/../../Drivers/CMSIS/DSP/Include/arm_math.h **** #define __SIMD32(addr) (*(__SIMD32_TYPE **)&(addr))
 481:Core/Inc/../../Drivers/CMSIS/DSP/Include/arm_math.h **** #define __SIMD32_CONST(addr) ((__SIMD32_TYPE *)(addr))
 482:Core/Inc/../../Drivers/CMSIS/DSP/Include/arm_math.h **** #define _SIMD32_OFFSET(addr) (*(__SIMD32_TYPE *)(addr))
 483:Core/Inc/../../Drivers/CMSIS/DSP/Include/arm_math.h **** #define __SIMD64(addr) (*(int64_t **)&(addr))
 484:Core/Inc/../../Drivers/CMSIS/DSP/Include/arm_math.h **** 
 485:Core/Inc/../../Drivers/CMSIS/DSP/Include/arm_math.h **** #if !defined(ARM_MATH_DSP)
 486:Core/Inc/../../Drivers/CMSIS/DSP/Include/arm_math.h ****   /**
 487:Core/Inc/../../Drivers/CMSIS/DSP/Include/arm_math.h ****    * @brief definition to pack two 16 bit values.
ARM GAS  /var/folders/n6/c271nzx11xl4r4_m7sqjlt0m0000gn/T//ccGo3Vqh.s 			page 37


 488:Core/Inc/../../Drivers/CMSIS/DSP/Include/arm_math.h ****    */
 489:Core/Inc/../../Drivers/CMSIS/DSP/Include/arm_math.h **** #define __PKHBT(ARG1, ARG2, ARG3) ((((int32_t)(ARG1) << 0) & (int32_t)0x0000FFFF) | \
 490:Core/Inc/../../Drivers/CMSIS/DSP/Include/arm_math.h ****                                    (((int32_t)(ARG2) << ARG3) & (int32_t)0xFFFF0000))
 491:Core/Inc/../../Drivers/CMSIS/DSP/Include/arm_math.h **** #define __PKHTB(ARG1, ARG2, ARG3) ((((int32_t)(ARG1) << 0) & (int32_t)0xFFFF0000) | \
 492:Core/Inc/../../Drivers/CMSIS/DSP/Include/arm_math.h ****                                    (((int32_t)(ARG2) >> ARG3) & (int32_t)0x0000FFFF))
 493:Core/Inc/../../Drivers/CMSIS/DSP/Include/arm_math.h **** 
 494:Core/Inc/../../Drivers/CMSIS/DSP/Include/arm_math.h **** #endif /* !defined (ARM_MATH_DSP) */
 495:Core/Inc/../../Drivers/CMSIS/DSP/Include/arm_math.h **** 
 496:Core/Inc/../../Drivers/CMSIS/DSP/Include/arm_math.h ****   /**
 497:Core/Inc/../../Drivers/CMSIS/DSP/Include/arm_math.h ****    * @brief definition to pack four 8 bit values.
 498:Core/Inc/../../Drivers/CMSIS/DSP/Include/arm_math.h ****    */
 499:Core/Inc/../../Drivers/CMSIS/DSP/Include/arm_math.h **** #ifndef ARM_MATH_BIG_ENDIAN
 500:Core/Inc/../../Drivers/CMSIS/DSP/Include/arm_math.h **** 
 501:Core/Inc/../../Drivers/CMSIS/DSP/Include/arm_math.h **** #define __PACKq7(v0, v1, v2, v3) ((((int32_t)(v0) << 0) & (int32_t)0x000000FF) |  \
 502:Core/Inc/../../Drivers/CMSIS/DSP/Include/arm_math.h ****                                   (((int32_t)(v1) << 8) & (int32_t)0x0000FF00) |  \
 503:Core/Inc/../../Drivers/CMSIS/DSP/Include/arm_math.h ****                                   (((int32_t)(v2) << 16) & (int32_t)0x00FF0000) | \
 504:Core/Inc/../../Drivers/CMSIS/DSP/Include/arm_math.h ****                                   (((int32_t)(v3) << 24) & (int32_t)0xFF000000))
 505:Core/Inc/../../Drivers/CMSIS/DSP/Include/arm_math.h **** #else
 506:Core/Inc/../../Drivers/CMSIS/DSP/Include/arm_math.h **** 
 507:Core/Inc/../../Drivers/CMSIS/DSP/Include/arm_math.h **** #define __PACKq7(v0, v1, v2, v3) ((((int32_t)(v3) << 0) & (int32_t)0x000000FF) |  \
 508:Core/Inc/../../Drivers/CMSIS/DSP/Include/arm_math.h ****                                   (((int32_t)(v2) << 8) & (int32_t)0x0000FF00) |  \
 509:Core/Inc/../../Drivers/CMSIS/DSP/Include/arm_math.h ****                                   (((int32_t)(v1) << 16) & (int32_t)0x00FF0000) | \
 510:Core/Inc/../../Drivers/CMSIS/DSP/Include/arm_math.h ****                                   (((int32_t)(v0) << 24) & (int32_t)0xFF000000))
 511:Core/Inc/../../Drivers/CMSIS/DSP/Include/arm_math.h **** 
 512:Core/Inc/../../Drivers/CMSIS/DSP/Include/arm_math.h **** #endif
 513:Core/Inc/../../Drivers/CMSIS/DSP/Include/arm_math.h **** 
 514:Core/Inc/../../Drivers/CMSIS/DSP/Include/arm_math.h ****   /**
 515:Core/Inc/../../Drivers/CMSIS/DSP/Include/arm_math.h ****    * @brief Clips Q63 to Q31 values.
 516:Core/Inc/../../Drivers/CMSIS/DSP/Include/arm_math.h ****    */
 517:Core/Inc/../../Drivers/CMSIS/DSP/Include/arm_math.h ****   CMSIS_INLINE __STATIC_INLINE q31_t clip_q63_to_q31(
 518:Core/Inc/../../Drivers/CMSIS/DSP/Include/arm_math.h ****       q63_t x)
 519:Core/Inc/../../Drivers/CMSIS/DSP/Include/arm_math.h ****   {
 520:Core/Inc/../../Drivers/CMSIS/DSP/Include/arm_math.h ****     return ((q31_t)(x >> 32) != ((q31_t)x >> 31)) ? ((0x7FFFFFFF ^ ((q31_t)(x >> 63)))) : (q31_t)x;
 521:Core/Inc/../../Drivers/CMSIS/DSP/Include/arm_math.h ****   }
 522:Core/Inc/../../Drivers/CMSIS/DSP/Include/arm_math.h **** 
 523:Core/Inc/../../Drivers/CMSIS/DSP/Include/arm_math.h ****   /**
 524:Core/Inc/../../Drivers/CMSIS/DSP/Include/arm_math.h ****    * @brief Clips Q63 to Q15 values.
 525:Core/Inc/../../Drivers/CMSIS/DSP/Include/arm_math.h ****    */
 526:Core/Inc/../../Drivers/CMSIS/DSP/Include/arm_math.h ****   CMSIS_INLINE __STATIC_INLINE q15_t clip_q63_to_q15(
 527:Core/Inc/../../Drivers/CMSIS/DSP/Include/arm_math.h ****       q63_t x)
 528:Core/Inc/../../Drivers/CMSIS/DSP/Include/arm_math.h ****   {
 529:Core/Inc/../../Drivers/CMSIS/DSP/Include/arm_math.h ****     return ((q31_t)(x >> 32) != ((q31_t)x >> 31)) ? ((0x7FFF ^ ((q15_t)(x >> 63)))) : (q15_t)(x >> 
 530:Core/Inc/../../Drivers/CMSIS/DSP/Include/arm_math.h ****   }
 531:Core/Inc/../../Drivers/CMSIS/DSP/Include/arm_math.h **** 
 532:Core/Inc/../../Drivers/CMSIS/DSP/Include/arm_math.h ****   /**
 533:Core/Inc/../../Drivers/CMSIS/DSP/Include/arm_math.h ****    * @brief Clips Q31 to Q7 values.
 534:Core/Inc/../../Drivers/CMSIS/DSP/Include/arm_math.h ****    */
 535:Core/Inc/../../Drivers/CMSIS/DSP/Include/arm_math.h ****   CMSIS_INLINE __STATIC_INLINE q7_t clip_q31_to_q7(
 536:Core/Inc/../../Drivers/CMSIS/DSP/Include/arm_math.h ****       q31_t x)
 537:Core/Inc/../../Drivers/CMSIS/DSP/Include/arm_math.h ****   {
 538:Core/Inc/../../Drivers/CMSIS/DSP/Include/arm_math.h ****     return ((q31_t)(x >> 24) != ((q31_t)x >> 23)) ? ((0x7F ^ ((q7_t)(x >> 31)))) : (q7_t)x;
 539:Core/Inc/../../Drivers/CMSIS/DSP/Include/arm_math.h ****   }
 540:Core/Inc/../../Drivers/CMSIS/DSP/Include/arm_math.h **** 
 541:Core/Inc/../../Drivers/CMSIS/DSP/Include/arm_math.h ****   /**
 542:Core/Inc/../../Drivers/CMSIS/DSP/Include/arm_math.h ****    * @brief Clips Q31 to Q15 values.
 543:Core/Inc/../../Drivers/CMSIS/DSP/Include/arm_math.h ****    */
 544:Core/Inc/../../Drivers/CMSIS/DSP/Include/arm_math.h ****   CMSIS_INLINE __STATIC_INLINE q15_t clip_q31_to_q15(
ARM GAS  /var/folders/n6/c271nzx11xl4r4_m7sqjlt0m0000gn/T//ccGo3Vqh.s 			page 38


 545:Core/Inc/../../Drivers/CMSIS/DSP/Include/arm_math.h ****       q31_t x)
 546:Core/Inc/../../Drivers/CMSIS/DSP/Include/arm_math.h ****   {
 547:Core/Inc/../../Drivers/CMSIS/DSP/Include/arm_math.h ****     return ((q31_t)(x >> 16) != ((q31_t)x >> 15)) ? ((0x7FFF ^ ((q15_t)(x >> 31)))) : (q15_t)x;
 548:Core/Inc/../../Drivers/CMSIS/DSP/Include/arm_math.h ****   }
 549:Core/Inc/../../Drivers/CMSIS/DSP/Include/arm_math.h **** 
 550:Core/Inc/../../Drivers/CMSIS/DSP/Include/arm_math.h ****   /**
 551:Core/Inc/../../Drivers/CMSIS/DSP/Include/arm_math.h ****    * @brief Multiplies 32 X 64 and returns 32 bit result in 2.30 format.
 552:Core/Inc/../../Drivers/CMSIS/DSP/Include/arm_math.h ****    */
 553:Core/Inc/../../Drivers/CMSIS/DSP/Include/arm_math.h **** 
 554:Core/Inc/../../Drivers/CMSIS/DSP/Include/arm_math.h ****   CMSIS_INLINE __STATIC_INLINE q63_t mult32x64(
 555:Core/Inc/../../Drivers/CMSIS/DSP/Include/arm_math.h ****       q63_t x,
 556:Core/Inc/../../Drivers/CMSIS/DSP/Include/arm_math.h ****       q31_t y)
 557:Core/Inc/../../Drivers/CMSIS/DSP/Include/arm_math.h ****   {
 558:Core/Inc/../../Drivers/CMSIS/DSP/Include/arm_math.h ****     return ((((q63_t)(x & 0x00000000FFFFFFFF) * y) >> 32) +
 559:Core/Inc/../../Drivers/CMSIS/DSP/Include/arm_math.h ****             (((q63_t)(x >> 32) * y)));
 560:Core/Inc/../../Drivers/CMSIS/DSP/Include/arm_math.h ****   }
 561:Core/Inc/../../Drivers/CMSIS/DSP/Include/arm_math.h **** 
 562:Core/Inc/../../Drivers/CMSIS/DSP/Include/arm_math.h ****   /**
 563:Core/Inc/../../Drivers/CMSIS/DSP/Include/arm_math.h ****    * @brief Function to Calculates 1/in (reciprocal) value of Q31 Data type.
 564:Core/Inc/../../Drivers/CMSIS/DSP/Include/arm_math.h ****    */
 565:Core/Inc/../../Drivers/CMSIS/DSP/Include/arm_math.h **** 
 566:Core/Inc/../../Drivers/CMSIS/DSP/Include/arm_math.h ****   CMSIS_INLINE __STATIC_INLINE uint32_t arm_recip_q31(
 567:Core/Inc/../../Drivers/CMSIS/DSP/Include/arm_math.h ****       q31_t in,
 568:Core/Inc/../../Drivers/CMSIS/DSP/Include/arm_math.h ****       q31_t *dst,
 569:Core/Inc/../../Drivers/CMSIS/DSP/Include/arm_math.h ****       q31_t *pRecipTable)
 570:Core/Inc/../../Drivers/CMSIS/DSP/Include/arm_math.h ****   {
 571:Core/Inc/../../Drivers/CMSIS/DSP/Include/arm_math.h ****     q31_t out;
 572:Core/Inc/../../Drivers/CMSIS/DSP/Include/arm_math.h ****     uint32_t tempVal;
 573:Core/Inc/../../Drivers/CMSIS/DSP/Include/arm_math.h ****     uint32_t index, i;
 574:Core/Inc/../../Drivers/CMSIS/DSP/Include/arm_math.h ****     uint32_t signBits;
 575:Core/Inc/../../Drivers/CMSIS/DSP/Include/arm_math.h **** 
 576:Core/Inc/../../Drivers/CMSIS/DSP/Include/arm_math.h ****     if (in > 0)
 577:Core/Inc/../../Drivers/CMSIS/DSP/Include/arm_math.h ****     {
 578:Core/Inc/../../Drivers/CMSIS/DSP/Include/arm_math.h ****       signBits = ((uint32_t)(__CLZ(in) - 1));
 579:Core/Inc/../../Drivers/CMSIS/DSP/Include/arm_math.h ****     }
 580:Core/Inc/../../Drivers/CMSIS/DSP/Include/arm_math.h ****     else
 581:Core/Inc/../../Drivers/CMSIS/DSP/Include/arm_math.h ****     {
 582:Core/Inc/../../Drivers/CMSIS/DSP/Include/arm_math.h ****       signBits = ((uint32_t)(__CLZ(-in) - 1));
 583:Core/Inc/../../Drivers/CMSIS/DSP/Include/arm_math.h ****     }
 584:Core/Inc/../../Drivers/CMSIS/DSP/Include/arm_math.h **** 
 585:Core/Inc/../../Drivers/CMSIS/DSP/Include/arm_math.h ****     /* Convert input sample to 1.31 format */
 586:Core/Inc/../../Drivers/CMSIS/DSP/Include/arm_math.h ****     in = (in << signBits);
 587:Core/Inc/../../Drivers/CMSIS/DSP/Include/arm_math.h **** 
 588:Core/Inc/../../Drivers/CMSIS/DSP/Include/arm_math.h ****     /* calculation of index for initial approximated Val */
 589:Core/Inc/../../Drivers/CMSIS/DSP/Include/arm_math.h ****     index = (uint32_t)(in >> 24);
 590:Core/Inc/../../Drivers/CMSIS/DSP/Include/arm_math.h ****     index = (index & INDEX_MASK);
 591:Core/Inc/../../Drivers/CMSIS/DSP/Include/arm_math.h **** 
 592:Core/Inc/../../Drivers/CMSIS/DSP/Include/arm_math.h ****     /* 1.31 with exp 1 */
 593:Core/Inc/../../Drivers/CMSIS/DSP/Include/arm_math.h ****     out = pRecipTable[index];
 594:Core/Inc/../../Drivers/CMSIS/DSP/Include/arm_math.h **** 
 595:Core/Inc/../../Drivers/CMSIS/DSP/Include/arm_math.h ****     /* calculation of reciprocal value */
 596:Core/Inc/../../Drivers/CMSIS/DSP/Include/arm_math.h ****     /* running approximation for two iterations */
 597:Core/Inc/../../Drivers/CMSIS/DSP/Include/arm_math.h ****     for (i = 0U; i < 2U; i++)
 598:Core/Inc/../../Drivers/CMSIS/DSP/Include/arm_math.h ****     {
 599:Core/Inc/../../Drivers/CMSIS/DSP/Include/arm_math.h ****       tempVal = (uint32_t)(((q63_t)in * out) >> 31);
 600:Core/Inc/../../Drivers/CMSIS/DSP/Include/arm_math.h ****       tempVal = 0x7FFFFFFFu - tempVal;
 601:Core/Inc/../../Drivers/CMSIS/DSP/Include/arm_math.h ****       /*      1.31 with exp 1 */
ARM GAS  /var/folders/n6/c271nzx11xl4r4_m7sqjlt0m0000gn/T//ccGo3Vqh.s 			page 39


 602:Core/Inc/../../Drivers/CMSIS/DSP/Include/arm_math.h ****       /* out = (q31_t) (((q63_t) out * tempVal) >> 30); */
 603:Core/Inc/../../Drivers/CMSIS/DSP/Include/arm_math.h ****       out = clip_q63_to_q31(((q63_t)out * tempVal) >> 30);
 604:Core/Inc/../../Drivers/CMSIS/DSP/Include/arm_math.h ****     }
 605:Core/Inc/../../Drivers/CMSIS/DSP/Include/arm_math.h **** 
 606:Core/Inc/../../Drivers/CMSIS/DSP/Include/arm_math.h ****     /* write output */
 607:Core/Inc/../../Drivers/CMSIS/DSP/Include/arm_math.h ****     *dst = out;
 608:Core/Inc/../../Drivers/CMSIS/DSP/Include/arm_math.h **** 
 609:Core/Inc/../../Drivers/CMSIS/DSP/Include/arm_math.h ****     /* return num of signbits of out = 1/in value */
 610:Core/Inc/../../Drivers/CMSIS/DSP/Include/arm_math.h ****     return (signBits + 1U);
 611:Core/Inc/../../Drivers/CMSIS/DSP/Include/arm_math.h ****   }
 612:Core/Inc/../../Drivers/CMSIS/DSP/Include/arm_math.h **** 
 613:Core/Inc/../../Drivers/CMSIS/DSP/Include/arm_math.h ****   /**
 614:Core/Inc/../../Drivers/CMSIS/DSP/Include/arm_math.h ****    * @brief Function to Calculates 1/in (reciprocal) value of Q15 Data type.
 615:Core/Inc/../../Drivers/CMSIS/DSP/Include/arm_math.h ****    */
 616:Core/Inc/../../Drivers/CMSIS/DSP/Include/arm_math.h ****   CMSIS_INLINE __STATIC_INLINE uint32_t arm_recip_q15(
 617:Core/Inc/../../Drivers/CMSIS/DSP/Include/arm_math.h ****       q15_t in,
 618:Core/Inc/../../Drivers/CMSIS/DSP/Include/arm_math.h ****       q15_t *dst,
 619:Core/Inc/../../Drivers/CMSIS/DSP/Include/arm_math.h ****       q15_t *pRecipTable)
 620:Core/Inc/../../Drivers/CMSIS/DSP/Include/arm_math.h ****   {
 621:Core/Inc/../../Drivers/CMSIS/DSP/Include/arm_math.h ****     q15_t out = 0;
 622:Core/Inc/../../Drivers/CMSIS/DSP/Include/arm_math.h ****     uint32_t tempVal = 0;
 623:Core/Inc/../../Drivers/CMSIS/DSP/Include/arm_math.h ****     uint32_t index = 0, i = 0;
 624:Core/Inc/../../Drivers/CMSIS/DSP/Include/arm_math.h ****     uint32_t signBits = 0;
 625:Core/Inc/../../Drivers/CMSIS/DSP/Include/arm_math.h **** 
 626:Core/Inc/../../Drivers/CMSIS/DSP/Include/arm_math.h ****     if (in > 0)
 627:Core/Inc/../../Drivers/CMSIS/DSP/Include/arm_math.h ****     {
 628:Core/Inc/../../Drivers/CMSIS/DSP/Include/arm_math.h ****       signBits = ((uint32_t)(__CLZ(in) - 17));
 629:Core/Inc/../../Drivers/CMSIS/DSP/Include/arm_math.h ****     }
 630:Core/Inc/../../Drivers/CMSIS/DSP/Include/arm_math.h ****     else
 631:Core/Inc/../../Drivers/CMSIS/DSP/Include/arm_math.h ****     {
 632:Core/Inc/../../Drivers/CMSIS/DSP/Include/arm_math.h ****       signBits = ((uint32_t)(__CLZ(-in) - 17));
 633:Core/Inc/../../Drivers/CMSIS/DSP/Include/arm_math.h ****     }
 634:Core/Inc/../../Drivers/CMSIS/DSP/Include/arm_math.h **** 
 635:Core/Inc/../../Drivers/CMSIS/DSP/Include/arm_math.h ****     /* Convert input sample to 1.15 format */
 636:Core/Inc/../../Drivers/CMSIS/DSP/Include/arm_math.h ****     in = (in << signBits);
 637:Core/Inc/../../Drivers/CMSIS/DSP/Include/arm_math.h **** 
 638:Core/Inc/../../Drivers/CMSIS/DSP/Include/arm_math.h ****     /* calculation of index for initial approximated Val */
 639:Core/Inc/../../Drivers/CMSIS/DSP/Include/arm_math.h ****     index = (uint32_t)(in >> 8);
 640:Core/Inc/../../Drivers/CMSIS/DSP/Include/arm_math.h ****     index = (index & INDEX_MASK);
 641:Core/Inc/../../Drivers/CMSIS/DSP/Include/arm_math.h **** 
 642:Core/Inc/../../Drivers/CMSIS/DSP/Include/arm_math.h ****     /*      1.15 with exp 1  */
 643:Core/Inc/../../Drivers/CMSIS/DSP/Include/arm_math.h ****     out = pRecipTable[index];
 644:Core/Inc/../../Drivers/CMSIS/DSP/Include/arm_math.h **** 
 645:Core/Inc/../../Drivers/CMSIS/DSP/Include/arm_math.h ****     /* calculation of reciprocal value */
 646:Core/Inc/../../Drivers/CMSIS/DSP/Include/arm_math.h ****     /* running approximation for two iterations */
 647:Core/Inc/../../Drivers/CMSIS/DSP/Include/arm_math.h ****     for (i = 0U; i < 2U; i++)
 648:Core/Inc/../../Drivers/CMSIS/DSP/Include/arm_math.h ****     {
 649:Core/Inc/../../Drivers/CMSIS/DSP/Include/arm_math.h ****       tempVal = (uint32_t)(((q31_t)in * out) >> 15);
 650:Core/Inc/../../Drivers/CMSIS/DSP/Include/arm_math.h ****       tempVal = 0x7FFFu - tempVal;
 651:Core/Inc/../../Drivers/CMSIS/DSP/Include/arm_math.h ****       /*      1.15 with exp 1 */
 652:Core/Inc/../../Drivers/CMSIS/DSP/Include/arm_math.h ****       out = (q15_t)(((q31_t)out * tempVal) >> 14);
 653:Core/Inc/../../Drivers/CMSIS/DSP/Include/arm_math.h ****       /* out = clip_q31_to_q15(((q31_t) out * tempVal) >> 14); */
 654:Core/Inc/../../Drivers/CMSIS/DSP/Include/arm_math.h ****     }
 655:Core/Inc/../../Drivers/CMSIS/DSP/Include/arm_math.h **** 
 656:Core/Inc/../../Drivers/CMSIS/DSP/Include/arm_math.h ****     /* write output */
 657:Core/Inc/../../Drivers/CMSIS/DSP/Include/arm_math.h ****     *dst = out;
 658:Core/Inc/../../Drivers/CMSIS/DSP/Include/arm_math.h **** 
ARM GAS  /var/folders/n6/c271nzx11xl4r4_m7sqjlt0m0000gn/T//ccGo3Vqh.s 			page 40


 659:Core/Inc/../../Drivers/CMSIS/DSP/Include/arm_math.h ****     /* return num of signbits of out = 1/in value */
 660:Core/Inc/../../Drivers/CMSIS/DSP/Include/arm_math.h ****     return (signBits + 1);
 661:Core/Inc/../../Drivers/CMSIS/DSP/Include/arm_math.h ****   }
 662:Core/Inc/../../Drivers/CMSIS/DSP/Include/arm_math.h **** 
 663:Core/Inc/../../Drivers/CMSIS/DSP/Include/arm_math.h **** /*
 664:Core/Inc/../../Drivers/CMSIS/DSP/Include/arm_math.h ****  * @brief C custom defined intrinsic function for M3 and M0 processors
 665:Core/Inc/../../Drivers/CMSIS/DSP/Include/arm_math.h ****  */
 666:Core/Inc/../../Drivers/CMSIS/DSP/Include/arm_math.h **** #if !defined(ARM_MATH_DSP)
 667:Core/Inc/../../Drivers/CMSIS/DSP/Include/arm_math.h **** 
 668:Core/Inc/../../Drivers/CMSIS/DSP/Include/arm_math.h ****   /*
 669:Core/Inc/../../Drivers/CMSIS/DSP/Include/arm_math.h ****    * @brief C custom defined QADD8 for M3 and M0 processors
 670:Core/Inc/../../Drivers/CMSIS/DSP/Include/arm_math.h ****    */
 671:Core/Inc/../../Drivers/CMSIS/DSP/Include/arm_math.h ****   CMSIS_INLINE __STATIC_INLINE uint32_t __QADD8(
 672:Core/Inc/../../Drivers/CMSIS/DSP/Include/arm_math.h ****       uint32_t x,
 673:Core/Inc/../../Drivers/CMSIS/DSP/Include/arm_math.h ****       uint32_t y)
 674:Core/Inc/../../Drivers/CMSIS/DSP/Include/arm_math.h ****   {
 675:Core/Inc/../../Drivers/CMSIS/DSP/Include/arm_math.h ****     q31_t r, s, t, u;
 676:Core/Inc/../../Drivers/CMSIS/DSP/Include/arm_math.h **** 
 677:Core/Inc/../../Drivers/CMSIS/DSP/Include/arm_math.h ****     r = __SSAT(((((q31_t)x << 24) >> 24) + (((q31_t)y << 24) >> 24)), 8) & (int32_t)0x000000FF;
 678:Core/Inc/../../Drivers/CMSIS/DSP/Include/arm_math.h ****     s = __SSAT(((((q31_t)x << 16) >> 24) + (((q31_t)y << 16) >> 24)), 8) & (int32_t)0x000000FF;
 679:Core/Inc/../../Drivers/CMSIS/DSP/Include/arm_math.h ****     t = __SSAT(((((q31_t)x << 8) >> 24) + (((q31_t)y << 8) >> 24)), 8) & (int32_t)0x000000FF;
 680:Core/Inc/../../Drivers/CMSIS/DSP/Include/arm_math.h ****     u = __SSAT(((((q31_t)x) >> 24) + (((q31_t)y) >> 24)), 8) & (int32_t)0x000000FF;
 681:Core/Inc/../../Drivers/CMSIS/DSP/Include/arm_math.h **** 
 682:Core/Inc/../../Drivers/CMSIS/DSP/Include/arm_math.h ****     return ((uint32_t)((u << 24) | (t << 16) | (s << 8) | (r)));
 683:Core/Inc/../../Drivers/CMSIS/DSP/Include/arm_math.h ****   }
 684:Core/Inc/../../Drivers/CMSIS/DSP/Include/arm_math.h **** 
 685:Core/Inc/../../Drivers/CMSIS/DSP/Include/arm_math.h ****   /*
 686:Core/Inc/../../Drivers/CMSIS/DSP/Include/arm_math.h ****    * @brief C custom defined QSUB8 for M3 and M0 processors
 687:Core/Inc/../../Drivers/CMSIS/DSP/Include/arm_math.h ****    */
 688:Core/Inc/../../Drivers/CMSIS/DSP/Include/arm_math.h ****   CMSIS_INLINE __STATIC_INLINE uint32_t __QSUB8(
 689:Core/Inc/../../Drivers/CMSIS/DSP/Include/arm_math.h ****       uint32_t x,
 690:Core/Inc/../../Drivers/CMSIS/DSP/Include/arm_math.h ****       uint32_t y)
 691:Core/Inc/../../Drivers/CMSIS/DSP/Include/arm_math.h ****   {
 692:Core/Inc/../../Drivers/CMSIS/DSP/Include/arm_math.h ****     q31_t r, s, t, u;
 693:Core/Inc/../../Drivers/CMSIS/DSP/Include/arm_math.h **** 
 694:Core/Inc/../../Drivers/CMSIS/DSP/Include/arm_math.h ****     r = __SSAT(((((q31_t)x << 24) >> 24) - (((q31_t)y << 24) >> 24)), 8) & (int32_t)0x000000FF;
 695:Core/Inc/../../Drivers/CMSIS/DSP/Include/arm_math.h ****     s = __SSAT(((((q31_t)x << 16) >> 24) - (((q31_t)y << 16) >> 24)), 8) & (int32_t)0x000000FF;
 696:Core/Inc/../../Drivers/CMSIS/DSP/Include/arm_math.h ****     t = __SSAT(((((q31_t)x << 8) >> 24) - (((q31_t)y << 8) >> 24)), 8) & (int32_t)0x000000FF;
 697:Core/Inc/../../Drivers/CMSIS/DSP/Include/arm_math.h ****     u = __SSAT(((((q31_t)x) >> 24) - (((q31_t)y) >> 24)), 8) & (int32_t)0x000000FF;
 698:Core/Inc/../../Drivers/CMSIS/DSP/Include/arm_math.h **** 
 699:Core/Inc/../../Drivers/CMSIS/DSP/Include/arm_math.h ****     return ((uint32_t)((u << 24) | (t << 16) | (s << 8) | (r)));
 700:Core/Inc/../../Drivers/CMSIS/DSP/Include/arm_math.h ****   }
 701:Core/Inc/../../Drivers/CMSIS/DSP/Include/arm_math.h **** 
 702:Core/Inc/../../Drivers/CMSIS/DSP/Include/arm_math.h ****   /*
 703:Core/Inc/../../Drivers/CMSIS/DSP/Include/arm_math.h ****    * @brief C custom defined QADD16 for M3 and M0 processors
 704:Core/Inc/../../Drivers/CMSIS/DSP/Include/arm_math.h ****    */
 705:Core/Inc/../../Drivers/CMSIS/DSP/Include/arm_math.h ****   CMSIS_INLINE __STATIC_INLINE uint32_t __QADD16(
 706:Core/Inc/../../Drivers/CMSIS/DSP/Include/arm_math.h ****       uint32_t x,
 707:Core/Inc/../../Drivers/CMSIS/DSP/Include/arm_math.h ****       uint32_t y)
 708:Core/Inc/../../Drivers/CMSIS/DSP/Include/arm_math.h ****   {
 709:Core/Inc/../../Drivers/CMSIS/DSP/Include/arm_math.h ****     /*  q31_t r,     s;  without initialisation 'arm_offset_q15 test' fails  but 'intrinsic' tests 
 710:Core/Inc/../../Drivers/CMSIS/DSP/Include/arm_math.h ****     q31_t r = 0, s = 0;
 711:Core/Inc/../../Drivers/CMSIS/DSP/Include/arm_math.h **** 
 712:Core/Inc/../../Drivers/CMSIS/DSP/Include/arm_math.h ****     r = __SSAT(((((q31_t)x << 16) >> 16) + (((q31_t)y << 16) >> 16)), 16) & (int32_t)0x0000FFFF;
 713:Core/Inc/../../Drivers/CMSIS/DSP/Include/arm_math.h ****     s = __SSAT(((((q31_t)x) >> 16) + (((q31_t)y) >> 16)), 16) & (int32_t)0x0000FFFF;
 714:Core/Inc/../../Drivers/CMSIS/DSP/Include/arm_math.h **** 
 715:Core/Inc/../../Drivers/CMSIS/DSP/Include/arm_math.h ****     return ((uint32_t)((s << 16) | (r)));
ARM GAS  /var/folders/n6/c271nzx11xl4r4_m7sqjlt0m0000gn/T//ccGo3Vqh.s 			page 41


 716:Core/Inc/../../Drivers/CMSIS/DSP/Include/arm_math.h ****   }
 717:Core/Inc/../../Drivers/CMSIS/DSP/Include/arm_math.h **** 
 718:Core/Inc/../../Drivers/CMSIS/DSP/Include/arm_math.h ****   /*
 719:Core/Inc/../../Drivers/CMSIS/DSP/Include/arm_math.h ****    * @brief C custom defined SHADD16 for M3 and M0 processors
 720:Core/Inc/../../Drivers/CMSIS/DSP/Include/arm_math.h ****    */
 721:Core/Inc/../../Drivers/CMSIS/DSP/Include/arm_math.h ****   CMSIS_INLINE __STATIC_INLINE uint32_t __SHADD16(
 722:Core/Inc/../../Drivers/CMSIS/DSP/Include/arm_math.h ****       uint32_t x,
 723:Core/Inc/../../Drivers/CMSIS/DSP/Include/arm_math.h ****       uint32_t y)
 724:Core/Inc/../../Drivers/CMSIS/DSP/Include/arm_math.h ****   {
 725:Core/Inc/../../Drivers/CMSIS/DSP/Include/arm_math.h ****     q31_t r, s;
 726:Core/Inc/../../Drivers/CMSIS/DSP/Include/arm_math.h **** 
 727:Core/Inc/../../Drivers/CMSIS/DSP/Include/arm_math.h ****     r = (((((q31_t)x << 16) >> 16) + (((q31_t)y << 16) >> 16)) >> 1) & (int32_t)0x0000FFFF;
 728:Core/Inc/../../Drivers/CMSIS/DSP/Include/arm_math.h ****     s = (((((q31_t)x) >> 16) + (((q31_t)y) >> 16)) >> 1) & (int32_t)0x0000FFFF;
 729:Core/Inc/../../Drivers/CMSIS/DSP/Include/arm_math.h **** 
 730:Core/Inc/../../Drivers/CMSIS/DSP/Include/arm_math.h ****     return ((uint32_t)((s << 16) | (r)));
 731:Core/Inc/../../Drivers/CMSIS/DSP/Include/arm_math.h ****   }
 732:Core/Inc/../../Drivers/CMSIS/DSP/Include/arm_math.h **** 
 733:Core/Inc/../../Drivers/CMSIS/DSP/Include/arm_math.h ****   /*
 734:Core/Inc/../../Drivers/CMSIS/DSP/Include/arm_math.h ****    * @brief C custom defined QSUB16 for M3 and M0 processors
 735:Core/Inc/../../Drivers/CMSIS/DSP/Include/arm_math.h ****    */
 736:Core/Inc/../../Drivers/CMSIS/DSP/Include/arm_math.h ****   CMSIS_INLINE __STATIC_INLINE uint32_t __QSUB16(
 737:Core/Inc/../../Drivers/CMSIS/DSP/Include/arm_math.h ****       uint32_t x,
 738:Core/Inc/../../Drivers/CMSIS/DSP/Include/arm_math.h ****       uint32_t y)
 739:Core/Inc/../../Drivers/CMSIS/DSP/Include/arm_math.h ****   {
 740:Core/Inc/../../Drivers/CMSIS/DSP/Include/arm_math.h ****     q31_t r, s;
 741:Core/Inc/../../Drivers/CMSIS/DSP/Include/arm_math.h **** 
 742:Core/Inc/../../Drivers/CMSIS/DSP/Include/arm_math.h ****     r = __SSAT(((((q31_t)x << 16) >> 16) - (((q31_t)y << 16) >> 16)), 16) & (int32_t)0x0000FFFF;
 743:Core/Inc/../../Drivers/CMSIS/DSP/Include/arm_math.h ****     s = __SSAT(((((q31_t)x) >> 16) - (((q31_t)y) >> 16)), 16) & (int32_t)0x0000FFFF;
 744:Core/Inc/../../Drivers/CMSIS/DSP/Include/arm_math.h **** 
 745:Core/Inc/../../Drivers/CMSIS/DSP/Include/arm_math.h ****     return ((uint32_t)((s << 16) | (r)));
 746:Core/Inc/../../Drivers/CMSIS/DSP/Include/arm_math.h ****   }
 747:Core/Inc/../../Drivers/CMSIS/DSP/Include/arm_math.h **** 
 748:Core/Inc/../../Drivers/CMSIS/DSP/Include/arm_math.h ****   /*
 749:Core/Inc/../../Drivers/CMSIS/DSP/Include/arm_math.h ****    * @brief C custom defined SHSUB16 for M3 and M0 processors
 750:Core/Inc/../../Drivers/CMSIS/DSP/Include/arm_math.h ****    */
 751:Core/Inc/../../Drivers/CMSIS/DSP/Include/arm_math.h ****   CMSIS_INLINE __STATIC_INLINE uint32_t __SHSUB16(
 752:Core/Inc/../../Drivers/CMSIS/DSP/Include/arm_math.h ****       uint32_t x,
 753:Core/Inc/../../Drivers/CMSIS/DSP/Include/arm_math.h ****       uint32_t y)
 754:Core/Inc/../../Drivers/CMSIS/DSP/Include/arm_math.h ****   {
 755:Core/Inc/../../Drivers/CMSIS/DSP/Include/arm_math.h ****     q31_t r, s;
 756:Core/Inc/../../Drivers/CMSIS/DSP/Include/arm_math.h **** 
 757:Core/Inc/../../Drivers/CMSIS/DSP/Include/arm_math.h ****     r = (((((q31_t)x << 16) >> 16) - (((q31_t)y << 16) >> 16)) >> 1) & (int32_t)0x0000FFFF;
 758:Core/Inc/../../Drivers/CMSIS/DSP/Include/arm_math.h ****     s = (((((q31_t)x) >> 16) - (((q31_t)y) >> 16)) >> 1) & (int32_t)0x0000FFFF;
 759:Core/Inc/../../Drivers/CMSIS/DSP/Include/arm_math.h **** 
 760:Core/Inc/../../Drivers/CMSIS/DSP/Include/arm_math.h ****     return ((uint32_t)((s << 16) | (r)));
 761:Core/Inc/../../Drivers/CMSIS/DSP/Include/arm_math.h ****   }
 762:Core/Inc/../../Drivers/CMSIS/DSP/Include/arm_math.h **** 
 763:Core/Inc/../../Drivers/CMSIS/DSP/Include/arm_math.h ****   /*
 764:Core/Inc/../../Drivers/CMSIS/DSP/Include/arm_math.h ****    * @brief C custom defined QASX for M3 and M0 processors
 765:Core/Inc/../../Drivers/CMSIS/DSP/Include/arm_math.h ****    */
 766:Core/Inc/../../Drivers/CMSIS/DSP/Include/arm_math.h ****   CMSIS_INLINE __STATIC_INLINE uint32_t __QASX(
 767:Core/Inc/../../Drivers/CMSIS/DSP/Include/arm_math.h ****       uint32_t x,
 768:Core/Inc/../../Drivers/CMSIS/DSP/Include/arm_math.h ****       uint32_t y)
 769:Core/Inc/../../Drivers/CMSIS/DSP/Include/arm_math.h ****   {
 770:Core/Inc/../../Drivers/CMSIS/DSP/Include/arm_math.h ****     q31_t r, s;
 771:Core/Inc/../../Drivers/CMSIS/DSP/Include/arm_math.h **** 
 772:Core/Inc/../../Drivers/CMSIS/DSP/Include/arm_math.h ****     r = __SSAT(((((q31_t)x << 16) >> 16) - (((q31_t)y) >> 16)), 16) & (int32_t)0x0000FFFF;
ARM GAS  /var/folders/n6/c271nzx11xl4r4_m7sqjlt0m0000gn/T//ccGo3Vqh.s 			page 42


 773:Core/Inc/../../Drivers/CMSIS/DSP/Include/arm_math.h ****     s = __SSAT(((((q31_t)x) >> 16) + (((q31_t)y << 16) >> 16)), 16) & (int32_t)0x0000FFFF;
 774:Core/Inc/../../Drivers/CMSIS/DSP/Include/arm_math.h **** 
 775:Core/Inc/../../Drivers/CMSIS/DSP/Include/arm_math.h ****     return ((uint32_t)((s << 16) | (r)));
 776:Core/Inc/../../Drivers/CMSIS/DSP/Include/arm_math.h ****   }
 777:Core/Inc/../../Drivers/CMSIS/DSP/Include/arm_math.h **** 
 778:Core/Inc/../../Drivers/CMSIS/DSP/Include/arm_math.h ****   /*
 779:Core/Inc/../../Drivers/CMSIS/DSP/Include/arm_math.h ****    * @brief C custom defined SHASX for M3 and M0 processors
 780:Core/Inc/../../Drivers/CMSIS/DSP/Include/arm_math.h ****    */
 781:Core/Inc/../../Drivers/CMSIS/DSP/Include/arm_math.h ****   CMSIS_INLINE __STATIC_INLINE uint32_t __SHASX(
 782:Core/Inc/../../Drivers/CMSIS/DSP/Include/arm_math.h ****       uint32_t x,
 783:Core/Inc/../../Drivers/CMSIS/DSP/Include/arm_math.h ****       uint32_t y)
 784:Core/Inc/../../Drivers/CMSIS/DSP/Include/arm_math.h ****   {
 785:Core/Inc/../../Drivers/CMSIS/DSP/Include/arm_math.h ****     q31_t r, s;
 786:Core/Inc/../../Drivers/CMSIS/DSP/Include/arm_math.h **** 
 787:Core/Inc/../../Drivers/CMSIS/DSP/Include/arm_math.h ****     r = (((((q31_t)x << 16) >> 16) - (((q31_t)y) >> 16)) >> 1) & (int32_t)0x0000FFFF;
 788:Core/Inc/../../Drivers/CMSIS/DSP/Include/arm_math.h ****     s = (((((q31_t)x) >> 16) + (((q31_t)y << 16) >> 16)) >> 1) & (int32_t)0x0000FFFF;
 789:Core/Inc/../../Drivers/CMSIS/DSP/Include/arm_math.h **** 
 790:Core/Inc/../../Drivers/CMSIS/DSP/Include/arm_math.h ****     return ((uint32_t)((s << 16) | (r)));
 791:Core/Inc/../../Drivers/CMSIS/DSP/Include/arm_math.h ****   }
 792:Core/Inc/../../Drivers/CMSIS/DSP/Include/arm_math.h **** 
 793:Core/Inc/../../Drivers/CMSIS/DSP/Include/arm_math.h ****   /*
 794:Core/Inc/../../Drivers/CMSIS/DSP/Include/arm_math.h ****    * @brief C custom defined QSAX for M3 and M0 processors
 795:Core/Inc/../../Drivers/CMSIS/DSP/Include/arm_math.h ****    */
 796:Core/Inc/../../Drivers/CMSIS/DSP/Include/arm_math.h ****   CMSIS_INLINE __STATIC_INLINE uint32_t __QSAX(
 797:Core/Inc/../../Drivers/CMSIS/DSP/Include/arm_math.h ****       uint32_t x,
 798:Core/Inc/../../Drivers/CMSIS/DSP/Include/arm_math.h ****       uint32_t y)
 799:Core/Inc/../../Drivers/CMSIS/DSP/Include/arm_math.h ****   {
 800:Core/Inc/../../Drivers/CMSIS/DSP/Include/arm_math.h ****     q31_t r, s;
 801:Core/Inc/../../Drivers/CMSIS/DSP/Include/arm_math.h **** 
 802:Core/Inc/../../Drivers/CMSIS/DSP/Include/arm_math.h ****     r = __SSAT(((((q31_t)x << 16) >> 16) + (((q31_t)y) >> 16)), 16) & (int32_t)0x0000FFFF;
 803:Core/Inc/../../Drivers/CMSIS/DSP/Include/arm_math.h ****     s = __SSAT(((((q31_t)x) >> 16) - (((q31_t)y << 16) >> 16)), 16) & (int32_t)0x0000FFFF;
 804:Core/Inc/../../Drivers/CMSIS/DSP/Include/arm_math.h **** 
 805:Core/Inc/../../Drivers/CMSIS/DSP/Include/arm_math.h ****     return ((uint32_t)((s << 16) | (r)));
 806:Core/Inc/../../Drivers/CMSIS/DSP/Include/arm_math.h ****   }
 807:Core/Inc/../../Drivers/CMSIS/DSP/Include/arm_math.h **** 
 808:Core/Inc/../../Drivers/CMSIS/DSP/Include/arm_math.h ****   /*
 809:Core/Inc/../../Drivers/CMSIS/DSP/Include/arm_math.h ****    * @brief C custom defined SHSAX for M3 and M0 processors
 810:Core/Inc/../../Drivers/CMSIS/DSP/Include/arm_math.h ****    */
 811:Core/Inc/../../Drivers/CMSIS/DSP/Include/arm_math.h ****   CMSIS_INLINE __STATIC_INLINE uint32_t __SHSAX(
 812:Core/Inc/../../Drivers/CMSIS/DSP/Include/arm_math.h ****       uint32_t x,
 813:Core/Inc/../../Drivers/CMSIS/DSP/Include/arm_math.h ****       uint32_t y)
 814:Core/Inc/../../Drivers/CMSIS/DSP/Include/arm_math.h ****   {
 815:Core/Inc/../../Drivers/CMSIS/DSP/Include/arm_math.h ****     q31_t r, s;
 816:Core/Inc/../../Drivers/CMSIS/DSP/Include/arm_math.h **** 
 817:Core/Inc/../../Drivers/CMSIS/DSP/Include/arm_math.h ****     r = (((((q31_t)x << 16) >> 16) + (((q31_t)y) >> 16)) >> 1) & (int32_t)0x0000FFFF;
 818:Core/Inc/../../Drivers/CMSIS/DSP/Include/arm_math.h ****     s = (((((q31_t)x) >> 16) - (((q31_t)y << 16) >> 16)) >> 1) & (int32_t)0x0000FFFF;
 819:Core/Inc/../../Drivers/CMSIS/DSP/Include/arm_math.h **** 
 820:Core/Inc/../../Drivers/CMSIS/DSP/Include/arm_math.h ****     return ((uint32_t)((s << 16) | (r)));
 821:Core/Inc/../../Drivers/CMSIS/DSP/Include/arm_math.h ****   }
 822:Core/Inc/../../Drivers/CMSIS/DSP/Include/arm_math.h **** 
 823:Core/Inc/../../Drivers/CMSIS/DSP/Include/arm_math.h ****   /*
 824:Core/Inc/../../Drivers/CMSIS/DSP/Include/arm_math.h ****    * @brief C custom defined SMUSDX for M3 and M0 processors
 825:Core/Inc/../../Drivers/CMSIS/DSP/Include/arm_math.h ****    */
 826:Core/Inc/../../Drivers/CMSIS/DSP/Include/arm_math.h ****   CMSIS_INLINE __STATIC_INLINE uint32_t __SMUSDX(
 827:Core/Inc/../../Drivers/CMSIS/DSP/Include/arm_math.h ****       uint32_t x,
 828:Core/Inc/../../Drivers/CMSIS/DSP/Include/arm_math.h ****       uint32_t y)
 829:Core/Inc/../../Drivers/CMSIS/DSP/Include/arm_math.h ****   {
ARM GAS  /var/folders/n6/c271nzx11xl4r4_m7sqjlt0m0000gn/T//ccGo3Vqh.s 			page 43


 830:Core/Inc/../../Drivers/CMSIS/DSP/Include/arm_math.h ****     return ((uint32_t)(((((q31_t)x << 16) >> 16) * (((q31_t)y) >> 16)) -
 831:Core/Inc/../../Drivers/CMSIS/DSP/Include/arm_math.h ****                        ((((q31_t)x) >> 16) * (((q31_t)y << 16) >> 16))));
 832:Core/Inc/../../Drivers/CMSIS/DSP/Include/arm_math.h ****   }
 833:Core/Inc/../../Drivers/CMSIS/DSP/Include/arm_math.h **** 
 834:Core/Inc/../../Drivers/CMSIS/DSP/Include/arm_math.h ****   /*
 835:Core/Inc/../../Drivers/CMSIS/DSP/Include/arm_math.h ****    * @brief C custom defined SMUADX for M3 and M0 processors
 836:Core/Inc/../../Drivers/CMSIS/DSP/Include/arm_math.h ****    */
 837:Core/Inc/../../Drivers/CMSIS/DSP/Include/arm_math.h ****   CMSIS_INLINE __STATIC_INLINE uint32_t __SMUADX(
 838:Core/Inc/../../Drivers/CMSIS/DSP/Include/arm_math.h ****       uint32_t x,
 839:Core/Inc/../../Drivers/CMSIS/DSP/Include/arm_math.h ****       uint32_t y)
 840:Core/Inc/../../Drivers/CMSIS/DSP/Include/arm_math.h ****   {
 841:Core/Inc/../../Drivers/CMSIS/DSP/Include/arm_math.h ****     return ((uint32_t)(((((q31_t)x << 16) >> 16) * (((q31_t)y) >> 16)) +
 842:Core/Inc/../../Drivers/CMSIS/DSP/Include/arm_math.h ****                        ((((q31_t)x) >> 16) * (((q31_t)y << 16) >> 16))));
 843:Core/Inc/../../Drivers/CMSIS/DSP/Include/arm_math.h ****   }
 844:Core/Inc/../../Drivers/CMSIS/DSP/Include/arm_math.h **** 
 845:Core/Inc/../../Drivers/CMSIS/DSP/Include/arm_math.h ****   /*
 846:Core/Inc/../../Drivers/CMSIS/DSP/Include/arm_math.h ****    * @brief C custom defined QADD for M3 and M0 processors
 847:Core/Inc/../../Drivers/CMSIS/DSP/Include/arm_math.h ****    */
 848:Core/Inc/../../Drivers/CMSIS/DSP/Include/arm_math.h ****   CMSIS_INLINE __STATIC_INLINE int32_t __QADD(
 849:Core/Inc/../../Drivers/CMSIS/DSP/Include/arm_math.h ****       int32_t x,
 850:Core/Inc/../../Drivers/CMSIS/DSP/Include/arm_math.h ****       int32_t y)
 851:Core/Inc/../../Drivers/CMSIS/DSP/Include/arm_math.h ****   {
 852:Core/Inc/../../Drivers/CMSIS/DSP/Include/arm_math.h ****     return ((int32_t)(clip_q63_to_q31((q63_t)x + (q31_t)y)));
 853:Core/Inc/../../Drivers/CMSIS/DSP/Include/arm_math.h ****   }
 854:Core/Inc/../../Drivers/CMSIS/DSP/Include/arm_math.h **** 
 855:Core/Inc/../../Drivers/CMSIS/DSP/Include/arm_math.h ****   /*
 856:Core/Inc/../../Drivers/CMSIS/DSP/Include/arm_math.h ****    * @brief C custom defined QSUB for M3 and M0 processors
 857:Core/Inc/../../Drivers/CMSIS/DSP/Include/arm_math.h ****    */
 858:Core/Inc/../../Drivers/CMSIS/DSP/Include/arm_math.h ****   CMSIS_INLINE __STATIC_INLINE int32_t __QSUB(
 859:Core/Inc/../../Drivers/CMSIS/DSP/Include/arm_math.h ****       int32_t x,
 860:Core/Inc/../../Drivers/CMSIS/DSP/Include/arm_math.h ****       int32_t y)
 861:Core/Inc/../../Drivers/CMSIS/DSP/Include/arm_math.h ****   {
 862:Core/Inc/../../Drivers/CMSIS/DSP/Include/arm_math.h ****     return ((int32_t)(clip_q63_to_q31((q63_t)x - (q31_t)y)));
 863:Core/Inc/../../Drivers/CMSIS/DSP/Include/arm_math.h ****   }
 864:Core/Inc/../../Drivers/CMSIS/DSP/Include/arm_math.h **** 
 865:Core/Inc/../../Drivers/CMSIS/DSP/Include/arm_math.h ****   /*
 866:Core/Inc/../../Drivers/CMSIS/DSP/Include/arm_math.h ****    * @brief C custom defined SMLAD for M3 and M0 processors
 867:Core/Inc/../../Drivers/CMSIS/DSP/Include/arm_math.h ****    */
 868:Core/Inc/../../Drivers/CMSIS/DSP/Include/arm_math.h ****   CMSIS_INLINE __STATIC_INLINE uint32_t __SMLAD(
 869:Core/Inc/../../Drivers/CMSIS/DSP/Include/arm_math.h ****       uint32_t x,
 870:Core/Inc/../../Drivers/CMSIS/DSP/Include/arm_math.h ****       uint32_t y,
 871:Core/Inc/../../Drivers/CMSIS/DSP/Include/arm_math.h ****       uint32_t sum)
 872:Core/Inc/../../Drivers/CMSIS/DSP/Include/arm_math.h ****   {
 873:Core/Inc/../../Drivers/CMSIS/DSP/Include/arm_math.h ****     return ((uint32_t)(((((q31_t)x << 16) >> 16) * (((q31_t)y << 16) >> 16)) +
 874:Core/Inc/../../Drivers/CMSIS/DSP/Include/arm_math.h ****                        ((((q31_t)x) >> 16) * (((q31_t)y) >> 16)) +
 875:Core/Inc/../../Drivers/CMSIS/DSP/Include/arm_math.h ****                        (((q31_t)sum))));
 876:Core/Inc/../../Drivers/CMSIS/DSP/Include/arm_math.h ****   }
 877:Core/Inc/../../Drivers/CMSIS/DSP/Include/arm_math.h **** 
 878:Core/Inc/../../Drivers/CMSIS/DSP/Include/arm_math.h ****   /*
 879:Core/Inc/../../Drivers/CMSIS/DSP/Include/arm_math.h ****    * @brief C custom defined SMLADX for M3 and M0 processors
 880:Core/Inc/../../Drivers/CMSIS/DSP/Include/arm_math.h ****    */
 881:Core/Inc/../../Drivers/CMSIS/DSP/Include/arm_math.h ****   CMSIS_INLINE __STATIC_INLINE uint32_t __SMLADX(
 882:Core/Inc/../../Drivers/CMSIS/DSP/Include/arm_math.h ****       uint32_t x,
 883:Core/Inc/../../Drivers/CMSIS/DSP/Include/arm_math.h ****       uint32_t y,
 884:Core/Inc/../../Drivers/CMSIS/DSP/Include/arm_math.h ****       uint32_t sum)
 885:Core/Inc/../../Drivers/CMSIS/DSP/Include/arm_math.h ****   {
 886:Core/Inc/../../Drivers/CMSIS/DSP/Include/arm_math.h ****     return ((uint32_t)(((((q31_t)x << 16) >> 16) * (((q31_t)y) >> 16)) +
ARM GAS  /var/folders/n6/c271nzx11xl4r4_m7sqjlt0m0000gn/T//ccGo3Vqh.s 			page 44


 887:Core/Inc/../../Drivers/CMSIS/DSP/Include/arm_math.h ****                        ((((q31_t)x) >> 16) * (((q31_t)y << 16) >> 16)) +
 888:Core/Inc/../../Drivers/CMSIS/DSP/Include/arm_math.h ****                        (((q31_t)sum))));
 889:Core/Inc/../../Drivers/CMSIS/DSP/Include/arm_math.h ****   }
 890:Core/Inc/../../Drivers/CMSIS/DSP/Include/arm_math.h **** 
 891:Core/Inc/../../Drivers/CMSIS/DSP/Include/arm_math.h ****   /*
 892:Core/Inc/../../Drivers/CMSIS/DSP/Include/arm_math.h ****    * @brief C custom defined SMLSDX for M3 and M0 processors
 893:Core/Inc/../../Drivers/CMSIS/DSP/Include/arm_math.h ****    */
 894:Core/Inc/../../Drivers/CMSIS/DSP/Include/arm_math.h ****   CMSIS_INLINE __STATIC_INLINE uint32_t __SMLSDX(
 895:Core/Inc/../../Drivers/CMSIS/DSP/Include/arm_math.h ****       uint32_t x,
 896:Core/Inc/../../Drivers/CMSIS/DSP/Include/arm_math.h ****       uint32_t y,
 897:Core/Inc/../../Drivers/CMSIS/DSP/Include/arm_math.h ****       uint32_t sum)
 898:Core/Inc/../../Drivers/CMSIS/DSP/Include/arm_math.h ****   {
 899:Core/Inc/../../Drivers/CMSIS/DSP/Include/arm_math.h ****     return ((uint32_t)(((((q31_t)x << 16) >> 16) * (((q31_t)y) >> 16)) -
 900:Core/Inc/../../Drivers/CMSIS/DSP/Include/arm_math.h ****                        ((((q31_t)x) >> 16) * (((q31_t)y << 16) >> 16)) +
 901:Core/Inc/../../Drivers/CMSIS/DSP/Include/arm_math.h ****                        (((q31_t)sum))));
 902:Core/Inc/../../Drivers/CMSIS/DSP/Include/arm_math.h ****   }
 903:Core/Inc/../../Drivers/CMSIS/DSP/Include/arm_math.h **** 
 904:Core/Inc/../../Drivers/CMSIS/DSP/Include/arm_math.h ****   /*
 905:Core/Inc/../../Drivers/CMSIS/DSP/Include/arm_math.h ****    * @brief C custom defined SMLALD for M3 and M0 processors
 906:Core/Inc/../../Drivers/CMSIS/DSP/Include/arm_math.h ****    */
 907:Core/Inc/../../Drivers/CMSIS/DSP/Include/arm_math.h ****   CMSIS_INLINE __STATIC_INLINE uint64_t __SMLALD(
 908:Core/Inc/../../Drivers/CMSIS/DSP/Include/arm_math.h ****       uint32_t x,
 909:Core/Inc/../../Drivers/CMSIS/DSP/Include/arm_math.h ****       uint32_t y,
 910:Core/Inc/../../Drivers/CMSIS/DSP/Include/arm_math.h ****       uint64_t sum)
 911:Core/Inc/../../Drivers/CMSIS/DSP/Include/arm_math.h ****   {
 912:Core/Inc/../../Drivers/CMSIS/DSP/Include/arm_math.h ****     /*  return (sum + ((q15_t) (x >> 16) * (q15_t) (y >> 16)) + ((q15_t) x * (q15_t) y)); */
 913:Core/Inc/../../Drivers/CMSIS/DSP/Include/arm_math.h ****     return ((uint64_t)(((((q31_t)x << 16) >> 16) * (((q31_t)y << 16) >> 16)) +
 914:Core/Inc/../../Drivers/CMSIS/DSP/Include/arm_math.h ****                        ((((q31_t)x) >> 16) * (((q31_t)y) >> 16)) +
 915:Core/Inc/../../Drivers/CMSIS/DSP/Include/arm_math.h ****                        (((q63_t)sum))));
 916:Core/Inc/../../Drivers/CMSIS/DSP/Include/arm_math.h ****   }
 917:Core/Inc/../../Drivers/CMSIS/DSP/Include/arm_math.h **** 
 918:Core/Inc/../../Drivers/CMSIS/DSP/Include/arm_math.h ****   /*
 919:Core/Inc/../../Drivers/CMSIS/DSP/Include/arm_math.h ****    * @brief C custom defined SMLALDX for M3 and M0 processors
 920:Core/Inc/../../Drivers/CMSIS/DSP/Include/arm_math.h ****    */
 921:Core/Inc/../../Drivers/CMSIS/DSP/Include/arm_math.h ****   CMSIS_INLINE __STATIC_INLINE uint64_t __SMLALDX(
 922:Core/Inc/../../Drivers/CMSIS/DSP/Include/arm_math.h ****       uint32_t x,
 923:Core/Inc/../../Drivers/CMSIS/DSP/Include/arm_math.h ****       uint32_t y,
 924:Core/Inc/../../Drivers/CMSIS/DSP/Include/arm_math.h ****       uint64_t sum)
 925:Core/Inc/../../Drivers/CMSIS/DSP/Include/arm_math.h ****   {
 926:Core/Inc/../../Drivers/CMSIS/DSP/Include/arm_math.h ****     /*  return (sum + ((q15_t) (x >> 16) * (q15_t) y)) + ((q15_t) x * (q15_t) (y >> 16)); */
 927:Core/Inc/../../Drivers/CMSIS/DSP/Include/arm_math.h ****     return ((uint64_t)(((((q31_t)x << 16) >> 16) * (((q31_t)y) >> 16)) +
 928:Core/Inc/../../Drivers/CMSIS/DSP/Include/arm_math.h ****                        ((((q31_t)x) >> 16) * (((q31_t)y << 16) >> 16)) +
 929:Core/Inc/../../Drivers/CMSIS/DSP/Include/arm_math.h ****                        (((q63_t)sum))));
 930:Core/Inc/../../Drivers/CMSIS/DSP/Include/arm_math.h ****   }
 931:Core/Inc/../../Drivers/CMSIS/DSP/Include/arm_math.h **** 
 932:Core/Inc/../../Drivers/CMSIS/DSP/Include/arm_math.h ****   /*
 933:Core/Inc/../../Drivers/CMSIS/DSP/Include/arm_math.h ****    * @brief C custom defined SMUAD for M3 and M0 processors
 934:Core/Inc/../../Drivers/CMSIS/DSP/Include/arm_math.h ****    */
 935:Core/Inc/../../Drivers/CMSIS/DSP/Include/arm_math.h ****   CMSIS_INLINE __STATIC_INLINE uint32_t __SMUAD(
 936:Core/Inc/../../Drivers/CMSIS/DSP/Include/arm_math.h ****       uint32_t x,
 937:Core/Inc/../../Drivers/CMSIS/DSP/Include/arm_math.h ****       uint32_t y)
 938:Core/Inc/../../Drivers/CMSIS/DSP/Include/arm_math.h ****   {
 939:Core/Inc/../../Drivers/CMSIS/DSP/Include/arm_math.h ****     return ((uint32_t)(((((q31_t)x << 16) >> 16) * (((q31_t)y << 16) >> 16)) +
 940:Core/Inc/../../Drivers/CMSIS/DSP/Include/arm_math.h ****                        ((((q31_t)x) >> 16) * (((q31_t)y) >> 16))));
 941:Core/Inc/../../Drivers/CMSIS/DSP/Include/arm_math.h ****   }
 942:Core/Inc/../../Drivers/CMSIS/DSP/Include/arm_math.h **** 
 943:Core/Inc/../../Drivers/CMSIS/DSP/Include/arm_math.h ****   /*
ARM GAS  /var/folders/n6/c271nzx11xl4r4_m7sqjlt0m0000gn/T//ccGo3Vqh.s 			page 45


 944:Core/Inc/../../Drivers/CMSIS/DSP/Include/arm_math.h ****    * @brief C custom defined SMUSD for M3 and M0 processors
 945:Core/Inc/../../Drivers/CMSIS/DSP/Include/arm_math.h ****    */
 946:Core/Inc/../../Drivers/CMSIS/DSP/Include/arm_math.h ****   CMSIS_INLINE __STATIC_INLINE uint32_t __SMUSD(
 947:Core/Inc/../../Drivers/CMSIS/DSP/Include/arm_math.h ****       uint32_t x,
 948:Core/Inc/../../Drivers/CMSIS/DSP/Include/arm_math.h ****       uint32_t y)
 949:Core/Inc/../../Drivers/CMSIS/DSP/Include/arm_math.h ****   {
 950:Core/Inc/../../Drivers/CMSIS/DSP/Include/arm_math.h ****     return ((uint32_t)(((((q31_t)x << 16) >> 16) * (((q31_t)y << 16) >> 16)) -
 951:Core/Inc/../../Drivers/CMSIS/DSP/Include/arm_math.h ****                        ((((q31_t)x) >> 16) * (((q31_t)y) >> 16))));
 952:Core/Inc/../../Drivers/CMSIS/DSP/Include/arm_math.h ****   }
 953:Core/Inc/../../Drivers/CMSIS/DSP/Include/arm_math.h **** 
 954:Core/Inc/../../Drivers/CMSIS/DSP/Include/arm_math.h ****   /*
 955:Core/Inc/../../Drivers/CMSIS/DSP/Include/arm_math.h ****    * @brief C custom defined SXTB16 for M3 and M0 processors
 956:Core/Inc/../../Drivers/CMSIS/DSP/Include/arm_math.h ****    */
 957:Core/Inc/../../Drivers/CMSIS/DSP/Include/arm_math.h ****   CMSIS_INLINE __STATIC_INLINE uint32_t __SXTB16(
 958:Core/Inc/../../Drivers/CMSIS/DSP/Include/arm_math.h ****       uint32_t x)
 959:Core/Inc/../../Drivers/CMSIS/DSP/Include/arm_math.h ****   {
 960:Core/Inc/../../Drivers/CMSIS/DSP/Include/arm_math.h ****     return ((uint32_t)(((((q31_t)x << 24) >> 24) & (q31_t)0x0000FFFF) |
 961:Core/Inc/../../Drivers/CMSIS/DSP/Include/arm_math.h ****                        ((((q31_t)x << 8) >> 8) & (q31_t)0xFFFF0000)));
 962:Core/Inc/../../Drivers/CMSIS/DSP/Include/arm_math.h ****   }
 963:Core/Inc/../../Drivers/CMSIS/DSP/Include/arm_math.h **** 
 964:Core/Inc/../../Drivers/CMSIS/DSP/Include/arm_math.h ****   /*
 965:Core/Inc/../../Drivers/CMSIS/DSP/Include/arm_math.h ****    * @brief C custom defined SMMLA for M3 and M0 processors
 966:Core/Inc/../../Drivers/CMSIS/DSP/Include/arm_math.h ****    */
 967:Core/Inc/../../Drivers/CMSIS/DSP/Include/arm_math.h ****   CMSIS_INLINE __STATIC_INLINE int32_t __SMMLA(
 968:Core/Inc/../../Drivers/CMSIS/DSP/Include/arm_math.h ****       int32_t x,
 969:Core/Inc/../../Drivers/CMSIS/DSP/Include/arm_math.h ****       int32_t y,
 970:Core/Inc/../../Drivers/CMSIS/DSP/Include/arm_math.h ****       int32_t sum)
 971:Core/Inc/../../Drivers/CMSIS/DSP/Include/arm_math.h ****   {
 972:Core/Inc/../../Drivers/CMSIS/DSP/Include/arm_math.h ****     return (sum + (int32_t)(((int64_t)x * y) >> 32));
 973:Core/Inc/../../Drivers/CMSIS/DSP/Include/arm_math.h ****   }
 974:Core/Inc/../../Drivers/CMSIS/DSP/Include/arm_math.h **** 
 975:Core/Inc/../../Drivers/CMSIS/DSP/Include/arm_math.h **** #endif /* !defined (ARM_MATH_DSP) */
 976:Core/Inc/../../Drivers/CMSIS/DSP/Include/arm_math.h **** 
 977:Core/Inc/../../Drivers/CMSIS/DSP/Include/arm_math.h ****   /**
 978:Core/Inc/../../Drivers/CMSIS/DSP/Include/arm_math.h ****    * @brief Instance structure for the Q7 FIR filter.
 979:Core/Inc/../../Drivers/CMSIS/DSP/Include/arm_math.h ****    */
 980:Core/Inc/../../Drivers/CMSIS/DSP/Include/arm_math.h ****   typedef struct
 981:Core/Inc/../../Drivers/CMSIS/DSP/Include/arm_math.h ****   {
 982:Core/Inc/../../Drivers/CMSIS/DSP/Include/arm_math.h ****     uint16_t numTaps; /**< number of filter coefficients in the filter. */
 983:Core/Inc/../../Drivers/CMSIS/DSP/Include/arm_math.h ****     q7_t *pState;     /**< points to the state variable array. The array is of length numTaps+block
 984:Core/Inc/../../Drivers/CMSIS/DSP/Include/arm_math.h ****     q7_t *pCoeffs;    /**< points to the coefficient array. The array is of length numTaps.*/
 985:Core/Inc/../../Drivers/CMSIS/DSP/Include/arm_math.h ****   } arm_fir_instance_q7;
 986:Core/Inc/../../Drivers/CMSIS/DSP/Include/arm_math.h **** 
 987:Core/Inc/../../Drivers/CMSIS/DSP/Include/arm_math.h ****   /**
 988:Core/Inc/../../Drivers/CMSIS/DSP/Include/arm_math.h ****    * @brief Instance structure for the Q15 FIR filter.
 989:Core/Inc/../../Drivers/CMSIS/DSP/Include/arm_math.h ****    */
 990:Core/Inc/../../Drivers/CMSIS/DSP/Include/arm_math.h ****   typedef struct
 991:Core/Inc/../../Drivers/CMSIS/DSP/Include/arm_math.h ****   {
 992:Core/Inc/../../Drivers/CMSIS/DSP/Include/arm_math.h ****     uint16_t numTaps; /**< number of filter coefficients in the filter. */
 993:Core/Inc/../../Drivers/CMSIS/DSP/Include/arm_math.h ****     q15_t *pState;    /**< points to the state variable array. The array is of length numTaps+block
 994:Core/Inc/../../Drivers/CMSIS/DSP/Include/arm_math.h ****     q15_t *pCoeffs;   /**< points to the coefficient array. The array is of length numTaps.*/
 995:Core/Inc/../../Drivers/CMSIS/DSP/Include/arm_math.h ****   } arm_fir_instance_q15;
 996:Core/Inc/../../Drivers/CMSIS/DSP/Include/arm_math.h **** 
 997:Core/Inc/../../Drivers/CMSIS/DSP/Include/arm_math.h ****   /**
 998:Core/Inc/../../Drivers/CMSIS/DSP/Include/arm_math.h ****    * @brief Instance structure for the Q31 FIR filter.
 999:Core/Inc/../../Drivers/CMSIS/DSP/Include/arm_math.h ****    */
1000:Core/Inc/../../Drivers/CMSIS/DSP/Include/arm_math.h ****   typedef struct
ARM GAS  /var/folders/n6/c271nzx11xl4r4_m7sqjlt0m0000gn/T//ccGo3Vqh.s 			page 46


1001:Core/Inc/../../Drivers/CMSIS/DSP/Include/arm_math.h ****   {
1002:Core/Inc/../../Drivers/CMSIS/DSP/Include/arm_math.h ****     uint16_t numTaps; /**< number of filter coefficients in the filter. */
1003:Core/Inc/../../Drivers/CMSIS/DSP/Include/arm_math.h ****     q31_t *pState;    /**< points to the state variable array. The array is of length numTaps+block
1004:Core/Inc/../../Drivers/CMSIS/DSP/Include/arm_math.h ****     q31_t *pCoeffs;   /**< points to the coefficient array. The array is of length numTaps. */
1005:Core/Inc/../../Drivers/CMSIS/DSP/Include/arm_math.h ****   } arm_fir_instance_q31;
1006:Core/Inc/../../Drivers/CMSIS/DSP/Include/arm_math.h **** 
1007:Core/Inc/../../Drivers/CMSIS/DSP/Include/arm_math.h ****   /**
1008:Core/Inc/../../Drivers/CMSIS/DSP/Include/arm_math.h ****    * @brief Instance structure for the floating-point FIR filter.
1009:Core/Inc/../../Drivers/CMSIS/DSP/Include/arm_math.h ****    */
1010:Core/Inc/../../Drivers/CMSIS/DSP/Include/arm_math.h ****   typedef struct
1011:Core/Inc/../../Drivers/CMSIS/DSP/Include/arm_math.h ****   {
1012:Core/Inc/../../Drivers/CMSIS/DSP/Include/arm_math.h ****     uint16_t numTaps;   /**< number of filter coefficients in the filter. */
1013:Core/Inc/../../Drivers/CMSIS/DSP/Include/arm_math.h ****     float32_t *pState;  /**< points to the state variable array. The array is of length numTaps+blo
1014:Core/Inc/../../Drivers/CMSIS/DSP/Include/arm_math.h ****     float32_t *pCoeffs; /**< points to the coefficient array. The array is of length numTaps. */
1015:Core/Inc/../../Drivers/CMSIS/DSP/Include/arm_math.h ****   } arm_fir_instance_f32;
1016:Core/Inc/../../Drivers/CMSIS/DSP/Include/arm_math.h **** 
1017:Core/Inc/../../Drivers/CMSIS/DSP/Include/arm_math.h ****   /**
1018:Core/Inc/../../Drivers/CMSIS/DSP/Include/arm_math.h ****    * @brief Processing function for the Q7 FIR filter.
1019:Core/Inc/../../Drivers/CMSIS/DSP/Include/arm_math.h ****    * @param[in]  S          points to an instance of the Q7 FIR filter structure.
1020:Core/Inc/../../Drivers/CMSIS/DSP/Include/arm_math.h ****    * @param[in]  pSrc       points to the block of input data.
1021:Core/Inc/../../Drivers/CMSIS/DSP/Include/arm_math.h ****    * @param[out] pDst       points to the block of output data.
1022:Core/Inc/../../Drivers/CMSIS/DSP/Include/arm_math.h ****    * @param[in]  blockSize  number of samples to process.
1023:Core/Inc/../../Drivers/CMSIS/DSP/Include/arm_math.h ****    */
1024:Core/Inc/../../Drivers/CMSIS/DSP/Include/arm_math.h ****   void arm_fir_q7(
1025:Core/Inc/../../Drivers/CMSIS/DSP/Include/arm_math.h ****       const arm_fir_instance_q7 *S,
1026:Core/Inc/../../Drivers/CMSIS/DSP/Include/arm_math.h ****       q7_t *pSrc,
1027:Core/Inc/../../Drivers/CMSIS/DSP/Include/arm_math.h ****       q7_t *pDst,
1028:Core/Inc/../../Drivers/CMSIS/DSP/Include/arm_math.h ****       uint32_t blockSize);
1029:Core/Inc/../../Drivers/CMSIS/DSP/Include/arm_math.h **** 
1030:Core/Inc/../../Drivers/CMSIS/DSP/Include/arm_math.h ****   /**
1031:Core/Inc/../../Drivers/CMSIS/DSP/Include/arm_math.h ****    * @brief  Initialization function for the Q7 FIR filter.
1032:Core/Inc/../../Drivers/CMSIS/DSP/Include/arm_math.h ****    * @param[in,out] S          points to an instance of the Q7 FIR structure.
1033:Core/Inc/../../Drivers/CMSIS/DSP/Include/arm_math.h ****    * @param[in]     numTaps    Number of filter coefficients in the filter.
1034:Core/Inc/../../Drivers/CMSIS/DSP/Include/arm_math.h ****    * @param[in]     pCoeffs    points to the filter coefficients.
1035:Core/Inc/../../Drivers/CMSIS/DSP/Include/arm_math.h ****    * @param[in]     pState     points to the state buffer.
1036:Core/Inc/../../Drivers/CMSIS/DSP/Include/arm_math.h ****    * @param[in]     blockSize  number of samples that are processed.
1037:Core/Inc/../../Drivers/CMSIS/DSP/Include/arm_math.h ****    */
1038:Core/Inc/../../Drivers/CMSIS/DSP/Include/arm_math.h ****   void arm_fir_init_q7(
1039:Core/Inc/../../Drivers/CMSIS/DSP/Include/arm_math.h ****       arm_fir_instance_q7 *S,
1040:Core/Inc/../../Drivers/CMSIS/DSP/Include/arm_math.h ****       uint16_t numTaps,
1041:Core/Inc/../../Drivers/CMSIS/DSP/Include/arm_math.h ****       q7_t *pCoeffs,
1042:Core/Inc/../../Drivers/CMSIS/DSP/Include/arm_math.h ****       q7_t *pState,
1043:Core/Inc/../../Drivers/CMSIS/DSP/Include/arm_math.h ****       uint32_t blockSize);
1044:Core/Inc/../../Drivers/CMSIS/DSP/Include/arm_math.h **** 
1045:Core/Inc/../../Drivers/CMSIS/DSP/Include/arm_math.h ****   /**
1046:Core/Inc/../../Drivers/CMSIS/DSP/Include/arm_math.h ****    * @brief Processing function for the Q15 FIR filter.
1047:Core/Inc/../../Drivers/CMSIS/DSP/Include/arm_math.h ****    * @param[in]  S          points to an instance of the Q15 FIR structure.
1048:Core/Inc/../../Drivers/CMSIS/DSP/Include/arm_math.h ****    * @param[in]  pSrc       points to the block of input data.
1049:Core/Inc/../../Drivers/CMSIS/DSP/Include/arm_math.h ****    * @param[out] pDst       points to the block of output data.
1050:Core/Inc/../../Drivers/CMSIS/DSP/Include/arm_math.h ****    * @param[in]  blockSize  number of samples to process.
1051:Core/Inc/../../Drivers/CMSIS/DSP/Include/arm_math.h ****    */
1052:Core/Inc/../../Drivers/CMSIS/DSP/Include/arm_math.h ****   void arm_fir_q15(
1053:Core/Inc/../../Drivers/CMSIS/DSP/Include/arm_math.h ****       const arm_fir_instance_q15 *S,
1054:Core/Inc/../../Drivers/CMSIS/DSP/Include/arm_math.h ****       q15_t *pSrc,
1055:Core/Inc/../../Drivers/CMSIS/DSP/Include/arm_math.h ****       q15_t *pDst,
1056:Core/Inc/../../Drivers/CMSIS/DSP/Include/arm_math.h ****       uint32_t blockSize);
1057:Core/Inc/../../Drivers/CMSIS/DSP/Include/arm_math.h **** 
ARM GAS  /var/folders/n6/c271nzx11xl4r4_m7sqjlt0m0000gn/T//ccGo3Vqh.s 			page 47


1058:Core/Inc/../../Drivers/CMSIS/DSP/Include/arm_math.h ****   /**
1059:Core/Inc/../../Drivers/CMSIS/DSP/Include/arm_math.h ****    * @brief Processing function for the fast Q15 FIR filter for Cortex-M3 and Cortex-M4.
1060:Core/Inc/../../Drivers/CMSIS/DSP/Include/arm_math.h ****    * @param[in]  S          points to an instance of the Q15 FIR filter structure.
1061:Core/Inc/../../Drivers/CMSIS/DSP/Include/arm_math.h ****    * @param[in]  pSrc       points to the block of input data.
1062:Core/Inc/../../Drivers/CMSIS/DSP/Include/arm_math.h ****    * @param[out] pDst       points to the block of output data.
1063:Core/Inc/../../Drivers/CMSIS/DSP/Include/arm_math.h ****    * @param[in]  blockSize  number of samples to process.
1064:Core/Inc/../../Drivers/CMSIS/DSP/Include/arm_math.h ****    */
1065:Core/Inc/../../Drivers/CMSIS/DSP/Include/arm_math.h ****   void arm_fir_fast_q15(
1066:Core/Inc/../../Drivers/CMSIS/DSP/Include/arm_math.h ****       const arm_fir_instance_q15 *S,
1067:Core/Inc/../../Drivers/CMSIS/DSP/Include/arm_math.h ****       q15_t *pSrc,
1068:Core/Inc/../../Drivers/CMSIS/DSP/Include/arm_math.h ****       q15_t *pDst,
1069:Core/Inc/../../Drivers/CMSIS/DSP/Include/arm_math.h ****       uint32_t blockSize);
1070:Core/Inc/../../Drivers/CMSIS/DSP/Include/arm_math.h **** 
1071:Core/Inc/../../Drivers/CMSIS/DSP/Include/arm_math.h ****   /**
1072:Core/Inc/../../Drivers/CMSIS/DSP/Include/arm_math.h ****    * @brief  Initialization function for the Q15 FIR filter.
1073:Core/Inc/../../Drivers/CMSIS/DSP/Include/arm_math.h ****    * @param[in,out] S          points to an instance of the Q15 FIR filter structure.
1074:Core/Inc/../../Drivers/CMSIS/DSP/Include/arm_math.h ****    * @param[in]     numTaps    Number of filter coefficients in the filter. Must be even and greate
1075:Core/Inc/../../Drivers/CMSIS/DSP/Include/arm_math.h ****    * @param[in]     pCoeffs    points to the filter coefficients.
1076:Core/Inc/../../Drivers/CMSIS/DSP/Include/arm_math.h ****    * @param[in]     pState     points to the state buffer.
1077:Core/Inc/../../Drivers/CMSIS/DSP/Include/arm_math.h ****    * @param[in]     blockSize  number of samples that are processed at a time.
1078:Core/Inc/../../Drivers/CMSIS/DSP/Include/arm_math.h ****    * @return The function returns ARM_MATH_SUCCESS if initialization was successful or ARM_MATH_ARG
1079:Core/Inc/../../Drivers/CMSIS/DSP/Include/arm_math.h ****    * <code>numTaps</code> is not a supported value.
1080:Core/Inc/../../Drivers/CMSIS/DSP/Include/arm_math.h ****    */
1081:Core/Inc/../../Drivers/CMSIS/DSP/Include/arm_math.h ****   arm_status arm_fir_init_q15(
1082:Core/Inc/../../Drivers/CMSIS/DSP/Include/arm_math.h ****       arm_fir_instance_q15 *S,
1083:Core/Inc/../../Drivers/CMSIS/DSP/Include/arm_math.h ****       uint16_t numTaps,
1084:Core/Inc/../../Drivers/CMSIS/DSP/Include/arm_math.h ****       q15_t *pCoeffs,
1085:Core/Inc/../../Drivers/CMSIS/DSP/Include/arm_math.h ****       q15_t *pState,
1086:Core/Inc/../../Drivers/CMSIS/DSP/Include/arm_math.h ****       uint32_t blockSize);
1087:Core/Inc/../../Drivers/CMSIS/DSP/Include/arm_math.h **** 
1088:Core/Inc/../../Drivers/CMSIS/DSP/Include/arm_math.h ****   /**
1089:Core/Inc/../../Drivers/CMSIS/DSP/Include/arm_math.h ****    * @brief Processing function for the Q31 FIR filter.
1090:Core/Inc/../../Drivers/CMSIS/DSP/Include/arm_math.h ****    * @param[in]  S          points to an instance of the Q31 FIR filter structure.
1091:Core/Inc/../../Drivers/CMSIS/DSP/Include/arm_math.h ****    * @param[in]  pSrc       points to the block of input data.
1092:Core/Inc/../../Drivers/CMSIS/DSP/Include/arm_math.h ****    * @param[out] pDst       points to the block of output data.
1093:Core/Inc/../../Drivers/CMSIS/DSP/Include/arm_math.h ****    * @param[in]  blockSize  number of samples to process.
1094:Core/Inc/../../Drivers/CMSIS/DSP/Include/arm_math.h ****    */
1095:Core/Inc/../../Drivers/CMSIS/DSP/Include/arm_math.h ****   void arm_fir_q31(
1096:Core/Inc/../../Drivers/CMSIS/DSP/Include/arm_math.h ****       const arm_fir_instance_q31 *S,
1097:Core/Inc/../../Drivers/CMSIS/DSP/Include/arm_math.h ****       q31_t *pSrc,
1098:Core/Inc/../../Drivers/CMSIS/DSP/Include/arm_math.h ****       q31_t *pDst,
1099:Core/Inc/../../Drivers/CMSIS/DSP/Include/arm_math.h ****       uint32_t blockSize);
1100:Core/Inc/../../Drivers/CMSIS/DSP/Include/arm_math.h **** 
1101:Core/Inc/../../Drivers/CMSIS/DSP/Include/arm_math.h ****   /**
1102:Core/Inc/../../Drivers/CMSIS/DSP/Include/arm_math.h ****    * @brief Processing function for the fast Q31 FIR filter for Cortex-M3 and Cortex-M4.
1103:Core/Inc/../../Drivers/CMSIS/DSP/Include/arm_math.h ****    * @param[in]  S          points to an instance of the Q31 FIR structure.
1104:Core/Inc/../../Drivers/CMSIS/DSP/Include/arm_math.h ****    * @param[in]  pSrc       points to the block of input data.
1105:Core/Inc/../../Drivers/CMSIS/DSP/Include/arm_math.h ****    * @param[out] pDst       points to the block of output data.
1106:Core/Inc/../../Drivers/CMSIS/DSP/Include/arm_math.h ****    * @param[in]  blockSize  number of samples to process.
1107:Core/Inc/../../Drivers/CMSIS/DSP/Include/arm_math.h ****    */
1108:Core/Inc/../../Drivers/CMSIS/DSP/Include/arm_math.h ****   void arm_fir_fast_q31(
1109:Core/Inc/../../Drivers/CMSIS/DSP/Include/arm_math.h ****       const arm_fir_instance_q31 *S,
1110:Core/Inc/../../Drivers/CMSIS/DSP/Include/arm_math.h ****       q31_t *pSrc,
1111:Core/Inc/../../Drivers/CMSIS/DSP/Include/arm_math.h ****       q31_t *pDst,
1112:Core/Inc/../../Drivers/CMSIS/DSP/Include/arm_math.h ****       uint32_t blockSize);
1113:Core/Inc/../../Drivers/CMSIS/DSP/Include/arm_math.h **** 
1114:Core/Inc/../../Drivers/CMSIS/DSP/Include/arm_math.h ****   /**
ARM GAS  /var/folders/n6/c271nzx11xl4r4_m7sqjlt0m0000gn/T//ccGo3Vqh.s 			page 48


1115:Core/Inc/../../Drivers/CMSIS/DSP/Include/arm_math.h ****    * @brief  Initialization function for the Q31 FIR filter.
1116:Core/Inc/../../Drivers/CMSIS/DSP/Include/arm_math.h ****    * @param[in,out] S          points to an instance of the Q31 FIR structure.
1117:Core/Inc/../../Drivers/CMSIS/DSP/Include/arm_math.h ****    * @param[in]     numTaps    Number of filter coefficients in the filter.
1118:Core/Inc/../../Drivers/CMSIS/DSP/Include/arm_math.h ****    * @param[in]     pCoeffs    points to the filter coefficients.
1119:Core/Inc/../../Drivers/CMSIS/DSP/Include/arm_math.h ****    * @param[in]     pState     points to the state buffer.
1120:Core/Inc/../../Drivers/CMSIS/DSP/Include/arm_math.h ****    * @param[in]     blockSize  number of samples that are processed at a time.
1121:Core/Inc/../../Drivers/CMSIS/DSP/Include/arm_math.h ****    */
1122:Core/Inc/../../Drivers/CMSIS/DSP/Include/arm_math.h ****   void arm_fir_init_q31(
1123:Core/Inc/../../Drivers/CMSIS/DSP/Include/arm_math.h ****       arm_fir_instance_q31 *S,
1124:Core/Inc/../../Drivers/CMSIS/DSP/Include/arm_math.h ****       uint16_t numTaps,
1125:Core/Inc/../../Drivers/CMSIS/DSP/Include/arm_math.h ****       q31_t *pCoeffs,
1126:Core/Inc/../../Drivers/CMSIS/DSP/Include/arm_math.h ****       q31_t *pState,
1127:Core/Inc/../../Drivers/CMSIS/DSP/Include/arm_math.h ****       uint32_t blockSize);
1128:Core/Inc/../../Drivers/CMSIS/DSP/Include/arm_math.h **** 
1129:Core/Inc/../../Drivers/CMSIS/DSP/Include/arm_math.h ****   /**
1130:Core/Inc/../../Drivers/CMSIS/DSP/Include/arm_math.h ****    * @brief Processing function for the floating-point FIR filter.
1131:Core/Inc/../../Drivers/CMSIS/DSP/Include/arm_math.h ****    * @param[in]  S          points to an instance of the floating-point FIR structure.
1132:Core/Inc/../../Drivers/CMSIS/DSP/Include/arm_math.h ****    * @param[in]  pSrc       points to the block of input data.
1133:Core/Inc/../../Drivers/CMSIS/DSP/Include/arm_math.h ****    * @param[out] pDst       points to the block of output data.
1134:Core/Inc/../../Drivers/CMSIS/DSP/Include/arm_math.h ****    * @param[in]  blockSize  number of samples to process.
1135:Core/Inc/../../Drivers/CMSIS/DSP/Include/arm_math.h ****    */
1136:Core/Inc/../../Drivers/CMSIS/DSP/Include/arm_math.h ****   void arm_fir_f32(
1137:Core/Inc/../../Drivers/CMSIS/DSP/Include/arm_math.h ****       const arm_fir_instance_f32 *S,
1138:Core/Inc/../../Drivers/CMSIS/DSP/Include/arm_math.h ****       float32_t *pSrc,
1139:Core/Inc/../../Drivers/CMSIS/DSP/Include/arm_math.h ****       float32_t *pDst,
1140:Core/Inc/../../Drivers/CMSIS/DSP/Include/arm_math.h ****       uint32_t blockSize);
1141:Core/Inc/../../Drivers/CMSIS/DSP/Include/arm_math.h **** 
1142:Core/Inc/../../Drivers/CMSIS/DSP/Include/arm_math.h ****   /**
1143:Core/Inc/../../Drivers/CMSIS/DSP/Include/arm_math.h ****    * @brief  Initialization function for the floating-point FIR filter.
1144:Core/Inc/../../Drivers/CMSIS/DSP/Include/arm_math.h ****    * @param[in,out] S          points to an instance of the floating-point FIR filter structure.
1145:Core/Inc/../../Drivers/CMSIS/DSP/Include/arm_math.h ****    * @param[in]     numTaps    Number of filter coefficients in the filter.
1146:Core/Inc/../../Drivers/CMSIS/DSP/Include/arm_math.h ****    * @param[in]     pCoeffs    points to the filter coefficients.
1147:Core/Inc/../../Drivers/CMSIS/DSP/Include/arm_math.h ****    * @param[in]     pState     points to the state buffer.
1148:Core/Inc/../../Drivers/CMSIS/DSP/Include/arm_math.h ****    * @param[in]     blockSize  number of samples that are processed at a time.
1149:Core/Inc/../../Drivers/CMSIS/DSP/Include/arm_math.h ****    */
1150:Core/Inc/../../Drivers/CMSIS/DSP/Include/arm_math.h ****   void arm_fir_init_f32(
1151:Core/Inc/../../Drivers/CMSIS/DSP/Include/arm_math.h ****       arm_fir_instance_f32 *S,
1152:Core/Inc/../../Drivers/CMSIS/DSP/Include/arm_math.h ****       uint16_t numTaps,
1153:Core/Inc/../../Drivers/CMSIS/DSP/Include/arm_math.h ****       float32_t *pCoeffs,
1154:Core/Inc/../../Drivers/CMSIS/DSP/Include/arm_math.h ****       float32_t *pState,
1155:Core/Inc/../../Drivers/CMSIS/DSP/Include/arm_math.h ****       uint32_t blockSize);
1156:Core/Inc/../../Drivers/CMSIS/DSP/Include/arm_math.h **** 
1157:Core/Inc/../../Drivers/CMSIS/DSP/Include/arm_math.h ****   /**
1158:Core/Inc/../../Drivers/CMSIS/DSP/Include/arm_math.h ****    * @brief Instance structure for the Q15 Biquad cascade filter.
1159:Core/Inc/../../Drivers/CMSIS/DSP/Include/arm_math.h ****    */
1160:Core/Inc/../../Drivers/CMSIS/DSP/Include/arm_math.h ****   typedef struct
1161:Core/Inc/../../Drivers/CMSIS/DSP/Include/arm_math.h ****   {
1162:Core/Inc/../../Drivers/CMSIS/DSP/Include/arm_math.h ****     int8_t numStages; /**< number of 2nd order stages in the filter.  Overall order is 2*numStages.
1163:Core/Inc/../../Drivers/CMSIS/DSP/Include/arm_math.h ****     q15_t *pState;    /**< Points to the array of state coefficients.  The array is of length 4*num
1164:Core/Inc/../../Drivers/CMSIS/DSP/Include/arm_math.h ****     q15_t *pCoeffs;   /**< Points to the array of coefficients.  The array is of length 5*numStages
1165:Core/Inc/../../Drivers/CMSIS/DSP/Include/arm_math.h ****     int8_t postShift; /**< Additional shift, in bits, applied to each output sample. */
1166:Core/Inc/../../Drivers/CMSIS/DSP/Include/arm_math.h ****   } arm_biquad_casd_df1_inst_q15;
1167:Core/Inc/../../Drivers/CMSIS/DSP/Include/arm_math.h **** 
1168:Core/Inc/../../Drivers/CMSIS/DSP/Include/arm_math.h ****   /**
1169:Core/Inc/../../Drivers/CMSIS/DSP/Include/arm_math.h ****    * @brief Instance structure for the Q31 Biquad cascade filter.
1170:Core/Inc/../../Drivers/CMSIS/DSP/Include/arm_math.h ****    */
1171:Core/Inc/../../Drivers/CMSIS/DSP/Include/arm_math.h ****   typedef struct
ARM GAS  /var/folders/n6/c271nzx11xl4r4_m7sqjlt0m0000gn/T//ccGo3Vqh.s 			page 49


1172:Core/Inc/../../Drivers/CMSIS/DSP/Include/arm_math.h ****   {
1173:Core/Inc/../../Drivers/CMSIS/DSP/Include/arm_math.h ****     uint32_t numStages; /**< number of 2nd order stages in the filter.  Overall order is 2*numStage
1174:Core/Inc/../../Drivers/CMSIS/DSP/Include/arm_math.h ****     q31_t *pState;      /**< Points to the array of state coefficients.  The array is of length 4*n
1175:Core/Inc/../../Drivers/CMSIS/DSP/Include/arm_math.h ****     q31_t *pCoeffs;     /**< Points to the array of coefficients.  The array is of length 5*numStag
1176:Core/Inc/../../Drivers/CMSIS/DSP/Include/arm_math.h ****     uint8_t postShift;  /**< Additional shift, in bits, applied to each output sample. */
1177:Core/Inc/../../Drivers/CMSIS/DSP/Include/arm_math.h ****   } arm_biquad_casd_df1_inst_q31;
1178:Core/Inc/../../Drivers/CMSIS/DSP/Include/arm_math.h **** 
1179:Core/Inc/../../Drivers/CMSIS/DSP/Include/arm_math.h ****   /**
1180:Core/Inc/../../Drivers/CMSIS/DSP/Include/arm_math.h ****    * @brief Instance structure for the floating-point Biquad cascade filter.
1181:Core/Inc/../../Drivers/CMSIS/DSP/Include/arm_math.h ****    */
1182:Core/Inc/../../Drivers/CMSIS/DSP/Include/arm_math.h ****   typedef struct
1183:Core/Inc/../../Drivers/CMSIS/DSP/Include/arm_math.h ****   {
1184:Core/Inc/../../Drivers/CMSIS/DSP/Include/arm_math.h ****     uint32_t numStages; /**< number of 2nd order stages in the filter.  Overall order is 2*numStage
1185:Core/Inc/../../Drivers/CMSIS/DSP/Include/arm_math.h ****     float32_t *pState;  /**< Points to the array of state coefficients.  The array is of length 4*n
1186:Core/Inc/../../Drivers/CMSIS/DSP/Include/arm_math.h ****     float32_t *pCoeffs; /**< Points to the array of coefficients.  The array is of length 5*numStag
1187:Core/Inc/../../Drivers/CMSIS/DSP/Include/arm_math.h ****   } arm_biquad_casd_df1_inst_f32;
1188:Core/Inc/../../Drivers/CMSIS/DSP/Include/arm_math.h **** 
1189:Core/Inc/../../Drivers/CMSIS/DSP/Include/arm_math.h ****   /**
1190:Core/Inc/../../Drivers/CMSIS/DSP/Include/arm_math.h ****    * @brief Processing function for the Q15 Biquad cascade filter.
1191:Core/Inc/../../Drivers/CMSIS/DSP/Include/arm_math.h ****    * @param[in]  S          points to an instance of the Q15 Biquad cascade structure.
1192:Core/Inc/../../Drivers/CMSIS/DSP/Include/arm_math.h ****    * @param[in]  pSrc       points to the block of input data.
1193:Core/Inc/../../Drivers/CMSIS/DSP/Include/arm_math.h ****    * @param[out] pDst       points to the block of output data.
1194:Core/Inc/../../Drivers/CMSIS/DSP/Include/arm_math.h ****    * @param[in]  blockSize  number of samples to process.
1195:Core/Inc/../../Drivers/CMSIS/DSP/Include/arm_math.h ****    */
1196:Core/Inc/../../Drivers/CMSIS/DSP/Include/arm_math.h ****   void arm_biquad_cascade_df1_q15(
1197:Core/Inc/../../Drivers/CMSIS/DSP/Include/arm_math.h ****       const arm_biquad_casd_df1_inst_q15 *S,
1198:Core/Inc/../../Drivers/CMSIS/DSP/Include/arm_math.h ****       q15_t *pSrc,
1199:Core/Inc/../../Drivers/CMSIS/DSP/Include/arm_math.h ****       q15_t *pDst,
1200:Core/Inc/../../Drivers/CMSIS/DSP/Include/arm_math.h ****       uint32_t blockSize);
1201:Core/Inc/../../Drivers/CMSIS/DSP/Include/arm_math.h **** 
1202:Core/Inc/../../Drivers/CMSIS/DSP/Include/arm_math.h ****   /**
1203:Core/Inc/../../Drivers/CMSIS/DSP/Include/arm_math.h ****    * @brief  Initialization function for the Q15 Biquad cascade filter.
1204:Core/Inc/../../Drivers/CMSIS/DSP/Include/arm_math.h ****    * @param[in,out] S          points to an instance of the Q15 Biquad cascade structure.
1205:Core/Inc/../../Drivers/CMSIS/DSP/Include/arm_math.h ****    * @param[in]     numStages  number of 2nd order stages in the filter.
1206:Core/Inc/../../Drivers/CMSIS/DSP/Include/arm_math.h ****    * @param[in]     pCoeffs    points to the filter coefficients.
1207:Core/Inc/../../Drivers/CMSIS/DSP/Include/arm_math.h ****    * @param[in]     pState     points to the state buffer.
1208:Core/Inc/../../Drivers/CMSIS/DSP/Include/arm_math.h ****    * @param[in]     postShift  Shift to be applied to the output. Varies according to the coefficie
1209:Core/Inc/../../Drivers/CMSIS/DSP/Include/arm_math.h ****    */
1210:Core/Inc/../../Drivers/CMSIS/DSP/Include/arm_math.h ****   void arm_biquad_cascade_df1_init_q15(
1211:Core/Inc/../../Drivers/CMSIS/DSP/Include/arm_math.h ****       arm_biquad_casd_df1_inst_q15 *S,
1212:Core/Inc/../../Drivers/CMSIS/DSP/Include/arm_math.h ****       uint8_t numStages,
1213:Core/Inc/../../Drivers/CMSIS/DSP/Include/arm_math.h ****       q15_t *pCoeffs,
1214:Core/Inc/../../Drivers/CMSIS/DSP/Include/arm_math.h ****       q15_t *pState,
1215:Core/Inc/../../Drivers/CMSIS/DSP/Include/arm_math.h ****       int8_t postShift);
1216:Core/Inc/../../Drivers/CMSIS/DSP/Include/arm_math.h **** 
1217:Core/Inc/../../Drivers/CMSIS/DSP/Include/arm_math.h ****   /**
1218:Core/Inc/../../Drivers/CMSIS/DSP/Include/arm_math.h ****    * @brief Fast but less precise processing function for the Q15 Biquad cascade filter for Cortex-
1219:Core/Inc/../../Drivers/CMSIS/DSP/Include/arm_math.h ****    * @param[in]  S          points to an instance of the Q15 Biquad cascade structure.
1220:Core/Inc/../../Drivers/CMSIS/DSP/Include/arm_math.h ****    * @param[in]  pSrc       points to the block of input data.
1221:Core/Inc/../../Drivers/CMSIS/DSP/Include/arm_math.h ****    * @param[out] pDst       points to the block of output data.
1222:Core/Inc/../../Drivers/CMSIS/DSP/Include/arm_math.h ****    * @param[in]  blockSize  number of samples to process.
1223:Core/Inc/../../Drivers/CMSIS/DSP/Include/arm_math.h ****    */
1224:Core/Inc/../../Drivers/CMSIS/DSP/Include/arm_math.h ****   void arm_biquad_cascade_df1_fast_q15(
1225:Core/Inc/../../Drivers/CMSIS/DSP/Include/arm_math.h ****       const arm_biquad_casd_df1_inst_q15 *S,
1226:Core/Inc/../../Drivers/CMSIS/DSP/Include/arm_math.h ****       q15_t *pSrc,
1227:Core/Inc/../../Drivers/CMSIS/DSP/Include/arm_math.h ****       q15_t *pDst,
1228:Core/Inc/../../Drivers/CMSIS/DSP/Include/arm_math.h ****       uint32_t blockSize);
ARM GAS  /var/folders/n6/c271nzx11xl4r4_m7sqjlt0m0000gn/T//ccGo3Vqh.s 			page 50


1229:Core/Inc/../../Drivers/CMSIS/DSP/Include/arm_math.h **** 
1230:Core/Inc/../../Drivers/CMSIS/DSP/Include/arm_math.h ****   /**
1231:Core/Inc/../../Drivers/CMSIS/DSP/Include/arm_math.h ****    * @brief Processing function for the Q31 Biquad cascade filter
1232:Core/Inc/../../Drivers/CMSIS/DSP/Include/arm_math.h ****    * @param[in]  S          points to an instance of the Q31 Biquad cascade structure.
1233:Core/Inc/../../Drivers/CMSIS/DSP/Include/arm_math.h ****    * @param[in]  pSrc       points to the block of input data.
1234:Core/Inc/../../Drivers/CMSIS/DSP/Include/arm_math.h ****    * @param[out] pDst       points to the block of output data.
1235:Core/Inc/../../Drivers/CMSIS/DSP/Include/arm_math.h ****    * @param[in]  blockSize  number of samples to process.
1236:Core/Inc/../../Drivers/CMSIS/DSP/Include/arm_math.h ****    */
1237:Core/Inc/../../Drivers/CMSIS/DSP/Include/arm_math.h ****   void arm_biquad_cascade_df1_q31(
1238:Core/Inc/../../Drivers/CMSIS/DSP/Include/arm_math.h ****       const arm_biquad_casd_df1_inst_q31 *S,
1239:Core/Inc/../../Drivers/CMSIS/DSP/Include/arm_math.h ****       q31_t *pSrc,
1240:Core/Inc/../../Drivers/CMSIS/DSP/Include/arm_math.h ****       q31_t *pDst,
1241:Core/Inc/../../Drivers/CMSIS/DSP/Include/arm_math.h ****       uint32_t blockSize);
1242:Core/Inc/../../Drivers/CMSIS/DSP/Include/arm_math.h **** 
1243:Core/Inc/../../Drivers/CMSIS/DSP/Include/arm_math.h ****   /**
1244:Core/Inc/../../Drivers/CMSIS/DSP/Include/arm_math.h ****    * @brief Fast but less precise processing function for the Q31 Biquad cascade filter for Cortex-
1245:Core/Inc/../../Drivers/CMSIS/DSP/Include/arm_math.h ****    * @param[in]  S          points to an instance of the Q31 Biquad cascade structure.
1246:Core/Inc/../../Drivers/CMSIS/DSP/Include/arm_math.h ****    * @param[in]  pSrc       points to the block of input data.
1247:Core/Inc/../../Drivers/CMSIS/DSP/Include/arm_math.h ****    * @param[out] pDst       points to the block of output data.
1248:Core/Inc/../../Drivers/CMSIS/DSP/Include/arm_math.h ****    * @param[in]  blockSize  number of samples to process.
1249:Core/Inc/../../Drivers/CMSIS/DSP/Include/arm_math.h ****    */
1250:Core/Inc/../../Drivers/CMSIS/DSP/Include/arm_math.h ****   void arm_biquad_cascade_df1_fast_q31(
1251:Core/Inc/../../Drivers/CMSIS/DSP/Include/arm_math.h ****       const arm_biquad_casd_df1_inst_q31 *S,
1252:Core/Inc/../../Drivers/CMSIS/DSP/Include/arm_math.h ****       q31_t *pSrc,
1253:Core/Inc/../../Drivers/CMSIS/DSP/Include/arm_math.h ****       q31_t *pDst,
1254:Core/Inc/../../Drivers/CMSIS/DSP/Include/arm_math.h ****       uint32_t blockSize);
1255:Core/Inc/../../Drivers/CMSIS/DSP/Include/arm_math.h **** 
1256:Core/Inc/../../Drivers/CMSIS/DSP/Include/arm_math.h ****   /**
1257:Core/Inc/../../Drivers/CMSIS/DSP/Include/arm_math.h ****    * @brief  Initialization function for the Q31 Biquad cascade filter.
1258:Core/Inc/../../Drivers/CMSIS/DSP/Include/arm_math.h ****    * @param[in,out] S          points to an instance of the Q31 Biquad cascade structure.
1259:Core/Inc/../../Drivers/CMSIS/DSP/Include/arm_math.h ****    * @param[in]     numStages  number of 2nd order stages in the filter.
1260:Core/Inc/../../Drivers/CMSIS/DSP/Include/arm_math.h ****    * @param[in]     pCoeffs    points to the filter coefficients.
1261:Core/Inc/../../Drivers/CMSIS/DSP/Include/arm_math.h ****    * @param[in]     pState     points to the state buffer.
1262:Core/Inc/../../Drivers/CMSIS/DSP/Include/arm_math.h ****    * @param[in]     postShift  Shift to be applied to the output. Varies according to the coefficie
1263:Core/Inc/../../Drivers/CMSIS/DSP/Include/arm_math.h ****    */
1264:Core/Inc/../../Drivers/CMSIS/DSP/Include/arm_math.h ****   void arm_biquad_cascade_df1_init_q31(
1265:Core/Inc/../../Drivers/CMSIS/DSP/Include/arm_math.h ****       arm_biquad_casd_df1_inst_q31 *S,
1266:Core/Inc/../../Drivers/CMSIS/DSP/Include/arm_math.h ****       uint8_t numStages,
1267:Core/Inc/../../Drivers/CMSIS/DSP/Include/arm_math.h ****       q31_t *pCoeffs,
1268:Core/Inc/../../Drivers/CMSIS/DSP/Include/arm_math.h ****       q31_t *pState,
1269:Core/Inc/../../Drivers/CMSIS/DSP/Include/arm_math.h ****       int8_t postShift);
1270:Core/Inc/../../Drivers/CMSIS/DSP/Include/arm_math.h **** 
1271:Core/Inc/../../Drivers/CMSIS/DSP/Include/arm_math.h ****   /**
1272:Core/Inc/../../Drivers/CMSIS/DSP/Include/arm_math.h ****    * @brief Processing function for the floating-point Biquad cascade filter.
1273:Core/Inc/../../Drivers/CMSIS/DSP/Include/arm_math.h ****    * @param[in]  S          points to an instance of the floating-point Biquad cascade structure.
1274:Core/Inc/../../Drivers/CMSIS/DSP/Include/arm_math.h ****    * @param[in]  pSrc       points to the block of input data.
1275:Core/Inc/../../Drivers/CMSIS/DSP/Include/arm_math.h ****    * @param[out] pDst       points to the block of output data.
1276:Core/Inc/../../Drivers/CMSIS/DSP/Include/arm_math.h ****    * @param[in]  blockSize  number of samples to process.
1277:Core/Inc/../../Drivers/CMSIS/DSP/Include/arm_math.h ****    */
1278:Core/Inc/../../Drivers/CMSIS/DSP/Include/arm_math.h ****   void arm_biquad_cascade_df1_f32(
1279:Core/Inc/../../Drivers/CMSIS/DSP/Include/arm_math.h ****       const arm_biquad_casd_df1_inst_f32 *S,
1280:Core/Inc/../../Drivers/CMSIS/DSP/Include/arm_math.h ****       float32_t *pSrc,
1281:Core/Inc/../../Drivers/CMSIS/DSP/Include/arm_math.h ****       float32_t *pDst,
1282:Core/Inc/../../Drivers/CMSIS/DSP/Include/arm_math.h ****       uint32_t blockSize);
1283:Core/Inc/../../Drivers/CMSIS/DSP/Include/arm_math.h **** 
1284:Core/Inc/../../Drivers/CMSIS/DSP/Include/arm_math.h ****   /**
1285:Core/Inc/../../Drivers/CMSIS/DSP/Include/arm_math.h ****    * @brief  Initialization function for the floating-point Biquad cascade filter.
ARM GAS  /var/folders/n6/c271nzx11xl4r4_m7sqjlt0m0000gn/T//ccGo3Vqh.s 			page 51


1286:Core/Inc/../../Drivers/CMSIS/DSP/Include/arm_math.h ****    * @param[in,out] S          points to an instance of the floating-point Biquad cascade structure
1287:Core/Inc/../../Drivers/CMSIS/DSP/Include/arm_math.h ****    * @param[in]     numStages  number of 2nd order stages in the filter.
1288:Core/Inc/../../Drivers/CMSIS/DSP/Include/arm_math.h ****    * @param[in]     pCoeffs    points to the filter coefficients.
1289:Core/Inc/../../Drivers/CMSIS/DSP/Include/arm_math.h ****    * @param[in]     pState     points to the state buffer.
1290:Core/Inc/../../Drivers/CMSIS/DSP/Include/arm_math.h ****    */
1291:Core/Inc/../../Drivers/CMSIS/DSP/Include/arm_math.h ****   void arm_biquad_cascade_df1_init_f32(
1292:Core/Inc/../../Drivers/CMSIS/DSP/Include/arm_math.h ****       arm_biquad_casd_df1_inst_f32 *S,
1293:Core/Inc/../../Drivers/CMSIS/DSP/Include/arm_math.h ****       uint8_t numStages,
1294:Core/Inc/../../Drivers/CMSIS/DSP/Include/arm_math.h ****       float32_t *pCoeffs,
1295:Core/Inc/../../Drivers/CMSIS/DSP/Include/arm_math.h ****       float32_t *pState);
1296:Core/Inc/../../Drivers/CMSIS/DSP/Include/arm_math.h **** 
1297:Core/Inc/../../Drivers/CMSIS/DSP/Include/arm_math.h ****   /**
1298:Core/Inc/../../Drivers/CMSIS/DSP/Include/arm_math.h ****    * @brief Instance structure for the floating-point matrix structure.
1299:Core/Inc/../../Drivers/CMSIS/DSP/Include/arm_math.h ****    */
1300:Core/Inc/../../Drivers/CMSIS/DSP/Include/arm_math.h ****   typedef struct
1301:Core/Inc/../../Drivers/CMSIS/DSP/Include/arm_math.h ****   {
1302:Core/Inc/../../Drivers/CMSIS/DSP/Include/arm_math.h ****     uint16_t numRows; /**< number of rows of the matrix.     */
1303:Core/Inc/../../Drivers/CMSIS/DSP/Include/arm_math.h ****     uint16_t numCols; /**< number of columns of the matrix.  */
1304:Core/Inc/../../Drivers/CMSIS/DSP/Include/arm_math.h ****     float32_t *pData; /**< points to the data of the matrix. */
1305:Core/Inc/../../Drivers/CMSIS/DSP/Include/arm_math.h ****   } arm_matrix_instance_f32;
1306:Core/Inc/../../Drivers/CMSIS/DSP/Include/arm_math.h **** 
1307:Core/Inc/../../Drivers/CMSIS/DSP/Include/arm_math.h ****   /**
1308:Core/Inc/../../Drivers/CMSIS/DSP/Include/arm_math.h ****    * @brief Instance structure for the floating-point matrix structure.
1309:Core/Inc/../../Drivers/CMSIS/DSP/Include/arm_math.h ****    */
1310:Core/Inc/../../Drivers/CMSIS/DSP/Include/arm_math.h ****   typedef struct
1311:Core/Inc/../../Drivers/CMSIS/DSP/Include/arm_math.h ****   {
1312:Core/Inc/../../Drivers/CMSIS/DSP/Include/arm_math.h ****     uint16_t numRows; /**< number of rows of the matrix.     */
1313:Core/Inc/../../Drivers/CMSIS/DSP/Include/arm_math.h ****     uint16_t numCols; /**< number of columns of the matrix.  */
1314:Core/Inc/../../Drivers/CMSIS/DSP/Include/arm_math.h ****     float64_t *pData; /**< points to the data of the matrix. */
1315:Core/Inc/../../Drivers/CMSIS/DSP/Include/arm_math.h ****   } arm_matrix_instance_f64;
1316:Core/Inc/../../Drivers/CMSIS/DSP/Include/arm_math.h **** 
1317:Core/Inc/../../Drivers/CMSIS/DSP/Include/arm_math.h ****   /**
1318:Core/Inc/../../Drivers/CMSIS/DSP/Include/arm_math.h ****    * @brief Instance structure for the Q15 matrix structure.
1319:Core/Inc/../../Drivers/CMSIS/DSP/Include/arm_math.h ****    */
1320:Core/Inc/../../Drivers/CMSIS/DSP/Include/arm_math.h ****   typedef struct
1321:Core/Inc/../../Drivers/CMSIS/DSP/Include/arm_math.h ****   {
1322:Core/Inc/../../Drivers/CMSIS/DSP/Include/arm_math.h ****     uint16_t numRows; /**< number of rows of the matrix.     */
1323:Core/Inc/../../Drivers/CMSIS/DSP/Include/arm_math.h ****     uint16_t numCols; /**< number of columns of the matrix.  */
1324:Core/Inc/../../Drivers/CMSIS/DSP/Include/arm_math.h ****     q15_t *pData;     /**< points to the data of the matrix. */
1325:Core/Inc/../../Drivers/CMSIS/DSP/Include/arm_math.h ****   } arm_matrix_instance_q15;
1326:Core/Inc/../../Drivers/CMSIS/DSP/Include/arm_math.h **** 
1327:Core/Inc/../../Drivers/CMSIS/DSP/Include/arm_math.h ****   /**
1328:Core/Inc/../../Drivers/CMSIS/DSP/Include/arm_math.h ****    * @brief Instance structure for the Q31 matrix structure.
1329:Core/Inc/../../Drivers/CMSIS/DSP/Include/arm_math.h ****    */
1330:Core/Inc/../../Drivers/CMSIS/DSP/Include/arm_math.h ****   typedef struct
1331:Core/Inc/../../Drivers/CMSIS/DSP/Include/arm_math.h ****   {
1332:Core/Inc/../../Drivers/CMSIS/DSP/Include/arm_math.h ****     uint16_t numRows; /**< number of rows of the matrix.     */
1333:Core/Inc/../../Drivers/CMSIS/DSP/Include/arm_math.h ****     uint16_t numCols; /**< number of columns of the matrix.  */
1334:Core/Inc/../../Drivers/CMSIS/DSP/Include/arm_math.h ****     q31_t *pData;     /**< points to the data of the matrix. */
1335:Core/Inc/../../Drivers/CMSIS/DSP/Include/arm_math.h ****   } arm_matrix_instance_q31;
1336:Core/Inc/../../Drivers/CMSIS/DSP/Include/arm_math.h **** 
1337:Core/Inc/../../Drivers/CMSIS/DSP/Include/arm_math.h ****   /**
1338:Core/Inc/../../Drivers/CMSIS/DSP/Include/arm_math.h ****    * @brief Floating-point matrix addition.
1339:Core/Inc/../../Drivers/CMSIS/DSP/Include/arm_math.h ****    * @param[in]  pSrcA  points to the first input matrix structure
1340:Core/Inc/../../Drivers/CMSIS/DSP/Include/arm_math.h ****    * @param[in]  pSrcB  points to the second input matrix structure
1341:Core/Inc/../../Drivers/CMSIS/DSP/Include/arm_math.h ****    * @param[out] pDst   points to output matrix structure
1342:Core/Inc/../../Drivers/CMSIS/DSP/Include/arm_math.h ****    * @return     The function returns either
ARM GAS  /var/folders/n6/c271nzx11xl4r4_m7sqjlt0m0000gn/T//ccGo3Vqh.s 			page 52


1343:Core/Inc/../../Drivers/CMSIS/DSP/Include/arm_math.h ****    * <code>ARM_MATH_SIZE_MISMATCH</code> or <code>ARM_MATH_SUCCESS</code> based on the outcome of s
1344:Core/Inc/../../Drivers/CMSIS/DSP/Include/arm_math.h ****    */
1345:Core/Inc/../../Drivers/CMSIS/DSP/Include/arm_math.h ****   arm_status arm_mat_add_f32(
1346:Core/Inc/../../Drivers/CMSIS/DSP/Include/arm_math.h ****       const arm_matrix_instance_f32 *pSrcA,
1347:Core/Inc/../../Drivers/CMSIS/DSP/Include/arm_math.h ****       const arm_matrix_instance_f32 *pSrcB,
1348:Core/Inc/../../Drivers/CMSIS/DSP/Include/arm_math.h ****       arm_matrix_instance_f32 *pDst);
1349:Core/Inc/../../Drivers/CMSIS/DSP/Include/arm_math.h **** 
1350:Core/Inc/../../Drivers/CMSIS/DSP/Include/arm_math.h ****   /**
1351:Core/Inc/../../Drivers/CMSIS/DSP/Include/arm_math.h ****    * @brief Q15 matrix addition.
1352:Core/Inc/../../Drivers/CMSIS/DSP/Include/arm_math.h ****    * @param[in]   pSrcA  points to the first input matrix structure
1353:Core/Inc/../../Drivers/CMSIS/DSP/Include/arm_math.h ****    * @param[in]   pSrcB  points to the second input matrix structure
1354:Core/Inc/../../Drivers/CMSIS/DSP/Include/arm_math.h ****    * @param[out]  pDst   points to output matrix structure
1355:Core/Inc/../../Drivers/CMSIS/DSP/Include/arm_math.h ****    * @return     The function returns either
1356:Core/Inc/../../Drivers/CMSIS/DSP/Include/arm_math.h ****    * <code>ARM_MATH_SIZE_MISMATCH</code> or <code>ARM_MATH_SUCCESS</code> based on the outcome of s
1357:Core/Inc/../../Drivers/CMSIS/DSP/Include/arm_math.h ****    */
1358:Core/Inc/../../Drivers/CMSIS/DSP/Include/arm_math.h ****   arm_status arm_mat_add_q15(
1359:Core/Inc/../../Drivers/CMSIS/DSP/Include/arm_math.h ****       const arm_matrix_instance_q15 *pSrcA,
1360:Core/Inc/../../Drivers/CMSIS/DSP/Include/arm_math.h ****       const arm_matrix_instance_q15 *pSrcB,
1361:Core/Inc/../../Drivers/CMSIS/DSP/Include/arm_math.h ****       arm_matrix_instance_q15 *pDst);
1362:Core/Inc/../../Drivers/CMSIS/DSP/Include/arm_math.h **** 
1363:Core/Inc/../../Drivers/CMSIS/DSP/Include/arm_math.h ****   /**
1364:Core/Inc/../../Drivers/CMSIS/DSP/Include/arm_math.h ****    * @brief Q31 matrix addition.
1365:Core/Inc/../../Drivers/CMSIS/DSP/Include/arm_math.h ****    * @param[in]  pSrcA  points to the first input matrix structure
1366:Core/Inc/../../Drivers/CMSIS/DSP/Include/arm_math.h ****    * @param[in]  pSrcB  points to the second input matrix structure
1367:Core/Inc/../../Drivers/CMSIS/DSP/Include/arm_math.h ****    * @param[out] pDst   points to output matrix structure
1368:Core/Inc/../../Drivers/CMSIS/DSP/Include/arm_math.h ****    * @return     The function returns either
1369:Core/Inc/../../Drivers/CMSIS/DSP/Include/arm_math.h ****    * <code>ARM_MATH_SIZE_MISMATCH</code> or <code>ARM_MATH_SUCCESS</code> based on the outcome of s
1370:Core/Inc/../../Drivers/CMSIS/DSP/Include/arm_math.h ****    */
1371:Core/Inc/../../Drivers/CMSIS/DSP/Include/arm_math.h ****   arm_status arm_mat_add_q31(
1372:Core/Inc/../../Drivers/CMSIS/DSP/Include/arm_math.h ****       const arm_matrix_instance_q31 *pSrcA,
1373:Core/Inc/../../Drivers/CMSIS/DSP/Include/arm_math.h ****       const arm_matrix_instance_q31 *pSrcB,
1374:Core/Inc/../../Drivers/CMSIS/DSP/Include/arm_math.h ****       arm_matrix_instance_q31 *pDst);
1375:Core/Inc/../../Drivers/CMSIS/DSP/Include/arm_math.h **** 
1376:Core/Inc/../../Drivers/CMSIS/DSP/Include/arm_math.h ****   /**
1377:Core/Inc/../../Drivers/CMSIS/DSP/Include/arm_math.h ****    * @brief Floating-point, complex, matrix multiplication.
1378:Core/Inc/../../Drivers/CMSIS/DSP/Include/arm_math.h ****    * @param[in]  pSrcA  points to the first input matrix structure
1379:Core/Inc/../../Drivers/CMSIS/DSP/Include/arm_math.h ****    * @param[in]  pSrcB  points to the second input matrix structure
1380:Core/Inc/../../Drivers/CMSIS/DSP/Include/arm_math.h ****    * @param[out] pDst   points to output matrix structure
1381:Core/Inc/../../Drivers/CMSIS/DSP/Include/arm_math.h ****    * @return     The function returns either
1382:Core/Inc/../../Drivers/CMSIS/DSP/Include/arm_math.h ****    * <code>ARM_MATH_SIZE_MISMATCH</code> or <code>ARM_MATH_SUCCESS</code> based on the outcome of s
1383:Core/Inc/../../Drivers/CMSIS/DSP/Include/arm_math.h ****    */
1384:Core/Inc/../../Drivers/CMSIS/DSP/Include/arm_math.h ****   arm_status arm_mat_cmplx_mult_f32(
1385:Core/Inc/../../Drivers/CMSIS/DSP/Include/arm_math.h ****       const arm_matrix_instance_f32 *pSrcA,
1386:Core/Inc/../../Drivers/CMSIS/DSP/Include/arm_math.h ****       const arm_matrix_instance_f32 *pSrcB,
1387:Core/Inc/../../Drivers/CMSIS/DSP/Include/arm_math.h ****       arm_matrix_instance_f32 *pDst);
1388:Core/Inc/../../Drivers/CMSIS/DSP/Include/arm_math.h **** 
1389:Core/Inc/../../Drivers/CMSIS/DSP/Include/arm_math.h ****   /**
1390:Core/Inc/../../Drivers/CMSIS/DSP/Include/arm_math.h ****    * @brief Q15, complex,  matrix multiplication.
1391:Core/Inc/../../Drivers/CMSIS/DSP/Include/arm_math.h ****    * @param[in]  pSrcA  points to the first input matrix structure
1392:Core/Inc/../../Drivers/CMSIS/DSP/Include/arm_math.h ****    * @param[in]  pSrcB  points to the second input matrix structure
1393:Core/Inc/../../Drivers/CMSIS/DSP/Include/arm_math.h ****    * @param[out] pDst   points to output matrix structure
1394:Core/Inc/../../Drivers/CMSIS/DSP/Include/arm_math.h ****    * @return     The function returns either
1395:Core/Inc/../../Drivers/CMSIS/DSP/Include/arm_math.h ****    * <code>ARM_MATH_SIZE_MISMATCH</code> or <code>ARM_MATH_SUCCESS</code> based on the outcome of s
1396:Core/Inc/../../Drivers/CMSIS/DSP/Include/arm_math.h ****    */
1397:Core/Inc/../../Drivers/CMSIS/DSP/Include/arm_math.h ****   arm_status arm_mat_cmplx_mult_q15(
1398:Core/Inc/../../Drivers/CMSIS/DSP/Include/arm_math.h ****       const arm_matrix_instance_q15 *pSrcA,
1399:Core/Inc/../../Drivers/CMSIS/DSP/Include/arm_math.h ****       const arm_matrix_instance_q15 *pSrcB,
ARM GAS  /var/folders/n6/c271nzx11xl4r4_m7sqjlt0m0000gn/T//ccGo3Vqh.s 			page 53


1400:Core/Inc/../../Drivers/CMSIS/DSP/Include/arm_math.h ****       arm_matrix_instance_q15 *pDst,
1401:Core/Inc/../../Drivers/CMSIS/DSP/Include/arm_math.h ****       q15_t *pScratch);
1402:Core/Inc/../../Drivers/CMSIS/DSP/Include/arm_math.h **** 
1403:Core/Inc/../../Drivers/CMSIS/DSP/Include/arm_math.h ****   /**
1404:Core/Inc/../../Drivers/CMSIS/DSP/Include/arm_math.h ****    * @brief Q31, complex, matrix multiplication.
1405:Core/Inc/../../Drivers/CMSIS/DSP/Include/arm_math.h ****    * @param[in]  pSrcA  points to the first input matrix structure
1406:Core/Inc/../../Drivers/CMSIS/DSP/Include/arm_math.h ****    * @param[in]  pSrcB  points to the second input matrix structure
1407:Core/Inc/../../Drivers/CMSIS/DSP/Include/arm_math.h ****    * @param[out] pDst   points to output matrix structure
1408:Core/Inc/../../Drivers/CMSIS/DSP/Include/arm_math.h ****    * @return     The function returns either
1409:Core/Inc/../../Drivers/CMSIS/DSP/Include/arm_math.h ****    * <code>ARM_MATH_SIZE_MISMATCH</code> or <code>ARM_MATH_SUCCESS</code> based on the outcome of s
1410:Core/Inc/../../Drivers/CMSIS/DSP/Include/arm_math.h ****    */
1411:Core/Inc/../../Drivers/CMSIS/DSP/Include/arm_math.h ****   arm_status arm_mat_cmplx_mult_q31(
1412:Core/Inc/../../Drivers/CMSIS/DSP/Include/arm_math.h ****       const arm_matrix_instance_q31 *pSrcA,
1413:Core/Inc/../../Drivers/CMSIS/DSP/Include/arm_math.h ****       const arm_matrix_instance_q31 *pSrcB,
1414:Core/Inc/../../Drivers/CMSIS/DSP/Include/arm_math.h ****       arm_matrix_instance_q31 *pDst);
1415:Core/Inc/../../Drivers/CMSIS/DSP/Include/arm_math.h **** 
1416:Core/Inc/../../Drivers/CMSIS/DSP/Include/arm_math.h ****   /**
1417:Core/Inc/../../Drivers/CMSIS/DSP/Include/arm_math.h ****    * @brief Floating-point matrix transpose.
1418:Core/Inc/../../Drivers/CMSIS/DSP/Include/arm_math.h ****    * @param[in]  pSrc  points to the input matrix
1419:Core/Inc/../../Drivers/CMSIS/DSP/Include/arm_math.h ****    * @param[out] pDst  points to the output matrix
1420:Core/Inc/../../Drivers/CMSIS/DSP/Include/arm_math.h ****    * @return    The function returns either  <code>ARM_MATH_SIZE_MISMATCH</code>
1421:Core/Inc/../../Drivers/CMSIS/DSP/Include/arm_math.h ****    * or <code>ARM_MATH_SUCCESS</code> based on the outcome of size checking.
1422:Core/Inc/../../Drivers/CMSIS/DSP/Include/arm_math.h ****    */
1423:Core/Inc/../../Drivers/CMSIS/DSP/Include/arm_math.h ****   arm_status arm_mat_trans_f32(
1424:Core/Inc/../../Drivers/CMSIS/DSP/Include/arm_math.h ****       const arm_matrix_instance_f32 *pSrc,
1425:Core/Inc/../../Drivers/CMSIS/DSP/Include/arm_math.h ****       arm_matrix_instance_f32 *pDst);
1426:Core/Inc/../../Drivers/CMSIS/DSP/Include/arm_math.h **** 
1427:Core/Inc/../../Drivers/CMSIS/DSP/Include/arm_math.h ****   /**
1428:Core/Inc/../../Drivers/CMSIS/DSP/Include/arm_math.h ****    * @brief Q15 matrix transpose.
1429:Core/Inc/../../Drivers/CMSIS/DSP/Include/arm_math.h ****    * @param[in]  pSrc  points to the input matrix
1430:Core/Inc/../../Drivers/CMSIS/DSP/Include/arm_math.h ****    * @param[out] pDst  points to the output matrix
1431:Core/Inc/../../Drivers/CMSIS/DSP/Include/arm_math.h ****    * @return    The function returns either  <code>ARM_MATH_SIZE_MISMATCH</code>
1432:Core/Inc/../../Drivers/CMSIS/DSP/Include/arm_math.h ****    * or <code>ARM_MATH_SUCCESS</code> based on the outcome of size checking.
1433:Core/Inc/../../Drivers/CMSIS/DSP/Include/arm_math.h ****    */
1434:Core/Inc/../../Drivers/CMSIS/DSP/Include/arm_math.h ****   arm_status arm_mat_trans_q15(
1435:Core/Inc/../../Drivers/CMSIS/DSP/Include/arm_math.h ****       const arm_matrix_instance_q15 *pSrc,
1436:Core/Inc/../../Drivers/CMSIS/DSP/Include/arm_math.h ****       arm_matrix_instance_q15 *pDst);
1437:Core/Inc/../../Drivers/CMSIS/DSP/Include/arm_math.h **** 
1438:Core/Inc/../../Drivers/CMSIS/DSP/Include/arm_math.h ****   /**
1439:Core/Inc/../../Drivers/CMSIS/DSP/Include/arm_math.h ****    * @brief Q31 matrix transpose.
1440:Core/Inc/../../Drivers/CMSIS/DSP/Include/arm_math.h ****    * @param[in]  pSrc  points to the input matrix
1441:Core/Inc/../../Drivers/CMSIS/DSP/Include/arm_math.h ****    * @param[out] pDst  points to the output matrix
1442:Core/Inc/../../Drivers/CMSIS/DSP/Include/arm_math.h ****    * @return    The function returns either  <code>ARM_MATH_SIZE_MISMATCH</code>
1443:Core/Inc/../../Drivers/CMSIS/DSP/Include/arm_math.h ****    * or <code>ARM_MATH_SUCCESS</code> based on the outcome of size checking.
1444:Core/Inc/../../Drivers/CMSIS/DSP/Include/arm_math.h ****    */
1445:Core/Inc/../../Drivers/CMSIS/DSP/Include/arm_math.h ****   arm_status arm_mat_trans_q31(
1446:Core/Inc/../../Drivers/CMSIS/DSP/Include/arm_math.h ****       const arm_matrix_instance_q31 *pSrc,
1447:Core/Inc/../../Drivers/CMSIS/DSP/Include/arm_math.h ****       arm_matrix_instance_q31 *pDst);
1448:Core/Inc/../../Drivers/CMSIS/DSP/Include/arm_math.h **** 
1449:Core/Inc/../../Drivers/CMSIS/DSP/Include/arm_math.h ****   /**
1450:Core/Inc/../../Drivers/CMSIS/DSP/Include/arm_math.h ****    * @brief Floating-point matrix multiplication
1451:Core/Inc/../../Drivers/CMSIS/DSP/Include/arm_math.h ****    * @param[in]  pSrcA  points to the first input matrix structure
1452:Core/Inc/../../Drivers/CMSIS/DSP/Include/arm_math.h ****    * @param[in]  pSrcB  points to the second input matrix structure
1453:Core/Inc/../../Drivers/CMSIS/DSP/Include/arm_math.h ****    * @param[out] pDst   points to output matrix structure
1454:Core/Inc/../../Drivers/CMSIS/DSP/Include/arm_math.h ****    * @return     The function returns either
1455:Core/Inc/../../Drivers/CMSIS/DSP/Include/arm_math.h ****    * <code>ARM_MATH_SIZE_MISMATCH</code> or <code>ARM_MATH_SUCCESS</code> based on the outcome of s
1456:Core/Inc/../../Drivers/CMSIS/DSP/Include/arm_math.h ****    */
ARM GAS  /var/folders/n6/c271nzx11xl4r4_m7sqjlt0m0000gn/T//ccGo3Vqh.s 			page 54


1457:Core/Inc/../../Drivers/CMSIS/DSP/Include/arm_math.h ****   arm_status arm_mat_mult_f32(
1458:Core/Inc/../../Drivers/CMSIS/DSP/Include/arm_math.h ****       const arm_matrix_instance_f32 *pSrcA,
1459:Core/Inc/../../Drivers/CMSIS/DSP/Include/arm_math.h ****       const arm_matrix_instance_f32 *pSrcB,
1460:Core/Inc/../../Drivers/CMSIS/DSP/Include/arm_math.h ****       arm_matrix_instance_f32 *pDst);
1461:Core/Inc/../../Drivers/CMSIS/DSP/Include/arm_math.h **** 
1462:Core/Inc/../../Drivers/CMSIS/DSP/Include/arm_math.h ****   /**
1463:Core/Inc/../../Drivers/CMSIS/DSP/Include/arm_math.h ****    * @brief Q15 matrix multiplication
1464:Core/Inc/../../Drivers/CMSIS/DSP/Include/arm_math.h ****    * @param[in]  pSrcA   points to the first input matrix structure
1465:Core/Inc/../../Drivers/CMSIS/DSP/Include/arm_math.h ****    * @param[in]  pSrcB   points to the second input matrix structure
1466:Core/Inc/../../Drivers/CMSIS/DSP/Include/arm_math.h ****    * @param[out] pDst    points to output matrix structure
1467:Core/Inc/../../Drivers/CMSIS/DSP/Include/arm_math.h ****    * @param[in]  pState  points to the array for storing intermediate results
1468:Core/Inc/../../Drivers/CMSIS/DSP/Include/arm_math.h ****    * @return     The function returns either
1469:Core/Inc/../../Drivers/CMSIS/DSP/Include/arm_math.h ****    * <code>ARM_MATH_SIZE_MISMATCH</code> or <code>ARM_MATH_SUCCESS</code> based on the outcome of s
1470:Core/Inc/../../Drivers/CMSIS/DSP/Include/arm_math.h ****    */
1471:Core/Inc/../../Drivers/CMSIS/DSP/Include/arm_math.h ****   arm_status arm_mat_mult_q15(
1472:Core/Inc/../../Drivers/CMSIS/DSP/Include/arm_math.h ****       const arm_matrix_instance_q15 *pSrcA,
1473:Core/Inc/../../Drivers/CMSIS/DSP/Include/arm_math.h ****       const arm_matrix_instance_q15 *pSrcB,
1474:Core/Inc/../../Drivers/CMSIS/DSP/Include/arm_math.h ****       arm_matrix_instance_q15 *pDst,
1475:Core/Inc/../../Drivers/CMSIS/DSP/Include/arm_math.h ****       q15_t *pState);
1476:Core/Inc/../../Drivers/CMSIS/DSP/Include/arm_math.h **** 
1477:Core/Inc/../../Drivers/CMSIS/DSP/Include/arm_math.h ****   /**
1478:Core/Inc/../../Drivers/CMSIS/DSP/Include/arm_math.h ****    * @brief Q15 matrix multiplication (fast variant) for Cortex-M3 and Cortex-M4
1479:Core/Inc/../../Drivers/CMSIS/DSP/Include/arm_math.h ****    * @param[in]  pSrcA   points to the first input matrix structure
1480:Core/Inc/../../Drivers/CMSIS/DSP/Include/arm_math.h ****    * @param[in]  pSrcB   points to the second input matrix structure
1481:Core/Inc/../../Drivers/CMSIS/DSP/Include/arm_math.h ****    * @param[out] pDst    points to output matrix structure
1482:Core/Inc/../../Drivers/CMSIS/DSP/Include/arm_math.h ****    * @param[in]  pState  points to the array for storing intermediate results
1483:Core/Inc/../../Drivers/CMSIS/DSP/Include/arm_math.h ****    * @return     The function returns either
1484:Core/Inc/../../Drivers/CMSIS/DSP/Include/arm_math.h ****    * <code>ARM_MATH_SIZE_MISMATCH</code> or <code>ARM_MATH_SUCCESS</code> based on the outcome of s
1485:Core/Inc/../../Drivers/CMSIS/DSP/Include/arm_math.h ****    */
1486:Core/Inc/../../Drivers/CMSIS/DSP/Include/arm_math.h ****   arm_status arm_mat_mult_fast_q15(
1487:Core/Inc/../../Drivers/CMSIS/DSP/Include/arm_math.h ****       const arm_matrix_instance_q15 *pSrcA,
1488:Core/Inc/../../Drivers/CMSIS/DSP/Include/arm_math.h ****       const arm_matrix_instance_q15 *pSrcB,
1489:Core/Inc/../../Drivers/CMSIS/DSP/Include/arm_math.h ****       arm_matrix_instance_q15 *pDst,
1490:Core/Inc/../../Drivers/CMSIS/DSP/Include/arm_math.h ****       q15_t *pState);
1491:Core/Inc/../../Drivers/CMSIS/DSP/Include/arm_math.h **** 
1492:Core/Inc/../../Drivers/CMSIS/DSP/Include/arm_math.h ****   /**
1493:Core/Inc/../../Drivers/CMSIS/DSP/Include/arm_math.h ****    * @brief Q31 matrix multiplication
1494:Core/Inc/../../Drivers/CMSIS/DSP/Include/arm_math.h ****    * @param[in]  pSrcA  points to the first input matrix structure
1495:Core/Inc/../../Drivers/CMSIS/DSP/Include/arm_math.h ****    * @param[in]  pSrcB  points to the second input matrix structure
1496:Core/Inc/../../Drivers/CMSIS/DSP/Include/arm_math.h ****    * @param[out] pDst   points to output matrix structure
1497:Core/Inc/../../Drivers/CMSIS/DSP/Include/arm_math.h ****    * @return     The function returns either
1498:Core/Inc/../../Drivers/CMSIS/DSP/Include/arm_math.h ****    * <code>ARM_MATH_SIZE_MISMATCH</code> or <code>ARM_MATH_SUCCESS</code> based on the outcome of s
1499:Core/Inc/../../Drivers/CMSIS/DSP/Include/arm_math.h ****    */
1500:Core/Inc/../../Drivers/CMSIS/DSP/Include/arm_math.h ****   arm_status arm_mat_mult_q31(
1501:Core/Inc/../../Drivers/CMSIS/DSP/Include/arm_math.h ****       const arm_matrix_instance_q31 *pSrcA,
1502:Core/Inc/../../Drivers/CMSIS/DSP/Include/arm_math.h ****       const arm_matrix_instance_q31 *pSrcB,
1503:Core/Inc/../../Drivers/CMSIS/DSP/Include/arm_math.h ****       arm_matrix_instance_q31 *pDst);
1504:Core/Inc/../../Drivers/CMSIS/DSP/Include/arm_math.h **** 
1505:Core/Inc/../../Drivers/CMSIS/DSP/Include/arm_math.h ****   /**
1506:Core/Inc/../../Drivers/CMSIS/DSP/Include/arm_math.h ****    * @brief Q31 matrix multiplication (fast variant) for Cortex-M3 and Cortex-M4
1507:Core/Inc/../../Drivers/CMSIS/DSP/Include/arm_math.h ****    * @param[in]  pSrcA  points to the first input matrix structure
1508:Core/Inc/../../Drivers/CMSIS/DSP/Include/arm_math.h ****    * @param[in]  pSrcB  points to the second input matrix structure
1509:Core/Inc/../../Drivers/CMSIS/DSP/Include/arm_math.h ****    * @param[out] pDst   points to output matrix structure
1510:Core/Inc/../../Drivers/CMSIS/DSP/Include/arm_math.h ****    * @return     The function returns either
1511:Core/Inc/../../Drivers/CMSIS/DSP/Include/arm_math.h ****    * <code>ARM_MATH_SIZE_MISMATCH</code> or <code>ARM_MATH_SUCCESS</code> based on the outcome of s
1512:Core/Inc/../../Drivers/CMSIS/DSP/Include/arm_math.h ****    */
1513:Core/Inc/../../Drivers/CMSIS/DSP/Include/arm_math.h ****   arm_status arm_mat_mult_fast_q31(
ARM GAS  /var/folders/n6/c271nzx11xl4r4_m7sqjlt0m0000gn/T//ccGo3Vqh.s 			page 55


1514:Core/Inc/../../Drivers/CMSIS/DSP/Include/arm_math.h ****       const arm_matrix_instance_q31 *pSrcA,
1515:Core/Inc/../../Drivers/CMSIS/DSP/Include/arm_math.h ****       const arm_matrix_instance_q31 *pSrcB,
1516:Core/Inc/../../Drivers/CMSIS/DSP/Include/arm_math.h ****       arm_matrix_instance_q31 *pDst);
1517:Core/Inc/../../Drivers/CMSIS/DSP/Include/arm_math.h **** 
1518:Core/Inc/../../Drivers/CMSIS/DSP/Include/arm_math.h ****   /**
1519:Core/Inc/../../Drivers/CMSIS/DSP/Include/arm_math.h ****    * @brief Floating-point matrix subtraction
1520:Core/Inc/../../Drivers/CMSIS/DSP/Include/arm_math.h ****    * @param[in]  pSrcA  points to the first input matrix structure
1521:Core/Inc/../../Drivers/CMSIS/DSP/Include/arm_math.h ****    * @param[in]  pSrcB  points to the second input matrix structure
1522:Core/Inc/../../Drivers/CMSIS/DSP/Include/arm_math.h ****    * @param[out] pDst   points to output matrix structure
1523:Core/Inc/../../Drivers/CMSIS/DSP/Include/arm_math.h ****    * @return     The function returns either
1524:Core/Inc/../../Drivers/CMSIS/DSP/Include/arm_math.h ****    * <code>ARM_MATH_SIZE_MISMATCH</code> or <code>ARM_MATH_SUCCESS</code> based on the outcome of s
1525:Core/Inc/../../Drivers/CMSIS/DSP/Include/arm_math.h ****    */
1526:Core/Inc/../../Drivers/CMSIS/DSP/Include/arm_math.h ****   arm_status arm_mat_sub_f32(
1527:Core/Inc/../../Drivers/CMSIS/DSP/Include/arm_math.h ****       const arm_matrix_instance_f32 *pSrcA,
1528:Core/Inc/../../Drivers/CMSIS/DSP/Include/arm_math.h ****       const arm_matrix_instance_f32 *pSrcB,
1529:Core/Inc/../../Drivers/CMSIS/DSP/Include/arm_math.h ****       arm_matrix_instance_f32 *pDst);
1530:Core/Inc/../../Drivers/CMSIS/DSP/Include/arm_math.h **** 
1531:Core/Inc/../../Drivers/CMSIS/DSP/Include/arm_math.h ****   /**
1532:Core/Inc/../../Drivers/CMSIS/DSP/Include/arm_math.h ****    * @brief Q15 matrix subtraction
1533:Core/Inc/../../Drivers/CMSIS/DSP/Include/arm_math.h ****    * @param[in]  pSrcA  points to the first input matrix structure
1534:Core/Inc/../../Drivers/CMSIS/DSP/Include/arm_math.h ****    * @param[in]  pSrcB  points to the second input matrix structure
1535:Core/Inc/../../Drivers/CMSIS/DSP/Include/arm_math.h ****    * @param[out] pDst   points to output matrix structure
1536:Core/Inc/../../Drivers/CMSIS/DSP/Include/arm_math.h ****    * @return     The function returns either
1537:Core/Inc/../../Drivers/CMSIS/DSP/Include/arm_math.h ****    * <code>ARM_MATH_SIZE_MISMATCH</code> or <code>ARM_MATH_SUCCESS</code> based on the outcome of s
1538:Core/Inc/../../Drivers/CMSIS/DSP/Include/arm_math.h ****    */
1539:Core/Inc/../../Drivers/CMSIS/DSP/Include/arm_math.h ****   arm_status arm_mat_sub_q15(
1540:Core/Inc/../../Drivers/CMSIS/DSP/Include/arm_math.h ****       const arm_matrix_instance_q15 *pSrcA,
1541:Core/Inc/../../Drivers/CMSIS/DSP/Include/arm_math.h ****       const arm_matrix_instance_q15 *pSrcB,
1542:Core/Inc/../../Drivers/CMSIS/DSP/Include/arm_math.h ****       arm_matrix_instance_q15 *pDst);
1543:Core/Inc/../../Drivers/CMSIS/DSP/Include/arm_math.h **** 
1544:Core/Inc/../../Drivers/CMSIS/DSP/Include/arm_math.h ****   /**
1545:Core/Inc/../../Drivers/CMSIS/DSP/Include/arm_math.h ****    * @brief Q31 matrix subtraction
1546:Core/Inc/../../Drivers/CMSIS/DSP/Include/arm_math.h ****    * @param[in]  pSrcA  points to the first input matrix structure
1547:Core/Inc/../../Drivers/CMSIS/DSP/Include/arm_math.h ****    * @param[in]  pSrcB  points to the second input matrix structure
1548:Core/Inc/../../Drivers/CMSIS/DSP/Include/arm_math.h ****    * @param[out] pDst   points to output matrix structure
1549:Core/Inc/../../Drivers/CMSIS/DSP/Include/arm_math.h ****    * @return     The function returns either
1550:Core/Inc/../../Drivers/CMSIS/DSP/Include/arm_math.h ****    * <code>ARM_MATH_SIZE_MISMATCH</code> or <code>ARM_MATH_SUCCESS</code> based on the outcome of s
1551:Core/Inc/../../Drivers/CMSIS/DSP/Include/arm_math.h ****    */
1552:Core/Inc/../../Drivers/CMSIS/DSP/Include/arm_math.h ****   arm_status arm_mat_sub_q31(
1553:Core/Inc/../../Drivers/CMSIS/DSP/Include/arm_math.h ****       const arm_matrix_instance_q31 *pSrcA,
1554:Core/Inc/../../Drivers/CMSIS/DSP/Include/arm_math.h ****       const arm_matrix_instance_q31 *pSrcB,
1555:Core/Inc/../../Drivers/CMSIS/DSP/Include/arm_math.h ****       arm_matrix_instance_q31 *pDst);
1556:Core/Inc/../../Drivers/CMSIS/DSP/Include/arm_math.h **** 
1557:Core/Inc/../../Drivers/CMSIS/DSP/Include/arm_math.h ****   /**
1558:Core/Inc/../../Drivers/CMSIS/DSP/Include/arm_math.h ****    * @brief Floating-point matrix scaling.
1559:Core/Inc/../../Drivers/CMSIS/DSP/Include/arm_math.h ****    * @param[in]  pSrc   points to the input matrix
1560:Core/Inc/../../Drivers/CMSIS/DSP/Include/arm_math.h ****    * @param[in]  scale  scale factor
1561:Core/Inc/../../Drivers/CMSIS/DSP/Include/arm_math.h ****    * @param[out] pDst   points to the output matrix
1562:Core/Inc/../../Drivers/CMSIS/DSP/Include/arm_math.h ****    * @return     The function returns either
1563:Core/Inc/../../Drivers/CMSIS/DSP/Include/arm_math.h ****    * <code>ARM_MATH_SIZE_MISMATCH</code> or <code>ARM_MATH_SUCCESS</code> based on the outcome of s
1564:Core/Inc/../../Drivers/CMSIS/DSP/Include/arm_math.h ****    */
1565:Core/Inc/../../Drivers/CMSIS/DSP/Include/arm_math.h ****   arm_status arm_mat_scale_f32(
1566:Core/Inc/../../Drivers/CMSIS/DSP/Include/arm_math.h ****       const arm_matrix_instance_f32 *pSrc,
1567:Core/Inc/../../Drivers/CMSIS/DSP/Include/arm_math.h ****       float32_t scale,
1568:Core/Inc/../../Drivers/CMSIS/DSP/Include/arm_math.h ****       arm_matrix_instance_f32 *pDst);
1569:Core/Inc/../../Drivers/CMSIS/DSP/Include/arm_math.h **** 
1570:Core/Inc/../../Drivers/CMSIS/DSP/Include/arm_math.h ****   /**
ARM GAS  /var/folders/n6/c271nzx11xl4r4_m7sqjlt0m0000gn/T//ccGo3Vqh.s 			page 56


1571:Core/Inc/../../Drivers/CMSIS/DSP/Include/arm_math.h ****    * @brief Q15 matrix scaling.
1572:Core/Inc/../../Drivers/CMSIS/DSP/Include/arm_math.h ****    * @param[in]  pSrc        points to input matrix
1573:Core/Inc/../../Drivers/CMSIS/DSP/Include/arm_math.h ****    * @param[in]  scaleFract  fractional portion of the scale factor
1574:Core/Inc/../../Drivers/CMSIS/DSP/Include/arm_math.h ****    * @param[in]  shift       number of bits to shift the result by
1575:Core/Inc/../../Drivers/CMSIS/DSP/Include/arm_math.h ****    * @param[out] pDst        points to output matrix
1576:Core/Inc/../../Drivers/CMSIS/DSP/Include/arm_math.h ****    * @return     The function returns either
1577:Core/Inc/../../Drivers/CMSIS/DSP/Include/arm_math.h ****    * <code>ARM_MATH_SIZE_MISMATCH</code> or <code>ARM_MATH_SUCCESS</code> based on the outcome of s
1578:Core/Inc/../../Drivers/CMSIS/DSP/Include/arm_math.h ****    */
1579:Core/Inc/../../Drivers/CMSIS/DSP/Include/arm_math.h ****   arm_status arm_mat_scale_q15(
1580:Core/Inc/../../Drivers/CMSIS/DSP/Include/arm_math.h ****       const arm_matrix_instance_q15 *pSrc,
1581:Core/Inc/../../Drivers/CMSIS/DSP/Include/arm_math.h ****       q15_t scaleFract,
1582:Core/Inc/../../Drivers/CMSIS/DSP/Include/arm_math.h ****       int32_t shift,
1583:Core/Inc/../../Drivers/CMSIS/DSP/Include/arm_math.h ****       arm_matrix_instance_q15 *pDst);
1584:Core/Inc/../../Drivers/CMSIS/DSP/Include/arm_math.h **** 
1585:Core/Inc/../../Drivers/CMSIS/DSP/Include/arm_math.h ****   /**
1586:Core/Inc/../../Drivers/CMSIS/DSP/Include/arm_math.h ****    * @brief Q31 matrix scaling.
1587:Core/Inc/../../Drivers/CMSIS/DSP/Include/arm_math.h ****    * @param[in]  pSrc        points to input matrix
1588:Core/Inc/../../Drivers/CMSIS/DSP/Include/arm_math.h ****    * @param[in]  scaleFract  fractional portion of the scale factor
1589:Core/Inc/../../Drivers/CMSIS/DSP/Include/arm_math.h ****    * @param[in]  shift       number of bits to shift the result by
1590:Core/Inc/../../Drivers/CMSIS/DSP/Include/arm_math.h ****    * @param[out] pDst        points to output matrix structure
1591:Core/Inc/../../Drivers/CMSIS/DSP/Include/arm_math.h ****    * @return     The function returns either
1592:Core/Inc/../../Drivers/CMSIS/DSP/Include/arm_math.h ****    * <code>ARM_MATH_SIZE_MISMATCH</code> or <code>ARM_MATH_SUCCESS</code> based on the outcome of s
1593:Core/Inc/../../Drivers/CMSIS/DSP/Include/arm_math.h ****    */
1594:Core/Inc/../../Drivers/CMSIS/DSP/Include/arm_math.h ****   arm_status arm_mat_scale_q31(
1595:Core/Inc/../../Drivers/CMSIS/DSP/Include/arm_math.h ****       const arm_matrix_instance_q31 *pSrc,
1596:Core/Inc/../../Drivers/CMSIS/DSP/Include/arm_math.h ****       q31_t scaleFract,
1597:Core/Inc/../../Drivers/CMSIS/DSP/Include/arm_math.h ****       int32_t shift,
1598:Core/Inc/../../Drivers/CMSIS/DSP/Include/arm_math.h ****       arm_matrix_instance_q31 *pDst);
1599:Core/Inc/../../Drivers/CMSIS/DSP/Include/arm_math.h **** 
1600:Core/Inc/../../Drivers/CMSIS/DSP/Include/arm_math.h ****   /**
1601:Core/Inc/../../Drivers/CMSIS/DSP/Include/arm_math.h ****    * @brief  Q31 matrix initialization.
1602:Core/Inc/../../Drivers/CMSIS/DSP/Include/arm_math.h ****    * @param[in,out] S         points to an instance of the floating-point matrix structure.
1603:Core/Inc/../../Drivers/CMSIS/DSP/Include/arm_math.h ****    * @param[in]     nRows     number of rows in the matrix.
1604:Core/Inc/../../Drivers/CMSIS/DSP/Include/arm_math.h ****    * @param[in]     nColumns  number of columns in the matrix.
1605:Core/Inc/../../Drivers/CMSIS/DSP/Include/arm_math.h ****    * @param[in]     pData     points to the matrix data array.
1606:Core/Inc/../../Drivers/CMSIS/DSP/Include/arm_math.h ****    */
1607:Core/Inc/../../Drivers/CMSIS/DSP/Include/arm_math.h ****   void arm_mat_init_q31(
1608:Core/Inc/../../Drivers/CMSIS/DSP/Include/arm_math.h ****       arm_matrix_instance_q31 *S,
1609:Core/Inc/../../Drivers/CMSIS/DSP/Include/arm_math.h ****       uint16_t nRows,
1610:Core/Inc/../../Drivers/CMSIS/DSP/Include/arm_math.h ****       uint16_t nColumns,
1611:Core/Inc/../../Drivers/CMSIS/DSP/Include/arm_math.h ****       q31_t *pData);
1612:Core/Inc/../../Drivers/CMSIS/DSP/Include/arm_math.h **** 
1613:Core/Inc/../../Drivers/CMSIS/DSP/Include/arm_math.h ****   /**
1614:Core/Inc/../../Drivers/CMSIS/DSP/Include/arm_math.h ****    * @brief  Q15 matrix initialization.
1615:Core/Inc/../../Drivers/CMSIS/DSP/Include/arm_math.h ****    * @param[in,out] S         points to an instance of the floating-point matrix structure.
1616:Core/Inc/../../Drivers/CMSIS/DSP/Include/arm_math.h ****    * @param[in]     nRows     number of rows in the matrix.
1617:Core/Inc/../../Drivers/CMSIS/DSP/Include/arm_math.h ****    * @param[in]     nColumns  number of columns in the matrix.
1618:Core/Inc/../../Drivers/CMSIS/DSP/Include/arm_math.h ****    * @param[in]     pData     points to the matrix data array.
1619:Core/Inc/../../Drivers/CMSIS/DSP/Include/arm_math.h ****    */
1620:Core/Inc/../../Drivers/CMSIS/DSP/Include/arm_math.h ****   void arm_mat_init_q15(
1621:Core/Inc/../../Drivers/CMSIS/DSP/Include/arm_math.h ****       arm_matrix_instance_q15 *S,
1622:Core/Inc/../../Drivers/CMSIS/DSP/Include/arm_math.h ****       uint16_t nRows,
1623:Core/Inc/../../Drivers/CMSIS/DSP/Include/arm_math.h ****       uint16_t nColumns,
1624:Core/Inc/../../Drivers/CMSIS/DSP/Include/arm_math.h ****       q15_t *pData);
1625:Core/Inc/../../Drivers/CMSIS/DSP/Include/arm_math.h **** 
1626:Core/Inc/../../Drivers/CMSIS/DSP/Include/arm_math.h ****   /**
1627:Core/Inc/../../Drivers/CMSIS/DSP/Include/arm_math.h ****    * @brief  Floating-point matrix initialization.
ARM GAS  /var/folders/n6/c271nzx11xl4r4_m7sqjlt0m0000gn/T//ccGo3Vqh.s 			page 57


1628:Core/Inc/../../Drivers/CMSIS/DSP/Include/arm_math.h ****    * @param[in,out] S         points to an instance of the floating-point matrix structure.
1629:Core/Inc/../../Drivers/CMSIS/DSP/Include/arm_math.h ****    * @param[in]     nRows     number of rows in the matrix.
1630:Core/Inc/../../Drivers/CMSIS/DSP/Include/arm_math.h ****    * @param[in]     nColumns  number of columns in the matrix.
1631:Core/Inc/../../Drivers/CMSIS/DSP/Include/arm_math.h ****    * @param[in]     pData     points to the matrix data array.
1632:Core/Inc/../../Drivers/CMSIS/DSP/Include/arm_math.h ****    */
1633:Core/Inc/../../Drivers/CMSIS/DSP/Include/arm_math.h ****   void arm_mat_init_f32(
1634:Core/Inc/../../Drivers/CMSIS/DSP/Include/arm_math.h ****       arm_matrix_instance_f32 *S,
1635:Core/Inc/../../Drivers/CMSIS/DSP/Include/arm_math.h ****       uint16_t nRows,
1636:Core/Inc/../../Drivers/CMSIS/DSP/Include/arm_math.h ****       uint16_t nColumns,
1637:Core/Inc/../../Drivers/CMSIS/DSP/Include/arm_math.h ****       float32_t *pData);
1638:Core/Inc/../../Drivers/CMSIS/DSP/Include/arm_math.h **** 
1639:Core/Inc/../../Drivers/CMSIS/DSP/Include/arm_math.h ****   /**
1640:Core/Inc/../../Drivers/CMSIS/DSP/Include/arm_math.h ****    * @brief Instance structure for the Q15 PID Control.
1641:Core/Inc/../../Drivers/CMSIS/DSP/Include/arm_math.h ****    */
1642:Core/Inc/../../Drivers/CMSIS/DSP/Include/arm_math.h ****   typedef struct
1643:Core/Inc/../../Drivers/CMSIS/DSP/Include/arm_math.h ****   {
1644:Core/Inc/../../Drivers/CMSIS/DSP/Include/arm_math.h ****     q15_t A0; /**< The derived gain, A0 = Kp + Ki + Kd . */
1645:Core/Inc/../../Drivers/CMSIS/DSP/Include/arm_math.h **** #if !defined(ARM_MATH_DSP)
1646:Core/Inc/../../Drivers/CMSIS/DSP/Include/arm_math.h ****     q15_t A1;
1647:Core/Inc/../../Drivers/CMSIS/DSP/Include/arm_math.h ****     q15_t A2;
1648:Core/Inc/../../Drivers/CMSIS/DSP/Include/arm_math.h **** #else
1649:Core/Inc/../../Drivers/CMSIS/DSP/Include/arm_math.h ****   q31_t A1; /**< The derived gain A1 = -Kp - 2Kd | Kd.*/
1650:Core/Inc/../../Drivers/CMSIS/DSP/Include/arm_math.h **** #endif
1651:Core/Inc/../../Drivers/CMSIS/DSP/Include/arm_math.h ****     q15_t state[3]; /**< The state array of length 3. */
1652:Core/Inc/../../Drivers/CMSIS/DSP/Include/arm_math.h ****     q15_t Kp;       /**< The proportional gain. */
1653:Core/Inc/../../Drivers/CMSIS/DSP/Include/arm_math.h ****     q15_t Ki;       /**< The integral gain. */
1654:Core/Inc/../../Drivers/CMSIS/DSP/Include/arm_math.h ****     q15_t Kd;       /**< The derivative gain. */
1655:Core/Inc/../../Drivers/CMSIS/DSP/Include/arm_math.h ****   } arm_pid_instance_q15;
1656:Core/Inc/../../Drivers/CMSIS/DSP/Include/arm_math.h **** 
1657:Core/Inc/../../Drivers/CMSIS/DSP/Include/arm_math.h ****   /**
1658:Core/Inc/../../Drivers/CMSIS/DSP/Include/arm_math.h ****    * @brief Instance structure for the Q31 PID Control.
1659:Core/Inc/../../Drivers/CMSIS/DSP/Include/arm_math.h ****    */
1660:Core/Inc/../../Drivers/CMSIS/DSP/Include/arm_math.h ****   typedef struct
1661:Core/Inc/../../Drivers/CMSIS/DSP/Include/arm_math.h ****   {
1662:Core/Inc/../../Drivers/CMSIS/DSP/Include/arm_math.h ****     q31_t A0;       /**< The derived gain, A0 = Kp + Ki + Kd . */
1663:Core/Inc/../../Drivers/CMSIS/DSP/Include/arm_math.h ****     q31_t A1;       /**< The derived gain, A1 = -Kp - 2Kd. */
1664:Core/Inc/../../Drivers/CMSIS/DSP/Include/arm_math.h ****     q31_t A2;       /**< The derived gain, A2 = Kd . */
1665:Core/Inc/../../Drivers/CMSIS/DSP/Include/arm_math.h ****     q31_t state[3]; /**< The state array of length 3. */
1666:Core/Inc/../../Drivers/CMSIS/DSP/Include/arm_math.h ****     q31_t Kp;       /**< The proportional gain. */
1667:Core/Inc/../../Drivers/CMSIS/DSP/Include/arm_math.h ****     q31_t Ki;       /**< The integral gain. */
1668:Core/Inc/../../Drivers/CMSIS/DSP/Include/arm_math.h ****     q31_t Kd;       /**< The derivative gain. */
1669:Core/Inc/../../Drivers/CMSIS/DSP/Include/arm_math.h ****   } arm_pid_instance_q31;
1670:Core/Inc/../../Drivers/CMSIS/DSP/Include/arm_math.h **** 
1671:Core/Inc/../../Drivers/CMSIS/DSP/Include/arm_math.h ****   /**
1672:Core/Inc/../../Drivers/CMSIS/DSP/Include/arm_math.h ****    * @brief Instance structure for the floating-point PID Control.
1673:Core/Inc/../../Drivers/CMSIS/DSP/Include/arm_math.h ****    */
1674:Core/Inc/../../Drivers/CMSIS/DSP/Include/arm_math.h ****   typedef struct
1675:Core/Inc/../../Drivers/CMSIS/DSP/Include/arm_math.h ****   {
1676:Core/Inc/../../Drivers/CMSIS/DSP/Include/arm_math.h ****     float32_t A0;       /**< The derived gain, A0 = Kp + Ki + Kd . */
1677:Core/Inc/../../Drivers/CMSIS/DSP/Include/arm_math.h ****     float32_t A1;       /**< The derived gain, A1 = -Kp - 2Kd. */
1678:Core/Inc/../../Drivers/CMSIS/DSP/Include/arm_math.h ****     float32_t A2;       /**< The derived gain, A2 = Kd . */
1679:Core/Inc/../../Drivers/CMSIS/DSP/Include/arm_math.h ****     float32_t state[3]; /**< The state array of length 3. */
1680:Core/Inc/../../Drivers/CMSIS/DSP/Include/arm_math.h ****     float32_t Kp;       /**< The proportional gain. */
1681:Core/Inc/../../Drivers/CMSIS/DSP/Include/arm_math.h ****     float32_t Ki;       /**< The integral gain. */
1682:Core/Inc/../../Drivers/CMSIS/DSP/Include/arm_math.h ****     float32_t Kd;       /**< The derivative gain. */
1683:Core/Inc/../../Drivers/CMSIS/DSP/Include/arm_math.h ****   } arm_pid_instance_f32;
1684:Core/Inc/../../Drivers/CMSIS/DSP/Include/arm_math.h **** 
ARM GAS  /var/folders/n6/c271nzx11xl4r4_m7sqjlt0m0000gn/T//ccGo3Vqh.s 			page 58


1685:Core/Inc/../../Drivers/CMSIS/DSP/Include/arm_math.h ****   /**
1686:Core/Inc/../../Drivers/CMSIS/DSP/Include/arm_math.h ****    * @brief  Initialization function for the floating-point PID Control.
1687:Core/Inc/../../Drivers/CMSIS/DSP/Include/arm_math.h ****    * @param[in,out] S               points to an instance of the PID structure.
1688:Core/Inc/../../Drivers/CMSIS/DSP/Include/arm_math.h ****    * @param[in]     resetStateFlag  flag to reset the state. 0 = no change in state 1 = reset the s
1689:Core/Inc/../../Drivers/CMSIS/DSP/Include/arm_math.h ****    */
1690:Core/Inc/../../Drivers/CMSIS/DSP/Include/arm_math.h ****   void arm_pid_init_f32(
1691:Core/Inc/../../Drivers/CMSIS/DSP/Include/arm_math.h ****       arm_pid_instance_f32 *S,
1692:Core/Inc/../../Drivers/CMSIS/DSP/Include/arm_math.h ****       int32_t resetStateFlag);
1693:Core/Inc/../../Drivers/CMSIS/DSP/Include/arm_math.h **** 
1694:Core/Inc/../../Drivers/CMSIS/DSP/Include/arm_math.h ****   /**
1695:Core/Inc/../../Drivers/CMSIS/DSP/Include/arm_math.h ****    * @brief  Reset function for the floating-point PID Control.
1696:Core/Inc/../../Drivers/CMSIS/DSP/Include/arm_math.h ****    * @param[in,out] S  is an instance of the floating-point PID Control structure
1697:Core/Inc/../../Drivers/CMSIS/DSP/Include/arm_math.h ****    */
1698:Core/Inc/../../Drivers/CMSIS/DSP/Include/arm_math.h ****   void arm_pid_reset_f32(
1699:Core/Inc/../../Drivers/CMSIS/DSP/Include/arm_math.h ****       arm_pid_instance_f32 *S);
1700:Core/Inc/../../Drivers/CMSIS/DSP/Include/arm_math.h **** 
1701:Core/Inc/../../Drivers/CMSIS/DSP/Include/arm_math.h ****   /**
1702:Core/Inc/../../Drivers/CMSIS/DSP/Include/arm_math.h ****    * @brief  Initialization function for the Q31 PID Control.
1703:Core/Inc/../../Drivers/CMSIS/DSP/Include/arm_math.h ****    * @param[in,out] S               points to an instance of the Q15 PID structure.
1704:Core/Inc/../../Drivers/CMSIS/DSP/Include/arm_math.h ****    * @param[in]     resetStateFlag  flag to reset the state. 0 = no change in state 1 = reset the s
1705:Core/Inc/../../Drivers/CMSIS/DSP/Include/arm_math.h ****    */
1706:Core/Inc/../../Drivers/CMSIS/DSP/Include/arm_math.h ****   void arm_pid_init_q31(
1707:Core/Inc/../../Drivers/CMSIS/DSP/Include/arm_math.h ****       arm_pid_instance_q31 *S,
1708:Core/Inc/../../Drivers/CMSIS/DSP/Include/arm_math.h ****       int32_t resetStateFlag);
1709:Core/Inc/../../Drivers/CMSIS/DSP/Include/arm_math.h **** 
1710:Core/Inc/../../Drivers/CMSIS/DSP/Include/arm_math.h ****   /**
1711:Core/Inc/../../Drivers/CMSIS/DSP/Include/arm_math.h ****    * @brief  Reset function for the Q31 PID Control.
1712:Core/Inc/../../Drivers/CMSIS/DSP/Include/arm_math.h ****    * @param[in,out] S   points to an instance of the Q31 PID Control structure
1713:Core/Inc/../../Drivers/CMSIS/DSP/Include/arm_math.h ****    */
1714:Core/Inc/../../Drivers/CMSIS/DSP/Include/arm_math.h **** 
1715:Core/Inc/../../Drivers/CMSIS/DSP/Include/arm_math.h ****   void arm_pid_reset_q31(
1716:Core/Inc/../../Drivers/CMSIS/DSP/Include/arm_math.h ****       arm_pid_instance_q31 *S);
1717:Core/Inc/../../Drivers/CMSIS/DSP/Include/arm_math.h **** 
1718:Core/Inc/../../Drivers/CMSIS/DSP/Include/arm_math.h ****   /**
1719:Core/Inc/../../Drivers/CMSIS/DSP/Include/arm_math.h ****    * @brief  Initialization function for the Q15 PID Control.
1720:Core/Inc/../../Drivers/CMSIS/DSP/Include/arm_math.h ****    * @param[in,out] S               points to an instance of the Q15 PID structure.
1721:Core/Inc/../../Drivers/CMSIS/DSP/Include/arm_math.h ****    * @param[in]     resetStateFlag  flag to reset the state. 0 = no change in state 1 = reset the s
1722:Core/Inc/../../Drivers/CMSIS/DSP/Include/arm_math.h ****    */
1723:Core/Inc/../../Drivers/CMSIS/DSP/Include/arm_math.h ****   void arm_pid_init_q15(
1724:Core/Inc/../../Drivers/CMSIS/DSP/Include/arm_math.h ****       arm_pid_instance_q15 *S,
1725:Core/Inc/../../Drivers/CMSIS/DSP/Include/arm_math.h ****       int32_t resetStateFlag);
1726:Core/Inc/../../Drivers/CMSIS/DSP/Include/arm_math.h **** 
1727:Core/Inc/../../Drivers/CMSIS/DSP/Include/arm_math.h ****   /**
1728:Core/Inc/../../Drivers/CMSIS/DSP/Include/arm_math.h ****    * @brief  Reset function for the Q15 PID Control.
1729:Core/Inc/../../Drivers/CMSIS/DSP/Include/arm_math.h ****    * @param[in,out] S  points to an instance of the q15 PID Control structure
1730:Core/Inc/../../Drivers/CMSIS/DSP/Include/arm_math.h ****    */
1731:Core/Inc/../../Drivers/CMSIS/DSP/Include/arm_math.h ****   void arm_pid_reset_q15(
1732:Core/Inc/../../Drivers/CMSIS/DSP/Include/arm_math.h ****       arm_pid_instance_q15 *S);
1733:Core/Inc/../../Drivers/CMSIS/DSP/Include/arm_math.h **** 
1734:Core/Inc/../../Drivers/CMSIS/DSP/Include/arm_math.h ****   /**
1735:Core/Inc/../../Drivers/CMSIS/DSP/Include/arm_math.h ****    * @brief Instance structure for the floating-point Linear Interpolate function.
1736:Core/Inc/../../Drivers/CMSIS/DSP/Include/arm_math.h ****    */
1737:Core/Inc/../../Drivers/CMSIS/DSP/Include/arm_math.h ****   typedef struct
1738:Core/Inc/../../Drivers/CMSIS/DSP/Include/arm_math.h ****   {
1739:Core/Inc/../../Drivers/CMSIS/DSP/Include/arm_math.h ****     uint32_t nValues;   /**< nValues */
1740:Core/Inc/../../Drivers/CMSIS/DSP/Include/arm_math.h ****     float32_t x1;       /**< x1 */
1741:Core/Inc/../../Drivers/CMSIS/DSP/Include/arm_math.h ****     float32_t xSpacing; /**< xSpacing */
ARM GAS  /var/folders/n6/c271nzx11xl4r4_m7sqjlt0m0000gn/T//ccGo3Vqh.s 			page 59


1742:Core/Inc/../../Drivers/CMSIS/DSP/Include/arm_math.h ****     float32_t *pYData;  /**< pointer to the table of Y values */
1743:Core/Inc/../../Drivers/CMSIS/DSP/Include/arm_math.h ****   } arm_linear_interp_instance_f32;
1744:Core/Inc/../../Drivers/CMSIS/DSP/Include/arm_math.h **** 
1745:Core/Inc/../../Drivers/CMSIS/DSP/Include/arm_math.h ****   /**
1746:Core/Inc/../../Drivers/CMSIS/DSP/Include/arm_math.h ****    * @brief Instance structure for the floating-point bilinear interpolation function.
1747:Core/Inc/../../Drivers/CMSIS/DSP/Include/arm_math.h ****    */
1748:Core/Inc/../../Drivers/CMSIS/DSP/Include/arm_math.h ****   typedef struct
1749:Core/Inc/../../Drivers/CMSIS/DSP/Include/arm_math.h ****   {
1750:Core/Inc/../../Drivers/CMSIS/DSP/Include/arm_math.h ****     uint16_t numRows; /**< number of rows in the data table. */
1751:Core/Inc/../../Drivers/CMSIS/DSP/Include/arm_math.h ****     uint16_t numCols; /**< number of columns in the data table. */
1752:Core/Inc/../../Drivers/CMSIS/DSP/Include/arm_math.h ****     float32_t *pData; /**< points to the data table. */
1753:Core/Inc/../../Drivers/CMSIS/DSP/Include/arm_math.h ****   } arm_bilinear_interp_instance_f32;
1754:Core/Inc/../../Drivers/CMSIS/DSP/Include/arm_math.h **** 
1755:Core/Inc/../../Drivers/CMSIS/DSP/Include/arm_math.h ****   /**
1756:Core/Inc/../../Drivers/CMSIS/DSP/Include/arm_math.h ****    * @brief Instance structure for the Q31 bilinear interpolation function.
1757:Core/Inc/../../Drivers/CMSIS/DSP/Include/arm_math.h ****    */
1758:Core/Inc/../../Drivers/CMSIS/DSP/Include/arm_math.h ****   typedef struct
1759:Core/Inc/../../Drivers/CMSIS/DSP/Include/arm_math.h ****   {
1760:Core/Inc/../../Drivers/CMSIS/DSP/Include/arm_math.h ****     uint16_t numRows; /**< number of rows in the data table. */
1761:Core/Inc/../../Drivers/CMSIS/DSP/Include/arm_math.h ****     uint16_t numCols; /**< number of columns in the data table. */
1762:Core/Inc/../../Drivers/CMSIS/DSP/Include/arm_math.h ****     q31_t *pData;     /**< points to the data table. */
1763:Core/Inc/../../Drivers/CMSIS/DSP/Include/arm_math.h ****   } arm_bilinear_interp_instance_q31;
1764:Core/Inc/../../Drivers/CMSIS/DSP/Include/arm_math.h **** 
1765:Core/Inc/../../Drivers/CMSIS/DSP/Include/arm_math.h ****   /**
1766:Core/Inc/../../Drivers/CMSIS/DSP/Include/arm_math.h ****    * @brief Instance structure for the Q15 bilinear interpolation function.
1767:Core/Inc/../../Drivers/CMSIS/DSP/Include/arm_math.h ****    */
1768:Core/Inc/../../Drivers/CMSIS/DSP/Include/arm_math.h ****   typedef struct
1769:Core/Inc/../../Drivers/CMSIS/DSP/Include/arm_math.h ****   {
1770:Core/Inc/../../Drivers/CMSIS/DSP/Include/arm_math.h ****     uint16_t numRows; /**< number of rows in the data table. */
1771:Core/Inc/../../Drivers/CMSIS/DSP/Include/arm_math.h ****     uint16_t numCols; /**< number of columns in the data table. */
1772:Core/Inc/../../Drivers/CMSIS/DSP/Include/arm_math.h ****     q15_t *pData;     /**< points to the data table. */
1773:Core/Inc/../../Drivers/CMSIS/DSP/Include/arm_math.h ****   } arm_bilinear_interp_instance_q15;
1774:Core/Inc/../../Drivers/CMSIS/DSP/Include/arm_math.h **** 
1775:Core/Inc/../../Drivers/CMSIS/DSP/Include/arm_math.h ****   /**
1776:Core/Inc/../../Drivers/CMSIS/DSP/Include/arm_math.h ****    * @brief Instance structure for the Q15 bilinear interpolation function.
1777:Core/Inc/../../Drivers/CMSIS/DSP/Include/arm_math.h ****    */
1778:Core/Inc/../../Drivers/CMSIS/DSP/Include/arm_math.h ****   typedef struct
1779:Core/Inc/../../Drivers/CMSIS/DSP/Include/arm_math.h ****   {
1780:Core/Inc/../../Drivers/CMSIS/DSP/Include/arm_math.h ****     uint16_t numRows; /**< number of rows in the data table. */
1781:Core/Inc/../../Drivers/CMSIS/DSP/Include/arm_math.h ****     uint16_t numCols; /**< number of columns in the data table. */
1782:Core/Inc/../../Drivers/CMSIS/DSP/Include/arm_math.h ****     q7_t *pData;      /**< points to the data table. */
1783:Core/Inc/../../Drivers/CMSIS/DSP/Include/arm_math.h ****   } arm_bilinear_interp_instance_q7;
1784:Core/Inc/../../Drivers/CMSIS/DSP/Include/arm_math.h **** 
1785:Core/Inc/../../Drivers/CMSIS/DSP/Include/arm_math.h ****   /**
1786:Core/Inc/../../Drivers/CMSIS/DSP/Include/arm_math.h ****    * @brief Q7 vector multiplication.
1787:Core/Inc/../../Drivers/CMSIS/DSP/Include/arm_math.h ****    * @param[in]  pSrcA      points to the first input vector
1788:Core/Inc/../../Drivers/CMSIS/DSP/Include/arm_math.h ****    * @param[in]  pSrcB      points to the second input vector
1789:Core/Inc/../../Drivers/CMSIS/DSP/Include/arm_math.h ****    * @param[out] pDst       points to the output vector
1790:Core/Inc/../../Drivers/CMSIS/DSP/Include/arm_math.h ****    * @param[in]  blockSize  number of samples in each vector
1791:Core/Inc/../../Drivers/CMSIS/DSP/Include/arm_math.h ****    */
1792:Core/Inc/../../Drivers/CMSIS/DSP/Include/arm_math.h ****   void arm_mult_q7(
1793:Core/Inc/../../Drivers/CMSIS/DSP/Include/arm_math.h ****       q7_t *pSrcA,
1794:Core/Inc/../../Drivers/CMSIS/DSP/Include/arm_math.h ****       q7_t *pSrcB,
1795:Core/Inc/../../Drivers/CMSIS/DSP/Include/arm_math.h ****       q7_t *pDst,
1796:Core/Inc/../../Drivers/CMSIS/DSP/Include/arm_math.h ****       uint32_t blockSize);
1797:Core/Inc/../../Drivers/CMSIS/DSP/Include/arm_math.h **** 
1798:Core/Inc/../../Drivers/CMSIS/DSP/Include/arm_math.h ****   /**
ARM GAS  /var/folders/n6/c271nzx11xl4r4_m7sqjlt0m0000gn/T//ccGo3Vqh.s 			page 60


1799:Core/Inc/../../Drivers/CMSIS/DSP/Include/arm_math.h ****    * @brief Q15 vector multiplication.
1800:Core/Inc/../../Drivers/CMSIS/DSP/Include/arm_math.h ****    * @param[in]  pSrcA      points to the first input vector
1801:Core/Inc/../../Drivers/CMSIS/DSP/Include/arm_math.h ****    * @param[in]  pSrcB      points to the second input vector
1802:Core/Inc/../../Drivers/CMSIS/DSP/Include/arm_math.h ****    * @param[out] pDst       points to the output vector
1803:Core/Inc/../../Drivers/CMSIS/DSP/Include/arm_math.h ****    * @param[in]  blockSize  number of samples in each vector
1804:Core/Inc/../../Drivers/CMSIS/DSP/Include/arm_math.h ****    */
1805:Core/Inc/../../Drivers/CMSIS/DSP/Include/arm_math.h ****   void arm_mult_q15(
1806:Core/Inc/../../Drivers/CMSIS/DSP/Include/arm_math.h ****       q15_t *pSrcA,
1807:Core/Inc/../../Drivers/CMSIS/DSP/Include/arm_math.h ****       q15_t *pSrcB,
1808:Core/Inc/../../Drivers/CMSIS/DSP/Include/arm_math.h ****       q15_t *pDst,
1809:Core/Inc/../../Drivers/CMSIS/DSP/Include/arm_math.h ****       uint32_t blockSize);
1810:Core/Inc/../../Drivers/CMSIS/DSP/Include/arm_math.h **** 
1811:Core/Inc/../../Drivers/CMSIS/DSP/Include/arm_math.h ****   /**
1812:Core/Inc/../../Drivers/CMSIS/DSP/Include/arm_math.h ****    * @brief Q31 vector multiplication.
1813:Core/Inc/../../Drivers/CMSIS/DSP/Include/arm_math.h ****    * @param[in]  pSrcA      points to the first input vector
1814:Core/Inc/../../Drivers/CMSIS/DSP/Include/arm_math.h ****    * @param[in]  pSrcB      points to the second input vector
1815:Core/Inc/../../Drivers/CMSIS/DSP/Include/arm_math.h ****    * @param[out] pDst       points to the output vector
1816:Core/Inc/../../Drivers/CMSIS/DSP/Include/arm_math.h ****    * @param[in]  blockSize  number of samples in each vector
1817:Core/Inc/../../Drivers/CMSIS/DSP/Include/arm_math.h ****    */
1818:Core/Inc/../../Drivers/CMSIS/DSP/Include/arm_math.h ****   void arm_mult_q31(
1819:Core/Inc/../../Drivers/CMSIS/DSP/Include/arm_math.h ****       q31_t *pSrcA,
1820:Core/Inc/../../Drivers/CMSIS/DSP/Include/arm_math.h ****       q31_t *pSrcB,
1821:Core/Inc/../../Drivers/CMSIS/DSP/Include/arm_math.h ****       q31_t *pDst,
1822:Core/Inc/../../Drivers/CMSIS/DSP/Include/arm_math.h ****       uint32_t blockSize);
1823:Core/Inc/../../Drivers/CMSIS/DSP/Include/arm_math.h **** 
1824:Core/Inc/../../Drivers/CMSIS/DSP/Include/arm_math.h ****   /**
1825:Core/Inc/../../Drivers/CMSIS/DSP/Include/arm_math.h ****    * @brief Floating-point vector multiplication.
1826:Core/Inc/../../Drivers/CMSIS/DSP/Include/arm_math.h ****    * @param[in]  pSrcA      points to the first input vector
1827:Core/Inc/../../Drivers/CMSIS/DSP/Include/arm_math.h ****    * @param[in]  pSrcB      points to the second input vector
1828:Core/Inc/../../Drivers/CMSIS/DSP/Include/arm_math.h ****    * @param[out] pDst       points to the output vector
1829:Core/Inc/../../Drivers/CMSIS/DSP/Include/arm_math.h ****    * @param[in]  blockSize  number of samples in each vector
