ARM GAS  /var/folders/n6/c271nzx11xl4r4_m7sqjlt0m0000gn/T//ccGo3Vqh.s 			page 1


   1              		.cpu cortex-m7
   2              		.arch armv7e-m
   3              		.fpu fpv5-d16
   4              		.eabi_attribute 28, 1
   5              		.eabi_attribute 20, 1
   6              		.eabi_attribute 21, 1
   7              		.eabi_attribute 23, 3
   8              		.eabi_attribute 24, 1
   9              		.eabi_attribute 25, 1
  10              		.eabi_attribute 26, 1
  11              		.eabi_attribute 30, 1
  12              		.eabi_attribute 34, 1
  13              		.eabi_attribute 18, 4
  14              		.file	"filtrage.c"
  15              		.text
  16              	.Ltext0:
  17              		.cfi_sections	.debug_frame
  18              		.file 1 "Core/Src/filtrage.c"
  19              		.section	.text.StereoToMono,"ax",%progbits
  20              		.align	1
  21              		.global	StereoToMono
  22              		.syntax unified
  23              		.thumb
  24              		.thumb_func
  26              	StereoToMono:
  27              	.LVL0:
  28              	.LFB177:
   1:Core/Src/filtrage.c **** 
   2:Core/Src/filtrage.c **** #include "filtrage.h"
   3:Core/Src/filtrage.c **** #include "hammingWindow.h"
   4:Core/Src/filtrage.c **** #include "hanningWindow.h"
   5:Core/Src/filtrage.c **** #include "mel_filters.h"
   6:Core/Src/filtrage.c **** #include "fatfs.h"
   7:Core/Src/filtrage.c **** 
   8:Core/Src/filtrage.c **** DMA_HandleTypeDef hdma_memtomem_dma2_stream2;
   9:Core/Src/filtrage.c **** 
  10:Core/Src/filtrage.c **** arm_rfft_fast_instance_f32 FFT_struct;
  11:Core/Src/filtrage.c **** int32_t cReadIndex = FILTRAGE_SIZE;
  12:Core/Src/filtrage.c **** 
  13:Core/Src/filtrage.c **** int16_t distIndex = 0;
  14:Core/Src/filtrage.c **** int16_t rawPCMdata[FILTRAGE_SIZE];
  15:Core/Src/filtrage.c **** int16_t sd_wav_cache[(FILTRAGE_SIZE * 31 / 2 + FILTRAGE_SIZE) * 2];
  16:Core/Src/filtrage.c **** float32_t tmp_buf_1[FILTRAGE_SIZE];
  17:Core/Src/filtrage.c **** float32_t tmp_buf_2[FILTRAGE_SIZE];
  18:Core/Src/filtrage.c **** 
  19:Core/Src/filtrage.c **** uint8_t buffer_run = BUFFER_HALF_FIRST;
  20:Core/Src/filtrage.c **** uint8_t mel_indice = 0;
  21:Core/Src/filtrage.c **** uint32_t wav_indice = 0;
  22:Core/Src/filtrage.c **** 
  23:Core/Src/filtrage.c **** uint8_t StereoToMono(int16_t *pOut, int16_t *pIn, uint32_t size)
  24:Core/Src/filtrage.c **** {
  29              		.loc 1 24 1 view -0
  30              		.cfi_startproc
  31              		@ args = 0, pretend = 0, frame = 0
  32              		@ frame_needed = 0, uses_anonymous_args = 0
  25:Core/Src/filtrage.c ****     uint32_t i = 0;
  33              		.loc 1 25 5 view .LVU1
ARM GAS  /var/folders/n6/c271nzx11xl4r4_m7sqjlt0m0000gn/T//ccGo3Vqh.s 			page 2


  26:Core/Src/filtrage.c **** 
  27:Core/Src/filtrage.c ****     if (pIn == NULL || pOut == NULL || size == 0)
  34              		.loc 1 27 5 view .LVU2
  35              		.loc 1 27 8 is_stmt 0 view .LVU3
  36 0000 0028     		cmp	r0, #0
  37 0002 18BF     		it	ne
  38 0004 0029     		cmpne	r1, #0
  39 0006 11D0     		beq	.L5
  24:Core/Src/filtrage.c ****     uint32_t i = 0;
  40              		.loc 1 24 1 view .LVU4
  41 0008 00B5     		push	{lr}
  42              		.cfi_def_cfa_offset 4
  43              		.cfi_offset 14, -4
  44 000a 8E46     		mov	lr, r1
  45 000c 8446     		mov	ip, r0
  46              		.loc 1 27 37 discriminator 1 view .LVU5
  47 000e 7AB1     		cbz	r2, .L6
  28:Core/Src/filtrage.c ****     {
  29:Core/Src/filtrage.c ****         return STEREO_TO_MONO_ERROR;
  30:Core/Src/filtrage.c ****     }
  31:Core/Src/filtrage.c **** 
  32:Core/Src/filtrage.c ****     for (i = 0; i < size; i += 2)
  48              		.loc 1 32 12 view .LVU6
  49 0010 0023     		movs	r3, #0
  50 0012 06E0     		b	.L3
  51              	.LVL1:
  52              	.L4:
  33:Core/Src/filtrage.c ****     {
  34:Core/Src/filtrage.c ****         pOut[i / 2] = pIn[i];
  53              		.loc 1 34 9 is_stmt 1 view .LVU7
  54              		.loc 1 34 13 is_stmt 0 view .LVU8
  55 0014 23F00101 		bic	r1, r3, #1
  56              		.loc 1 34 26 view .LVU9
  57 0018 3EF91300 		ldrsh	r0, [lr, r3, lsl #1]
  58              		.loc 1 34 21 view .LVU10
  59 001c 2CF80100 		strh	r0, [ip, r1]	@ movhi
  32:Core/Src/filtrage.c ****     {
  60              		.loc 1 32 29 is_stmt 1 discriminator 3 view .LVU11
  61 0020 0233     		adds	r3, r3, #2
  62              	.LVL2:
  63              	.L3:
  32:Core/Src/filtrage.c ****     {
  64              		.loc 1 32 19 discriminator 1 view .LVU12
  65 0022 9342     		cmp	r3, r2
  66 0024 F6D3     		bcc	.L4
  35:Core/Src/filtrage.c ****     }
  36:Core/Src/filtrage.c **** 
  37:Core/Src/filtrage.c ****     return STEREO_TO_MONO_OK;
  67              		.loc 1 37 12 is_stmt 0 view .LVU13
  68 0026 0120     		movs	r0, #1
  69              	.LVL3:
  70              	.L2:
  38:Core/Src/filtrage.c **** }
  71              		.loc 1 38 1 view .LVU14
  72 0028 5DF804FB 		ldr	pc, [sp], #4
  73              	.LVL4:
  74              	.L5:
ARM GAS  /var/folders/n6/c271nzx11xl4r4_m7sqjlt0m0000gn/T//ccGo3Vqh.s 			page 3


  75              		.cfi_def_cfa_offset 0
  76              		.cfi_restore 14
  29:Core/Src/filtrage.c ****     }
  77              		.loc 1 29 16 view .LVU15
  78 002c 0020     		movs	r0, #0
  79              	.LVL5:
  80              		.loc 1 38 1 view .LVU16
  81 002e 7047     		bx	lr
  82              	.LVL6:
  83              	.L6:
  84              		.cfi_def_cfa_offset 4
  85              		.cfi_offset 14, -4
  29:Core/Src/filtrage.c ****     }
  86              		.loc 1 29 16 view .LVU17
  87 0030 0020     		movs	r0, #0
  88              	.LVL7:
  29:Core/Src/filtrage.c ****     }
  89              		.loc 1 29 16 view .LVU18
  90 0032 F9E7     		b	.L2
  91              		.cfi_endproc
  92              	.LFE177:
  94              		.section	.text.Hamming_window,"ax",%progbits
  95              		.align	1
  96              		.global	Hamming_window
  97              		.syntax unified
  98              		.thumb
  99              		.thumb_func
 101              	Hamming_window:
 102              	.LVL8:
 103              	.LFB178:
  39:Core/Src/filtrage.c **** 
  40:Core/Src/filtrage.c **** uint8_t Hamming_window(float32_t *pOut, int16_t *pIn, uint32_t size, uint8_t signal_input_type)
  41:Core/Src/filtrage.c **** {
 104              		.loc 1 41 1 is_stmt 1 view -0
 105              		.cfi_startproc
 106              		@ args = 0, pretend = 0, frame = 0
 107              		@ frame_needed = 1, uses_anonymous_args = 0
  42:Core/Src/filtrage.c **** 
  43:Core/Src/filtrage.c ****     if (pIn == NULL || pOut == NULL)
 108              		.loc 1 43 5 view .LVU20
 109              		.loc 1 43 8 is_stmt 0 view .LVU21
 110 0000 0028     		cmp	r0, #0
 111 0002 18BF     		it	ne
 112 0004 0029     		cmpne	r1, #0
 113 0006 2FD0     		beq	.L16
  41:Core/Src/filtrage.c **** 
 114              		.loc 1 41 1 view .LVU22
 115 0008 2DE9F041 		push	{r4, r5, r6, r7, r8, lr}
 116              		.cfi_def_cfa_offset 24
 117              		.cfi_offset 4, -24
 118              		.cfi_offset 5, -20
 119              		.cfi_offset 6, -16
 120              		.cfi_offset 7, -12
 121              		.cfi_offset 8, -8
 122              		.cfi_offset 14, -4
 123 000c 00AF     		add	r7, sp, #0
 124              		.cfi_def_cfa_register 7
ARM GAS  /var/folders/n6/c271nzx11xl4r4_m7sqjlt0m0000gn/T//ccGo3Vqh.s 			page 4


 125 000e 1446     		mov	r4, r2
 126 0010 8C46     		mov	ip, r1
 127 0012 0546     		mov	r5, r0
  44:Core/Src/filtrage.c ****     {
  45:Core/Src/filtrage.c ****         return HAMMING_FILTER_ERROR;
  46:Core/Src/filtrage.c ****     }
  47:Core/Src/filtrage.c ****     int16_t *pIn_tmp = pIn;
 128              		.loc 1 47 5 is_stmt 1 view .LVU23
 129              	.LVL9:
  48:Core/Src/filtrage.c **** 
  49:Core/Src/filtrage.c ****     if (signal_input_type == STEREO)
 130              		.loc 1 49 5 view .LVU24
 131              		.loc 1 49 8 is_stmt 0 view .LVU25
 132 0014 012B     		cmp	r3, #1
 133 0016 01D0     		beq	.L21
 134              	.LVL10:
 135              	.L13:
  50:Core/Src/filtrage.c ****     {
  51:Core/Src/filtrage.c ****         int16_t tmpSteroBff[size];
  52:Core/Src/filtrage.c ****         StereoToMono(tmpSteroBff, pIn, size * 2);
  53:Core/Src/filtrage.c ****         pIn_tmp = tmpSteroBff;
  54:Core/Src/filtrage.c ****     }
  55:Core/Src/filtrage.c ****     for (uint32_t i = 0; i < size; i++)
 136              		.loc 1 55 5 is_stmt 1 view .LVU26
 137              	.LBB10:
 138              		.loc 1 55 10 view .LVU27
 139              		.loc 1 55 19 is_stmt 0 view .LVU28
 140 0018 0023     		movs	r3, #0
 141              		.loc 1 55 5 view .LVU29
 142 001a 1FE0     		b	.L14
 143              	.LVL11:
 144              	.L21:
 145              		.loc 1 55 5 view .LVU30
 146              	.LBE10:
 147              	.LBB11:
  50:Core/Src/filtrage.c ****     {
 148              		.loc 1 50 5 view .LVU31
 149 001c E846     		mov	r8, sp
  51:Core/Src/filtrage.c ****         StereoToMono(tmpSteroBff, pIn, size * 2);
 150              		.loc 1 51 9 is_stmt 1 view .LVU32
 151              	.LVL12:
  51:Core/Src/filtrage.c ****         StereoToMono(tmpSteroBff, pIn, size * 2);
 152              		.loc 1 51 17 is_stmt 0 view .LVU33
 153 001e 5200     		lsls	r2, r2, #1
 154              	.LVL13:
  51:Core/Src/filtrage.c ****         StereoToMono(tmpSteroBff, pIn, size * 2);
 155              		.loc 1 51 17 view .LVU34
 156 0020 D31D     		adds	r3, r2, #7
 157              	.LVL14:
  51:Core/Src/filtrage.c ****         StereoToMono(tmpSteroBff, pIn, size * 2);
 158              		.loc 1 51 17 view .LVU35
 159 0022 23F00703 		bic	r3, r3, #7
 160 0026 ADEB030D 		sub	sp, sp, r3
 161 002a 6E46     		mov	r6, sp
 162              	.LVL15:
  52:Core/Src/filtrage.c ****         pIn_tmp = tmpSteroBff;
 163              		.loc 1 52 9 is_stmt 1 view .LVU36
ARM GAS  /var/folders/n6/c271nzx11xl4r4_m7sqjlt0m0000gn/T//ccGo3Vqh.s 			page 5


 164 002c 3046     		mov	r0, r6
 165              	.LVL16:
  52:Core/Src/filtrage.c ****         pIn_tmp = tmpSteroBff;
 166              		.loc 1 52 9 is_stmt 0 view .LVU37
 167 002e FFF7FEFF 		bl	StereoToMono
 168              	.LVL17:
  53:Core/Src/filtrage.c ****     }
 169              		.loc 1 53 9 is_stmt 1 view .LVU38
  53:Core/Src/filtrage.c ****     }
 170              		.loc 1 53 9 is_stmt 0 view .LVU39
 171 0032 C546     		mov	sp, r8
  53:Core/Src/filtrage.c ****     }
 172              		.loc 1 53 17 view .LVU40
 173 0034 B446     		mov	ip, r6
 174 0036 EFE7     		b	.L13
 175              	.LVL18:
 176              	.L15:
  53:Core/Src/filtrage.c ****     }
 177              		.loc 1 53 17 view .LVU41
 178              	.LBE11:
 179              	.LBB12:
  56:Core/Src/filtrage.c ****     {
  57:Core/Src/filtrage.c ****         pOut[i] = (hammingWindow[i] * (float)pIn_tmp[i]);
 180              		.loc 1 57 9 is_stmt 1 view .LVU42
 181              		.loc 1 57 33 is_stmt 0 view .LVU43
 182 0038 0C48     		ldr	r0, .L22
 183 003a 00EB8300 		add	r0, r0, r3, lsl #2
 184 003e D0ED007A 		vldr.32	s15, [r0]
 185              		.loc 1 57 53 view .LVU44
 186 0042 3CF91320 		ldrsh	r2, [ip, r3, lsl #1]
 187 0046 07EE102A 		vmov	s14, r2	@ int
 188              		.loc 1 57 39 view .LVU45
 189 004a B8EEC77A 		vcvt.f32.s32	s14, s14
 190              		.loc 1 57 13 view .LVU46
 191 004e 05EB8300 		add	r0, r5, r3, lsl #2
 192              		.loc 1 57 37 view .LVU47
 193 0052 67EE877A 		vmul.f32	s15, s15, s14
 194              		.loc 1 57 17 view .LVU48
 195 0056 C0ED007A 		vstr.32	s15, [r0]
  55:Core/Src/filtrage.c ****     {
 196              		.loc 1 55 37 is_stmt 1 discriminator 3 view .LVU49
 197 005a 0133     		adds	r3, r3, #1
 198              	.LVL19:
 199              	.L14:
  55:Core/Src/filtrage.c ****     {
 200              		.loc 1 55 28 discriminator 1 view .LVU50
 201 005c A342     		cmp	r3, r4
 202 005e EBD3     		bcc	.L15
 203              	.LBE12:
  58:Core/Src/filtrage.c ****     }
  59:Core/Src/filtrage.c ****     return HAMMING_FILTER_OK;
 204              		.loc 1 59 12 is_stmt 0 view .LVU51
 205 0060 0120     		movs	r0, #1
  60:Core/Src/filtrage.c **** }
 206              		.loc 1 60 1 view .LVU52
 207 0062 BD46     		mov	sp, r7
 208              		.cfi_def_cfa_register 13
ARM GAS  /var/folders/n6/c271nzx11xl4r4_m7sqjlt0m0000gn/T//ccGo3Vqh.s 			page 6


 209              		@ sp needed
 210 0064 BDE8F081 		pop	{r4, r5, r6, r7, r8, pc}
 211              	.LVL20:
 212              	.L16:
 213              		.cfi_def_cfa_offset 0
 214              		.cfi_restore 4
 215              		.cfi_restore 5
 216              		.cfi_restore 6
 217              		.cfi_restore 7
 218              		.cfi_restore 8
 219              		.cfi_restore 14
  45:Core/Src/filtrage.c ****     }
 220              		.loc 1 45 16 view .LVU53
 221 0068 0020     		movs	r0, #0
 222              	.LVL21:
 223              		.loc 1 60 1 view .LVU54
 224 006a 7047     		bx	lr
 225              	.L23:
 226              		.align	2
 227              	.L22:
 228 006c 00000000 		.word	hammingWindow
 229              		.cfi_endproc
 230              	.LFE178:
 232              		.section	.text.Hanning_window,"ax",%progbits
 233              		.align	1
 234              		.global	Hanning_window
 235              		.syntax unified
 236              		.thumb
 237              		.thumb_func
 239              	Hanning_window:
 240              	.LVL22:
 241              	.LFB179:
  61:Core/Src/filtrage.c **** 
  62:Core/Src/filtrage.c **** uint8_t Hanning_window(float32_t *pOut, int16_t *pIn, uint32_t size, uint8_t signal_input_type)
  63:Core/Src/filtrage.c **** {
 242              		.loc 1 63 1 is_stmt 1 view -0
 243              		.cfi_startproc
 244              		@ args = 0, pretend = 0, frame = 0
 245              		@ frame_needed = 1, uses_anonymous_args = 0
  64:Core/Src/filtrage.c **** 
  65:Core/Src/filtrage.c ****     if (pIn == NULL || pOut == NULL)
 246              		.loc 1 65 5 view .LVU56
 247              		.loc 1 65 8 is_stmt 0 view .LVU57
 248 0000 0028     		cmp	r0, #0
 249 0002 18BF     		it	ne
 250 0004 0029     		cmpne	r1, #0
 251 0006 2FD0     		beq	.L29
  63:Core/Src/filtrage.c **** 
 252              		.loc 1 63 1 view .LVU58
 253 0008 2DE9F041 		push	{r4, r5, r6, r7, r8, lr}
 254              		.cfi_def_cfa_offset 24
 255              		.cfi_offset 4, -24
 256              		.cfi_offset 5, -20
 257              		.cfi_offset 6, -16
 258              		.cfi_offset 7, -12
 259              		.cfi_offset 8, -8
 260              		.cfi_offset 14, -4
ARM GAS  /var/folders/n6/c271nzx11xl4r4_m7sqjlt0m0000gn/T//ccGo3Vqh.s 			page 7


 261 000c 00AF     		add	r7, sp, #0
 262              		.cfi_def_cfa_register 7
 263 000e 1446     		mov	r4, r2
 264 0010 8C46     		mov	ip, r1
 265 0012 0546     		mov	r5, r0
  66:Core/Src/filtrage.c ****     {
  67:Core/Src/filtrage.c ****         return HANNING_FILTER_ERROR;
  68:Core/Src/filtrage.c ****     }
  69:Core/Src/filtrage.c ****     int16_t *pIn_tmp = pIn;
 266              		.loc 1 69 5 is_stmt 1 view .LVU59
 267              	.LVL23:
  70:Core/Src/filtrage.c **** 
  71:Core/Src/filtrage.c ****     if (signal_input_type == STEREO)
 268              		.loc 1 71 5 view .LVU60
 269              		.loc 1 71 8 is_stmt 0 view .LVU61
 270 0014 012B     		cmp	r3, #1
 271 0016 01D0     		beq	.L34
 272              	.LVL24:
 273              	.L26:
  72:Core/Src/filtrage.c ****     {
  73:Core/Src/filtrage.c ****         int16_t tmpSteroBff[size];
  74:Core/Src/filtrage.c ****         StereoToMono(tmpSteroBff, pIn, size * 2);
  75:Core/Src/filtrage.c ****         pIn_tmp = tmpSteroBff;
  76:Core/Src/filtrage.c ****     }
  77:Core/Src/filtrage.c ****     for (uint32_t i = 0; i < size; i++)
 274              		.loc 1 77 5 is_stmt 1 view .LVU62
 275              	.LBB13:
 276              		.loc 1 77 10 view .LVU63
 277              		.loc 1 77 19 is_stmt 0 view .LVU64
 278 0018 0023     		movs	r3, #0
 279              		.loc 1 77 5 view .LVU65
 280 001a 1FE0     		b	.L27
 281              	.LVL25:
 282              	.L34:
 283              		.loc 1 77 5 view .LVU66
 284              	.LBE13:
 285              	.LBB14:
  72:Core/Src/filtrage.c ****     {
 286              		.loc 1 72 5 view .LVU67
 287 001c E846     		mov	r8, sp
  73:Core/Src/filtrage.c ****         StereoToMono(tmpSteroBff, pIn, size * 2);
 288              		.loc 1 73 9 is_stmt 1 view .LVU68
 289              	.LVL26:
  73:Core/Src/filtrage.c ****         StereoToMono(tmpSteroBff, pIn, size * 2);
 290              		.loc 1 73 17 is_stmt 0 view .LVU69
 291 001e 5200     		lsls	r2, r2, #1
 292              	.LVL27:
  73:Core/Src/filtrage.c ****         StereoToMono(tmpSteroBff, pIn, size * 2);
 293              		.loc 1 73 17 view .LVU70
 294 0020 D31D     		adds	r3, r2, #7
 295              	.LVL28:
  73:Core/Src/filtrage.c ****         StereoToMono(tmpSteroBff, pIn, size * 2);
 296              		.loc 1 73 17 view .LVU71
 297 0022 23F00703 		bic	r3, r3, #7
 298 0026 ADEB030D 		sub	sp, sp, r3
 299 002a 6E46     		mov	r6, sp
 300              	.LVL29:
ARM GAS  /var/folders/n6/c271nzx11xl4r4_m7sqjlt0m0000gn/T//ccGo3Vqh.s 			page 8


  74:Core/Src/filtrage.c ****         pIn_tmp = tmpSteroBff;
 301              		.loc 1 74 9 is_stmt 1 view .LVU72
 302 002c 3046     		mov	r0, r6
 303              	.LVL30:
  74:Core/Src/filtrage.c ****         pIn_tmp = tmpSteroBff;
 304              		.loc 1 74 9 is_stmt 0 view .LVU73
 305 002e FFF7FEFF 		bl	StereoToMono
 306              	.LVL31:
  75:Core/Src/filtrage.c ****     }
 307              		.loc 1 75 9 is_stmt 1 view .LVU74
  75:Core/Src/filtrage.c ****     }
 308              		.loc 1 75 9 is_stmt 0 view .LVU75
 309 0032 C546     		mov	sp, r8
  75:Core/Src/filtrage.c ****     }
 310              		.loc 1 75 17 view .LVU76
 311 0034 B446     		mov	ip, r6
 312 0036 EFE7     		b	.L26
 313              	.LVL32:
 314              	.L28:
  75:Core/Src/filtrage.c ****     }
 315              		.loc 1 75 17 view .LVU77
 316              	.LBE14:
 317              	.LBB15:
  78:Core/Src/filtrage.c ****     {
  79:Core/Src/filtrage.c ****         pOut[i] = (hanningWindow[i] * (float)pIn_tmp[i]);
 318              		.loc 1 79 9 is_stmt 1 view .LVU78
 319              		.loc 1 79 33 is_stmt 0 view .LVU79
 320 0038 0C48     		ldr	r0, .L35
 321 003a 00EB8300 		add	r0, r0, r3, lsl #2
 322 003e D0ED007A 		vldr.32	s15, [r0]
 323              		.loc 1 79 53 view .LVU80
 324 0042 3CF91320 		ldrsh	r2, [ip, r3, lsl #1]
 325 0046 07EE102A 		vmov	s14, r2	@ int
 326              		.loc 1 79 39 view .LVU81
 327 004a B8EEC77A 		vcvt.f32.s32	s14, s14
 328              		.loc 1 79 13 view .LVU82
 329 004e 05EB8300 		add	r0, r5, r3, lsl #2
 330              		.loc 1 79 37 view .LVU83
 331 0052 67EE877A 		vmul.f32	s15, s15, s14
 332              		.loc 1 79 17 view .LVU84
 333 0056 C0ED007A 		vstr.32	s15, [r0]
  77:Core/Src/filtrage.c ****     {
 334              		.loc 1 77 37 is_stmt 1 discriminator 3 view .LVU85
 335 005a 0133     		adds	r3, r3, #1
 336              	.LVL33:
 337              	.L27:
  77:Core/Src/filtrage.c ****     {
 338              		.loc 1 77 28 discriminator 1 view .LVU86
 339 005c A342     		cmp	r3, r4
 340 005e EBD3     		bcc	.L28
 341              	.LBE15:
  80:Core/Src/filtrage.c ****     }
  81:Core/Src/filtrage.c ****     return HANNING_FILTER_OK;
 342              		.loc 1 81 12 is_stmt 0 view .LVU87
 343 0060 0120     		movs	r0, #1
  82:Core/Src/filtrage.c **** }
 344              		.loc 1 82 1 view .LVU88
ARM GAS  /var/folders/n6/c271nzx11xl4r4_m7sqjlt0m0000gn/T//ccGo3Vqh.s 			page 9


 345 0062 BD46     		mov	sp, r7
 346              		.cfi_def_cfa_register 13
 347              		@ sp needed
 348 0064 BDE8F081 		pop	{r4, r5, r6, r7, r8, pc}
 349              	.LVL34:
 350              	.L29:
 351              		.cfi_def_cfa_offset 0
 352              		.cfi_restore 4
 353              		.cfi_restore 5
 354              		.cfi_restore 6
 355              		.cfi_restore 7
 356              		.cfi_restore 8
 357              		.cfi_restore 14
  67:Core/Src/filtrage.c ****     }
 358              		.loc 1 67 16 view .LVU89
 359 0068 0020     		movs	r0, #0
 360              	.LVL35:
 361              		.loc 1 82 1 view .LVU90
 362 006a 7047     		bx	lr
 363              	.L36:
 364              		.align	2
 365              	.L35:
 366 006c 00000000 		.word	hanningWindow
 367              		.cfi_endproc
 368              	.LFE179:
 370              		.section	.text.FFT_init,"ax",%progbits
 371              		.align	1
 372              		.global	FFT_init
 373              		.syntax unified
 374              		.thumb
 375              		.thumb_func
 377              	FFT_init:
 378              	.LVL36:
 379              	.LFB180:
  83:Core/Src/filtrage.c **** 
  84:Core/Src/filtrage.c **** uint8_t FFT_init(uint32_t size)
  85:Core/Src/filtrage.c **** {
 380              		.loc 1 85 1 is_stmt 1 view -0
 381              		.cfi_startproc
 382              		@ args = 0, pretend = 0, frame = 0
 383              		@ frame_needed = 0, uses_anonymous_args = 0
 384              		.loc 1 85 1 is_stmt 0 view .LVU92
 385 0000 08B5     		push	{r3, lr}
 386              		.cfi_def_cfa_offset 8
 387              		.cfi_offset 3, -8
 388              		.cfi_offset 14, -4
  86:Core/Src/filtrage.c ****     if (arm_rfft_fast_init_f32(&FFT_struct, size) != ARM_MATH_SUCCESS)
 389              		.loc 1 86 5 is_stmt 1 view .LVU93
 390              		.loc 1 86 9 is_stmt 0 view .LVU94
 391 0002 81B2     		uxth	r1, r0
 392 0004 0548     		ldr	r0, .L42
 393              	.LVL37:
 394              		.loc 1 86 9 view .LVU95
 395 0006 FFF7FEFF 		bl	arm_rfft_fast_init_f32
 396              	.LVL38:
 397              		.loc 1 86 8 discriminator 1 view .LVU96
 398 000a 08B1     		cbz	r0, .L41
ARM GAS  /var/folders/n6/c271nzx11xl4r4_m7sqjlt0m0000gn/T//ccGo3Vqh.s 			page 10


  87:Core/Src/filtrage.c ****     {
  88:Core/Src/filtrage.c ****         return FILTER_CALCULATION_ERROR;
 399              		.loc 1 88 16 view .LVU97
 400 000c 0020     		movs	r0, #0
 401              	.L38:
  89:Core/Src/filtrage.c ****     }
  90:Core/Src/filtrage.c ****     OpenWavFile(MONO_WAV);
  91:Core/Src/filtrage.c ****     return FILTER_CALCULATION_OK;
  92:Core/Src/filtrage.c **** }
 402              		.loc 1 92 1 view .LVU98
 403 000e 08BD     		pop	{r3, pc}
 404              	.L41:
  90:Core/Src/filtrage.c ****     return FILTER_CALCULATION_OK;
 405              		.loc 1 90 5 is_stmt 1 view .LVU99
 406 0010 0120     		movs	r0, #1
 407 0012 FFF7FEFF 		bl	OpenWavFile
 408              	.LVL39:
  91:Core/Src/filtrage.c **** }
 409              		.loc 1 91 5 view .LVU100
  91:Core/Src/filtrage.c **** }
 410              		.loc 1 91 12 is_stmt 0 view .LVU101
 411 0016 0120     		movs	r0, #1
 412 0018 F9E7     		b	.L38
 413              	.L43:
 414 001a 00BF     		.align	2
 415              	.L42:
 416 001c 00000000 		.word	FFT_struct
 417              		.cfi_endproc
 418              	.LFE180:
 420              		.section	.text.FFT_Calculation,"ax",%progbits
 421              		.align	1
 422              		.global	FFT_Calculation
 423              		.syntax unified
 424              		.thumb
 425              		.thumb_func
 427              	FFT_Calculation:
 428              	.LVL40:
 429              	.LFB181:
  93:Core/Src/filtrage.c **** 
  94:Core/Src/filtrage.c **** uint8_t FFT_Calculation(float32_t *pOut, float32_t *pIn)
  95:Core/Src/filtrage.c **** {
 430              		.loc 1 95 1 is_stmt 1 view -0
 431              		.cfi_startproc
 432              		@ args = 0, pretend = 0, frame = 0
 433              		@ frame_needed = 0, uses_anonymous_args = 0
  96:Core/Src/filtrage.c ****     if (pIn == NULL || pOut == NULL)
 434              		.loc 1 96 5 view .LVU103
 435              		.loc 1 96 8 is_stmt 0 view .LVU104
 436 0000 0028     		cmp	r0, #0
 437 0002 18BF     		it	ne
 438 0004 0029     		cmpne	r1, #0
 439 0006 01D1     		bne	.L51
  97:Core/Src/filtrage.c ****     {
  98:Core/Src/filtrage.c ****         return FILTER_CALCULATION_ERROR;
 440              		.loc 1 98 16 view .LVU105
 441 0008 0020     		movs	r0, #0
 442              	.LVL41:
ARM GAS  /var/folders/n6/c271nzx11xl4r4_m7sqjlt0m0000gn/T//ccGo3Vqh.s 			page 11


  99:Core/Src/filtrage.c ****     }
 100:Core/Src/filtrage.c **** 
 101:Core/Src/filtrage.c ****     arm_rfft_fast_f32(&FFT_struct, pIn, pOut, 0);
 102:Core/Src/filtrage.c **** 
 103:Core/Src/filtrage.c ****     return FILTER_CALCULATION_OK;
 104:Core/Src/filtrage.c **** }
 443              		.loc 1 104 1 view .LVU106
 444 000a 7047     		bx	lr
 445              	.LVL42:
 446              	.L51:
  95:Core/Src/filtrage.c ****     if (pIn == NULL || pOut == NULL)
 447              		.loc 1 95 1 view .LVU107
 448 000c 08B5     		push	{r3, lr}
 449              		.cfi_def_cfa_offset 8
 450              		.cfi_offset 3, -8
 451              		.cfi_offset 14, -4
 452 000e 0246     		mov	r2, r0
 101:Core/Src/filtrage.c **** 
 453              		.loc 1 101 5 is_stmt 1 view .LVU108
 454 0010 0023     		movs	r3, #0
 455 0012 0248     		ldr	r0, .L52
 456              	.LVL43:
 101:Core/Src/filtrage.c **** 
 457              		.loc 1 101 5 is_stmt 0 view .LVU109
 458 0014 FFF7FEFF 		bl	arm_rfft_fast_f32
 459              	.LVL44:
 103:Core/Src/filtrage.c **** }
 460              		.loc 1 103 5 is_stmt 1 view .LVU110
 103:Core/Src/filtrage.c **** }
 461              		.loc 1 103 12 is_stmt 0 view .LVU111
 462 0018 0120     		movs	r0, #1
 463              		.loc 1 104 1 view .LVU112
 464 001a 08BD     		pop	{r3, pc}
 465              	.L53:
 466              		.align	2
 467              	.L52:
 468 001c 00000000 		.word	FFT_struct
 469              		.cfi_endproc
 470              	.LFE181:
 472              		.section	.text.DSE_Calculation,"ax",%progbits
 473              		.align	1
 474              		.global	DSE_Calculation
 475              		.syntax unified
 476              		.thumb
 477              		.thumb_func
 479              	DSE_Calculation:
 480              	.LVL45:
 481              	.LFB182:
 105:Core/Src/filtrage.c **** 
 106:Core/Src/filtrage.c **** uint8_t DSE_Calculation(float32_t *pOut, float32_t *pIn)
 107:Core/Src/filtrage.c **** {
 482              		.loc 1 107 1 is_stmt 1 view -0
 483              		.cfi_startproc
 484              		@ args = 0, pretend = 0, frame = 0
 485              		@ frame_needed = 0, uses_anonymous_args = 0
 108:Core/Src/filtrage.c ****     if (pIn == NULL || pOut == NULL)
 486              		.loc 1 108 5 view .LVU114
ARM GAS  /var/folders/n6/c271nzx11xl4r4_m7sqjlt0m0000gn/T//ccGo3Vqh.s 			page 12


 487              		.loc 1 108 8 is_stmt 0 view .LVU115
 488 0000 0028     		cmp	r0, #0
 489 0002 18BF     		it	ne
 490 0004 0029     		cmpne	r1, #0
 491 0006 01D1     		bne	.L61
 109:Core/Src/filtrage.c ****     {
 110:Core/Src/filtrage.c ****         return FILTER_CALCULATION_ERROR;
 492              		.loc 1 110 16 view .LVU116
 493 0008 0020     		movs	r0, #0
 494              	.LVL46:
 111:Core/Src/filtrage.c ****     }
 112:Core/Src/filtrage.c ****     uint32_t size = FFT_struct.fftLenRFFT / 2;
 113:Core/Src/filtrage.c **** 
 114:Core/Src/filtrage.c ****     // Calculer le module au carré des coefficients de la FFT
 115:Core/Src/filtrage.c ****     arm_cmplx_mag_squared_f32(pIn + 2, pOut + 1, size - 1);
 116:Core/Src/filtrage.c **** 
 117:Core/Src/filtrage.c ****     // Traiter les deux premières valeurs spéciales
 118:Core/Src/filtrage.c ****     pOut[0] = pIn[0] * pIn[0];    // Coefficient DC
 119:Core/Src/filtrage.c ****     pOut[size] = pIn[1] * pIn[1]; // Coefficient de la fréquence de Nyquist
 120:Core/Src/filtrage.c **** 
 121:Core/Src/filtrage.c ****     return FILTER_CALCULATION_OK;
 122:Core/Src/filtrage.c **** }
 495              		.loc 1 122 1 view .LVU117
 496 000a 7047     		bx	lr
 497              	.LVL47:
 498              	.L61:
 107:Core/Src/filtrage.c ****     if (pIn == NULL || pOut == NULL)
 499              		.loc 1 107 1 view .LVU118
 500 000c 70B5     		push	{r4, r5, r6, lr}
 501              		.cfi_def_cfa_offset 16
 502              		.cfi_offset 4, -16
 503              		.cfi_offset 5, -12
 504              		.cfi_offset 6, -8
 505              		.cfi_offset 14, -4
 506 000e 0D46     		mov	r5, r1
 507 0010 0446     		mov	r4, r0
 112:Core/Src/filtrage.c **** 
 508              		.loc 1 112 5 is_stmt 1 view .LVU119
 112:Core/Src/filtrage.c **** 
 509              		.loc 1 112 31 is_stmt 0 view .LVU120
 510 0012 0C4B     		ldr	r3, .L62
 511 0014 1E8A     		ldrh	r6, [r3, #16]
 112:Core/Src/filtrage.c **** 
 512              		.loc 1 112 43 view .LVU121
 513 0016 7608     		lsrs	r6, r6, #1
 514              	.LVL48:
 115:Core/Src/filtrage.c **** 
 515              		.loc 1 115 5 is_stmt 1 view .LVU122
 516 0018 721E     		subs	r2, r6, #1
 517 001a 011D     		adds	r1, r0, #4
 518              	.LVL49:
 115:Core/Src/filtrage.c **** 
 519              		.loc 1 115 5 is_stmt 0 view .LVU123
 520 001c 05F10800 		add	r0, r5, #8
 521              	.LVL50:
 115:Core/Src/filtrage.c **** 
 522              		.loc 1 115 5 view .LVU124
ARM GAS  /var/folders/n6/c271nzx11xl4r4_m7sqjlt0m0000gn/T//ccGo3Vqh.s 			page 13


 523 0020 FFF7FEFF 		bl	arm_cmplx_mag_squared_f32
 524              	.LVL51:
 118:Core/Src/filtrage.c ****     pOut[size] = pIn[1] * pIn[1]; // Coefficient de la fréquence de Nyquist
 525              		.loc 1 118 5 is_stmt 1 view .LVU125
 118:Core/Src/filtrage.c ****     pOut[size] = pIn[1] * pIn[1]; // Coefficient de la fréquence de Nyquist
 526              		.loc 1 118 18 is_stmt 0 view .LVU126
 527 0024 D5ED007A 		vldr.32	s15, [r5]
 118:Core/Src/filtrage.c ****     pOut[size] = pIn[1] * pIn[1]; // Coefficient de la fréquence de Nyquist
 528              		.loc 1 118 22 view .LVU127
 529 0028 67EEA77A 		vmul.f32	s15, s15, s15
 118:Core/Src/filtrage.c ****     pOut[size] = pIn[1] * pIn[1]; // Coefficient de la fréquence de Nyquist
 530              		.loc 1 118 13 view .LVU128
 531 002c C4ED007A 		vstr.32	s15, [r4]
 119:Core/Src/filtrage.c **** 
 532              		.loc 1 119 5 is_stmt 1 view .LVU129
 119:Core/Src/filtrage.c **** 
 533              		.loc 1 119 21 is_stmt 0 view .LVU130
 534 0030 D5ED017A 		vldr.32	s15, [r5, #4]
 119:Core/Src/filtrage.c **** 
 535              		.loc 1 119 9 view .LVU131
 536 0034 04EB8604 		add	r4, r4, r6, lsl #2
 537              	.LVL52:
 119:Core/Src/filtrage.c **** 
 538              		.loc 1 119 25 view .LVU132
 539 0038 67EEA77A 		vmul.f32	s15, s15, s15
 119:Core/Src/filtrage.c **** 
 540              		.loc 1 119 16 view .LVU133
 541 003c C4ED007A 		vstr.32	s15, [r4]
 121:Core/Src/filtrage.c **** }
 542              		.loc 1 121 5 is_stmt 1 view .LVU134
 121:Core/Src/filtrage.c **** }
 543              		.loc 1 121 12 is_stmt 0 view .LVU135
 544 0040 0120     		movs	r0, #1
 545              		.loc 1 122 1 view .LVU136
 546 0042 70BD     		pop	{r4, r5, r6, pc}
 547              	.LVL53:
 548              	.L63:
 549              		.loc 1 122 1 view .LVU137
 550              		.align	2
 551              	.L62:
 552 0044 00000000 		.word	FFT_struct
 553              		.cfi_endproc
 554              	.LFE182:
 556              		.section	.text.MEL_Calculation,"ax",%progbits
 557              		.align	1
 558              		.global	MEL_Calculation
 559              		.syntax unified
 560              		.thumb
 561              		.thumb_func
 563              	MEL_Calculation:
 564              	.LVL54:
 565              	.LFB183:
 123:Core/Src/filtrage.c **** 
 124:Core/Src/filtrage.c **** uint8_t MEL_Calculation(float32_t *pOut, float32_t *pIn)
 125:Core/Src/filtrage.c **** {
 566              		.loc 1 125 1 is_stmt 1 view -0
 567              		.cfi_startproc
ARM GAS  /var/folders/n6/c271nzx11xl4r4_m7sqjlt0m0000gn/T//ccGo3Vqh.s 			page 14


 568              		@ args = 0, pretend = 0, frame = 0
 569              		@ frame_needed = 0, uses_anonymous_args = 0
 126:Core/Src/filtrage.c ****     if (pIn == NULL || pOut == NULL)
 570              		.loc 1 126 5 view .LVU139
 571              		.loc 1 126 8 is_stmt 0 view .LVU140
 572 0000 0028     		cmp	r0, #0
 573 0002 18BF     		it	ne
 574 0004 0029     		cmpne	r1, #0
 575 0006 35D0     		beq	.L70
 125:Core/Src/filtrage.c ****     if (pIn == NULL || pOut == NULL)
 576              		.loc 1 125 1 view .LVU141
 577 0008 2DE9F041 		push	{r4, r5, r6, r7, r8, lr}
 578              		.cfi_def_cfa_offset 24
 579              		.cfi_offset 4, -24
 580              		.cfi_offset 5, -20
 581              		.cfi_offset 6, -16
 582              		.cfi_offset 7, -12
 583              		.cfi_offset 8, -8
 584              		.cfi_offset 14, -4
 585 000c 0D46     		mov	r5, r1
 586 000e 0746     		mov	r7, r0
 587              	.LBB16:
 127:Core/Src/filtrage.c ****     {
 128:Core/Src/filtrage.c ****         return FILTER_CALCULATION_ERROR;
 129:Core/Src/filtrage.c ****     }
 130:Core/Src/filtrage.c **** 
 131:Core/Src/filtrage.c ****     int start_data = 0;
 132:Core/Src/filtrage.c ****     for (int i = 0; i < N_MELS; i++)
 588              		.loc 1 132 14 view .LVU142
 589 0010 0026     		movs	r6, #0
 590              	.LBE16:
 131:Core/Src/filtrage.c ****     for (int i = 0; i < N_MELS; i++)
 591              		.loc 1 131 9 view .LVU143
 592 0012 3346     		mov	r3, r6
 593 0014 20E0     		b	.L66
 594              	.LVL55:
 595              	.L68:
 596              	.LBB23:
 597              	.LBB17:
 598              	.LBB18:
 133:Core/Src/filtrage.c ****     {
 134:Core/Src/filtrage.c ****         float sum = 0.0;
 135:Core/Src/filtrage.c ****         int end_data = mel_filters_num_non_zero[i] + start_data;
 136:Core/Src/filtrage.c ****         int start_segment = mel_filters_zeros_before[i];
 137:Core/Src/filtrage.c ****         for (int j = start_data, x = start_segment; j < end_data; j++, x++)
 138:Core/Src/filtrage.c ****         {
 139:Core/Src/filtrage.c ****             sum += pIn[x] * mel_filters_non_zero_data[j];
 599              		.loc 1 139 13 is_stmt 1 view .LVU144
 600              		.loc 1 139 23 is_stmt 0 view .LVU145
 601 0016 05EB8102 		add	r2, r5, r1, lsl #2
 602 001a D2ED007A 		vldr.32	s15, [r2]
 603              		.loc 1 139 54 view .LVU146
 604 001e 184A     		ldr	r2, .L76+8
 605 0020 02EB8302 		add	r2, r2, r3, lsl #2
 606 0024 92ED007A 		vldr.32	s14, [r2]
 607              		.loc 1 139 27 view .LVU147
 608 0028 67EE877A 		vmul.f32	s15, s15, s14
ARM GAS  /var/folders/n6/c271nzx11xl4r4_m7sqjlt0m0000gn/T//ccGo3Vqh.s 			page 15


 609              		.loc 1 139 17 view .LVU148
 610 002c 30EE270A 		vadd.f32	s0, s0, s15
 611              	.LVL56:
 137:Core/Src/filtrage.c ****         {
 612              		.loc 1 137 70 is_stmt 1 discriminator 3 view .LVU149
 137:Core/Src/filtrage.c ****         {
 613              		.loc 1 137 68 is_stmt 0 discriminator 3 view .LVU150
 614 0030 0133     		adds	r3, r3, #1
 615              	.LVL57:
 137:Core/Src/filtrage.c ****         {
 616              		.loc 1 137 73 discriminator 3 view .LVU151
 617 0032 0131     		adds	r1, r1, #1
 618              	.LVL58:
 619              	.L67:
 137:Core/Src/filtrage.c ****         {
 620              		.loc 1 137 55 is_stmt 1 discriminator 1 view .LVU152
 621 0034 A342     		cmp	r3, r4
 622 0036 EEDB     		blt	.L68
 137:Core/Src/filtrage.c ****         {
 623              		.loc 1 137 55 is_stmt 0 discriminator 1 view .LVU153
 624              	.LBE18:
 140:Core/Src/filtrage.c ****         }
 141:Core/Src/filtrage.c ****         start_data = end_data;
 625              		.loc 1 141 9 is_stmt 1 view .LVU154
 626              	.LVL59:
 142:Core/Src/filtrage.c **** 
 143:Core/Src/filtrage.c ****         pOut[i] = logf(sum + 1e-10);
 627              		.loc 1 143 9 view .LVU155
 628              		.loc 1 143 28 is_stmt 0 view .LVU156
 629 0038 B7EEC00A 		vcvt.f64.f32	d0, s0
 630              	.LVL60:
 631              		.loc 1 143 28 view .LVU157
 632 003c 9FED0E7B 		vldr.64	d7, .L76
 633 0040 30EE070B 		vadd.f64	d0, d0, d7
 634              		.loc 1 143 13 view .LVU158
 635 0044 07EB8608 		add	r8, r7, r6, lsl #2
 636              		.loc 1 143 19 view .LVU159
 637 0048 B7EEC00B 		vcvt.f32.f64	s0, d0
 638 004c FFF7FEFF 		bl	logf
 639              	.LVL61:
 640              		.loc 1 143 17 discriminator 1 view .LVU160
 641 0050 88ED000A 		vstr.32	s0, [r8]
 642              	.LBE17:
 132:Core/Src/filtrage.c ****     {
 643              		.loc 1 132 34 is_stmt 1 discriminator 2 view .LVU161
 644 0054 0136     		adds	r6, r6, #1
 645              	.LVL62:
 646              	.LBB21:
 141:Core/Src/filtrage.c **** 
 647              		.loc 1 141 20 is_stmt 0 view .LVU162
 648 0056 2346     		mov	r3, r4
 649              	.LVL63:
 650              	.L66:
 141:Core/Src/filtrage.c **** 
 651              		.loc 1 141 20 view .LVU163
 652              	.LBE21:
 132:Core/Src/filtrage.c ****     {
ARM GAS  /var/folders/n6/c271nzx11xl4r4_m7sqjlt0m0000gn/T//ccGo3Vqh.s 			page 16


 653              		.loc 1 132 23 is_stmt 1 discriminator 1 view .LVU164
 654 0058 1D2E     		cmp	r6, #29
 655 005a 08DC     		bgt	.L75
 656              	.LBB22:
 134:Core/Src/filtrage.c ****         int end_data = mel_filters_num_non_zero[i] + start_data;
 657              		.loc 1 134 9 view .LVU165
 658              	.LVL64:
 135:Core/Src/filtrage.c ****         int start_segment = mel_filters_zeros_before[i];
 659              		.loc 1 135 9 view .LVU166
 135:Core/Src/filtrage.c ****         int start_segment = mel_filters_zeros_before[i];
 660              		.loc 1 135 48 is_stmt 0 view .LVU167
 661 005c 094A     		ldr	r2, .L76+12
 662 005e 945D     		ldrb	r4, [r2, r6]	@ zero_extendqisi2
 135:Core/Src/filtrage.c ****         int start_segment = mel_filters_zeros_before[i];
 663              		.loc 1 135 13 view .LVU168
 664 0060 1C44     		add	r4, r4, r3
 665              	.LVL65:
 136:Core/Src/filtrage.c ****         for (int j = start_data, x = start_segment; j < end_data; j++, x++)
 666              		.loc 1 136 9 is_stmt 1 view .LVU169
 136:Core/Src/filtrage.c ****         for (int j = start_data, x = start_segment; j < end_data; j++, x++)
 667              		.loc 1 136 53 is_stmt 0 view .LVU170
 668 0062 094A     		ldr	r2, .L76+16
 669 0064 32F91610 		ldrsh	r1, [r2, r6, lsl #1]
 670              	.LVL66:
 137:Core/Src/filtrage.c ****         {
 671              		.loc 1 137 9 is_stmt 1 view .LVU171
 672              	.LBB19:
 137:Core/Src/filtrage.c ****         {
 673              		.loc 1 137 14 view .LVU172
 137:Core/Src/filtrage.c ****         {
 674              		.loc 1 137 14 is_stmt 0 view .LVU173
 675              	.LBE19:
 134:Core/Src/filtrage.c ****         int end_data = mel_filters_num_non_zero[i] + start_data;
 676              		.loc 1 134 15 view .LVU174
 677 0068 9FED080A 		vldr.32	s0, .L76+20
 678              	.LBB20:
 137:Core/Src/filtrage.c ****         {
 679              		.loc 1 137 9 view .LVU175
 680 006c E2E7     		b	.L67
 681              	.LVL67:
 682              	.L75:
 137:Core/Src/filtrage.c ****         {
 683              		.loc 1 137 9 view .LVU176
 684              	.LBE20:
 685              	.LBE22:
 686              	.LBE23:
 144:Core/Src/filtrage.c ****     }
 145:Core/Src/filtrage.c ****     return FILTER_CALCULATION_OK;
 687              		.loc 1 145 12 view .LVU177
 688 006e 0120     		movs	r0, #1
 146:Core/Src/filtrage.c **** }
 689              		.loc 1 146 1 view .LVU178
 690 0070 BDE8F081 		pop	{r4, r5, r6, r7, r8, pc}
 691              	.LVL68:
 692              	.L70:
 693              		.cfi_def_cfa_offset 0
 694              		.cfi_restore 4
ARM GAS  /var/folders/n6/c271nzx11xl4r4_m7sqjlt0m0000gn/T//ccGo3Vqh.s 			page 17


 695              		.cfi_restore 5
 696              		.cfi_restore 6
 697              		.cfi_restore 7
 698              		.cfi_restore 8
 699              		.cfi_restore 14
 128:Core/Src/filtrage.c ****     }
 700              		.loc 1 128 16 view .LVU179
 701 0074 0020     		movs	r0, #0
 702              	.LVL69:
 703              		.loc 1 146 1 view .LVU180
 704 0076 7047     		bx	lr
 705              	.L77:
 706              		.align	3
 707              	.L76:
 708 0078 BBBDD7D9 		.word	-640172613
 709 007c DF7CDB3D 		.word	1037794527
 710 0080 00000000 		.word	mel_filters_non_zero_data
 711 0084 00000000 		.word	mel_filters_num_non_zero
 712 0088 00000000 		.word	mel_filters_zeros_before
 713 008c 00000000 		.word	0
 714              		.cfi_endproc
 715              	.LFE183:
 717              		.section	.rodata.print_mel_filters.str1.4,"aMS",%progbits,1
 718              		.align	2
 719              	.LC0:
 720 0000 73746172 		.ascii	"start_data: %d\012\015\000"
 720      745F6461 
 720      74613A20 
 720      25640A0D 
 720      00
 721 0011 000000   		.align	2
 722              	.LC1:
 723 0014 656E645F 		.ascii	"end_data: %d\012\015\000"
 723      64617461 
 723      3A202564 
 723      0A0D00
 724              		.section	.text.print_mel_filters,"ax",%progbits
 725              		.align	1
 726              		.global	print_mel_filters
 727              		.syntax unified
 728              		.thumb
 729              		.thumb_func
 731              	print_mel_filters:
 732              	.LVL70:
 733              	.LFB184:
 147:Core/Src/filtrage.c **** 
 148:Core/Src/filtrage.c **** void print_mel_filters(float32_t *pOut, int n_mels)
 149:Core/Src/filtrage.c **** {
 734              		.loc 1 149 1 is_stmt 1 view -0
 735              		.cfi_startproc
 736              		@ args = 0, pretend = 0, frame = 0
 737              		@ frame_needed = 0, uses_anonymous_args = 0
 738              		.loc 1 149 1 is_stmt 0 view .LVU182
 739 0000 2DE9F041 		push	{r4, r5, r6, r7, r8, lr}
 740              		.cfi_def_cfa_offset 24
 741              		.cfi_offset 4, -24
 742              		.cfi_offset 5, -20
ARM GAS  /var/folders/n6/c271nzx11xl4r4_m7sqjlt0m0000gn/T//ccGo3Vqh.s 			page 18


 743              		.cfi_offset 6, -16
 744              		.cfi_offset 7, -12
 745              		.cfi_offset 8, -8
 746              		.cfi_offset 14, -4
 747 0004 0446     		mov	r4, r0
 748 0006 0F46     		mov	r7, r1
 150:Core/Src/filtrage.c **** 
 151:Core/Src/filtrage.c ****     int start_data = 0;
 749              		.loc 1 151 5 is_stmt 1 view .LVU183
 750              	.LVL71:
 152:Core/Src/filtrage.c **** 
 153:Core/Src/filtrage.c ****     for (int j = 0; j < 512; j++)
 751              		.loc 1 153 5 view .LVU184
 752              	.LBB24:
 753              		.loc 1 153 10 view .LVU185
 754              		.loc 1 153 14 is_stmt 0 view .LVU186
 755 0008 0023     		movs	r3, #0
 756              		.loc 1 153 5 view .LVU187
 757 000a 06E0     		b	.L79
 758              	.LVL72:
 759              	.L80:
 154:Core/Src/filtrage.c ****     {
 155:Core/Src/filtrage.c ****         pOut[j] = 1.0;
 760              		.loc 1 155 9 is_stmt 1 view .LVU188
 761              		.loc 1 155 13 is_stmt 0 view .LVU189
 762 000c 04EB8302 		add	r2, r4, r3, lsl #2
 763              		.loc 1 155 17 view .LVU190
 764 0010 4FF07E5C 		mov	ip, #1065353216
 765 0014 C2F800C0 		str	ip, [r2]	@ float
 153:Core/Src/filtrage.c ****     {
 766              		.loc 1 153 31 is_stmt 1 discriminator 3 view .LVU191
 767 0018 0133     		adds	r3, r3, #1
 768              	.LVL73:
 769              	.L79:
 153:Core/Src/filtrage.c ****     {
 770              		.loc 1 153 23 discriminator 1 view .LVU192
 771 001a B3F5007F 		cmp	r3, #512
 772 001e F5DB     		blt	.L80
 773              	.LBE24:
 774              	.LBB25:
 156:Core/Src/filtrage.c ****     }
 157:Core/Src/filtrage.c **** 
 158:Core/Src/filtrage.c ****     for (int i = 0; i < n_mels; i++)
 775              		.loc 1 158 14 is_stmt 0 view .LVU193
 776 0020 0023     		movs	r3, #0
 777              	.LVL74:
 778              		.loc 1 158 14 view .LVU194
 779              	.LBE25:
 151:Core/Src/filtrage.c **** 
 780              		.loc 1 151 9 view .LVU195
 781 0022 1D46     		mov	r5, r3
 782 0024 03E0     		b	.L81
 783              	.LVL75:
 784              	.L82:
 785              	.LBB26:
 159:Core/Src/filtrage.c ****     {
 160:Core/Src/filtrage.c ****         start_data += mel_filters_num_non_zero[i];
ARM GAS  /var/folders/n6/c271nzx11xl4r4_m7sqjlt0m0000gn/T//ccGo3Vqh.s 			page 19


 786              		.loc 1 160 9 is_stmt 1 view .LVU196
 787              		.loc 1 160 47 is_stmt 0 view .LVU197
 788 0026 1B4A     		ldr	r2, .L90
 789 0028 D25C     		ldrb	r2, [r2, r3]	@ zero_extendqisi2
 790              		.loc 1 160 20 view .LVU198
 791 002a 1544     		add	r5, r5, r2
 792              	.LVL76:
 158:Core/Src/filtrage.c ****     {
 793              		.loc 1 158 34 is_stmt 1 discriminator 3 view .LVU199
 794 002c 0133     		adds	r3, r3, #1
 795              	.LVL77:
 796              	.L81:
 158:Core/Src/filtrage.c ****     {
 797              		.loc 1 158 23 discriminator 1 view .LVU200
 798 002e BB42     		cmp	r3, r7
 799 0030 F9DB     		blt	.L82
 800              	.LBE26:
 161:Core/Src/filtrage.c ****     }
 162:Core/Src/filtrage.c ****     printf("start_data: %d\n\r", start_data);
 801              		.loc 1 162 5 view .LVU201
 802 0032 2946     		mov	r1, r5
 803              	.LVL78:
 804              		.loc 1 162 5 is_stmt 0 view .LVU202
 805 0034 1848     		ldr	r0, .L90+4
 806              	.LVL79:
 807              		.loc 1 162 5 view .LVU203
 808 0036 FFF7FEFF 		bl	printf
 809              	.LVL80:
 163:Core/Src/filtrage.c **** 
 164:Core/Src/filtrage.c ****     int end_data = mel_filters_num_non_zero[n_mels] + start_data;
 810              		.loc 1 164 5 is_stmt 1 view .LVU204
 811              		.loc 1 164 44 is_stmt 0 view .LVU205
 812 003a 164B     		ldr	r3, .L90
 813 003c DE5D     		ldrb	r6, [r3, r7]	@ zero_extendqisi2
 814              		.loc 1 164 9 view .LVU206
 815 003e 06EB0508 		add	r8, r6, r5
 816              	.LVL81:
 165:Core/Src/filtrage.c ****     int start_segment = mel_filters_zeros_before[n_mels];
 817              		.loc 1 165 5 is_stmt 1 view .LVU207
 818              		.loc 1 165 49 is_stmt 0 view .LVU208
 819 0042 164B     		ldr	r3, .L90+8
 820 0044 33F91770 		ldrsh	r7, [r3, r7, lsl #1]
 821              	.LVL82:
 166:Core/Src/filtrage.c **** 
 167:Core/Src/filtrage.c ****     printf("end_data: %d\n\r", end_data);
 822              		.loc 1 167 5 is_stmt 1 view .LVU209
 823 0048 4146     		mov	r1, r8
 824 004a 1548     		ldr	r0, .L90+12
 825 004c FFF7FEFF 		bl	printf
 826              	.LVL83:
 168:Core/Src/filtrage.c **** 
 169:Core/Src/filtrage.c ****     for (int j = 0; j < start_segment; j++)
 827              		.loc 1 169 5 view .LVU210
 828              	.LBB27:
 829              		.loc 1 169 10 view .LVU211
 830              		.loc 1 169 14 is_stmt 0 view .LVU212
 831 0050 0023     		movs	r3, #0
ARM GAS  /var/folders/n6/c271nzx11xl4r4_m7sqjlt0m0000gn/T//ccGo3Vqh.s 			page 20


 832              		.loc 1 169 5 view .LVU213
 833 0052 04E0     		b	.L83
 834              	.LVL84:
 835              	.L84:
 170:Core/Src/filtrage.c ****     {
 171:Core/Src/filtrage.c ****         pOut[j] = 0;
 836              		.loc 1 171 9 is_stmt 1 view .LVU214
 837              		.loc 1 171 13 is_stmt 0 view .LVU215
 838 0054 04EB8302 		add	r2, r4, r3, lsl #2
 839              		.loc 1 171 17 view .LVU216
 840 0058 0021     		movs	r1, #0
 841 005a 1160     		str	r1, [r2]	@ float
 169:Core/Src/filtrage.c ****     {
 842              		.loc 1 169 41 is_stmt 1 discriminator 3 view .LVU217
 843 005c 0133     		adds	r3, r3, #1
 844              	.LVL85:
 845              	.L83:
 169:Core/Src/filtrage.c ****     {
 846              		.loc 1 169 23 discriminator 1 view .LVU218
 847 005e BB42     		cmp	r3, r7
 848 0060 F8DB     		blt	.L84
 849              	.LBE27:
 850              	.LBB28:
 172:Core/Src/filtrage.c ****     }
 173:Core/Src/filtrage.c **** 
 174:Core/Src/filtrage.c ****     for (int j = start_data, x = start_segment; j < end_data; j++, x++)
 851              		.loc 1 174 30 is_stmt 0 view .LVU219
 852 0062 3A46     		mov	r2, r7
 853 0064 08E0     		b	.L85
 854              	.LVL86:
 855              	.L86:
 175:Core/Src/filtrage.c ****     {
 176:Core/Src/filtrage.c ****         pOut[x] = mel_filters_non_zero_data[j];
 856              		.loc 1 176 9 is_stmt 1 view .LVU220
 857              		.loc 1 176 13 is_stmt 0 view .LVU221
 858 0066 04EB8201 		add	r1, r4, r2, lsl #2
 859              		.loc 1 176 44 view .LVU222
 860 006a 0E4B     		ldr	r3, .L90+16
 861 006c 03EB8503 		add	r3, r3, r5, lsl #2
 862 0070 1B68     		ldr	r3, [r3]	@ float
 863              		.loc 1 176 17 view .LVU223
 864 0072 0B60     		str	r3, [r1]	@ float
 174:Core/Src/filtrage.c ****     {
 865              		.loc 1 174 66 is_stmt 1 discriminator 3 view .LVU224
 174:Core/Src/filtrage.c ****     {
 866              		.loc 1 174 64 is_stmt 0 discriminator 3 view .LVU225
 867 0074 0135     		adds	r5, r5, #1
 868              	.LVL87:
 174:Core/Src/filtrage.c ****     {
 869              		.loc 1 174 69 discriminator 3 view .LVU226
 870 0076 0132     		adds	r2, r2, #1
 871              	.LVL88:
 872              	.L85:
 174:Core/Src/filtrage.c ****     {
 873              		.loc 1 174 51 is_stmt 1 discriminator 1 view .LVU227
 874 0078 4545     		cmp	r5, r8
 875 007a F4DB     		blt	.L86
ARM GAS  /var/folders/n6/c271nzx11xl4r4_m7sqjlt0m0000gn/T//ccGo3Vqh.s 			page 21


 876              	.LBE28:
 177:Core/Src/filtrage.c ****     }
 178:Core/Src/filtrage.c **** 
 179:Core/Src/filtrage.c ****     for (int j = start_segment + mel_filters_num_non_zero[n_mels]; j < 512; j++)
 877              		.loc 1 179 5 view .LVU228
 878              	.LBB29:
 879              		.loc 1 179 10 view .LVU229
 880              		.loc 1 179 14 is_stmt 0 view .LVU230
 881 007c F319     		adds	r3, r6, r7
 882              	.LVL89:
 883              		.loc 1 179 5 view .LVU231
 884 007e 04E0     		b	.L87
 885              	.LVL90:
 886              	.L88:
 180:Core/Src/filtrage.c ****     {
 181:Core/Src/filtrage.c ****         pOut[j] = 0;
 887              		.loc 1 181 9 is_stmt 1 view .LVU232
 888              		.loc 1 181 13 is_stmt 0 view .LVU233
 889 0080 04EB8302 		add	r2, r4, r3, lsl #2
 890              		.loc 1 181 17 view .LVU234
 891 0084 0021     		movs	r1, #0
 892 0086 1160     		str	r1, [r2]	@ float
 179:Core/Src/filtrage.c ****     {
 893              		.loc 1 179 78 is_stmt 1 discriminator 3 view .LVU235
 894 0088 0133     		adds	r3, r3, #1
 895              	.LVL91:
 896              	.L87:
 179:Core/Src/filtrage.c ****     {
 897              		.loc 1 179 70 discriminator 1 view .LVU236
 898 008a B3F5007F 		cmp	r3, #512
 899 008e F7DB     		blt	.L88
 179:Core/Src/filtrage.c ****     {
 900              		.loc 1 179 70 is_stmt 0 discriminator 1 view .LVU237
 901              	.LBE29:
 182:Core/Src/filtrage.c ****     }
 183:Core/Src/filtrage.c **** }
 902              		.loc 1 183 1 view .LVU238
 903 0090 BDE8F081 		pop	{r4, r5, r6, r7, r8, pc}
 904              	.LVL92:
 905              	.L91:
 906              		.loc 1 183 1 view .LVU239
 907              		.align	2
 908              	.L90:
 909 0094 00000000 		.word	mel_filters_num_non_zero
 910 0098 00000000 		.word	.LC0
 911 009c 00000000 		.word	mel_filters_zeros_before
 912 00a0 14000000 		.word	.LC1
 913 00a4 00000000 		.word	mel_filters_non_zero_data
 914              		.cfi_endproc
 915              	.LFE184:
 917              		.section	.text.ZScore_Calculation,"ax",%progbits
 918              		.align	1
 919              		.global	ZScore_Calculation
 920              		.syntax unified
 921              		.thumb
 922              		.thumb_func
 924              	ZScore_Calculation:
ARM GAS  /var/folders/n6/c271nzx11xl4r4_m7sqjlt0m0000gn/T//ccGo3Vqh.s 			page 22


 925              	.LVL93:
 926              	.LFB185:
 184:Core/Src/filtrage.c **** 
 185:Core/Src/filtrage.c **** uint8_t ZScore_Calculation(float32_t *pIn, uint32_t size)
 186:Core/Src/filtrage.c **** {
 927              		.loc 1 186 1 is_stmt 1 view -0
 928              		.cfi_startproc
 929              		@ args = 0, pretend = 0, frame = 8
 930              		@ frame_needed = 0, uses_anonymous_args = 0
 187:Core/Src/filtrage.c ****     if (pIn == NULL)
 931              		.loc 1 187 5 view .LVU241
 932              		.loc 1 187 8 is_stmt 0 view .LVU242
 933 0000 08B3     		cbz	r0, .L96
 186:Core/Src/filtrage.c ****     if (pIn == NULL)
 934              		.loc 1 186 1 view .LVU243
 935 0002 30B5     		push	{r4, r5, lr}
 936              		.cfi_def_cfa_offset 12
 937              		.cfi_offset 4, -12
 938              		.cfi_offset 5, -8
 939              		.cfi_offset 14, -4
 940 0004 83B0     		sub	sp, sp, #12
 941              		.cfi_def_cfa_offset 24
 942 0006 0C46     		mov	r4, r1
 943 0008 0546     		mov	r5, r0
 188:Core/Src/filtrage.c ****     {
 189:Core/Src/filtrage.c ****         return FILTER_CALCULATION_ERROR;
 190:Core/Src/filtrage.c ****     }
 191:Core/Src/filtrage.c **** 
 192:Core/Src/filtrage.c ****     float32_t mean;
 944              		.loc 1 192 5 is_stmt 1 view .LVU244
 193:Core/Src/filtrage.c ****     float32_t std;
 945              		.loc 1 193 5 view .LVU245
 194:Core/Src/filtrage.c **** 
 195:Core/Src/filtrage.c ****     arm_mean_f32(pIn, size, &mean);
 946              		.loc 1 195 5 view .LVU246
 947 000a 01AA     		add	r2, sp, #4
 948 000c FFF7FEFF 		bl	arm_mean_f32
 949              	.LVL94:
 196:Core/Src/filtrage.c ****     arm_std_f32(pIn, size, &std);
 950              		.loc 1 196 5 view .LVU247
 951 0010 6A46     		mov	r2, sp
 952 0012 2146     		mov	r1, r4
 953 0014 2846     		mov	r0, r5
 954 0016 FFF7FEFF 		bl	arm_std_f32
 955              	.LVL95:
 197:Core/Src/filtrage.c **** 
 198:Core/Src/filtrage.c ****     for (int i = 0; i < size; i++)
 956              		.loc 1 198 5 view .LVU248
 957              	.LBB30:
 958              		.loc 1 198 10 view .LVU249
 959              		.loc 1 198 14 is_stmt 0 view .LVU250
 960 001a 0023     		movs	r3, #0
 961              		.loc 1 198 5 view .LVU251
 962 001c 0EE0     		b	.L94
 963              	.LVL96:
 964              	.L95:
 199:Core/Src/filtrage.c ****     {
ARM GAS  /var/folders/n6/c271nzx11xl4r4_m7sqjlt0m0000gn/T//ccGo3Vqh.s 			page 23


 200:Core/Src/filtrage.c ****         pIn[i] = (pIn[i] - mean) / std;
 965              		.loc 1 200 9 is_stmt 1 view .LVU252
 966              		.loc 1 200 22 is_stmt 0 view .LVU253
 967 001e 05EB8302 		add	r2, r5, r3, lsl #2
 968 0022 D2ED007A 		vldr.32	s15, [r2]
 969              		.loc 1 200 26 view .LVU254
 970 0026 9DED017A 		vldr.32	s14, [sp, #4]
 971 002a 77EEC77A 		vsub.f32	s15, s15, s14
 972              		.loc 1 200 34 view .LVU255
 973 002e DDED006A 		vldr.32	s13, [sp]
 974 0032 87EEA67A 		vdiv.f32	s14, s15, s13
 975              		.loc 1 200 16 view .LVU256
 976 0036 82ED007A 		vstr.32	s14, [r2]
 198:Core/Src/filtrage.c ****     {
 977              		.loc 1 198 32 is_stmt 1 discriminator 3 view .LVU257
 978 003a 0133     		adds	r3, r3, #1
 979              	.LVL97:
 980              	.L94:
 198:Core/Src/filtrage.c ****     {
 981              		.loc 1 198 23 discriminator 1 view .LVU258
 982 003c A342     		cmp	r3, r4
 983 003e EED3     		bcc	.L95
 984              	.LBE30:
 201:Core/Src/filtrage.c ****     }
 202:Core/Src/filtrage.c **** 
 203:Core/Src/filtrage.c ****     return FILTER_CALCULATION_OK;
 985              		.loc 1 203 12 is_stmt 0 view .LVU259
 986 0040 0120     		movs	r0, #1
 204:Core/Src/filtrage.c **** }
 987              		.loc 1 204 1 view .LVU260
 988 0042 03B0     		add	sp, sp, #12
 989              		.cfi_def_cfa_offset 12
 990              		@ sp needed
 991 0044 30BD     		pop	{r4, r5, pc}
 992              	.LVL98:
 993              	.L96:
 994              		.cfi_def_cfa_offset 0
 995              		.cfi_restore 4
 996              		.cfi_restore 5
 997              		.cfi_restore 14
 189:Core/Src/filtrage.c ****     }
 998              		.loc 1 189 16 view .LVU261
 999 0046 0020     		movs	r0, #0
 1000              	.LVL99:
 1001              		.loc 1 204 1 view .LVU262
 1002 0048 7047     		bx	lr
 1003              		.cfi_endproc
 1004              	.LFE185:
 1006              		.section	.text.DMA_Config,"ax",%progbits
 1007              		.align	1
 1008              		.global	DMA_Config
 1009              		.syntax unified
 1010              		.thumb
 1011              		.thumb_func
 1013              	DMA_Config:
 1014              	.LFB186:
 205:Core/Src/filtrage.c **** 
ARM GAS  /var/folders/n6/c271nzx11xl4r4_m7sqjlt0m0000gn/T//ccGo3Vqh.s 			page 24


 206:Core/Src/filtrage.c **** uint8_t DMA_Config(void)
 207:Core/Src/filtrage.c **** {
 1015              		.loc 1 207 1 is_stmt 1 view -0
 1016              		.cfi_startproc
 1017              		@ args = 0, pretend = 0, frame = 8
 1018              		@ frame_needed = 0, uses_anonymous_args = 0
 1019 0000 00B5     		push	{lr}
 1020              		.cfi_def_cfa_offset 4
 1021              		.cfi_offset 14, -4
 1022 0002 83B0     		sub	sp, sp, #12
 1023              		.cfi_def_cfa_offset 16
 208:Core/Src/filtrage.c ****     __HAL_RCC_DMA2_CLK_ENABLE();
 1024              		.loc 1 208 5 view .LVU264
 1025              	.LBB31:
 1026              		.loc 1 208 5 view .LVU265
 1027              		.loc 1 208 5 view .LVU266
 1028 0004 154B     		ldr	r3, .L105
 1029 0006 1A6B     		ldr	r2, [r3, #48]
 1030 0008 42F48002 		orr	r2, r2, #4194304
 1031 000c 1A63     		str	r2, [r3, #48]
 1032              		.loc 1 208 5 view .LVU267
 1033 000e 1B6B     		ldr	r3, [r3, #48]
 1034 0010 03F48003 		and	r3, r3, #4194304
 1035 0014 0193     		str	r3, [sp, #4]
 1036              		.loc 1 208 5 view .LVU268
 1037 0016 019B     		ldr	r3, [sp, #4]
 1038              	.LBE31:
 1039              		.loc 1 208 5 view .LVU269
 209:Core/Src/filtrage.c **** 
 210:Core/Src/filtrage.c ****     hdma_memtomem_dma2_stream2.Instance = DMA2_Stream2;
 1040              		.loc 1 210 5 view .LVU270
 1041              		.loc 1 210 41 is_stmt 0 view .LVU271
 1042 0018 1148     		ldr	r0, .L105+4
 1043 001a 124B     		ldr	r3, .L105+8
 1044 001c 0360     		str	r3, [r0]
 211:Core/Src/filtrage.c ****     hdma_memtomem_dma2_stream2.Init.Channel = DMA_CHANNEL_0;
 1045              		.loc 1 211 5 is_stmt 1 view .LVU272
 1046              		.loc 1 211 45 is_stmt 0 view .LVU273
 1047 001e 0023     		movs	r3, #0
 1048 0020 4360     		str	r3, [r0, #4]
 212:Core/Src/filtrage.c ****     hdma_memtomem_dma2_stream2.Init.Direction = DMA_MEMORY_TO_MEMORY;
 1049              		.loc 1 212 5 is_stmt 1 view .LVU274
 1050              		.loc 1 212 47 is_stmt 0 view .LVU275
 1051 0022 8022     		movs	r2, #128
 1052 0024 8260     		str	r2, [r0, #8]
 213:Core/Src/filtrage.c ****     hdma_memtomem_dma2_stream2.Init.PeriphInc = DMA_PINC_ENABLE;
 1053              		.loc 1 213 5 is_stmt 1 view .LVU276
 1054              		.loc 1 213 47 is_stmt 0 view .LVU277
 1055 0026 4FF40072 		mov	r2, #512
 1056 002a C260     		str	r2, [r0, #12]
 214:Core/Src/filtrage.c ****     hdma_memtomem_dma2_stream2.Init.MemInc = DMA_MINC_ENABLE;
 1057              		.loc 1 214 5 is_stmt 1 view .LVU278
 1058              		.loc 1 214 44 is_stmt 0 view .LVU279
 1059 002c 4FF48062 		mov	r2, #1024
 1060 0030 0261     		str	r2, [r0, #16]
 215:Core/Src/filtrage.c ****     hdma_memtomem_dma2_stream2.Init.PeriphDataAlignment = DMA_PDATAALIGN_HALFWORD;
 1061              		.loc 1 215 5 is_stmt 1 view .LVU280
ARM GAS  /var/folders/n6/c271nzx11xl4r4_m7sqjlt0m0000gn/T//ccGo3Vqh.s 			page 25


 1062              		.loc 1 215 57 is_stmt 0 view .LVU281
 1063 0032 4FF40062 		mov	r2, #2048
 1064 0036 4261     		str	r2, [r0, #20]
 216:Core/Src/filtrage.c ****     hdma_memtomem_dma2_stream2.Init.MemDataAlignment = DMA_MDATAALIGN_HALFWORD;
 1065              		.loc 1 216 5 is_stmt 1 view .LVU282
 1066              		.loc 1 216 54 is_stmt 0 view .LVU283
 1067 0038 4FF40052 		mov	r2, #8192
 1068 003c 8261     		str	r2, [r0, #24]
 217:Core/Src/filtrage.c ****     hdma_memtomem_dma2_stream2.Init.Mode = DMA_NORMAL;
 1069              		.loc 1 217 5 is_stmt 1 view .LVU284
 1070              		.loc 1 217 42 is_stmt 0 view .LVU285
 1071 003e C361     		str	r3, [r0, #28]
 218:Core/Src/filtrage.c ****     hdma_memtomem_dma2_stream2.Init.Priority = DMA_PRIORITY_HIGH;
 1072              		.loc 1 218 5 is_stmt 1 view .LVU286
 1073              		.loc 1 218 46 is_stmt 0 view .LVU287
 1074 0040 4FF40032 		mov	r2, #131072
 1075 0044 0262     		str	r2, [r0, #32]
 219:Core/Src/filtrage.c ****     hdma_memtomem_dma2_stream2.Init.FIFOMode = DMA_FIFOMODE_DISABLE;
 1076              		.loc 1 219 5 is_stmt 1 view .LVU288
 1077              		.loc 1 219 46 is_stmt 0 view .LVU289
 1078 0046 4362     		str	r3, [r0, #36]
 220:Core/Src/filtrage.c **** 
 221:Core/Src/filtrage.c ****     if (HAL_DMA_Init(&hdma_memtomem_dma2_stream2) != HAL_OK)
 1079              		.loc 1 221 5 is_stmt 1 view .LVU290
 1080              		.loc 1 221 9 is_stmt 0 view .LVU291
 1081 0048 FFF7FEFF 		bl	HAL_DMA_Init
 1082              	.LVL100:
 1083              		.loc 1 221 8 discriminator 1 view .LVU292
 1084 004c 18B9     		cbnz	r0, .L103
 222:Core/Src/filtrage.c ****     {
 223:Core/Src/filtrage.c ****         return FILTER_CALCULATION_ERROR;
 224:Core/Src/filtrage.c ****     }
 225:Core/Src/filtrage.c ****     return FILTER_CALCULATION_OK;
 1085              		.loc 1 225 12 view .LVU293
 1086 004e 0120     		movs	r0, #1
 1087              	.L102:
 226:Core/Src/filtrage.c **** }
 1088              		.loc 1 226 1 view .LVU294
 1089 0050 03B0     		add	sp, sp, #12
 1090              		.cfi_remember_state
 1091              		.cfi_def_cfa_offset 4
 1092              		@ sp needed
 1093 0052 5DF804FB 		ldr	pc, [sp], #4
 1094              	.L103:
 1095              		.cfi_restore_state
 223:Core/Src/filtrage.c ****     }
 1096              		.loc 1 223 16 view .LVU295
 1097 0056 0020     		movs	r0, #0
 1098 0058 FAE7     		b	.L102
 1099              	.L106:
 1100 005a 00BF     		.align	2
 1101              	.L105:
 1102 005c 00380240 		.word	1073887232
 1103 0060 00000000 		.word	hdma_memtomem_dma2_stream2
 1104 0064 40640240 		.word	1073898560
 1105              		.cfi_endproc
 1106              	.LFE186:
ARM GAS  /var/folders/n6/c271nzx11xl4r4_m7sqjlt0m0000gn/T//ccGo3Vqh.s 			page 26


 1108              		.section	.text.Feature_Export,"ax",%progbits
 1109              		.align	1
 1110              		.global	Feature_Export
 1111              		.syntax unified
 1112              		.thumb
 1113              		.thumb_func
 1115              	Feature_Export:
 1116              	.LVL101:
 1117              	.LFB187:
 227:Core/Src/filtrage.c **** 
 228:Core/Src/filtrage.c **** uint8_t Feature_Export(float32_t *pOut, int16_t *pIn, uint8_t bufferState)
 229:Core/Src/filtrage.c **** {
 1118              		.loc 1 229 1 is_stmt 1 view -0
 1119              		.cfi_startproc
 1120              		@ args = 0, pretend = 0, frame = 0
 1121              		@ frame_needed = 0, uses_anonymous_args = 0
 1122              		.loc 1 229 1 is_stmt 0 view .LVU297
 1123 0000 2DE9F041 		push	{r4, r5, r6, r7, r8, lr}
 1124              		.cfi_def_cfa_offset 24
 1125              		.cfi_offset 4, -24
 1126              		.cfi_offset 5, -20
 1127              		.cfi_offset 6, -16
 1128              		.cfi_offset 7, -12
 1129              		.cfi_offset 8, -8
 1130              		.cfi_offset 14, -4
 1131 0004 8046     		mov	r8, r0
 1132 0006 0C46     		mov	r4, r1
 1133 0008 1746     		mov	r7, r2
 230:Core/Src/filtrage.c ****     if (bufferState == BUFFER_HALF)
 1134              		.loc 1 230 5 is_stmt 1 view .LVU298
 1135              		.loc 1 230 8 is_stmt 0 view .LVU299
 1136 000a 012A     		cmp	r2, #1
 1137 000c 05D0     		beq	.L135
 231:Core/Src/filtrage.c ****     {
 232:Core/Src/filtrage.c ****         if (buffer_run != BUFFER_HALF_FIRST)
 233:Core/Src/filtrage.c ****         {
 234:Core/Src/filtrage.c ****             cReadIndex = 3 * FILTRAGE_SIZE;
 235:Core/Src/filtrage.c ****             arm_circularRead_q15(pIn, STEREO_RECORD_BUFFER_SIZE, &cReadIndex, 2, rawPCMdata, &distI
 236:Core/Src/filtrage.c **** 
 237:Core/Src/filtrage.c ****             Hanning_window(tmp_buf_1, rawPCMdata, FILTRAGE_SIZE, MONO);
 238:Core/Src/filtrage.c ****             FFT_Calculation(tmp_buf_2, tmp_buf_1);
 239:Core/Src/filtrage.c ****             DSE_Calculation(tmp_buf_1, tmp_buf_2);
 240:Core/Src/filtrage.c ****             MEL_Calculation(&pOut[mel_indice * N_MELS], tmp_buf_1);
 241:Core/Src/filtrage.c ****             ZScore_Calculation(&pOut[mel_indice * N_MELS], N_MELS);
 242:Core/Src/filtrage.c ****             mel_indice++;
 243:Core/Src/filtrage.c ****         }
 244:Core/Src/filtrage.c ****         if (mel_indice == 32)
 245:Core/Src/filtrage.c ****         {
 246:Core/Src/filtrage.c ****             mel_indice = 0;
 247:Core/Src/filtrage.c ****             arm_copy_q15(&rawPCMdata[FILTRAGE_SIZE / 2], &sd_wav_cache[FILTRAGE_SIZE * wav_indice],
 248:Core/Src/filtrage.c ****             WriteWAVFile((uint8_t *)sd_wav_cache, sizeof(sd_wav_cache), END_WAV_FILE);
 249:Core/Src/filtrage.c ****             wav_indice = 0;
 250:Core/Src/filtrage.c ****             return FEATURE_EXPORT_OK;
 251:Core/Src/filtrage.c ****         }
 252:Core/Src/filtrage.c **** 
 253:Core/Src/filtrage.c ****         cReadIndex = 0;
 254:Core/Src/filtrage.c ****         arm_circularRead_q15(pIn, STEREO_RECORD_BUFFER_SIZE, &cReadIndex, 2, rawPCMdata, &distIndex
ARM GAS  /var/folders/n6/c271nzx11xl4r4_m7sqjlt0m0000gn/T//ccGo3Vqh.s 			page 27


 255:Core/Src/filtrage.c **** 
 256:Core/Src/filtrage.c ****         Hanning_window(tmp_buf_1, rawPCMdata, FILTRAGE_SIZE, MONO);
 257:Core/Src/filtrage.c ****         FFT_Calculation(tmp_buf_2, tmp_buf_1);
 258:Core/Src/filtrage.c ****         DSE_Calculation(tmp_buf_1, tmp_buf_2);
 259:Core/Src/filtrage.c ****         MEL_Calculation(&pOut[mel_indice * N_MELS], tmp_buf_1);
 260:Core/Src/filtrage.c ****         ZScore_Calculation(&pOut[mel_indice * N_MELS], N_MELS);
 261:Core/Src/filtrage.c ****         buffer_run = BUFFER_HALF_NONE;
 262:Core/Src/filtrage.c ****         mel_indice++;
 263:Core/Src/filtrage.c ****         arm_copy_q15(rawPCMdata, &sd_wav_cache[FILTRAGE_SIZE * wav_indice++], FILTRAGE_SIZE);
 264:Core/Src/filtrage.c ****     }
 265:Core/Src/filtrage.c ****     else if (bufferState == BUFFER_FULL)
 1138              		.loc 1 265 10 is_stmt 1 view .LVU300
 1139              		.loc 1 265 13 is_stmt 0 view .LVU301
 1140 000e 022A     		cmp	r2, #2
 1141 0010 00F0B880 		beq	.L136
 266:Core/Src/filtrage.c ****     {
 267:Core/Src/filtrage.c ****         cReadIndex = FILTRAGE_SIZE;
 268:Core/Src/filtrage.c ****         arm_circularRead_q15(pIn, STEREO_RECORD_BUFFER_SIZE, &cReadIndex, 2, rawPCMdata, &distIndex
 269:Core/Src/filtrage.c **** 
 270:Core/Src/filtrage.c ****         Hanning_window(tmp_buf_1, rawPCMdata, FILTRAGE_SIZE, MONO);
 271:Core/Src/filtrage.c ****         FFT_Calculation(tmp_buf_2, tmp_buf_1);
 272:Core/Src/filtrage.c ****         DSE_Calculation(tmp_buf_1, tmp_buf_2);
 273:Core/Src/filtrage.c ****         MEL_Calculation(&pOut[mel_indice * N_MELS], tmp_buf_1);
 274:Core/Src/filtrage.c ****         ZScore_Calculation(&pOut[mel_indice * N_MELS], N_MELS);
 275:Core/Src/filtrage.c ****         mel_indice++;
 276:Core/Src/filtrage.c **** 
 277:Core/Src/filtrage.c ****         if (mel_indice == 32)
 278:Core/Src/filtrage.c ****         {
 279:Core/Src/filtrage.c ****             mel_indice = 0;
 280:Core/Src/filtrage.c ****             arm_copy_q15(&rawPCMdata[FILTRAGE_SIZE / 2], &sd_wav_cache[FILTRAGE_SIZE * wav_indice],
 281:Core/Src/filtrage.c ****             WriteWAVFile((uint8_t *)sd_wav_cache, sizeof(sd_wav_cache), END_WAV_FILE);
 282:Core/Src/filtrage.c ****             wav_indice = 0;
 283:Core/Src/filtrage.c ****             return FEATURE_EXPORT_OK;
 284:Core/Src/filtrage.c ****         }
 285:Core/Src/filtrage.c **** 
 286:Core/Src/filtrage.c ****         cReadIndex = 2 * FILTRAGE_SIZE;
 287:Core/Src/filtrage.c ****         arm_circularRead_q15(pIn, STEREO_RECORD_BUFFER_SIZE, &cReadIndex, 2, rawPCMdata, &distIndex
 288:Core/Src/filtrage.c **** 
 289:Core/Src/filtrage.c ****         Hanning_window(tmp_buf_1, rawPCMdata, FILTRAGE_SIZE, MONO);
 290:Core/Src/filtrage.c ****         FFT_Calculation(tmp_buf_2, tmp_buf_1);
 291:Core/Src/filtrage.c ****         DSE_Calculation(tmp_buf_1, tmp_buf_2);
 292:Core/Src/filtrage.c ****         MEL_Calculation(&pOut[mel_indice * N_MELS], tmp_buf_1);
 293:Core/Src/filtrage.c ****         ZScore_Calculation(&pOut[mel_indice * N_MELS], N_MELS);
 294:Core/Src/filtrage.c ****         mel_indice++;
 295:Core/Src/filtrage.c ****         arm_copy_q15(rawPCMdata, &sd_wav_cache[FILTRAGE_SIZE * wav_indice++], FILTRAGE_SIZE);
 296:Core/Src/filtrage.c ****     }
 297:Core/Src/filtrage.c **** 
 298:Core/Src/filtrage.c ****     return FEATURE_EXPORT_PROGRESS;
 1142              		.loc 1 298 12 view .LVU302
 1143 0014 0120     		movs	r0, #1
 1144              	.LVL102:
 1145              	.L115:
 299:Core/Src/filtrage.c **** }
 1146              		.loc 1 299 1 view .LVU303
 1147 0016 BDE8F081 		pop	{r4, r5, r6, r7, r8, pc}
 1148              	.LVL103:
 1149              	.L135:
ARM GAS  /var/folders/n6/c271nzx11xl4r4_m7sqjlt0m0000gn/T//ccGo3Vqh.s 			page 28


 232:Core/Src/filtrage.c ****         {
 1150              		.loc 1 232 9 is_stmt 1 view .LVU304
 232:Core/Src/filtrage.c ****         {
 1151              		.loc 1 232 24 is_stmt 0 view .LVU305
 1152 001a B14B     		ldr	r3, .L147
 1153 001c 1B78     		ldrb	r3, [r3]	@ zero_extendqisi2
 232:Core/Src/filtrage.c ****         {
 1154              		.loc 1 232 12 view .LVU306
 1155 001e 012B     		cmp	r3, #1
 1156 0020 42D0     		beq	.L109
 234:Core/Src/filtrage.c ****             arm_circularRead_q15(pIn, STEREO_RECORD_BUFFER_SIZE, &cReadIndex, 2, rawPCMdata, &distI
 1157              		.loc 1 234 13 is_stmt 1 view .LVU307
 234:Core/Src/filtrage.c ****             arm_circularRead_q15(pIn, STEREO_RECORD_BUFFER_SIZE, &cReadIndex, 2, rawPCMdata, &distI
 1158              		.loc 1 234 24 is_stmt 0 view .LVU308
 1159 0022 4FF44063 		mov	r3, #3072
 1160 0026 AF4A     		ldr	r2, .L147+4
 1161              	.LVL104:
 234:Core/Src/filtrage.c ****             arm_circularRead_q15(pIn, STEREO_RECORD_BUFFER_SIZE, &cReadIndex, 2, rawPCMdata, &distI
 1162              		.loc 1 234 24 view .LVU309
 1163 0028 1360     		str	r3, [r2]
 235:Core/Src/filtrage.c **** 
 1164              		.loc 1 235 13 is_stmt 1 view .LVU310
 1165              	.LVL105:
 1166              	.LBB32:
 1167              	.LBI32:
 1168              		.file 2 "Core/Inc/../../Drivers/CMSIS/DSP/Include/arm_math.h"
   1:Core/Inc/../../Drivers/CMSIS/DSP/Include/arm_math.h **** /******************************************************************************
   2:Core/Inc/../../Drivers/CMSIS/DSP/Include/arm_math.h ****  * @file     arm_math.h
   3:Core/Inc/../../Drivers/CMSIS/DSP/Include/arm_math.h ****  * @brief    Public header file for CMSIS DSP LibraryU
   4:Core/Inc/../../Drivers/CMSIS/DSP/Include/arm_math.h ****  * @version  V1.5.3
   5:Core/Inc/../../Drivers/CMSIS/DSP/Include/arm_math.h ****  * @date     10. January 2018
   6:Core/Inc/../../Drivers/CMSIS/DSP/Include/arm_math.h ****  ******************************************************************************/
   7:Core/Inc/../../Drivers/CMSIS/DSP/Include/arm_math.h **** /*
   8:Core/Inc/../../Drivers/CMSIS/DSP/Include/arm_math.h ****  * Copyright (c) 2010-2018 Arm Limited or its affiliates. All rights reserved.
   9:Core/Inc/../../Drivers/CMSIS/DSP/Include/arm_math.h ****  *
  10:Core/Inc/../../Drivers/CMSIS/DSP/Include/arm_math.h ****  * SPDX-License-Identifier: Apache-2.0
  11:Core/Inc/../../Drivers/CMSIS/DSP/Include/arm_math.h ****  *
  12:Core/Inc/../../Drivers/CMSIS/DSP/Include/arm_math.h ****  * Licensed under the Apache License, Version 2.0 (the License); you may
  13:Core/Inc/../../Drivers/CMSIS/DSP/Include/arm_math.h ****  * not use this file except in compliance with the License.
  14:Core/Inc/../../Drivers/CMSIS/DSP/Include/arm_math.h ****  * You may obtain a copy of the License at
  15:Core/Inc/../../Drivers/CMSIS/DSP/Include/arm_math.h ****  *
  16:Core/Inc/../../Drivers/CMSIS/DSP/Include/arm_math.h ****  * www.apache.org/licenses/LICENSE-2.0
  17:Core/Inc/../../Drivers/CMSIS/DSP/Include/arm_math.h ****  *
  18:Core/Inc/../../Drivers/CMSIS/DSP/Include/arm_math.h ****  * Unless required by applicable law or agreed to in writing, software
  19:Core/Inc/../../Drivers/CMSIS/DSP/Include/arm_math.h ****  * distributed under the License is distributed on an AS IS BASIS, WITHOUT
  20:Core/Inc/../../Drivers/CMSIS/DSP/Include/arm_math.h ****  * WARRANTIES OR CONDITIONS OF ANY KIND, either express or implied.
  21:Core/Inc/../../Drivers/CMSIS/DSP/Include/arm_math.h ****  * See the License for the specific language governing permissions and
  22:Core/Inc/../../Drivers/CMSIS/DSP/Include/arm_math.h ****  * limitations under the License.
  23:Core/Inc/../../Drivers/CMSIS/DSP/Include/arm_math.h ****  */
  24:Core/Inc/../../Drivers/CMSIS/DSP/Include/arm_math.h **** 
  25:Core/Inc/../../Drivers/CMSIS/DSP/Include/arm_math.h **** /**
  26:Core/Inc/../../Drivers/CMSIS/DSP/Include/arm_math.h ****    \mainpage CMSIS DSP Software Library
  27:Core/Inc/../../Drivers/CMSIS/DSP/Include/arm_math.h ****    *
  28:Core/Inc/../../Drivers/CMSIS/DSP/Include/arm_math.h ****    * Introduction
  29:Core/Inc/../../Drivers/CMSIS/DSP/Include/arm_math.h ****    * ------------
  30:Core/Inc/../../Drivers/CMSIS/DSP/Include/arm_math.h ****    *
  31:Core/Inc/../../Drivers/CMSIS/DSP/Include/arm_math.h ****    * This user manual describes the CMSIS DSP software library,
ARM GAS  /var/folders/n6/c271nzx11xl4r4_m7sqjlt0m0000gn/T//ccGo3Vqh.s 			page 29


  32:Core/Inc/../../Drivers/CMSIS/DSP/Include/arm_math.h ****    * a suite of common signal processing functions for use on Cortex-M processor based devices.
  33:Core/Inc/../../Drivers/CMSIS/DSP/Include/arm_math.h ****    *
  34:Core/Inc/../../Drivers/CMSIS/DSP/Include/arm_math.h ****    * The library is divided into a number of functions each covering a specific category:
  35:Core/Inc/../../Drivers/CMSIS/DSP/Include/arm_math.h ****    * - Basic math functions
  36:Core/Inc/../../Drivers/CMSIS/DSP/Include/arm_math.h ****    * - Fast math functions
  37:Core/Inc/../../Drivers/CMSIS/DSP/Include/arm_math.h ****    * - Complex math functions
  38:Core/Inc/../../Drivers/CMSIS/DSP/Include/arm_math.h ****    * - Filters
  39:Core/Inc/../../Drivers/CMSIS/DSP/Include/arm_math.h ****    * - Matrix functions
  40:Core/Inc/../../Drivers/CMSIS/DSP/Include/arm_math.h ****    * - Transforms
  41:Core/Inc/../../Drivers/CMSIS/DSP/Include/arm_math.h ****    * - Motor control functions
  42:Core/Inc/../../Drivers/CMSIS/DSP/Include/arm_math.h ****    * - Statistical functions
  43:Core/Inc/../../Drivers/CMSIS/DSP/Include/arm_math.h ****    * - Support functions
  44:Core/Inc/../../Drivers/CMSIS/DSP/Include/arm_math.h ****    * - Interpolation functions
  45:Core/Inc/../../Drivers/CMSIS/DSP/Include/arm_math.h ****    *
  46:Core/Inc/../../Drivers/CMSIS/DSP/Include/arm_math.h ****    * The library has separate functions for operating on 8-bit integers, 16-bit integers,
  47:Core/Inc/../../Drivers/CMSIS/DSP/Include/arm_math.h ****    * 32-bit integer and 32-bit floating-point values.
  48:Core/Inc/../../Drivers/CMSIS/DSP/Include/arm_math.h ****    *
  49:Core/Inc/../../Drivers/CMSIS/DSP/Include/arm_math.h ****    * Using the Library
  50:Core/Inc/../../Drivers/CMSIS/DSP/Include/arm_math.h ****    * ------------
  51:Core/Inc/../../Drivers/CMSIS/DSP/Include/arm_math.h ****    *
  52:Core/Inc/../../Drivers/CMSIS/DSP/Include/arm_math.h ****    * The library installer contains prebuilt versions of the libraries in the <code>Lib</code> fold
  53:Core/Inc/../../Drivers/CMSIS/DSP/Include/arm_math.h ****    * - arm_cortexM7lfdp_math.lib (Cortex-M7, Little endian, Double Precision Floating Point Unit)
  54:Core/Inc/../../Drivers/CMSIS/DSP/Include/arm_math.h ****    * - arm_cortexM7bfdp_math.lib (Cortex-M7, Big endian, Double Precision Floating Point Unit)
  55:Core/Inc/../../Drivers/CMSIS/DSP/Include/arm_math.h ****    * - arm_cortexM7lfsp_math.lib (Cortex-M7, Little endian, Single Precision Floating Point Unit)
  56:Core/Inc/../../Drivers/CMSIS/DSP/Include/arm_math.h ****    * - arm_cortexM7bfsp_math.lib (Cortex-M7, Big endian and Single Precision Floating Point Unit on
  57:Core/Inc/../../Drivers/CMSIS/DSP/Include/arm_math.h ****    * - arm_cortexM7l_math.lib (Cortex-M7, Little endian)
  58:Core/Inc/../../Drivers/CMSIS/DSP/Include/arm_math.h ****    * - arm_cortexM7b_math.lib (Cortex-M7, Big endian)
  59:Core/Inc/../../Drivers/CMSIS/DSP/Include/arm_math.h ****    * - arm_cortexM4lf_math.lib (Cortex-M4, Little endian, Floating Point Unit)
  60:Core/Inc/../../Drivers/CMSIS/DSP/Include/arm_math.h ****    * - arm_cortexM4bf_math.lib (Cortex-M4, Big endian, Floating Point Unit)
  61:Core/Inc/../../Drivers/CMSIS/DSP/Include/arm_math.h ****    * - arm_cortexM4l_math.lib (Cortex-M4, Little endian)
  62:Core/Inc/../../Drivers/CMSIS/DSP/Include/arm_math.h ****    * - arm_cortexM4b_math.lib (Cortex-M4, Big endian)
  63:Core/Inc/../../Drivers/CMSIS/DSP/Include/arm_math.h ****    * - arm_cortexM3l_math.lib (Cortex-M3, Little endian)
  64:Core/Inc/../../Drivers/CMSIS/DSP/Include/arm_math.h ****    * - arm_cortexM3b_math.lib (Cortex-M3, Big endian)
  65:Core/Inc/../../Drivers/CMSIS/DSP/Include/arm_math.h ****    * - arm_cortexM0l_math.lib (Cortex-M0 / Cortex-M0+, Little endian)
  66:Core/Inc/../../Drivers/CMSIS/DSP/Include/arm_math.h ****    * - arm_cortexM0b_math.lib (Cortex-M0 / Cortex-M0+, Big endian)
  67:Core/Inc/../../Drivers/CMSIS/DSP/Include/arm_math.h ****    * - arm_ARMv8MBLl_math.lib (Armv8-M Baseline, Little endian)
  68:Core/Inc/../../Drivers/CMSIS/DSP/Include/arm_math.h ****    * - arm_ARMv8MMLl_math.lib (Armv8-M Mainline, Little endian)
  69:Core/Inc/../../Drivers/CMSIS/DSP/Include/arm_math.h ****    * - arm_ARMv8MMLlfsp_math.lib (Armv8-M Mainline, Little endian, Single Precision Floating Point 
  70:Core/Inc/../../Drivers/CMSIS/DSP/Include/arm_math.h ****    * - arm_ARMv8MMLld_math.lib (Armv8-M Mainline, Little endian, DSP instructions)
  71:Core/Inc/../../Drivers/CMSIS/DSP/Include/arm_math.h ****    * - arm_ARMv8MMLldfsp_math.lib (Armv8-M Mainline, Little endian, DSP instructions, Single Precis
  72:Core/Inc/../../Drivers/CMSIS/DSP/Include/arm_math.h ****    *
  73:Core/Inc/../../Drivers/CMSIS/DSP/Include/arm_math.h ****    * The library functions are declared in the public file <code>arm_math.h</code> which is placed 
  74:Core/Inc/../../Drivers/CMSIS/DSP/Include/arm_math.h ****    * Simply include this file and link the appropriate library in the application and begin calling
  75:Core/Inc/../../Drivers/CMSIS/DSP/Include/arm_math.h ****    * public header file <code> arm_math.h</code> for Cortex-M cores with little endian and big endi
  76:Core/Inc/../../Drivers/CMSIS/DSP/Include/arm_math.h ****    * Define the appropriate preprocessor macro ARM_MATH_CM7 or ARM_MATH_CM4 or ARM_MATH_CM3 or
  77:Core/Inc/../../Drivers/CMSIS/DSP/Include/arm_math.h ****    * ARM_MATH_CM0 or ARM_MATH_CM0PLUS depending on the target processor in the application.
  78:Core/Inc/../../Drivers/CMSIS/DSP/Include/arm_math.h ****    * For Armv8-M cores define preprocessor macro ARM_MATH_ARMV8MBL or ARM_MATH_ARMV8MML.
  79:Core/Inc/../../Drivers/CMSIS/DSP/Include/arm_math.h ****    * Set preprocessor macro __DSP_PRESENT if Armv8-M Mainline core supports DSP instructions.
  80:Core/Inc/../../Drivers/CMSIS/DSP/Include/arm_math.h ****    *
  81:Core/Inc/../../Drivers/CMSIS/DSP/Include/arm_math.h ****    *
  82:Core/Inc/../../Drivers/CMSIS/DSP/Include/arm_math.h ****    * Examples
  83:Core/Inc/../../Drivers/CMSIS/DSP/Include/arm_math.h ****    * --------
  84:Core/Inc/../../Drivers/CMSIS/DSP/Include/arm_math.h ****    *
  85:Core/Inc/../../Drivers/CMSIS/DSP/Include/arm_math.h ****    * The library ships with a number of examples which demonstrate how to use the library functions
  86:Core/Inc/../../Drivers/CMSIS/DSP/Include/arm_math.h ****    *
  87:Core/Inc/../../Drivers/CMSIS/DSP/Include/arm_math.h ****    * Toolchain Support
  88:Core/Inc/../../Drivers/CMSIS/DSP/Include/arm_math.h ****    * ------------
ARM GAS  /var/folders/n6/c271nzx11xl4r4_m7sqjlt0m0000gn/T//ccGo3Vqh.s 			page 30


  89:Core/Inc/../../Drivers/CMSIS/DSP/Include/arm_math.h ****    *
  90:Core/Inc/../../Drivers/CMSIS/DSP/Include/arm_math.h ****    * The library has been developed and tested with MDK version 5.14.0.0
  91:Core/Inc/../../Drivers/CMSIS/DSP/Include/arm_math.h ****    * The library is being tested in GCC and IAR toolchains and updates on this activity will be mad
  92:Core/Inc/../../Drivers/CMSIS/DSP/Include/arm_math.h ****    *
  93:Core/Inc/../../Drivers/CMSIS/DSP/Include/arm_math.h ****    * Building the Library
  94:Core/Inc/../../Drivers/CMSIS/DSP/Include/arm_math.h ****    * ------------
  95:Core/Inc/../../Drivers/CMSIS/DSP/Include/arm_math.h ****    *
  96:Core/Inc/../../Drivers/CMSIS/DSP/Include/arm_math.h ****    * The library installer contains a project file to rebuild libraries on MDK toolchain in the <co
  97:Core/Inc/../../Drivers/CMSIS/DSP/Include/arm_math.h ****    * - arm_cortexM_math.uvprojx
  98:Core/Inc/../../Drivers/CMSIS/DSP/Include/arm_math.h ****    *
  99:Core/Inc/../../Drivers/CMSIS/DSP/Include/arm_math.h ****    *
 100:Core/Inc/../../Drivers/CMSIS/DSP/Include/arm_math.h ****    * The libraries can be built by opening the arm_cortexM_math.uvprojx project in MDK-ARM, selecti
 101:Core/Inc/../../Drivers/CMSIS/DSP/Include/arm_math.h ****    *
 102:Core/Inc/../../Drivers/CMSIS/DSP/Include/arm_math.h ****    * Preprocessor Macros
 103:Core/Inc/../../Drivers/CMSIS/DSP/Include/arm_math.h ****    * ------------
 104:Core/Inc/../../Drivers/CMSIS/DSP/Include/arm_math.h ****    *
 105:Core/Inc/../../Drivers/CMSIS/DSP/Include/arm_math.h ****    * Each library project have different preprocessor macros.
 106:Core/Inc/../../Drivers/CMSIS/DSP/Include/arm_math.h ****    *
 107:Core/Inc/../../Drivers/CMSIS/DSP/Include/arm_math.h ****    * - UNALIGNED_SUPPORT_DISABLE:
 108:Core/Inc/../../Drivers/CMSIS/DSP/Include/arm_math.h ****    *
 109:Core/Inc/../../Drivers/CMSIS/DSP/Include/arm_math.h ****    * Define macro UNALIGNED_SUPPORT_DISABLE, If the silicon does not support unaligned memory acces
 110:Core/Inc/../../Drivers/CMSIS/DSP/Include/arm_math.h ****    *
 111:Core/Inc/../../Drivers/CMSIS/DSP/Include/arm_math.h ****    * - ARM_MATH_BIG_ENDIAN:
 112:Core/Inc/../../Drivers/CMSIS/DSP/Include/arm_math.h ****    *
 113:Core/Inc/../../Drivers/CMSIS/DSP/Include/arm_math.h ****    * Define macro ARM_MATH_BIG_ENDIAN to build the library for big endian targets. By default libra
 114:Core/Inc/../../Drivers/CMSIS/DSP/Include/arm_math.h ****    *
 115:Core/Inc/../../Drivers/CMSIS/DSP/Include/arm_math.h ****    * - ARM_MATH_MATRIX_CHECK:
 116:Core/Inc/../../Drivers/CMSIS/DSP/Include/arm_math.h ****    *
 117:Core/Inc/../../Drivers/CMSIS/DSP/Include/arm_math.h ****    * Define macro ARM_MATH_MATRIX_CHECK for checking on the input and output sizes of matrices
 118:Core/Inc/../../Drivers/CMSIS/DSP/Include/arm_math.h ****    *
 119:Core/Inc/../../Drivers/CMSIS/DSP/Include/arm_math.h ****    * - ARM_MATH_ROUNDING:
 120:Core/Inc/../../Drivers/CMSIS/DSP/Include/arm_math.h ****    *
 121:Core/Inc/../../Drivers/CMSIS/DSP/Include/arm_math.h ****    * Define macro ARM_MATH_ROUNDING for rounding on support functions
 122:Core/Inc/../../Drivers/CMSIS/DSP/Include/arm_math.h ****    *
 123:Core/Inc/../../Drivers/CMSIS/DSP/Include/arm_math.h ****    * - ARM_MATH_CMx:
 124:Core/Inc/../../Drivers/CMSIS/DSP/Include/arm_math.h ****    *
 125:Core/Inc/../../Drivers/CMSIS/DSP/Include/arm_math.h ****    * Define macro ARM_MATH_CM4 for building the library on Cortex-M4 target, ARM_MATH_CM3 for build
 126:Core/Inc/../../Drivers/CMSIS/DSP/Include/arm_math.h ****    * and ARM_MATH_CM0 for building library on Cortex-M0 target, ARM_MATH_CM0PLUS for building libra
 127:Core/Inc/../../Drivers/CMSIS/DSP/Include/arm_math.h ****    * ARM_MATH_CM7 for building the library on cortex-M7.
 128:Core/Inc/../../Drivers/CMSIS/DSP/Include/arm_math.h ****    *
 129:Core/Inc/../../Drivers/CMSIS/DSP/Include/arm_math.h ****    * - ARM_MATH_ARMV8MxL:
 130:Core/Inc/../../Drivers/CMSIS/DSP/Include/arm_math.h ****    *
 131:Core/Inc/../../Drivers/CMSIS/DSP/Include/arm_math.h ****    * Define macro ARM_MATH_ARMV8MBL for building the library on Armv8-M Baseline target, ARM_MATH_A
 132:Core/Inc/../../Drivers/CMSIS/DSP/Include/arm_math.h ****    * on Armv8-M Mainline target.
 133:Core/Inc/../../Drivers/CMSIS/DSP/Include/arm_math.h ****    *
 134:Core/Inc/../../Drivers/CMSIS/DSP/Include/arm_math.h ****    * - __FPU_PRESENT:
 135:Core/Inc/../../Drivers/CMSIS/DSP/Include/arm_math.h ****    *
 136:Core/Inc/../../Drivers/CMSIS/DSP/Include/arm_math.h ****    * Initialize macro __FPU_PRESENT = 1 when building on FPU supported Targets. Enable this macro f
 137:Core/Inc/../../Drivers/CMSIS/DSP/Include/arm_math.h ****    *
 138:Core/Inc/../../Drivers/CMSIS/DSP/Include/arm_math.h ****    * - __DSP_PRESENT:
 139:Core/Inc/../../Drivers/CMSIS/DSP/Include/arm_math.h ****    *
 140:Core/Inc/../../Drivers/CMSIS/DSP/Include/arm_math.h ****    * Initialize macro __DSP_PRESENT = 1 when Armv8-M Mainline core supports DSP instructions.
 141:Core/Inc/../../Drivers/CMSIS/DSP/Include/arm_math.h ****    *
 142:Core/Inc/../../Drivers/CMSIS/DSP/Include/arm_math.h ****    * <hr>
 143:Core/Inc/../../Drivers/CMSIS/DSP/Include/arm_math.h ****    * CMSIS-DSP in ARM::CMSIS Pack
 144:Core/Inc/../../Drivers/CMSIS/DSP/Include/arm_math.h ****    * -----------------------------
 145:Core/Inc/../../Drivers/CMSIS/DSP/Include/arm_math.h ****    *
ARM GAS  /var/folders/n6/c271nzx11xl4r4_m7sqjlt0m0000gn/T//ccGo3Vqh.s 			page 31


 146:Core/Inc/../../Drivers/CMSIS/DSP/Include/arm_math.h ****    * The following files relevant to CMSIS-DSP are present in the <b>ARM::CMSIS</b> Pack directorie
 147:Core/Inc/../../Drivers/CMSIS/DSP/Include/arm_math.h ****    * |File/Folder                   |Content                                                       
 148:Core/Inc/../../Drivers/CMSIS/DSP/Include/arm_math.h ****    * |------------------------------|--------------------------------------------------------------
 149:Core/Inc/../../Drivers/CMSIS/DSP/Include/arm_math.h ****    * |\b CMSIS\\Documentation\\DSP  | This documentation                                           
 150:Core/Inc/../../Drivers/CMSIS/DSP/Include/arm_math.h ****    * |\b CMSIS\\DSP_Lib             | Software license agreement (license.txt)                     
 151:Core/Inc/../../Drivers/CMSIS/DSP/Include/arm_math.h ****    * |\b CMSIS\\DSP_Lib\\Examples   | Example projects demonstrating the usage of the library funct
 152:Core/Inc/../../Drivers/CMSIS/DSP/Include/arm_math.h ****    * |\b CMSIS\\DSP_Lib\\Source     | Source files for rebuilding the library                      
 153:Core/Inc/../../Drivers/CMSIS/DSP/Include/arm_math.h ****    *
 154:Core/Inc/../../Drivers/CMSIS/DSP/Include/arm_math.h ****    * <hr>
 155:Core/Inc/../../Drivers/CMSIS/DSP/Include/arm_math.h ****    * Revision History of CMSIS-DSP
 156:Core/Inc/../../Drivers/CMSIS/DSP/Include/arm_math.h ****    * ------------
 157:Core/Inc/../../Drivers/CMSIS/DSP/Include/arm_math.h ****    * Please refer to \ref ChangeLog_pg.
 158:Core/Inc/../../Drivers/CMSIS/DSP/Include/arm_math.h ****    *
 159:Core/Inc/../../Drivers/CMSIS/DSP/Include/arm_math.h ****    * Copyright Notice
 160:Core/Inc/../../Drivers/CMSIS/DSP/Include/arm_math.h ****    * ------------
 161:Core/Inc/../../Drivers/CMSIS/DSP/Include/arm_math.h ****    *
 162:Core/Inc/../../Drivers/CMSIS/DSP/Include/arm_math.h ****    * Copyright (C) 2010-2015 Arm Limited. All rights reserved.
 163:Core/Inc/../../Drivers/CMSIS/DSP/Include/arm_math.h ****    */
 164:Core/Inc/../../Drivers/CMSIS/DSP/Include/arm_math.h **** 
 165:Core/Inc/../../Drivers/CMSIS/DSP/Include/arm_math.h **** /**
 166:Core/Inc/../../Drivers/CMSIS/DSP/Include/arm_math.h ****  * @defgroup groupMath Basic Math Functions
 167:Core/Inc/../../Drivers/CMSIS/DSP/Include/arm_math.h ****  */
 168:Core/Inc/../../Drivers/CMSIS/DSP/Include/arm_math.h **** 
 169:Core/Inc/../../Drivers/CMSIS/DSP/Include/arm_math.h **** /**
 170:Core/Inc/../../Drivers/CMSIS/DSP/Include/arm_math.h ****  * @defgroup groupFastMath Fast Math Functions
 171:Core/Inc/../../Drivers/CMSIS/DSP/Include/arm_math.h ****  * This set of functions provides a fast approximation to sine, cosine, and square root.
 172:Core/Inc/../../Drivers/CMSIS/DSP/Include/arm_math.h ****  * As compared to most of the other functions in the CMSIS math library, the fast math functions
 173:Core/Inc/../../Drivers/CMSIS/DSP/Include/arm_math.h ****  * operate on individual values and not arrays.
 174:Core/Inc/../../Drivers/CMSIS/DSP/Include/arm_math.h ****  * There are separate functions for Q15, Q31, and floating-point data.
 175:Core/Inc/../../Drivers/CMSIS/DSP/Include/arm_math.h ****  *
 176:Core/Inc/../../Drivers/CMSIS/DSP/Include/arm_math.h ****  */
 177:Core/Inc/../../Drivers/CMSIS/DSP/Include/arm_math.h **** 
 178:Core/Inc/../../Drivers/CMSIS/DSP/Include/arm_math.h **** /**
 179:Core/Inc/../../Drivers/CMSIS/DSP/Include/arm_math.h ****  * @defgroup groupCmplxMath Complex Math Functions
 180:Core/Inc/../../Drivers/CMSIS/DSP/Include/arm_math.h ****  * This set of functions operates on complex data vectors.
 181:Core/Inc/../../Drivers/CMSIS/DSP/Include/arm_math.h ****  * The data in the complex arrays is stored in an interleaved fashion
 182:Core/Inc/../../Drivers/CMSIS/DSP/Include/arm_math.h ****  * (real, imag, real, imag, ...).
 183:Core/Inc/../../Drivers/CMSIS/DSP/Include/arm_math.h ****  * In the API functions, the number of samples in a complex array refers
 184:Core/Inc/../../Drivers/CMSIS/DSP/Include/arm_math.h ****  * to the number of complex values; the array contains twice this number of
 185:Core/Inc/../../Drivers/CMSIS/DSP/Include/arm_math.h ****  * real values.
 186:Core/Inc/../../Drivers/CMSIS/DSP/Include/arm_math.h ****  */
 187:Core/Inc/../../Drivers/CMSIS/DSP/Include/arm_math.h **** 
 188:Core/Inc/../../Drivers/CMSIS/DSP/Include/arm_math.h **** /**
 189:Core/Inc/../../Drivers/CMSIS/DSP/Include/arm_math.h ****  * @defgroup groupFilters Filtering Functions
 190:Core/Inc/../../Drivers/CMSIS/DSP/Include/arm_math.h ****  */
 191:Core/Inc/../../Drivers/CMSIS/DSP/Include/arm_math.h **** 
 192:Core/Inc/../../Drivers/CMSIS/DSP/Include/arm_math.h **** /**
 193:Core/Inc/../../Drivers/CMSIS/DSP/Include/arm_math.h ****  * @defgroup groupMatrix Matrix Functions
 194:Core/Inc/../../Drivers/CMSIS/DSP/Include/arm_math.h ****  *
 195:Core/Inc/../../Drivers/CMSIS/DSP/Include/arm_math.h ****  * This set of functions provides basic matrix math operations.
 196:Core/Inc/../../Drivers/CMSIS/DSP/Include/arm_math.h ****  * The functions operate on matrix data structures.  For example,
 197:Core/Inc/../../Drivers/CMSIS/DSP/Include/arm_math.h ****  * the type
 198:Core/Inc/../../Drivers/CMSIS/DSP/Include/arm_math.h ****  * definition for the floating-point matrix structure is shown
 199:Core/Inc/../../Drivers/CMSIS/DSP/Include/arm_math.h ****  * below:
 200:Core/Inc/../../Drivers/CMSIS/DSP/Include/arm_math.h ****  * <pre>
 201:Core/Inc/../../Drivers/CMSIS/DSP/Include/arm_math.h ****  *     typedef struct
 202:Core/Inc/../../Drivers/CMSIS/DSP/Include/arm_math.h ****  *     {
ARM GAS  /var/folders/n6/c271nzx11xl4r4_m7sqjlt0m0000gn/T//ccGo3Vqh.s 			page 32


 203:Core/Inc/../../Drivers/CMSIS/DSP/Include/arm_math.h ****  *       uint16_t numRows;     // number of rows of the matrix.
 204:Core/Inc/../../Drivers/CMSIS/DSP/Include/arm_math.h ****  *       uint16_t numCols;     // number of columns of the matrix.
 205:Core/Inc/../../Drivers/CMSIS/DSP/Include/arm_math.h ****  *       float32_t *pData;     // points to the data of the matrix.
 206:Core/Inc/../../Drivers/CMSIS/DSP/Include/arm_math.h ****  *     } arm_matrix_instance_f32;
 207:Core/Inc/../../Drivers/CMSIS/DSP/Include/arm_math.h ****  * </pre>
 208:Core/Inc/../../Drivers/CMSIS/DSP/Include/arm_math.h ****  * There are similar definitions for Q15 and Q31 data types.
 209:Core/Inc/../../Drivers/CMSIS/DSP/Include/arm_math.h ****  *
 210:Core/Inc/../../Drivers/CMSIS/DSP/Include/arm_math.h ****  * The structure specifies the size of the matrix and then points to
 211:Core/Inc/../../Drivers/CMSIS/DSP/Include/arm_math.h ****  * an array of data.  The array is of size <code>numRows X numCols</code>
 212:Core/Inc/../../Drivers/CMSIS/DSP/Include/arm_math.h ****  * and the values are arranged in row order.  That is, the
 213:Core/Inc/../../Drivers/CMSIS/DSP/Include/arm_math.h ****  * matrix element (i, j) is stored at:
 214:Core/Inc/../../Drivers/CMSIS/DSP/Include/arm_math.h ****  * <pre>
 215:Core/Inc/../../Drivers/CMSIS/DSP/Include/arm_math.h ****  *     pData[i*numCols + j]
 216:Core/Inc/../../Drivers/CMSIS/DSP/Include/arm_math.h ****  * </pre>
 217:Core/Inc/../../Drivers/CMSIS/DSP/Include/arm_math.h ****  *
 218:Core/Inc/../../Drivers/CMSIS/DSP/Include/arm_math.h ****  * \par Init Functions
 219:Core/Inc/../../Drivers/CMSIS/DSP/Include/arm_math.h ****  * There is an associated initialization function for each type of matrix
 220:Core/Inc/../../Drivers/CMSIS/DSP/Include/arm_math.h ****  * data structure.
 221:Core/Inc/../../Drivers/CMSIS/DSP/Include/arm_math.h ****  * The initialization function sets the values of the internal structure fields.
 222:Core/Inc/../../Drivers/CMSIS/DSP/Include/arm_math.h ****  * Refer to the function <code>arm_mat_init_f32()</code>, <code>arm_mat_init_q31()</code>
 223:Core/Inc/../../Drivers/CMSIS/DSP/Include/arm_math.h ****  * and <code>arm_mat_init_q15()</code> for floating-point, Q31 and Q15 types,  respectively.
 224:Core/Inc/../../Drivers/CMSIS/DSP/Include/arm_math.h ****  *
 225:Core/Inc/../../Drivers/CMSIS/DSP/Include/arm_math.h ****  * \par
 226:Core/Inc/../../Drivers/CMSIS/DSP/Include/arm_math.h ****  * Use of the initialization function is optional. However, if initialization function is used
 227:Core/Inc/../../Drivers/CMSIS/DSP/Include/arm_math.h ****  * then the instance structure cannot be placed into a const data section.
 228:Core/Inc/../../Drivers/CMSIS/DSP/Include/arm_math.h ****  * To place the instance structure in a const data
 229:Core/Inc/../../Drivers/CMSIS/DSP/Include/arm_math.h ****  * section, manually initialize the data structure.  For example:
 230:Core/Inc/../../Drivers/CMSIS/DSP/Include/arm_math.h ****  * <pre>
 231:Core/Inc/../../Drivers/CMSIS/DSP/Include/arm_math.h ****  * <code>arm_matrix_instance_f32 S = {nRows, nColumns, pData};</code>
 232:Core/Inc/../../Drivers/CMSIS/DSP/Include/arm_math.h ****  * <code>arm_matrix_instance_q31 S = {nRows, nColumns, pData};</code>
 233:Core/Inc/../../Drivers/CMSIS/DSP/Include/arm_math.h ****  * <code>arm_matrix_instance_q15 S = {nRows, nColumns, pData};</code>
 234:Core/Inc/../../Drivers/CMSIS/DSP/Include/arm_math.h ****  * </pre>
 235:Core/Inc/../../Drivers/CMSIS/DSP/Include/arm_math.h ****  * where <code>nRows</code> specifies the number of rows, <code>nColumns</code>
 236:Core/Inc/../../Drivers/CMSIS/DSP/Include/arm_math.h ****  * specifies the number of columns, and <code>pData</code> points to the
 237:Core/Inc/../../Drivers/CMSIS/DSP/Include/arm_math.h ****  * data array.
 238:Core/Inc/../../Drivers/CMSIS/DSP/Include/arm_math.h ****  *
 239:Core/Inc/../../Drivers/CMSIS/DSP/Include/arm_math.h ****  * \par Size Checking
 240:Core/Inc/../../Drivers/CMSIS/DSP/Include/arm_math.h ****  * By default all of the matrix functions perform size checking on the input and
 241:Core/Inc/../../Drivers/CMSIS/DSP/Include/arm_math.h ****  * output matrices. For example, the matrix addition function verifies that the
 242:Core/Inc/../../Drivers/CMSIS/DSP/Include/arm_math.h ****  * two input matrices and the output matrix all have the same number of rows and
 243:Core/Inc/../../Drivers/CMSIS/DSP/Include/arm_math.h ****  * columns. If the size check fails the functions return:
 244:Core/Inc/../../Drivers/CMSIS/DSP/Include/arm_math.h ****  * <pre>
 245:Core/Inc/../../Drivers/CMSIS/DSP/Include/arm_math.h ****  *     ARM_MATH_SIZE_MISMATCH
 246:Core/Inc/../../Drivers/CMSIS/DSP/Include/arm_math.h ****  * </pre>
 247:Core/Inc/../../Drivers/CMSIS/DSP/Include/arm_math.h ****  * Otherwise the functions return
 248:Core/Inc/../../Drivers/CMSIS/DSP/Include/arm_math.h ****  * <pre>
 249:Core/Inc/../../Drivers/CMSIS/DSP/Include/arm_math.h ****  *     ARM_MATH_SUCCESS
 250:Core/Inc/../../Drivers/CMSIS/DSP/Include/arm_math.h ****  * </pre>
 251:Core/Inc/../../Drivers/CMSIS/DSP/Include/arm_math.h ****  * There is some overhead associated with this matrix size checking.
 252:Core/Inc/../../Drivers/CMSIS/DSP/Include/arm_math.h ****  * The matrix size checking is enabled via the \#define
 253:Core/Inc/../../Drivers/CMSIS/DSP/Include/arm_math.h ****  * <pre>
 254:Core/Inc/../../Drivers/CMSIS/DSP/Include/arm_math.h ****  *     ARM_MATH_MATRIX_CHECK
 255:Core/Inc/../../Drivers/CMSIS/DSP/Include/arm_math.h ****  * </pre>
 256:Core/Inc/../../Drivers/CMSIS/DSP/Include/arm_math.h ****  * within the library project settings.  By default this macro is defined
 257:Core/Inc/../../Drivers/CMSIS/DSP/Include/arm_math.h ****  * and size checking is enabled. By changing the project settings and
 258:Core/Inc/../../Drivers/CMSIS/DSP/Include/arm_math.h ****  * undefining this macro size checking is eliminated and the functions
 259:Core/Inc/../../Drivers/CMSIS/DSP/Include/arm_math.h ****  * run a bit faster. With size checking disabled the functions always
ARM GAS  /var/folders/n6/c271nzx11xl4r4_m7sqjlt0m0000gn/T//ccGo3Vqh.s 			page 33


 260:Core/Inc/../../Drivers/CMSIS/DSP/Include/arm_math.h ****  * return <code>ARM_MATH_SUCCESS</code>.
 261:Core/Inc/../../Drivers/CMSIS/DSP/Include/arm_math.h ****  */
 262:Core/Inc/../../Drivers/CMSIS/DSP/Include/arm_math.h **** 
 263:Core/Inc/../../Drivers/CMSIS/DSP/Include/arm_math.h **** /**
 264:Core/Inc/../../Drivers/CMSIS/DSP/Include/arm_math.h ****  * @defgroup groupTransforms Transform Functions
 265:Core/Inc/../../Drivers/CMSIS/DSP/Include/arm_math.h ****  */
 266:Core/Inc/../../Drivers/CMSIS/DSP/Include/arm_math.h **** 
 267:Core/Inc/../../Drivers/CMSIS/DSP/Include/arm_math.h **** /**
 268:Core/Inc/../../Drivers/CMSIS/DSP/Include/arm_math.h ****  * @defgroup groupController Controller Functions
 269:Core/Inc/../../Drivers/CMSIS/DSP/Include/arm_math.h ****  */
 270:Core/Inc/../../Drivers/CMSIS/DSP/Include/arm_math.h **** 
 271:Core/Inc/../../Drivers/CMSIS/DSP/Include/arm_math.h **** /**
 272:Core/Inc/../../Drivers/CMSIS/DSP/Include/arm_math.h ****  * @defgroup groupStats Statistics Functions
 273:Core/Inc/../../Drivers/CMSIS/DSP/Include/arm_math.h ****  */
 274:Core/Inc/../../Drivers/CMSIS/DSP/Include/arm_math.h **** /**
 275:Core/Inc/../../Drivers/CMSIS/DSP/Include/arm_math.h ****  * @defgroup groupSupport Support Functions
 276:Core/Inc/../../Drivers/CMSIS/DSP/Include/arm_math.h ****  */
 277:Core/Inc/../../Drivers/CMSIS/DSP/Include/arm_math.h **** 
 278:Core/Inc/../../Drivers/CMSIS/DSP/Include/arm_math.h **** /**
 279:Core/Inc/../../Drivers/CMSIS/DSP/Include/arm_math.h ****  * @defgroup groupInterpolation Interpolation Functions
 280:Core/Inc/../../Drivers/CMSIS/DSP/Include/arm_math.h ****  * These functions perform 1- and 2-dimensional interpolation of data.
 281:Core/Inc/../../Drivers/CMSIS/DSP/Include/arm_math.h ****  * Linear interpolation is used for 1-dimensional data and
 282:Core/Inc/../../Drivers/CMSIS/DSP/Include/arm_math.h ****  * bilinear interpolation is used for 2-dimensional data.
 283:Core/Inc/../../Drivers/CMSIS/DSP/Include/arm_math.h ****  */
 284:Core/Inc/../../Drivers/CMSIS/DSP/Include/arm_math.h **** 
 285:Core/Inc/../../Drivers/CMSIS/DSP/Include/arm_math.h **** /**
 286:Core/Inc/../../Drivers/CMSIS/DSP/Include/arm_math.h ****  * @defgroup groupExamples Examples
 287:Core/Inc/../../Drivers/CMSIS/DSP/Include/arm_math.h ****  */
 288:Core/Inc/../../Drivers/CMSIS/DSP/Include/arm_math.h **** #ifndef _ARM_MATH_H
 289:Core/Inc/../../Drivers/CMSIS/DSP/Include/arm_math.h **** #define _ARM_MATH_H
 290:Core/Inc/../../Drivers/CMSIS/DSP/Include/arm_math.h **** 
 291:Core/Inc/../../Drivers/CMSIS/DSP/Include/arm_math.h **** /* Compiler specific diagnostic adjustment */
 292:Core/Inc/../../Drivers/CMSIS/DSP/Include/arm_math.h **** #if defined(__CC_ARM)
 293:Core/Inc/../../Drivers/CMSIS/DSP/Include/arm_math.h **** 
 294:Core/Inc/../../Drivers/CMSIS/DSP/Include/arm_math.h **** #elif defined(__ARMCC_VERSION) && (__ARMCC_VERSION >= 6010050)
 295:Core/Inc/../../Drivers/CMSIS/DSP/Include/arm_math.h **** 
 296:Core/Inc/../../Drivers/CMSIS/DSP/Include/arm_math.h **** #elif defined(__GNUC__)
 297:Core/Inc/../../Drivers/CMSIS/DSP/Include/arm_math.h **** #pragma GCC diagnostic push
 298:Core/Inc/../../Drivers/CMSIS/DSP/Include/arm_math.h **** #pragma GCC diagnostic ignored "-Wsign-conversion"
 299:Core/Inc/../../Drivers/CMSIS/DSP/Include/arm_math.h **** #pragma GCC diagnostic ignored "-Wconversion"
 300:Core/Inc/../../Drivers/CMSIS/DSP/Include/arm_math.h **** #pragma GCC diagnostic ignored "-Wunused-parameter"
 301:Core/Inc/../../Drivers/CMSIS/DSP/Include/arm_math.h **** 
 302:Core/Inc/../../Drivers/CMSIS/DSP/Include/arm_math.h **** #elif defined(__ICCARM__)
 303:Core/Inc/../../Drivers/CMSIS/DSP/Include/arm_math.h **** 
 304:Core/Inc/../../Drivers/CMSIS/DSP/Include/arm_math.h **** #elif defined(__TI_ARM__)
 305:Core/Inc/../../Drivers/CMSIS/DSP/Include/arm_math.h **** 
 306:Core/Inc/../../Drivers/CMSIS/DSP/Include/arm_math.h **** #elif defined(__CSMC__)
 307:Core/Inc/../../Drivers/CMSIS/DSP/Include/arm_math.h **** 
 308:Core/Inc/../../Drivers/CMSIS/DSP/Include/arm_math.h **** #elif defined(__TASKING__)
 309:Core/Inc/../../Drivers/CMSIS/DSP/Include/arm_math.h **** 
 310:Core/Inc/../../Drivers/CMSIS/DSP/Include/arm_math.h **** #else
 311:Core/Inc/../../Drivers/CMSIS/DSP/Include/arm_math.h **** #error Unknown compiler
 312:Core/Inc/../../Drivers/CMSIS/DSP/Include/arm_math.h **** #endif
 313:Core/Inc/../../Drivers/CMSIS/DSP/Include/arm_math.h **** #define ARM_MATH_CM7
 314:Core/Inc/../../Drivers/CMSIS/DSP/Include/arm_math.h **** 
 315:Core/Inc/../../Drivers/CMSIS/DSP/Include/arm_math.h **** #define __CMSIS_GENERIC /* disable NVIC and Systick functions */
 316:Core/Inc/../../Drivers/CMSIS/DSP/Include/arm_math.h **** 
ARM GAS  /var/folders/n6/c271nzx11xl4r4_m7sqjlt0m0000gn/T//ccGo3Vqh.s 			page 34


 317:Core/Inc/../../Drivers/CMSIS/DSP/Include/arm_math.h **** #if defined(ARM_MATH_CM7)
 318:Core/Inc/../../Drivers/CMSIS/DSP/Include/arm_math.h **** #include "core_cm7.h"
 319:Core/Inc/../../Drivers/CMSIS/DSP/Include/arm_math.h **** #define ARM_MATH_DSP
 320:Core/Inc/../../Drivers/CMSIS/DSP/Include/arm_math.h **** #elif defined(ARM_MATH_CM4)
 321:Core/Inc/../../Drivers/CMSIS/DSP/Include/arm_math.h **** #include "core_cm4.h"
 322:Core/Inc/../../Drivers/CMSIS/DSP/Include/arm_math.h **** #define ARM_MATH_DSP
 323:Core/Inc/../../Drivers/CMSIS/DSP/Include/arm_math.h **** #elif defined(ARM_MATH_CM3)
 324:Core/Inc/../../Drivers/CMSIS/DSP/Include/arm_math.h **** #include "core_cm3.h"
 325:Core/Inc/../../Drivers/CMSIS/DSP/Include/arm_math.h **** #elif defined(ARM_MATH_CM0)
 326:Core/Inc/../../Drivers/CMSIS/DSP/Include/arm_math.h **** #include "core_cm0.h"
 327:Core/Inc/../../Drivers/CMSIS/DSP/Include/arm_math.h **** #define ARM_MATH_CM0_FAMILY
 328:Core/Inc/../../Drivers/CMSIS/DSP/Include/arm_math.h **** #elif defined(ARM_MATH_CM0PLUS)
 329:Core/Inc/../../Drivers/CMSIS/DSP/Include/arm_math.h **** #include "core_cm0plus.h"
 330:Core/Inc/../../Drivers/CMSIS/DSP/Include/arm_math.h **** #define ARM_MATH_CM0_FAMILY
 331:Core/Inc/../../Drivers/CMSIS/DSP/Include/arm_math.h **** #elif defined(ARM_MATH_ARMV8MBL)
 332:Core/Inc/../../Drivers/CMSIS/DSP/Include/arm_math.h **** #include "core_armv8mbl.h"
 333:Core/Inc/../../Drivers/CMSIS/DSP/Include/arm_math.h **** #define ARM_MATH_CM0_FAMILY
 334:Core/Inc/../../Drivers/CMSIS/DSP/Include/arm_math.h **** #elif defined(ARM_MATH_ARMV8MML)
 335:Core/Inc/../../Drivers/CMSIS/DSP/Include/arm_math.h **** #include "core_armv8mml.h"
 336:Core/Inc/../../Drivers/CMSIS/DSP/Include/arm_math.h **** #if (defined(__DSP_PRESENT) && (__DSP_PRESENT == 1))
 337:Core/Inc/../../Drivers/CMSIS/DSP/Include/arm_math.h **** #define ARM_MATH_DSP
 338:Core/Inc/../../Drivers/CMSIS/DSP/Include/arm_math.h **** #endif
 339:Core/Inc/../../Drivers/CMSIS/DSP/Include/arm_math.h **** #else
 340:Core/Inc/../../Drivers/CMSIS/DSP/Include/arm_math.h **** #error "Define according the used Cortex core ARM_MATH_CM7, ARM_MATH_CM4, ARM_MATH_CM3, ARM_MATH_CM
 341:Core/Inc/../../Drivers/CMSIS/DSP/Include/arm_math.h **** #endif
 342:Core/Inc/../../Drivers/CMSIS/DSP/Include/arm_math.h **** 
 343:Core/Inc/../../Drivers/CMSIS/DSP/Include/arm_math.h **** #undef __CMSIS_GENERIC /* enable NVIC and Systick functions */
 344:Core/Inc/../../Drivers/CMSIS/DSP/Include/arm_math.h **** #include "string.h"
 345:Core/Inc/../../Drivers/CMSIS/DSP/Include/arm_math.h **** #include "math.h"
 346:Core/Inc/../../Drivers/CMSIS/DSP/Include/arm_math.h **** #ifdef __cplusplus
 347:Core/Inc/../../Drivers/CMSIS/DSP/Include/arm_math.h **** extern "C"
 348:Core/Inc/../../Drivers/CMSIS/DSP/Include/arm_math.h **** {
 349:Core/Inc/../../Drivers/CMSIS/DSP/Include/arm_math.h **** #endif
 350:Core/Inc/../../Drivers/CMSIS/DSP/Include/arm_math.h **** 
 351:Core/Inc/../../Drivers/CMSIS/DSP/Include/arm_math.h ****   /**
 352:Core/Inc/../../Drivers/CMSIS/DSP/Include/arm_math.h ****    * @brief Macros required for reciprocal calculation in Normalized LMS
 353:Core/Inc/../../Drivers/CMSIS/DSP/Include/arm_math.h ****    */
 354:Core/Inc/../../Drivers/CMSIS/DSP/Include/arm_math.h **** 
 355:Core/Inc/../../Drivers/CMSIS/DSP/Include/arm_math.h **** #define DELTA_Q31 (0x100)
 356:Core/Inc/../../Drivers/CMSIS/DSP/Include/arm_math.h **** #define DELTA_Q15 0x5
 357:Core/Inc/../../Drivers/CMSIS/DSP/Include/arm_math.h **** #define INDEX_MASK 0x0000003F
 358:Core/Inc/../../Drivers/CMSIS/DSP/Include/arm_math.h **** #ifndef PI
 359:Core/Inc/../../Drivers/CMSIS/DSP/Include/arm_math.h **** #define PI 3.14159265358979f
 360:Core/Inc/../../Drivers/CMSIS/DSP/Include/arm_math.h **** #endif
 361:Core/Inc/../../Drivers/CMSIS/DSP/Include/arm_math.h **** 
 362:Core/Inc/../../Drivers/CMSIS/DSP/Include/arm_math.h ****   /**
 363:Core/Inc/../../Drivers/CMSIS/DSP/Include/arm_math.h ****    * @brief Macros required for SINE and COSINE Fast math approximations
 364:Core/Inc/../../Drivers/CMSIS/DSP/Include/arm_math.h ****    */
 365:Core/Inc/../../Drivers/CMSIS/DSP/Include/arm_math.h **** 
 366:Core/Inc/../../Drivers/CMSIS/DSP/Include/arm_math.h **** #define FAST_MATH_TABLE_SIZE 512
 367:Core/Inc/../../Drivers/CMSIS/DSP/Include/arm_math.h **** #define FAST_MATH_Q31_SHIFT (32 - 10)
 368:Core/Inc/../../Drivers/CMSIS/DSP/Include/arm_math.h **** #define FAST_MATH_Q15_SHIFT (16 - 10)
 369:Core/Inc/../../Drivers/CMSIS/DSP/Include/arm_math.h **** #define CONTROLLER_Q31_SHIFT (32 - 9)
 370:Core/Inc/../../Drivers/CMSIS/DSP/Include/arm_math.h **** #define TABLE_SPACING_Q31 0x400000
 371:Core/Inc/../../Drivers/CMSIS/DSP/Include/arm_math.h **** #define TABLE_SPACING_Q15 0x80
 372:Core/Inc/../../Drivers/CMSIS/DSP/Include/arm_math.h **** 
 373:Core/Inc/../../Drivers/CMSIS/DSP/Include/arm_math.h ****   /**
ARM GAS  /var/folders/n6/c271nzx11xl4r4_m7sqjlt0m0000gn/T//ccGo3Vqh.s 			page 35


 374:Core/Inc/../../Drivers/CMSIS/DSP/Include/arm_math.h ****    * @brief Macros required for SINE and COSINE Controller functions
 375:Core/Inc/../../Drivers/CMSIS/DSP/Include/arm_math.h ****    */
 376:Core/Inc/../../Drivers/CMSIS/DSP/Include/arm_math.h ****   /* 1.31(q31) Fixed value of 2/360 */
 377:Core/Inc/../../Drivers/CMSIS/DSP/Include/arm_math.h ****   /* -1 to +1 is divided into 360 values so total spacing is (2/360) */
 378:Core/Inc/../../Drivers/CMSIS/DSP/Include/arm_math.h **** #define INPUT_SPACING 0xB60B61
 379:Core/Inc/../../Drivers/CMSIS/DSP/Include/arm_math.h **** 
 380:Core/Inc/../../Drivers/CMSIS/DSP/Include/arm_math.h ****   /**
 381:Core/Inc/../../Drivers/CMSIS/DSP/Include/arm_math.h ****    * @brief Macro for Unaligned Support
 382:Core/Inc/../../Drivers/CMSIS/DSP/Include/arm_math.h ****    */
 383:Core/Inc/../../Drivers/CMSIS/DSP/Include/arm_math.h **** #ifndef UNALIGNED_SUPPORT_DISABLE
 384:Core/Inc/../../Drivers/CMSIS/DSP/Include/arm_math.h **** #define ALIGN4
 385:Core/Inc/../../Drivers/CMSIS/DSP/Include/arm_math.h **** #else
 386:Core/Inc/../../Drivers/CMSIS/DSP/Include/arm_math.h **** #if defined(__GNUC__)
 387:Core/Inc/../../Drivers/CMSIS/DSP/Include/arm_math.h **** #define ALIGN4 __attribute__((aligned(4)))
 388:Core/Inc/../../Drivers/CMSIS/DSP/Include/arm_math.h **** #else
 389:Core/Inc/../../Drivers/CMSIS/DSP/Include/arm_math.h **** #define ALIGN4 __align(4)
 390:Core/Inc/../../Drivers/CMSIS/DSP/Include/arm_math.h **** #endif
 391:Core/Inc/../../Drivers/CMSIS/DSP/Include/arm_math.h **** #endif /* #ifndef UNALIGNED_SUPPORT_DISABLE */
 392:Core/Inc/../../Drivers/CMSIS/DSP/Include/arm_math.h **** 
 393:Core/Inc/../../Drivers/CMSIS/DSP/Include/arm_math.h ****   /**
 394:Core/Inc/../../Drivers/CMSIS/DSP/Include/arm_math.h ****    * @brief Error status returned by some functions in the library.
 395:Core/Inc/../../Drivers/CMSIS/DSP/Include/arm_math.h ****    */
 396:Core/Inc/../../Drivers/CMSIS/DSP/Include/arm_math.h **** 
 397:Core/Inc/../../Drivers/CMSIS/DSP/Include/arm_math.h ****   typedef enum
 398:Core/Inc/../../Drivers/CMSIS/DSP/Include/arm_math.h ****   {
 399:Core/Inc/../../Drivers/CMSIS/DSP/Include/arm_math.h ****     ARM_MATH_SUCCESS = 0,         /**< No error */
 400:Core/Inc/../../Drivers/CMSIS/DSP/Include/arm_math.h ****     ARM_MATH_ARGUMENT_ERROR = -1, /**< One or more arguments are incorrect */
 401:Core/Inc/../../Drivers/CMSIS/DSP/Include/arm_math.h ****     ARM_MATH_LENGTH_ERROR = -2,   /**< Length of data buffer is incorrect */
 402:Core/Inc/../../Drivers/CMSIS/DSP/Include/arm_math.h ****     ARM_MATH_SIZE_MISMATCH = -3,  /**< Size of matrices is not compatible with the operation. */
 403:Core/Inc/../../Drivers/CMSIS/DSP/Include/arm_math.h ****     ARM_MATH_NANINF = -4,         /**< Not-a-number (NaN) or infinity is generated */
 404:Core/Inc/../../Drivers/CMSIS/DSP/Include/arm_math.h ****     ARM_MATH_SINGULAR = -5,       /**< Generated by matrix inversion if the input matrix is singula
 405:Core/Inc/../../Drivers/CMSIS/DSP/Include/arm_math.h ****     ARM_MATH_TEST_FAILURE = -6    /**< Test Failed  */
 406:Core/Inc/../../Drivers/CMSIS/DSP/Include/arm_math.h ****   } arm_status;
 407:Core/Inc/../../Drivers/CMSIS/DSP/Include/arm_math.h **** 
 408:Core/Inc/../../Drivers/CMSIS/DSP/Include/arm_math.h ****   /**
 409:Core/Inc/../../Drivers/CMSIS/DSP/Include/arm_math.h ****    * @brief 8-bit fractional data type in 1.7 format.
 410:Core/Inc/../../Drivers/CMSIS/DSP/Include/arm_math.h ****    */
 411:Core/Inc/../../Drivers/CMSIS/DSP/Include/arm_math.h ****   typedef int8_t q7_t;
 412:Core/Inc/../../Drivers/CMSIS/DSP/Include/arm_math.h **** 
 413:Core/Inc/../../Drivers/CMSIS/DSP/Include/arm_math.h ****   /**
 414:Core/Inc/../../Drivers/CMSIS/DSP/Include/arm_math.h ****    * @brief 16-bit fractional data type in 1.15 format.
 415:Core/Inc/../../Drivers/CMSIS/DSP/Include/arm_math.h ****    */
 416:Core/Inc/../../Drivers/CMSIS/DSP/Include/arm_math.h ****   typedef int16_t q15_t;
 417:Core/Inc/../../Drivers/CMSIS/DSP/Include/arm_math.h **** 
 418:Core/Inc/../../Drivers/CMSIS/DSP/Include/arm_math.h ****   /**
 419:Core/Inc/../../Drivers/CMSIS/DSP/Include/arm_math.h ****    * @brief 32-bit fractional data type in 1.31 format.
 420:Core/Inc/../../Drivers/CMSIS/DSP/Include/arm_math.h ****    */
 421:Core/Inc/../../Drivers/CMSIS/DSP/Include/arm_math.h ****   typedef int32_t q31_t;
 422:Core/Inc/../../Drivers/CMSIS/DSP/Include/arm_math.h **** 
 423:Core/Inc/../../Drivers/CMSIS/DSP/Include/arm_math.h ****   /**
 424:Core/Inc/../../Drivers/CMSIS/DSP/Include/arm_math.h ****    * @brief 64-bit fractional data type in 1.63 format.
 425:Core/Inc/../../Drivers/CMSIS/DSP/Include/arm_math.h ****    */
 426:Core/Inc/../../Drivers/CMSIS/DSP/Include/arm_math.h ****   typedef int64_t q63_t;
 427:Core/Inc/../../Drivers/CMSIS/DSP/Include/arm_math.h **** 
 428:Core/Inc/../../Drivers/CMSIS/DSP/Include/arm_math.h ****   /**
 429:Core/Inc/../../Drivers/CMSIS/DSP/Include/arm_math.h ****    * @brief 32-bit floating-point type definition.
 430:Core/Inc/../../Drivers/CMSIS/DSP/Include/arm_math.h ****    */
ARM GAS  /var/folders/n6/c271nzx11xl4r4_m7sqjlt0m0000gn/T//ccGo3Vqh.s 			page 36


 431:Core/Inc/../../Drivers/CMSIS/DSP/Include/arm_math.h ****   typedef float float32_t;
 432:Core/Inc/../../Drivers/CMSIS/DSP/Include/arm_math.h **** 
 433:Core/Inc/../../Drivers/CMSIS/DSP/Include/arm_math.h ****   /**
 434:Core/Inc/../../Drivers/CMSIS/DSP/Include/arm_math.h ****    * @brief 64-bit floating-point type definition.
 435:Core/Inc/../../Drivers/CMSIS/DSP/Include/arm_math.h ****    */
 436:Core/Inc/../../Drivers/CMSIS/DSP/Include/arm_math.h ****   typedef double float64_t;
 437:Core/Inc/../../Drivers/CMSIS/DSP/Include/arm_math.h **** 
 438:Core/Inc/../../Drivers/CMSIS/DSP/Include/arm_math.h ****   /**
 439:Core/Inc/../../Drivers/CMSIS/DSP/Include/arm_math.h ****    * @brief definition to read/write two 16 bit values.
 440:Core/Inc/../../Drivers/CMSIS/DSP/Include/arm_math.h ****    */
 441:Core/Inc/../../Drivers/CMSIS/DSP/Include/arm_math.h **** #if defined(__CC_ARM)
 442:Core/Inc/../../Drivers/CMSIS/DSP/Include/arm_math.h **** #define __SIMD32_TYPE int32_t __packed
 443:Core/Inc/../../Drivers/CMSIS/DSP/Include/arm_math.h **** #define CMSIS_UNUSED __attribute__((unused))
 444:Core/Inc/../../Drivers/CMSIS/DSP/Include/arm_math.h **** #define CMSIS_INLINE __attribute__((always_inline))
 445:Core/Inc/../../Drivers/CMSIS/DSP/Include/arm_math.h **** 
 446:Core/Inc/../../Drivers/CMSIS/DSP/Include/arm_math.h **** #elif defined(__ARMCC_VERSION) && (__ARMCC_VERSION >= 6010050)
 447:Core/Inc/../../Drivers/CMSIS/DSP/Include/arm_math.h **** #define __SIMD32_TYPE int32_t
 448:Core/Inc/../../Drivers/CMSIS/DSP/Include/arm_math.h **** #define CMSIS_UNUSED __attribute__((unused))
 449:Core/Inc/../../Drivers/CMSIS/DSP/Include/arm_math.h **** #define CMSIS_INLINE __attribute__((always_inline))
 450:Core/Inc/../../Drivers/CMSIS/DSP/Include/arm_math.h **** 
 451:Core/Inc/../../Drivers/CMSIS/DSP/Include/arm_math.h **** #elif defined(__GNUC__)
 452:Core/Inc/../../Drivers/CMSIS/DSP/Include/arm_math.h **** #define __SIMD32_TYPE int32_t
 453:Core/Inc/../../Drivers/CMSIS/DSP/Include/arm_math.h **** #define CMSIS_UNUSED __attribute__((unused))
 454:Core/Inc/../../Drivers/CMSIS/DSP/Include/arm_math.h **** #define CMSIS_INLINE __attribute__((always_inline))
 455:Core/Inc/../../Drivers/CMSIS/DSP/Include/arm_math.h **** 
 456:Core/Inc/../../Drivers/CMSIS/DSP/Include/arm_math.h **** #elif defined(__ICCARM__)
 457:Core/Inc/../../Drivers/CMSIS/DSP/Include/arm_math.h **** #define __SIMD32_TYPE int32_t __packed
 458:Core/Inc/../../Drivers/CMSIS/DSP/Include/arm_math.h **** #define CMSIS_UNUSED
 459:Core/Inc/../../Drivers/CMSIS/DSP/Include/arm_math.h **** #define CMSIS_INLINE
 460:Core/Inc/../../Drivers/CMSIS/DSP/Include/arm_math.h **** 
 461:Core/Inc/../../Drivers/CMSIS/DSP/Include/arm_math.h **** #elif defined(__TI_ARM__)
 462:Core/Inc/../../Drivers/CMSIS/DSP/Include/arm_math.h **** #define __SIMD32_TYPE int32_t
 463:Core/Inc/../../Drivers/CMSIS/DSP/Include/arm_math.h **** #define CMSIS_UNUSED __attribute__((unused))
 464:Core/Inc/../../Drivers/CMSIS/DSP/Include/arm_math.h **** #define CMSIS_INLINE
 465:Core/Inc/../../Drivers/CMSIS/DSP/Include/arm_math.h **** 
 466:Core/Inc/../../Drivers/CMSIS/DSP/Include/arm_math.h **** #elif defined(__CSMC__)
 467:Core/Inc/../../Drivers/CMSIS/DSP/Include/arm_math.h **** #define __SIMD32_TYPE int32_t
 468:Core/Inc/../../Drivers/CMSIS/DSP/Include/arm_math.h **** #define CMSIS_UNUSED
 469:Core/Inc/../../Drivers/CMSIS/DSP/Include/arm_math.h **** #define CMSIS_INLINE
 470:Core/Inc/../../Drivers/CMSIS/DSP/Include/arm_math.h **** 
 471:Core/Inc/../../Drivers/CMSIS/DSP/Include/arm_math.h **** #elif defined(__TASKING__)
 472:Core/Inc/../../Drivers/CMSIS/DSP/Include/arm_math.h **** #define __SIMD32_TYPE __unaligned int32_t
 473:Core/Inc/../../Drivers/CMSIS/DSP/Include/arm_math.h **** #define CMSIS_UNUSED
 474:Core/Inc/../../Drivers/CMSIS/DSP/Include/arm_math.h **** #define CMSIS_INLINE
 475:Core/Inc/../../Drivers/CMSIS/DSP/Include/arm_math.h **** 
 476:Core/Inc/../../Drivers/CMSIS/DSP/Include/arm_math.h **** #else
 477:Core/Inc/../../Drivers/CMSIS/DSP/Include/arm_math.h **** #error Unknown compiler
 478:Core/Inc/../../Drivers/CMSIS/DSP/Include/arm_math.h **** #endif
 479:Core/Inc/../../Drivers/CMSIS/DSP/Include/arm_math.h **** 
 480:Core/Inc/../../Drivers/CMSIS/DSP/Include/arm_math.h **** #define __SIMD32(addr) (*(__SIMD32_TYPE **)&(addr))
 481:Core/Inc/../../Drivers/CMSIS/DSP/Include/arm_math.h **** #define __SIMD32_CONST(addr) ((__SIMD32_TYPE *)(addr))
 482:Core/Inc/../../Drivers/CMSIS/DSP/Include/arm_math.h **** #define _SIMD32_OFFSET(addr) (*(__SIMD32_TYPE *)(addr))
 483:Core/Inc/../../Drivers/CMSIS/DSP/Include/arm_math.h **** #define __SIMD64(addr) (*(int64_t **)&(addr))
 484:Core/Inc/../../Drivers/CMSIS/DSP/Include/arm_math.h **** 
 485:Core/Inc/../../Drivers/CMSIS/DSP/Include/arm_math.h **** #if !defined(ARM_MATH_DSP)
 486:Core/Inc/../../Drivers/CMSIS/DSP/Include/arm_math.h ****   /**
 487:Core/Inc/../../Drivers/CMSIS/DSP/Include/arm_math.h ****    * @brief definition to pack two 16 bit values.
ARM GAS  /var/folders/n6/c271nzx11xl4r4_m7sqjlt0m0000gn/T//ccGo3Vqh.s 			page 37


 488:Core/Inc/../../Drivers/CMSIS/DSP/Include/arm_math.h ****    */
 489:Core/Inc/../../Drivers/CMSIS/DSP/Include/arm_math.h **** #define __PKHBT(ARG1, ARG2, ARG3) ((((int32_t)(ARG1) << 0) & (int32_t)0x0000FFFF) | \
 490:Core/Inc/../../Drivers/CMSIS/DSP/Include/arm_math.h ****                                    (((int32_t)(ARG2) << ARG3) & (int32_t)0xFFFF0000))
 491:Core/Inc/../../Drivers/CMSIS/DSP/Include/arm_math.h **** #define __PKHTB(ARG1, ARG2, ARG3) ((((int32_t)(ARG1) << 0) & (int32_t)0xFFFF0000) | \
 492:Core/Inc/../../Drivers/CMSIS/DSP/Include/arm_math.h ****                                    (((int32_t)(ARG2) >> ARG3) & (int32_t)0x0000FFFF))
 493:Core/Inc/../../Drivers/CMSIS/DSP/Include/arm_math.h **** 
 494:Core/Inc/../../Drivers/CMSIS/DSP/Include/arm_math.h **** #endif /* !defined (ARM_MATH_DSP) */
 495:Core/Inc/../../Drivers/CMSIS/DSP/Include/arm_math.h **** 
 496:Core/Inc/../../Drivers/CMSIS/DSP/Include/arm_math.h ****   /**
 497:Core/Inc/../../Drivers/CMSIS/DSP/Include/arm_math.h ****    * @brief definition to pack four 8 bit values.
 498:Core/Inc/../../Drivers/CMSIS/DSP/Include/arm_math.h ****    */
 499:Core/Inc/../../Drivers/CMSIS/DSP/Include/arm_math.h **** #ifndef ARM_MATH_BIG_ENDIAN
 500:Core/Inc/../../Drivers/CMSIS/DSP/Include/arm_math.h **** 
 501:Core/Inc/../../Drivers/CMSIS/DSP/Include/arm_math.h **** #define __PACKq7(v0, v1, v2, v3) ((((int32_t)(v0) << 0) & (int32_t)0x000000FF) |  \
 502:Core/Inc/../../Drivers/CMSIS/DSP/Include/arm_math.h ****                                   (((int32_t)(v1) << 8) & (int32_t)0x0000FF00) |  \
 503:Core/Inc/../../Drivers/CMSIS/DSP/Include/arm_math.h ****                                   (((int32_t)(v2) << 16) & (int32_t)0x00FF0000) | \
 504:Core/Inc/../../Drivers/CMSIS/DSP/Include/arm_math.h ****                                   (((int32_t)(v3) << 24) & (int32_t)0xFF000000))
 505:Core/Inc/../../Drivers/CMSIS/DSP/Include/arm_math.h **** #else
 506:Core/Inc/../../Drivers/CMSIS/DSP/Include/arm_math.h **** 
 507:Core/Inc/../../Drivers/CMSIS/DSP/Include/arm_math.h **** #define __PACKq7(v0, v1, v2, v3) ((((int32_t)(v3) << 0) & (int32_t)0x000000FF) |  \
 508:Core/Inc/../../Drivers/CMSIS/DSP/Include/arm_math.h ****                                   (((int32_t)(v2) << 8) & (int32_t)0x0000FF00) |  \
 509:Core/Inc/../../Drivers/CMSIS/DSP/Include/arm_math.h ****                                   (((int32_t)(v1) << 16) & (int32_t)0x00FF0000) | \
 510:Core/Inc/../../Drivers/CMSIS/DSP/Include/arm_math.h ****                                   (((int32_t)(v0) << 24) & (int32_t)0xFF000000))
 511:Core/Inc/../../Drivers/CMSIS/DSP/Include/arm_math.h **** 
 512:Core/Inc/../../Drivers/CMSIS/DSP/Include/arm_math.h **** #endif
 513:Core/Inc/../../Drivers/CMSIS/DSP/Include/arm_math.h **** 
 514:Core/Inc/../../Drivers/CMSIS/DSP/Include/arm_math.h ****   /**
 515:Core/Inc/../../Drivers/CMSIS/DSP/Include/arm_math.h ****    * @brief Clips Q63 to Q31 values.
 516:Core/Inc/../../Drivers/CMSIS/DSP/Include/arm_math.h ****    */
 517:Core/Inc/../../Drivers/CMSIS/DSP/Include/arm_math.h ****   CMSIS_INLINE __STATIC_INLINE q31_t clip_q63_to_q31(
 518:Core/Inc/../../Drivers/CMSIS/DSP/Include/arm_math.h ****       q63_t x)
 519:Core/Inc/../../Drivers/CMSIS/DSP/Include/arm_math.h ****   {
 520:Core/Inc/../../Drivers/CMSIS/DSP/Include/arm_math.h ****     return ((q31_t)(x >> 32) != ((q31_t)x >> 31)) ? ((0x7FFFFFFF ^ ((q31_t)(x >> 63)))) : (q31_t)x;
 521:Core/Inc/../../Drivers/CMSIS/DSP/Include/arm_math.h ****   }
 522:Core/Inc/../../Drivers/CMSIS/DSP/Include/arm_math.h **** 
 523:Core/Inc/../../Drivers/CMSIS/DSP/Include/arm_math.h ****   /**
 524:Core/Inc/../../Drivers/CMSIS/DSP/Include/arm_math.h ****    * @brief Clips Q63 to Q15 values.
 525:Core/Inc/../../Drivers/CMSIS/DSP/Include/arm_math.h ****    */
 526:Core/Inc/../../Drivers/CMSIS/DSP/Include/arm_math.h ****   CMSIS_INLINE __STATIC_INLINE q15_t clip_q63_to_q15(
 527:Core/Inc/../../Drivers/CMSIS/DSP/Include/arm_math.h ****       q63_t x)
 528:Core/Inc/../../Drivers/CMSIS/DSP/Include/arm_math.h ****   {
 529:Core/Inc/../../Drivers/CMSIS/DSP/Include/arm_math.h ****     return ((q31_t)(x >> 32) != ((q31_t)x >> 31)) ? ((0x7FFF ^ ((q15_t)(x >> 63)))) : (q15_t)(x >> 
 530:Core/Inc/../../Drivers/CMSIS/DSP/Include/arm_math.h ****   }
 531:Core/Inc/../../Drivers/CMSIS/DSP/Include/arm_math.h **** 
 532:Core/Inc/../../Drivers/CMSIS/DSP/Include/arm_math.h ****   /**
 533:Core/Inc/../../Drivers/CMSIS/DSP/Include/arm_math.h ****    * @brief Clips Q31 to Q7 values.
 534:Core/Inc/../../Drivers/CMSIS/DSP/Include/arm_math.h ****    */
 535:Core/Inc/../../Drivers/CMSIS/DSP/Include/arm_math.h ****   CMSIS_INLINE __STATIC_INLINE q7_t clip_q31_to_q7(
 536:Core/Inc/../../Drivers/CMSIS/DSP/Include/arm_math.h ****       q31_t x)
 537:Core/Inc/../../Drivers/CMSIS/DSP/Include/arm_math.h ****   {
 538:Core/Inc/../../Drivers/CMSIS/DSP/Include/arm_math.h ****     return ((q31_t)(x >> 24) != ((q31_t)x >> 23)) ? ((0x7F ^ ((q7_t)(x >> 31)))) : (q7_t)x;
 539:Core/Inc/../../Drivers/CMSIS/DSP/Include/arm_math.h ****   }
 540:Core/Inc/../../Drivers/CMSIS/DSP/Include/arm_math.h **** 
 541:Core/Inc/../../Drivers/CMSIS/DSP/Include/arm_math.h ****   /**
 542:Core/Inc/../../Drivers/CMSIS/DSP/Include/arm_math.h ****    * @brief Clips Q31 to Q15 values.
 543:Core/Inc/../../Drivers/CMSIS/DSP/Include/arm_math.h ****    */
 544:Core/Inc/../../Drivers/CMSIS/DSP/Include/arm_math.h ****   CMSIS_INLINE __STATIC_INLINE q15_t clip_q31_to_q15(
ARM GAS  /var/folders/n6/c271nzx11xl4r4_m7sqjlt0m0000gn/T//ccGo3Vqh.s 			page 38


 545:Core/Inc/../../Drivers/CMSIS/DSP/Include/arm_math.h ****       q31_t x)
 546:Core/Inc/../../Drivers/CMSIS/DSP/Include/arm_math.h ****   {
 547:Core/Inc/../../Drivers/CMSIS/DSP/Include/arm_math.h ****     return ((q31_t)(x >> 16) != ((q31_t)x >> 15)) ? ((0x7FFF ^ ((q15_t)(x >> 31)))) : (q15_t)x;
 548:Core/Inc/../../Drivers/CMSIS/DSP/Include/arm_math.h ****   }
 549:Core/Inc/../../Drivers/CMSIS/DSP/Include/arm_math.h **** 
 550:Core/Inc/../../Drivers/CMSIS/DSP/Include/arm_math.h ****   /**
 551:Core/Inc/../../Drivers/CMSIS/DSP/Include/arm_math.h ****    * @brief Multiplies 32 X 64 and returns 32 bit result in 2.30 format.
 552:Core/Inc/../../Drivers/CMSIS/DSP/Include/arm_math.h ****    */
 553:Core/Inc/../../Drivers/CMSIS/DSP/Include/arm_math.h **** 
 554:Core/Inc/../../Drivers/CMSIS/DSP/Include/arm_math.h ****   CMSIS_INLINE __STATIC_INLINE q63_t mult32x64(
 555:Core/Inc/../../Drivers/CMSIS/DSP/Include/arm_math.h ****       q63_t x,
 556:Core/Inc/../../Drivers/CMSIS/DSP/Include/arm_math.h ****       q31_t y)
 557:Core/Inc/../../Drivers/CMSIS/DSP/Include/arm_math.h ****   {
 558:Core/Inc/../../Drivers/CMSIS/DSP/Include/arm_math.h ****     return ((((q63_t)(x & 0x00000000FFFFFFFF) * y) >> 32) +
 559:Core/Inc/../../Drivers/CMSIS/DSP/Include/arm_math.h ****             (((q63_t)(x >> 32) * y)));
 560:Core/Inc/../../Drivers/CMSIS/DSP/Include/arm_math.h ****   }
 561:Core/Inc/../../Drivers/CMSIS/DSP/Include/arm_math.h **** 
 562:Core/Inc/../../Drivers/CMSIS/DSP/Include/arm_math.h ****   /**
 563:Core/Inc/../../Drivers/CMSIS/DSP/Include/arm_math.h ****    * @brief Function to Calculates 1/in (reciprocal) value of Q31 Data type.
 564:Core/Inc/../../Drivers/CMSIS/DSP/Include/arm_math.h ****    */
 565:Core/Inc/../../Drivers/CMSIS/DSP/Include/arm_math.h **** 
 566:Core/Inc/../../Drivers/CMSIS/DSP/Include/arm_math.h ****   CMSIS_INLINE __STATIC_INLINE uint32_t arm_recip_q31(
 567:Core/Inc/../../Drivers/CMSIS/DSP/Include/arm_math.h ****       q31_t in,
 568:Core/Inc/../../Drivers/CMSIS/DSP/Include/arm_math.h ****       q31_t *dst,
 569:Core/Inc/../../Drivers/CMSIS/DSP/Include/arm_math.h ****       q31_t *pRecipTable)
 570:Core/Inc/../../Drivers/CMSIS/DSP/Include/arm_math.h ****   {
 571:Core/Inc/../../Drivers/CMSIS/DSP/Include/arm_math.h ****     q31_t out;
 572:Core/Inc/../../Drivers/CMSIS/DSP/Include/arm_math.h ****     uint32_t tempVal;
 573:Core/Inc/../../Drivers/CMSIS/DSP/Include/arm_math.h ****     uint32_t index, i;
 574:Core/Inc/../../Drivers/CMSIS/DSP/Include/arm_math.h ****     uint32_t signBits;
 575:Core/Inc/../../Drivers/CMSIS/DSP/Include/arm_math.h **** 
 576:Core/Inc/../../Drivers/CMSIS/DSP/Include/arm_math.h ****     if (in > 0)
 577:Core/Inc/../../Drivers/CMSIS/DSP/Include/arm_math.h ****     {
 578:Core/Inc/../../Drivers/CMSIS/DSP/Include/arm_math.h ****       signBits = ((uint32_t)(__CLZ(in) - 1));
 579:Core/Inc/../../Drivers/CMSIS/DSP/Include/arm_math.h ****     }
 580:Core/Inc/../../Drivers/CMSIS/DSP/Include/arm_math.h ****     else
 581:Core/Inc/../../Drivers/CMSIS/DSP/Include/arm_math.h ****     {
 582:Core/Inc/../../Drivers/CMSIS/DSP/Include/arm_math.h ****       signBits = ((uint32_t)(__CLZ(-in) - 1));
 583:Core/Inc/../../Drivers/CMSIS/DSP/Include/arm_math.h ****     }
 584:Core/Inc/../../Drivers/CMSIS/DSP/Include/arm_math.h **** 
 585:Core/Inc/../../Drivers/CMSIS/DSP/Include/arm_math.h ****     /* Convert input sample to 1.31 format */
 586:Core/Inc/../../Drivers/CMSIS/DSP/Include/arm_math.h ****     in = (in << signBits);
 587:Core/Inc/../../Drivers/CMSIS/DSP/Include/arm_math.h **** 
 588:Core/Inc/../../Drivers/CMSIS/DSP/Include/arm_math.h ****     /* calculation of index for initial approximated Val */
 589:Core/Inc/../../Drivers/CMSIS/DSP/Include/arm_math.h ****     index = (uint32_t)(in >> 24);
 590:Core/Inc/../../Drivers/CMSIS/DSP/Include/arm_math.h ****     index = (index & INDEX_MASK);
 591:Core/Inc/../../Drivers/CMSIS/DSP/Include/arm_math.h **** 
 592:Core/Inc/../../Drivers/CMSIS/DSP/Include/arm_math.h ****     /* 1.31 with exp 1 */
 593:Core/Inc/../../Drivers/CMSIS/DSP/Include/arm_math.h ****     out = pRecipTable[index];
 594:Core/Inc/../../Drivers/CMSIS/DSP/Include/arm_math.h **** 
 595:Core/Inc/../../Drivers/CMSIS/DSP/Include/arm_math.h ****     /* calculation of reciprocal value */
 596:Core/Inc/../../Drivers/CMSIS/DSP/Include/arm_math.h ****     /* running approximation for two iterations */
 597:Core/Inc/../../Drivers/CMSIS/DSP/Include/arm_math.h ****     for (i = 0U; i < 2U; i++)
 598:Core/Inc/../../Drivers/CMSIS/DSP/Include/arm_math.h ****     {
 599:Core/Inc/../../Drivers/CMSIS/DSP/Include/arm_math.h ****       tempVal = (uint32_t)(((q63_t)in * out) >> 31);
 600:Core/Inc/../../Drivers/CMSIS/DSP/Include/arm_math.h ****       tempVal = 0x7FFFFFFFu - tempVal;
 601:Core/Inc/../../Drivers/CMSIS/DSP/Include/arm_math.h ****       /*      1.31 with exp 1 */
ARM GAS  /var/folders/n6/c271nzx11xl4r4_m7sqjlt0m0000gn/T//ccGo3Vqh.s 			page 39


 602:Core/Inc/../../Drivers/CMSIS/DSP/Include/arm_math.h ****       /* out = (q31_t) (((q63_t) out * tempVal) >> 30); */
 603:Core/Inc/../../Drivers/CMSIS/DSP/Include/arm_math.h ****       out = clip_q63_to_q31(((q63_t)out * tempVal) >> 30);
 604:Core/Inc/../../Drivers/CMSIS/DSP/Include/arm_math.h ****     }
 605:Core/Inc/../../Drivers/CMSIS/DSP/Include/arm_math.h **** 
 606:Core/Inc/../../Drivers/CMSIS/DSP/Include/arm_math.h ****     /* write output */
 607:Core/Inc/../../Drivers/CMSIS/DSP/Include/arm_math.h ****     *dst = out;
 608:Core/Inc/../../Drivers/CMSIS/DSP/Include/arm_math.h **** 
 609:Core/Inc/../../Drivers/CMSIS/DSP/Include/arm_math.h ****     /* return num of signbits of out = 1/in value */
 610:Core/Inc/../../Drivers/CMSIS/DSP/Include/arm_math.h ****     return (signBits + 1U);
 611:Core/Inc/../../Drivers/CMSIS/DSP/Include/arm_math.h ****   }
 612:Core/Inc/../../Drivers/CMSIS/DSP/Include/arm_math.h **** 
 613:Core/Inc/../../Drivers/CMSIS/DSP/Include/arm_math.h ****   /**
 614:Core/Inc/../../Drivers/CMSIS/DSP/Include/arm_math.h ****    * @brief Function to Calculates 1/in (reciprocal) value of Q15 Data type.
 615:Core/Inc/../../Drivers/CMSIS/DSP/Include/arm_math.h ****    */
 616:Core/Inc/../../Drivers/CMSIS/DSP/Include/arm_math.h ****   CMSIS_INLINE __STATIC_INLINE uint32_t arm_recip_q15(
 617:Core/Inc/../../Drivers/CMSIS/DSP/Include/arm_math.h ****       q15_t in,
 618:Core/Inc/../../Drivers/CMSIS/DSP/Include/arm_math.h ****       q15_t *dst,
 619:Core/Inc/../../Drivers/CMSIS/DSP/Include/arm_math.h ****       q15_t *pRecipTable)
 620:Core/Inc/../../Drivers/CMSIS/DSP/Include/arm_math.h ****   {
 621:Core/Inc/../../Drivers/CMSIS/DSP/Include/arm_math.h ****     q15_t out = 0;
 622:Core/Inc/../../Drivers/CMSIS/DSP/Include/arm_math.h ****     uint32_t tempVal = 0;
 623:Core/Inc/../../Drivers/CMSIS/DSP/Include/arm_math.h ****     uint32_t index = 0, i = 0;
 624:Core/Inc/../../Drivers/CMSIS/DSP/Include/arm_math.h ****     uint32_t signBits = 0;
 625:Core/Inc/../../Drivers/CMSIS/DSP/Include/arm_math.h **** 
 626:Core/Inc/../../Drivers/CMSIS/DSP/Include/arm_math.h ****     if (in > 0)
 627:Core/Inc/../../Drivers/CMSIS/DSP/Include/arm_math.h ****     {
 628:Core/Inc/../../Drivers/CMSIS/DSP/Include/arm_math.h ****       signBits = ((uint32_t)(__CLZ(in) - 17));
 629:Core/Inc/../../Drivers/CMSIS/DSP/Include/arm_math.h ****     }
 630:Core/Inc/../../Drivers/CMSIS/DSP/Include/arm_math.h ****     else
 631:Core/Inc/../../Drivers/CMSIS/DSP/Include/arm_math.h ****     {
 632:Core/Inc/../../Drivers/CMSIS/DSP/Include/arm_math.h ****       signBits = ((uint32_t)(__CLZ(-in) - 17));
 633:Core/Inc/../../Drivers/CMSIS/DSP/Include/arm_math.h ****     }
 634:Core/Inc/../../Drivers/CMSIS/DSP/Include/arm_math.h **** 
 635:Core/Inc/../../Drivers/CMSIS/DSP/Include/arm_math.h ****     /* Convert input sample to 1.15 format */
 636:Core/Inc/../../Drivers/CMSIS/DSP/Include/arm_math.h ****     in = (in << signBits);
 637:Core/Inc/../../Drivers/CMSIS/DSP/Include/arm_math.h **** 
 638:Core/Inc/../../Drivers/CMSIS/DSP/Include/arm_math.h ****     /* calculation of index for initial approximated Val */
 639:Core/Inc/../../Drivers/CMSIS/DSP/Include/arm_math.h ****     index = (uint32_t)(in >> 8);
 640:Core/Inc/../../Drivers/CMSIS/DSP/Include/arm_math.h ****     index = (index & INDEX_MASK);
 641:Core/Inc/../../Drivers/CMSIS/DSP/Include/arm_math.h **** 
 642:Core/Inc/../../Drivers/CMSIS/DSP/Include/arm_math.h ****     /*      1.15 with exp 1  */
 643:Core/Inc/../../Drivers/CMSIS/DSP/Include/arm_math.h ****     out = pRecipTable[index];
 644:Core/Inc/../../Drivers/CMSIS/DSP/Include/arm_math.h **** 
 645:Core/Inc/../../Drivers/CMSIS/DSP/Include/arm_math.h ****     /* calculation of reciprocal value */
 646:Core/Inc/../../Drivers/CMSIS/DSP/Include/arm_math.h ****     /* running approximation for two iterations */
 647:Core/Inc/../../Drivers/CMSIS/DSP/Include/arm_math.h ****     for (i = 0U; i < 2U; i++)
 648:Core/Inc/../../Drivers/CMSIS/DSP/Include/arm_math.h ****     {
 649:Core/Inc/../../Drivers/CMSIS/DSP/Include/arm_math.h ****       tempVal = (uint32_t)(((q31_t)in * out) >> 15);
 650:Core/Inc/../../Drivers/CMSIS/DSP/Include/arm_math.h ****       tempVal = 0x7FFFu - tempVal;
 651:Core/Inc/../../Drivers/CMSIS/DSP/Include/arm_math.h ****       /*      1.15 with exp 1 */
 652:Core/Inc/../../Drivers/CMSIS/DSP/Include/arm_math.h ****       out = (q15_t)(((q31_t)out * tempVal) >> 14);
 653:Core/Inc/../../Drivers/CMSIS/DSP/Include/arm_math.h ****       /* out = clip_q31_to_q15(((q31_t) out * tempVal) >> 14); */
 654:Core/Inc/../../Drivers/CMSIS/DSP/Include/arm_math.h ****     }
 655:Core/Inc/../../Drivers/CMSIS/DSP/Include/arm_math.h **** 
 656:Core/Inc/../../Drivers/CMSIS/DSP/Include/arm_math.h ****     /* write output */
 657:Core/Inc/../../Drivers/CMSIS/DSP/Include/arm_math.h ****     *dst = out;
 658:Core/Inc/../../Drivers/CMSIS/DSP/Include/arm_math.h **** 
ARM GAS  /var/folders/n6/c271nzx11xl4r4_m7sqjlt0m0000gn/T//ccGo3Vqh.s 			page 40


 659:Core/Inc/../../Drivers/CMSIS/DSP/Include/arm_math.h ****     /* return num of signbits of out = 1/in value */
 660:Core/Inc/../../Drivers/CMSIS/DSP/Include/arm_math.h ****     return (signBits + 1);
 661:Core/Inc/../../Drivers/CMSIS/DSP/Include/arm_math.h ****   }
 662:Core/Inc/../../Drivers/CMSIS/DSP/Include/arm_math.h **** 
 663:Core/Inc/../../Drivers/CMSIS/DSP/Include/arm_math.h **** /*
 664:Core/Inc/../../Drivers/CMSIS/DSP/Include/arm_math.h ****  * @brief C custom defined intrinsic function for M3 and M0 processors
 665:Core/Inc/../../Drivers/CMSIS/DSP/Include/arm_math.h ****  */
 666:Core/Inc/../../Drivers/CMSIS/DSP/Include/arm_math.h **** #if !defined(ARM_MATH_DSP)
 667:Core/Inc/../../Drivers/CMSIS/DSP/Include/arm_math.h **** 
 668:Core/Inc/../../Drivers/CMSIS/DSP/Include/arm_math.h ****   /*
 669:Core/Inc/../../Drivers/CMSIS/DSP/Include/arm_math.h ****    * @brief C custom defined QADD8 for M3 and M0 processors
 670:Core/Inc/../../Drivers/CMSIS/DSP/Include/arm_math.h ****    */
 671:Core/Inc/../../Drivers/CMSIS/DSP/Include/arm_math.h ****   CMSIS_INLINE __STATIC_INLINE uint32_t __QADD8(
 672:Core/Inc/../../Drivers/CMSIS/DSP/Include/arm_math.h ****       uint32_t x,
 673:Core/Inc/../../Drivers/CMSIS/DSP/Include/arm_math.h ****       uint32_t y)
 674:Core/Inc/../../Drivers/CMSIS/DSP/Include/arm_math.h ****   {
 675:Core/Inc/../../Drivers/CMSIS/DSP/Include/arm_math.h ****     q31_t r, s, t, u;
 676:Core/Inc/../../Drivers/CMSIS/DSP/Include/arm_math.h **** 
 677:Core/Inc/../../Drivers/CMSIS/DSP/Include/arm_math.h ****     r = __SSAT(((((q31_t)x << 24) >> 24) + (((q31_t)y << 24) >> 24)), 8) & (int32_t)0x000000FF;
 678:Core/Inc/../../Drivers/CMSIS/DSP/Include/arm_math.h ****     s = __SSAT(((((q31_t)x << 16) >> 24) + (((q31_t)y << 16) >> 24)), 8) & (int32_t)0x000000FF;
 679:Core/Inc/../../Drivers/CMSIS/DSP/Include/arm_math.h ****     t = __SSAT(((((q31_t)x << 8) >> 24) + (((q31_t)y << 8) >> 24)), 8) & (int32_t)0x000000FF;
 680:Core/Inc/../../Drivers/CMSIS/DSP/Include/arm_math.h ****     u = __SSAT(((((q31_t)x) >> 24) + (((q31_t)y) >> 24)), 8) & (int32_t)0x000000FF;
 681:Core/Inc/../../Drivers/CMSIS/DSP/Include/arm_math.h **** 
 682:Core/Inc/../../Drivers/CMSIS/DSP/Include/arm_math.h ****     return ((uint32_t)((u << 24) | (t << 16) | (s << 8) | (r)));
 683:Core/Inc/../../Drivers/CMSIS/DSP/Include/arm_math.h ****   }
 684:Core/Inc/../../Drivers/CMSIS/DSP/Include/arm_math.h **** 
 685:Core/Inc/../../Drivers/CMSIS/DSP/Include/arm_math.h ****   /*
 686:Core/Inc/../../Drivers/CMSIS/DSP/Include/arm_math.h ****    * @brief C custom defined QSUB8 for M3 and M0 processors
 687:Core/Inc/../../Drivers/CMSIS/DSP/Include/arm_math.h ****    */
 688:Core/Inc/../../Drivers/CMSIS/DSP/Include/arm_math.h ****   CMSIS_INLINE __STATIC_INLINE uint32_t __QSUB8(
 689:Core/Inc/../../Drivers/CMSIS/DSP/Include/arm_math.h ****       uint32_t x,
 690:Core/Inc/../../Drivers/CMSIS/DSP/Include/arm_math.h ****       uint32_t y)
 691:Core/Inc/../../Drivers/CMSIS/DSP/Include/arm_math.h ****   {
 692:Core/Inc/../../Drivers/CMSIS/DSP/Include/arm_math.h ****     q31_t r, s, t, u;
 693:Core/Inc/../../Drivers/CMSIS/DSP/Include/arm_math.h **** 
 694:Core/Inc/../../Drivers/CMSIS/DSP/Include/arm_math.h ****     r = __SSAT(((((q31_t)x << 24) >> 24) - (((q31_t)y << 24) >> 24)), 8) & (int32_t)0x000000FF;
 695:Core/Inc/../../Drivers/CMSIS/DSP/Include/arm_math.h ****     s = __SSAT(((((q31_t)x << 16) >> 24) - (((q31_t)y << 16) >> 24)), 8) & (int32_t)0x000000FF;
 696:Core/Inc/../../Drivers/CMSIS/DSP/Include/arm_math.h ****     t = __SSAT(((((q31_t)x << 8) >> 24) - (((q31_t)y << 8) >> 24)), 8) & (int32_t)0x000000FF;
 697:Core/Inc/../../Drivers/CMSIS/DSP/Include/arm_math.h ****     u = __SSAT(((((q31_t)x) >> 24) - (((q31_t)y) >> 24)), 8) & (int32_t)0x000000FF;
 698:Core/Inc/../../Drivers/CMSIS/DSP/Include/arm_math.h **** 
 699:Core/Inc/../../Drivers/CMSIS/DSP/Include/arm_math.h ****     return ((uint32_t)((u << 24) | (t << 16) | (s << 8) | (r)));
 700:Core/Inc/../../Drivers/CMSIS/DSP/Include/arm_math.h ****   }
 701:Core/Inc/../../Drivers/CMSIS/DSP/Include/arm_math.h **** 
 702:Core/Inc/../../Drivers/CMSIS/DSP/Include/arm_math.h ****   /*
 703:Core/Inc/../../Drivers/CMSIS/DSP/Include/arm_math.h ****    * @brief C custom defined QADD16 for M3 and M0 processors
 704:Core/Inc/../../Drivers/CMSIS/DSP/Include/arm_math.h ****    */
 705:Core/Inc/../../Drivers/CMSIS/DSP/Include/arm_math.h ****   CMSIS_INLINE __STATIC_INLINE uint32_t __QADD16(
 706:Core/Inc/../../Drivers/CMSIS/DSP/Include/arm_math.h ****       uint32_t x,
 707:Core/Inc/../../Drivers/CMSIS/DSP/Include/arm_math.h ****       uint32_t y)
 708:Core/Inc/../../Drivers/CMSIS/DSP/Include/arm_math.h ****   {
 709:Core/Inc/../../Drivers/CMSIS/DSP/Include/arm_math.h ****     /*  q31_t r,     s;  without initialisation 'arm_offset_q15 test' fails  but 'intrinsic' tests 
 710:Core/Inc/../../Drivers/CMSIS/DSP/Include/arm_math.h ****     q31_t r = 0, s = 0;
 711:Core/Inc/../../Drivers/CMSIS/DSP/Include/arm_math.h **** 
 712:Core/Inc/../../Drivers/CMSIS/DSP/Include/arm_math.h ****     r = __SSAT(((((q31_t)x << 16) >> 16) + (((q31_t)y << 16) >> 16)), 16) & (int32_t)0x0000FFFF;
 713:Core/Inc/../../Drivers/CMSIS/DSP/Include/arm_math.h ****     s = __SSAT(((((q31_t)x) >> 16) + (((q31_t)y) >> 16)), 16) & (int32_t)0x0000FFFF;
 714:Core/Inc/../../Drivers/CMSIS/DSP/Include/arm_math.h **** 
 715:Core/Inc/../../Drivers/CMSIS/DSP/Include/arm_math.h ****     return ((uint32_t)((s << 16) | (r)));
ARM GAS  /var/folders/n6/c271nzx11xl4r4_m7sqjlt0m0000gn/T//ccGo3Vqh.s 			page 41


 716:Core/Inc/../../Drivers/CMSIS/DSP/Include/arm_math.h ****   }
 717:Core/Inc/../../Drivers/CMSIS/DSP/Include/arm_math.h **** 
 718:Core/Inc/../../Drivers/CMSIS/DSP/Include/arm_math.h ****   /*
 719:Core/Inc/../../Drivers/CMSIS/DSP/Include/arm_math.h ****    * @brief C custom defined SHADD16 for M3 and M0 processors
 720:Core/Inc/../../Drivers/CMSIS/DSP/Include/arm_math.h ****    */
 721:Core/Inc/../../Drivers/CMSIS/DSP/Include/arm_math.h ****   CMSIS_INLINE __STATIC_INLINE uint32_t __SHADD16(
 722:Core/Inc/../../Drivers/CMSIS/DSP/Include/arm_math.h ****       uint32_t x,
 723:Core/Inc/../../Drivers/CMSIS/DSP/Include/arm_math.h ****       uint32_t y)
 724:Core/Inc/../../Drivers/CMSIS/DSP/Include/arm_math.h ****   {
 725:Core/Inc/../../Drivers/CMSIS/DSP/Include/arm_math.h ****     q31_t r, s;
 726:Core/Inc/../../Drivers/CMSIS/DSP/Include/arm_math.h **** 
 727:Core/Inc/../../Drivers/CMSIS/DSP/Include/arm_math.h ****     r = (((((q31_t)x << 16) >> 16) + (((q31_t)y << 16) >> 16)) >> 1) & (int32_t)0x0000FFFF;
 728:Core/Inc/../../Drivers/CMSIS/DSP/Include/arm_math.h ****     s = (((((q31_t)x) >> 16) + (((q31_t)y) >> 16)) >> 1) & (int32_t)0x0000FFFF;
 729:Core/Inc/../../Drivers/CMSIS/DSP/Include/arm_math.h **** 
 730:Core/Inc/../../Drivers/CMSIS/DSP/Include/arm_math.h ****     return ((uint32_t)((s << 16) | (r)));
 731:Core/Inc/../../Drivers/CMSIS/DSP/Include/arm_math.h ****   }
 732:Core/Inc/../../Drivers/CMSIS/DSP/Include/arm_math.h **** 
 733:Core/Inc/../../Drivers/CMSIS/DSP/Include/arm_math.h ****   /*
 734:Core/Inc/../../Drivers/CMSIS/DSP/Include/arm_math.h ****    * @brief C custom defined QSUB16 for M3 and M0 processors
 735:Core/Inc/../../Drivers/CMSIS/DSP/Include/arm_math.h ****    */
 736:Core/Inc/../../Drivers/CMSIS/DSP/Include/arm_math.h ****   CMSIS_INLINE __STATIC_INLINE uint32_t __QSUB16(
 737:Core/Inc/../../Drivers/CMSIS/DSP/Include/arm_math.h ****       uint32_t x,
 738:Core/Inc/../../Drivers/CMSIS/DSP/Include/arm_math.h ****       uint32_t y)
 739:Core/Inc/../../Drivers/CMSIS/DSP/Include/arm_math.h ****   {
 740:Core/Inc/../../Drivers/CMSIS/DSP/Include/arm_math.h ****     q31_t r, s;
 741:Core/Inc/../../Drivers/CMSIS/DSP/Include/arm_math.h **** 
 742:Core/Inc/../../Drivers/CMSIS/DSP/Include/arm_math.h ****     r = __SSAT(((((q31_t)x << 16) >> 16) - (((q31_t)y << 16) >> 16)), 16) & (int32_t)0x0000FFFF;
 743:Core/Inc/../../Drivers/CMSIS/DSP/Include/arm_math.h ****     s = __SSAT(((((q31_t)x) >> 16) - (((q31_t)y) >> 16)), 16) & (int32_t)0x0000FFFF;
 744:Core/Inc/../../Drivers/CMSIS/DSP/Include/arm_math.h **** 
 745:Core/Inc/../../Drivers/CMSIS/DSP/Include/arm_math.h ****     return ((uint32_t)((s << 16) | (r)));
 746:Core/Inc/../../Drivers/CMSIS/DSP/Include/arm_math.h ****   }
 747:Core/Inc/../../Drivers/CMSIS/DSP/Include/arm_math.h **** 
 748:Core/Inc/../../Drivers/CMSIS/DSP/Include/arm_math.h ****   /*
 749:Core/Inc/../../Drivers/CMSIS/DSP/Include/arm_math.h ****    * @brief C custom defined SHSUB16 for M3 and M0 processors
 750:Core/Inc/../../Drivers/CMSIS/DSP/Include/arm_math.h ****    */
 751:Core/Inc/../../Drivers/CMSIS/DSP/Include/arm_math.h ****   CMSIS_INLINE __STATIC_INLINE uint32_t __SHSUB16(
 752:Core/Inc/../../Drivers/CMSIS/DSP/Include/arm_math.h ****       uint32_t x,
 753:Core/Inc/../../Drivers/CMSIS/DSP/Include/arm_math.h ****       uint32_t y)
 754:Core/Inc/../../Drivers/CMSIS/DSP/Include/arm_math.h ****   {
 755:Core/Inc/../../Drivers/CMSIS/DSP/Include/arm_math.h ****     q31_t r, s;
 756:Core/Inc/../../Drivers/CMSIS/DSP/Include/arm_math.h **** 
 757:Core/Inc/../../Drivers/CMSIS/DSP/Include/arm_math.h ****     r = (((((q31_t)x << 16) >> 16) - (((q31_t)y << 16) >> 16)) >> 1) & (int32_t)0x0000FFFF;
 758:Core/Inc/../../Drivers/CMSIS/DSP/Include/arm_math.h ****     s = (((((q31_t)x) >> 16) - (((q31_t)y) >> 16)) >> 1) & (int32_t)0x0000FFFF;
 759:Core/Inc/../../Drivers/CMSIS/DSP/Include/arm_math.h **** 
 760:Core/Inc/../../Drivers/CMSIS/DSP/Include/arm_math.h ****     return ((uint32_t)((s << 16) | (r)));
 761:Core/Inc/../../Drivers/CMSIS/DSP/Include/arm_math.h ****   }
 762:Core/Inc/../../Drivers/CMSIS/DSP/Include/arm_math.h **** 
 763:Core/Inc/../../Drivers/CMSIS/DSP/Include/arm_math.h ****   /*
 764:Core/Inc/../../Drivers/CMSIS/DSP/Include/arm_math.h ****    * @brief C custom defined QASX for M3 and M0 processors
 765:Core/Inc/../../Drivers/CMSIS/DSP/Include/arm_math.h ****    */
 766:Core/Inc/../../Drivers/CMSIS/DSP/Include/arm_math.h ****   CMSIS_INLINE __STATIC_INLINE uint32_t __QASX(
 767:Core/Inc/../../Drivers/CMSIS/DSP/Include/arm_math.h ****       uint32_t x,
 768:Core/Inc/../../Drivers/CMSIS/DSP/Include/arm_math.h ****       uint32_t y)
 769:Core/Inc/../../Drivers/CMSIS/DSP/Include/arm_math.h ****   {
 770:Core/Inc/../../Drivers/CMSIS/DSP/Include/arm_math.h ****     q31_t r, s;
 771:Core/Inc/../../Drivers/CMSIS/DSP/Include/arm_math.h **** 
 772:Core/Inc/../../Drivers/CMSIS/DSP/Include/arm_math.h ****     r = __SSAT(((((q31_t)x << 16) >> 16) - (((q31_t)y) >> 16)), 16) & (int32_t)0x0000FFFF;
ARM GAS  /var/folders/n6/c271nzx11xl4r4_m7sqjlt0m0000gn/T//ccGo3Vqh.s 			page 42


 773:Core/Inc/../../Drivers/CMSIS/DSP/Include/arm_math.h ****     s = __SSAT(((((q31_t)x) >> 16) + (((q31_t)y << 16) >> 16)), 16) & (int32_t)0x0000FFFF;
 774:Core/Inc/../../Drivers/CMSIS/DSP/Include/arm_math.h **** 
 775:Core/Inc/../../Drivers/CMSIS/DSP/Include/arm_math.h ****     return ((uint32_t)((s << 16) | (r)));
 776:Core/Inc/../../Drivers/CMSIS/DSP/Include/arm_math.h ****   }
 777:Core/Inc/../../Drivers/CMSIS/DSP/Include/arm_math.h **** 
 778:Core/Inc/../../Drivers/CMSIS/DSP/Include/arm_math.h ****   /*
 779:Core/Inc/../../Drivers/CMSIS/DSP/Include/arm_math.h ****    * @brief C custom defined SHASX for M3 and M0 processors
 780:Core/Inc/../../Drivers/CMSIS/DSP/Include/arm_math.h ****    */
 781:Core/Inc/../../Drivers/CMSIS/DSP/Include/arm_math.h ****   CMSIS_INLINE __STATIC_INLINE uint32_t __SHASX(
 782:Core/Inc/../../Drivers/CMSIS/DSP/Include/arm_math.h ****       uint32_t x,
 783:Core/Inc/../../Drivers/CMSIS/DSP/Include/arm_math.h ****       uint32_t y)
 784:Core/Inc/../../Drivers/CMSIS/DSP/Include/arm_math.h ****   {
 785:Core/Inc/../../Drivers/CMSIS/DSP/Include/arm_math.h ****     q31_t r, s;
 786:Core/Inc/../../Drivers/CMSIS/DSP/Include/arm_math.h **** 
 787:Core/Inc/../../Drivers/CMSIS/DSP/Include/arm_math.h ****     r = (((((q31_t)x << 16) >> 16) - (((q31_t)y) >> 16)) >> 1) & (int32_t)0x0000FFFF;
 788:Core/Inc/../../Drivers/CMSIS/DSP/Include/arm_math.h ****     s = (((((q31_t)x) >> 16) + (((q31_t)y << 16) >> 16)) >> 1) & (int32_t)0x0000FFFF;
 789:Core/Inc/../../Drivers/CMSIS/DSP/Include/arm_math.h **** 
 790:Core/Inc/../../Drivers/CMSIS/DSP/Include/arm_math.h ****     return ((uint32_t)((s << 16) | (r)));
 791:Core/Inc/../../Drivers/CMSIS/DSP/Include/arm_math.h ****   }
 792:Core/Inc/../../Drivers/CMSIS/DSP/Include/arm_math.h **** 
 793:Core/Inc/../../Drivers/CMSIS/DSP/Include/arm_math.h ****   /*
 794:Core/Inc/../../Drivers/CMSIS/DSP/Include/arm_math.h ****    * @brief C custom defined QSAX for M3 and M0 processors
 795:Core/Inc/../../Drivers/CMSIS/DSP/Include/arm_math.h ****    */
 796:Core/Inc/../../Drivers/CMSIS/DSP/Include/arm_math.h ****   CMSIS_INLINE __STATIC_INLINE uint32_t __QSAX(
 797:Core/Inc/../../Drivers/CMSIS/DSP/Include/arm_math.h ****       uint32_t x,
 798:Core/Inc/../../Drivers/CMSIS/DSP/Include/arm_math.h ****       uint32_t y)
 799:Core/Inc/../../Drivers/CMSIS/DSP/Include/arm_math.h ****   {
 800:Core/Inc/../../Drivers/CMSIS/DSP/Include/arm_math.h ****     q31_t r, s;
 801:Core/Inc/../../Drivers/CMSIS/DSP/Include/arm_math.h **** 
 802:Core/Inc/../../Drivers/CMSIS/DSP/Include/arm_math.h ****     r = __SSAT(((((q31_t)x << 16) >> 16) + (((q31_t)y) >> 16)), 16) & (int32_t)0x0000FFFF;
 803:Core/Inc/../../Drivers/CMSIS/DSP/Include/arm_math.h ****     s = __SSAT(((((q31_t)x) >> 16) - (((q31_t)y << 16) >> 16)), 16) & (int32_t)0x0000FFFF;
 804:Core/Inc/../../Drivers/CMSIS/DSP/Include/arm_math.h **** 
 805:Core/Inc/../../Drivers/CMSIS/DSP/Include/arm_math.h ****     return ((uint32_t)((s << 16) | (r)));
 806:Core/Inc/../../Drivers/CMSIS/DSP/Include/arm_math.h ****   }
 807:Core/Inc/../../Drivers/CMSIS/DSP/Include/arm_math.h **** 
 808:Core/Inc/../../Drivers/CMSIS/DSP/Include/arm_math.h ****   /*
 809:Core/Inc/../../Drivers/CMSIS/DSP/Include/arm_math.h ****    * @brief C custom defined SHSAX for M3 and M0 processors
 810:Core/Inc/../../Drivers/CMSIS/DSP/Include/arm_math.h ****    */
 811:Core/Inc/../../Drivers/CMSIS/DSP/Include/arm_math.h ****   CMSIS_INLINE __STATIC_INLINE uint32_t __SHSAX(
 812:Core/Inc/../../Drivers/CMSIS/DSP/Include/arm_math.h ****       uint32_t x,
 813:Core/Inc/../../Drivers/CMSIS/DSP/Include/arm_math.h ****       uint32_t y)
 814:Core/Inc/../../Drivers/CMSIS/DSP/Include/arm_math.h ****   {
 815:Core/Inc/../../Drivers/CMSIS/DSP/Include/arm_math.h ****     q31_t r, s;
 816:Core/Inc/../../Drivers/CMSIS/DSP/Include/arm_math.h **** 
 817:Core/Inc/../../Drivers/CMSIS/DSP/Include/arm_math.h ****     r = (((((q31_t)x << 16) >> 16) + (((q31_t)y) >> 16)) >> 1) & (int32_t)0x0000FFFF;
 818:Core/Inc/../../Drivers/CMSIS/DSP/Include/arm_math.h ****     s = (((((q31_t)x) >> 16) - (((q31_t)y << 16) >> 16)) >> 1) & (int32_t)0x0000FFFF;
 819:Core/Inc/../../Drivers/CMSIS/DSP/Include/arm_math.h **** 
 820:Core/Inc/../../Drivers/CMSIS/DSP/Include/arm_math.h ****     return ((uint32_t)((s << 16) | (r)));
 821:Core/Inc/../../Drivers/CMSIS/DSP/Include/arm_math.h ****   }
 822:Core/Inc/../../Drivers/CMSIS/DSP/Include/arm_math.h **** 
 823:Core/Inc/../../Drivers/CMSIS/DSP/Include/arm_math.h ****   /*
 824:Core/Inc/../../Drivers/CMSIS/DSP/Include/arm_math.h ****    * @brief C custom defined SMUSDX for M3 and M0 processors
 825:Core/Inc/../../Drivers/CMSIS/DSP/Include/arm_math.h ****    */
 826:Core/Inc/../../Drivers/CMSIS/DSP/Include/arm_math.h ****   CMSIS_INLINE __STATIC_INLINE uint32_t __SMUSDX(
 827:Core/Inc/../../Drivers/CMSIS/DSP/Include/arm_math.h ****       uint32_t x,
 828:Core/Inc/../../Drivers/CMSIS/DSP/Include/arm_math.h ****       uint32_t y)
 829:Core/Inc/../../Drivers/CMSIS/DSP/Include/arm_math.h ****   {
ARM GAS  /var/folders/n6/c271nzx11xl4r4_m7sqjlt0m0000gn/T//ccGo3Vqh.s 			page 43


 830:Core/Inc/../../Drivers/CMSIS/DSP/Include/arm_math.h ****     return ((uint32_t)(((((q31_t)x << 16) >> 16) * (((q31_t)y) >> 16)) -
 831:Core/Inc/../../Drivers/CMSIS/DSP/Include/arm_math.h ****                        ((((q31_t)x) >> 16) * (((q31_t)y << 16) >> 16))));
 832:Core/Inc/../../Drivers/CMSIS/DSP/Include/arm_math.h ****   }
 833:Core/Inc/../../Drivers/CMSIS/DSP/Include/arm_math.h **** 
 834:Core/Inc/../../Drivers/CMSIS/DSP/Include/arm_math.h ****   /*
 835:Core/Inc/../../Drivers/CMSIS/DSP/Include/arm_math.h ****    * @brief C custom defined SMUADX for M3 and M0 processors
 836:Core/Inc/../../Drivers/CMSIS/DSP/Include/arm_math.h ****    */
 837:Core/Inc/../../Drivers/CMSIS/DSP/Include/arm_math.h ****   CMSIS_INLINE __STATIC_INLINE uint32_t __SMUADX(
 838:Core/Inc/../../Drivers/CMSIS/DSP/Include/arm_math.h ****       uint32_t x,
 839:Core/Inc/../../Drivers/CMSIS/DSP/Include/arm_math.h ****       uint32_t y)
 840:Core/Inc/../../Drivers/CMSIS/DSP/Include/arm_math.h ****   {
 841:Core/Inc/../../Drivers/CMSIS/DSP/Include/arm_math.h ****     return ((uint32_t)(((((q31_t)x << 16) >> 16) * (((q31_t)y) >> 16)) +
 842:Core/Inc/../../Drivers/CMSIS/DSP/Include/arm_math.h ****                        ((((q31_t)x) >> 16) * (((q31_t)y << 16) >> 16))));
 843:Core/Inc/../../Drivers/CMSIS/DSP/Include/arm_math.h ****   }
 844:Core/Inc/../../Drivers/CMSIS/DSP/Include/arm_math.h **** 
 845:Core/Inc/../../Drivers/CMSIS/DSP/Include/arm_math.h ****   /*
 846:Core/Inc/../../Drivers/CMSIS/DSP/Include/arm_math.h ****    * @brief C custom defined QADD for M3 and M0 processors
 847:Core/Inc/../../Drivers/CMSIS/DSP/Include/arm_math.h ****    */
 848:Core/Inc/../../Drivers/CMSIS/DSP/Include/arm_math.h ****   CMSIS_INLINE __STATIC_INLINE int32_t __QADD(
 849:Core/Inc/../../Drivers/CMSIS/DSP/Include/arm_math.h ****       int32_t x,
 850:Core/Inc/../../Drivers/CMSIS/DSP/Include/arm_math.h ****       int32_t y)
 851:Core/Inc/../../Drivers/CMSIS/DSP/Include/arm_math.h ****   {
 852:Core/Inc/../../Drivers/CMSIS/DSP/Include/arm_math.h ****     return ((int32_t)(clip_q63_to_q31((q63_t)x + (q31_t)y)));
 853:Core/Inc/../../Drivers/CMSIS/DSP/Include/arm_math.h ****   }
 854:Core/Inc/../../Drivers/CMSIS/DSP/Include/arm_math.h **** 
 855:Core/Inc/../../Drivers/CMSIS/DSP/Include/arm_math.h ****   /*
 856:Core/Inc/../../Drivers/CMSIS/DSP/Include/arm_math.h ****    * @brief C custom defined QSUB for M3 and M0 processors
 857:Core/Inc/../../Drivers/CMSIS/DSP/Include/arm_math.h ****    */
 858:Core/Inc/../../Drivers/CMSIS/DSP/Include/arm_math.h ****   CMSIS_INLINE __STATIC_INLINE int32_t __QSUB(
 859:Core/Inc/../../Drivers/CMSIS/DSP/Include/arm_math.h ****       int32_t x,
 860:Core/Inc/../../Drivers/CMSIS/DSP/Include/arm_math.h ****       int32_t y)
 861:Core/Inc/../../Drivers/CMSIS/DSP/Include/arm_math.h ****   {
 862:Core/Inc/../../Drivers/CMSIS/DSP/Include/arm_math.h ****     return ((int32_t)(clip_q63_to_q31((q63_t)x - (q31_t)y)));
 863:Core/Inc/../../Drivers/CMSIS/DSP/Include/arm_math.h ****   }
 864:Core/Inc/../../Drivers/CMSIS/DSP/Include/arm_math.h **** 
 865:Core/Inc/../../Drivers/CMSIS/DSP/Include/arm_math.h ****   /*
 866:Core/Inc/../../Drivers/CMSIS/DSP/Include/arm_math.h ****    * @brief C custom defined SMLAD for M3 and M0 processors
 867:Core/Inc/../../Drivers/CMSIS/DSP/Include/arm_math.h ****    */
 868:Core/Inc/../../Drivers/CMSIS/DSP/Include/arm_math.h ****   CMSIS_INLINE __STATIC_INLINE uint32_t __SMLAD(
 869:Core/Inc/../../Drivers/CMSIS/DSP/Include/arm_math.h ****       uint32_t x,
 870:Core/Inc/../../Drivers/CMSIS/DSP/Include/arm_math.h ****       uint32_t y,
 871:Core/Inc/../../Drivers/CMSIS/DSP/Include/arm_math.h ****       uint32_t sum)
 872:Core/Inc/../../Drivers/CMSIS/DSP/Include/arm_math.h ****   {
 873:Core/Inc/../../Drivers/CMSIS/DSP/Include/arm_math.h ****     return ((uint32_t)(((((q31_t)x << 16) >> 16) * (((q31_t)y << 16) >> 16)) +
 874:Core/Inc/../../Drivers/CMSIS/DSP/Include/arm_math.h ****                        ((((q31_t)x) >> 16) * (((q31_t)y) >> 16)) +
 875:Core/Inc/../../Drivers/CMSIS/DSP/Include/arm_math.h ****                        (((q31_t)sum))));
 876:Core/Inc/../../Drivers/CMSIS/DSP/Include/arm_math.h ****   }
 877:Core/Inc/../../Drivers/CMSIS/DSP/Include/arm_math.h **** 
 878:Core/Inc/../../Drivers/CMSIS/DSP/Include/arm_math.h ****   /*
 879:Core/Inc/../../Drivers/CMSIS/DSP/Include/arm_math.h ****    * @brief C custom defined SMLADX for M3 and M0 processors
 880:Core/Inc/../../Drivers/CMSIS/DSP/Include/arm_math.h ****    */
 881:Core/Inc/../../Drivers/CMSIS/DSP/Include/arm_math.h ****   CMSIS_INLINE __STATIC_INLINE uint32_t __SMLADX(
 882:Core/Inc/../../Drivers/CMSIS/DSP/Include/arm_math.h ****       uint32_t x,
 883:Core/Inc/../../Drivers/CMSIS/DSP/Include/arm_math.h ****       uint32_t y,
 884:Core/Inc/../../Drivers/CMSIS/DSP/Include/arm_math.h ****       uint32_t sum)
 885:Core/Inc/../../Drivers/CMSIS/DSP/Include/arm_math.h ****   {
 886:Core/Inc/../../Drivers/CMSIS/DSP/Include/arm_math.h ****     return ((uint32_t)(((((q31_t)x << 16) >> 16) * (((q31_t)y) >> 16)) +
ARM GAS  /var/folders/n6/c271nzx11xl4r4_m7sqjlt0m0000gn/T//ccGo3Vqh.s 			page 44


 887:Core/Inc/../../Drivers/CMSIS/DSP/Include/arm_math.h ****                        ((((q31_t)x) >> 16) * (((q31_t)y << 16) >> 16)) +
 888:Core/Inc/../../Drivers/CMSIS/DSP/Include/arm_math.h ****                        (((q31_t)sum))));
 889:Core/Inc/../../Drivers/CMSIS/DSP/Include/arm_math.h ****   }
 890:Core/Inc/../../Drivers/CMSIS/DSP/Include/arm_math.h **** 
 891:Core/Inc/../../Drivers/CMSIS/DSP/Include/arm_math.h ****   /*
 892:Core/Inc/../../Drivers/CMSIS/DSP/Include/arm_math.h ****    * @brief C custom defined SMLSDX for M3 and M0 processors
 893:Core/Inc/../../Drivers/CMSIS/DSP/Include/arm_math.h ****    */
 894:Core/Inc/../../Drivers/CMSIS/DSP/Include/arm_math.h ****   CMSIS_INLINE __STATIC_INLINE uint32_t __SMLSDX(
 895:Core/Inc/../../Drivers/CMSIS/DSP/Include/arm_math.h ****       uint32_t x,
 896:Core/Inc/../../Drivers/CMSIS/DSP/Include/arm_math.h ****       uint32_t y,
 897:Core/Inc/../../Drivers/CMSIS/DSP/Include/arm_math.h ****       uint32_t sum)
 898:Core/Inc/../../Drivers/CMSIS/DSP/Include/arm_math.h ****   {
 899:Core/Inc/../../Drivers/CMSIS/DSP/Include/arm_math.h ****     return ((uint32_t)(((((q31_t)x << 16) >> 16) * (((q31_t)y) >> 16)) -
 900:Core/Inc/../../Drivers/CMSIS/DSP/Include/arm_math.h ****                        ((((q31_t)x) >> 16) * (((q31_t)y << 16) >> 16)) +
 901:Core/Inc/../../Drivers/CMSIS/DSP/Include/arm_math.h ****                        (((q31_t)sum))));
 902:Core/Inc/../../Drivers/CMSIS/DSP/Include/arm_math.h ****   }
 903:Core/Inc/../../Drivers/CMSIS/DSP/Include/arm_math.h **** 
 904:Core/Inc/../../Drivers/CMSIS/DSP/Include/arm_math.h ****   /*
 905:Core/Inc/../../Drivers/CMSIS/DSP/Include/arm_math.h ****    * @brief C custom defined SMLALD for M3 and M0 processors
 906:Core/Inc/../../Drivers/CMSIS/DSP/Include/arm_math.h ****    */
 907:Core/Inc/../../Drivers/CMSIS/DSP/Include/arm_math.h ****   CMSIS_INLINE __STATIC_INLINE uint64_t __SMLALD(
 908:Core/Inc/../../Drivers/CMSIS/DSP/Include/arm_math.h ****       uint32_t x,
 909:Core/Inc/../../Drivers/CMSIS/DSP/Include/arm_math.h ****       uint32_t y,
 910:Core/Inc/../../Drivers/CMSIS/DSP/Include/arm_math.h ****       uint64_t sum)
 911:Core/Inc/../../Drivers/CMSIS/DSP/Include/arm_math.h ****   {
 912:Core/Inc/../../Drivers/CMSIS/DSP/Include/arm_math.h ****     /*  return (sum + ((q15_t) (x >> 16) * (q15_t) (y >> 16)) + ((q15_t) x * (q15_t) y)); */
 913:Core/Inc/../../Drivers/CMSIS/DSP/Include/arm_math.h ****     return ((uint64_t)(((((q31_t)x << 16) >> 16) * (((q31_t)y << 16) >> 16)) +
 914:Core/Inc/../../Drivers/CMSIS/DSP/Include/arm_math.h ****                        ((((q31_t)x) >> 16) * (((q31_t)y) >> 16)) +
 915:Core/Inc/../../Drivers/CMSIS/DSP/Include/arm_math.h ****                        (((q63_t)sum))));
 916:Core/Inc/../../Drivers/CMSIS/DSP/Include/arm_math.h ****   }
 917:Core/Inc/../../Drivers/CMSIS/DSP/Include/arm_math.h **** 
 918:Core/Inc/../../Drivers/CMSIS/DSP/Include/arm_math.h ****   /*
 919:Core/Inc/../../Drivers/CMSIS/DSP/Include/arm_math.h ****    * @brief C custom defined SMLALDX for M3 and M0 processors
 920:Core/Inc/../../Drivers/CMSIS/DSP/Include/arm_math.h ****    */
 921:Core/Inc/../../Drivers/CMSIS/DSP/Include/arm_math.h ****   CMSIS_INLINE __STATIC_INLINE uint64_t __SMLALDX(
 922:Core/Inc/../../Drivers/CMSIS/DSP/Include/arm_math.h ****       uint32_t x,
 923:Core/Inc/../../Drivers/CMSIS/DSP/Include/arm_math.h ****       uint32_t y,
 924:Core/Inc/../../Drivers/CMSIS/DSP/Include/arm_math.h ****       uint64_t sum)
 925:Core/Inc/../../Drivers/CMSIS/DSP/Include/arm_math.h ****   {
 926:Core/Inc/../../Drivers/CMSIS/DSP/Include/arm_math.h ****     /*  return (sum + ((q15_t) (x >> 16) * (q15_t) y)) + ((q15_t) x * (q15_t) (y >> 16)); */
 927:Core/Inc/../../Drivers/CMSIS/DSP/Include/arm_math.h ****     return ((uint64_t)(((((q31_t)x << 16) >> 16) * (((q31_t)y) >> 16)) +
 928:Core/Inc/../../Drivers/CMSIS/DSP/Include/arm_math.h ****                        ((((q31_t)x) >> 16) * (((q31_t)y << 16) >> 16)) +
 929:Core/Inc/../../Drivers/CMSIS/DSP/Include/arm_math.h ****                        (((q63_t)sum))));
 930:Core/Inc/../../Drivers/CMSIS/DSP/Include/arm_math.h ****   }
 931:Core/Inc/../../Drivers/CMSIS/DSP/Include/arm_math.h **** 
 932:Core/Inc/../../Drivers/CMSIS/DSP/Include/arm_math.h ****   /*
 933:Core/Inc/../../Drivers/CMSIS/DSP/Include/arm_math.h ****    * @brief C custom defined SMUAD for M3 and M0 processors
 934:Core/Inc/../../Drivers/CMSIS/DSP/Include/arm_math.h ****    */
 935:Core/Inc/../../Drivers/CMSIS/DSP/Include/arm_math.h ****   CMSIS_INLINE __STATIC_INLINE uint32_t __SMUAD(
 936:Core/Inc/../../Drivers/CMSIS/DSP/Include/arm_math.h ****       uint32_t x,
 937:Core/Inc/../../Drivers/CMSIS/DSP/Include/arm_math.h ****       uint32_t y)
 938:Core/Inc/../../Drivers/CMSIS/DSP/Include/arm_math.h ****   {
 939:Core/Inc/../../Drivers/CMSIS/DSP/Include/arm_math.h ****     return ((uint32_t)(((((q31_t)x << 16) >> 16) * (((q31_t)y << 16) >> 16)) +
 940:Core/Inc/../../Drivers/CMSIS/DSP/Include/arm_math.h ****                        ((((q31_t)x) >> 16) * (((q31_t)y) >> 16))));
 941:Core/Inc/../../Drivers/CMSIS/DSP/Include/arm_math.h ****   }
 942:Core/Inc/../../Drivers/CMSIS/DSP/Include/arm_math.h **** 
 943:Core/Inc/../../Drivers/CMSIS/DSP/Include/arm_math.h ****   /*
ARM GAS  /var/folders/n6/c271nzx11xl4r4_m7sqjlt0m0000gn/T//ccGo3Vqh.s 			page 45


 944:Core/Inc/../../Drivers/CMSIS/DSP/Include/arm_math.h ****    * @brief C custom defined SMUSD for M3 and M0 processors
 945:Core/Inc/../../Drivers/CMSIS/DSP/Include/arm_math.h ****    */
 946:Core/Inc/../../Drivers/CMSIS/DSP/Include/arm_math.h ****   CMSIS_INLINE __STATIC_INLINE uint32_t __SMUSD(
 947:Core/Inc/../../Drivers/CMSIS/DSP/Include/arm_math.h ****       uint32_t x,
 948:Core/Inc/../../Drivers/CMSIS/DSP/Include/arm_math.h ****       uint32_t y)
 949:Core/Inc/../../Drivers/CMSIS/DSP/Include/arm_math.h ****   {
 950:Core/Inc/../../Drivers/CMSIS/DSP/Include/arm_math.h ****     return ((uint32_t)(((((q31_t)x << 16) >> 16) * (((q31_t)y << 16) >> 16)) -
 951:Core/Inc/../../Drivers/CMSIS/DSP/Include/arm_math.h ****                        ((((q31_t)x) >> 16) * (((q31_t)y) >> 16))));
 952:Core/Inc/../../Drivers/CMSIS/DSP/Include/arm_math.h ****   }
 953:Core/Inc/../../Drivers/CMSIS/DSP/Include/arm_math.h **** 
 954:Core/Inc/../../Drivers/CMSIS/DSP/Include/arm_math.h ****   /*
 955:Core/Inc/../../Drivers/CMSIS/DSP/Include/arm_math.h ****    * @brief C custom defined SXTB16 for M3 and M0 processors
 956:Core/Inc/../../Drivers/CMSIS/DSP/Include/arm_math.h ****    */
 957:Core/Inc/../../Drivers/CMSIS/DSP/Include/arm_math.h ****   CMSIS_INLINE __STATIC_INLINE uint32_t __SXTB16(
 958:Core/Inc/../../Drivers/CMSIS/DSP/Include/arm_math.h ****       uint32_t x)
 959:Core/Inc/../../Drivers/CMSIS/DSP/Include/arm_math.h ****   {
 960:Core/Inc/../../Drivers/CMSIS/DSP/Include/arm_math.h ****     return ((uint32_t)(((((q31_t)x << 24) >> 24) & (q31_t)0x0000FFFF) |
 961:Core/Inc/../../Drivers/CMSIS/DSP/Include/arm_math.h ****                        ((((q31_t)x << 8) >> 8) & (q31_t)0xFFFF0000)));
 962:Core/Inc/../../Drivers/CMSIS/DSP/Include/arm_math.h ****   }
 963:Core/Inc/../../Drivers/CMSIS/DSP/Include/arm_math.h **** 
 964:Core/Inc/../../Drivers/CMSIS/DSP/Include/arm_math.h ****   /*
 965:Core/Inc/../../Drivers/CMSIS/DSP/Include/arm_math.h ****    * @brief C custom defined SMMLA for M3 and M0 processors
 966:Core/Inc/../../Drivers/CMSIS/DSP/Include/arm_math.h ****    */
 967:Core/Inc/../../Drivers/CMSIS/DSP/Include/arm_math.h ****   CMSIS_INLINE __STATIC_INLINE int32_t __SMMLA(
 968:Core/Inc/../../Drivers/CMSIS/DSP/Include/arm_math.h ****       int32_t x,
 969:Core/Inc/../../Drivers/CMSIS/DSP/Include/arm_math.h ****       int32_t y,
 970:Core/Inc/../../Drivers/CMSIS/DSP/Include/arm_math.h ****       int32_t sum)
 971:Core/Inc/../../Drivers/CMSIS/DSP/Include/arm_math.h ****   {
 972:Core/Inc/../../Drivers/CMSIS/DSP/Include/arm_math.h ****     return (sum + (int32_t)(((int64_t)x * y) >> 32));
 973:Core/Inc/../../Drivers/CMSIS/DSP/Include/arm_math.h ****   }
 974:Core/Inc/../../Drivers/CMSIS/DSP/Include/arm_math.h **** 
 975:Core/Inc/../../Drivers/CMSIS/DSP/Include/arm_math.h **** #endif /* !defined (ARM_MATH_DSP) */
 976:Core/Inc/../../Drivers/CMSIS/DSP/Include/arm_math.h **** 
 977:Core/Inc/../../Drivers/CMSIS/DSP/Include/arm_math.h ****   /**
 978:Core/Inc/../../Drivers/CMSIS/DSP/Include/arm_math.h ****    * @brief Instance structure for the Q7 FIR filter.
 979:Core/Inc/../../Drivers/CMSIS/DSP/Include/arm_math.h ****    */
 980:Core/Inc/../../Drivers/CMSIS/DSP/Include/arm_math.h ****   typedef struct
 981:Core/Inc/../../Drivers/CMSIS/DSP/Include/arm_math.h ****   {
 982:Core/Inc/../../Drivers/CMSIS/DSP/Include/arm_math.h ****     uint16_t numTaps; /**< number of filter coefficients in the filter. */
 983:Core/Inc/../../Drivers/CMSIS/DSP/Include/arm_math.h ****     q7_t *pState;     /**< points to the state variable array. The array is of length numTaps+block
 984:Core/Inc/../../Drivers/CMSIS/DSP/Include/arm_math.h ****     q7_t *pCoeffs;    /**< points to the coefficient array. The array is of length numTaps.*/
 985:Core/Inc/../../Drivers/CMSIS/DSP/Include/arm_math.h ****   } arm_fir_instance_q7;
 986:Core/Inc/../../Drivers/CMSIS/DSP/Include/arm_math.h **** 
 987:Core/Inc/../../Drivers/CMSIS/DSP/Include/arm_math.h ****   /**
 988:Core/Inc/../../Drivers/CMSIS/DSP/Include/arm_math.h ****    * @brief Instance structure for the Q15 FIR filter.
 989:Core/Inc/../../Drivers/CMSIS/DSP/Include/arm_math.h ****    */
 990:Core/Inc/../../Drivers/CMSIS/DSP/Include/arm_math.h ****   typedef struct
 991:Core/Inc/../../Drivers/CMSIS/DSP/Include/arm_math.h ****   {
 992:Core/Inc/../../Drivers/CMSIS/DSP/Include/arm_math.h ****     uint16_t numTaps; /**< number of filter coefficients in the filter. */
 993:Core/Inc/../../Drivers/CMSIS/DSP/Include/arm_math.h ****     q15_t *pState;    /**< points to the state variable array. The array is of length numTaps+block
 994:Core/Inc/../../Drivers/CMSIS/DSP/Include/arm_math.h ****     q15_t *pCoeffs;   /**< points to the coefficient array. The array is of length numTaps.*/
 995:Core/Inc/../../Drivers/CMSIS/DSP/Include/arm_math.h ****   } arm_fir_instance_q15;
 996:Core/Inc/../../Drivers/CMSIS/DSP/Include/arm_math.h **** 
 997:Core/Inc/../../Drivers/CMSIS/DSP/Include/arm_math.h ****   /**
 998:Core/Inc/../../Drivers/CMSIS/DSP/Include/arm_math.h ****    * @brief Instance structure for the Q31 FIR filter.
 999:Core/Inc/../../Drivers/CMSIS/DSP/Include/arm_math.h ****    */
1000:Core/Inc/../../Drivers/CMSIS/DSP/Include/arm_math.h ****   typedef struct
ARM GAS  /var/folders/n6/c271nzx11xl4r4_m7sqjlt0m0000gn/T//ccGo3Vqh.s 			page 46


1001:Core/Inc/../../Drivers/CMSIS/DSP/Include/arm_math.h ****   {
1002:Core/Inc/../../Drivers/CMSIS/DSP/Include/arm_math.h ****     uint16_t numTaps; /**< number of filter coefficients in the filter. */
1003:Core/Inc/../../Drivers/CMSIS/DSP/Include/arm_math.h ****     q31_t *pState;    /**< points to the state variable array. The array is of length numTaps+block
1004:Core/Inc/../../Drivers/CMSIS/DSP/Include/arm_math.h ****     q31_t *pCoeffs;   /**< points to the coefficient array. The array is of length numTaps. */
1005:Core/Inc/../../Drivers/CMSIS/DSP/Include/arm_math.h ****   } arm_fir_instance_q31;
1006:Core/Inc/../../Drivers/CMSIS/DSP/Include/arm_math.h **** 
1007:Core/Inc/../../Drivers/CMSIS/DSP/Include/arm_math.h ****   /**
1008:Core/Inc/../../Drivers/CMSIS/DSP/Include/arm_math.h ****    * @brief Instance structure for the floating-point FIR filter.
1009:Core/Inc/../../Drivers/CMSIS/DSP/Include/arm_math.h ****    */
1010:Core/Inc/../../Drivers/CMSIS/DSP/Include/arm_math.h ****   typedef struct
1011:Core/Inc/../../Drivers/CMSIS/DSP/Include/arm_math.h ****   {
1012:Core/Inc/../../Drivers/CMSIS/DSP/Include/arm_math.h ****     uint16_t numTaps;   /**< number of filter coefficients in the filter. */
1013:Core/Inc/../../Drivers/CMSIS/DSP/Include/arm_math.h ****     float32_t *pState;  /**< points to the state variable array. The array is of length numTaps+blo
1014:Core/Inc/../../Drivers/CMSIS/DSP/Include/arm_math.h ****     float32_t *pCoeffs; /**< points to the coefficient array. The array is of length numTaps. */
1015:Core/Inc/../../Drivers/CMSIS/DSP/Include/arm_math.h ****   } arm_fir_instance_f32;
1016:Core/Inc/../../Drivers/CMSIS/DSP/Include/arm_math.h **** 
1017:Core/Inc/../../Drivers/CMSIS/DSP/Include/arm_math.h ****   /**
1018:Core/Inc/../../Drivers/CMSIS/DSP/Include/arm_math.h ****    * @brief Processing function for the Q7 FIR filter.
1019:Core/Inc/../../Drivers/CMSIS/DSP/Include/arm_math.h ****    * @param[in]  S          points to an instance of the Q7 FIR filter structure.
1020:Core/Inc/../../Drivers/CMSIS/DSP/Include/arm_math.h ****    * @param[in]  pSrc       points to the block of input data.
1021:Core/Inc/../../Drivers/CMSIS/DSP/Include/arm_math.h ****    * @param[out] pDst       points to the block of output data.
1022:Core/Inc/../../Drivers/CMSIS/DSP/Include/arm_math.h ****    * @param[in]  blockSize  number of samples to process.
1023:Core/Inc/../../Drivers/CMSIS/DSP/Include/arm_math.h ****    */
1024:Core/Inc/../../Drivers/CMSIS/DSP/Include/arm_math.h ****   void arm_fir_q7(
1025:Core/Inc/../../Drivers/CMSIS/DSP/Include/arm_math.h ****       const arm_fir_instance_q7 *S,
1026:Core/Inc/../../Drivers/CMSIS/DSP/Include/arm_math.h ****       q7_t *pSrc,
1027:Core/Inc/../../Drivers/CMSIS/DSP/Include/arm_math.h ****       q7_t *pDst,
1028:Core/Inc/../../Drivers/CMSIS/DSP/Include/arm_math.h ****       uint32_t blockSize);
1029:Core/Inc/../../Drivers/CMSIS/DSP/Include/arm_math.h **** 
1030:Core/Inc/../../Drivers/CMSIS/DSP/Include/arm_math.h ****   /**
1031:Core/Inc/../../Drivers/CMSIS/DSP/Include/arm_math.h ****    * @brief  Initialization function for the Q7 FIR filter.
1032:Core/Inc/../../Drivers/CMSIS/DSP/Include/arm_math.h ****    * @param[in,out] S          points to an instance of the Q7 FIR structure.
1033:Core/Inc/../../Drivers/CMSIS/DSP/Include/arm_math.h ****    * @param[in]     numTaps    Number of filter coefficients in the filter.
1034:Core/Inc/../../Drivers/CMSIS/DSP/Include/arm_math.h ****    * @param[in]     pCoeffs    points to the filter coefficients.
1035:Core/Inc/../../Drivers/CMSIS/DSP/Include/arm_math.h ****    * @param[in]     pState     points to the state buffer.
1036:Core/Inc/../../Drivers/CMSIS/DSP/Include/arm_math.h ****    * @param[in]     blockSize  number of samples that are processed.
1037:Core/Inc/../../Drivers/CMSIS/DSP/Include/arm_math.h ****    */
1038:Core/Inc/../../Drivers/CMSIS/DSP/Include/arm_math.h ****   void arm_fir_init_q7(
1039:Core/Inc/../../Drivers/CMSIS/DSP/Include/arm_math.h ****       arm_fir_instance_q7 *S,
1040:Core/Inc/../../Drivers/CMSIS/DSP/Include/arm_math.h ****       uint16_t numTaps,
1041:Core/Inc/../../Drivers/CMSIS/DSP/Include/arm_math.h ****       q7_t *pCoeffs,
1042:Core/Inc/../../Drivers/CMSIS/DSP/Include/arm_math.h ****       q7_t *pState,
1043:Core/Inc/../../Drivers/CMSIS/DSP/Include/arm_math.h ****       uint32_t blockSize);
1044:Core/Inc/../../Drivers/CMSIS/DSP/Include/arm_math.h **** 
1045:Core/Inc/../../Drivers/CMSIS/DSP/Include/arm_math.h ****   /**
1046:Core/Inc/../../Drivers/CMSIS/DSP/Include/arm_math.h ****    * @brief Processing function for the Q15 FIR filter.
1047:Core/Inc/../../Drivers/CMSIS/DSP/Include/arm_math.h ****    * @param[in]  S          points to an instance of the Q15 FIR structure.
1048:Core/Inc/../../Drivers/CMSIS/DSP/Include/arm_math.h ****    * @param[in]  pSrc       points to the block of input data.
1049:Core/Inc/../../Drivers/CMSIS/DSP/Include/arm_math.h ****    * @param[out] pDst       points to the block of output data.
1050:Core/Inc/../../Drivers/CMSIS/DSP/Include/arm_math.h ****    * @param[in]  blockSize  number of samples to process.
1051:Core/Inc/../../Drivers/CMSIS/DSP/Include/arm_math.h ****    */
1052:Core/Inc/../../Drivers/CMSIS/DSP/Include/arm_math.h ****   void arm_fir_q15(
1053:Core/Inc/../../Drivers/CMSIS/DSP/Include/arm_math.h ****       const arm_fir_instance_q15 *S,
1054:Core/Inc/../../Drivers/CMSIS/DSP/Include/arm_math.h ****       q15_t *pSrc,
1055:Core/Inc/../../Drivers/CMSIS/DSP/Include/arm_math.h ****       q15_t *pDst,
1056:Core/Inc/../../Drivers/CMSIS/DSP/Include/arm_math.h ****       uint32_t blockSize);
1057:Core/Inc/../../Drivers/CMSIS/DSP/Include/arm_math.h **** 
ARM GAS  /var/folders/n6/c271nzx11xl4r4_m7sqjlt0m0000gn/T//ccGo3Vqh.s 			page 47


1058:Core/Inc/../../Drivers/CMSIS/DSP/Include/arm_math.h ****   /**
1059:Core/Inc/../../Drivers/CMSIS/DSP/Include/arm_math.h ****    * @brief Processing function for the fast Q15 FIR filter for Cortex-M3 and Cortex-M4.
1060:Core/Inc/../../Drivers/CMSIS/DSP/Include/arm_math.h ****    * @param[in]  S          points to an instance of the Q15 FIR filter structure.
1061:Core/Inc/../../Drivers/CMSIS/DSP/Include/arm_math.h ****    * @param[in]  pSrc       points to the block of input data.
1062:Core/Inc/../../Drivers/CMSIS/DSP/Include/arm_math.h ****    * @param[out] pDst       points to the block of output data.
1063:Core/Inc/../../Drivers/CMSIS/DSP/Include/arm_math.h ****    * @param[in]  blockSize  number of samples to process.
1064:Core/Inc/../../Drivers/CMSIS/DSP/Include/arm_math.h ****    */
1065:Core/Inc/../../Drivers/CMSIS/DSP/Include/arm_math.h ****   void arm_fir_fast_q15(
1066:Core/Inc/../../Drivers/CMSIS/DSP/Include/arm_math.h ****       const arm_fir_instance_q15 *S,
1067:Core/Inc/../../Drivers/CMSIS/DSP/Include/arm_math.h ****       q15_t *pSrc,
1068:Core/Inc/../../Drivers/CMSIS/DSP/Include/arm_math.h ****       q15_t *pDst,
1069:Core/Inc/../../Drivers/CMSIS/DSP/Include/arm_math.h ****       uint32_t blockSize);
1070:Core/Inc/../../Drivers/CMSIS/DSP/Include/arm_math.h **** 
1071:Core/Inc/../../Drivers/CMSIS/DSP/Include/arm_math.h ****   /**
1072:Core/Inc/../../Drivers/CMSIS/DSP/Include/arm_math.h ****    * @brief  Initialization function for the Q15 FIR filter.
1073:Core/Inc/../../Drivers/CMSIS/DSP/Include/arm_math.h ****    * @param[in,out] S          points to an instance of the Q15 FIR filter structure.
1074:Core/Inc/../../Drivers/CMSIS/DSP/Include/arm_math.h ****    * @param[in]     numTaps    Number of filter coefficients in the filter. Must be even and greate
1075:Core/Inc/../../Drivers/CMSIS/DSP/Include/arm_math.h ****    * @param[in]     pCoeffs    points to the filter coefficients.
1076:Core/Inc/../../Drivers/CMSIS/DSP/Include/arm_math.h ****    * @param[in]     pState     points to the state buffer.
1077:Core/Inc/../../Drivers/CMSIS/DSP/Include/arm_math.h ****    * @param[in]     blockSize  number of samples that are processed at a time.
1078:Core/Inc/../../Drivers/CMSIS/DSP/Include/arm_math.h ****    * @return The function returns ARM_MATH_SUCCESS if initialization was successful or ARM_MATH_ARG
1079:Core/Inc/../../Drivers/CMSIS/DSP/Include/arm_math.h ****    * <code>numTaps</code> is not a supported value.
1080:Core/Inc/../../Drivers/CMSIS/DSP/Include/arm_math.h ****    */
1081:Core/Inc/../../Drivers/CMSIS/DSP/Include/arm_math.h ****   arm_status arm_fir_init_q15(
1082:Core/Inc/../../Drivers/CMSIS/DSP/Include/arm_math.h ****       arm_fir_instance_q15 *S,
1083:Core/Inc/../../Drivers/CMSIS/DSP/Include/arm_math.h ****       uint16_t numTaps,
1084:Core/Inc/../../Drivers/CMSIS/DSP/Include/arm_math.h ****       q15_t *pCoeffs,
1085:Core/Inc/../../Drivers/CMSIS/DSP/Include/arm_math.h ****       q15_t *pState,
1086:Core/Inc/../../Drivers/CMSIS/DSP/Include/arm_math.h ****       uint32_t blockSize);
1087:Core/Inc/../../Drivers/CMSIS/DSP/Include/arm_math.h **** 
1088:Core/Inc/../../Drivers/CMSIS/DSP/Include/arm_math.h ****   /**
1089:Core/Inc/../../Drivers/CMSIS/DSP/Include/arm_math.h ****    * @brief Processing function for the Q31 FIR filter.
1090:Core/Inc/../../Drivers/CMSIS/DSP/Include/arm_math.h ****    * @param[in]  S          points to an instance of the Q31 FIR filter structure.
1091:Core/Inc/../../Drivers/CMSIS/DSP/Include/arm_math.h ****    * @param[in]  pSrc       points to the block of input data.
1092:Core/Inc/../../Drivers/CMSIS/DSP/Include/arm_math.h ****    * @param[out] pDst       points to the block of output data.
1093:Core/Inc/../../Drivers/CMSIS/DSP/Include/arm_math.h ****    * @param[in]  blockSize  number of samples to process.
1094:Core/Inc/../../Drivers/CMSIS/DSP/Include/arm_math.h ****    */
1095:Core/Inc/../../Drivers/CMSIS/DSP/Include/arm_math.h ****   void arm_fir_q31(
1096:Core/Inc/../../Drivers/CMSIS/DSP/Include/arm_math.h ****       const arm_fir_instance_q31 *S,
1097:Core/Inc/../../Drivers/CMSIS/DSP/Include/arm_math.h ****       q31_t *pSrc,
1098:Core/Inc/../../Drivers/CMSIS/DSP/Include/arm_math.h ****       q31_t *pDst,
1099:Core/Inc/../../Drivers/CMSIS/DSP/Include/arm_math.h ****       uint32_t blockSize);
1100:Core/Inc/../../Drivers/CMSIS/DSP/Include/arm_math.h **** 
1101:Core/Inc/../../Drivers/CMSIS/DSP/Include/arm_math.h ****   /**
1102:Core/Inc/../../Drivers/CMSIS/DSP/Include/arm_math.h ****    * @brief Processing function for the fast Q31 FIR filter for Cortex-M3 and Cortex-M4.
1103:Core/Inc/../../Drivers/CMSIS/DSP/Include/arm_math.h ****    * @param[in]  S          points to an instance of the Q31 FIR structure.
1104:Core/Inc/../../Drivers/CMSIS/DSP/Include/arm_math.h ****    * @param[in]  pSrc       points to the block of input data.
1105:Core/Inc/../../Drivers/CMSIS/DSP/Include/arm_math.h ****    * @param[out] pDst       points to the block of output data.
1106:Core/Inc/../../Drivers/CMSIS/DSP/Include/arm_math.h ****    * @param[in]  blockSize  number of samples to process.
1107:Core/Inc/../../Drivers/CMSIS/DSP/Include/arm_math.h ****    */
1108:Core/Inc/../../Drivers/CMSIS/DSP/Include/arm_math.h ****   void arm_fir_fast_q31(
1109:Core/Inc/../../Drivers/CMSIS/DSP/Include/arm_math.h ****       const arm_fir_instance_q31 *S,
1110:Core/Inc/../../Drivers/CMSIS/DSP/Include/arm_math.h ****       q31_t *pSrc,
1111:Core/Inc/../../Drivers/CMSIS/DSP/Include/arm_math.h ****       q31_t *pDst,
1112:Core/Inc/../../Drivers/CMSIS/DSP/Include/arm_math.h ****       uint32_t blockSize);
1113:Core/Inc/../../Drivers/CMSIS/DSP/Include/arm_math.h **** 
1114:Core/Inc/../../Drivers/CMSIS/DSP/Include/arm_math.h ****   /**
ARM GAS  /var/folders/n6/c271nzx11xl4r4_m7sqjlt0m0000gn/T//ccGo3Vqh.s 			page 48


1115:Core/Inc/../../Drivers/CMSIS/DSP/Include/arm_math.h ****    * @brief  Initialization function for the Q31 FIR filter.
1116:Core/Inc/../../Drivers/CMSIS/DSP/Include/arm_math.h ****    * @param[in,out] S          points to an instance of the Q31 FIR structure.
1117:Core/Inc/../../Drivers/CMSIS/DSP/Include/arm_math.h ****    * @param[in]     numTaps    Number of filter coefficients in the filter.
1118:Core/Inc/../../Drivers/CMSIS/DSP/Include/arm_math.h ****    * @param[in]     pCoeffs    points to the filter coefficients.
1119:Core/Inc/../../Drivers/CMSIS/DSP/Include/arm_math.h ****    * @param[in]     pState     points to the state buffer.
1120:Core/Inc/../../Drivers/CMSIS/DSP/Include/arm_math.h ****    * @param[in]     blockSize  number of samples that are processed at a time.
1121:Core/Inc/../../Drivers/CMSIS/DSP/Include/arm_math.h ****    */
1122:Core/Inc/../../Drivers/CMSIS/DSP/Include/arm_math.h ****   void arm_fir_init_q31(
1123:Core/Inc/../../Drivers/CMSIS/DSP/Include/arm_math.h ****       arm_fir_instance_q31 *S,
1124:Core/Inc/../../Drivers/CMSIS/DSP/Include/arm_math.h ****       uint16_t numTaps,
1125:Core/Inc/../../Drivers/CMSIS/DSP/Include/arm_math.h ****       q31_t *pCoeffs,
1126:Core/Inc/../../Drivers/CMSIS/DSP/Include/arm_math.h ****       q31_t *pState,
1127:Core/Inc/../../Drivers/CMSIS/DSP/Include/arm_math.h ****       uint32_t blockSize);
1128:Core/Inc/../../Drivers/CMSIS/DSP/Include/arm_math.h **** 
1129:Core/Inc/../../Drivers/CMSIS/DSP/Include/arm_math.h ****   /**
1130:Core/Inc/../../Drivers/CMSIS/DSP/Include/arm_math.h ****    * @brief Processing function for the floating-point FIR filter.
1131:Core/Inc/../../Drivers/CMSIS/DSP/Include/arm_math.h ****    * @param[in]  S          points to an instance of the floating-point FIR structure.
1132:Core/Inc/../../Drivers/CMSIS/DSP/Include/arm_math.h ****    * @param[in]  pSrc       points to the block of input data.
1133:Core/Inc/../../Drivers/CMSIS/DSP/Include/arm_math.h ****    * @param[out] pDst       points to the block of output data.
1134:Core/Inc/../../Drivers/CMSIS/DSP/Include/arm_math.h ****    * @param[in]  blockSize  number of samples to process.
1135:Core/Inc/../../Drivers/CMSIS/DSP/Include/arm_math.h ****    */
1136:Core/Inc/../../Drivers/CMSIS/DSP/Include/arm_math.h ****   void arm_fir_f32(
1137:Core/Inc/../../Drivers/CMSIS/DSP/Include/arm_math.h ****       const arm_fir_instance_f32 *S,
1138:Core/Inc/../../Drivers/CMSIS/DSP/Include/arm_math.h ****       float32_t *pSrc,
1139:Core/Inc/../../Drivers/CMSIS/DSP/Include/arm_math.h ****       float32_t *pDst,
1140:Core/Inc/../../Drivers/CMSIS/DSP/Include/arm_math.h ****       uint32_t blockSize);
1141:Core/Inc/../../Drivers/CMSIS/DSP/Include/arm_math.h **** 
1142:Core/Inc/../../Drivers/CMSIS/DSP/Include/arm_math.h ****   /**
1143:Core/Inc/../../Drivers/CMSIS/DSP/Include/arm_math.h ****    * @brief  Initialization function for the floating-point FIR filter.
1144:Core/Inc/../../Drivers/CMSIS/DSP/Include/arm_math.h ****    * @param[in,out] S          points to an instance of the floating-point FIR filter structure.
1145:Core/Inc/../../Drivers/CMSIS/DSP/Include/arm_math.h ****    * @param[in]     numTaps    Number of filter coefficients in the filter.
1146:Core/Inc/../../Drivers/CMSIS/DSP/Include/arm_math.h ****    * @param[in]     pCoeffs    points to the filter coefficients.
1147:Core/Inc/../../Drivers/CMSIS/DSP/Include/arm_math.h ****    * @param[in]     pState     points to the state buffer.
1148:Core/Inc/../../Drivers/CMSIS/DSP/Include/arm_math.h ****    * @param[in]     blockSize  number of samples that are processed at a time.
1149:Core/Inc/../../Drivers/CMSIS/DSP/Include/arm_math.h ****    */
1150:Core/Inc/../../Drivers/CMSIS/DSP/Include/arm_math.h ****   void arm_fir_init_f32(
1151:Core/Inc/../../Drivers/CMSIS/DSP/Include/arm_math.h ****       arm_fir_instance_f32 *S,
1152:Core/Inc/../../Drivers/CMSIS/DSP/Include/arm_math.h ****       uint16_t numTaps,
1153:Core/Inc/../../Drivers/CMSIS/DSP/Include/arm_math.h ****       float32_t *pCoeffs,
1154:Core/Inc/../../Drivers/CMSIS/DSP/Include/arm_math.h ****       float32_t *pState,
1155:Core/Inc/../../Drivers/CMSIS/DSP/Include/arm_math.h ****       uint32_t blockSize);
1156:Core/Inc/../../Drivers/CMSIS/DSP/Include/arm_math.h **** 
1157:Core/Inc/../../Drivers/CMSIS/DSP/Include/arm_math.h ****   /**
1158:Core/Inc/../../Drivers/CMSIS/DSP/Include/arm_math.h ****    * @brief Instance structure for the Q15 Biquad cascade filter.
1159:Core/Inc/../../Drivers/CMSIS/DSP/Include/arm_math.h ****    */
1160:Core/Inc/../../Drivers/CMSIS/DSP/Include/arm_math.h ****   typedef struct
1161:Core/Inc/../../Drivers/CMSIS/DSP/Include/arm_math.h ****   {
1162:Core/Inc/../../Drivers/CMSIS/DSP/Include/arm_math.h ****     int8_t numStages; /**< number of 2nd order stages in the filter.  Overall order is 2*numStages.
1163:Core/Inc/../../Drivers/CMSIS/DSP/Include/arm_math.h ****     q15_t *pState;    /**< Points to the array of state coefficients.  The array is of length 4*num
1164:Core/Inc/../../Drivers/CMSIS/DSP/Include/arm_math.h ****     q15_t *pCoeffs;   /**< Points to the array of coefficients.  The array is of length 5*numStages
1165:Core/Inc/../../Drivers/CMSIS/DSP/Include/arm_math.h ****     int8_t postShift; /**< Additional shift, in bits, applied to each output sample. */
1166:Core/Inc/../../Drivers/CMSIS/DSP/Include/arm_math.h ****   } arm_biquad_casd_df1_inst_q15;
1167:Core/Inc/../../Drivers/CMSIS/DSP/Include/arm_math.h **** 
1168:Core/Inc/../../Drivers/CMSIS/DSP/Include/arm_math.h ****   /**
1169:Core/Inc/../../Drivers/CMSIS/DSP/Include/arm_math.h ****    * @brief Instance structure for the Q31 Biquad cascade filter.
1170:Core/Inc/../../Drivers/CMSIS/DSP/Include/arm_math.h ****    */
1171:Core/Inc/../../Drivers/CMSIS/DSP/Include/arm_math.h ****   typedef struct
ARM GAS  /var/folders/n6/c271nzx11xl4r4_m7sqjlt0m0000gn/T//ccGo3Vqh.s 			page 49


1172:Core/Inc/../../Drivers/CMSIS/DSP/Include/arm_math.h ****   {
1173:Core/Inc/../../Drivers/CMSIS/DSP/Include/arm_math.h ****     uint32_t numStages; /**< number of 2nd order stages in the filter.  Overall order is 2*numStage
1174:Core/Inc/../../Drivers/CMSIS/DSP/Include/arm_math.h ****     q31_t *pState;      /**< Points to the array of state coefficients.  The array is of length 4*n
1175:Core/Inc/../../Drivers/CMSIS/DSP/Include/arm_math.h ****     q31_t *pCoeffs;     /**< Points to the array of coefficients.  The array is of length 5*numStag
1176:Core/Inc/../../Drivers/CMSIS/DSP/Include/arm_math.h ****     uint8_t postShift;  /**< Additional shift, in bits, applied to each output sample. */
1177:Core/Inc/../../Drivers/CMSIS/DSP/Include/arm_math.h ****   } arm_biquad_casd_df1_inst_q31;
1178:Core/Inc/../../Drivers/CMSIS/DSP/Include/arm_math.h **** 
1179:Core/Inc/../../Drivers/CMSIS/DSP/Include/arm_math.h ****   /**
1180:Core/Inc/../../Drivers/CMSIS/DSP/Include/arm_math.h ****    * @brief Instance structure for the floating-point Biquad cascade filter.
1181:Core/Inc/../../Drivers/CMSIS/DSP/Include/arm_math.h ****    */
1182:Core/Inc/../../Drivers/CMSIS/DSP/Include/arm_math.h ****   typedef struct
1183:Core/Inc/../../Drivers/CMSIS/DSP/Include/arm_math.h ****   {
1184:Core/Inc/../../Drivers/CMSIS/DSP/Include/arm_math.h ****     uint32_t numStages; /**< number of 2nd order stages in the filter.  Overall order is 2*numStage
1185:Core/Inc/../../Drivers/CMSIS/DSP/Include/arm_math.h ****     float32_t *pState;  /**< Points to the array of state coefficients.  The array is of length 4*n
1186:Core/Inc/../../Drivers/CMSIS/DSP/Include/arm_math.h ****     float32_t *pCoeffs; /**< Points to the array of coefficients.  The array is of length 5*numStag
1187:Core/Inc/../../Drivers/CMSIS/DSP/Include/arm_math.h ****   } arm_biquad_casd_df1_inst_f32;
1188:Core/Inc/../../Drivers/CMSIS/DSP/Include/arm_math.h **** 
1189:Core/Inc/../../Drivers/CMSIS/DSP/Include/arm_math.h ****   /**
1190:Core/Inc/../../Drivers/CMSIS/DSP/Include/arm_math.h ****    * @brief Processing function for the Q15 Biquad cascade filter.
1191:Core/Inc/../../Drivers/CMSIS/DSP/Include/arm_math.h ****    * @param[in]  S          points to an instance of the Q15 Biquad cascade structure.
1192:Core/Inc/../../Drivers/CMSIS/DSP/Include/arm_math.h ****    * @param[in]  pSrc       points to the block of input data.
1193:Core/Inc/../../Drivers/CMSIS/DSP/Include/arm_math.h ****    * @param[out] pDst       points to the block of output data.
1194:Core/Inc/../../Drivers/CMSIS/DSP/Include/arm_math.h ****    * @param[in]  blockSize  number of samples to process.
1195:Core/Inc/../../Drivers/CMSIS/DSP/Include/arm_math.h ****    */
1196:Core/Inc/../../Drivers/CMSIS/DSP/Include/arm_math.h ****   void arm_biquad_cascade_df1_q15(
1197:Core/Inc/../../Drivers/CMSIS/DSP/Include/arm_math.h ****       const arm_biquad_casd_df1_inst_q15 *S,
1198:Core/Inc/../../Drivers/CMSIS/DSP/Include/arm_math.h ****       q15_t *pSrc,
1199:Core/Inc/../../Drivers/CMSIS/DSP/Include/arm_math.h ****       q15_t *pDst,
1200:Core/Inc/../../Drivers/CMSIS/DSP/Include/arm_math.h ****       uint32_t blockSize);
1201:Core/Inc/../../Drivers/CMSIS/DSP/Include/arm_math.h **** 
1202:Core/Inc/../../Drivers/CMSIS/DSP/Include/arm_math.h ****   /**
1203:Core/Inc/../../Drivers/CMSIS/DSP/Include/arm_math.h ****    * @brief  Initialization function for the Q15 Biquad cascade filter.
1204:Core/Inc/../../Drivers/CMSIS/DSP/Include/arm_math.h ****    * @param[in,out] S          points to an instance of the Q15 Biquad cascade structure.
1205:Core/Inc/../../Drivers/CMSIS/DSP/Include/arm_math.h ****    * @param[in]     numStages  number of 2nd order stages in the filter.
1206:Core/Inc/../../Drivers/CMSIS/DSP/Include/arm_math.h ****    * @param[in]     pCoeffs    points to the filter coefficients.
1207:Core/Inc/../../Drivers/CMSIS/DSP/Include/arm_math.h ****    * @param[in]     pState     points to the state buffer.
1208:Core/Inc/../../Drivers/CMSIS/DSP/Include/arm_math.h ****    * @param[in]     postShift  Shift to be applied to the output. Varies according to the coefficie
1209:Core/Inc/../../Drivers/CMSIS/DSP/Include/arm_math.h ****    */
1210:Core/Inc/../../Drivers/CMSIS/DSP/Include/arm_math.h ****   void arm_biquad_cascade_df1_init_q15(
1211:Core/Inc/../../Drivers/CMSIS/DSP/Include/arm_math.h ****       arm_biquad_casd_df1_inst_q15 *S,
1212:Core/Inc/../../Drivers/CMSIS/DSP/Include/arm_math.h ****       uint8_t numStages,
1213:Core/Inc/../../Drivers/CMSIS/DSP/Include/arm_math.h ****       q15_t *pCoeffs,
1214:Core/Inc/../../Drivers/CMSIS/DSP/Include/arm_math.h ****       q15_t *pState,
1215:Core/Inc/../../Drivers/CMSIS/DSP/Include/arm_math.h ****       int8_t postShift);
1216:Core/Inc/../../Drivers/CMSIS/DSP/Include/arm_math.h **** 
1217:Core/Inc/../../Drivers/CMSIS/DSP/Include/arm_math.h ****   /**
1218:Core/Inc/../../Drivers/CMSIS/DSP/Include/arm_math.h ****    * @brief Fast but less precise processing function for the Q15 Biquad cascade filter for Cortex-
1219:Core/Inc/../../Drivers/CMSIS/DSP/Include/arm_math.h ****    * @param[in]  S          points to an instance of the Q15 Biquad cascade structure.
1220:Core/Inc/../../Drivers/CMSIS/DSP/Include/arm_math.h ****    * @param[in]  pSrc       points to the block of input data.
1221:Core/Inc/../../Drivers/CMSIS/DSP/Include/arm_math.h ****    * @param[out] pDst       points to the block of output data.
1222:Core/Inc/../../Drivers/CMSIS/DSP/Include/arm_math.h ****    * @param[in]  blockSize  number of samples to process.
1223:Core/Inc/../../Drivers/CMSIS/DSP/Include/arm_math.h ****    */
1224:Core/Inc/../../Drivers/CMSIS/DSP/Include/arm_math.h ****   void arm_biquad_cascade_df1_fast_q15(
1225:Core/Inc/../../Drivers/CMSIS/DSP/Include/arm_math.h ****       const arm_biquad_casd_df1_inst_q15 *S,
1226:Core/Inc/../../Drivers/CMSIS/DSP/Include/arm_math.h ****       q15_t *pSrc,
1227:Core/Inc/../../Drivers/CMSIS/DSP/Include/arm_math.h ****       q15_t *pDst,
1228:Core/Inc/../../Drivers/CMSIS/DSP/Include/arm_math.h ****       uint32_t blockSize);
ARM GAS  /var/folders/n6/c271nzx11xl4r4_m7sqjlt0m0000gn/T//ccGo3Vqh.s 			page 50


1229:Core/Inc/../../Drivers/CMSIS/DSP/Include/arm_math.h **** 
1230:Core/Inc/../../Drivers/CMSIS/DSP/Include/arm_math.h ****   /**
1231:Core/Inc/../../Drivers/CMSIS/DSP/Include/arm_math.h ****    * @brief Processing function for the Q31 Biquad cascade filter
1232:Core/Inc/../../Drivers/CMSIS/DSP/Include/arm_math.h ****    * @param[in]  S          points to an instance of the Q31 Biquad cascade structure.
1233:Core/Inc/../../Drivers/CMSIS/DSP/Include/arm_math.h ****    * @param[in]  pSrc       points to the block of input data.
1234:Core/Inc/../../Drivers/CMSIS/DSP/Include/arm_math.h ****    * @param[out] pDst       points to the block of output data.
1235:Core/Inc/../../Drivers/CMSIS/DSP/Include/arm_math.h ****    * @param[in]  blockSize  number of samples to process.
1236:Core/Inc/../../Drivers/CMSIS/DSP/Include/arm_math.h ****    */
1237:Core/Inc/../../Drivers/CMSIS/DSP/Include/arm_math.h ****   void arm_biquad_cascade_df1_q31(
1238:Core/Inc/../../Drivers/CMSIS/DSP/Include/arm_math.h ****       const arm_biquad_casd_df1_inst_q31 *S,
1239:Core/Inc/../../Drivers/CMSIS/DSP/Include/arm_math.h ****       q31_t *pSrc,
1240:Core/Inc/../../Drivers/CMSIS/DSP/Include/arm_math.h ****       q31_t *pDst,
1241:Core/Inc/../../Drivers/CMSIS/DSP/Include/arm_math.h ****       uint32_t blockSize);
1242:Core/Inc/../../Drivers/CMSIS/DSP/Include/arm_math.h **** 
1243:Core/Inc/../../Drivers/CMSIS/DSP/Include/arm_math.h ****   /**
1244:Core/Inc/../../Drivers/CMSIS/DSP/Include/arm_math.h ****    * @brief Fast but less precise processing function for the Q31 Biquad cascade filter for Cortex-
1245:Core/Inc/../../Drivers/CMSIS/DSP/Include/arm_math.h ****    * @param[in]  S          points to an instance of the Q31 Biquad cascade structure.
1246:Core/Inc/../../Drivers/CMSIS/DSP/Include/arm_math.h ****    * @param[in]  pSrc       points to the block of input data.
1247:Core/Inc/../../Drivers/CMSIS/DSP/Include/arm_math.h ****    * @param[out] pDst       points to the block of output data.
1248:Core/Inc/../../Drivers/CMSIS/DSP/Include/arm_math.h ****    * @param[in]  blockSize  number of samples to process.
1249:Core/Inc/../../Drivers/CMSIS/DSP/Include/arm_math.h ****    */
1250:Core/Inc/../../Drivers/CMSIS/DSP/Include/arm_math.h ****   void arm_biquad_cascade_df1_fast_q31(
1251:Core/Inc/../../Drivers/CMSIS/DSP/Include/arm_math.h ****       const arm_biquad_casd_df1_inst_q31 *S,
1252:Core/Inc/../../Drivers/CMSIS/DSP/Include/arm_math.h ****       q31_t *pSrc,
1253:Core/Inc/../../Drivers/CMSIS/DSP/Include/arm_math.h ****       q31_t *pDst,
1254:Core/Inc/../../Drivers/CMSIS/DSP/Include/arm_math.h ****       uint32_t blockSize);
1255:Core/Inc/../../Drivers/CMSIS/DSP/Include/arm_math.h **** 
1256:Core/Inc/../../Drivers/CMSIS/DSP/Include/arm_math.h ****   /**
1257:Core/Inc/../../Drivers/CMSIS/DSP/Include/arm_math.h ****    * @brief  Initialization function for the Q31 Biquad cascade filter.
1258:Core/Inc/../../Drivers/CMSIS/DSP/Include/arm_math.h ****    * @param[in,out] S          points to an instance of the Q31 Biquad cascade structure.
1259:Core/Inc/../../Drivers/CMSIS/DSP/Include/arm_math.h ****    * @param[in]     numStages  number of 2nd order stages in the filter.
1260:Core/Inc/../../Drivers/CMSIS/DSP/Include/arm_math.h ****    * @param[in]     pCoeffs    points to the filter coefficients.
1261:Core/Inc/../../Drivers/CMSIS/DSP/Include/arm_math.h ****    * @param[in]     pState     points to the state buffer.
1262:Core/Inc/../../Drivers/CMSIS/DSP/Include/arm_math.h ****    * @param[in]     postShift  Shift to be applied to the output. Varies according to the coefficie
1263:Core/Inc/../../Drivers/CMSIS/DSP/Include/arm_math.h ****    */
1264:Core/Inc/../../Drivers/CMSIS/DSP/Include/arm_math.h ****   void arm_biquad_cascade_df1_init_q31(
1265:Core/Inc/../../Drivers/CMSIS/DSP/Include/arm_math.h ****       arm_biquad_casd_df1_inst_q31 *S,
1266:Core/Inc/../../Drivers/CMSIS/DSP/Include/arm_math.h ****       uint8_t numStages,
1267:Core/Inc/../../Drivers/CMSIS/DSP/Include/arm_math.h ****       q31_t *pCoeffs,
1268:Core/Inc/../../Drivers/CMSIS/DSP/Include/arm_math.h ****       q31_t *pState,
1269:Core/Inc/../../Drivers/CMSIS/DSP/Include/arm_math.h ****       int8_t postShift);
1270:Core/Inc/../../Drivers/CMSIS/DSP/Include/arm_math.h **** 
1271:Core/Inc/../../Drivers/CMSIS/DSP/Include/arm_math.h ****   /**
1272:Core/Inc/../../Drivers/CMSIS/DSP/Include/arm_math.h ****    * @brief Processing function for the floating-point Biquad cascade filter.
1273:Core/Inc/../../Drivers/CMSIS/DSP/Include/arm_math.h ****    * @param[in]  S          points to an instance of the floating-point Biquad cascade structure.
1274:Core/Inc/../../Drivers/CMSIS/DSP/Include/arm_math.h ****    * @param[in]  pSrc       points to the block of input data.
1275:Core/Inc/../../Drivers/CMSIS/DSP/Include/arm_math.h ****    * @param[out] pDst       points to the block of output data.
1276:Core/Inc/../../Drivers/CMSIS/DSP/Include/arm_math.h ****    * @param[in]  blockSize  number of samples to process.
1277:Core/Inc/../../Drivers/CMSIS/DSP/Include/arm_math.h ****    */
1278:Core/Inc/../../Drivers/CMSIS/DSP/Include/arm_math.h ****   void arm_biquad_cascade_df1_f32(
1279:Core/Inc/../../Drivers/CMSIS/DSP/Include/arm_math.h ****       const arm_biquad_casd_df1_inst_f32 *S,
1280:Core/Inc/../../Drivers/CMSIS/DSP/Include/arm_math.h ****       float32_t *pSrc,
1281:Core/Inc/../../Drivers/CMSIS/DSP/Include/arm_math.h ****       float32_t *pDst,
1282:Core/Inc/../../Drivers/CMSIS/DSP/Include/arm_math.h ****       uint32_t blockSize);
1283:Core/Inc/../../Drivers/CMSIS/DSP/Include/arm_math.h **** 
1284:Core/Inc/../../Drivers/CMSIS/DSP/Include/arm_math.h ****   /**
1285:Core/Inc/../../Drivers/CMSIS/DSP/Include/arm_math.h ****    * @brief  Initialization function for the floating-point Biquad cascade filter.
ARM GAS  /var/folders/n6/c271nzx11xl4r4_m7sqjlt0m0000gn/T//ccGo3Vqh.s 			page 51


1286:Core/Inc/../../Drivers/CMSIS/DSP/Include/arm_math.h ****    * @param[in,out] S          points to an instance of the floating-point Biquad cascade structure
1287:Core/Inc/../../Drivers/CMSIS/DSP/Include/arm_math.h ****    * @param[in]     numStages  number of 2nd order stages in the filter.
1288:Core/Inc/../../Drivers/CMSIS/DSP/Include/arm_math.h ****    * @param[in]     pCoeffs    points to the filter coefficients.
1289:Core/Inc/../../Drivers/CMSIS/DSP/Include/arm_math.h ****    * @param[in]     pState     points to the state buffer.
1290:Core/Inc/../../Drivers/CMSIS/DSP/Include/arm_math.h ****    */
1291:Core/Inc/../../Drivers/CMSIS/DSP/Include/arm_math.h ****   void arm_biquad_cascade_df1_init_f32(
1292:Core/Inc/../../Drivers/CMSIS/DSP/Include/arm_math.h ****       arm_biquad_casd_df1_inst_f32 *S,
1293:Core/Inc/../../Drivers/CMSIS/DSP/Include/arm_math.h ****       uint8_t numStages,
1294:Core/Inc/../../Drivers/CMSIS/DSP/Include/arm_math.h ****       float32_t *pCoeffs,
1295:Core/Inc/../../Drivers/CMSIS/DSP/Include/arm_math.h ****       float32_t *pState);
1296:Core/Inc/../../Drivers/CMSIS/DSP/Include/arm_math.h **** 
1297:Core/Inc/../../Drivers/CMSIS/DSP/Include/arm_math.h ****   /**
1298:Core/Inc/../../Drivers/CMSIS/DSP/Include/arm_math.h ****    * @brief Instance structure for the floating-point matrix structure.
1299:Core/Inc/../../Drivers/CMSIS/DSP/Include/arm_math.h ****    */
1300:Core/Inc/../../Drivers/CMSIS/DSP/Include/arm_math.h ****   typedef struct
1301:Core/Inc/../../Drivers/CMSIS/DSP/Include/arm_math.h ****   {
1302:Core/Inc/../../Drivers/CMSIS/DSP/Include/arm_math.h ****     uint16_t numRows; /**< number of rows of the matrix.     */
1303:Core/Inc/../../Drivers/CMSIS/DSP/Include/arm_math.h ****     uint16_t numCols; /**< number of columns of the matrix.  */
1304:Core/Inc/../../Drivers/CMSIS/DSP/Include/arm_math.h ****     float32_t *pData; /**< points to the data of the matrix. */
1305:Core/Inc/../../Drivers/CMSIS/DSP/Include/arm_math.h ****   } arm_matrix_instance_f32;
1306:Core/Inc/../../Drivers/CMSIS/DSP/Include/arm_math.h **** 
1307:Core/Inc/../../Drivers/CMSIS/DSP/Include/arm_math.h ****   /**
1308:Core/Inc/../../Drivers/CMSIS/DSP/Include/arm_math.h ****    * @brief Instance structure for the floating-point matrix structure.
1309:Core/Inc/../../Drivers/CMSIS/DSP/Include/arm_math.h ****    */
1310:Core/Inc/../../Drivers/CMSIS/DSP/Include/arm_math.h ****   typedef struct
1311:Core/Inc/../../Drivers/CMSIS/DSP/Include/arm_math.h ****   {
1312:Core/Inc/../../Drivers/CMSIS/DSP/Include/arm_math.h ****     uint16_t numRows; /**< number of rows of the matrix.     */
1313:Core/Inc/../../Drivers/CMSIS/DSP/Include/arm_math.h ****     uint16_t numCols; /**< number of columns of the matrix.  */
1314:Core/Inc/../../Drivers/CMSIS/DSP/Include/arm_math.h ****     float64_t *pData; /**< points to the data of the matrix. */
1315:Core/Inc/../../Drivers/CMSIS/DSP/Include/arm_math.h ****   } arm_matrix_instance_f64;
1316:Core/Inc/../../Drivers/CMSIS/DSP/Include/arm_math.h **** 
1317:Core/Inc/../../Drivers/CMSIS/DSP/Include/arm_math.h ****   /**
1318:Core/Inc/../../Drivers/CMSIS/DSP/Include/arm_math.h ****    * @brief Instance structure for the Q15 matrix structure.
1319:Core/Inc/../../Drivers/CMSIS/DSP/Include/arm_math.h ****    */
1320:Core/Inc/../../Drivers/CMSIS/DSP/Include/arm_math.h ****   typedef struct
1321:Core/Inc/../../Drivers/CMSIS/DSP/Include/arm_math.h ****   {
1322:Core/Inc/../../Drivers/CMSIS/DSP/Include/arm_math.h ****     uint16_t numRows; /**< number of rows of the matrix.     */
1323:Core/Inc/../../Drivers/CMSIS/DSP/Include/arm_math.h ****     uint16_t numCols; /**< number of columns of the matrix.  */
1324:Core/Inc/../../Drivers/CMSIS/DSP/Include/arm_math.h ****     q15_t *pData;     /**< points to the data of the matrix. */
1325:Core/Inc/../../Drivers/CMSIS/DSP/Include/arm_math.h ****   } arm_matrix_instance_q15;
1326:Core/Inc/../../Drivers/CMSIS/DSP/Include/arm_math.h **** 
1327:Core/Inc/../../Drivers/CMSIS/DSP/Include/arm_math.h ****   /**
1328:Core/Inc/../../Drivers/CMSIS/DSP/Include/arm_math.h ****    * @brief Instance structure for the Q31 matrix structure.
1329:Core/Inc/../../Drivers/CMSIS/DSP/Include/arm_math.h ****    */
1330:Core/Inc/../../Drivers/CMSIS/DSP/Include/arm_math.h ****   typedef struct
1331:Core/Inc/../../Drivers/CMSIS/DSP/Include/arm_math.h ****   {
1332:Core/Inc/../../Drivers/CMSIS/DSP/Include/arm_math.h ****     uint16_t numRows; /**< number of rows of the matrix.     */
1333:Core/Inc/../../Drivers/CMSIS/DSP/Include/arm_math.h ****     uint16_t numCols; /**< number of columns of the matrix.  */
1334:Core/Inc/../../Drivers/CMSIS/DSP/Include/arm_math.h ****     q31_t *pData;     /**< points to the data of the matrix. */
1335:Core/Inc/../../Drivers/CMSIS/DSP/Include/arm_math.h ****   } arm_matrix_instance_q31;
1336:Core/Inc/../../Drivers/CMSIS/DSP/Include/arm_math.h **** 
1337:Core/Inc/../../Drivers/CMSIS/DSP/Include/arm_math.h ****   /**
1338:Core/Inc/../../Drivers/CMSIS/DSP/Include/arm_math.h ****    * @brief Floating-point matrix addition.
1339:Core/Inc/../../Drivers/CMSIS/DSP/Include/arm_math.h ****    * @param[in]  pSrcA  points to the first input matrix structure
1340:Core/Inc/../../Drivers/CMSIS/DSP/Include/arm_math.h ****    * @param[in]  pSrcB  points to the second input matrix structure
1341:Core/Inc/../../Drivers/CMSIS/DSP/Include/arm_math.h ****    * @param[out] pDst   points to output matrix structure
1342:Core/Inc/../../Drivers/CMSIS/DSP/Include/arm_math.h ****    * @return     The function returns either
ARM GAS  /var/folders/n6/c271nzx11xl4r4_m7sqjlt0m0000gn/T//ccGo3Vqh.s 			page 52


1343:Core/Inc/../../Drivers/CMSIS/DSP/Include/arm_math.h ****    * <code>ARM_MATH_SIZE_MISMATCH</code> or <code>ARM_MATH_SUCCESS</code> based on the outcome of s
1344:Core/Inc/../../Drivers/CMSIS/DSP/Include/arm_math.h ****    */
1345:Core/Inc/../../Drivers/CMSIS/DSP/Include/arm_math.h ****   arm_status arm_mat_add_f32(
1346:Core/Inc/../../Drivers/CMSIS/DSP/Include/arm_math.h ****       const arm_matrix_instance_f32 *pSrcA,
1347:Core/Inc/../../Drivers/CMSIS/DSP/Include/arm_math.h ****       const arm_matrix_instance_f32 *pSrcB,
1348:Core/Inc/../../Drivers/CMSIS/DSP/Include/arm_math.h ****       arm_matrix_instance_f32 *pDst);
1349:Core/Inc/../../Drivers/CMSIS/DSP/Include/arm_math.h **** 
1350:Core/Inc/../../Drivers/CMSIS/DSP/Include/arm_math.h ****   /**
1351:Core/Inc/../../Drivers/CMSIS/DSP/Include/arm_math.h ****    * @brief Q15 matrix addition.
1352:Core/Inc/../../Drivers/CMSIS/DSP/Include/arm_math.h ****    * @param[in]   pSrcA  points to the first input matrix structure
1353:Core/Inc/../../Drivers/CMSIS/DSP/Include/arm_math.h ****    * @param[in]   pSrcB  points to the second input matrix structure
1354:Core/Inc/../../Drivers/CMSIS/DSP/Include/arm_math.h ****    * @param[out]  pDst   points to output matrix structure
1355:Core/Inc/../../Drivers/CMSIS/DSP/Include/arm_math.h ****    * @return     The function returns either
1356:Core/Inc/../../Drivers/CMSIS/DSP/Include/arm_math.h ****    * <code>ARM_MATH_SIZE_MISMATCH</code> or <code>ARM_MATH_SUCCESS</code> based on the outcome of s
1357:Core/Inc/../../Drivers/CMSIS/DSP/Include/arm_math.h ****    */
1358:Core/Inc/../../Drivers/CMSIS/DSP/Include/arm_math.h ****   arm_status arm_mat_add_q15(
1359:Core/Inc/../../Drivers/CMSIS/DSP/Include/arm_math.h ****       const arm_matrix_instance_q15 *pSrcA,
1360:Core/Inc/../../Drivers/CMSIS/DSP/Include/arm_math.h ****       const arm_matrix_instance_q15 *pSrcB,
1361:Core/Inc/../../Drivers/CMSIS/DSP/Include/arm_math.h ****       arm_matrix_instance_q15 *pDst);
1362:Core/Inc/../../Drivers/CMSIS/DSP/Include/arm_math.h **** 
1363:Core/Inc/../../Drivers/CMSIS/DSP/Include/arm_math.h ****   /**
1364:Core/Inc/../../Drivers/CMSIS/DSP/Include/arm_math.h ****    * @brief Q31 matrix addition.
1365:Core/Inc/../../Drivers/CMSIS/DSP/Include/arm_math.h ****    * @param[in]  pSrcA  points to the first input matrix structure
1366:Core/Inc/../../Drivers/CMSIS/DSP/Include/arm_math.h ****    * @param[in]  pSrcB  points to the second input matrix structure
1367:Core/Inc/../../Drivers/CMSIS/DSP/Include/arm_math.h ****    * @param[out] pDst   points to output matrix structure
1368:Core/Inc/../../Drivers/CMSIS/DSP/Include/arm_math.h ****    * @return     The function returns either
1369:Core/Inc/../../Drivers/CMSIS/DSP/Include/arm_math.h ****    * <code>ARM_MATH_SIZE_MISMATCH</code> or <code>ARM_MATH_SUCCESS</code> based on the outcome of s
1370:Core/Inc/../../Drivers/CMSIS/DSP/Include/arm_math.h ****    */
1371:Core/Inc/../../Drivers/CMSIS/DSP/Include/arm_math.h ****   arm_status arm_mat_add_q31(
1372:Core/Inc/../../Drivers/CMSIS/DSP/Include/arm_math.h ****       const arm_matrix_instance_q31 *pSrcA,
1373:Core/Inc/../../Drivers/CMSIS/DSP/Include/arm_math.h ****       const arm_matrix_instance_q31 *pSrcB,
1374:Core/Inc/../../Drivers/CMSIS/DSP/Include/arm_math.h ****       arm_matrix_instance_q31 *pDst);
1375:Core/Inc/../../Drivers/CMSIS/DSP/Include/arm_math.h **** 
1376:Core/Inc/../../Drivers/CMSIS/DSP/Include/arm_math.h ****   /**
1377:Core/Inc/../../Drivers/CMSIS/DSP/Include/arm_math.h ****    * @brief Floating-point, complex, matrix multiplication.
1378:Core/Inc/../../Drivers/CMSIS/DSP/Include/arm_math.h ****    * @param[in]  pSrcA  points to the first input matrix structure
1379:Core/Inc/../../Drivers/CMSIS/DSP/Include/arm_math.h ****    * @param[in]  pSrcB  points to the second input matrix structure
1380:Core/Inc/../../Drivers/CMSIS/DSP/Include/arm_math.h ****    * @param[out] pDst   points to output matrix structure
1381:Core/Inc/../../Drivers/CMSIS/DSP/Include/arm_math.h ****    * @return     The function returns either
1382:Core/Inc/../../Drivers/CMSIS/DSP/Include/arm_math.h ****    * <code>ARM_MATH_SIZE_MISMATCH</code> or <code>ARM_MATH_SUCCESS</code> based on the outcome of s
1383:Core/Inc/../../Drivers/CMSIS/DSP/Include/arm_math.h ****    */
1384:Core/Inc/../../Drivers/CMSIS/DSP/Include/arm_math.h ****   arm_status arm_mat_cmplx_mult_f32(
1385:Core/Inc/../../Drivers/CMSIS/DSP/Include/arm_math.h ****       const arm_matrix_instance_f32 *pSrcA,
1386:Core/Inc/../../Drivers/CMSIS/DSP/Include/arm_math.h ****       const arm_matrix_instance_f32 *pSrcB,
1387:Core/Inc/../../Drivers/CMSIS/DSP/Include/arm_math.h ****       arm_matrix_instance_f32 *pDst);
1388:Core/Inc/../../Drivers/CMSIS/DSP/Include/arm_math.h **** 
1389:Core/Inc/../../Drivers/CMSIS/DSP/Include/arm_math.h ****   /**
1390:Core/Inc/../../Drivers/CMSIS/DSP/Include/arm_math.h ****    * @brief Q15, complex,  matrix multiplication.
1391:Core/Inc/../../Drivers/CMSIS/DSP/Include/arm_math.h ****    * @param[in]  pSrcA  points to the first input matrix structure
1392:Core/Inc/../../Drivers/CMSIS/DSP/Include/arm_math.h ****    * @param[in]  pSrcB  points to the second input matrix structure
1393:Core/Inc/../../Drivers/CMSIS/DSP/Include/arm_math.h ****    * @param[out] pDst   points to output matrix structure
1394:Core/Inc/../../Drivers/CMSIS/DSP/Include/arm_math.h ****    * @return     The function returns either
1395:Core/Inc/../../Drivers/CMSIS/DSP/Include/arm_math.h ****    * <code>ARM_MATH_SIZE_MISMATCH</code> or <code>ARM_MATH_SUCCESS</code> based on the outcome of s
1396:Core/Inc/../../Drivers/CMSIS/DSP/Include/arm_math.h ****    */
1397:Core/Inc/../../Drivers/CMSIS/DSP/Include/arm_math.h ****   arm_status arm_mat_cmplx_mult_q15(
1398:Core/Inc/../../Drivers/CMSIS/DSP/Include/arm_math.h ****       const arm_matrix_instance_q15 *pSrcA,
1399:Core/Inc/../../Drivers/CMSIS/DSP/Include/arm_math.h ****       const arm_matrix_instance_q15 *pSrcB,
ARM GAS  /var/folders/n6/c271nzx11xl4r4_m7sqjlt0m0000gn/T//ccGo3Vqh.s 			page 53


1400:Core/Inc/../../Drivers/CMSIS/DSP/Include/arm_math.h ****       arm_matrix_instance_q15 *pDst,
1401:Core/Inc/../../Drivers/CMSIS/DSP/Include/arm_math.h ****       q15_t *pScratch);
1402:Core/Inc/../../Drivers/CMSIS/DSP/Include/arm_math.h **** 
1403:Core/Inc/../../Drivers/CMSIS/DSP/Include/arm_math.h ****   /**
1404:Core/Inc/../../Drivers/CMSIS/DSP/Include/arm_math.h ****    * @brief Q31, complex, matrix multiplication.
1405:Core/Inc/../../Drivers/CMSIS/DSP/Include/arm_math.h ****    * @param[in]  pSrcA  points to the first input matrix structure
1406:Core/Inc/../../Drivers/CMSIS/DSP/Include/arm_math.h ****    * @param[in]  pSrcB  points to the second input matrix structure
1407:Core/Inc/../../Drivers/CMSIS/DSP/Include/arm_math.h ****    * @param[out] pDst   points to output matrix structure
1408:Core/Inc/../../Drivers/CMSIS/DSP/Include/arm_math.h ****    * @return     The function returns either
1409:Core/Inc/../../Drivers/CMSIS/DSP/Include/arm_math.h ****    * <code>ARM_MATH_SIZE_MISMATCH</code> or <code>ARM_MATH_SUCCESS</code> based on the outcome of s
1410:Core/Inc/../../Drivers/CMSIS/DSP/Include/arm_math.h ****    */
1411:Core/Inc/../../Drivers/CMSIS/DSP/Include/arm_math.h ****   arm_status arm_mat_cmplx_mult_q31(
1412:Core/Inc/../../Drivers/CMSIS/DSP/Include/arm_math.h ****       const arm_matrix_instance_q31 *pSrcA,
1413:Core/Inc/../../Drivers/CMSIS/DSP/Include/arm_math.h ****       const arm_matrix_instance_q31 *pSrcB,
1414:Core/Inc/../../Drivers/CMSIS/DSP/Include/arm_math.h ****       arm_matrix_instance_q31 *pDst);
1415:Core/Inc/../../Drivers/CMSIS/DSP/Include/arm_math.h **** 
1416:Core/Inc/../../Drivers/CMSIS/DSP/Include/arm_math.h ****   /**
1417:Core/Inc/../../Drivers/CMSIS/DSP/Include/arm_math.h ****    * @brief Floating-point matrix transpose.
1418:Core/Inc/../../Drivers/CMSIS/DSP/Include/arm_math.h ****    * @param[in]  pSrc  points to the input matrix
1419:Core/Inc/../../Drivers/CMSIS/DSP/Include/arm_math.h ****    * @param[out] pDst  points to the output matrix
1420:Core/Inc/../../Drivers/CMSIS/DSP/Include/arm_math.h ****    * @return    The function returns either  <code>ARM_MATH_SIZE_MISMATCH</code>
1421:Core/Inc/../../Drivers/CMSIS/DSP/Include/arm_math.h ****    * or <code>ARM_MATH_SUCCESS</code> based on the outcome of size checking.
1422:Core/Inc/../../Drivers/CMSIS/DSP/Include/arm_math.h ****    */
1423:Core/Inc/../../Drivers/CMSIS/DSP/Include/arm_math.h ****   arm_status arm_mat_trans_f32(
1424:Core/Inc/../../Drivers/CMSIS/DSP/Include/arm_math.h ****       const arm_matrix_instance_f32 *pSrc,
1425:Core/Inc/../../Drivers/CMSIS/DSP/Include/arm_math.h ****       arm_matrix_instance_f32 *pDst);
1426:Core/Inc/../../Drivers/CMSIS/DSP/Include/arm_math.h **** 
1427:Core/Inc/../../Drivers/CMSIS/DSP/Include/arm_math.h ****   /**
1428:Core/Inc/../../Drivers/CMSIS/DSP/Include/arm_math.h ****    * @brief Q15 matrix transpose.
1429:Core/Inc/../../Drivers/CMSIS/DSP/Include/arm_math.h ****    * @param[in]  pSrc  points to the input matrix
1430:Core/Inc/../../Drivers/CMSIS/DSP/Include/arm_math.h ****    * @param[out] pDst  points to the output matrix
1431:Core/Inc/../../Drivers/CMSIS/DSP/Include/arm_math.h ****    * @return    The function returns either  <code>ARM_MATH_SIZE_MISMATCH</code>
1432:Core/Inc/../../Drivers/CMSIS/DSP/Include/arm_math.h ****    * or <code>ARM_MATH_SUCCESS</code> based on the outcome of size checking.
1433:Core/Inc/../../Drivers/CMSIS/DSP/Include/arm_math.h ****    */
1434:Core/Inc/../../Drivers/CMSIS/DSP/Include/arm_math.h ****   arm_status arm_mat_trans_q15(
1435:Core/Inc/../../Drivers/CMSIS/DSP/Include/arm_math.h ****       const arm_matrix_instance_q15 *pSrc,
1436:Core/Inc/../../Drivers/CMSIS/DSP/Include/arm_math.h ****       arm_matrix_instance_q15 *pDst);
1437:Core/Inc/../../Drivers/CMSIS/DSP/Include/arm_math.h **** 
1438:Core/Inc/../../Drivers/CMSIS/DSP/Include/arm_math.h ****   /**
1439:Core/Inc/../../Drivers/CMSIS/DSP/Include/arm_math.h ****    * @brief Q31 matrix transpose.
1440:Core/Inc/../../Drivers/CMSIS/DSP/Include/arm_math.h ****    * @param[in]  pSrc  points to the input matrix
1441:Core/Inc/../../Drivers/CMSIS/DSP/Include/arm_math.h ****    * @param[out] pDst  points to the output matrix
1442:Core/Inc/../../Drivers/CMSIS/DSP/Include/arm_math.h ****    * @return    The function returns either  <code>ARM_MATH_SIZE_MISMATCH</code>
1443:Core/Inc/../../Drivers/CMSIS/DSP/Include/arm_math.h ****    * or <code>ARM_MATH_SUCCESS</code> based on the outcome of size checking.
1444:Core/Inc/../../Drivers/CMSIS/DSP/Include/arm_math.h ****    */
1445:Core/Inc/../../Drivers/CMSIS/DSP/Include/arm_math.h ****   arm_status arm_mat_trans_q31(
1446:Core/Inc/../../Drivers/CMSIS/DSP/Include/arm_math.h ****       const arm_matrix_instance_q31 *pSrc,
1447:Core/Inc/../../Drivers/CMSIS/DSP/Include/arm_math.h ****       arm_matrix_instance_q31 *pDst);
1448:Core/Inc/../../Drivers/CMSIS/DSP/Include/arm_math.h **** 
1449:Core/Inc/../../Drivers/CMSIS/DSP/Include/arm_math.h ****   /**
1450:Core/Inc/../../Drivers/CMSIS/DSP/Include/arm_math.h ****    * @brief Floating-point matrix multiplication
1451:Core/Inc/../../Drivers/CMSIS/DSP/Include/arm_math.h ****    * @param[in]  pSrcA  points to the first input matrix structure
1452:Core/Inc/../../Drivers/CMSIS/DSP/Include/arm_math.h ****    * @param[in]  pSrcB  points to the second input matrix structure
1453:Core/Inc/../../Drivers/CMSIS/DSP/Include/arm_math.h ****    * @param[out] pDst   points to output matrix structure
1454:Core/Inc/../../Drivers/CMSIS/DSP/Include/arm_math.h ****    * @return     The function returns either
1455:Core/Inc/../../Drivers/CMSIS/DSP/Include/arm_math.h ****    * <code>ARM_MATH_SIZE_MISMATCH</code> or <code>ARM_MATH_SUCCESS</code> based on the outcome of s
1456:Core/Inc/../../Drivers/CMSIS/DSP/Include/arm_math.h ****    */
ARM GAS  /var/folders/n6/c271nzx11xl4r4_m7sqjlt0m0000gn/T//ccGo3Vqh.s 			page 54


1457:Core/Inc/../../Drivers/CMSIS/DSP/Include/arm_math.h ****   arm_status arm_mat_mult_f32(
1458:Core/Inc/../../Drivers/CMSIS/DSP/Include/arm_math.h ****       const arm_matrix_instance_f32 *pSrcA,
1459:Core/Inc/../../Drivers/CMSIS/DSP/Include/arm_math.h ****       const arm_matrix_instance_f32 *pSrcB,
1460:Core/Inc/../../Drivers/CMSIS/DSP/Include/arm_math.h ****       arm_matrix_instance_f32 *pDst);
1461:Core/Inc/../../Drivers/CMSIS/DSP/Include/arm_math.h **** 
1462:Core/Inc/../../Drivers/CMSIS/DSP/Include/arm_math.h ****   /**
1463:Core/Inc/../../Drivers/CMSIS/DSP/Include/arm_math.h ****    * @brief Q15 matrix multiplication
1464:Core/Inc/../../Drivers/CMSIS/DSP/Include/arm_math.h ****    * @param[in]  pSrcA   points to the first input matrix structure
1465:Core/Inc/../../Drivers/CMSIS/DSP/Include/arm_math.h ****    * @param[in]  pSrcB   points to the second input matrix structure
1466:Core/Inc/../../Drivers/CMSIS/DSP/Include/arm_math.h ****    * @param[out] pDst    points to output matrix structure
1467:Core/Inc/../../Drivers/CMSIS/DSP/Include/arm_math.h ****    * @param[in]  pState  points to the array for storing intermediate results
1468:Core/Inc/../../Drivers/CMSIS/DSP/Include/arm_math.h ****    * @return     The function returns either
1469:Core/Inc/../../Drivers/CMSIS/DSP/Include/arm_math.h ****    * <code>ARM_MATH_SIZE_MISMATCH</code> or <code>ARM_MATH_SUCCESS</code> based on the outcome of s
1470:Core/Inc/../../Drivers/CMSIS/DSP/Include/arm_math.h ****    */
1471:Core/Inc/../../Drivers/CMSIS/DSP/Include/arm_math.h ****   arm_status arm_mat_mult_q15(
1472:Core/Inc/../../Drivers/CMSIS/DSP/Include/arm_math.h ****       const arm_matrix_instance_q15 *pSrcA,
1473:Core/Inc/../../Drivers/CMSIS/DSP/Include/arm_math.h ****       const arm_matrix_instance_q15 *pSrcB,
1474:Core/Inc/../../Drivers/CMSIS/DSP/Include/arm_math.h ****       arm_matrix_instance_q15 *pDst,
1475:Core/Inc/../../Drivers/CMSIS/DSP/Include/arm_math.h ****       q15_t *pState);
1476:Core/Inc/../../Drivers/CMSIS/DSP/Include/arm_math.h **** 
1477:Core/Inc/../../Drivers/CMSIS/DSP/Include/arm_math.h ****   /**
1478:Core/Inc/../../Drivers/CMSIS/DSP/Include/arm_math.h ****    * @brief Q15 matrix multiplication (fast variant) for Cortex-M3 and Cortex-M4
1479:Core/Inc/../../Drivers/CMSIS/DSP/Include/arm_math.h ****    * @param[in]  pSrcA   points to the first input matrix structure
1480:Core/Inc/../../Drivers/CMSIS/DSP/Include/arm_math.h ****    * @param[in]  pSrcB   points to the second input matrix structure
1481:Core/Inc/../../Drivers/CMSIS/DSP/Include/arm_math.h ****    * @param[out] pDst    points to output matrix structure
1482:Core/Inc/../../Drivers/CMSIS/DSP/Include/arm_math.h ****    * @param[in]  pState  points to the array for storing intermediate results
1483:Core/Inc/../../Drivers/CMSIS/DSP/Include/arm_math.h ****    * @return     The function returns either
1484:Core/Inc/../../Drivers/CMSIS/DSP/Include/arm_math.h ****    * <code>ARM_MATH_SIZE_MISMATCH</code> or <code>ARM_MATH_SUCCESS</code> based on the outcome of s
1485:Core/Inc/../../Drivers/CMSIS/DSP/Include/arm_math.h ****    */
1486:Core/Inc/../../Drivers/CMSIS/DSP/Include/arm_math.h ****   arm_status arm_mat_mult_fast_q15(
1487:Core/Inc/../../Drivers/CMSIS/DSP/Include/arm_math.h ****       const arm_matrix_instance_q15 *pSrcA,
1488:Core/Inc/../../Drivers/CMSIS/DSP/Include/arm_math.h ****       const arm_matrix_instance_q15 *pSrcB,
1489:Core/Inc/../../Drivers/CMSIS/DSP/Include/arm_math.h ****       arm_matrix_instance_q15 *pDst,
1490:Core/Inc/../../Drivers/CMSIS/DSP/Include/arm_math.h ****       q15_t *pState);
1491:Core/Inc/../../Drivers/CMSIS/DSP/Include/arm_math.h **** 
1492:Core/Inc/../../Drivers/CMSIS/DSP/Include/arm_math.h ****   /**
1493:Core/Inc/../../Drivers/CMSIS/DSP/Include/arm_math.h ****    * @brief Q31 matrix multiplication
1494:Core/Inc/../../Drivers/CMSIS/DSP/Include/arm_math.h ****    * @param[in]  pSrcA  points to the first input matrix structure
1495:Core/Inc/../../Drivers/CMSIS/DSP/Include/arm_math.h ****    * @param[in]  pSrcB  points to the second input matrix structure
1496:Core/Inc/../../Drivers/CMSIS/DSP/Include/arm_math.h ****    * @param[out] pDst   points to output matrix structure
1497:Core/Inc/../../Drivers/CMSIS/DSP/Include/arm_math.h ****    * @return     The function returns either
1498:Core/Inc/../../Drivers/CMSIS/DSP/Include/arm_math.h ****    * <code>ARM_MATH_SIZE_MISMATCH</code> or <code>ARM_MATH_SUCCESS</code> based on the outcome of s
1499:Core/Inc/../../Drivers/CMSIS/DSP/Include/arm_math.h ****    */
1500:Core/Inc/../../Drivers/CMSIS/DSP/Include/arm_math.h ****   arm_status arm_mat_mult_q31(
1501:Core/Inc/../../Drivers/CMSIS/DSP/Include/arm_math.h ****       const arm_matrix_instance_q31 *pSrcA,
1502:Core/Inc/../../Drivers/CMSIS/DSP/Include/arm_math.h ****       const arm_matrix_instance_q31 *pSrcB,
1503:Core/Inc/../../Drivers/CMSIS/DSP/Include/arm_math.h ****       arm_matrix_instance_q31 *pDst);
1504:Core/Inc/../../Drivers/CMSIS/DSP/Include/arm_math.h **** 
1505:Core/Inc/../../Drivers/CMSIS/DSP/Include/arm_math.h ****   /**
1506:Core/Inc/../../Drivers/CMSIS/DSP/Include/arm_math.h ****    * @brief Q31 matrix multiplication (fast variant) for Cortex-M3 and Cortex-M4
1507:Core/Inc/../../Drivers/CMSIS/DSP/Include/arm_math.h ****    * @param[in]  pSrcA  points to the first input matrix structure
1508:Core/Inc/../../Drivers/CMSIS/DSP/Include/arm_math.h ****    * @param[in]  pSrcB  points to the second input matrix structure
1509:Core/Inc/../../Drivers/CMSIS/DSP/Include/arm_math.h ****    * @param[out] pDst   points to output matrix structure
1510:Core/Inc/../../Drivers/CMSIS/DSP/Include/arm_math.h ****    * @return     The function returns either
1511:Core/Inc/../../Drivers/CMSIS/DSP/Include/arm_math.h ****    * <code>ARM_MATH_SIZE_MISMATCH</code> or <code>ARM_MATH_SUCCESS</code> based on the outcome of s
1512:Core/Inc/../../Drivers/CMSIS/DSP/Include/arm_math.h ****    */
1513:Core/Inc/../../Drivers/CMSIS/DSP/Include/arm_math.h ****   arm_status arm_mat_mult_fast_q31(
ARM GAS  /var/folders/n6/c271nzx11xl4r4_m7sqjlt0m0000gn/T//ccGo3Vqh.s 			page 55


1514:Core/Inc/../../Drivers/CMSIS/DSP/Include/arm_math.h ****       const arm_matrix_instance_q31 *pSrcA,
1515:Core/Inc/../../Drivers/CMSIS/DSP/Include/arm_math.h ****       const arm_matrix_instance_q31 *pSrcB,
1516:Core/Inc/../../Drivers/CMSIS/DSP/Include/arm_math.h ****       arm_matrix_instance_q31 *pDst);
1517:Core/Inc/../../Drivers/CMSIS/DSP/Include/arm_math.h **** 
1518:Core/Inc/../../Drivers/CMSIS/DSP/Include/arm_math.h ****   /**
1519:Core/Inc/../../Drivers/CMSIS/DSP/Include/arm_math.h ****    * @brief Floating-point matrix subtraction
1520:Core/Inc/../../Drivers/CMSIS/DSP/Include/arm_math.h ****    * @param[in]  pSrcA  points to the first input matrix structure
1521:Core/Inc/../../Drivers/CMSIS/DSP/Include/arm_math.h ****    * @param[in]  pSrcB  points to the second input matrix structure
1522:Core/Inc/../../Drivers/CMSIS/DSP/Include/arm_math.h ****    * @param[out] pDst   points to output matrix structure
1523:Core/Inc/../../Drivers/CMSIS/DSP/Include/arm_math.h ****    * @return     The function returns either
1524:Core/Inc/../../Drivers/CMSIS/DSP/Include/arm_math.h ****    * <code>ARM_MATH_SIZE_MISMATCH</code> or <code>ARM_MATH_SUCCESS</code> based on the outcome of s
1525:Core/Inc/../../Drivers/CMSIS/DSP/Include/arm_math.h ****    */
1526:Core/Inc/../../Drivers/CMSIS/DSP/Include/arm_math.h ****   arm_status arm_mat_sub_f32(
1527:Core/Inc/../../Drivers/CMSIS/DSP/Include/arm_math.h ****       const arm_matrix_instance_f32 *pSrcA,
1528:Core/Inc/../../Drivers/CMSIS/DSP/Include/arm_math.h ****       const arm_matrix_instance_f32 *pSrcB,
1529:Core/Inc/../../Drivers/CMSIS/DSP/Include/arm_math.h ****       arm_matrix_instance_f32 *pDst);
1530:Core/Inc/../../Drivers/CMSIS/DSP/Include/arm_math.h **** 
1531:Core/Inc/../../Drivers/CMSIS/DSP/Include/arm_math.h ****   /**
1532:Core/Inc/../../Drivers/CMSIS/DSP/Include/arm_math.h ****    * @brief Q15 matrix subtraction
1533:Core/Inc/../../Drivers/CMSIS/DSP/Include/arm_math.h ****    * @param[in]  pSrcA  points to the first input matrix structure
1534:Core/Inc/../../Drivers/CMSIS/DSP/Include/arm_math.h ****    * @param[in]  pSrcB  points to the second input matrix structure
1535:Core/Inc/../../Drivers/CMSIS/DSP/Include/arm_math.h ****    * @param[out] pDst   points to output matrix structure
1536:Core/Inc/../../Drivers/CMSIS/DSP/Include/arm_math.h ****    * @return     The function returns either
1537:Core/Inc/../../Drivers/CMSIS/DSP/Include/arm_math.h ****    * <code>ARM_MATH_SIZE_MISMATCH</code> or <code>ARM_MATH_SUCCESS</code> based on the outcome of s
1538:Core/Inc/../../Drivers/CMSIS/DSP/Include/arm_math.h ****    */
1539:Core/Inc/../../Drivers/CMSIS/DSP/Include/arm_math.h ****   arm_status arm_mat_sub_q15(
1540:Core/Inc/../../Drivers/CMSIS/DSP/Include/arm_math.h ****       const arm_matrix_instance_q15 *pSrcA,
1541:Core/Inc/../../Drivers/CMSIS/DSP/Include/arm_math.h ****       const arm_matrix_instance_q15 *pSrcB,
1542:Core/Inc/../../Drivers/CMSIS/DSP/Include/arm_math.h ****       arm_matrix_instance_q15 *pDst);
1543:Core/Inc/../../Drivers/CMSIS/DSP/Include/arm_math.h **** 
1544:Core/Inc/../../Drivers/CMSIS/DSP/Include/arm_math.h ****   /**
1545:Core/Inc/../../Drivers/CMSIS/DSP/Include/arm_math.h ****    * @brief Q31 matrix subtraction
1546:Core/Inc/../../Drivers/CMSIS/DSP/Include/arm_math.h ****    * @param[in]  pSrcA  points to the first input matrix structure
1547:Core/Inc/../../Drivers/CMSIS/DSP/Include/arm_math.h ****    * @param[in]  pSrcB  points to the second input matrix structure
1548:Core/Inc/../../Drivers/CMSIS/DSP/Include/arm_math.h ****    * @param[out] pDst   points to output matrix structure
1549:Core/Inc/../../Drivers/CMSIS/DSP/Include/arm_math.h ****    * @return     The function returns either
1550:Core/Inc/../../Drivers/CMSIS/DSP/Include/arm_math.h ****    * <code>ARM_MATH_SIZE_MISMATCH</code> or <code>ARM_MATH_SUCCESS</code> based on the outcome of s
1551:Core/Inc/../../Drivers/CMSIS/DSP/Include/arm_math.h ****    */
1552:Core/Inc/../../Drivers/CMSIS/DSP/Include/arm_math.h ****   arm_status arm_mat_sub_q31(
1553:Core/Inc/../../Drivers/CMSIS/DSP/Include/arm_math.h ****       const arm_matrix_instance_q31 *pSrcA,
1554:Core/Inc/../../Drivers/CMSIS/DSP/Include/arm_math.h ****       const arm_matrix_instance_q31 *pSrcB,
1555:Core/Inc/../../Drivers/CMSIS/DSP/Include/arm_math.h ****       arm_matrix_instance_q31 *pDst);
1556:Core/Inc/../../Drivers/CMSIS/DSP/Include/arm_math.h **** 
1557:Core/Inc/../../Drivers/CMSIS/DSP/Include/arm_math.h ****   /**
1558:Core/Inc/../../Drivers/CMSIS/DSP/Include/arm_math.h ****    * @brief Floating-point matrix scaling.
1559:Core/Inc/../../Drivers/CMSIS/DSP/Include/arm_math.h ****    * @param[in]  pSrc   points to the input matrix
1560:Core/Inc/../../Drivers/CMSIS/DSP/Include/arm_math.h ****    * @param[in]  scale  scale factor
1561:Core/Inc/../../Drivers/CMSIS/DSP/Include/arm_math.h ****    * @param[out] pDst   points to the output matrix
1562:Core/Inc/../../Drivers/CMSIS/DSP/Include/arm_math.h ****    * @return     The function returns either
1563:Core/Inc/../../Drivers/CMSIS/DSP/Include/arm_math.h ****    * <code>ARM_MATH_SIZE_MISMATCH</code> or <code>ARM_MATH_SUCCESS</code> based on the outcome of s
1564:Core/Inc/../../Drivers/CMSIS/DSP/Include/arm_math.h ****    */
1565:Core/Inc/../../Drivers/CMSIS/DSP/Include/arm_math.h ****   arm_status arm_mat_scale_f32(
1566:Core/Inc/../../Drivers/CMSIS/DSP/Include/arm_math.h ****       const arm_matrix_instance_f32 *pSrc,
1567:Core/Inc/../../Drivers/CMSIS/DSP/Include/arm_math.h ****       float32_t scale,
1568:Core/Inc/../../Drivers/CMSIS/DSP/Include/arm_math.h ****       arm_matrix_instance_f32 *pDst);
1569:Core/Inc/../../Drivers/CMSIS/DSP/Include/arm_math.h **** 
1570:Core/Inc/../../Drivers/CMSIS/DSP/Include/arm_math.h ****   /**
ARM GAS  /var/folders/n6/c271nzx11xl4r4_m7sqjlt0m0000gn/T//ccGo3Vqh.s 			page 56


1571:Core/Inc/../../Drivers/CMSIS/DSP/Include/arm_math.h ****    * @brief Q15 matrix scaling.
1572:Core/Inc/../../Drivers/CMSIS/DSP/Include/arm_math.h ****    * @param[in]  pSrc        points to input matrix
1573:Core/Inc/../../Drivers/CMSIS/DSP/Include/arm_math.h ****    * @param[in]  scaleFract  fractional portion of the scale factor
1574:Core/Inc/../../Drivers/CMSIS/DSP/Include/arm_math.h ****    * @param[in]  shift       number of bits to shift the result by
1575:Core/Inc/../../Drivers/CMSIS/DSP/Include/arm_math.h ****    * @param[out] pDst        points to output matrix
1576:Core/Inc/../../Drivers/CMSIS/DSP/Include/arm_math.h ****    * @return     The function returns either
1577:Core/Inc/../../Drivers/CMSIS/DSP/Include/arm_math.h ****    * <code>ARM_MATH_SIZE_MISMATCH</code> or <code>ARM_MATH_SUCCESS</code> based on the outcome of s
1578:Core/Inc/../../Drivers/CMSIS/DSP/Include/arm_math.h ****    */
1579:Core/Inc/../../Drivers/CMSIS/DSP/Include/arm_math.h ****   arm_status arm_mat_scale_q15(
1580:Core/Inc/../../Drivers/CMSIS/DSP/Include/arm_math.h ****       const arm_matrix_instance_q15 *pSrc,
1581:Core/Inc/../../Drivers/CMSIS/DSP/Include/arm_math.h ****       q15_t scaleFract,
1582:Core/Inc/../../Drivers/CMSIS/DSP/Include/arm_math.h ****       int32_t shift,
1583:Core/Inc/../../Drivers/CMSIS/DSP/Include/arm_math.h ****       arm_matrix_instance_q15 *pDst);
1584:Core/Inc/../../Drivers/CMSIS/DSP/Include/arm_math.h **** 
1585:Core/Inc/../../Drivers/CMSIS/DSP/Include/arm_math.h ****   /**
1586:Core/Inc/../../Drivers/CMSIS/DSP/Include/arm_math.h ****    * @brief Q31 matrix scaling.
1587:Core/Inc/../../Drivers/CMSIS/DSP/Include/arm_math.h ****    * @param[in]  pSrc        points to input matrix
1588:Core/Inc/../../Drivers/CMSIS/DSP/Include/arm_math.h ****    * @param[in]  scaleFract  fractional portion of the scale factor
1589:Core/Inc/../../Drivers/CMSIS/DSP/Include/arm_math.h ****    * @param[in]  shift       number of bits to shift the result by
1590:Core/Inc/../../Drivers/CMSIS/DSP/Include/arm_math.h ****    * @param[out] pDst        points to output matrix structure
1591:Core/Inc/../../Drivers/CMSIS/DSP/Include/arm_math.h ****    * @return     The function returns either
1592:Core/Inc/../../Drivers/CMSIS/DSP/Include/arm_math.h ****    * <code>ARM_MATH_SIZE_MISMATCH</code> or <code>ARM_MATH_SUCCESS</code> based on the outcome of s
1593:Core/Inc/../../Drivers/CMSIS/DSP/Include/arm_math.h ****    */
1594:Core/Inc/../../Drivers/CMSIS/DSP/Include/arm_math.h ****   arm_status arm_mat_scale_q31(
1595:Core/Inc/../../Drivers/CMSIS/DSP/Include/arm_math.h ****       const arm_matrix_instance_q31 *pSrc,
1596:Core/Inc/../../Drivers/CMSIS/DSP/Include/arm_math.h ****       q31_t scaleFract,
1597:Core/Inc/../../Drivers/CMSIS/DSP/Include/arm_math.h ****       int32_t shift,
1598:Core/Inc/../../Drivers/CMSIS/DSP/Include/arm_math.h ****       arm_matrix_instance_q31 *pDst);
1599:Core/Inc/../../Drivers/CMSIS/DSP/Include/arm_math.h **** 
1600:Core/Inc/../../Drivers/CMSIS/DSP/Include/arm_math.h ****   /**
1601:Core/Inc/../../Drivers/CMSIS/DSP/Include/arm_math.h ****    * @brief  Q31 matrix initialization.
1602:Core/Inc/../../Drivers/CMSIS/DSP/Include/arm_math.h ****    * @param[in,out] S         points to an instance of the floating-point matrix structure.
1603:Core/Inc/../../Drivers/CMSIS/DSP/Include/arm_math.h ****    * @param[in]     nRows     number of rows in the matrix.
1604:Core/Inc/../../Drivers/CMSIS/DSP/Include/arm_math.h ****    * @param[in]     nColumns  number of columns in the matrix.
1605:Core/Inc/../../Drivers/CMSIS/DSP/Include/arm_math.h ****    * @param[in]     pData     points to the matrix data array.
1606:Core/Inc/../../Drivers/CMSIS/DSP/Include/arm_math.h ****    */
1607:Core/Inc/../../Drivers/CMSIS/DSP/Include/arm_math.h ****   void arm_mat_init_q31(
1608:Core/Inc/../../Drivers/CMSIS/DSP/Include/arm_math.h ****       arm_matrix_instance_q31 *S,
1609:Core/Inc/../../Drivers/CMSIS/DSP/Include/arm_math.h ****       uint16_t nRows,
1610:Core/Inc/../../Drivers/CMSIS/DSP/Include/arm_math.h ****       uint16_t nColumns,
1611:Core/Inc/../../Drivers/CMSIS/DSP/Include/arm_math.h ****       q31_t *pData);
1612:Core/Inc/../../Drivers/CMSIS/DSP/Include/arm_math.h **** 
1613:Core/Inc/../../Drivers/CMSIS/DSP/Include/arm_math.h ****   /**
1614:Core/Inc/../../Drivers/CMSIS/DSP/Include/arm_math.h ****    * @brief  Q15 matrix initialization.
1615:Core/Inc/../../Drivers/CMSIS/DSP/Include/arm_math.h ****    * @param[in,out] S         points to an instance of the floating-point matrix structure.
1616:Core/Inc/../../Drivers/CMSIS/DSP/Include/arm_math.h ****    * @param[in]     nRows     number of rows in the matrix.
1617:Core/Inc/../../Drivers/CMSIS/DSP/Include/arm_math.h ****    * @param[in]     nColumns  number of columns in the matrix.
1618:Core/Inc/../../Drivers/CMSIS/DSP/Include/arm_math.h ****    * @param[in]     pData     points to the matrix data array.
1619:Core/Inc/../../Drivers/CMSIS/DSP/Include/arm_math.h ****    */
1620:Core/Inc/../../Drivers/CMSIS/DSP/Include/arm_math.h ****   void arm_mat_init_q15(
1621:Core/Inc/../../Drivers/CMSIS/DSP/Include/arm_math.h ****       arm_matrix_instance_q15 *S,
1622:Core/Inc/../../Drivers/CMSIS/DSP/Include/arm_math.h ****       uint16_t nRows,
1623:Core/Inc/../../Drivers/CMSIS/DSP/Include/arm_math.h ****       uint16_t nColumns,
1624:Core/Inc/../../Drivers/CMSIS/DSP/Include/arm_math.h ****       q15_t *pData);
1625:Core/Inc/../../Drivers/CMSIS/DSP/Include/arm_math.h **** 
1626:Core/Inc/../../Drivers/CMSIS/DSP/Include/arm_math.h ****   /**
1627:Core/Inc/../../Drivers/CMSIS/DSP/Include/arm_math.h ****    * @brief  Floating-point matrix initialization.
ARM GAS  /var/folders/n6/c271nzx11xl4r4_m7sqjlt0m0000gn/T//ccGo3Vqh.s 			page 57


1628:Core/Inc/../../Drivers/CMSIS/DSP/Include/arm_math.h ****    * @param[in,out] S         points to an instance of the floating-point matrix structure.
1629:Core/Inc/../../Drivers/CMSIS/DSP/Include/arm_math.h ****    * @param[in]     nRows     number of rows in the matrix.
1630:Core/Inc/../../Drivers/CMSIS/DSP/Include/arm_math.h ****    * @param[in]     nColumns  number of columns in the matrix.
1631:Core/Inc/../../Drivers/CMSIS/DSP/Include/arm_math.h ****    * @param[in]     pData     points to the matrix data array.
1632:Core/Inc/../../Drivers/CMSIS/DSP/Include/arm_math.h ****    */
1633:Core/Inc/../../Drivers/CMSIS/DSP/Include/arm_math.h ****   void arm_mat_init_f32(
1634:Core/Inc/../../Drivers/CMSIS/DSP/Include/arm_math.h ****       arm_matrix_instance_f32 *S,
1635:Core/Inc/../../Drivers/CMSIS/DSP/Include/arm_math.h ****       uint16_t nRows,
1636:Core/Inc/../../Drivers/CMSIS/DSP/Include/arm_math.h ****       uint16_t nColumns,
1637:Core/Inc/../../Drivers/CMSIS/DSP/Include/arm_math.h ****       float32_t *pData);
1638:Core/Inc/../../Drivers/CMSIS/DSP/Include/arm_math.h **** 
1639:Core/Inc/../../Drivers/CMSIS/DSP/Include/arm_math.h ****   /**
1640:Core/Inc/../../Drivers/CMSIS/DSP/Include/arm_math.h ****    * @brief Instance structure for the Q15 PID Control.
1641:Core/Inc/../../Drivers/CMSIS/DSP/Include/arm_math.h ****    */
1642:Core/Inc/../../Drivers/CMSIS/DSP/Include/arm_math.h ****   typedef struct
1643:Core/Inc/../../Drivers/CMSIS/DSP/Include/arm_math.h ****   {
1644:Core/Inc/../../Drivers/CMSIS/DSP/Include/arm_math.h ****     q15_t A0; /**< The derived gain, A0 = Kp + Ki + Kd . */
1645:Core/Inc/../../Drivers/CMSIS/DSP/Include/arm_math.h **** #if !defined(ARM_MATH_DSP)
1646:Core/Inc/../../Drivers/CMSIS/DSP/Include/arm_math.h ****     q15_t A1;
1647:Core/Inc/../../Drivers/CMSIS/DSP/Include/arm_math.h ****     q15_t A2;
1648:Core/Inc/../../Drivers/CMSIS/DSP/Include/arm_math.h **** #else
1649:Core/Inc/../../Drivers/CMSIS/DSP/Include/arm_math.h ****   q31_t A1; /**< The derived gain A1 = -Kp - 2Kd | Kd.*/
1650:Core/Inc/../../Drivers/CMSIS/DSP/Include/arm_math.h **** #endif
1651:Core/Inc/../../Drivers/CMSIS/DSP/Include/arm_math.h ****     q15_t state[3]; /**< The state array of length 3. */
1652:Core/Inc/../../Drivers/CMSIS/DSP/Include/arm_math.h ****     q15_t Kp;       /**< The proportional gain. */
1653:Core/Inc/../../Drivers/CMSIS/DSP/Include/arm_math.h ****     q15_t Ki;       /**< The integral gain. */
1654:Core/Inc/../../Drivers/CMSIS/DSP/Include/arm_math.h ****     q15_t Kd;       /**< The derivative gain. */
1655:Core/Inc/../../Drivers/CMSIS/DSP/Include/arm_math.h ****   } arm_pid_instance_q15;
1656:Core/Inc/../../Drivers/CMSIS/DSP/Include/arm_math.h **** 
1657:Core/Inc/../../Drivers/CMSIS/DSP/Include/arm_math.h ****   /**
1658:Core/Inc/../../Drivers/CMSIS/DSP/Include/arm_math.h ****    * @brief Instance structure for the Q31 PID Control.
1659:Core/Inc/../../Drivers/CMSIS/DSP/Include/arm_math.h ****    */
1660:Core/Inc/../../Drivers/CMSIS/DSP/Include/arm_math.h ****   typedef struct
1661:Core/Inc/../../Drivers/CMSIS/DSP/Include/arm_math.h ****   {
1662:Core/Inc/../../Drivers/CMSIS/DSP/Include/arm_math.h ****     q31_t A0;       /**< The derived gain, A0 = Kp + Ki + Kd . */
1663:Core/Inc/../../Drivers/CMSIS/DSP/Include/arm_math.h ****     q31_t A1;       /**< The derived gain, A1 = -Kp - 2Kd. */
1664:Core/Inc/../../Drivers/CMSIS/DSP/Include/arm_math.h ****     q31_t A2;       /**< The derived gain, A2 = Kd . */
1665:Core/Inc/../../Drivers/CMSIS/DSP/Include/arm_math.h ****     q31_t state[3]; /**< The state array of length 3. */
1666:Core/Inc/../../Drivers/CMSIS/DSP/Include/arm_math.h ****     q31_t Kp;       /**< The proportional gain. */
1667:Core/Inc/../../Drivers/CMSIS/DSP/Include/arm_math.h ****     q31_t Ki;       /**< The integral gain. */
1668:Core/Inc/../../Drivers/CMSIS/DSP/Include/arm_math.h ****     q31_t Kd;       /**< The derivative gain. */
1669:Core/Inc/../../Drivers/CMSIS/DSP/Include/arm_math.h ****   } arm_pid_instance_q31;
1670:Core/Inc/../../Drivers/CMSIS/DSP/Include/arm_math.h **** 
1671:Core/Inc/../../Drivers/CMSIS/DSP/Include/arm_math.h ****   /**
1672:Core/Inc/../../Drivers/CMSIS/DSP/Include/arm_math.h ****    * @brief Instance structure for the floating-point PID Control.
1673:Core/Inc/../../Drivers/CMSIS/DSP/Include/arm_math.h ****    */
1674:Core/Inc/../../Drivers/CMSIS/DSP/Include/arm_math.h ****   typedef struct
1675:Core/Inc/../../Drivers/CMSIS/DSP/Include/arm_math.h ****   {
1676:Core/Inc/../../Drivers/CMSIS/DSP/Include/arm_math.h ****     float32_t A0;       /**< The derived gain, A0 = Kp + Ki + Kd . */
1677:Core/Inc/../../Drivers/CMSIS/DSP/Include/arm_math.h ****     float32_t A1;       /**< The derived gain, A1 = -Kp - 2Kd. */
1678:Core/Inc/../../Drivers/CMSIS/DSP/Include/arm_math.h ****     float32_t A2;       /**< The derived gain, A2 = Kd . */
1679:Core/Inc/../../Drivers/CMSIS/DSP/Include/arm_math.h ****     float32_t state[3]; /**< The state array of length 3. */
1680:Core/Inc/../../Drivers/CMSIS/DSP/Include/arm_math.h ****     float32_t Kp;       /**< The proportional gain. */
1681:Core/Inc/../../Drivers/CMSIS/DSP/Include/arm_math.h ****     float32_t Ki;       /**< The integral gain. */
1682:Core/Inc/../../Drivers/CMSIS/DSP/Include/arm_math.h ****     float32_t Kd;       /**< The derivative gain. */
1683:Core/Inc/../../Drivers/CMSIS/DSP/Include/arm_math.h ****   } arm_pid_instance_f32;
1684:Core/Inc/../../Drivers/CMSIS/DSP/Include/arm_math.h **** 
ARM GAS  /var/folders/n6/c271nzx11xl4r4_m7sqjlt0m0000gn/T//ccGo3Vqh.s 			page 58


1685:Core/Inc/../../Drivers/CMSIS/DSP/Include/arm_math.h ****   /**
1686:Core/Inc/../../Drivers/CMSIS/DSP/Include/arm_math.h ****    * @brief  Initialization function for the floating-point PID Control.
1687:Core/Inc/../../Drivers/CMSIS/DSP/Include/arm_math.h ****    * @param[in,out] S               points to an instance of the PID structure.
1688:Core/Inc/../../Drivers/CMSIS/DSP/Include/arm_math.h ****    * @param[in]     resetStateFlag  flag to reset the state. 0 = no change in state 1 = reset the s
1689:Core/Inc/../../Drivers/CMSIS/DSP/Include/arm_math.h ****    */
1690:Core/Inc/../../Drivers/CMSIS/DSP/Include/arm_math.h ****   void arm_pid_init_f32(
1691:Core/Inc/../../Drivers/CMSIS/DSP/Include/arm_math.h ****       arm_pid_instance_f32 *S,
1692:Core/Inc/../../Drivers/CMSIS/DSP/Include/arm_math.h ****       int32_t resetStateFlag);
1693:Core/Inc/../../Drivers/CMSIS/DSP/Include/arm_math.h **** 
1694:Core/Inc/../../Drivers/CMSIS/DSP/Include/arm_math.h ****   /**
1695:Core/Inc/../../Drivers/CMSIS/DSP/Include/arm_math.h ****    * @brief  Reset function for the floating-point PID Control.
1696:Core/Inc/../../Drivers/CMSIS/DSP/Include/arm_math.h ****    * @param[in,out] S  is an instance of the floating-point PID Control structure
1697:Core/Inc/../../Drivers/CMSIS/DSP/Include/arm_math.h ****    */
1698:Core/Inc/../../Drivers/CMSIS/DSP/Include/arm_math.h ****   void arm_pid_reset_f32(
1699:Core/Inc/../../Drivers/CMSIS/DSP/Include/arm_math.h ****       arm_pid_instance_f32 *S);
1700:Core/Inc/../../Drivers/CMSIS/DSP/Include/arm_math.h **** 
1701:Core/Inc/../../Drivers/CMSIS/DSP/Include/arm_math.h ****   /**
1702:Core/Inc/../../Drivers/CMSIS/DSP/Include/arm_math.h ****    * @brief  Initialization function for the Q31 PID Control.
1703:Core/Inc/../../Drivers/CMSIS/DSP/Include/arm_math.h ****    * @param[in,out] S               points to an instance of the Q15 PID structure.
1704:Core/Inc/../../Drivers/CMSIS/DSP/Include/arm_math.h ****    * @param[in]     resetStateFlag  flag to reset the state. 0 = no change in state 1 = reset the s
1705:Core/Inc/../../Drivers/CMSIS/DSP/Include/arm_math.h ****    */
1706:Core/Inc/../../Drivers/CMSIS/DSP/Include/arm_math.h ****   void arm_pid_init_q31(
1707:Core/Inc/../../Drivers/CMSIS/DSP/Include/arm_math.h ****       arm_pid_instance_q31 *S,
1708:Core/Inc/../../Drivers/CMSIS/DSP/Include/arm_math.h ****       int32_t resetStateFlag);
1709:Core/Inc/../../Drivers/CMSIS/DSP/Include/arm_math.h **** 
1710:Core/Inc/../../Drivers/CMSIS/DSP/Include/arm_math.h ****   /**
1711:Core/Inc/../../Drivers/CMSIS/DSP/Include/arm_math.h ****    * @brief  Reset function for the Q31 PID Control.
1712:Core/Inc/../../Drivers/CMSIS/DSP/Include/arm_math.h ****    * @param[in,out] S   points to an instance of the Q31 PID Control structure
1713:Core/Inc/../../Drivers/CMSIS/DSP/Include/arm_math.h ****    */
1714:Core/Inc/../../Drivers/CMSIS/DSP/Include/arm_math.h **** 
1715:Core/Inc/../../Drivers/CMSIS/DSP/Include/arm_math.h ****   void arm_pid_reset_q31(
1716:Core/Inc/../../Drivers/CMSIS/DSP/Include/arm_math.h ****       arm_pid_instance_q31 *S);
1717:Core/Inc/../../Drivers/CMSIS/DSP/Include/arm_math.h **** 
1718:Core/Inc/../../Drivers/CMSIS/DSP/Include/arm_math.h ****   /**
1719:Core/Inc/../../Drivers/CMSIS/DSP/Include/arm_math.h ****    * @brief  Initialization function for the Q15 PID Control.
1720:Core/Inc/../../Drivers/CMSIS/DSP/Include/arm_math.h ****    * @param[in,out] S               points to an instance of the Q15 PID structure.
1721:Core/Inc/../../Drivers/CMSIS/DSP/Include/arm_math.h ****    * @param[in]     resetStateFlag  flag to reset the state. 0 = no change in state 1 = reset the s
1722:Core/Inc/../../Drivers/CMSIS/DSP/Include/arm_math.h ****    */
1723:Core/Inc/../../Drivers/CMSIS/DSP/Include/arm_math.h ****   void arm_pid_init_q15(
1724:Core/Inc/../../Drivers/CMSIS/DSP/Include/arm_math.h ****       arm_pid_instance_q15 *S,
1725:Core/Inc/../../Drivers/CMSIS/DSP/Include/arm_math.h ****       int32_t resetStateFlag);
1726:Core/Inc/../../Drivers/CMSIS/DSP/Include/arm_math.h **** 
1727:Core/Inc/../../Drivers/CMSIS/DSP/Include/arm_math.h ****   /**
1728:Core/Inc/../../Drivers/CMSIS/DSP/Include/arm_math.h ****    * @brief  Reset function for the Q15 PID Control.
1729:Core/Inc/../../Drivers/CMSIS/DSP/Include/arm_math.h ****    * @param[in,out] S  points to an instance of the q15 PID Control structure
1730:Core/Inc/../../Drivers/CMSIS/DSP/Include/arm_math.h ****    */
1731:Core/Inc/../../Drivers/CMSIS/DSP/Include/arm_math.h ****   void arm_pid_reset_q15(
1732:Core/Inc/../../Drivers/CMSIS/DSP/Include/arm_math.h ****       arm_pid_instance_q15 *S);
1733:Core/Inc/../../Drivers/CMSIS/DSP/Include/arm_math.h **** 
1734:Core/Inc/../../Drivers/CMSIS/DSP/Include/arm_math.h ****   /**
1735:Core/Inc/../../Drivers/CMSIS/DSP/Include/arm_math.h ****    * @brief Instance structure for the floating-point Linear Interpolate function.
1736:Core/Inc/../../Drivers/CMSIS/DSP/Include/arm_math.h ****    */
1737:Core/Inc/../../Drivers/CMSIS/DSP/Include/arm_math.h ****   typedef struct
1738:Core/Inc/../../Drivers/CMSIS/DSP/Include/arm_math.h ****   {
1739:Core/Inc/../../Drivers/CMSIS/DSP/Include/arm_math.h ****     uint32_t nValues;   /**< nValues */
1740:Core/Inc/../../Drivers/CMSIS/DSP/Include/arm_math.h ****     float32_t x1;       /**< x1 */
1741:Core/Inc/../../Drivers/CMSIS/DSP/Include/arm_math.h ****     float32_t xSpacing; /**< xSpacing */
ARM GAS  /var/folders/n6/c271nzx11xl4r4_m7sqjlt0m0000gn/T//ccGo3Vqh.s 			page 59


1742:Core/Inc/../../Drivers/CMSIS/DSP/Include/arm_math.h ****     float32_t *pYData;  /**< pointer to the table of Y values */
1743:Core/Inc/../../Drivers/CMSIS/DSP/Include/arm_math.h ****   } arm_linear_interp_instance_f32;
1744:Core/Inc/../../Drivers/CMSIS/DSP/Include/arm_math.h **** 
1745:Core/Inc/../../Drivers/CMSIS/DSP/Include/arm_math.h ****   /**
1746:Core/Inc/../../Drivers/CMSIS/DSP/Include/arm_math.h ****    * @brief Instance structure for the floating-point bilinear interpolation function.
1747:Core/Inc/../../Drivers/CMSIS/DSP/Include/arm_math.h ****    */
1748:Core/Inc/../../Drivers/CMSIS/DSP/Include/arm_math.h ****   typedef struct
1749:Core/Inc/../../Drivers/CMSIS/DSP/Include/arm_math.h ****   {
1750:Core/Inc/../../Drivers/CMSIS/DSP/Include/arm_math.h ****     uint16_t numRows; /**< number of rows in the data table. */
1751:Core/Inc/../../Drivers/CMSIS/DSP/Include/arm_math.h ****     uint16_t numCols; /**< number of columns in the data table. */
1752:Core/Inc/../../Drivers/CMSIS/DSP/Include/arm_math.h ****     float32_t *pData; /**< points to the data table. */
1753:Core/Inc/../../Drivers/CMSIS/DSP/Include/arm_math.h ****   } arm_bilinear_interp_instance_f32;
1754:Core/Inc/../../Drivers/CMSIS/DSP/Include/arm_math.h **** 
1755:Core/Inc/../../Drivers/CMSIS/DSP/Include/arm_math.h ****   /**
1756:Core/Inc/../../Drivers/CMSIS/DSP/Include/arm_math.h ****    * @brief Instance structure for the Q31 bilinear interpolation function.
1757:Core/Inc/../../Drivers/CMSIS/DSP/Include/arm_math.h ****    */
1758:Core/Inc/../../Drivers/CMSIS/DSP/Include/arm_math.h ****   typedef struct
1759:Core/Inc/../../Drivers/CMSIS/DSP/Include/arm_math.h ****   {
1760:Core/Inc/../../Drivers/CMSIS/DSP/Include/arm_math.h ****     uint16_t numRows; /**< number of rows in the data table. */
1761:Core/Inc/../../Drivers/CMSIS/DSP/Include/arm_math.h ****     uint16_t numCols; /**< number of columns in the data table. */
1762:Core/Inc/../../Drivers/CMSIS/DSP/Include/arm_math.h ****     q31_t *pData;     /**< points to the data table. */
1763:Core/Inc/../../Drivers/CMSIS/DSP/Include/arm_math.h ****   } arm_bilinear_interp_instance_q31;
1764:Core/Inc/../../Drivers/CMSIS/DSP/Include/arm_math.h **** 
1765:Core/Inc/../../Drivers/CMSIS/DSP/Include/arm_math.h ****   /**
1766:Core/Inc/../../Drivers/CMSIS/DSP/Include/arm_math.h ****    * @brief Instance structure for the Q15 bilinear interpolation function.
1767:Core/Inc/../../Drivers/CMSIS/DSP/Include/arm_math.h ****    */
1768:Core/Inc/../../Drivers/CMSIS/DSP/Include/arm_math.h ****   typedef struct
1769:Core/Inc/../../Drivers/CMSIS/DSP/Include/arm_math.h ****   {
1770:Core/Inc/../../Drivers/CMSIS/DSP/Include/arm_math.h ****     uint16_t numRows; /**< number of rows in the data table. */
1771:Core/Inc/../../Drivers/CMSIS/DSP/Include/arm_math.h ****     uint16_t numCols; /**< number of columns in the data table. */
1772:Core/Inc/../../Drivers/CMSIS/DSP/Include/arm_math.h ****     q15_t *pData;     /**< points to the data table. */
1773:Core/Inc/../../Drivers/CMSIS/DSP/Include/arm_math.h ****   } arm_bilinear_interp_instance_q15;
1774:Core/Inc/../../Drivers/CMSIS/DSP/Include/arm_math.h **** 
1775:Core/Inc/../../Drivers/CMSIS/DSP/Include/arm_math.h ****   /**
1776:Core/Inc/../../Drivers/CMSIS/DSP/Include/arm_math.h ****    * @brief Instance structure for the Q15 bilinear interpolation function.
1777:Core/Inc/../../Drivers/CMSIS/DSP/Include/arm_math.h ****    */
1778:Core/Inc/../../Drivers/CMSIS/DSP/Include/arm_math.h ****   typedef struct
1779:Core/Inc/../../Drivers/CMSIS/DSP/Include/arm_math.h ****   {
1780:Core/Inc/../../Drivers/CMSIS/DSP/Include/arm_math.h ****     uint16_t numRows; /**< number of rows in the data table. */
1781:Core/Inc/../../Drivers/CMSIS/DSP/Include/arm_math.h ****     uint16_t numCols; /**< number of columns in the data table. */
1782:Core/Inc/../../Drivers/CMSIS/DSP/Include/arm_math.h ****     q7_t *pData;      /**< points to the data table. */
1783:Core/Inc/../../Drivers/CMSIS/DSP/Include/arm_math.h ****   } arm_bilinear_interp_instance_q7;
1784:Core/Inc/../../Drivers/CMSIS/DSP/Include/arm_math.h **** 
1785:Core/Inc/../../Drivers/CMSIS/DSP/Include/arm_math.h ****   /**
1786:Core/Inc/../../Drivers/CMSIS/DSP/Include/arm_math.h ****    * @brief Q7 vector multiplication.
1787:Core/Inc/../../Drivers/CMSIS/DSP/Include/arm_math.h ****    * @param[in]  pSrcA      points to the first input vector
1788:Core/Inc/../../Drivers/CMSIS/DSP/Include/arm_math.h ****    * @param[in]  pSrcB      points to the second input vector
1789:Core/Inc/../../Drivers/CMSIS/DSP/Include/arm_math.h ****    * @param[out] pDst       points to the output vector
1790:Core/Inc/../../Drivers/CMSIS/DSP/Include/arm_math.h ****    * @param[in]  blockSize  number of samples in each vector
1791:Core/Inc/../../Drivers/CMSIS/DSP/Include/arm_math.h ****    */
1792:Core/Inc/../../Drivers/CMSIS/DSP/Include/arm_math.h ****   void arm_mult_q7(
1793:Core/Inc/../../Drivers/CMSIS/DSP/Include/arm_math.h ****       q7_t *pSrcA,
1794:Core/Inc/../../Drivers/CMSIS/DSP/Include/arm_math.h ****       q7_t *pSrcB,
1795:Core/Inc/../../Drivers/CMSIS/DSP/Include/arm_math.h ****       q7_t *pDst,
1796:Core/Inc/../../Drivers/CMSIS/DSP/Include/arm_math.h ****       uint32_t blockSize);
1797:Core/Inc/../../Drivers/CMSIS/DSP/Include/arm_math.h **** 
1798:Core/Inc/../../Drivers/CMSIS/DSP/Include/arm_math.h ****   /**
ARM GAS  /var/folders/n6/c271nzx11xl4r4_m7sqjlt0m0000gn/T//ccGo3Vqh.s 			page 60


1799:Core/Inc/../../Drivers/CMSIS/DSP/Include/arm_math.h ****    * @brief Q15 vector multiplication.
1800:Core/Inc/../../Drivers/CMSIS/DSP/Include/arm_math.h ****    * @param[in]  pSrcA      points to the first input vector
1801:Core/Inc/../../Drivers/CMSIS/DSP/Include/arm_math.h ****    * @param[in]  pSrcB      points to the second input vector
1802:Core/Inc/../../Drivers/CMSIS/DSP/Include/arm_math.h ****    * @param[out] pDst       points to the output vector
1803:Core/Inc/../../Drivers/CMSIS/DSP/Include/arm_math.h ****    * @param[in]  blockSize  number of samples in each vector
1804:Core/Inc/../../Drivers/CMSIS/DSP/Include/arm_math.h ****    */
1805:Core/Inc/../../Drivers/CMSIS/DSP/Include/arm_math.h ****   void arm_mult_q15(
1806:Core/Inc/../../Drivers/CMSIS/DSP/Include/arm_math.h ****       q15_t *pSrcA,
1807:Core/Inc/../../Drivers/CMSIS/DSP/Include/arm_math.h ****       q15_t *pSrcB,
1808:Core/Inc/../../Drivers/CMSIS/DSP/Include/arm_math.h ****       q15_t *pDst,
1809:Core/Inc/../../Drivers/CMSIS/DSP/Include/arm_math.h ****       uint32_t blockSize);
1810:Core/Inc/../../Drivers/CMSIS/DSP/Include/arm_math.h **** 
1811:Core/Inc/../../Drivers/CMSIS/DSP/Include/arm_math.h ****   /**
1812:Core/Inc/../../Drivers/CMSIS/DSP/Include/arm_math.h ****    * @brief Q31 vector multiplication.
1813:Core/Inc/../../Drivers/CMSIS/DSP/Include/arm_math.h ****    * @param[in]  pSrcA      points to the first input vector
1814:Core/Inc/../../Drivers/CMSIS/DSP/Include/arm_math.h ****    * @param[in]  pSrcB      points to the second input vector
1815:Core/Inc/../../Drivers/CMSIS/DSP/Include/arm_math.h ****    * @param[out] pDst       points to the output vector
1816:Core/Inc/../../Drivers/CMSIS/DSP/Include/arm_math.h ****    * @param[in]  blockSize  number of samples in each vector
1817:Core/Inc/../../Drivers/CMSIS/DSP/Include/arm_math.h ****    */
1818:Core/Inc/../../Drivers/CMSIS/DSP/Include/arm_math.h ****   void arm_mult_q31(
1819:Core/Inc/../../Drivers/CMSIS/DSP/Include/arm_math.h ****       q31_t *pSrcA,
1820:Core/Inc/../../Drivers/CMSIS/DSP/Include/arm_math.h ****       q31_t *pSrcB,
1821:Core/Inc/../../Drivers/CMSIS/DSP/Include/arm_math.h ****       q31_t *pDst,
1822:Core/Inc/../../Drivers/CMSIS/DSP/Include/arm_math.h ****       uint32_t blockSize);
1823:Core/Inc/../../Drivers/CMSIS/DSP/Include/arm_math.h **** 
1824:Core/Inc/../../Drivers/CMSIS/DSP/Include/arm_math.h ****   /**
1825:Core/Inc/../../Drivers/CMSIS/DSP/Include/arm_math.h ****    * @brief Floating-point vector multiplication.
1826:Core/Inc/../../Drivers/CMSIS/DSP/Include/arm_math.h ****    * @param[in]  pSrcA      points to the first input vector
1827:Core/Inc/../../Drivers/CMSIS/DSP/Include/arm_math.h ****    * @param[in]  pSrcB      points to the second input vector
1828:Core/Inc/../../Drivers/CMSIS/DSP/Include/arm_math.h ****    * @param[out] pDst       points to the output vector
1829:Core/Inc/../../Drivers/CMSIS/DSP/Include/arm_math.h ****    * @param[in]  blockSize  number of samples in each vector
1830:Core/Inc/../../Drivers/CMSIS/DSP/Include/arm_math.h ****    */
1831:Core/Inc/../../Drivers/CMSIS/DSP/Include/arm_math.h ****   void arm_mult_f32(
1832:Core/Inc/../../Drivers/CMSIS/DSP/Include/arm_math.h ****       float32_t *pSrcA,
1833:Core/Inc/../../Drivers/CMSIS/DSP/Include/arm_math.h ****       float32_t *pSrcB,
1834:Core/Inc/../../Drivers/CMSIS/DSP/Include/arm_math.h ****       float32_t *pDst,
1835:Core/Inc/../../Drivers/CMSIS/DSP/Include/arm_math.h ****       uint32_t blockSize);
1836:Core/Inc/../../Drivers/CMSIS/DSP/Include/arm_math.h **** 
1837:Core/Inc/../../Drivers/CMSIS/DSP/Include/arm_math.h ****   /**
1838:Core/Inc/../../Drivers/CMSIS/DSP/Include/arm_math.h ****    * @brief Instance structure for the Q15 CFFT/CIFFT function.
1839:Core/Inc/../../Drivers/CMSIS/DSP/Include/arm_math.h ****    */
1840:Core/Inc/../../Drivers/CMSIS/DSP/Include/arm_math.h ****   typedef struct
1841:Core/Inc/../../Drivers/CMSIS/DSP/Include/arm_math.h ****   {
1842:Core/Inc/../../Drivers/CMSIS/DSP/Include/arm_math.h ****     uint16_t fftLen;           /**< length of the FFT. */
1843:Core/Inc/../../Drivers/CMSIS/DSP/Include/arm_math.h ****     uint8_t ifftFlag;          /**< flag that selects forward (ifftFlag=0) or inverse (ifftFlag=1) 
1844:Core/Inc/../../Drivers/CMSIS/DSP/Include/arm_math.h ****     uint8_t bitReverseFlag;    /**< flag that enables (bitReverseFlag=1) or disables (bitReverseFla
1845:Core/Inc/../../Drivers/CMSIS/DSP/Include/arm_math.h ****     q15_t *pTwiddle;           /**< points to the Sin twiddle factor table. */
1846:Core/Inc/../../Drivers/CMSIS/DSP/Include/arm_math.h ****     uint16_t *pBitRevTable;    /**< points to the bit reversal table. */
1847:Core/Inc/../../Drivers/CMSIS/DSP/Include/arm_math.h ****     uint16_t twidCoefModifier; /**< twiddle coefficient modifier that supports different size FFTs 
1848:Core/Inc/../../Drivers/CMSIS/DSP/Include/arm_math.h ****     uint16_t bitRevFactor;     /**< bit reversal modifier that supports different size FFTs with th
1849:Core/Inc/../../Drivers/CMSIS/DSP/Include/arm_math.h ****   } arm_cfft_radix2_instance_q15;
1850:Core/Inc/../../Drivers/CMSIS/DSP/Include/arm_math.h **** 
1851:Core/Inc/../../Drivers/CMSIS/DSP/Include/arm_math.h ****   /* Deprecated */
1852:Core/Inc/../../Drivers/CMSIS/DSP/Include/arm_math.h ****   arm_status arm_cfft_radix2_init_q15(
1853:Core/Inc/../../Drivers/CMSIS/DSP/Include/arm_math.h ****       arm_cfft_radix2_instance_q15 *S,
1854:Core/Inc/../../Drivers/CMSIS/DSP/Include/arm_math.h ****       uint16_t fftLen,
1855:Core/Inc/../../Drivers/CMSIS/DSP/Include/arm_math.h ****       uint8_t ifftFlag,
ARM GAS  /var/folders/n6/c271nzx11xl4r4_m7sqjlt0m0000gn/T//ccGo3Vqh.s 			page 61


1856:Core/Inc/../../Drivers/CMSIS/DSP/Include/arm_math.h ****       uint8_t bitReverseFlag);
1857:Core/Inc/../../Drivers/CMSIS/DSP/Include/arm_math.h **** 
1858:Core/Inc/../../Drivers/CMSIS/DSP/Include/arm_math.h ****   /* Deprecated */
1859:Core/Inc/../../Drivers/CMSIS/DSP/Include/arm_math.h ****   void arm_cfft_radix2_q15(
1860:Core/Inc/../../Drivers/CMSIS/DSP/Include/arm_math.h ****       const arm_cfft_radix2_instance_q15 *S,
1861:Core/Inc/../../Drivers/CMSIS/DSP/Include/arm_math.h ****       q15_t *pSrc);
1862:Core/Inc/../../Drivers/CMSIS/DSP/Include/arm_math.h **** 
1863:Core/Inc/../../Drivers/CMSIS/DSP/Include/arm_math.h ****   /**
1864:Core/Inc/../../Drivers/CMSIS/DSP/Include/arm_math.h ****    * @brief Instance structure for the Q15 CFFT/CIFFT function.
1865:Core/Inc/../../Drivers/CMSIS/DSP/Include/arm_math.h ****    */
1866:Core/Inc/../../Drivers/CMSIS/DSP/Include/arm_math.h ****   typedef struct
1867:Core/Inc/../../Drivers/CMSIS/DSP/Include/arm_math.h ****   {
1868:Core/Inc/../../Drivers/CMSIS/DSP/Include/arm_math.h ****     uint16_t fftLen;           /**< length of the FFT. */
1869:Core/Inc/../../Drivers/CMSIS/DSP/Include/arm_math.h ****     uint8_t ifftFlag;          /**< flag that selects forward (ifftFlag=0) or inverse (ifftFlag=1) 
1870:Core/Inc/../../Drivers/CMSIS/DSP/Include/arm_math.h ****     uint8_t bitReverseFlag;    /**< flag that enables (bitReverseFlag=1) or disables (bitReverseFla
1871:Core/Inc/../../Drivers/CMSIS/DSP/Include/arm_math.h ****     q15_t *pTwiddle;           /**< points to the twiddle factor table. */
1872:Core/Inc/../../Drivers/CMSIS/DSP/Include/arm_math.h ****     uint16_t *pBitRevTable;    /**< points to the bit reversal table. */
1873:Core/Inc/../../Drivers/CMSIS/DSP/Include/arm_math.h ****     uint16_t twidCoefModifier; /**< twiddle coefficient modifier that supports different size FFTs 
1874:Core/Inc/../../Drivers/CMSIS/DSP/Include/arm_math.h ****     uint16_t bitRevFactor;     /**< bit reversal modifier that supports different size FFTs with th
1875:Core/Inc/../../Drivers/CMSIS/DSP/Include/arm_math.h ****   } arm_cfft_radix4_instance_q15;
1876:Core/Inc/../../Drivers/CMSIS/DSP/Include/arm_math.h **** 
1877:Core/Inc/../../Drivers/CMSIS/DSP/Include/arm_math.h ****   /* Deprecated */
1878:Core/Inc/../../Drivers/CMSIS/DSP/Include/arm_math.h ****   arm_status arm_cfft_radix4_init_q15(
1879:Core/Inc/../../Drivers/CMSIS/DSP/Include/arm_math.h ****       arm_cfft_radix4_instance_q15 *S,
1880:Core/Inc/../../Drivers/CMSIS/DSP/Include/arm_math.h ****       uint16_t fftLen,
1881:Core/Inc/../../Drivers/CMSIS/DSP/Include/arm_math.h ****       uint8_t ifftFlag,
1882:Core/Inc/../../Drivers/CMSIS/DSP/Include/arm_math.h ****       uint8_t bitReverseFlag);
1883:Core/Inc/../../Drivers/CMSIS/DSP/Include/arm_math.h **** 
1884:Core/Inc/../../Drivers/CMSIS/DSP/Include/arm_math.h ****   /* Deprecated */
1885:Core/Inc/../../Drivers/CMSIS/DSP/Include/arm_math.h ****   void arm_cfft_radix4_q15(
1886:Core/Inc/../../Drivers/CMSIS/DSP/Include/arm_math.h ****       const arm_cfft_radix4_instance_q15 *S,
1887:Core/Inc/../../Drivers/CMSIS/DSP/Include/arm_math.h ****       q15_t *pSrc);
1888:Core/Inc/../../Drivers/CMSIS/DSP/Include/arm_math.h **** 
1889:Core/Inc/../../Drivers/CMSIS/DSP/Include/arm_math.h ****   /**
1890:Core/Inc/../../Drivers/CMSIS/DSP/Include/arm_math.h ****    * @brief Instance structure for the Radix-2 Q31 CFFT/CIFFT function.
1891:Core/Inc/../../Drivers/CMSIS/DSP/Include/arm_math.h ****    */
1892:Core/Inc/../../Drivers/CMSIS/DSP/Include/arm_math.h ****   typedef struct
1893:Core/Inc/../../Drivers/CMSIS/DSP/Include/arm_math.h ****   {
1894:Core/Inc/../../Drivers/CMSIS/DSP/Include/arm_math.h ****     uint16_t fftLen;           /**< length of the FFT. */
1895:Core/Inc/../../Drivers/CMSIS/DSP/Include/arm_math.h ****     uint8_t ifftFlag;          /**< flag that selects forward (ifftFlag=0) or inverse (ifftFlag=1) 
1896:Core/Inc/../../Drivers/CMSIS/DSP/Include/arm_math.h ****     uint8_t bitReverseFlag;    /**< flag that enables (bitReverseFlag=1) or disables (bitReverseFla
1897:Core/Inc/../../Drivers/CMSIS/DSP/Include/arm_math.h ****     q31_t *pTwiddle;           /**< points to the Twiddle factor table. */
1898:Core/Inc/../../Drivers/CMSIS/DSP/Include/arm_math.h ****     uint16_t *pBitRevTable;    /**< points to the bit reversal table. */
1899:Core/Inc/../../Drivers/CMSIS/DSP/Include/arm_math.h ****     uint16_t twidCoefModifier; /**< twiddle coefficient modifier that supports different size FFTs 
1900:Core/Inc/../../Drivers/CMSIS/DSP/Include/arm_math.h ****     uint16_t bitRevFactor;     /**< bit reversal modifier that supports different size FFTs with th
1901:Core/Inc/../../Drivers/CMSIS/DSP/Include/arm_math.h ****   } arm_cfft_radix2_instance_q31;
1902:Core/Inc/../../Drivers/CMSIS/DSP/Include/arm_math.h **** 
1903:Core/Inc/../../Drivers/CMSIS/DSP/Include/arm_math.h ****   /* Deprecated */
1904:Core/Inc/../../Drivers/CMSIS/DSP/Include/arm_math.h ****   arm_status arm_cfft_radix2_init_q31(
1905:Core/Inc/../../Drivers/CMSIS/DSP/Include/arm_math.h ****       arm_cfft_radix2_instance_q31 *S,
1906:Core/Inc/../../Drivers/CMSIS/DSP/Include/arm_math.h ****       uint16_t fftLen,
1907:Core/Inc/../../Drivers/CMSIS/DSP/Include/arm_math.h ****       uint8_t ifftFlag,
1908:Core/Inc/../../Drivers/CMSIS/DSP/Include/arm_math.h ****       uint8_t bitReverseFlag);
1909:Core/Inc/../../Drivers/CMSIS/DSP/Include/arm_math.h **** 
1910:Core/Inc/../../Drivers/CMSIS/DSP/Include/arm_math.h ****   /* Deprecated */
1911:Core/Inc/../../Drivers/CMSIS/DSP/Include/arm_math.h ****   void arm_cfft_radix2_q31(
1912:Core/Inc/../../Drivers/CMSIS/DSP/Include/arm_math.h ****       const arm_cfft_radix2_instance_q31 *S,
ARM GAS  /var/folders/n6/c271nzx11xl4r4_m7sqjlt0m0000gn/T//ccGo3Vqh.s 			page 62


1913:Core/Inc/../../Drivers/CMSIS/DSP/Include/arm_math.h ****       q31_t *pSrc);
1914:Core/Inc/../../Drivers/CMSIS/DSP/Include/arm_math.h **** 
1915:Core/Inc/../../Drivers/CMSIS/DSP/Include/arm_math.h ****   /**
1916:Core/Inc/../../Drivers/CMSIS/DSP/Include/arm_math.h ****    * @brief Instance structure for the Q31 CFFT/CIFFT function.
1917:Core/Inc/../../Drivers/CMSIS/DSP/Include/arm_math.h ****    */
1918:Core/Inc/../../Drivers/CMSIS/DSP/Include/arm_math.h ****   typedef struct
1919:Core/Inc/../../Drivers/CMSIS/DSP/Include/arm_math.h ****   {
1920:Core/Inc/../../Drivers/CMSIS/DSP/Include/arm_math.h ****     uint16_t fftLen;           /**< length of the FFT. */
1921:Core/Inc/../../Drivers/CMSIS/DSP/Include/arm_math.h ****     uint8_t ifftFlag;          /**< flag that selects forward (ifftFlag=0) or inverse (ifftFlag=1) 
1922:Core/Inc/../../Drivers/CMSIS/DSP/Include/arm_math.h ****     uint8_t bitReverseFlag;    /**< flag that enables (bitReverseFlag=1) or disables (bitReverseFla
1923:Core/Inc/../../Drivers/CMSIS/DSP/Include/arm_math.h ****     q31_t *pTwiddle;           /**< points to the twiddle factor table. */
1924:Core/Inc/../../Drivers/CMSIS/DSP/Include/arm_math.h ****     uint16_t *pBitRevTable;    /**< points to the bit reversal table. */
1925:Core/Inc/../../Drivers/CMSIS/DSP/Include/arm_math.h ****     uint16_t twidCoefModifier; /**< twiddle coefficient modifier that supports different size FFTs 
1926:Core/Inc/../../Drivers/CMSIS/DSP/Include/arm_math.h ****     uint16_t bitRevFactor;     /**< bit reversal modifier that supports different size FFTs with th
1927:Core/Inc/../../Drivers/CMSIS/DSP/Include/arm_math.h ****   } arm_cfft_radix4_instance_q31;
1928:Core/Inc/../../Drivers/CMSIS/DSP/Include/arm_math.h **** 
1929:Core/Inc/../../Drivers/CMSIS/DSP/Include/arm_math.h ****   /* Deprecated */
1930:Core/Inc/../../Drivers/CMSIS/DSP/Include/arm_math.h ****   void arm_cfft_radix4_q31(
1931:Core/Inc/../../Drivers/CMSIS/DSP/Include/arm_math.h ****       const arm_cfft_radix4_instance_q31 *S,
1932:Core/Inc/../../Drivers/CMSIS/DSP/Include/arm_math.h ****       q31_t *pSrc);
1933:Core/Inc/../../Drivers/CMSIS/DSP/Include/arm_math.h **** 
1934:Core/Inc/../../Drivers/CMSIS/DSP/Include/arm_math.h ****   /* Deprecated */
1935:Core/Inc/../../Drivers/CMSIS/DSP/Include/arm_math.h ****   arm_status arm_cfft_radix4_init_q31(
1936:Core/Inc/../../Drivers/CMSIS/DSP/Include/arm_math.h ****       arm_cfft_radix4_instance_q31 *S,
1937:Core/Inc/../../Drivers/CMSIS/DSP/Include/arm_math.h ****       uint16_t fftLen,
1938:Core/Inc/../../Drivers/CMSIS/DSP/Include/arm_math.h ****       uint8_t ifftFlag,
1939:Core/Inc/../../Drivers/CMSIS/DSP/Include/arm_math.h ****       uint8_t bitReverseFlag);
1940:Core/Inc/../../Drivers/CMSIS/DSP/Include/arm_math.h **** 
1941:Core/Inc/../../Drivers/CMSIS/DSP/Include/arm_math.h ****   /**
1942:Core/Inc/../../Drivers/CMSIS/DSP/Include/arm_math.h ****    * @brief Instance structure for the floating-point CFFT/CIFFT function.
1943:Core/Inc/../../Drivers/CMSIS/DSP/Include/arm_math.h ****    */
1944:Core/Inc/../../Drivers/CMSIS/DSP/Include/arm_math.h ****   typedef struct
1945:Core/Inc/../../Drivers/CMSIS/DSP/Include/arm_math.h ****   {
1946:Core/Inc/../../Drivers/CMSIS/DSP/Include/arm_math.h ****     uint16_t fftLen;           /**< length of the FFT. */
1947:Core/Inc/../../Drivers/CMSIS/DSP/Include/arm_math.h ****     uint8_t ifftFlag;          /**< flag that selects forward (ifftFlag=0) or inverse (ifftFlag=1) 
1948:Core/Inc/../../Drivers/CMSIS/DSP/Include/arm_math.h ****     uint8_t bitReverseFlag;    /**< flag that enables (bitReverseFlag=1) or disables (bitReverseFla
1949:Core/Inc/../../Drivers/CMSIS/DSP/Include/arm_math.h ****     float32_t *pTwiddle;       /**< points to the Twiddle factor table. */
1950:Core/Inc/../../Drivers/CMSIS/DSP/Include/arm_math.h ****     uint16_t *pBitRevTable;    /**< points to the bit reversal table. */
1951:Core/Inc/../../Drivers/CMSIS/DSP/Include/arm_math.h ****     uint16_t twidCoefModifier; /**< twiddle coefficient modifier that supports different size FFTs 
1952:Core/Inc/../../Drivers/CMSIS/DSP/Include/arm_math.h ****     uint16_t bitRevFactor;     /**< bit reversal modifier that supports different size FFTs with th
1953:Core/Inc/../../Drivers/CMSIS/DSP/Include/arm_math.h ****     float32_t onebyfftLen;     /**< value of 1/fftLen. */
1954:Core/Inc/../../Drivers/CMSIS/DSP/Include/arm_math.h ****   } arm_cfft_radix2_instance_f32;
1955:Core/Inc/../../Drivers/CMSIS/DSP/Include/arm_math.h **** 
1956:Core/Inc/../../Drivers/CMSIS/DSP/Include/arm_math.h ****   /* Deprecated */
1957:Core/Inc/../../Drivers/CMSIS/DSP/Include/arm_math.h ****   arm_status arm_cfft_radix2_init_f32(
1958:Core/Inc/../../Drivers/CMSIS/DSP/Include/arm_math.h ****       arm_cfft_radix2_instance_f32 *S,
1959:Core/Inc/../../Drivers/CMSIS/DSP/Include/arm_math.h ****       uint16_t fftLen,
1960:Core/Inc/../../Drivers/CMSIS/DSP/Include/arm_math.h ****       uint8_t ifftFlag,
1961:Core/Inc/../../Drivers/CMSIS/DSP/Include/arm_math.h ****       uint8_t bitReverseFlag);
1962:Core/Inc/../../Drivers/CMSIS/DSP/Include/arm_math.h **** 
1963:Core/Inc/../../Drivers/CMSIS/DSP/Include/arm_math.h ****   /* Deprecated */
1964:Core/Inc/../../Drivers/CMSIS/DSP/Include/arm_math.h ****   void arm_cfft_radix2_f32(
1965:Core/Inc/../../Drivers/CMSIS/DSP/Include/arm_math.h ****       const arm_cfft_radix2_instance_f32 *S,
1966:Core/Inc/../../Drivers/CMSIS/DSP/Include/arm_math.h ****       float32_t *pSrc);
1967:Core/Inc/../../Drivers/CMSIS/DSP/Include/arm_math.h **** 
1968:Core/Inc/../../Drivers/CMSIS/DSP/Include/arm_math.h ****   /**
1969:Core/Inc/../../Drivers/CMSIS/DSP/Include/arm_math.h ****    * @brief Instance structure for the floating-point CFFT/CIFFT function.
ARM GAS  /var/folders/n6/c271nzx11xl4r4_m7sqjlt0m0000gn/T//ccGo3Vqh.s 			page 63


1970:Core/Inc/../../Drivers/CMSIS/DSP/Include/arm_math.h ****    */
1971:Core/Inc/../../Drivers/CMSIS/DSP/Include/arm_math.h ****   typedef struct
1972:Core/Inc/../../Drivers/CMSIS/DSP/Include/arm_math.h ****   {
1973:Core/Inc/../../Drivers/CMSIS/DSP/Include/arm_math.h ****     uint16_t fftLen;           /**< length of the FFT. */
1974:Core/Inc/../../Drivers/CMSIS/DSP/Include/arm_math.h ****     uint8_t ifftFlag;          /**< flag that selects forward (ifftFlag=0) or inverse (ifftFlag=1) 
1975:Core/Inc/../../Drivers/CMSIS/DSP/Include/arm_math.h ****     uint8_t bitReverseFlag;    /**< flag that enables (bitReverseFlag=1) or disables (bitReverseFla
1976:Core/Inc/../../Drivers/CMSIS/DSP/Include/arm_math.h ****     float32_t *pTwiddle;       /**< points to the Twiddle factor table. */
1977:Core/Inc/../../Drivers/CMSIS/DSP/Include/arm_math.h ****     uint16_t *pBitRevTable;    /**< points to the bit reversal table. */
1978:Core/Inc/../../Drivers/CMSIS/DSP/Include/arm_math.h ****     uint16_t twidCoefModifier; /**< twiddle coefficient modifier that supports different size FFTs 
1979:Core/Inc/../../Drivers/CMSIS/DSP/Include/arm_math.h ****     uint16_t bitRevFactor;     /**< bit reversal modifier that supports different size FFTs with th
1980:Core/Inc/../../Drivers/CMSIS/DSP/Include/arm_math.h ****     float32_t onebyfftLen;     /**< value of 1/fftLen. */
1981:Core/Inc/../../Drivers/CMSIS/DSP/Include/arm_math.h ****   } arm_cfft_radix4_instance_f32;
1982:Core/Inc/../../Drivers/CMSIS/DSP/Include/arm_math.h **** 
1983:Core/Inc/../../Drivers/CMSIS/DSP/Include/arm_math.h ****   /* Deprecated */
1984:Core/Inc/../../Drivers/CMSIS/DSP/Include/arm_math.h ****   arm_status arm_cfft_radix4_init_f32(
1985:Core/Inc/../../Drivers/CMSIS/DSP/Include/arm_math.h ****       arm_cfft_radix4_instance_f32 *S,
1986:Core/Inc/../../Drivers/CMSIS/DSP/Include/arm_math.h ****       uint16_t fftLen,
1987:Core/Inc/../../Drivers/CMSIS/DSP/Include/arm_math.h ****       uint8_t ifftFlag,
1988:Core/Inc/../../Drivers/CMSIS/DSP/Include/arm_math.h ****       uint8_t bitReverseFlag);
1989:Core/Inc/../../Drivers/CMSIS/DSP/Include/arm_math.h **** 
1990:Core/Inc/../../Drivers/CMSIS/DSP/Include/arm_math.h ****   /* Deprecated */
1991:Core/Inc/../../Drivers/CMSIS/DSP/Include/arm_math.h ****   void arm_cfft_radix4_f32(
1992:Core/Inc/../../Drivers/CMSIS/DSP/Include/arm_math.h ****       const arm_cfft_radix4_instance_f32 *S,
1993:Core/Inc/../../Drivers/CMSIS/DSP/Include/arm_math.h ****       float32_t *pSrc);
1994:Core/Inc/../../Drivers/CMSIS/DSP/Include/arm_math.h **** 
1995:Core/Inc/../../Drivers/CMSIS/DSP/Include/arm_math.h ****   /**
1996:Core/Inc/../../Drivers/CMSIS/DSP/Include/arm_math.h ****    * @brief Instance structure for the fixed-point CFFT/CIFFT function.
1997:Core/Inc/../../Drivers/CMSIS/DSP/Include/arm_math.h ****    */
1998:Core/Inc/../../Drivers/CMSIS/DSP/Include/arm_math.h ****   typedef struct
1999:Core/Inc/../../Drivers/CMSIS/DSP/Include/arm_math.h ****   {
2000:Core/Inc/../../Drivers/CMSIS/DSP/Include/arm_math.h ****     uint16_t fftLen;              /**< length of the FFT. */
2001:Core/Inc/../../Drivers/CMSIS/DSP/Include/arm_math.h ****     const q15_t *pTwiddle;        /**< points to the Twiddle factor table. */
2002:Core/Inc/../../Drivers/CMSIS/DSP/Include/arm_math.h ****     const uint16_t *pBitRevTable; /**< points to the bit reversal table. */
2003:Core/Inc/../../Drivers/CMSIS/DSP/Include/arm_math.h ****     uint16_t bitRevLength;        /**< bit reversal table length. */
2004:Core/Inc/../../Drivers/CMSIS/DSP/Include/arm_math.h ****   } arm_cfft_instance_q15;
2005:Core/Inc/../../Drivers/CMSIS/DSP/Include/arm_math.h **** 
2006:Core/Inc/../../Drivers/CMSIS/DSP/Include/arm_math.h ****   void arm_cfft_q15(
2007:Core/Inc/../../Drivers/CMSIS/DSP/Include/arm_math.h ****       const arm_cfft_instance_q15 *S,
2008:Core/Inc/../../Drivers/CMSIS/DSP/Include/arm_math.h ****       q15_t *p1,
2009:Core/Inc/../../Drivers/CMSIS/DSP/Include/arm_math.h ****       uint8_t ifftFlag,
2010:Core/Inc/../../Drivers/CMSIS/DSP/Include/arm_math.h ****       uint8_t bitReverseFlag);
2011:Core/Inc/../../Drivers/CMSIS/DSP/Include/arm_math.h **** 
2012:Core/Inc/../../Drivers/CMSIS/DSP/Include/arm_math.h ****   /**
2013:Core/Inc/../../Drivers/CMSIS/DSP/Include/arm_math.h ****    * @brief Instance structure for the fixed-point CFFT/CIFFT function.
2014:Core/Inc/../../Drivers/CMSIS/DSP/Include/arm_math.h ****    */
2015:Core/Inc/../../Drivers/CMSIS/DSP/Include/arm_math.h ****   typedef struct
2016:Core/Inc/../../Drivers/CMSIS/DSP/Include/arm_math.h ****   {
2017:Core/Inc/../../Drivers/CMSIS/DSP/Include/arm_math.h ****     uint16_t fftLen;              /**< length of the FFT. */
2018:Core/Inc/../../Drivers/CMSIS/DSP/Include/arm_math.h ****     const q31_t *pTwiddle;        /**< points to the Twiddle factor table. */
2019:Core/Inc/../../Drivers/CMSIS/DSP/Include/arm_math.h ****     const uint16_t *pBitRevTable; /**< points to the bit reversal table. */
2020:Core/Inc/../../Drivers/CMSIS/DSP/Include/arm_math.h ****     uint16_t bitRevLength;        /**< bit reversal table length. */
2021:Core/Inc/../../Drivers/CMSIS/DSP/Include/arm_math.h ****   } arm_cfft_instance_q31;
2022:Core/Inc/../../Drivers/CMSIS/DSP/Include/arm_math.h **** 
2023:Core/Inc/../../Drivers/CMSIS/DSP/Include/arm_math.h ****   void arm_cfft_q31(
2024:Core/Inc/../../Drivers/CMSIS/DSP/Include/arm_math.h ****       const arm_cfft_instance_q31 *S,
2025:Core/Inc/../../Drivers/CMSIS/DSP/Include/arm_math.h ****       q31_t *p1,
2026:Core/Inc/../../Drivers/CMSIS/DSP/Include/arm_math.h ****       uint8_t ifftFlag,
ARM GAS  /var/folders/n6/c271nzx11xl4r4_m7sqjlt0m0000gn/T//ccGo3Vqh.s 			page 64


2027:Core/Inc/../../Drivers/CMSIS/DSP/Include/arm_math.h ****       uint8_t bitReverseFlag);
2028:Core/Inc/../../Drivers/CMSIS/DSP/Include/arm_math.h **** 
2029:Core/Inc/../../Drivers/CMSIS/DSP/Include/arm_math.h ****   /**
2030:Core/Inc/../../Drivers/CMSIS/DSP/Include/arm_math.h ****    * @brief Instance structure for the floating-point CFFT/CIFFT function.
2031:Core/Inc/../../Drivers/CMSIS/DSP/Include/arm_math.h ****    */
2032:Core/Inc/../../Drivers/CMSIS/DSP/Include/arm_math.h ****   typedef struct
2033:Core/Inc/../../Drivers/CMSIS/DSP/Include/arm_math.h ****   {
2034:Core/Inc/../../Drivers/CMSIS/DSP/Include/arm_math.h ****     uint16_t fftLen;              /**< length of the FFT. */
2035:Core/Inc/../../Drivers/CMSIS/DSP/Include/arm_math.h ****     const float32_t *pTwiddle;    /**< points to the Twiddle factor table. */
2036:Core/Inc/../../Drivers/CMSIS/DSP/Include/arm_math.h ****     const uint16_t *pBitRevTable; /**< points to the bit reversal table. */
2037:Core/Inc/../../Drivers/CMSIS/DSP/Include/arm_math.h ****     uint16_t bitRevLength;        /**< bit reversal table length. */
2038:Core/Inc/../../Drivers/CMSIS/DSP/Include/arm_math.h ****   } arm_cfft_instance_f32;
2039:Core/Inc/../../Drivers/CMSIS/DSP/Include/arm_math.h **** 
2040:Core/Inc/../../Drivers/CMSIS/DSP/Include/arm_math.h ****   void arm_cfft_f32(
2041:Core/Inc/../../Drivers/CMSIS/DSP/Include/arm_math.h ****       const arm_cfft_instance_f32 *S,
2042:Core/Inc/../../Drivers/CMSIS/DSP/Include/arm_math.h ****       float32_t *p1,
2043:Core/Inc/../../Drivers/CMSIS/DSP/Include/arm_math.h ****       uint8_t ifftFlag,
2044:Core/Inc/../../Drivers/CMSIS/DSP/Include/arm_math.h ****       uint8_t bitReverseFlag);
2045:Core/Inc/../../Drivers/CMSIS/DSP/Include/arm_math.h **** 
2046:Core/Inc/../../Drivers/CMSIS/DSP/Include/arm_math.h ****   /**
2047:Core/Inc/../../Drivers/CMSIS/DSP/Include/arm_math.h ****    * @brief Instance structure for the Q15 RFFT/RIFFT function.
2048:Core/Inc/../../Drivers/CMSIS/DSP/Include/arm_math.h ****    */
2049:Core/Inc/../../Drivers/CMSIS/DSP/Include/arm_math.h ****   typedef struct
2050:Core/Inc/../../Drivers/CMSIS/DSP/Include/arm_math.h ****   {
2051:Core/Inc/../../Drivers/CMSIS/DSP/Include/arm_math.h ****     uint32_t fftLenReal;                /**< length of the real FFT. */
2052:Core/Inc/../../Drivers/CMSIS/DSP/Include/arm_math.h ****     uint8_t ifftFlagR;                  /**< flag that selects forward (ifftFlagR=0) or inverse (if
2053:Core/Inc/../../Drivers/CMSIS/DSP/Include/arm_math.h ****     uint8_t bitReverseFlagR;            /**< flag that enables (bitReverseFlagR=1) or disables (bit
2054:Core/Inc/../../Drivers/CMSIS/DSP/Include/arm_math.h ****     uint32_t twidCoefRModifier;         /**< twiddle coefficient modifier that supports different s
2055:Core/Inc/../../Drivers/CMSIS/DSP/Include/arm_math.h ****     q15_t *pTwiddleAReal;               /**< points to the real twiddle factor table. */
2056:Core/Inc/../../Drivers/CMSIS/DSP/Include/arm_math.h ****     q15_t *pTwiddleBReal;               /**< points to the imag twiddle factor table. */
2057:Core/Inc/../../Drivers/CMSIS/DSP/Include/arm_math.h ****     const arm_cfft_instance_q15 *pCfft; /**< points to the complex FFT instance. */
2058:Core/Inc/../../Drivers/CMSIS/DSP/Include/arm_math.h ****   } arm_rfft_instance_q15;
2059:Core/Inc/../../Drivers/CMSIS/DSP/Include/arm_math.h **** 
2060:Core/Inc/../../Drivers/CMSIS/DSP/Include/arm_math.h ****   arm_status arm_rfft_init_q15(
2061:Core/Inc/../../Drivers/CMSIS/DSP/Include/arm_math.h ****       arm_rfft_instance_q15 *S,
2062:Core/Inc/../../Drivers/CMSIS/DSP/Include/arm_math.h ****       uint32_t fftLenReal,
2063:Core/Inc/../../Drivers/CMSIS/DSP/Include/arm_math.h ****       uint32_t ifftFlagR,
2064:Core/Inc/../../Drivers/CMSIS/DSP/Include/arm_math.h ****       uint32_t bitReverseFlag);
2065:Core/Inc/../../Drivers/CMSIS/DSP/Include/arm_math.h **** 
2066:Core/Inc/../../Drivers/CMSIS/DSP/Include/arm_math.h ****   void arm_rfft_q15(
2067:Core/Inc/../../Drivers/CMSIS/DSP/Include/arm_math.h ****       const arm_rfft_instance_q15 *S,
2068:Core/Inc/../../Drivers/CMSIS/DSP/Include/arm_math.h ****       q15_t *pSrc,
2069:Core/Inc/../../Drivers/CMSIS/DSP/Include/arm_math.h ****       q15_t *pDst);
2070:Core/Inc/../../Drivers/CMSIS/DSP/Include/arm_math.h **** 
2071:Core/Inc/../../Drivers/CMSIS/DSP/Include/arm_math.h ****   /**
2072:Core/Inc/../../Drivers/CMSIS/DSP/Include/arm_math.h ****    * @brief Instance structure for the Q31 RFFT/RIFFT function.
2073:Core/Inc/../../Drivers/CMSIS/DSP/Include/arm_math.h ****    */
2074:Core/Inc/../../Drivers/CMSIS/DSP/Include/arm_math.h ****   typedef struct
2075:Core/Inc/../../Drivers/CMSIS/DSP/Include/arm_math.h ****   {
2076:Core/Inc/../../Drivers/CMSIS/DSP/Include/arm_math.h ****     uint32_t fftLenReal;                /**< length of the real FFT. */
2077:Core/Inc/../../Drivers/CMSIS/DSP/Include/arm_math.h ****     uint8_t ifftFlagR;                  /**< flag that selects forward (ifftFlagR=0) or inverse (if
2078:Core/Inc/../../Drivers/CMSIS/DSP/Include/arm_math.h ****     uint8_t bitReverseFlagR;            /**< flag that enables (bitReverseFlagR=1) or disables (bit
2079:Core/Inc/../../Drivers/CMSIS/DSP/Include/arm_math.h ****     uint32_t twidCoefRModifier;         /**< twiddle coefficient modifier that supports different s
2080:Core/Inc/../../Drivers/CMSIS/DSP/Include/arm_math.h ****     q31_t *pTwiddleAReal;               /**< points to the real twiddle factor table. */
2081:Core/Inc/../../Drivers/CMSIS/DSP/Include/arm_math.h ****     q31_t *pTwiddleBReal;               /**< points to the imag twiddle factor table. */
2082:Core/Inc/../../Drivers/CMSIS/DSP/Include/arm_math.h ****     const arm_cfft_instance_q31 *pCfft; /**< points to the complex FFT instance. */
2083:Core/Inc/../../Drivers/CMSIS/DSP/Include/arm_math.h ****   } arm_rfft_instance_q31;
ARM GAS  /var/folders/n6/c271nzx11xl4r4_m7sqjlt0m0000gn/T//ccGo3Vqh.s 			page 65


2084:Core/Inc/../../Drivers/CMSIS/DSP/Include/arm_math.h **** 
2085:Core/Inc/../../Drivers/CMSIS/DSP/Include/arm_math.h ****   arm_status arm_rfft_init_q31(
2086:Core/Inc/../../Drivers/CMSIS/DSP/Include/arm_math.h ****       arm_rfft_instance_q31 *S,
2087:Core/Inc/../../Drivers/CMSIS/DSP/Include/arm_math.h ****       uint32_t fftLenReal,
2088:Core/Inc/../../Drivers/CMSIS/DSP/Include/arm_math.h ****       uint32_t ifftFlagR,
2089:Core/Inc/../../Drivers/CMSIS/DSP/Include/arm_math.h ****       uint32_t bitReverseFlag);
2090:Core/Inc/../../Drivers/CMSIS/DSP/Include/arm_math.h **** 
2091:Core/Inc/../../Drivers/CMSIS/DSP/Include/arm_math.h ****   void arm_rfft_q31(
2092:Core/Inc/../../Drivers/CMSIS/DSP/Include/arm_math.h ****       const arm_rfft_instance_q31 *S,
2093:Core/Inc/../../Drivers/CMSIS/DSP/Include/arm_math.h ****       q31_t *pSrc,
2094:Core/Inc/../../Drivers/CMSIS/DSP/Include/arm_math.h ****       q31_t *pDst);
2095:Core/Inc/../../Drivers/CMSIS/DSP/Include/arm_math.h **** 
2096:Core/Inc/../../Drivers/CMSIS/DSP/Include/arm_math.h ****   /**
2097:Core/Inc/../../Drivers/CMSIS/DSP/Include/arm_math.h ****    * @brief Instance structure for the floating-point RFFT/RIFFT function.
2098:Core/Inc/../../Drivers/CMSIS/DSP/Include/arm_math.h ****    */
2099:Core/Inc/../../Drivers/CMSIS/DSP/Include/arm_math.h ****   typedef struct
2100:Core/Inc/../../Drivers/CMSIS/DSP/Include/arm_math.h ****   {
2101:Core/Inc/../../Drivers/CMSIS/DSP/Include/arm_math.h ****     uint32_t fftLenReal;                 /**< length of the real FFT. */
2102:Core/Inc/../../Drivers/CMSIS/DSP/Include/arm_math.h ****     uint16_t fftLenBy2;                  /**< length of the complex FFT. */
2103:Core/Inc/../../Drivers/CMSIS/DSP/Include/arm_math.h ****     uint8_t ifftFlagR;                   /**< flag that selects forward (ifftFlagR=0) or inverse (i
2104:Core/Inc/../../Drivers/CMSIS/DSP/Include/arm_math.h ****     uint8_t bitReverseFlagR;             /**< flag that enables (bitReverseFlagR=1) or disables (bi
2105:Core/Inc/../../Drivers/CMSIS/DSP/Include/arm_math.h ****     uint32_t twidCoefRModifier;          /**< twiddle coefficient modifier that supports different 
2106:Core/Inc/../../Drivers/CMSIS/DSP/Include/arm_math.h ****     float32_t *pTwiddleAReal;            /**< points to the real twiddle factor table. */
2107:Core/Inc/../../Drivers/CMSIS/DSP/Include/arm_math.h ****     float32_t *pTwiddleBReal;            /**< points to the imag twiddle factor table. */
2108:Core/Inc/../../Drivers/CMSIS/DSP/Include/arm_math.h ****     arm_cfft_radix4_instance_f32 *pCfft; /**< points to the complex FFT instance. */
2109:Core/Inc/../../Drivers/CMSIS/DSP/Include/arm_math.h ****   } arm_rfft_instance_f32;
2110:Core/Inc/../../Drivers/CMSIS/DSP/Include/arm_math.h **** 
2111:Core/Inc/../../Drivers/CMSIS/DSP/Include/arm_math.h ****   arm_status arm_rfft_init_f32(
2112:Core/Inc/../../Drivers/CMSIS/DSP/Include/arm_math.h ****       arm_rfft_instance_f32 *S,
2113:Core/Inc/../../Drivers/CMSIS/DSP/Include/arm_math.h ****       arm_cfft_radix4_instance_f32 *S_CFFT,
2114:Core/Inc/../../Drivers/CMSIS/DSP/Include/arm_math.h ****       uint32_t fftLenReal,
2115:Core/Inc/../../Drivers/CMSIS/DSP/Include/arm_math.h ****       uint32_t ifftFlagR,
2116:Core/Inc/../../Drivers/CMSIS/DSP/Include/arm_math.h ****       uint32_t bitReverseFlag);
2117:Core/Inc/../../Drivers/CMSIS/DSP/Include/arm_math.h **** 
2118:Core/Inc/../../Drivers/CMSIS/DSP/Include/arm_math.h ****   void arm_rfft_f32(
2119:Core/Inc/../../Drivers/CMSIS/DSP/Include/arm_math.h ****       const arm_rfft_instance_f32 *S,
2120:Core/Inc/../../Drivers/CMSIS/DSP/Include/arm_math.h ****       float32_t *pSrc,
2121:Core/Inc/../../Drivers/CMSIS/DSP/Include/arm_math.h ****       float32_t *pDst);
2122:Core/Inc/../../Drivers/CMSIS/DSP/Include/arm_math.h **** 
2123:Core/Inc/../../Drivers/CMSIS/DSP/Include/arm_math.h ****   /**
2124:Core/Inc/../../Drivers/CMSIS/DSP/Include/arm_math.h ****    * @brief Instance structure for the floating-point RFFT/RIFFT function.
2125:Core/Inc/../../Drivers/CMSIS/DSP/Include/arm_math.h ****    */
2126:Core/Inc/../../Drivers/CMSIS/DSP/Include/arm_math.h ****   typedef struct
2127:Core/Inc/../../Drivers/CMSIS/DSP/Include/arm_math.h ****   {
2128:Core/Inc/../../Drivers/CMSIS/DSP/Include/arm_math.h ****     arm_cfft_instance_f32 Sint; /**< Internal CFFT structure. */
2129:Core/Inc/../../Drivers/CMSIS/DSP/Include/arm_math.h ****     uint16_t fftLenRFFT;        /**< length of the real sequence */
2130:Core/Inc/../../Drivers/CMSIS/DSP/Include/arm_math.h ****     float32_t *pTwiddleRFFT;    /**< Twiddle factors real stage  */
2131:Core/Inc/../../Drivers/CMSIS/DSP/Include/arm_math.h ****   } arm_rfft_fast_instance_f32;
2132:Core/Inc/../../Drivers/CMSIS/DSP/Include/arm_math.h **** 
2133:Core/Inc/../../Drivers/CMSIS/DSP/Include/arm_math.h ****   arm_status arm_rfft_fast_init_f32(
2134:Core/Inc/../../Drivers/CMSIS/DSP/Include/arm_math.h ****       arm_rfft_fast_instance_f32 *S,
2135:Core/Inc/../../Drivers/CMSIS/DSP/Include/arm_math.h ****       uint16_t fftLen);
2136:Core/Inc/../../Drivers/CMSIS/DSP/Include/arm_math.h **** 
2137:Core/Inc/../../Drivers/CMSIS/DSP/Include/arm_math.h ****   void arm_rfft_fast_f32(
2138:Core/Inc/../../Drivers/CMSIS/DSP/Include/arm_math.h ****       arm_rfft_fast_instance_f32 *S,
2139:Core/Inc/../../Drivers/CMSIS/DSP/Include/arm_math.h ****       float32_t *p, float32_t *pOut,
2140:Core/Inc/../../Drivers/CMSIS/DSP/Include/arm_math.h ****       uint8_t ifftFlag);
ARM GAS  /var/folders/n6/c271nzx11xl4r4_m7sqjlt0m0000gn/T//ccGo3Vqh.s 			page 66


2141:Core/Inc/../../Drivers/CMSIS/DSP/Include/arm_math.h **** 
2142:Core/Inc/../../Drivers/CMSIS/DSP/Include/arm_math.h ****   /**
2143:Core/Inc/../../Drivers/CMSIS/DSP/Include/arm_math.h ****    * @brief Instance structure for the floating-point DCT4/IDCT4 function.
2144:Core/Inc/../../Drivers/CMSIS/DSP/Include/arm_math.h ****    */
2145:Core/Inc/../../Drivers/CMSIS/DSP/Include/arm_math.h ****   typedef struct
2146:Core/Inc/../../Drivers/CMSIS/DSP/Include/arm_math.h ****   {
2147:Core/Inc/../../Drivers/CMSIS/DSP/Include/arm_math.h ****     uint16_t N;                          /**< length of the DCT4. */
2148:Core/Inc/../../Drivers/CMSIS/DSP/Include/arm_math.h ****     uint16_t Nby2;                       /**< half of the length of the DCT4. */
2149:Core/Inc/../../Drivers/CMSIS/DSP/Include/arm_math.h ****     float32_t normalize;                 /**< normalizing factor. */
2150:Core/Inc/../../Drivers/CMSIS/DSP/Include/arm_math.h ****     float32_t *pTwiddle;                 /**< points to the twiddle factor table. */
2151:Core/Inc/../../Drivers/CMSIS/DSP/Include/arm_math.h ****     float32_t *pCosFactor;               /**< points to the cosFactor table. */
2152:Core/Inc/../../Drivers/CMSIS/DSP/Include/arm_math.h ****     arm_rfft_instance_f32 *pRfft;        /**< points to the real FFT instance. */
2153:Core/Inc/../../Drivers/CMSIS/DSP/Include/arm_math.h ****     arm_cfft_radix4_instance_f32 *pCfft; /**< points to the complex FFT instance. */
2154:Core/Inc/../../Drivers/CMSIS/DSP/Include/arm_math.h ****   } arm_dct4_instance_f32;
2155:Core/Inc/../../Drivers/CMSIS/DSP/Include/arm_math.h **** 
2156:Core/Inc/../../Drivers/CMSIS/DSP/Include/arm_math.h ****   /**
2157:Core/Inc/../../Drivers/CMSIS/DSP/Include/arm_math.h ****    * @brief  Initialization function for the floating-point DCT4/IDCT4.
2158:Core/Inc/../../Drivers/CMSIS/DSP/Include/arm_math.h ****    * @param[in,out] S          points to an instance of floating-point DCT4/IDCT4 structure.
2159:Core/Inc/../../Drivers/CMSIS/DSP/Include/arm_math.h ****    * @param[in]     S_RFFT     points to an instance of floating-point RFFT/RIFFT structure.
2160:Core/Inc/../../Drivers/CMSIS/DSP/Include/arm_math.h ****    * @param[in]     S_CFFT     points to an instance of floating-point CFFT/CIFFT structure.
2161:Core/Inc/../../Drivers/CMSIS/DSP/Include/arm_math.h ****    * @param[in]     N          length of the DCT4.
2162:Core/Inc/../../Drivers/CMSIS/DSP/Include/arm_math.h ****    * @param[in]     Nby2       half of the length of the DCT4.
2163:Core/Inc/../../Drivers/CMSIS/DSP/Include/arm_math.h ****    * @param[in]     normalize  normalizing factor.
2164:Core/Inc/../../Drivers/CMSIS/DSP/Include/arm_math.h ****    * @return      arm_status function returns ARM_MATH_SUCCESS if initialization is successful or A
2165:Core/Inc/../../Drivers/CMSIS/DSP/Include/arm_math.h ****    */
2166:Core/Inc/../../Drivers/CMSIS/DSP/Include/arm_math.h ****   arm_status arm_dct4_init_f32(
2167:Core/Inc/../../Drivers/CMSIS/DSP/Include/arm_math.h ****       arm_dct4_instance_f32 *S,
2168:Core/Inc/../../Drivers/CMSIS/DSP/Include/arm_math.h ****       arm_rfft_instance_f32 *S_RFFT,
2169:Core/Inc/../../Drivers/CMSIS/DSP/Include/arm_math.h ****       arm_cfft_radix4_instance_f32 *S_CFFT,
2170:Core/Inc/../../Drivers/CMSIS/DSP/Include/arm_math.h ****       uint16_t N,
2171:Core/Inc/../../Drivers/CMSIS/DSP/Include/arm_math.h ****       uint16_t Nby2,
2172:Core/Inc/../../Drivers/CMSIS/DSP/Include/arm_math.h ****       float32_t normalize);
2173:Core/Inc/../../Drivers/CMSIS/DSP/Include/arm_math.h **** 
2174:Core/Inc/../../Drivers/CMSIS/DSP/Include/arm_math.h ****   /**
2175:Core/Inc/../../Drivers/CMSIS/DSP/Include/arm_math.h ****    * @brief Processing function for the floating-point DCT4/IDCT4.
2176:Core/Inc/../../Drivers/CMSIS/DSP/Include/arm_math.h ****    * @param[in]     S              points to an instance of the floating-point DCT4/IDCT4 structure
2177:Core/Inc/../../Drivers/CMSIS/DSP/Include/arm_math.h ****    * @param[in]     pState         points to state buffer.
2178:Core/Inc/../../Drivers/CMSIS/DSP/Include/arm_math.h ****    * @param[in,out] pInlineBuffer  points to the in-place input and output buffer.
2179:Core/Inc/../../Drivers/CMSIS/DSP/Include/arm_math.h ****    */
2180:Core/Inc/../../Drivers/CMSIS/DSP/Include/arm_math.h ****   void arm_dct4_f32(
2181:Core/Inc/../../Drivers/CMSIS/DSP/Include/arm_math.h ****       const arm_dct4_instance_f32 *S,
2182:Core/Inc/../../Drivers/CMSIS/DSP/Include/arm_math.h ****       float32_t *pState,
2183:Core/Inc/../../Drivers/CMSIS/DSP/Include/arm_math.h ****       float32_t *pInlineBuffer);
2184:Core/Inc/../../Drivers/CMSIS/DSP/Include/arm_math.h **** 
2185:Core/Inc/../../Drivers/CMSIS/DSP/Include/arm_math.h ****   /**
2186:Core/Inc/../../Drivers/CMSIS/DSP/Include/arm_math.h ****    * @brief Instance structure for the Q31 DCT4/IDCT4 function.
2187:Core/Inc/../../Drivers/CMSIS/DSP/Include/arm_math.h ****    */
2188:Core/Inc/../../Drivers/CMSIS/DSP/Include/arm_math.h ****   typedef struct
2189:Core/Inc/../../Drivers/CMSIS/DSP/Include/arm_math.h ****   {
2190:Core/Inc/../../Drivers/CMSIS/DSP/Include/arm_math.h ****     uint16_t N;                          /**< length of the DCT4. */
2191:Core/Inc/../../Drivers/CMSIS/DSP/Include/arm_math.h ****     uint16_t Nby2;                       /**< half of the length of the DCT4. */
2192:Core/Inc/../../Drivers/CMSIS/DSP/Include/arm_math.h ****     q31_t normalize;                     /**< normalizing factor. */
2193:Core/Inc/../../Drivers/CMSIS/DSP/Include/arm_math.h ****     q31_t *pTwiddle;                     /**< points to the twiddle factor table. */
2194:Core/Inc/../../Drivers/CMSIS/DSP/Include/arm_math.h ****     q31_t *pCosFactor;                   /**< points to the cosFactor table. */
2195:Core/Inc/../../Drivers/CMSIS/DSP/Include/arm_math.h ****     arm_rfft_instance_q31 *pRfft;        /**< points to the real FFT instance. */
2196:Core/Inc/../../Drivers/CMSIS/DSP/Include/arm_math.h ****     arm_cfft_radix4_instance_q31 *pCfft; /**< points to the complex FFT instance. */
2197:Core/Inc/../../Drivers/CMSIS/DSP/Include/arm_math.h ****   } arm_dct4_instance_q31;
ARM GAS  /var/folders/n6/c271nzx11xl4r4_m7sqjlt0m0000gn/T//ccGo3Vqh.s 			page 67


2198:Core/Inc/../../Drivers/CMSIS/DSP/Include/arm_math.h **** 
2199:Core/Inc/../../Drivers/CMSIS/DSP/Include/arm_math.h ****   /**
2200:Core/Inc/../../Drivers/CMSIS/DSP/Include/arm_math.h ****    * @brief  Initialization function for the Q31 DCT4/IDCT4.
2201:Core/Inc/../../Drivers/CMSIS/DSP/Include/arm_math.h ****    * @param[in,out] S          points to an instance of Q31 DCT4/IDCT4 structure.
2202:Core/Inc/../../Drivers/CMSIS/DSP/Include/arm_math.h ****    * @param[in]     S_RFFT     points to an instance of Q31 RFFT/RIFFT structure
2203:Core/Inc/../../Drivers/CMSIS/DSP/Include/arm_math.h ****    * @param[in]     S_CFFT     points to an instance of Q31 CFFT/CIFFT structure
2204:Core/Inc/../../Drivers/CMSIS/DSP/Include/arm_math.h ****    * @param[in]     N          length of the DCT4.
2205:Core/Inc/../../Drivers/CMSIS/DSP/Include/arm_math.h ****    * @param[in]     Nby2       half of the length of the DCT4.
2206:Core/Inc/../../Drivers/CMSIS/DSP/Include/arm_math.h ****    * @param[in]     normalize  normalizing factor.
2207:Core/Inc/../../Drivers/CMSIS/DSP/Include/arm_math.h ****    * @return      arm_status function returns ARM_MATH_SUCCESS if initialization is successful or A
2208:Core/Inc/../../Drivers/CMSIS/DSP/Include/arm_math.h ****    */
2209:Core/Inc/../../Drivers/CMSIS/DSP/Include/arm_math.h ****   arm_status arm_dct4_init_q31(
2210:Core/Inc/../../Drivers/CMSIS/DSP/Include/arm_math.h ****       arm_dct4_instance_q31 *S,
2211:Core/Inc/../../Drivers/CMSIS/DSP/Include/arm_math.h ****       arm_rfft_instance_q31 *S_RFFT,
2212:Core/Inc/../../Drivers/CMSIS/DSP/Include/arm_math.h ****       arm_cfft_radix4_instance_q31 *S_CFFT,
2213:Core/Inc/../../Drivers/CMSIS/DSP/Include/arm_math.h ****       uint16_t N,
2214:Core/Inc/../../Drivers/CMSIS/DSP/Include/arm_math.h ****       uint16_t Nby2,
2215:Core/Inc/../../Drivers/CMSIS/DSP/Include/arm_math.h ****       q31_t normalize);
2216:Core/Inc/../../Drivers/CMSIS/DSP/Include/arm_math.h **** 
2217:Core/Inc/../../Drivers/CMSIS/DSP/Include/arm_math.h ****   /**
2218:Core/Inc/../../Drivers/CMSIS/DSP/Include/arm_math.h ****    * @brief Processing function for the Q31 DCT4/IDCT4.
2219:Core/Inc/../../Drivers/CMSIS/DSP/Include/arm_math.h ****    * @param[in]     S              points to an instance of the Q31 DCT4 structure.
2220:Core/Inc/../../Drivers/CMSIS/DSP/Include/arm_math.h ****    * @param[in]     pState         points to state buffer.
2221:Core/Inc/../../Drivers/CMSIS/DSP/Include/arm_math.h ****    * @param[in,out] pInlineBuffer  points to the in-place input and output buffer.
2222:Core/Inc/../../Drivers/CMSIS/DSP/Include/arm_math.h ****    */
2223:Core/Inc/../../Drivers/CMSIS/DSP/Include/arm_math.h ****   void arm_dct4_q31(
2224:Core/Inc/../../Drivers/CMSIS/DSP/Include/arm_math.h ****       const arm_dct4_instance_q31 *S,
2225:Core/Inc/../../Drivers/CMSIS/DSP/Include/arm_math.h ****       q31_t *pState,
2226:Core/Inc/../../Drivers/CMSIS/DSP/Include/arm_math.h ****       q31_t *pInlineBuffer);
2227:Core/Inc/../../Drivers/CMSIS/DSP/Include/arm_math.h **** 
2228:Core/Inc/../../Drivers/CMSIS/DSP/Include/arm_math.h ****   /**
2229:Core/Inc/../../Drivers/CMSIS/DSP/Include/arm_math.h ****    * @brief Instance structure for the Q15 DCT4/IDCT4 function.
2230:Core/Inc/../../Drivers/CMSIS/DSP/Include/arm_math.h ****    */
2231:Core/Inc/../../Drivers/CMSIS/DSP/Include/arm_math.h ****   typedef struct
2232:Core/Inc/../../Drivers/CMSIS/DSP/Include/arm_math.h ****   {
2233:Core/Inc/../../Drivers/CMSIS/DSP/Include/arm_math.h ****     uint16_t N;                          /**< length of the DCT4. */
2234:Core/Inc/../../Drivers/CMSIS/DSP/Include/arm_math.h ****     uint16_t Nby2;                       /**< half of the length of the DCT4. */
2235:Core/Inc/../../Drivers/CMSIS/DSP/Include/arm_math.h ****     q15_t normalize;                     /**< normalizing factor. */
2236:Core/Inc/../../Drivers/CMSIS/DSP/Include/arm_math.h ****     q15_t *pTwiddle;                     /**< points to the twiddle factor table. */
2237:Core/Inc/../../Drivers/CMSIS/DSP/Include/arm_math.h ****     q15_t *pCosFactor;                   /**< points to the cosFactor table. */
2238:Core/Inc/../../Drivers/CMSIS/DSP/Include/arm_math.h ****     arm_rfft_instance_q15 *pRfft;        /**< points to the real FFT instance. */
2239:Core/Inc/../../Drivers/CMSIS/DSP/Include/arm_math.h ****     arm_cfft_radix4_instance_q15 *pCfft; /**< points to the complex FFT instance. */
2240:Core/Inc/../../Drivers/CMSIS/DSP/Include/arm_math.h ****   } arm_dct4_instance_q15;
2241:Core/Inc/../../Drivers/CMSIS/DSP/Include/arm_math.h **** 
2242:Core/Inc/../../Drivers/CMSIS/DSP/Include/arm_math.h ****   /**
2243:Core/Inc/../../Drivers/CMSIS/DSP/Include/arm_math.h ****    * @brief  Initialization function for the Q15 DCT4/IDCT4.
2244:Core/Inc/../../Drivers/CMSIS/DSP/Include/arm_math.h ****    * @param[in,out] S          points to an instance of Q15 DCT4/IDCT4 structure.
2245:Core/Inc/../../Drivers/CMSIS/DSP/Include/arm_math.h ****    * @param[in]     S_RFFT     points to an instance of Q15 RFFT/RIFFT structure.
2246:Core/Inc/../../Drivers/CMSIS/DSP/Include/arm_math.h ****    * @param[in]     S_CFFT     points to an instance of Q15 CFFT/CIFFT structure.
2247:Core/Inc/../../Drivers/CMSIS/DSP/Include/arm_math.h ****    * @param[in]     N          length of the DCT4.
2248:Core/Inc/../../Drivers/CMSIS/DSP/Include/arm_math.h ****    * @param[in]     Nby2       half of the length of the DCT4.
2249:Core/Inc/../../Drivers/CMSIS/DSP/Include/arm_math.h ****    * @param[in]     normalize  normalizing factor.
2250:Core/Inc/../../Drivers/CMSIS/DSP/Include/arm_math.h ****    * @return      arm_status function returns ARM_MATH_SUCCESS if initialization is successful or A
2251:Core/Inc/../../Drivers/CMSIS/DSP/Include/arm_math.h ****    */
2252:Core/Inc/../../Drivers/CMSIS/DSP/Include/arm_math.h ****   arm_status arm_dct4_init_q15(
2253:Core/Inc/../../Drivers/CMSIS/DSP/Include/arm_math.h ****       arm_dct4_instance_q15 *S,
2254:Core/Inc/../../Drivers/CMSIS/DSP/Include/arm_math.h ****       arm_rfft_instance_q15 *S_RFFT,
ARM GAS  /var/folders/n6/c271nzx11xl4r4_m7sqjlt0m0000gn/T//ccGo3Vqh.s 			page 68


2255:Core/Inc/../../Drivers/CMSIS/DSP/Include/arm_math.h ****       arm_cfft_radix4_instance_q15 *S_CFFT,
2256:Core/Inc/../../Drivers/CMSIS/DSP/Include/arm_math.h ****       uint16_t N,
2257:Core/Inc/../../Drivers/CMSIS/DSP/Include/arm_math.h ****       uint16_t Nby2,
2258:Core/Inc/../../Drivers/CMSIS/DSP/Include/arm_math.h ****       q15_t normalize);
2259:Core/Inc/../../Drivers/CMSIS/DSP/Include/arm_math.h **** 
2260:Core/Inc/../../Drivers/CMSIS/DSP/Include/arm_math.h ****   /**
2261:Core/Inc/../../Drivers/CMSIS/DSP/Include/arm_math.h ****    * @brief Processing function for the Q15 DCT4/IDCT4.
2262:Core/Inc/../../Drivers/CMSIS/DSP/Include/arm_math.h ****    * @param[in]     S              points to an instance of the Q15 DCT4 structure.
2263:Core/Inc/../../Drivers/CMSIS/DSP/Include/arm_math.h ****    * @param[in]     pState         points to state buffer.
2264:Core/Inc/../../Drivers/CMSIS/DSP/Include/arm_math.h ****    * @param[in,out] pInlineBuffer  points to the in-place input and output buffer.
2265:Core/Inc/../../Drivers/CMSIS/DSP/Include/arm_math.h ****    */
2266:Core/Inc/../../Drivers/CMSIS/DSP/Include/arm_math.h ****   void arm_dct4_q15(
2267:Core/Inc/../../Drivers/CMSIS/DSP/Include/arm_math.h ****       const arm_dct4_instance_q15 *S,
2268:Core/Inc/../../Drivers/CMSIS/DSP/Include/arm_math.h ****       q15_t *pState,
2269:Core/Inc/../../Drivers/CMSIS/DSP/Include/arm_math.h ****       q15_t *pInlineBuffer);
2270:Core/Inc/../../Drivers/CMSIS/DSP/Include/arm_math.h **** 
2271:Core/Inc/../../Drivers/CMSIS/DSP/Include/arm_math.h ****   /**
2272:Core/Inc/../../Drivers/CMSIS/DSP/Include/arm_math.h ****    * @brief Floating-point vector addition.
2273:Core/Inc/../../Drivers/CMSIS/DSP/Include/arm_math.h ****    * @param[in]  pSrcA      points to the first input vector
2274:Core/Inc/../../Drivers/CMSIS/DSP/Include/arm_math.h ****    * @param[in]  pSrcB      points to the second input vector
2275:Core/Inc/../../Drivers/CMSIS/DSP/Include/arm_math.h ****    * @param[out] pDst       points to the output vector
2276:Core/Inc/../../Drivers/CMSIS/DSP/Include/arm_math.h ****    * @param[in]  blockSize  number of samples in each vector
2277:Core/Inc/../../Drivers/CMSIS/DSP/Include/arm_math.h ****    */
2278:Core/Inc/../../Drivers/CMSIS/DSP/Include/arm_math.h ****   void arm_add_f32(
2279:Core/Inc/../../Drivers/CMSIS/DSP/Include/arm_math.h ****       float32_t *pSrcA,
2280:Core/Inc/../../Drivers/CMSIS/DSP/Include/arm_math.h ****       float32_t *pSrcB,
2281:Core/Inc/../../Drivers/CMSIS/DSP/Include/arm_math.h ****       float32_t *pDst,
2282:Core/Inc/../../Drivers/CMSIS/DSP/Include/arm_math.h ****       uint32_t blockSize);
2283:Core/Inc/../../Drivers/CMSIS/DSP/Include/arm_math.h **** 
2284:Core/Inc/../../Drivers/CMSIS/DSP/Include/arm_math.h ****   /**
2285:Core/Inc/../../Drivers/CMSIS/DSP/Include/arm_math.h ****    * @brief Q7 vector addition.
2286:Core/Inc/../../Drivers/CMSIS/DSP/Include/arm_math.h ****    * @param[in]  pSrcA      points to the first input vector
2287:Core/Inc/../../Drivers/CMSIS/DSP/Include/arm_math.h ****    * @param[in]  pSrcB      points to the second input vector
2288:Core/Inc/../../Drivers/CMSIS/DSP/Include/arm_math.h ****    * @param[out] pDst       points to the output vector
2289:Core/Inc/../../Drivers/CMSIS/DSP/Include/arm_math.h ****    * @param[in]  blockSize  number of samples in each vector
2290:Core/Inc/../../Drivers/CMSIS/DSP/Include/arm_math.h ****    */
2291:Core/Inc/../../Drivers/CMSIS/DSP/Include/arm_math.h ****   void arm_add_q7(
2292:Core/Inc/../../Drivers/CMSIS/DSP/Include/arm_math.h ****       q7_t *pSrcA,
2293:Core/Inc/../../Drivers/CMSIS/DSP/Include/arm_math.h ****       q7_t *pSrcB,
2294:Core/Inc/../../Drivers/CMSIS/DSP/Include/arm_math.h ****       q7_t *pDst,
2295:Core/Inc/../../Drivers/CMSIS/DSP/Include/arm_math.h ****       uint32_t blockSize);
2296:Core/Inc/../../Drivers/CMSIS/DSP/Include/arm_math.h **** 
2297:Core/Inc/../../Drivers/CMSIS/DSP/Include/arm_math.h ****   /**
2298:Core/Inc/../../Drivers/CMSIS/DSP/Include/arm_math.h ****    * @brief Q15 vector addition.
2299:Core/Inc/../../Drivers/CMSIS/DSP/Include/arm_math.h ****    * @param[in]  pSrcA      points to the first input vector
2300:Core/Inc/../../Drivers/CMSIS/DSP/Include/arm_math.h ****    * @param[in]  pSrcB      points to the second input vector
2301:Core/Inc/../../Drivers/CMSIS/DSP/Include/arm_math.h ****    * @param[out] pDst       points to the output vector
2302:Core/Inc/../../Drivers/CMSIS/DSP/Include/arm_math.h ****    * @param[in]  blockSize  number of samples in each vector
2303:Core/Inc/../../Drivers/CMSIS/DSP/Include/arm_math.h ****    */
2304:Core/Inc/../../Drivers/CMSIS/DSP/Include/arm_math.h ****   void arm_add_q15(
2305:Core/Inc/../../Drivers/CMSIS/DSP/Include/arm_math.h ****       q15_t *pSrcA,
2306:Core/Inc/../../Drivers/CMSIS/DSP/Include/arm_math.h ****       q15_t *pSrcB,
2307:Core/Inc/../../Drivers/CMSIS/DSP/Include/arm_math.h ****       q15_t *pDst,
2308:Core/Inc/../../Drivers/CMSIS/DSP/Include/arm_math.h ****       uint32_t blockSize);
2309:Core/Inc/../../Drivers/CMSIS/DSP/Include/arm_math.h **** 
2310:Core/Inc/../../Drivers/CMSIS/DSP/Include/arm_math.h ****   /**
2311:Core/Inc/../../Drivers/CMSIS/DSP/Include/arm_math.h ****    * @brief Q31 vector addition.
ARM GAS  /var/folders/n6/c271nzx11xl4r4_m7sqjlt0m0000gn/T//ccGo3Vqh.s 			page 69


2312:Core/Inc/../../Drivers/CMSIS/DSP/Include/arm_math.h ****    * @param[in]  pSrcA      points to the first input vector
2313:Core/Inc/../../Drivers/CMSIS/DSP/Include/arm_math.h ****    * @param[in]  pSrcB      points to the second input vector
2314:Core/Inc/../../Drivers/CMSIS/DSP/Include/arm_math.h ****    * @param[out] pDst       points to the output vector
2315:Core/Inc/../../Drivers/CMSIS/DSP/Include/arm_math.h ****    * @param[in]  blockSize  number of samples in each vector
2316:Core/Inc/../../Drivers/CMSIS/DSP/Include/arm_math.h ****    */
2317:Core/Inc/../../Drivers/CMSIS/DSP/Include/arm_math.h ****   void arm_add_q31(
2318:Core/Inc/../../Drivers/CMSIS/DSP/Include/arm_math.h ****       q31_t *pSrcA,
2319:Core/Inc/../../Drivers/CMSIS/DSP/Include/arm_math.h ****       q31_t *pSrcB,
2320:Core/Inc/../../Drivers/CMSIS/DSP/Include/arm_math.h ****       q31_t *pDst,
2321:Core/Inc/../../Drivers/CMSIS/DSP/Include/arm_math.h ****       uint32_t blockSize);
2322:Core/Inc/../../Drivers/CMSIS/DSP/Include/arm_math.h **** 
2323:Core/Inc/../../Drivers/CMSIS/DSP/Include/arm_math.h ****   /**
2324:Core/Inc/../../Drivers/CMSIS/DSP/Include/arm_math.h ****    * @brief Floating-point vector subtraction.
2325:Core/Inc/../../Drivers/CMSIS/DSP/Include/arm_math.h ****    * @param[in]  pSrcA      points to the first input vector
2326:Core/Inc/../../Drivers/CMSIS/DSP/Include/arm_math.h ****    * @param[in]  pSrcB      points to the second input vector
2327:Core/Inc/../../Drivers/CMSIS/DSP/Include/arm_math.h ****    * @param[out] pDst       points to the output vector
2328:Core/Inc/../../Drivers/CMSIS/DSP/Include/arm_math.h ****    * @param[in]  blockSize  number of samples in each vector
2329:Core/Inc/../../Drivers/CMSIS/DSP/Include/arm_math.h ****    */
2330:Core/Inc/../../Drivers/CMSIS/DSP/Include/arm_math.h ****   void arm_sub_f32(
2331:Core/Inc/../../Drivers/CMSIS/DSP/Include/arm_math.h ****       float32_t *pSrcA,
2332:Core/Inc/../../Drivers/CMSIS/DSP/Include/arm_math.h ****       float32_t *pSrcB,
2333:Core/Inc/../../Drivers/CMSIS/DSP/Include/arm_math.h ****       float32_t *pDst,
2334:Core/Inc/../../Drivers/CMSIS/DSP/Include/arm_math.h ****       uint32_t blockSize);
2335:Core/Inc/../../Drivers/CMSIS/DSP/Include/arm_math.h **** 
2336:Core/Inc/../../Drivers/CMSIS/DSP/Include/arm_math.h ****   /**
2337:Core/Inc/../../Drivers/CMSIS/DSP/Include/arm_math.h ****    * @brief Q7 vector subtraction.
2338:Core/Inc/../../Drivers/CMSIS/DSP/Include/arm_math.h ****    * @param[in]  pSrcA      points to the first input vector
2339:Core/Inc/../../Drivers/CMSIS/DSP/Include/arm_math.h ****    * @param[in]  pSrcB      points to the second input vector
2340:Core/Inc/../../Drivers/CMSIS/DSP/Include/arm_math.h ****    * @param[out] pDst       points to the output vector
2341:Core/Inc/../../Drivers/CMSIS/DSP/Include/arm_math.h ****    * @param[in]  blockSize  number of samples in each vector
2342:Core/Inc/../../Drivers/CMSIS/DSP/Include/arm_math.h ****    */
2343:Core/Inc/../../Drivers/CMSIS/DSP/Include/arm_math.h ****   void arm_sub_q7(
2344:Core/Inc/../../Drivers/CMSIS/DSP/Include/arm_math.h ****       q7_t *pSrcA,
2345:Core/Inc/../../Drivers/CMSIS/DSP/Include/arm_math.h ****       q7_t *pSrcB,
2346:Core/Inc/../../Drivers/CMSIS/DSP/Include/arm_math.h ****       q7_t *pDst,
2347:Core/Inc/../../Drivers/CMSIS/DSP/Include/arm_math.h ****       uint32_t blockSize);
2348:Core/Inc/../../Drivers/CMSIS/DSP/Include/arm_math.h **** 
2349:Core/Inc/../../Drivers/CMSIS/DSP/Include/arm_math.h ****   /**
2350:Core/Inc/../../Drivers/CMSIS/DSP/Include/arm_math.h ****    * @brief Q15 vector subtraction.
2351:Core/Inc/../../Drivers/CMSIS/DSP/Include/arm_math.h ****    * @param[in]  pSrcA      points to the first input vector
2352:Core/Inc/../../Drivers/CMSIS/DSP/Include/arm_math.h ****    * @param[in]  pSrcB      points to the second input vector
2353:Core/Inc/../../Drivers/CMSIS/DSP/Include/arm_math.h ****    * @param[out] pDst       points to the output vector
2354:Core/Inc/../../Drivers/CMSIS/DSP/Include/arm_math.h ****    * @param[in]  blockSize  number of samples in each vector
2355:Core/Inc/../../Drivers/CMSIS/DSP/Include/arm_math.h ****    */
2356:Core/Inc/../../Drivers/CMSIS/DSP/Include/arm_math.h ****   void arm_sub_q15(
2357:Core/Inc/../../Drivers/CMSIS/DSP/Include/arm_math.h ****       q15_t *pSrcA,
2358:Core/Inc/../../Drivers/CMSIS/DSP/Include/arm_math.h ****       q15_t *pSrcB,
2359:Core/Inc/../../Drivers/CMSIS/DSP/Include/arm_math.h ****       q15_t *pDst,
2360:Core/Inc/../../Drivers/CMSIS/DSP/Include/arm_math.h ****       uint32_t blockSize);
2361:Core/Inc/../../Drivers/CMSIS/DSP/Include/arm_math.h **** 
2362:Core/Inc/../../Drivers/CMSIS/DSP/Include/arm_math.h ****   /**
2363:Core/Inc/../../Drivers/CMSIS/DSP/Include/arm_math.h ****    * @brief Q31 vector subtraction.
2364:Core/Inc/../../Drivers/CMSIS/DSP/Include/arm_math.h ****    * @param[in]  pSrcA      points to the first input vector
2365:Core/Inc/../../Drivers/CMSIS/DSP/Include/arm_math.h ****    * @param[in]  pSrcB      points to the second input vector
2366:Core/Inc/../../Drivers/CMSIS/DSP/Include/arm_math.h ****    * @param[out] pDst       points to the output vector
2367:Core/Inc/../../Drivers/CMSIS/DSP/Include/arm_math.h ****    * @param[in]  blockSize  number of samples in each vector
2368:Core/Inc/../../Drivers/CMSIS/DSP/Include/arm_math.h ****    */
ARM GAS  /var/folders/n6/c271nzx11xl4r4_m7sqjlt0m0000gn/T//ccGo3Vqh.s 			page 70


2369:Core/Inc/../../Drivers/CMSIS/DSP/Include/arm_math.h ****   void arm_sub_q31(
2370:Core/Inc/../../Drivers/CMSIS/DSP/Include/arm_math.h ****       q31_t *pSrcA,
2371:Core/Inc/../../Drivers/CMSIS/DSP/Include/arm_math.h ****       q31_t *pSrcB,
2372:Core/Inc/../../Drivers/CMSIS/DSP/Include/arm_math.h ****       q31_t *pDst,
2373:Core/Inc/../../Drivers/CMSIS/DSP/Include/arm_math.h ****       uint32_t blockSize);
2374:Core/Inc/../../Drivers/CMSIS/DSP/Include/arm_math.h **** 
2375:Core/Inc/../../Drivers/CMSIS/DSP/Include/arm_math.h ****   /**
2376:Core/Inc/../../Drivers/CMSIS/DSP/Include/arm_math.h ****    * @brief Multiplies a floating-point vector by a scalar.
2377:Core/Inc/../../Drivers/CMSIS/DSP/Include/arm_math.h ****    * @param[in]  pSrc       points to the input vector
2378:Core/Inc/../../Drivers/CMSIS/DSP/Include/arm_math.h ****    * @param[in]  scale      scale factor to be applied
2379:Core/Inc/../../Drivers/CMSIS/DSP/Include/arm_math.h ****    * @param[out] pDst       points to the output vector
2380:Core/Inc/../../Drivers/CMSIS/DSP/Include/arm_math.h ****    * @param[in]  blockSize  number of samples in the vector
2381:Core/Inc/../../Drivers/CMSIS/DSP/Include/arm_math.h ****    */
2382:Core/Inc/../../Drivers/CMSIS/DSP/Include/arm_math.h ****   void arm_scale_f32(
2383:Core/Inc/../../Drivers/CMSIS/DSP/Include/arm_math.h ****       float32_t *pSrc,
2384:Core/Inc/../../Drivers/CMSIS/DSP/Include/arm_math.h ****       float32_t scale,
2385:Core/Inc/../../Drivers/CMSIS/DSP/Include/arm_math.h ****       float32_t *pDst,
2386:Core/Inc/../../Drivers/CMSIS/DSP/Include/arm_math.h ****       uint32_t blockSize);
2387:Core/Inc/../../Drivers/CMSIS/DSP/Include/arm_math.h **** 
2388:Core/Inc/../../Drivers/CMSIS/DSP/Include/arm_math.h ****   /**
2389:Core/Inc/../../Drivers/CMSIS/DSP/Include/arm_math.h ****    * @brief Multiplies a Q7 vector by a scalar.
2390:Core/Inc/../../Drivers/CMSIS/DSP/Include/arm_math.h ****    * @param[in]  pSrc        points to the input vector
2391:Core/Inc/../../Drivers/CMSIS/DSP/Include/arm_math.h ****    * @param[in]  scaleFract  fractional portion of the scale value
2392:Core/Inc/../../Drivers/CMSIS/DSP/Include/arm_math.h ****    * @param[in]  shift       number of bits to shift the result by
2393:Core/Inc/../../Drivers/CMSIS/DSP/Include/arm_math.h ****    * @param[out] pDst        points to the output vector
2394:Core/Inc/../../Drivers/CMSIS/DSP/Include/arm_math.h ****    * @param[in]  blockSize   number of samples in the vector
2395:Core/Inc/../../Drivers/CMSIS/DSP/Include/arm_math.h ****    */
2396:Core/Inc/../../Drivers/CMSIS/DSP/Include/arm_math.h ****   void arm_scale_q7(
2397:Core/Inc/../../Drivers/CMSIS/DSP/Include/arm_math.h ****       q7_t *pSrc,
2398:Core/Inc/../../Drivers/CMSIS/DSP/Include/arm_math.h ****       q7_t scaleFract,
2399:Core/Inc/../../Drivers/CMSIS/DSP/Include/arm_math.h ****       int8_t shift,
2400:Core/Inc/../../Drivers/CMSIS/DSP/Include/arm_math.h ****       q7_t *pDst,
2401:Core/Inc/../../Drivers/CMSIS/DSP/Include/arm_math.h ****       uint32_t blockSize);
2402:Core/Inc/../../Drivers/CMSIS/DSP/Include/arm_math.h **** 
2403:Core/Inc/../../Drivers/CMSIS/DSP/Include/arm_math.h ****   /**
2404:Core/Inc/../../Drivers/CMSIS/DSP/Include/arm_math.h ****    * @brief Multiplies a Q15 vector by a scalar.
2405:Core/Inc/../../Drivers/CMSIS/DSP/Include/arm_math.h ****    * @param[in]  pSrc        points to the input vector
2406:Core/Inc/../../Drivers/CMSIS/DSP/Include/arm_math.h ****    * @param[in]  scaleFract  fractional portion of the scale value
2407:Core/Inc/../../Drivers/CMSIS/DSP/Include/arm_math.h ****    * @param[in]  shift       number of bits to shift the result by
2408:Core/Inc/../../Drivers/CMSIS/DSP/Include/arm_math.h ****    * @param[out] pDst        points to the output vector
2409:Core/Inc/../../Drivers/CMSIS/DSP/Include/arm_math.h ****    * @param[in]  blockSize   number of samples in the vector
2410:Core/Inc/../../Drivers/CMSIS/DSP/Include/arm_math.h ****    */
2411:Core/Inc/../../Drivers/CMSIS/DSP/Include/arm_math.h ****   void arm_scale_q15(
2412:Core/Inc/../../Drivers/CMSIS/DSP/Include/arm_math.h ****       q15_t *pSrc,
2413:Core/Inc/../../Drivers/CMSIS/DSP/Include/arm_math.h ****       q15_t scaleFract,
2414:Core/Inc/../../Drivers/CMSIS/DSP/Include/arm_math.h ****       int8_t shift,
2415:Core/Inc/../../Drivers/CMSIS/DSP/Include/arm_math.h ****       q15_t *pDst,
2416:Core/Inc/../../Drivers/CMSIS/DSP/Include/arm_math.h ****       uint32_t blockSize);
2417:Core/Inc/../../Drivers/CMSIS/DSP/Include/arm_math.h **** 
2418:Core/Inc/../../Drivers/CMSIS/DSP/Include/arm_math.h ****   /**
2419:Core/Inc/../../Drivers/CMSIS/DSP/Include/arm_math.h ****    * @brief Multiplies a Q31 vector by a scalar.
2420:Core/Inc/../../Drivers/CMSIS/DSP/Include/arm_math.h ****    * @param[in]  pSrc        points to the input vector
2421:Core/Inc/../../Drivers/CMSIS/DSP/Include/arm_math.h ****    * @param[in]  scaleFract  fractional portion of the scale value
2422:Core/Inc/../../Drivers/CMSIS/DSP/Include/arm_math.h ****    * @param[in]  shift       number of bits to shift the result by
2423:Core/Inc/../../Drivers/CMSIS/DSP/Include/arm_math.h ****    * @param[out] pDst        points to the output vector
2424:Core/Inc/../../Drivers/CMSIS/DSP/Include/arm_math.h ****    * @param[in]  blockSize   number of samples in the vector
2425:Core/Inc/../../Drivers/CMSIS/DSP/Include/arm_math.h ****    */
ARM GAS  /var/folders/n6/c271nzx11xl4r4_m7sqjlt0m0000gn/T//ccGo3Vqh.s 			page 71


2426:Core/Inc/../../Drivers/CMSIS/DSP/Include/arm_math.h ****   void arm_scale_q31(
2427:Core/Inc/../../Drivers/CMSIS/DSP/Include/arm_math.h ****       q31_t *pSrc,
2428:Core/Inc/../../Drivers/CMSIS/DSP/Include/arm_math.h ****       q31_t scaleFract,
2429:Core/Inc/../../Drivers/CMSIS/DSP/Include/arm_math.h ****       int8_t shift,
2430:Core/Inc/../../Drivers/CMSIS/DSP/Include/arm_math.h ****       q31_t *pDst,
2431:Core/Inc/../../Drivers/CMSIS/DSP/Include/arm_math.h ****       uint32_t blockSize);
2432:Core/Inc/../../Drivers/CMSIS/DSP/Include/arm_math.h **** 
2433:Core/Inc/../../Drivers/CMSIS/DSP/Include/arm_math.h ****   /**
2434:Core/Inc/../../Drivers/CMSIS/DSP/Include/arm_math.h ****    * @brief Q7 vector absolute value.
2435:Core/Inc/../../Drivers/CMSIS/DSP/Include/arm_math.h ****    * @param[in]  pSrc       points to the input buffer
2436:Core/Inc/../../Drivers/CMSIS/DSP/Include/arm_math.h ****    * @param[out] pDst       points to the output buffer
2437:Core/Inc/../../Drivers/CMSIS/DSP/Include/arm_math.h ****    * @param[in]  blockSize  number of samples in each vector
2438:Core/Inc/../../Drivers/CMSIS/DSP/Include/arm_math.h ****    */
2439:Core/Inc/../../Drivers/CMSIS/DSP/Include/arm_math.h ****   void arm_abs_q7(
2440:Core/Inc/../../Drivers/CMSIS/DSP/Include/arm_math.h ****       q7_t *pSrc,
2441:Core/Inc/../../Drivers/CMSIS/DSP/Include/arm_math.h ****       q7_t *pDst,
2442:Core/Inc/../../Drivers/CMSIS/DSP/Include/arm_math.h ****       uint32_t blockSize);
2443:Core/Inc/../../Drivers/CMSIS/DSP/Include/arm_math.h **** 
2444:Core/Inc/../../Drivers/CMSIS/DSP/Include/arm_math.h ****   /**
2445:Core/Inc/../../Drivers/CMSIS/DSP/Include/arm_math.h ****    * @brief Floating-point vector absolute value.
2446:Core/Inc/../../Drivers/CMSIS/DSP/Include/arm_math.h ****    * @param[in]  pSrc       points to the input buffer
2447:Core/Inc/../../Drivers/CMSIS/DSP/Include/arm_math.h ****    * @param[out] pDst       points to the output buffer
2448:Core/Inc/../../Drivers/CMSIS/DSP/Include/arm_math.h ****    * @param[in]  blockSize  number of samples in each vector
2449:Core/Inc/../../Drivers/CMSIS/DSP/Include/arm_math.h ****    */
2450:Core/Inc/../../Drivers/CMSIS/DSP/Include/arm_math.h ****   void arm_abs_f32(
2451:Core/Inc/../../Drivers/CMSIS/DSP/Include/arm_math.h ****       float32_t *pSrc,
2452:Core/Inc/../../Drivers/CMSIS/DSP/Include/arm_math.h ****       float32_t *pDst,
2453:Core/Inc/../../Drivers/CMSIS/DSP/Include/arm_math.h ****       uint32_t blockSize);
2454:Core/Inc/../../Drivers/CMSIS/DSP/Include/arm_math.h **** 
2455:Core/Inc/../../Drivers/CMSIS/DSP/Include/arm_math.h ****   /**
2456:Core/Inc/../../Drivers/CMSIS/DSP/Include/arm_math.h ****    * @brief Q15 vector absolute value.
2457:Core/Inc/../../Drivers/CMSIS/DSP/Include/arm_math.h ****    * @param[in]  pSrc       points to the input buffer
2458:Core/Inc/../../Drivers/CMSIS/DSP/Include/arm_math.h ****    * @param[out] pDst       points to the output buffer
2459:Core/Inc/../../Drivers/CMSIS/DSP/Include/arm_math.h ****    * @param[in]  blockSize  number of samples in each vector
2460:Core/Inc/../../Drivers/CMSIS/DSP/Include/arm_math.h ****    */
2461:Core/Inc/../../Drivers/CMSIS/DSP/Include/arm_math.h ****   void arm_abs_q15(
2462:Core/Inc/../../Drivers/CMSIS/DSP/Include/arm_math.h ****       q15_t *pSrc,
2463:Core/Inc/../../Drivers/CMSIS/DSP/Include/arm_math.h ****       q15_t *pDst,
2464:Core/Inc/../../Drivers/CMSIS/DSP/Include/arm_math.h ****       uint32_t blockSize);
2465:Core/Inc/../../Drivers/CMSIS/DSP/Include/arm_math.h **** 
2466:Core/Inc/../../Drivers/CMSIS/DSP/Include/arm_math.h ****   /**
2467:Core/Inc/../../Drivers/CMSIS/DSP/Include/arm_math.h ****    * @brief Q31 vector absolute value.
2468:Core/Inc/../../Drivers/CMSIS/DSP/Include/arm_math.h ****    * @param[in]  pSrc       points to the input buffer
2469:Core/Inc/../../Drivers/CMSIS/DSP/Include/arm_math.h ****    * @param[out] pDst       points to the output buffer
2470:Core/Inc/../../Drivers/CMSIS/DSP/Include/arm_math.h ****    * @param[in]  blockSize  number of samples in each vector
2471:Core/Inc/../../Drivers/CMSIS/DSP/Include/arm_math.h ****    */
2472:Core/Inc/../../Drivers/CMSIS/DSP/Include/arm_math.h ****   void arm_abs_q31(
2473:Core/Inc/../../Drivers/CMSIS/DSP/Include/arm_math.h ****       q31_t *pSrc,
2474:Core/Inc/../../Drivers/CMSIS/DSP/Include/arm_math.h ****       q31_t *pDst,
2475:Core/Inc/../../Drivers/CMSIS/DSP/Include/arm_math.h ****       uint32_t blockSize);
2476:Core/Inc/../../Drivers/CMSIS/DSP/Include/arm_math.h **** 
2477:Core/Inc/../../Drivers/CMSIS/DSP/Include/arm_math.h ****   /**
2478:Core/Inc/../../Drivers/CMSIS/DSP/Include/arm_math.h ****    * @brief Dot product of floating-point vectors.
2479:Core/Inc/../../Drivers/CMSIS/DSP/Include/arm_math.h ****    * @param[in]  pSrcA      points to the first input vector
2480:Core/Inc/../../Drivers/CMSIS/DSP/Include/arm_math.h ****    * @param[in]  pSrcB      points to the second input vector
2481:Core/Inc/../../Drivers/CMSIS/DSP/Include/arm_math.h ****    * @param[in]  blockSize  number of samples in each vector
2482:Core/Inc/../../Drivers/CMSIS/DSP/Include/arm_math.h ****    * @param[out] result     output result returned here
ARM GAS  /var/folders/n6/c271nzx11xl4r4_m7sqjlt0m0000gn/T//ccGo3Vqh.s 			page 72


2483:Core/Inc/../../Drivers/CMSIS/DSP/Include/arm_math.h ****    */
2484:Core/Inc/../../Drivers/CMSIS/DSP/Include/arm_math.h ****   void arm_dot_prod_f32(
2485:Core/Inc/../../Drivers/CMSIS/DSP/Include/arm_math.h ****       float32_t *pSrcA,
2486:Core/Inc/../../Drivers/CMSIS/DSP/Include/arm_math.h ****       float32_t *pSrcB,
2487:Core/Inc/../../Drivers/CMSIS/DSP/Include/arm_math.h ****       uint32_t blockSize,
2488:Core/Inc/../../Drivers/CMSIS/DSP/Include/arm_math.h ****       float32_t *result);
2489:Core/Inc/../../Drivers/CMSIS/DSP/Include/arm_math.h **** 
2490:Core/Inc/../../Drivers/CMSIS/DSP/Include/arm_math.h ****   /**
2491:Core/Inc/../../Drivers/CMSIS/DSP/Include/arm_math.h ****    * @brief Dot product of Q7 vectors.
2492:Core/Inc/../../Drivers/CMSIS/DSP/Include/arm_math.h ****    * @param[in]  pSrcA      points to the first input vector
2493:Core/Inc/../../Drivers/CMSIS/DSP/Include/arm_math.h ****    * @param[in]  pSrcB      points to the second input vector
2494:Core/Inc/../../Drivers/CMSIS/DSP/Include/arm_math.h ****    * @param[in]  blockSize  number of samples in each vector
2495:Core/Inc/../../Drivers/CMSIS/DSP/Include/arm_math.h ****    * @param[out] result     output result returned here
2496:Core/Inc/../../Drivers/CMSIS/DSP/Include/arm_math.h ****    */
2497:Core/Inc/../../Drivers/CMSIS/DSP/Include/arm_math.h ****   void arm_dot_prod_q7(
2498:Core/Inc/../../Drivers/CMSIS/DSP/Include/arm_math.h ****       q7_t *pSrcA,
2499:Core/Inc/../../Drivers/CMSIS/DSP/Include/arm_math.h ****       q7_t *pSrcB,
2500:Core/Inc/../../Drivers/CMSIS/DSP/Include/arm_math.h ****       uint32_t blockSize,
2501:Core/Inc/../../Drivers/CMSIS/DSP/Include/arm_math.h ****       q31_t *result);
2502:Core/Inc/../../Drivers/CMSIS/DSP/Include/arm_math.h **** 
2503:Core/Inc/../../Drivers/CMSIS/DSP/Include/arm_math.h ****   /**
2504:Core/Inc/../../Drivers/CMSIS/DSP/Include/arm_math.h ****    * @brief Dot product of Q15 vectors.
2505:Core/Inc/../../Drivers/CMSIS/DSP/Include/arm_math.h ****    * @param[in]  pSrcA      points to the first input vector
2506:Core/Inc/../../Drivers/CMSIS/DSP/Include/arm_math.h ****    * @param[in]  pSrcB      points to the second input vector
2507:Core/Inc/../../Drivers/CMSIS/DSP/Include/arm_math.h ****    * @param[in]  blockSize  number of samples in each vector
2508:Core/Inc/../../Drivers/CMSIS/DSP/Include/arm_math.h ****    * @param[out] result     output result returned here
2509:Core/Inc/../../Drivers/CMSIS/DSP/Include/arm_math.h ****    */
2510:Core/Inc/../../Drivers/CMSIS/DSP/Include/arm_math.h ****   void arm_dot_prod_q15(
2511:Core/Inc/../../Drivers/CMSIS/DSP/Include/arm_math.h ****       q15_t *pSrcA,
2512:Core/Inc/../../Drivers/CMSIS/DSP/Include/arm_math.h ****       q15_t *pSrcB,
2513:Core/Inc/../../Drivers/CMSIS/DSP/Include/arm_math.h ****       uint32_t blockSize,
2514:Core/Inc/../../Drivers/CMSIS/DSP/Include/arm_math.h ****       q63_t *result);
2515:Core/Inc/../../Drivers/CMSIS/DSP/Include/arm_math.h **** 
2516:Core/Inc/../../Drivers/CMSIS/DSP/Include/arm_math.h ****   /**
2517:Core/Inc/../../Drivers/CMSIS/DSP/Include/arm_math.h ****    * @brief Dot product of Q31 vectors.
2518:Core/Inc/../../Drivers/CMSIS/DSP/Include/arm_math.h ****    * @param[in]  pSrcA      points to the first input vector
2519:Core/Inc/../../Drivers/CMSIS/DSP/Include/arm_math.h ****    * @param[in]  pSrcB      points to the second input vector
2520:Core/Inc/../../Drivers/CMSIS/DSP/Include/arm_math.h ****    * @param[in]  blockSize  number of samples in each vector
2521:Core/Inc/../../Drivers/CMSIS/DSP/Include/arm_math.h ****    * @param[out] result     output result returned here
2522:Core/Inc/../../Drivers/CMSIS/DSP/Include/arm_math.h ****    */
2523:Core/Inc/../../Drivers/CMSIS/DSP/Include/arm_math.h ****   void arm_dot_prod_q31(
2524:Core/Inc/../../Drivers/CMSIS/DSP/Include/arm_math.h ****       q31_t *pSrcA,
2525:Core/Inc/../../Drivers/CMSIS/DSP/Include/arm_math.h ****       q31_t *pSrcB,
2526:Core/Inc/../../Drivers/CMSIS/DSP/Include/arm_math.h ****       uint32_t blockSize,
2527:Core/Inc/../../Drivers/CMSIS/DSP/Include/arm_math.h ****       q63_t *result);
2528:Core/Inc/../../Drivers/CMSIS/DSP/Include/arm_math.h **** 
2529:Core/Inc/../../Drivers/CMSIS/DSP/Include/arm_math.h ****   /**
2530:Core/Inc/../../Drivers/CMSIS/DSP/Include/arm_math.h ****    * @brief  Shifts the elements of a Q7 vector a specified number of bits.
2531:Core/Inc/../../Drivers/CMSIS/DSP/Include/arm_math.h ****    * @param[in]  pSrc       points to the input vector
2532:Core/Inc/../../Drivers/CMSIS/DSP/Include/arm_math.h ****    * @param[in]  shiftBits  number of bits to shift.  A positive value shifts left; a negative valu
2533:Core/Inc/../../Drivers/CMSIS/DSP/Include/arm_math.h ****    * @param[out] pDst       points to the output vector
2534:Core/Inc/../../Drivers/CMSIS/DSP/Include/arm_math.h ****    * @param[in]  blockSize  number of samples in the vector
2535:Core/Inc/../../Drivers/CMSIS/DSP/Include/arm_math.h ****    */
2536:Core/Inc/../../Drivers/CMSIS/DSP/Include/arm_math.h ****   void arm_shift_q7(
2537:Core/Inc/../../Drivers/CMSIS/DSP/Include/arm_math.h ****       q7_t *pSrc,
2538:Core/Inc/../../Drivers/CMSIS/DSP/Include/arm_math.h ****       int8_t shiftBits,
2539:Core/Inc/../../Drivers/CMSIS/DSP/Include/arm_math.h ****       q7_t *pDst,
ARM GAS  /var/folders/n6/c271nzx11xl4r4_m7sqjlt0m0000gn/T//ccGo3Vqh.s 			page 73


2540:Core/Inc/../../Drivers/CMSIS/DSP/Include/arm_math.h ****       uint32_t blockSize);
2541:Core/Inc/../../Drivers/CMSIS/DSP/Include/arm_math.h **** 
2542:Core/Inc/../../Drivers/CMSIS/DSP/Include/arm_math.h ****   /**
2543:Core/Inc/../../Drivers/CMSIS/DSP/Include/arm_math.h ****    * @brief  Shifts the elements of a Q15 vector a specified number of bits.
2544:Core/Inc/../../Drivers/CMSIS/DSP/Include/arm_math.h ****    * @param[in]  pSrc       points to the input vector
2545:Core/Inc/../../Drivers/CMSIS/DSP/Include/arm_math.h ****    * @param[in]  shiftBits  number of bits to shift.  A positive value shifts left; a negative valu
2546:Core/Inc/../../Drivers/CMSIS/DSP/Include/arm_math.h ****    * @param[out] pDst       points to the output vector
2547:Core/Inc/../../Drivers/CMSIS/DSP/Include/arm_math.h ****    * @param[in]  blockSize  number of samples in the vector
2548:Core/Inc/../../Drivers/CMSIS/DSP/Include/arm_math.h ****    */
2549:Core/Inc/../../Drivers/CMSIS/DSP/Include/arm_math.h ****   void arm_shift_q15(
2550:Core/Inc/../../Drivers/CMSIS/DSP/Include/arm_math.h ****       q15_t *pSrc,
2551:Core/Inc/../../Drivers/CMSIS/DSP/Include/arm_math.h ****       int8_t shiftBits,
2552:Core/Inc/../../Drivers/CMSIS/DSP/Include/arm_math.h ****       q15_t *pDst,
2553:Core/Inc/../../Drivers/CMSIS/DSP/Include/arm_math.h ****       uint32_t blockSize);
2554:Core/Inc/../../Drivers/CMSIS/DSP/Include/arm_math.h **** 
2555:Core/Inc/../../Drivers/CMSIS/DSP/Include/arm_math.h ****   /**
2556:Core/Inc/../../Drivers/CMSIS/DSP/Include/arm_math.h ****    * @brief  Shifts the elements of a Q31 vector a specified number of bits.
2557:Core/Inc/../../Drivers/CMSIS/DSP/Include/arm_math.h ****    * @param[in]  pSrc       points to the input vector
2558:Core/Inc/../../Drivers/CMSIS/DSP/Include/arm_math.h ****    * @param[in]  shiftBits  number of bits to shift.  A positive value shifts left; a negative valu
2559:Core/Inc/../../Drivers/CMSIS/DSP/Include/arm_math.h ****    * @param[out] pDst       points to the output vector
2560:Core/Inc/../../Drivers/CMSIS/DSP/Include/arm_math.h ****    * @param[in]  blockSize  number of samples in the vector
2561:Core/Inc/../../Drivers/CMSIS/DSP/Include/arm_math.h ****    */
2562:Core/Inc/../../Drivers/CMSIS/DSP/Include/arm_math.h ****   void arm_shift_q31(
2563:Core/Inc/../../Drivers/CMSIS/DSP/Include/arm_math.h ****       q31_t *pSrc,
2564:Core/Inc/../../Drivers/CMSIS/DSP/Include/arm_math.h ****       int8_t shiftBits,
2565:Core/Inc/../../Drivers/CMSIS/DSP/Include/arm_math.h ****       q31_t *pDst,
2566:Core/Inc/../../Drivers/CMSIS/DSP/Include/arm_math.h ****       uint32_t blockSize);
2567:Core/Inc/../../Drivers/CMSIS/DSP/Include/arm_math.h **** 
2568:Core/Inc/../../Drivers/CMSIS/DSP/Include/arm_math.h ****   /**
2569:Core/Inc/../../Drivers/CMSIS/DSP/Include/arm_math.h ****    * @brief  Adds a constant offset to a floating-point vector.
2570:Core/Inc/../../Drivers/CMSIS/DSP/Include/arm_math.h ****    * @param[in]  pSrc       points to the input vector
2571:Core/Inc/../../Drivers/CMSIS/DSP/Include/arm_math.h ****    * @param[in]  offset     is the offset to be added
2572:Core/Inc/../../Drivers/CMSIS/DSP/Include/arm_math.h ****    * @param[out] pDst       points to the output vector
2573:Core/Inc/../../Drivers/CMSIS/DSP/Include/arm_math.h ****    * @param[in]  blockSize  number of samples in the vector
2574:Core/Inc/../../Drivers/CMSIS/DSP/Include/arm_math.h ****    */
2575:Core/Inc/../../Drivers/CMSIS/DSP/Include/arm_math.h ****   void arm_offset_f32(
2576:Core/Inc/../../Drivers/CMSIS/DSP/Include/arm_math.h ****       float32_t *pSrc,
2577:Core/Inc/../../Drivers/CMSIS/DSP/Include/arm_math.h ****       float32_t offset,
2578:Core/Inc/../../Drivers/CMSIS/DSP/Include/arm_math.h ****       float32_t *pDst,
2579:Core/Inc/../../Drivers/CMSIS/DSP/Include/arm_math.h ****       uint32_t blockSize);
2580:Core/Inc/../../Drivers/CMSIS/DSP/Include/arm_math.h **** 
2581:Core/Inc/../../Drivers/CMSIS/DSP/Include/arm_math.h ****   /**
2582:Core/Inc/../../Drivers/CMSIS/DSP/Include/arm_math.h ****    * @brief  Adds a constant offset to a Q7 vector.
2583:Core/Inc/../../Drivers/CMSIS/DSP/Include/arm_math.h ****    * @param[in]  pSrc       points to the input vector
2584:Core/Inc/../../Drivers/CMSIS/DSP/Include/arm_math.h ****    * @param[in]  offset     is the offset to be added
2585:Core/Inc/../../Drivers/CMSIS/DSP/Include/arm_math.h ****    * @param[out] pDst       points to the output vector
2586:Core/Inc/../../Drivers/CMSIS/DSP/Include/arm_math.h ****    * @param[in]  blockSize  number of samples in the vector
2587:Core/Inc/../../Drivers/CMSIS/DSP/Include/arm_math.h ****    */
2588:Core/Inc/../../Drivers/CMSIS/DSP/Include/arm_math.h ****   void arm_offset_q7(
2589:Core/Inc/../../Drivers/CMSIS/DSP/Include/arm_math.h ****       q7_t *pSrc,
2590:Core/Inc/../../Drivers/CMSIS/DSP/Include/arm_math.h ****       q7_t offset,
2591:Core/Inc/../../Drivers/CMSIS/DSP/Include/arm_math.h ****       q7_t *pDst,
2592:Core/Inc/../../Drivers/CMSIS/DSP/Include/arm_math.h ****       uint32_t blockSize);
2593:Core/Inc/../../Drivers/CMSIS/DSP/Include/arm_math.h **** 
2594:Core/Inc/../../Drivers/CMSIS/DSP/Include/arm_math.h ****   /**
2595:Core/Inc/../../Drivers/CMSIS/DSP/Include/arm_math.h ****    * @brief  Adds a constant offset to a Q15 vector.
2596:Core/Inc/../../Drivers/CMSIS/DSP/Include/arm_math.h ****    * @param[in]  pSrc       points to the input vector
ARM GAS  /var/folders/n6/c271nzx11xl4r4_m7sqjlt0m0000gn/T//ccGo3Vqh.s 			page 74


2597:Core/Inc/../../Drivers/CMSIS/DSP/Include/arm_math.h ****    * @param[in]  offset     is the offset to be added
2598:Core/Inc/../../Drivers/CMSIS/DSP/Include/arm_math.h ****    * @param[out] pDst       points to the output vector
2599:Core/Inc/../../Drivers/CMSIS/DSP/Include/arm_math.h ****    * @param[in]  blockSize  number of samples in the vector
2600:Core/Inc/../../Drivers/CMSIS/DSP/Include/arm_math.h ****    */
2601:Core/Inc/../../Drivers/CMSIS/DSP/Include/arm_math.h ****   void arm_offset_q15(
2602:Core/Inc/../../Drivers/CMSIS/DSP/Include/arm_math.h ****       q15_t *pSrc,
2603:Core/Inc/../../Drivers/CMSIS/DSP/Include/arm_math.h ****       q15_t offset,
2604:Core/Inc/../../Drivers/CMSIS/DSP/Include/arm_math.h ****       q15_t *pDst,
2605:Core/Inc/../../Drivers/CMSIS/DSP/Include/arm_math.h ****       uint32_t blockSize);
2606:Core/Inc/../../Drivers/CMSIS/DSP/Include/arm_math.h **** 
2607:Core/Inc/../../Drivers/CMSIS/DSP/Include/arm_math.h ****   /**
2608:Core/Inc/../../Drivers/CMSIS/DSP/Include/arm_math.h ****    * @brief  Adds a constant offset to a Q31 vector.
2609:Core/Inc/../../Drivers/CMSIS/DSP/Include/arm_math.h ****    * @param[in]  pSrc       points to the input vector
2610:Core/Inc/../../Drivers/CMSIS/DSP/Include/arm_math.h ****    * @param[in]  offset     is the offset to be added
2611:Core/Inc/../../Drivers/CMSIS/DSP/Include/arm_math.h ****    * @param[out] pDst       points to the output vector
2612:Core/Inc/../../Drivers/CMSIS/DSP/Include/arm_math.h ****    * @param[in]  blockSize  number of samples in the vector
2613:Core/Inc/../../Drivers/CMSIS/DSP/Include/arm_math.h ****    */
2614:Core/Inc/../../Drivers/CMSIS/DSP/Include/arm_math.h ****   void arm_offset_q31(
2615:Core/Inc/../../Drivers/CMSIS/DSP/Include/arm_math.h ****       q31_t *pSrc,
2616:Core/Inc/../../Drivers/CMSIS/DSP/Include/arm_math.h ****       q31_t offset,
2617:Core/Inc/../../Drivers/CMSIS/DSP/Include/arm_math.h ****       q31_t *pDst,
2618:Core/Inc/../../Drivers/CMSIS/DSP/Include/arm_math.h ****       uint32_t blockSize);
2619:Core/Inc/../../Drivers/CMSIS/DSP/Include/arm_math.h **** 
2620:Core/Inc/../../Drivers/CMSIS/DSP/Include/arm_math.h ****   /**
2621:Core/Inc/../../Drivers/CMSIS/DSP/Include/arm_math.h ****    * @brief  Negates the elements of a floating-point vector.
2622:Core/Inc/../../Drivers/CMSIS/DSP/Include/arm_math.h ****    * @param[in]  pSrc       points to the input vector
2623:Core/Inc/../../Drivers/CMSIS/DSP/Include/arm_math.h ****    * @param[out] pDst       points to the output vector
2624:Core/Inc/../../Drivers/CMSIS/DSP/Include/arm_math.h ****    * @param[in]  blockSize  number of samples in the vector
2625:Core/Inc/../../Drivers/CMSIS/DSP/Include/arm_math.h ****    */
2626:Core/Inc/../../Drivers/CMSIS/DSP/Include/arm_math.h ****   void arm_negate_f32(
2627:Core/Inc/../../Drivers/CMSIS/DSP/Include/arm_math.h ****       float32_t *pSrc,
2628:Core/Inc/../../Drivers/CMSIS/DSP/Include/arm_math.h ****       float32_t *pDst,
2629:Core/Inc/../../Drivers/CMSIS/DSP/Include/arm_math.h ****       uint32_t blockSize);
2630:Core/Inc/../../Drivers/CMSIS/DSP/Include/arm_math.h **** 
2631:Core/Inc/../../Drivers/CMSIS/DSP/Include/arm_math.h ****   /**
2632:Core/Inc/../../Drivers/CMSIS/DSP/Include/arm_math.h ****    * @brief  Negates the elements of a Q7 vector.
2633:Core/Inc/../../Drivers/CMSIS/DSP/Include/arm_math.h ****    * @param[in]  pSrc       points to the input vector
2634:Core/Inc/../../Drivers/CMSIS/DSP/Include/arm_math.h ****    * @param[out] pDst       points to the output vector
2635:Core/Inc/../../Drivers/CMSIS/DSP/Include/arm_math.h ****    * @param[in]  blockSize  number of samples in the vector
2636:Core/Inc/../../Drivers/CMSIS/DSP/Include/arm_math.h ****    */
2637:Core/Inc/../../Drivers/CMSIS/DSP/Include/arm_math.h ****   void arm_negate_q7(
2638:Core/Inc/../../Drivers/CMSIS/DSP/Include/arm_math.h ****       q7_t *pSrc,
2639:Core/Inc/../../Drivers/CMSIS/DSP/Include/arm_math.h ****       q7_t *pDst,
2640:Core/Inc/../../Drivers/CMSIS/DSP/Include/arm_math.h ****       uint32_t blockSize);
2641:Core/Inc/../../Drivers/CMSIS/DSP/Include/arm_math.h **** 
2642:Core/Inc/../../Drivers/CMSIS/DSP/Include/arm_math.h ****   /**
2643:Core/Inc/../../Drivers/CMSIS/DSP/Include/arm_math.h ****    * @brief  Negates the elements of a Q15 vector.
2644:Core/Inc/../../Drivers/CMSIS/DSP/Include/arm_math.h ****    * @param[in]  pSrc       points to the input vector
2645:Core/Inc/../../Drivers/CMSIS/DSP/Include/arm_math.h ****    * @param[out] pDst       points to the output vector
2646:Core/Inc/../../Drivers/CMSIS/DSP/Include/arm_math.h ****    * @param[in]  blockSize  number of samples in the vector
2647:Core/Inc/../../Drivers/CMSIS/DSP/Include/arm_math.h ****    */
2648:Core/Inc/../../Drivers/CMSIS/DSP/Include/arm_math.h ****   void arm_negate_q15(
2649:Core/Inc/../../Drivers/CMSIS/DSP/Include/arm_math.h ****       q15_t *pSrc,
2650:Core/Inc/../../Drivers/CMSIS/DSP/Include/arm_math.h ****       q15_t *pDst,
2651:Core/Inc/../../Drivers/CMSIS/DSP/Include/arm_math.h ****       uint32_t blockSize);
2652:Core/Inc/../../Drivers/CMSIS/DSP/Include/arm_math.h **** 
2653:Core/Inc/../../Drivers/CMSIS/DSP/Include/arm_math.h ****   /**
ARM GAS  /var/folders/n6/c271nzx11xl4r4_m7sqjlt0m0000gn/T//ccGo3Vqh.s 			page 75


2654:Core/Inc/../../Drivers/CMSIS/DSP/Include/arm_math.h ****    * @brief  Negates the elements of a Q31 vector.
2655:Core/Inc/../../Drivers/CMSIS/DSP/Include/arm_math.h ****    * @param[in]  pSrc       points to the input vector
2656:Core/Inc/../../Drivers/CMSIS/DSP/Include/arm_math.h ****    * @param[out] pDst       points to the output vector
2657:Core/Inc/../../Drivers/CMSIS/DSP/Include/arm_math.h ****    * @param[in]  blockSize  number of samples in the vector
2658:Core/Inc/../../Drivers/CMSIS/DSP/Include/arm_math.h ****    */
2659:Core/Inc/../../Drivers/CMSIS/DSP/Include/arm_math.h ****   void arm_negate_q31(
2660:Core/Inc/../../Drivers/CMSIS/DSP/Include/arm_math.h ****       q31_t *pSrc,
2661:Core/Inc/../../Drivers/CMSIS/DSP/Include/arm_math.h ****       q31_t *pDst,
2662:Core/Inc/../../Drivers/CMSIS/DSP/Include/arm_math.h ****       uint32_t blockSize);
2663:Core/Inc/../../Drivers/CMSIS/DSP/Include/arm_math.h **** 
2664:Core/Inc/../../Drivers/CMSIS/DSP/Include/arm_math.h ****   /**
2665:Core/Inc/../../Drivers/CMSIS/DSP/Include/arm_math.h ****    * @brief  Copies the elements of a floating-point vector.
2666:Core/Inc/../../Drivers/CMSIS/DSP/Include/arm_math.h ****    * @param[in]  pSrc       input pointer
2667:Core/Inc/../../Drivers/CMSIS/DSP/Include/arm_math.h ****    * @param[out] pDst       output pointer
2668:Core/Inc/../../Drivers/CMSIS/DSP/Include/arm_math.h ****    * @param[in]  blockSize  number of samples to process
2669:Core/Inc/../../Drivers/CMSIS/DSP/Include/arm_math.h ****    */
2670:Core/Inc/../../Drivers/CMSIS/DSP/Include/arm_math.h ****   void arm_copy_f32(
2671:Core/Inc/../../Drivers/CMSIS/DSP/Include/arm_math.h ****       float32_t *pSrc,
2672:Core/Inc/../../Drivers/CMSIS/DSP/Include/arm_math.h ****       float32_t *pDst,
2673:Core/Inc/../../Drivers/CMSIS/DSP/Include/arm_math.h ****       uint32_t blockSize);
2674:Core/Inc/../../Drivers/CMSIS/DSP/Include/arm_math.h **** 
2675:Core/Inc/../../Drivers/CMSIS/DSP/Include/arm_math.h ****   /**
2676:Core/Inc/../../Drivers/CMSIS/DSP/Include/arm_math.h ****    * @brief  Copies the elements of a Q7 vector.
2677:Core/Inc/../../Drivers/CMSIS/DSP/Include/arm_math.h ****    * @param[in]  pSrc       input pointer
2678:Core/Inc/../../Drivers/CMSIS/DSP/Include/arm_math.h ****    * @param[out] pDst       output pointer
2679:Core/Inc/../../Drivers/CMSIS/DSP/Include/arm_math.h ****    * @param[in]  blockSize  number of samples to process
2680:Core/Inc/../../Drivers/CMSIS/DSP/Include/arm_math.h ****    */
2681:Core/Inc/../../Drivers/CMSIS/DSP/Include/arm_math.h ****   void arm_copy_q7(
2682:Core/Inc/../../Drivers/CMSIS/DSP/Include/arm_math.h ****       q7_t *pSrc,
2683:Core/Inc/../../Drivers/CMSIS/DSP/Include/arm_math.h ****       q7_t *pDst,
2684:Core/Inc/../../Drivers/CMSIS/DSP/Include/arm_math.h ****       uint32_t blockSize);
2685:Core/Inc/../../Drivers/CMSIS/DSP/Include/arm_math.h **** 
2686:Core/Inc/../../Drivers/CMSIS/DSP/Include/arm_math.h ****   /**
2687:Core/Inc/../../Drivers/CMSIS/DSP/Include/arm_math.h ****    * @brief  Copies the elements of a Q15 vector.
2688:Core/Inc/../../Drivers/CMSIS/DSP/Include/arm_math.h ****    * @param[in]  pSrc       input pointer
2689:Core/Inc/../../Drivers/CMSIS/DSP/Include/arm_math.h ****    * @param[out] pDst       output pointer
2690:Core/Inc/../../Drivers/CMSIS/DSP/Include/arm_math.h ****    * @param[in]  blockSize  number of samples to process
2691:Core/Inc/../../Drivers/CMSIS/DSP/Include/arm_math.h ****    */
2692:Core/Inc/../../Drivers/CMSIS/DSP/Include/arm_math.h ****   void arm_copy_q15(
2693:Core/Inc/../../Drivers/CMSIS/DSP/Include/arm_math.h ****       q15_t *pSrc,
2694:Core/Inc/../../Drivers/CMSIS/DSP/Include/arm_math.h ****       q15_t *pDst,
2695:Core/Inc/../../Drivers/CMSIS/DSP/Include/arm_math.h ****       uint32_t blockSize);
2696:Core/Inc/../../Drivers/CMSIS/DSP/Include/arm_math.h **** 
2697:Core/Inc/../../Drivers/CMSIS/DSP/Include/arm_math.h ****   /**
2698:Core/Inc/../../Drivers/CMSIS/DSP/Include/arm_math.h ****    * @brief  Copies the elements of a Q31 vector.
2699:Core/Inc/../../Drivers/CMSIS/DSP/Include/arm_math.h ****    * @param[in]  pSrc       input pointer
2700:Core/Inc/../../Drivers/CMSIS/DSP/Include/arm_math.h ****    * @param[out] pDst       output pointer
2701:Core/Inc/../../Drivers/CMSIS/DSP/Include/arm_math.h ****    * @param[in]  blockSize  number of samples to process
2702:Core/Inc/../../Drivers/CMSIS/DSP/Include/arm_math.h ****    */
2703:Core/Inc/../../Drivers/CMSIS/DSP/Include/arm_math.h ****   void arm_copy_q31(
2704:Core/Inc/../../Drivers/CMSIS/DSP/Include/arm_math.h ****       q31_t *pSrc,
2705:Core/Inc/../../Drivers/CMSIS/DSP/Include/arm_math.h ****       q31_t *pDst,
2706:Core/Inc/../../Drivers/CMSIS/DSP/Include/arm_math.h ****       uint32_t blockSize);
2707:Core/Inc/../../Drivers/CMSIS/DSP/Include/arm_math.h **** 
2708:Core/Inc/../../Drivers/CMSIS/DSP/Include/arm_math.h ****   /**
2709:Core/Inc/../../Drivers/CMSIS/DSP/Include/arm_math.h ****    * @brief  Fills a constant value into a floating-point vector.
2710:Core/Inc/../../Drivers/CMSIS/DSP/Include/arm_math.h ****    * @param[in]  value      input value to be filled
ARM GAS  /var/folders/n6/c271nzx11xl4r4_m7sqjlt0m0000gn/T//ccGo3Vqh.s 			page 76


2711:Core/Inc/../../Drivers/CMSIS/DSP/Include/arm_math.h ****    * @param[out] pDst       output pointer
2712:Core/Inc/../../Drivers/CMSIS/DSP/Include/arm_math.h ****    * @param[in]  blockSize  number of samples to process
2713:Core/Inc/../../Drivers/CMSIS/DSP/Include/arm_math.h ****    */
2714:Core/Inc/../../Drivers/CMSIS/DSP/Include/arm_math.h ****   void arm_fill_f32(
2715:Core/Inc/../../Drivers/CMSIS/DSP/Include/arm_math.h ****       float32_t value,
2716:Core/Inc/../../Drivers/CMSIS/DSP/Include/arm_math.h ****       float32_t *pDst,
2717:Core/Inc/../../Drivers/CMSIS/DSP/Include/arm_math.h ****       uint32_t blockSize);
2718:Core/Inc/../../Drivers/CMSIS/DSP/Include/arm_math.h **** 
2719:Core/Inc/../../Drivers/CMSIS/DSP/Include/arm_math.h ****   /**
2720:Core/Inc/../../Drivers/CMSIS/DSP/Include/arm_math.h ****    * @brief  Fills a constant value into a Q7 vector.
2721:Core/Inc/../../Drivers/CMSIS/DSP/Include/arm_math.h ****    * @param[in]  value      input value to be filled
2722:Core/Inc/../../Drivers/CMSIS/DSP/Include/arm_math.h ****    * @param[out] pDst       output pointer
2723:Core/Inc/../../Drivers/CMSIS/DSP/Include/arm_math.h ****    * @param[in]  blockSize  number of samples to process
2724:Core/Inc/../../Drivers/CMSIS/DSP/Include/arm_math.h ****    */
2725:Core/Inc/../../Drivers/CMSIS/DSP/Include/arm_math.h ****   void arm_fill_q7(
2726:Core/Inc/../../Drivers/CMSIS/DSP/Include/arm_math.h ****       q7_t value,
2727:Core/Inc/../../Drivers/CMSIS/DSP/Include/arm_math.h ****       q7_t *pDst,
2728:Core/Inc/../../Drivers/CMSIS/DSP/Include/arm_math.h ****       uint32_t blockSize);
2729:Core/Inc/../../Drivers/CMSIS/DSP/Include/arm_math.h **** 
2730:Core/Inc/../../Drivers/CMSIS/DSP/Include/arm_math.h ****   /**
2731:Core/Inc/../../Drivers/CMSIS/DSP/Include/arm_math.h ****    * @brief  Fills a constant value into a Q15 vector.
2732:Core/Inc/../../Drivers/CMSIS/DSP/Include/arm_math.h ****    * @param[in]  value      input value to be filled
2733:Core/Inc/../../Drivers/CMSIS/DSP/Include/arm_math.h ****    * @param[out] pDst       output pointer
2734:Core/Inc/../../Drivers/CMSIS/DSP/Include/arm_math.h ****    * @param[in]  blockSize  number of samples to process
2735:Core/Inc/../../Drivers/CMSIS/DSP/Include/arm_math.h ****    */
2736:Core/Inc/../../Drivers/CMSIS/DSP/Include/arm_math.h ****   void arm_fill_q15(
2737:Core/Inc/../../Drivers/CMSIS/DSP/Include/arm_math.h ****       q15_t value,
2738:Core/Inc/../../Drivers/CMSIS/DSP/Include/arm_math.h ****       q15_t *pDst,
2739:Core/Inc/../../Drivers/CMSIS/DSP/Include/arm_math.h ****       uint32_t blockSize);
2740:Core/Inc/../../Drivers/CMSIS/DSP/Include/arm_math.h **** 
2741:Core/Inc/../../Drivers/CMSIS/DSP/Include/arm_math.h ****   /**
2742:Core/Inc/../../Drivers/CMSIS/DSP/Include/arm_math.h ****    * @brief  Fills a constant value into a Q31 vector.
2743:Core/Inc/../../Drivers/CMSIS/DSP/Include/arm_math.h ****    * @param[in]  value      input value to be filled
2744:Core/Inc/../../Drivers/CMSIS/DSP/Include/arm_math.h ****    * @param[out] pDst       output pointer
2745:Core/Inc/../../Drivers/CMSIS/DSP/Include/arm_math.h ****    * @param[in]  blockSize  number of samples to process
2746:Core/Inc/../../Drivers/CMSIS/DSP/Include/arm_math.h ****    */
2747:Core/Inc/../../Drivers/CMSIS/DSP/Include/arm_math.h ****   void arm_fill_q31(
2748:Core/Inc/../../Drivers/CMSIS/DSP/Include/arm_math.h ****       q31_t value,
2749:Core/Inc/../../Drivers/CMSIS/DSP/Include/arm_math.h ****       q31_t *pDst,
2750:Core/Inc/../../Drivers/CMSIS/DSP/Include/arm_math.h ****       uint32_t blockSize);
2751:Core/Inc/../../Drivers/CMSIS/DSP/Include/arm_math.h **** 
2752:Core/Inc/../../Drivers/CMSIS/DSP/Include/arm_math.h ****   /**
2753:Core/Inc/../../Drivers/CMSIS/DSP/Include/arm_math.h ****    * @brief Convolution of floating-point sequences.
2754:Core/Inc/../../Drivers/CMSIS/DSP/Include/arm_math.h ****    * @param[in]  pSrcA    points to the first input sequence.
2755:Core/Inc/../../Drivers/CMSIS/DSP/Include/arm_math.h ****    * @param[in]  srcALen  length of the first input sequence.
2756:Core/Inc/../../Drivers/CMSIS/DSP/Include/arm_math.h ****    * @param[in]  pSrcB    points to the second input sequence.
2757:Core/Inc/../../Drivers/CMSIS/DSP/Include/arm_math.h ****    * @param[in]  srcBLen  length of the second input sequence.
2758:Core/Inc/../../Drivers/CMSIS/DSP/Include/arm_math.h ****    * @param[out] pDst     points to the location where the output result is written.  Length srcALe
2759:Core/Inc/../../Drivers/CMSIS/DSP/Include/arm_math.h ****    */
2760:Core/Inc/../../Drivers/CMSIS/DSP/Include/arm_math.h ****   void arm_conv_f32(
2761:Core/Inc/../../Drivers/CMSIS/DSP/Include/arm_math.h ****       float32_t *pSrcA,
2762:Core/Inc/../../Drivers/CMSIS/DSP/Include/arm_math.h ****       uint32_t srcALen,
2763:Core/Inc/../../Drivers/CMSIS/DSP/Include/arm_math.h ****       float32_t *pSrcB,
2764:Core/Inc/../../Drivers/CMSIS/DSP/Include/arm_math.h ****       uint32_t srcBLen,
2765:Core/Inc/../../Drivers/CMSIS/DSP/Include/arm_math.h ****       float32_t *pDst);
2766:Core/Inc/../../Drivers/CMSIS/DSP/Include/arm_math.h **** 
2767:Core/Inc/../../Drivers/CMSIS/DSP/Include/arm_math.h ****   /**
ARM GAS  /var/folders/n6/c271nzx11xl4r4_m7sqjlt0m0000gn/T//ccGo3Vqh.s 			page 77


2768:Core/Inc/../../Drivers/CMSIS/DSP/Include/arm_math.h ****    * @brief Convolution of Q15 sequences.
2769:Core/Inc/../../Drivers/CMSIS/DSP/Include/arm_math.h ****    * @param[in]  pSrcA      points to the first input sequence.
2770:Core/Inc/../../Drivers/CMSIS/DSP/Include/arm_math.h ****    * @param[in]  srcALen    length of the first input sequence.
2771:Core/Inc/../../Drivers/CMSIS/DSP/Include/arm_math.h ****    * @param[in]  pSrcB      points to the second input sequence.
2772:Core/Inc/../../Drivers/CMSIS/DSP/Include/arm_math.h ****    * @param[in]  srcBLen    length of the second input sequence.
2773:Core/Inc/../../Drivers/CMSIS/DSP/Include/arm_math.h ****    * @param[out] pDst       points to the block of output data  Length srcALen+srcBLen-1.
2774:Core/Inc/../../Drivers/CMSIS/DSP/Include/arm_math.h ****    * @param[in]  pScratch1  points to scratch buffer of size max(srcALen, srcBLen) + 2*min(srcALen,
2775:Core/Inc/../../Drivers/CMSIS/DSP/Include/arm_math.h ****    * @param[in]  pScratch2  points to scratch buffer of size min(srcALen, srcBLen).
2776:Core/Inc/../../Drivers/CMSIS/DSP/Include/arm_math.h ****    */
2777:Core/Inc/../../Drivers/CMSIS/DSP/Include/arm_math.h ****   void arm_conv_opt_q15(
2778:Core/Inc/../../Drivers/CMSIS/DSP/Include/arm_math.h ****       q15_t *pSrcA,
2779:Core/Inc/../../Drivers/CMSIS/DSP/Include/arm_math.h ****       uint32_t srcALen,
2780:Core/Inc/../../Drivers/CMSIS/DSP/Include/arm_math.h ****       q15_t *pSrcB,
2781:Core/Inc/../../Drivers/CMSIS/DSP/Include/arm_math.h ****       uint32_t srcBLen,
2782:Core/Inc/../../Drivers/CMSIS/DSP/Include/arm_math.h ****       q15_t *pDst,
2783:Core/Inc/../../Drivers/CMSIS/DSP/Include/arm_math.h ****       q15_t *pScratch1,
2784:Core/Inc/../../Drivers/CMSIS/DSP/Include/arm_math.h ****       q15_t *pScratch2);
2785:Core/Inc/../../Drivers/CMSIS/DSP/Include/arm_math.h **** 
2786:Core/Inc/../../Drivers/CMSIS/DSP/Include/arm_math.h ****   /**
2787:Core/Inc/../../Drivers/CMSIS/DSP/Include/arm_math.h ****    * @brief Convolution of Q15 sequences.
2788:Core/Inc/../../Drivers/CMSIS/DSP/Include/arm_math.h ****    * @param[in]  pSrcA    points to the first input sequence.
2789:Core/Inc/../../Drivers/CMSIS/DSP/Include/arm_math.h ****    * @param[in]  srcALen  length of the first input sequence.
2790:Core/Inc/../../Drivers/CMSIS/DSP/Include/arm_math.h ****    * @param[in]  pSrcB    points to the second input sequence.
2791:Core/Inc/../../Drivers/CMSIS/DSP/Include/arm_math.h ****    * @param[in]  srcBLen  length of the second input sequence.
2792:Core/Inc/../../Drivers/CMSIS/DSP/Include/arm_math.h ****    * @param[out] pDst     points to the location where the output result is written.  Length srcALe
2793:Core/Inc/../../Drivers/CMSIS/DSP/Include/arm_math.h ****    */
2794:Core/Inc/../../Drivers/CMSIS/DSP/Include/arm_math.h ****   void arm_conv_q15(
2795:Core/Inc/../../Drivers/CMSIS/DSP/Include/arm_math.h ****       q15_t *pSrcA,
2796:Core/Inc/../../Drivers/CMSIS/DSP/Include/arm_math.h ****       uint32_t srcALen,
2797:Core/Inc/../../Drivers/CMSIS/DSP/Include/arm_math.h ****       q15_t *pSrcB,
2798:Core/Inc/../../Drivers/CMSIS/DSP/Include/arm_math.h ****       uint32_t srcBLen,
2799:Core/Inc/../../Drivers/CMSIS/DSP/Include/arm_math.h ****       q15_t *pDst);
2800:Core/Inc/../../Drivers/CMSIS/DSP/Include/arm_math.h **** 
2801:Core/Inc/../../Drivers/CMSIS/DSP/Include/arm_math.h ****   /**
2802:Core/Inc/../../Drivers/CMSIS/DSP/Include/arm_math.h ****    * @brief Convolution of Q15 sequences (fast version) for Cortex-M3 and Cortex-M4
2803:Core/Inc/../../Drivers/CMSIS/DSP/Include/arm_math.h ****    * @param[in]  pSrcA    points to the first input sequence.
2804:Core/Inc/../../Drivers/CMSIS/DSP/Include/arm_math.h ****    * @param[in]  srcALen  length of the first input sequence.
2805:Core/Inc/../../Drivers/CMSIS/DSP/Include/arm_math.h ****    * @param[in]  pSrcB    points to the second input sequence.
2806:Core/Inc/../../Drivers/CMSIS/DSP/Include/arm_math.h ****    * @param[in]  srcBLen  length of the second input sequence.
2807:Core/Inc/../../Drivers/CMSIS/DSP/Include/arm_math.h ****    * @param[out] pDst     points to the block of output data  Length srcALen+srcBLen-1.
2808:Core/Inc/../../Drivers/CMSIS/DSP/Include/arm_math.h ****    */
2809:Core/Inc/../../Drivers/CMSIS/DSP/Include/arm_math.h ****   void arm_conv_fast_q15(
2810:Core/Inc/../../Drivers/CMSIS/DSP/Include/arm_math.h ****       q15_t *pSrcA,
2811:Core/Inc/../../Drivers/CMSIS/DSP/Include/arm_math.h ****       uint32_t srcALen,
2812:Core/Inc/../../Drivers/CMSIS/DSP/Include/arm_math.h ****       q15_t *pSrcB,
2813:Core/Inc/../../Drivers/CMSIS/DSP/Include/arm_math.h ****       uint32_t srcBLen,
2814:Core/Inc/../../Drivers/CMSIS/DSP/Include/arm_math.h ****       q15_t *pDst);
2815:Core/Inc/../../Drivers/CMSIS/DSP/Include/arm_math.h **** 
2816:Core/Inc/../../Drivers/CMSIS/DSP/Include/arm_math.h ****   /**
2817:Core/Inc/../../Drivers/CMSIS/DSP/Include/arm_math.h ****    * @brief Convolution of Q15 sequences (fast version) for Cortex-M3 and Cortex-M4
2818:Core/Inc/../../Drivers/CMSIS/DSP/Include/arm_math.h ****    * @param[in]  pSrcA      points to the first input sequence.
2819:Core/Inc/../../Drivers/CMSIS/DSP/Include/arm_math.h ****    * @param[in]  srcALen    length of the first input sequence.
2820:Core/Inc/../../Drivers/CMSIS/DSP/Include/arm_math.h ****    * @param[in]  pSrcB      points to the second input sequence.
2821:Core/Inc/../../Drivers/CMSIS/DSP/Include/arm_math.h ****    * @param[in]  srcBLen    length of the second input sequence.
2822:Core/Inc/../../Drivers/CMSIS/DSP/Include/arm_math.h ****    * @param[out] pDst       points to the block of output data  Length srcALen+srcBLen-1.
2823:Core/Inc/../../Drivers/CMSIS/DSP/Include/arm_math.h ****    * @param[in]  pScratch1  points to scratch buffer of size max(srcALen, srcBLen) + 2*min(srcALen,
2824:Core/Inc/../../Drivers/CMSIS/DSP/Include/arm_math.h ****    * @param[in]  pScratch2  points to scratch buffer of size min(srcALen, srcBLen).
ARM GAS  /var/folders/n6/c271nzx11xl4r4_m7sqjlt0m0000gn/T//ccGo3Vqh.s 			page 78


2825:Core/Inc/../../Drivers/CMSIS/DSP/Include/arm_math.h ****    */
2826:Core/Inc/../../Drivers/CMSIS/DSP/Include/arm_math.h ****   void arm_conv_fast_opt_q15(
2827:Core/Inc/../../Drivers/CMSIS/DSP/Include/arm_math.h ****       q15_t *pSrcA,
2828:Core/Inc/../../Drivers/CMSIS/DSP/Include/arm_math.h ****       uint32_t srcALen,
2829:Core/Inc/../../Drivers/CMSIS/DSP/Include/arm_math.h ****       q15_t *pSrcB,
2830:Core/Inc/../../Drivers/CMSIS/DSP/Include/arm_math.h ****       uint32_t srcBLen,
2831:Core/Inc/../../Drivers/CMSIS/DSP/Include/arm_math.h ****       q15_t *pDst,
2832:Core/Inc/../../Drivers/CMSIS/DSP/Include/arm_math.h ****       q15_t *pScratch1,
2833:Core/Inc/../../Drivers/CMSIS/DSP/Include/arm_math.h ****       q15_t *pScratch2);
2834:Core/Inc/../../Drivers/CMSIS/DSP/Include/arm_math.h **** 
2835:Core/Inc/../../Drivers/CMSIS/DSP/Include/arm_math.h ****   /**
2836:Core/Inc/../../Drivers/CMSIS/DSP/Include/arm_math.h ****    * @brief Convolution of Q31 sequences.
2837:Core/Inc/../../Drivers/CMSIS/DSP/Include/arm_math.h ****    * @param[in]  pSrcA    points to the first input sequence.
2838:Core/Inc/../../Drivers/CMSIS/DSP/Include/arm_math.h ****    * @param[in]  srcALen  length of the first input sequence.
2839:Core/Inc/../../Drivers/CMSIS/DSP/Include/arm_math.h ****    * @param[in]  pSrcB    points to the second input sequence.
2840:Core/Inc/../../Drivers/CMSIS/DSP/Include/arm_math.h ****    * @param[in]  srcBLen  length of the second input sequence.
2841:Core/Inc/../../Drivers/CMSIS/DSP/Include/arm_math.h ****    * @param[out] pDst     points to the block of output data  Length srcALen+srcBLen-1.
2842:Core/Inc/../../Drivers/CMSIS/DSP/Include/arm_math.h ****    */
2843:Core/Inc/../../Drivers/CMSIS/DSP/Include/arm_math.h ****   void arm_conv_q31(
2844:Core/Inc/../../Drivers/CMSIS/DSP/Include/arm_math.h ****       q31_t *pSrcA,
2845:Core/Inc/../../Drivers/CMSIS/DSP/Include/arm_math.h ****       uint32_t srcALen,
2846:Core/Inc/../../Drivers/CMSIS/DSP/Include/arm_math.h ****       q31_t *pSrcB,
2847:Core/Inc/../../Drivers/CMSIS/DSP/Include/arm_math.h ****       uint32_t srcBLen,
2848:Core/Inc/../../Drivers/CMSIS/DSP/Include/arm_math.h ****       q31_t *pDst);
2849:Core/Inc/../../Drivers/CMSIS/DSP/Include/arm_math.h **** 
2850:Core/Inc/../../Drivers/CMSIS/DSP/Include/arm_math.h ****   /**
2851:Core/Inc/../../Drivers/CMSIS/DSP/Include/arm_math.h ****    * @brief Convolution of Q31 sequences (fast version) for Cortex-M3 and Cortex-M4
2852:Core/Inc/../../Drivers/CMSIS/DSP/Include/arm_math.h ****    * @param[in]  pSrcA    points to the first input sequence.
2853:Core/Inc/../../Drivers/CMSIS/DSP/Include/arm_math.h ****    * @param[in]  srcALen  length of the first input sequence.
2854:Core/Inc/../../Drivers/CMSIS/DSP/Include/arm_math.h ****    * @param[in]  pSrcB    points to the second input sequence.
2855:Core/Inc/../../Drivers/CMSIS/DSP/Include/arm_math.h ****    * @param[in]  srcBLen  length of the second input sequence.
2856:Core/Inc/../../Drivers/CMSIS/DSP/Include/arm_math.h ****    * @param[out] pDst     points to the block of output data  Length srcALen+srcBLen-1.
2857:Core/Inc/../../Drivers/CMSIS/DSP/Include/arm_math.h ****    */
2858:Core/Inc/../../Drivers/CMSIS/DSP/Include/arm_math.h ****   void arm_conv_fast_q31(
2859:Core/Inc/../../Drivers/CMSIS/DSP/Include/arm_math.h ****       q31_t *pSrcA,
2860:Core/Inc/../../Drivers/CMSIS/DSP/Include/arm_math.h ****       uint32_t srcALen,
2861:Core/Inc/../../Drivers/CMSIS/DSP/Include/arm_math.h ****       q31_t *pSrcB,
2862:Core/Inc/../../Drivers/CMSIS/DSP/Include/arm_math.h ****       uint32_t srcBLen,
2863:Core/Inc/../../Drivers/CMSIS/DSP/Include/arm_math.h ****       q31_t *pDst);
2864:Core/Inc/../../Drivers/CMSIS/DSP/Include/arm_math.h **** 
2865:Core/Inc/../../Drivers/CMSIS/DSP/Include/arm_math.h ****   /**
2866:Core/Inc/../../Drivers/CMSIS/DSP/Include/arm_math.h ****    * @brief Convolution of Q7 sequences.
2867:Core/Inc/../../Drivers/CMSIS/DSP/Include/arm_math.h ****    * @param[in]  pSrcA      points to the first input sequence.
2868:Core/Inc/../../Drivers/CMSIS/DSP/Include/arm_math.h ****    * @param[in]  srcALen    length of the first input sequence.
2869:Core/Inc/../../Drivers/CMSIS/DSP/Include/arm_math.h ****    * @param[in]  pSrcB      points to the second input sequence.
2870:Core/Inc/../../Drivers/CMSIS/DSP/Include/arm_math.h ****    * @param[in]  srcBLen    length of the second input sequence.
2871:Core/Inc/../../Drivers/CMSIS/DSP/Include/arm_math.h ****    * @param[out] pDst       points to the block of output data  Length srcALen+srcBLen-1.
2872:Core/Inc/../../Drivers/CMSIS/DSP/Include/arm_math.h ****    * @param[in]  pScratch1  points to scratch buffer(of type q15_t) of size max(srcALen, srcBLen) +
2873:Core/Inc/../../Drivers/CMSIS/DSP/Include/arm_math.h ****    * @param[in]  pScratch2  points to scratch buffer (of type q15_t) of size min(srcALen, srcBLen).
2874:Core/Inc/../../Drivers/CMSIS/DSP/Include/arm_math.h ****    */
2875:Core/Inc/../../Drivers/CMSIS/DSP/Include/arm_math.h ****   void arm_conv_opt_q7(
2876:Core/Inc/../../Drivers/CMSIS/DSP/Include/arm_math.h ****       q7_t *pSrcA,
2877:Core/Inc/../../Drivers/CMSIS/DSP/Include/arm_math.h ****       uint32_t srcALen,
2878:Core/Inc/../../Drivers/CMSIS/DSP/Include/arm_math.h ****       q7_t *pSrcB,
2879:Core/Inc/../../Drivers/CMSIS/DSP/Include/arm_math.h ****       uint32_t srcBLen,
2880:Core/Inc/../../Drivers/CMSIS/DSP/Include/arm_math.h ****       q7_t *pDst,
2881:Core/Inc/../../Drivers/CMSIS/DSP/Include/arm_math.h ****       q15_t *pScratch1,
ARM GAS  /var/folders/n6/c271nzx11xl4r4_m7sqjlt0m0000gn/T//ccGo3Vqh.s 			page 79


2882:Core/Inc/../../Drivers/CMSIS/DSP/Include/arm_math.h ****       q15_t *pScratch2);
2883:Core/Inc/../../Drivers/CMSIS/DSP/Include/arm_math.h **** 
2884:Core/Inc/../../Drivers/CMSIS/DSP/Include/arm_math.h ****   /**
2885:Core/Inc/../../Drivers/CMSIS/DSP/Include/arm_math.h ****    * @brief Convolution of Q7 sequences.
2886:Core/Inc/../../Drivers/CMSIS/DSP/Include/arm_math.h ****    * @param[in]  pSrcA    points to the first input sequence.
2887:Core/Inc/../../Drivers/CMSIS/DSP/Include/arm_math.h ****    * @param[in]  srcALen  length of the first input sequence.
2888:Core/Inc/../../Drivers/CMSIS/DSP/Include/arm_math.h ****    * @param[in]  pSrcB    points to the second input sequence.
2889:Core/Inc/../../Drivers/CMSIS/DSP/Include/arm_math.h ****    * @param[in]  srcBLen  length of the second input sequence.
2890:Core/Inc/../../Drivers/CMSIS/DSP/Include/arm_math.h ****    * @param[out] pDst     points to the block of output data  Length srcALen+srcBLen-1.
2891:Core/Inc/../../Drivers/CMSIS/DSP/Include/arm_math.h ****    */
2892:Core/Inc/../../Drivers/CMSIS/DSP/Include/arm_math.h ****   void arm_conv_q7(
2893:Core/Inc/../../Drivers/CMSIS/DSP/Include/arm_math.h ****       q7_t *pSrcA,
2894:Core/Inc/../../Drivers/CMSIS/DSP/Include/arm_math.h ****       uint32_t srcALen,
2895:Core/Inc/../../Drivers/CMSIS/DSP/Include/arm_math.h ****       q7_t *pSrcB,
2896:Core/Inc/../../Drivers/CMSIS/DSP/Include/arm_math.h ****       uint32_t srcBLen,
2897:Core/Inc/../../Drivers/CMSIS/DSP/Include/arm_math.h ****       q7_t *pDst);
2898:Core/Inc/../../Drivers/CMSIS/DSP/Include/arm_math.h **** 
2899:Core/Inc/../../Drivers/CMSIS/DSP/Include/arm_math.h ****   /**
2900:Core/Inc/../../Drivers/CMSIS/DSP/Include/arm_math.h ****    * @brief Partial convolution of floating-point sequences.
2901:Core/Inc/../../Drivers/CMSIS/DSP/Include/arm_math.h ****    * @param[in]  pSrcA       points to the first input sequence.
2902:Core/Inc/../../Drivers/CMSIS/DSP/Include/arm_math.h ****    * @param[in]  srcALen     length of the first input sequence.
2903:Core/Inc/../../Drivers/CMSIS/DSP/Include/arm_math.h ****    * @param[in]  pSrcB       points to the second input sequence.
2904:Core/Inc/../../Drivers/CMSIS/DSP/Include/arm_math.h ****    * @param[in]  srcBLen     length of the second input sequence.
2905:Core/Inc/../../Drivers/CMSIS/DSP/Include/arm_math.h ****    * @param[out] pDst        points to the block of output data
2906:Core/Inc/../../Drivers/CMSIS/DSP/Include/arm_math.h ****    * @param[in]  firstIndex  is the first output sample to start with.
2907:Core/Inc/../../Drivers/CMSIS/DSP/Include/arm_math.h ****    * @param[in]  numPoints   is the number of output points to be computed.
2908:Core/Inc/../../Drivers/CMSIS/DSP/Include/arm_math.h ****    * @return  Returns either ARM_MATH_SUCCESS if the function completed correctly or ARM_MATH_ARGUM
2909:Core/Inc/../../Drivers/CMSIS/DSP/Include/arm_math.h ****    */
2910:Core/Inc/../../Drivers/CMSIS/DSP/Include/arm_math.h ****   arm_status arm_conv_partial_f32(
2911:Core/Inc/../../Drivers/CMSIS/DSP/Include/arm_math.h ****       float32_t *pSrcA,
2912:Core/Inc/../../Drivers/CMSIS/DSP/Include/arm_math.h ****       uint32_t srcALen,
2913:Core/Inc/../../Drivers/CMSIS/DSP/Include/arm_math.h ****       float32_t *pSrcB,
2914:Core/Inc/../../Drivers/CMSIS/DSP/Include/arm_math.h ****       uint32_t srcBLen,
2915:Core/Inc/../../Drivers/CMSIS/DSP/Include/arm_math.h ****       float32_t *pDst,
2916:Core/Inc/../../Drivers/CMSIS/DSP/Include/arm_math.h ****       uint32_t firstIndex,
2917:Core/Inc/../../Drivers/CMSIS/DSP/Include/arm_math.h ****       uint32_t numPoints);
2918:Core/Inc/../../Drivers/CMSIS/DSP/Include/arm_math.h **** 
2919:Core/Inc/../../Drivers/CMSIS/DSP/Include/arm_math.h ****   /**
2920:Core/Inc/../../Drivers/CMSIS/DSP/Include/arm_math.h ****    * @brief Partial convolution of Q15 sequences.
2921:Core/Inc/../../Drivers/CMSIS/DSP/Include/arm_math.h ****    * @param[in]  pSrcA       points to the first input sequence.
2922:Core/Inc/../../Drivers/CMSIS/DSP/Include/arm_math.h ****    * @param[in]  srcALen     length of the first input sequence.
2923:Core/Inc/../../Drivers/CMSIS/DSP/Include/arm_math.h ****    * @param[in]  pSrcB       points to the second input sequence.
2924:Core/Inc/../../Drivers/CMSIS/DSP/Include/arm_math.h ****    * @param[in]  srcBLen     length of the second input sequence.
2925:Core/Inc/../../Drivers/CMSIS/DSP/Include/arm_math.h ****    * @param[out] pDst        points to the block of output data
2926:Core/Inc/../../Drivers/CMSIS/DSP/Include/arm_math.h ****    * @param[in]  firstIndex  is the first output sample to start with.
2927:Core/Inc/../../Drivers/CMSIS/DSP/Include/arm_math.h ****    * @param[in]  numPoints   is the number of output points to be computed.
2928:Core/Inc/../../Drivers/CMSIS/DSP/Include/arm_math.h ****    * @param[in]  pScratch1   points to scratch buffer of size max(srcALen, srcBLen) + 2*min(srcALen
2929:Core/Inc/../../Drivers/CMSIS/DSP/Include/arm_math.h ****    * @param[in]  pScratch2   points to scratch buffer of size min(srcALen, srcBLen).
2930:Core/Inc/../../Drivers/CMSIS/DSP/Include/arm_math.h ****    * @return  Returns either ARM_MATH_SUCCESS if the function completed correctly or ARM_MATH_ARGUM
2931:Core/Inc/../../Drivers/CMSIS/DSP/Include/arm_math.h ****    */
2932:Core/Inc/../../Drivers/CMSIS/DSP/Include/arm_math.h ****   arm_status arm_conv_partial_opt_q15(
2933:Core/Inc/../../Drivers/CMSIS/DSP/Include/arm_math.h ****       q15_t *pSrcA,
2934:Core/Inc/../../Drivers/CMSIS/DSP/Include/arm_math.h ****       uint32_t srcALen,
2935:Core/Inc/../../Drivers/CMSIS/DSP/Include/arm_math.h ****       q15_t *pSrcB,
2936:Core/Inc/../../Drivers/CMSIS/DSP/Include/arm_math.h ****       uint32_t srcBLen,
2937:Core/Inc/../../Drivers/CMSIS/DSP/Include/arm_math.h ****       q15_t *pDst,
2938:Core/Inc/../../Drivers/CMSIS/DSP/Include/arm_math.h ****       uint32_t firstIndex,
ARM GAS  /var/folders/n6/c271nzx11xl4r4_m7sqjlt0m0000gn/T//ccGo3Vqh.s 			page 80


2939:Core/Inc/../../Drivers/CMSIS/DSP/Include/arm_math.h ****       uint32_t numPoints,
2940:Core/Inc/../../Drivers/CMSIS/DSP/Include/arm_math.h ****       q15_t *pScratch1,
2941:Core/Inc/../../Drivers/CMSIS/DSP/Include/arm_math.h ****       q15_t *pScratch2);
2942:Core/Inc/../../Drivers/CMSIS/DSP/Include/arm_math.h **** 
2943:Core/Inc/../../Drivers/CMSIS/DSP/Include/arm_math.h ****   /**
2944:Core/Inc/../../Drivers/CMSIS/DSP/Include/arm_math.h ****    * @brief Partial convolution of Q15 sequences.
2945:Core/Inc/../../Drivers/CMSIS/DSP/Include/arm_math.h ****    * @param[in]  pSrcA       points to the first input sequence.
2946:Core/Inc/../../Drivers/CMSIS/DSP/Include/arm_math.h ****    * @param[in]  srcALen     length of the first input sequence.
2947:Core/Inc/../../Drivers/CMSIS/DSP/Include/arm_math.h ****    * @param[in]  pSrcB       points to the second input sequence.
2948:Core/Inc/../../Drivers/CMSIS/DSP/Include/arm_math.h ****    * @param[in]  srcBLen     length of the second input sequence.
2949:Core/Inc/../../Drivers/CMSIS/DSP/Include/arm_math.h ****    * @param[out] pDst        points to the block of output data
2950:Core/Inc/../../Drivers/CMSIS/DSP/Include/arm_math.h ****    * @param[in]  firstIndex  is the first output sample to start with.
2951:Core/Inc/../../Drivers/CMSIS/DSP/Include/arm_math.h ****    * @param[in]  numPoints   is the number of output points to be computed.
2952:Core/Inc/../../Drivers/CMSIS/DSP/Include/arm_math.h ****    * @return  Returns either ARM_MATH_SUCCESS if the function completed correctly or ARM_MATH_ARGUM
2953:Core/Inc/../../Drivers/CMSIS/DSP/Include/arm_math.h ****    */
2954:Core/Inc/../../Drivers/CMSIS/DSP/Include/arm_math.h ****   arm_status arm_conv_partial_q15(
2955:Core/Inc/../../Drivers/CMSIS/DSP/Include/arm_math.h ****       q15_t *pSrcA,
2956:Core/Inc/../../Drivers/CMSIS/DSP/Include/arm_math.h ****       uint32_t srcALen,
2957:Core/Inc/../../Drivers/CMSIS/DSP/Include/arm_math.h ****       q15_t *pSrcB,
2958:Core/Inc/../../Drivers/CMSIS/DSP/Include/arm_math.h ****       uint32_t srcBLen,
2959:Core/Inc/../../Drivers/CMSIS/DSP/Include/arm_math.h ****       q15_t *pDst,
2960:Core/Inc/../../Drivers/CMSIS/DSP/Include/arm_math.h ****       uint32_t firstIndex,
2961:Core/Inc/../../Drivers/CMSIS/DSP/Include/arm_math.h ****       uint32_t numPoints);
2962:Core/Inc/../../Drivers/CMSIS/DSP/Include/arm_math.h **** 
2963:Core/Inc/../../Drivers/CMSIS/DSP/Include/arm_math.h ****   /**
2964:Core/Inc/../../Drivers/CMSIS/DSP/Include/arm_math.h ****    * @brief Partial convolution of Q15 sequences (fast version) for Cortex-M3 and Cortex-M4
2965:Core/Inc/../../Drivers/CMSIS/DSP/Include/arm_math.h ****    * @param[in]  pSrcA       points to the first input sequence.
2966:Core/Inc/../../Drivers/CMSIS/DSP/Include/arm_math.h ****    * @param[in]  srcALen     length of the first input sequence.
2967:Core/Inc/../../Drivers/CMSIS/DSP/Include/arm_math.h ****    * @param[in]  pSrcB       points to the second input sequence.
2968:Core/Inc/../../Drivers/CMSIS/DSP/Include/arm_math.h ****    * @param[in]  srcBLen     length of the second input sequence.
2969:Core/Inc/../../Drivers/CMSIS/DSP/Include/arm_math.h ****    * @param[out] pDst        points to the block of output data
2970:Core/Inc/../../Drivers/CMSIS/DSP/Include/arm_math.h ****    * @param[in]  firstIndex  is the first output sample to start with.
2971:Core/Inc/../../Drivers/CMSIS/DSP/Include/arm_math.h ****    * @param[in]  numPoints   is the number of output points to be computed.
2972:Core/Inc/../../Drivers/CMSIS/DSP/Include/arm_math.h ****    * @return  Returns either ARM_MATH_SUCCESS if the function completed correctly or ARM_MATH_ARGUM
2973:Core/Inc/../../Drivers/CMSIS/DSP/Include/arm_math.h ****    */
2974:Core/Inc/../../Drivers/CMSIS/DSP/Include/arm_math.h ****   arm_status arm_conv_partial_fast_q15(
2975:Core/Inc/../../Drivers/CMSIS/DSP/Include/arm_math.h ****       q15_t *pSrcA,
2976:Core/Inc/../../Drivers/CMSIS/DSP/Include/arm_math.h ****       uint32_t srcALen,
2977:Core/Inc/../../Drivers/CMSIS/DSP/Include/arm_math.h ****       q15_t *pSrcB,
2978:Core/Inc/../../Drivers/CMSIS/DSP/Include/arm_math.h ****       uint32_t srcBLen,
2979:Core/Inc/../../Drivers/CMSIS/DSP/Include/arm_math.h ****       q15_t *pDst,
2980:Core/Inc/../../Drivers/CMSIS/DSP/Include/arm_math.h ****       uint32_t firstIndex,
2981:Core/Inc/../../Drivers/CMSIS/DSP/Include/arm_math.h ****       uint32_t numPoints);
2982:Core/Inc/../../Drivers/CMSIS/DSP/Include/arm_math.h **** 
2983:Core/Inc/../../Drivers/CMSIS/DSP/Include/arm_math.h ****   /**
2984:Core/Inc/../../Drivers/CMSIS/DSP/Include/arm_math.h ****    * @brief Partial convolution of Q15 sequences (fast version) for Cortex-M3 and Cortex-M4
2985:Core/Inc/../../Drivers/CMSIS/DSP/Include/arm_math.h ****    * @param[in]  pSrcA       points to the first input sequence.
2986:Core/Inc/../../Drivers/CMSIS/DSP/Include/arm_math.h ****    * @param[in]  srcALen     length of the first input sequence.
2987:Core/Inc/../../Drivers/CMSIS/DSP/Include/arm_math.h ****    * @param[in]  pSrcB       points to the second input sequence.
2988:Core/Inc/../../Drivers/CMSIS/DSP/Include/arm_math.h ****    * @param[in]  srcBLen     length of the second input sequence.
2989:Core/Inc/../../Drivers/CMSIS/DSP/Include/arm_math.h ****    * @param[out] pDst        points to the block of output data
2990:Core/Inc/../../Drivers/CMSIS/DSP/Include/arm_math.h ****    * @param[in]  firstIndex  is the first output sample to start with.
2991:Core/Inc/../../Drivers/CMSIS/DSP/Include/arm_math.h ****    * @param[in]  numPoints   is the number of output points to be computed.
2992:Core/Inc/../../Drivers/CMSIS/DSP/Include/arm_math.h ****    * @param[in]  pScratch1   points to scratch buffer of size max(srcALen, srcBLen) + 2*min(srcALen
2993:Core/Inc/../../Drivers/CMSIS/DSP/Include/arm_math.h ****    * @param[in]  pScratch2   points to scratch buffer of size min(srcALen, srcBLen).
2994:Core/Inc/../../Drivers/CMSIS/DSP/Include/arm_math.h ****    * @return  Returns either ARM_MATH_SUCCESS if the function completed correctly or ARM_MATH_ARGUM
2995:Core/Inc/../../Drivers/CMSIS/DSP/Include/arm_math.h ****    */
ARM GAS  /var/folders/n6/c271nzx11xl4r4_m7sqjlt0m0000gn/T//ccGo3Vqh.s 			page 81


2996:Core/Inc/../../Drivers/CMSIS/DSP/Include/arm_math.h ****   arm_status arm_conv_partial_fast_opt_q15(
2997:Core/Inc/../../Drivers/CMSIS/DSP/Include/arm_math.h ****       q15_t *pSrcA,
2998:Core/Inc/../../Drivers/CMSIS/DSP/Include/arm_math.h ****       uint32_t srcALen,
2999:Core/Inc/../../Drivers/CMSIS/DSP/Include/arm_math.h ****       q15_t *pSrcB,
3000:Core/Inc/../../Drivers/CMSIS/DSP/Include/arm_math.h ****       uint32_t srcBLen,
3001:Core/Inc/../../Drivers/CMSIS/DSP/Include/arm_math.h ****       q15_t *pDst,
3002:Core/Inc/../../Drivers/CMSIS/DSP/Include/arm_math.h ****       uint32_t firstIndex,
3003:Core/Inc/../../Drivers/CMSIS/DSP/Include/arm_math.h ****       uint32_t numPoints,
3004:Core/Inc/../../Drivers/CMSIS/DSP/Include/arm_math.h ****       q15_t *pScratch1,
3005:Core/Inc/../../Drivers/CMSIS/DSP/Include/arm_math.h ****       q15_t *pScratch2);
3006:Core/Inc/../../Drivers/CMSIS/DSP/Include/arm_math.h **** 
3007:Core/Inc/../../Drivers/CMSIS/DSP/Include/arm_math.h ****   /**
3008:Core/Inc/../../Drivers/CMSIS/DSP/Include/arm_math.h ****    * @brief Partial convolution of Q31 sequences.
3009:Core/Inc/../../Drivers/CMSIS/DSP/Include/arm_math.h ****    * @param[in]  pSrcA       points to the first input sequence.
3010:Core/Inc/../../Drivers/CMSIS/DSP/Include/arm_math.h ****    * @param[in]  srcALen     length of the first input sequence.
3011:Core/Inc/../../Drivers/CMSIS/DSP/Include/arm_math.h ****    * @param[in]  pSrcB       points to the second input sequence.
3012:Core/Inc/../../Drivers/CMSIS/DSP/Include/arm_math.h ****    * @param[in]  srcBLen     length of the second input sequence.
3013:Core/Inc/../../Drivers/CMSIS/DSP/Include/arm_math.h ****    * @param[out] pDst        points to the block of output data
3014:Core/Inc/../../Drivers/CMSIS/DSP/Include/arm_math.h ****    * @param[in]  firstIndex  is the first output sample to start with.
3015:Core/Inc/../../Drivers/CMSIS/DSP/Include/arm_math.h ****    * @param[in]  numPoints   is the number of output points to be computed.
3016:Core/Inc/../../Drivers/CMSIS/DSP/Include/arm_math.h ****    * @return  Returns either ARM_MATH_SUCCESS if the function completed correctly or ARM_MATH_ARGUM
3017:Core/Inc/../../Drivers/CMSIS/DSP/Include/arm_math.h ****    */
3018:Core/Inc/../../Drivers/CMSIS/DSP/Include/arm_math.h ****   arm_status arm_conv_partial_q31(
3019:Core/Inc/../../Drivers/CMSIS/DSP/Include/arm_math.h ****       q31_t *pSrcA,
3020:Core/Inc/../../Drivers/CMSIS/DSP/Include/arm_math.h ****       uint32_t srcALen,
3021:Core/Inc/../../Drivers/CMSIS/DSP/Include/arm_math.h ****       q31_t *pSrcB,
3022:Core/Inc/../../Drivers/CMSIS/DSP/Include/arm_math.h ****       uint32_t srcBLen,
3023:Core/Inc/../../Drivers/CMSIS/DSP/Include/arm_math.h ****       q31_t *pDst,
3024:Core/Inc/../../Drivers/CMSIS/DSP/Include/arm_math.h ****       uint32_t firstIndex,
3025:Core/Inc/../../Drivers/CMSIS/DSP/Include/arm_math.h ****       uint32_t numPoints);
3026:Core/Inc/../../Drivers/CMSIS/DSP/Include/arm_math.h **** 
3027:Core/Inc/../../Drivers/CMSIS/DSP/Include/arm_math.h ****   /**
3028:Core/Inc/../../Drivers/CMSIS/DSP/Include/arm_math.h ****    * @brief Partial convolution of Q31 sequences (fast version) for Cortex-M3 and Cortex-M4
3029:Core/Inc/../../Drivers/CMSIS/DSP/Include/arm_math.h ****    * @param[in]  pSrcA       points to the first input sequence.
3030:Core/Inc/../../Drivers/CMSIS/DSP/Include/arm_math.h ****    * @param[in]  srcALen     length of the first input sequence.
3031:Core/Inc/../../Drivers/CMSIS/DSP/Include/arm_math.h ****    * @param[in]  pSrcB       points to the second input sequence.
3032:Core/Inc/../../Drivers/CMSIS/DSP/Include/arm_math.h ****    * @param[in]  srcBLen     length of the second input sequence.
3033:Core/Inc/../../Drivers/CMSIS/DSP/Include/arm_math.h ****    * @param[out] pDst        points to the block of output data
3034:Core/Inc/../../Drivers/CMSIS/DSP/Include/arm_math.h ****    * @param[in]  firstIndex  is the first output sample to start with.
3035:Core/Inc/../../Drivers/CMSIS/DSP/Include/arm_math.h ****    * @param[in]  numPoints   is the number of output points to be computed.
3036:Core/Inc/../../Drivers/CMSIS/DSP/Include/arm_math.h ****    * @return  Returns either ARM_MATH_SUCCESS if the function completed correctly or ARM_MATH_ARGUM
3037:Core/Inc/../../Drivers/CMSIS/DSP/Include/arm_math.h ****    */
3038:Core/Inc/../../Drivers/CMSIS/DSP/Include/arm_math.h ****   arm_status arm_conv_partial_fast_q31(
3039:Core/Inc/../../Drivers/CMSIS/DSP/Include/arm_math.h ****       q31_t *pSrcA,
3040:Core/Inc/../../Drivers/CMSIS/DSP/Include/arm_math.h ****       uint32_t srcALen,
3041:Core/Inc/../../Drivers/CMSIS/DSP/Include/arm_math.h ****       q31_t *pSrcB,
3042:Core/Inc/../../Drivers/CMSIS/DSP/Include/arm_math.h ****       uint32_t srcBLen,
3043:Core/Inc/../../Drivers/CMSIS/DSP/Include/arm_math.h ****       q31_t *pDst,
3044:Core/Inc/../../Drivers/CMSIS/DSP/Include/arm_math.h ****       uint32_t firstIndex,
3045:Core/Inc/../../Drivers/CMSIS/DSP/Include/arm_math.h ****       uint32_t numPoints);
3046:Core/Inc/../../Drivers/CMSIS/DSP/Include/arm_math.h **** 
3047:Core/Inc/../../Drivers/CMSIS/DSP/Include/arm_math.h ****   /**
3048:Core/Inc/../../Drivers/CMSIS/DSP/Include/arm_math.h ****    * @brief Partial convolution of Q7 sequences
3049:Core/Inc/../../Drivers/CMSIS/DSP/Include/arm_math.h ****    * @param[in]  pSrcA       points to the first input sequence.
3050:Core/Inc/../../Drivers/CMSIS/DSP/Include/arm_math.h ****    * @param[in]  srcALen     length of the first input sequence.
3051:Core/Inc/../../Drivers/CMSIS/DSP/Include/arm_math.h ****    * @param[in]  pSrcB       points to the second input sequence.
3052:Core/Inc/../../Drivers/CMSIS/DSP/Include/arm_math.h ****    * @param[in]  srcBLen     length of the second input sequence.
ARM GAS  /var/folders/n6/c271nzx11xl4r4_m7sqjlt0m0000gn/T//ccGo3Vqh.s 			page 82


3053:Core/Inc/../../Drivers/CMSIS/DSP/Include/arm_math.h ****    * @param[out] pDst        points to the block of output data
3054:Core/Inc/../../Drivers/CMSIS/DSP/Include/arm_math.h ****    * @param[in]  firstIndex  is the first output sample to start with.
3055:Core/Inc/../../Drivers/CMSIS/DSP/Include/arm_math.h ****    * @param[in]  numPoints   is the number of output points to be computed.
3056:Core/Inc/../../Drivers/CMSIS/DSP/Include/arm_math.h ****    * @param[in]  pScratch1   points to scratch buffer(of type q15_t) of size max(srcALen, srcBLen) 
3057:Core/Inc/../../Drivers/CMSIS/DSP/Include/arm_math.h ****    * @param[in]  pScratch2   points to scratch buffer (of type q15_t) of size min(srcALen, srcBLen)
3058:Core/Inc/../../Drivers/CMSIS/DSP/Include/arm_math.h ****    * @return  Returns either ARM_MATH_SUCCESS if the function completed correctly or ARM_MATH_ARGUM
3059:Core/Inc/../../Drivers/CMSIS/DSP/Include/arm_math.h ****    */
3060:Core/Inc/../../Drivers/CMSIS/DSP/Include/arm_math.h ****   arm_status arm_conv_partial_opt_q7(
3061:Core/Inc/../../Drivers/CMSIS/DSP/Include/arm_math.h ****       q7_t *pSrcA,
3062:Core/Inc/../../Drivers/CMSIS/DSP/Include/arm_math.h ****       uint32_t srcALen,
3063:Core/Inc/../../Drivers/CMSIS/DSP/Include/arm_math.h ****       q7_t *pSrcB,
3064:Core/Inc/../../Drivers/CMSIS/DSP/Include/arm_math.h ****       uint32_t srcBLen,
3065:Core/Inc/../../Drivers/CMSIS/DSP/Include/arm_math.h ****       q7_t *pDst,
3066:Core/Inc/../../Drivers/CMSIS/DSP/Include/arm_math.h ****       uint32_t firstIndex,
3067:Core/Inc/../../Drivers/CMSIS/DSP/Include/arm_math.h ****       uint32_t numPoints,
3068:Core/Inc/../../Drivers/CMSIS/DSP/Include/arm_math.h ****       q15_t *pScratch1,
3069:Core/Inc/../../Drivers/CMSIS/DSP/Include/arm_math.h ****       q15_t *pScratch2);
3070:Core/Inc/../../Drivers/CMSIS/DSP/Include/arm_math.h **** 
3071:Core/Inc/../../Drivers/CMSIS/DSP/Include/arm_math.h ****   /**
3072:Core/Inc/../../Drivers/CMSIS/DSP/Include/arm_math.h ****    * @brief Partial convolution of Q7 sequences.
3073:Core/Inc/../../Drivers/CMSIS/DSP/Include/arm_math.h ****    * @param[in]  pSrcA       points to the first input sequence.
3074:Core/Inc/../../Drivers/CMSIS/DSP/Include/arm_math.h ****    * @param[in]  srcALen     length of the first input sequence.
3075:Core/Inc/../../Drivers/CMSIS/DSP/Include/arm_math.h ****    * @param[in]  pSrcB       points to the second input sequence.
3076:Core/Inc/../../Drivers/CMSIS/DSP/Include/arm_math.h ****    * @param[in]  srcBLen     length of the second input sequence.
3077:Core/Inc/../../Drivers/CMSIS/DSP/Include/arm_math.h ****    * @param[out] pDst        points to the block of output data
3078:Core/Inc/../../Drivers/CMSIS/DSP/Include/arm_math.h ****    * @param[in]  firstIndex  is the first output sample to start with.
3079:Core/Inc/../../Drivers/CMSIS/DSP/Include/arm_math.h ****    * @param[in]  numPoints   is the number of output points to be computed.
3080:Core/Inc/../../Drivers/CMSIS/DSP/Include/arm_math.h ****    * @return  Returns either ARM_MATH_SUCCESS if the function completed correctly or ARM_MATH_ARGUM
3081:Core/Inc/../../Drivers/CMSIS/DSP/Include/arm_math.h ****    */
3082:Core/Inc/../../Drivers/CMSIS/DSP/Include/arm_math.h ****   arm_status arm_conv_partial_q7(
3083:Core/Inc/../../Drivers/CMSIS/DSP/Include/arm_math.h ****       q7_t *pSrcA,
3084:Core/Inc/../../Drivers/CMSIS/DSP/Include/arm_math.h ****       uint32_t srcALen,
3085:Core/Inc/../../Drivers/CMSIS/DSP/Include/arm_math.h ****       q7_t *pSrcB,
3086:Core/Inc/../../Drivers/CMSIS/DSP/Include/arm_math.h ****       uint32_t srcBLen,
3087:Core/Inc/../../Drivers/CMSIS/DSP/Include/arm_math.h ****       q7_t *pDst,
3088:Core/Inc/../../Drivers/CMSIS/DSP/Include/arm_math.h ****       uint32_t firstIndex,
3089:Core/Inc/../../Drivers/CMSIS/DSP/Include/arm_math.h ****       uint32_t numPoints);
3090:Core/Inc/../../Drivers/CMSIS/DSP/Include/arm_math.h **** 
3091:Core/Inc/../../Drivers/CMSIS/DSP/Include/arm_math.h ****   /**
3092:Core/Inc/../../Drivers/CMSIS/DSP/Include/arm_math.h ****    * @brief Instance structure for the Q15 FIR decimator.
3093:Core/Inc/../../Drivers/CMSIS/DSP/Include/arm_math.h ****    */
3094:Core/Inc/../../Drivers/CMSIS/DSP/Include/arm_math.h ****   typedef struct
3095:Core/Inc/../../Drivers/CMSIS/DSP/Include/arm_math.h ****   {
3096:Core/Inc/../../Drivers/CMSIS/DSP/Include/arm_math.h ****     uint8_t M;        /**< decimation factor. */
3097:Core/Inc/../../Drivers/CMSIS/DSP/Include/arm_math.h ****     uint16_t numTaps; /**< number of coefficients in the filter. */
3098:Core/Inc/../../Drivers/CMSIS/DSP/Include/arm_math.h ****     q15_t *pCoeffs;   /**< points to the coefficient array. The array is of length numTaps.*/
3099:Core/Inc/../../Drivers/CMSIS/DSP/Include/arm_math.h ****     q15_t *pState;    /**< points to the state variable array. The array is of length numTaps+block
3100:Core/Inc/../../Drivers/CMSIS/DSP/Include/arm_math.h ****   } arm_fir_decimate_instance_q15;
3101:Core/Inc/../../Drivers/CMSIS/DSP/Include/arm_math.h **** 
3102:Core/Inc/../../Drivers/CMSIS/DSP/Include/arm_math.h ****   /**
3103:Core/Inc/../../Drivers/CMSIS/DSP/Include/arm_math.h ****    * @brief Instance structure for the Q31 FIR decimator.
3104:Core/Inc/../../Drivers/CMSIS/DSP/Include/arm_math.h ****    */
3105:Core/Inc/../../Drivers/CMSIS/DSP/Include/arm_math.h ****   typedef struct
3106:Core/Inc/../../Drivers/CMSIS/DSP/Include/arm_math.h ****   {
3107:Core/Inc/../../Drivers/CMSIS/DSP/Include/arm_math.h ****     uint8_t M;        /**< decimation factor. */
3108:Core/Inc/../../Drivers/CMSIS/DSP/Include/arm_math.h ****     uint16_t numTaps; /**< number of coefficients in the filter. */
3109:Core/Inc/../../Drivers/CMSIS/DSP/Include/arm_math.h ****     q31_t *pCoeffs;   /**< points to the coefficient array. The array is of length numTaps.*/
ARM GAS  /var/folders/n6/c271nzx11xl4r4_m7sqjlt0m0000gn/T//ccGo3Vqh.s 			page 83


3110:Core/Inc/../../Drivers/CMSIS/DSP/Include/arm_math.h ****     q31_t *pState;    /**< points to the state variable array. The array is of length numTaps+block
3111:Core/Inc/../../Drivers/CMSIS/DSP/Include/arm_math.h ****   } arm_fir_decimate_instance_q31;
3112:Core/Inc/../../Drivers/CMSIS/DSP/Include/arm_math.h **** 
3113:Core/Inc/../../Drivers/CMSIS/DSP/Include/arm_math.h ****   /**
3114:Core/Inc/../../Drivers/CMSIS/DSP/Include/arm_math.h ****    * @brief Instance structure for the floating-point FIR decimator.
3115:Core/Inc/../../Drivers/CMSIS/DSP/Include/arm_math.h ****    */
3116:Core/Inc/../../Drivers/CMSIS/DSP/Include/arm_math.h ****   typedef struct
3117:Core/Inc/../../Drivers/CMSIS/DSP/Include/arm_math.h ****   {
3118:Core/Inc/../../Drivers/CMSIS/DSP/Include/arm_math.h ****     uint8_t M;          /**< decimation factor. */
3119:Core/Inc/../../Drivers/CMSIS/DSP/Include/arm_math.h ****     uint16_t numTaps;   /**< number of coefficients in the filter. */
3120:Core/Inc/../../Drivers/CMSIS/DSP/Include/arm_math.h ****     float32_t *pCoeffs; /**< points to the coefficient array. The array is of length numTaps.*/
3121:Core/Inc/../../Drivers/CMSIS/DSP/Include/arm_math.h ****     float32_t *pState;  /**< points to the state variable array. The array is of length numTaps+blo
3122:Core/Inc/../../Drivers/CMSIS/DSP/Include/arm_math.h ****   } arm_fir_decimate_instance_f32;
3123:Core/Inc/../../Drivers/CMSIS/DSP/Include/arm_math.h **** 
3124:Core/Inc/../../Drivers/CMSIS/DSP/Include/arm_math.h ****   /**
3125:Core/Inc/../../Drivers/CMSIS/DSP/Include/arm_math.h ****    * @brief Processing function for the floating-point FIR decimator.
3126:Core/Inc/../../Drivers/CMSIS/DSP/Include/arm_math.h ****    * @param[in]  S          points to an instance of the floating-point FIR decimator structure.
3127:Core/Inc/../../Drivers/CMSIS/DSP/Include/arm_math.h ****    * @param[in]  pSrc       points to the block of input data.
3128:Core/Inc/../../Drivers/CMSIS/DSP/Include/arm_math.h ****    * @param[out] pDst       points to the block of output data
3129:Core/Inc/../../Drivers/CMSIS/DSP/Include/arm_math.h ****    * @param[in]  blockSize  number of input samples to process per call.
3130:Core/Inc/../../Drivers/CMSIS/DSP/Include/arm_math.h ****    */
3131:Core/Inc/../../Drivers/CMSIS/DSP/Include/arm_math.h ****   void arm_fir_decimate_f32(
3132:Core/Inc/../../Drivers/CMSIS/DSP/Include/arm_math.h ****       const arm_fir_decimate_instance_f32 *S,
3133:Core/Inc/../../Drivers/CMSIS/DSP/Include/arm_math.h ****       float32_t *pSrc,
3134:Core/Inc/../../Drivers/CMSIS/DSP/Include/arm_math.h ****       float32_t *pDst,
3135:Core/Inc/../../Drivers/CMSIS/DSP/Include/arm_math.h ****       uint32_t blockSize);
3136:Core/Inc/../../Drivers/CMSIS/DSP/Include/arm_math.h **** 
3137:Core/Inc/../../Drivers/CMSIS/DSP/Include/arm_math.h ****   /**
3138:Core/Inc/../../Drivers/CMSIS/DSP/Include/arm_math.h ****    * @brief  Initialization function for the floating-point FIR decimator.
3139:Core/Inc/../../Drivers/CMSIS/DSP/Include/arm_math.h ****    * @param[in,out] S          points to an instance of the floating-point FIR decimator structure.
3140:Core/Inc/../../Drivers/CMSIS/DSP/Include/arm_math.h ****    * @param[in]     numTaps    number of coefficients in the filter.
3141:Core/Inc/../../Drivers/CMSIS/DSP/Include/arm_math.h ****    * @param[in]     M          decimation factor.
3142:Core/Inc/../../Drivers/CMSIS/DSP/Include/arm_math.h ****    * @param[in]     pCoeffs    points to the filter coefficients.
3143:Core/Inc/../../Drivers/CMSIS/DSP/Include/arm_math.h ****    * @param[in]     pState     points to the state buffer.
3144:Core/Inc/../../Drivers/CMSIS/DSP/Include/arm_math.h ****    * @param[in]     blockSize  number of input samples to process per call.
3145:Core/Inc/../../Drivers/CMSIS/DSP/Include/arm_math.h ****    * @return    The function returns ARM_MATH_SUCCESS if initialization is successful or ARM_MATH_L
3146:Core/Inc/../../Drivers/CMSIS/DSP/Include/arm_math.h ****    * <code>blockSize</code> is not a multiple of <code>M</code>.
3147:Core/Inc/../../Drivers/CMSIS/DSP/Include/arm_math.h ****    */
3148:Core/Inc/../../Drivers/CMSIS/DSP/Include/arm_math.h ****   arm_status arm_fir_decimate_init_f32(
3149:Core/Inc/../../Drivers/CMSIS/DSP/Include/arm_math.h ****       arm_fir_decimate_instance_f32 *S,
3150:Core/Inc/../../Drivers/CMSIS/DSP/Include/arm_math.h ****       uint16_t numTaps,
3151:Core/Inc/../../Drivers/CMSIS/DSP/Include/arm_math.h ****       uint8_t M,
3152:Core/Inc/../../Drivers/CMSIS/DSP/Include/arm_math.h ****       float32_t *pCoeffs,
3153:Core/Inc/../../Drivers/CMSIS/DSP/Include/arm_math.h ****       float32_t *pState,
3154:Core/Inc/../../Drivers/CMSIS/DSP/Include/arm_math.h ****       uint32_t blockSize);
3155:Core/Inc/../../Drivers/CMSIS/DSP/Include/arm_math.h **** 
3156:Core/Inc/../../Drivers/CMSIS/DSP/Include/arm_math.h ****   /**
3157:Core/Inc/../../Drivers/CMSIS/DSP/Include/arm_math.h ****    * @brief Processing function for the Q15 FIR decimator.
3158:Core/Inc/../../Drivers/CMSIS/DSP/Include/arm_math.h ****    * @param[in]  S          points to an instance of the Q15 FIR decimator structure.
3159:Core/Inc/../../Drivers/CMSIS/DSP/Include/arm_math.h ****    * @param[in]  pSrc       points to the block of input data.
3160:Core/Inc/../../Drivers/CMSIS/DSP/Include/arm_math.h ****    * @param[out] pDst       points to the block of output data
3161:Core/Inc/../../Drivers/CMSIS/DSP/Include/arm_math.h ****    * @param[in]  blockSize  number of input samples to process per call.
3162:Core/Inc/../../Drivers/CMSIS/DSP/Include/arm_math.h ****    */
3163:Core/Inc/../../Drivers/CMSIS/DSP/Include/arm_math.h ****   void arm_fir_decimate_q15(
3164:Core/Inc/../../Drivers/CMSIS/DSP/Include/arm_math.h ****       const arm_fir_decimate_instance_q15 *S,
3165:Core/Inc/../../Drivers/CMSIS/DSP/Include/arm_math.h ****       q15_t *pSrc,
3166:Core/Inc/../../Drivers/CMSIS/DSP/Include/arm_math.h ****       q15_t *pDst,
ARM GAS  /var/folders/n6/c271nzx11xl4r4_m7sqjlt0m0000gn/T//ccGo3Vqh.s 			page 84


3167:Core/Inc/../../Drivers/CMSIS/DSP/Include/arm_math.h ****       uint32_t blockSize);
3168:Core/Inc/../../Drivers/CMSIS/DSP/Include/arm_math.h **** 
3169:Core/Inc/../../Drivers/CMSIS/DSP/Include/arm_math.h ****   /**
3170:Core/Inc/../../Drivers/CMSIS/DSP/Include/arm_math.h ****    * @brief Processing function for the Q15 FIR decimator (fast variant) for Cortex-M3 and Cortex-M
3171:Core/Inc/../../Drivers/CMSIS/DSP/Include/arm_math.h ****    * @param[in]  S          points to an instance of the Q15 FIR decimator structure.
3172:Core/Inc/../../Drivers/CMSIS/DSP/Include/arm_math.h ****    * @param[in]  pSrc       points to the block of input data.
3173:Core/Inc/../../Drivers/CMSIS/DSP/Include/arm_math.h ****    * @param[out] pDst       points to the block of output data
3174:Core/Inc/../../Drivers/CMSIS/DSP/Include/arm_math.h ****    * @param[in]  blockSize  number of input samples to process per call.
3175:Core/Inc/../../Drivers/CMSIS/DSP/Include/arm_math.h ****    */
3176:Core/Inc/../../Drivers/CMSIS/DSP/Include/arm_math.h ****   void arm_fir_decimate_fast_q15(
3177:Core/Inc/../../Drivers/CMSIS/DSP/Include/arm_math.h ****       const arm_fir_decimate_instance_q15 *S,
3178:Core/Inc/../../Drivers/CMSIS/DSP/Include/arm_math.h ****       q15_t *pSrc,
3179:Core/Inc/../../Drivers/CMSIS/DSP/Include/arm_math.h ****       q15_t *pDst,
3180:Core/Inc/../../Drivers/CMSIS/DSP/Include/arm_math.h ****       uint32_t blockSize);
3181:Core/Inc/../../Drivers/CMSIS/DSP/Include/arm_math.h **** 
3182:Core/Inc/../../Drivers/CMSIS/DSP/Include/arm_math.h ****   /**
3183:Core/Inc/../../Drivers/CMSIS/DSP/Include/arm_math.h ****    * @brief  Initialization function for the Q15 FIR decimator.
3184:Core/Inc/../../Drivers/CMSIS/DSP/Include/arm_math.h ****    * @param[in,out] S          points to an instance of the Q15 FIR decimator structure.
3185:Core/Inc/../../Drivers/CMSIS/DSP/Include/arm_math.h ****    * @param[in]     numTaps    number of coefficients in the filter.
3186:Core/Inc/../../Drivers/CMSIS/DSP/Include/arm_math.h ****    * @param[in]     M          decimation factor.
3187:Core/Inc/../../Drivers/CMSIS/DSP/Include/arm_math.h ****    * @param[in]     pCoeffs    points to the filter coefficients.
3188:Core/Inc/../../Drivers/CMSIS/DSP/Include/arm_math.h ****    * @param[in]     pState     points to the state buffer.
3189:Core/Inc/../../Drivers/CMSIS/DSP/Include/arm_math.h ****    * @param[in]     blockSize  number of input samples to process per call.
3190:Core/Inc/../../Drivers/CMSIS/DSP/Include/arm_math.h ****    * @return    The function returns ARM_MATH_SUCCESS if initialization is successful or ARM_MATH_L
3191:Core/Inc/../../Drivers/CMSIS/DSP/Include/arm_math.h ****    * <code>blockSize</code> is not a multiple of <code>M</code>.
3192:Core/Inc/../../Drivers/CMSIS/DSP/Include/arm_math.h ****    */
3193:Core/Inc/../../Drivers/CMSIS/DSP/Include/arm_math.h ****   arm_status arm_fir_decimate_init_q15(
3194:Core/Inc/../../Drivers/CMSIS/DSP/Include/arm_math.h ****       arm_fir_decimate_instance_q15 *S,
3195:Core/Inc/../../Drivers/CMSIS/DSP/Include/arm_math.h ****       uint16_t numTaps,
3196:Core/Inc/../../Drivers/CMSIS/DSP/Include/arm_math.h ****       uint8_t M,
3197:Core/Inc/../../Drivers/CMSIS/DSP/Include/arm_math.h ****       q15_t *pCoeffs,
3198:Core/Inc/../../Drivers/CMSIS/DSP/Include/arm_math.h ****       q15_t *pState,
3199:Core/Inc/../../Drivers/CMSIS/DSP/Include/arm_math.h ****       uint32_t blockSize);
3200:Core/Inc/../../Drivers/CMSIS/DSP/Include/arm_math.h **** 
3201:Core/Inc/../../Drivers/CMSIS/DSP/Include/arm_math.h ****   /**
3202:Core/Inc/../../Drivers/CMSIS/DSP/Include/arm_math.h ****    * @brief Processing function for the Q31 FIR decimator.
3203:Core/Inc/../../Drivers/CMSIS/DSP/Include/arm_math.h ****    * @param[in]  S     points to an instance of the Q31 FIR decimator structure.
3204:Core/Inc/../../Drivers/CMSIS/DSP/Include/arm_math.h ****    * @param[in]  pSrc  points to the block of input data.
3205:Core/Inc/../../Drivers/CMSIS/DSP/Include/arm_math.h ****    * @param[out] pDst  points to the block of output data
3206:Core/Inc/../../Drivers/CMSIS/DSP/Include/arm_math.h ****    * @param[in] blockSize number of input samples to process per call.
3207:Core/Inc/../../Drivers/CMSIS/DSP/Include/arm_math.h ****    */
3208:Core/Inc/../../Drivers/CMSIS/DSP/Include/arm_math.h ****   void arm_fir_decimate_q31(
3209:Core/Inc/../../Drivers/CMSIS/DSP/Include/arm_math.h ****       const arm_fir_decimate_instance_q31 *S,
3210:Core/Inc/../../Drivers/CMSIS/DSP/Include/arm_math.h ****       q31_t *pSrc,
3211:Core/Inc/../../Drivers/CMSIS/DSP/Include/arm_math.h ****       q31_t *pDst,
3212:Core/Inc/../../Drivers/CMSIS/DSP/Include/arm_math.h ****       uint32_t blockSize);
3213:Core/Inc/../../Drivers/CMSIS/DSP/Include/arm_math.h **** 
3214:Core/Inc/../../Drivers/CMSIS/DSP/Include/arm_math.h ****   /**
3215:Core/Inc/../../Drivers/CMSIS/DSP/Include/arm_math.h ****    * @brief Processing function for the Q31 FIR decimator (fast variant) for Cortex-M3 and Cortex-M
3216:Core/Inc/../../Drivers/CMSIS/DSP/Include/arm_math.h ****    * @param[in]  S          points to an instance of the Q31 FIR decimator structure.
3217:Core/Inc/../../Drivers/CMSIS/DSP/Include/arm_math.h ****    * @param[in]  pSrc       points to the block of input data.
3218:Core/Inc/../../Drivers/CMSIS/DSP/Include/arm_math.h ****    * @param[out] pDst       points to the block of output data
3219:Core/Inc/../../Drivers/CMSIS/DSP/Include/arm_math.h ****    * @param[in]  blockSize  number of input samples to process per call.
3220:Core/Inc/../../Drivers/CMSIS/DSP/Include/arm_math.h ****    */
3221:Core/Inc/../../Drivers/CMSIS/DSP/Include/arm_math.h ****   void arm_fir_decimate_fast_q31(
3222:Core/Inc/../../Drivers/CMSIS/DSP/Include/arm_math.h ****       arm_fir_decimate_instance_q31 *S,
3223:Core/Inc/../../Drivers/CMSIS/DSP/Include/arm_math.h ****       q31_t *pSrc,
ARM GAS  /var/folders/n6/c271nzx11xl4r4_m7sqjlt0m0000gn/T//ccGo3Vqh.s 			page 85


3224:Core/Inc/../../Drivers/CMSIS/DSP/Include/arm_math.h ****       q31_t *pDst,
3225:Core/Inc/../../Drivers/CMSIS/DSP/Include/arm_math.h ****       uint32_t blockSize);
3226:Core/Inc/../../Drivers/CMSIS/DSP/Include/arm_math.h **** 
3227:Core/Inc/../../Drivers/CMSIS/DSP/Include/arm_math.h ****   /**
3228:Core/Inc/../../Drivers/CMSIS/DSP/Include/arm_math.h ****    * @brief  Initialization function for the Q31 FIR decimator.
3229:Core/Inc/../../Drivers/CMSIS/DSP/Include/arm_math.h ****    * @param[in,out] S          points to an instance of the Q31 FIR decimator structure.
3230:Core/Inc/../../Drivers/CMSIS/DSP/Include/arm_math.h ****    * @param[in]     numTaps    number of coefficients in the filter.
3231:Core/Inc/../../Drivers/CMSIS/DSP/Include/arm_math.h ****    * @param[in]     M          decimation factor.
3232:Core/Inc/../../Drivers/CMSIS/DSP/Include/arm_math.h ****    * @param[in]     pCoeffs    points to the filter coefficients.
3233:Core/Inc/../../Drivers/CMSIS/DSP/Include/arm_math.h ****    * @param[in]     pState     points to the state buffer.
3234:Core/Inc/../../Drivers/CMSIS/DSP/Include/arm_math.h ****    * @param[in]     blockSize  number of input samples to process per call.
3235:Core/Inc/../../Drivers/CMSIS/DSP/Include/arm_math.h ****    * @return    The function returns ARM_MATH_SUCCESS if initialization is successful or ARM_MATH_L
3236:Core/Inc/../../Drivers/CMSIS/DSP/Include/arm_math.h ****    * <code>blockSize</code> is not a multiple of <code>M</code>.
3237:Core/Inc/../../Drivers/CMSIS/DSP/Include/arm_math.h ****    */
3238:Core/Inc/../../Drivers/CMSIS/DSP/Include/arm_math.h ****   arm_status arm_fir_decimate_init_q31(
3239:Core/Inc/../../Drivers/CMSIS/DSP/Include/arm_math.h ****       arm_fir_decimate_instance_q31 *S,
3240:Core/Inc/../../Drivers/CMSIS/DSP/Include/arm_math.h ****       uint16_t numTaps,
3241:Core/Inc/../../Drivers/CMSIS/DSP/Include/arm_math.h ****       uint8_t M,
3242:Core/Inc/../../Drivers/CMSIS/DSP/Include/arm_math.h ****       q31_t *pCoeffs,
3243:Core/Inc/../../Drivers/CMSIS/DSP/Include/arm_math.h ****       q31_t *pState,
3244:Core/Inc/../../Drivers/CMSIS/DSP/Include/arm_math.h ****       uint32_t blockSize);
3245:Core/Inc/../../Drivers/CMSIS/DSP/Include/arm_math.h **** 
3246:Core/Inc/../../Drivers/CMSIS/DSP/Include/arm_math.h ****   /**
3247:Core/Inc/../../Drivers/CMSIS/DSP/Include/arm_math.h ****    * @brief Instance structure for the Q15 FIR interpolator.
3248:Core/Inc/../../Drivers/CMSIS/DSP/Include/arm_math.h ****    */
3249:Core/Inc/../../Drivers/CMSIS/DSP/Include/arm_math.h ****   typedef struct
3250:Core/Inc/../../Drivers/CMSIS/DSP/Include/arm_math.h ****   {
3251:Core/Inc/../../Drivers/CMSIS/DSP/Include/arm_math.h ****     uint8_t L;            /**< upsample factor. */
3252:Core/Inc/../../Drivers/CMSIS/DSP/Include/arm_math.h ****     uint16_t phaseLength; /**< length of each polyphase filter component. */
3253:Core/Inc/../../Drivers/CMSIS/DSP/Include/arm_math.h ****     q15_t *pCoeffs;       /**< points to the coefficient array. The array is of length L*phaseLengt
3254:Core/Inc/../../Drivers/CMSIS/DSP/Include/arm_math.h ****     q15_t *pState;        /**< points to the state variable array. The array is of length blockSize
3255:Core/Inc/../../Drivers/CMSIS/DSP/Include/arm_math.h ****   } arm_fir_interpolate_instance_q15;
3256:Core/Inc/../../Drivers/CMSIS/DSP/Include/arm_math.h **** 
3257:Core/Inc/../../Drivers/CMSIS/DSP/Include/arm_math.h ****   /**
3258:Core/Inc/../../Drivers/CMSIS/DSP/Include/arm_math.h ****    * @brief Instance structure for the Q31 FIR interpolator.
3259:Core/Inc/../../Drivers/CMSIS/DSP/Include/arm_math.h ****    */
3260:Core/Inc/../../Drivers/CMSIS/DSP/Include/arm_math.h ****   typedef struct
3261:Core/Inc/../../Drivers/CMSIS/DSP/Include/arm_math.h ****   {
3262:Core/Inc/../../Drivers/CMSIS/DSP/Include/arm_math.h ****     uint8_t L;            /**< upsample factor. */
3263:Core/Inc/../../Drivers/CMSIS/DSP/Include/arm_math.h ****     uint16_t phaseLength; /**< length of each polyphase filter component. */
3264:Core/Inc/../../Drivers/CMSIS/DSP/Include/arm_math.h ****     q31_t *pCoeffs;       /**< points to the coefficient array. The array is of length L*phaseLengt
3265:Core/Inc/../../Drivers/CMSIS/DSP/Include/arm_math.h ****     q31_t *pState;        /**< points to the state variable array. The array is of length blockSize
3266:Core/Inc/../../Drivers/CMSIS/DSP/Include/arm_math.h ****   } arm_fir_interpolate_instance_q31;
3267:Core/Inc/../../Drivers/CMSIS/DSP/Include/arm_math.h **** 
3268:Core/Inc/../../Drivers/CMSIS/DSP/Include/arm_math.h ****   /**
3269:Core/Inc/../../Drivers/CMSIS/DSP/Include/arm_math.h ****    * @brief Instance structure for the floating-point FIR interpolator.
3270:Core/Inc/../../Drivers/CMSIS/DSP/Include/arm_math.h ****    */
3271:Core/Inc/../../Drivers/CMSIS/DSP/Include/arm_math.h ****   typedef struct
3272:Core/Inc/../../Drivers/CMSIS/DSP/Include/arm_math.h ****   {
3273:Core/Inc/../../Drivers/CMSIS/DSP/Include/arm_math.h ****     uint8_t L;            /**< upsample factor. */
3274:Core/Inc/../../Drivers/CMSIS/DSP/Include/arm_math.h ****     uint16_t phaseLength; /**< length of each polyphase filter component. */
3275:Core/Inc/../../Drivers/CMSIS/DSP/Include/arm_math.h ****     float32_t *pCoeffs;   /**< points to the coefficient array. The array is of length L*phaseLengt
3276:Core/Inc/../../Drivers/CMSIS/DSP/Include/arm_math.h ****     float32_t *pState;    /**< points to the state variable array. The array is of length phaseLeng
3277:Core/Inc/../../Drivers/CMSIS/DSP/Include/arm_math.h ****   } arm_fir_interpolate_instance_f32;
3278:Core/Inc/../../Drivers/CMSIS/DSP/Include/arm_math.h **** 
3279:Core/Inc/../../Drivers/CMSIS/DSP/Include/arm_math.h ****   /**
3280:Core/Inc/../../Drivers/CMSIS/DSP/Include/arm_math.h ****    * @brief Processing function for the Q15 FIR interpolator.
ARM GAS  /var/folders/n6/c271nzx11xl4r4_m7sqjlt0m0000gn/T//ccGo3Vqh.s 			page 86


3281:Core/Inc/../../Drivers/CMSIS/DSP/Include/arm_math.h ****    * @param[in]  S          points to an instance of the Q15 FIR interpolator structure.
3282:Core/Inc/../../Drivers/CMSIS/DSP/Include/arm_math.h ****    * @param[in]  pSrc       points to the block of input data.
3283:Core/Inc/../../Drivers/CMSIS/DSP/Include/arm_math.h ****    * @param[out] pDst       points to the block of output data.
3284:Core/Inc/../../Drivers/CMSIS/DSP/Include/arm_math.h ****    * @param[in]  blockSize  number of input samples to process per call.
3285:Core/Inc/../../Drivers/CMSIS/DSP/Include/arm_math.h ****    */
3286:Core/Inc/../../Drivers/CMSIS/DSP/Include/arm_math.h ****   void arm_fir_interpolate_q15(
3287:Core/Inc/../../Drivers/CMSIS/DSP/Include/arm_math.h ****       const arm_fir_interpolate_instance_q15 *S,
3288:Core/Inc/../../Drivers/CMSIS/DSP/Include/arm_math.h ****       q15_t *pSrc,
3289:Core/Inc/../../Drivers/CMSIS/DSP/Include/arm_math.h ****       q15_t *pDst,
3290:Core/Inc/../../Drivers/CMSIS/DSP/Include/arm_math.h ****       uint32_t blockSize);
3291:Core/Inc/../../Drivers/CMSIS/DSP/Include/arm_math.h **** 
3292:Core/Inc/../../Drivers/CMSIS/DSP/Include/arm_math.h ****   /**
3293:Core/Inc/../../Drivers/CMSIS/DSP/Include/arm_math.h ****    * @brief  Initialization function for the Q15 FIR interpolator.
3294:Core/Inc/../../Drivers/CMSIS/DSP/Include/arm_math.h ****    * @param[in,out] S          points to an instance of the Q15 FIR interpolator structure.
3295:Core/Inc/../../Drivers/CMSIS/DSP/Include/arm_math.h ****    * @param[in]     L          upsample factor.
3296:Core/Inc/../../Drivers/CMSIS/DSP/Include/arm_math.h ****    * @param[in]     numTaps    number of filter coefficients in the filter.
3297:Core/Inc/../../Drivers/CMSIS/DSP/Include/arm_math.h ****    * @param[in]     pCoeffs    points to the filter coefficient buffer.
3298:Core/Inc/../../Drivers/CMSIS/DSP/Include/arm_math.h ****    * @param[in]     pState     points to the state buffer.
3299:Core/Inc/../../Drivers/CMSIS/DSP/Include/arm_math.h ****    * @param[in]     blockSize  number of input samples to process per call.
3300:Core/Inc/../../Drivers/CMSIS/DSP/Include/arm_math.h ****    * @return        The function returns ARM_MATH_SUCCESS if initialization is successful or ARM_MA
3301:Core/Inc/../../Drivers/CMSIS/DSP/Include/arm_math.h ****    * the filter length <code>numTaps</code> is not a multiple of the interpolation factor <code>L</
3302:Core/Inc/../../Drivers/CMSIS/DSP/Include/arm_math.h ****    */
3303:Core/Inc/../../Drivers/CMSIS/DSP/Include/arm_math.h ****   arm_status arm_fir_interpolate_init_q15(
3304:Core/Inc/../../Drivers/CMSIS/DSP/Include/arm_math.h ****       arm_fir_interpolate_instance_q15 *S,
3305:Core/Inc/../../Drivers/CMSIS/DSP/Include/arm_math.h ****       uint8_t L,
3306:Core/Inc/../../Drivers/CMSIS/DSP/Include/arm_math.h ****       uint16_t numTaps,
3307:Core/Inc/../../Drivers/CMSIS/DSP/Include/arm_math.h ****       q15_t *pCoeffs,
3308:Core/Inc/../../Drivers/CMSIS/DSP/Include/arm_math.h ****       q15_t *pState,
3309:Core/Inc/../../Drivers/CMSIS/DSP/Include/arm_math.h ****       uint32_t blockSize);
3310:Core/Inc/../../Drivers/CMSIS/DSP/Include/arm_math.h **** 
3311:Core/Inc/../../Drivers/CMSIS/DSP/Include/arm_math.h ****   /**
3312:Core/Inc/../../Drivers/CMSIS/DSP/Include/arm_math.h ****    * @brief Processing function for the Q31 FIR interpolator.
3313:Core/Inc/../../Drivers/CMSIS/DSP/Include/arm_math.h ****    * @param[in]  S          points to an instance of the Q15 FIR interpolator structure.
3314:Core/Inc/../../Drivers/CMSIS/DSP/Include/arm_math.h ****    * @param[in]  pSrc       points to the block of input data.
3315:Core/Inc/../../Drivers/CMSIS/DSP/Include/arm_math.h ****    * @param[out] pDst       points to the block of output data.
3316:Core/Inc/../../Drivers/CMSIS/DSP/Include/arm_math.h ****    * @param[in]  blockSize  number of input samples to process per call.
3317:Core/Inc/../../Drivers/CMSIS/DSP/Include/arm_math.h ****    */
3318:Core/Inc/../../Drivers/CMSIS/DSP/Include/arm_math.h ****   void arm_fir_interpolate_q31(
3319:Core/Inc/../../Drivers/CMSIS/DSP/Include/arm_math.h ****       const arm_fir_interpolate_instance_q31 *S,
3320:Core/Inc/../../Drivers/CMSIS/DSP/Include/arm_math.h ****       q31_t *pSrc,
3321:Core/Inc/../../Drivers/CMSIS/DSP/Include/arm_math.h ****       q31_t *pDst,
3322:Core/Inc/../../Drivers/CMSIS/DSP/Include/arm_math.h ****       uint32_t blockSize);
3323:Core/Inc/../../Drivers/CMSIS/DSP/Include/arm_math.h **** 
3324:Core/Inc/../../Drivers/CMSIS/DSP/Include/arm_math.h ****   /**
3325:Core/Inc/../../Drivers/CMSIS/DSP/Include/arm_math.h ****    * @brief  Initialization function for the Q31 FIR interpolator.
3326:Core/Inc/../../Drivers/CMSIS/DSP/Include/arm_math.h ****    * @param[in,out] S          points to an instance of the Q31 FIR interpolator structure.
3327:Core/Inc/../../Drivers/CMSIS/DSP/Include/arm_math.h ****    * @param[in]     L          upsample factor.
3328:Core/Inc/../../Drivers/CMSIS/DSP/Include/arm_math.h ****    * @param[in]     numTaps    number of filter coefficients in the filter.
3329:Core/Inc/../../Drivers/CMSIS/DSP/Include/arm_math.h ****    * @param[in]     pCoeffs    points to the filter coefficient buffer.
3330:Core/Inc/../../Drivers/CMSIS/DSP/Include/arm_math.h ****    * @param[in]     pState     points to the state buffer.
3331:Core/Inc/../../Drivers/CMSIS/DSP/Include/arm_math.h ****    * @param[in]     blockSize  number of input samples to process per call.
3332:Core/Inc/../../Drivers/CMSIS/DSP/Include/arm_math.h ****    * @return        The function returns ARM_MATH_SUCCESS if initialization is successful or ARM_MA
3333:Core/Inc/../../Drivers/CMSIS/DSP/Include/arm_math.h ****    * the filter length <code>numTaps</code> is not a multiple of the interpolation factor <code>L</
3334:Core/Inc/../../Drivers/CMSIS/DSP/Include/arm_math.h ****    */
3335:Core/Inc/../../Drivers/CMSIS/DSP/Include/arm_math.h ****   arm_status arm_fir_interpolate_init_q31(
3336:Core/Inc/../../Drivers/CMSIS/DSP/Include/arm_math.h ****       arm_fir_interpolate_instance_q31 *S,
3337:Core/Inc/../../Drivers/CMSIS/DSP/Include/arm_math.h ****       uint8_t L,
ARM GAS  /var/folders/n6/c271nzx11xl4r4_m7sqjlt0m0000gn/T//ccGo3Vqh.s 			page 87


3338:Core/Inc/../../Drivers/CMSIS/DSP/Include/arm_math.h ****       uint16_t numTaps,
3339:Core/Inc/../../Drivers/CMSIS/DSP/Include/arm_math.h ****       q31_t *pCoeffs,
3340:Core/Inc/../../Drivers/CMSIS/DSP/Include/arm_math.h ****       q31_t *pState,
3341:Core/Inc/../../Drivers/CMSIS/DSP/Include/arm_math.h ****       uint32_t blockSize);
3342:Core/Inc/../../Drivers/CMSIS/DSP/Include/arm_math.h **** 
3343:Core/Inc/../../Drivers/CMSIS/DSP/Include/arm_math.h ****   /**
3344:Core/Inc/../../Drivers/CMSIS/DSP/Include/arm_math.h ****    * @brief Processing function for the floating-point FIR interpolator.
3345:Core/Inc/../../Drivers/CMSIS/DSP/Include/arm_math.h ****    * @param[in]  S          points to an instance of the floating-point FIR interpolator structure.
3346:Core/Inc/../../Drivers/CMSIS/DSP/Include/arm_math.h ****    * @param[in]  pSrc       points to the block of input data.
3347:Core/Inc/../../Drivers/CMSIS/DSP/Include/arm_math.h ****    * @param[out] pDst       points to the block of output data.
3348:Core/Inc/../../Drivers/CMSIS/DSP/Include/arm_math.h ****    * @param[in]  blockSize  number of input samples to process per call.
3349:Core/Inc/../../Drivers/CMSIS/DSP/Include/arm_math.h ****    */
3350:Core/Inc/../../Drivers/CMSIS/DSP/Include/arm_math.h ****   void arm_fir_interpolate_f32(
3351:Core/Inc/../../Drivers/CMSIS/DSP/Include/arm_math.h ****       const arm_fir_interpolate_instance_f32 *S,
3352:Core/Inc/../../Drivers/CMSIS/DSP/Include/arm_math.h ****       float32_t *pSrc,
3353:Core/Inc/../../Drivers/CMSIS/DSP/Include/arm_math.h ****       float32_t *pDst,
3354:Core/Inc/../../Drivers/CMSIS/DSP/Include/arm_math.h ****       uint32_t blockSize);
3355:Core/Inc/../../Drivers/CMSIS/DSP/Include/arm_math.h **** 
3356:Core/Inc/../../Drivers/CMSIS/DSP/Include/arm_math.h ****   /**
3357:Core/Inc/../../Drivers/CMSIS/DSP/Include/arm_math.h ****    * @brief  Initialization function for the floating-point FIR interpolator.
3358:Core/Inc/../../Drivers/CMSIS/DSP/Include/arm_math.h ****    * @param[in,out] S          points to an instance of the floating-point FIR interpolator structu
3359:Core/Inc/../../Drivers/CMSIS/DSP/Include/arm_math.h ****    * @param[in]     L          upsample factor.
3360:Core/Inc/../../Drivers/CMSIS/DSP/Include/arm_math.h ****    * @param[in]     numTaps    number of filter coefficients in the filter.
3361:Core/Inc/../../Drivers/CMSIS/DSP/Include/arm_math.h ****    * @param[in]     pCoeffs    points to the filter coefficient buffer.
3362:Core/Inc/../../Drivers/CMSIS/DSP/Include/arm_math.h ****    * @param[in]     pState     points to the state buffer.
3363:Core/Inc/../../Drivers/CMSIS/DSP/Include/arm_math.h ****    * @param[in]     blockSize  number of input samples to process per call.
3364:Core/Inc/../../Drivers/CMSIS/DSP/Include/arm_math.h ****    * @return        The function returns ARM_MATH_SUCCESS if initialization is successful or ARM_MA
3365:Core/Inc/../../Drivers/CMSIS/DSP/Include/arm_math.h ****    * the filter length <code>numTaps</code> is not a multiple of the interpolation factor <code>L</
3366:Core/Inc/../../Drivers/CMSIS/DSP/Include/arm_math.h ****    */
3367:Core/Inc/../../Drivers/CMSIS/DSP/Include/arm_math.h ****   arm_status arm_fir_interpolate_init_f32(
3368:Core/Inc/../../Drivers/CMSIS/DSP/Include/arm_math.h ****       arm_fir_interpolate_instance_f32 *S,
3369:Core/Inc/../../Drivers/CMSIS/DSP/Include/arm_math.h ****       uint8_t L,
3370:Core/Inc/../../Drivers/CMSIS/DSP/Include/arm_math.h ****       uint16_t numTaps,
3371:Core/Inc/../../Drivers/CMSIS/DSP/Include/arm_math.h ****       float32_t *pCoeffs,
3372:Core/Inc/../../Drivers/CMSIS/DSP/Include/arm_math.h ****       float32_t *pState,
3373:Core/Inc/../../Drivers/CMSIS/DSP/Include/arm_math.h ****       uint32_t blockSize);
3374:Core/Inc/../../Drivers/CMSIS/DSP/Include/arm_math.h **** 
3375:Core/Inc/../../Drivers/CMSIS/DSP/Include/arm_math.h ****   /**
3376:Core/Inc/../../Drivers/CMSIS/DSP/Include/arm_math.h ****    * @brief Instance structure for the high precision Q31 Biquad cascade filter.
3377:Core/Inc/../../Drivers/CMSIS/DSP/Include/arm_math.h ****    */
3378:Core/Inc/../../Drivers/CMSIS/DSP/Include/arm_math.h ****   typedef struct
3379:Core/Inc/../../Drivers/CMSIS/DSP/Include/arm_math.h ****   {
3380:Core/Inc/../../Drivers/CMSIS/DSP/Include/arm_math.h ****     uint8_t numStages; /**< number of 2nd order stages in the filter.  Overall order is 2*numStages
3381:Core/Inc/../../Drivers/CMSIS/DSP/Include/arm_math.h ****     q63_t *pState;     /**< points to the array of state coefficients.  The array is of length 4*nu
3382:Core/Inc/../../Drivers/CMSIS/DSP/Include/arm_math.h ****     q31_t *pCoeffs;    /**< points to the array of coefficients.  The array is of length 5*numStage
3383:Core/Inc/../../Drivers/CMSIS/DSP/Include/arm_math.h ****     uint8_t postShift; /**< additional shift, in bits, applied to each output sample. */
3384:Core/Inc/../../Drivers/CMSIS/DSP/Include/arm_math.h ****   } arm_biquad_cas_df1_32x64_ins_q31;
3385:Core/Inc/../../Drivers/CMSIS/DSP/Include/arm_math.h **** 
3386:Core/Inc/../../Drivers/CMSIS/DSP/Include/arm_math.h ****   /**
3387:Core/Inc/../../Drivers/CMSIS/DSP/Include/arm_math.h ****    * @param[in]  S          points to an instance of the high precision Q31 Biquad cascade filter s
3388:Core/Inc/../../Drivers/CMSIS/DSP/Include/arm_math.h ****    * @param[in]  pSrc       points to the block of input data.
3389:Core/Inc/../../Drivers/CMSIS/DSP/Include/arm_math.h ****    * @param[out] pDst       points to the block of output data
3390:Core/Inc/../../Drivers/CMSIS/DSP/Include/arm_math.h ****    * @param[in]  blockSize  number of samples to process.
3391:Core/Inc/../../Drivers/CMSIS/DSP/Include/arm_math.h ****    */
3392:Core/Inc/../../Drivers/CMSIS/DSP/Include/arm_math.h ****   void arm_biquad_cas_df1_32x64_q31(
3393:Core/Inc/../../Drivers/CMSIS/DSP/Include/arm_math.h ****       const arm_biquad_cas_df1_32x64_ins_q31 *S,
3394:Core/Inc/../../Drivers/CMSIS/DSP/Include/arm_math.h ****       q31_t *pSrc,
ARM GAS  /var/folders/n6/c271nzx11xl4r4_m7sqjlt0m0000gn/T//ccGo3Vqh.s 			page 88


3395:Core/Inc/../../Drivers/CMSIS/DSP/Include/arm_math.h ****       q31_t *pDst,
3396:Core/Inc/../../Drivers/CMSIS/DSP/Include/arm_math.h ****       uint32_t blockSize);
3397:Core/Inc/../../Drivers/CMSIS/DSP/Include/arm_math.h **** 
3398:Core/Inc/../../Drivers/CMSIS/DSP/Include/arm_math.h ****   /**
3399:Core/Inc/../../Drivers/CMSIS/DSP/Include/arm_math.h ****    * @param[in,out] S          points to an instance of the high precision Q31 Biquad cascade filte
3400:Core/Inc/../../Drivers/CMSIS/DSP/Include/arm_math.h ****    * @param[in]     numStages  number of 2nd order stages in the filter.
3401:Core/Inc/../../Drivers/CMSIS/DSP/Include/arm_math.h ****    * @param[in]     pCoeffs    points to the filter coefficients.
3402:Core/Inc/../../Drivers/CMSIS/DSP/Include/arm_math.h ****    * @param[in]     pState     points to the state buffer.
3403:Core/Inc/../../Drivers/CMSIS/DSP/Include/arm_math.h ****    * @param[in]     postShift  shift to be applied to the output. Varies according to the coefficie
3404:Core/Inc/../../Drivers/CMSIS/DSP/Include/arm_math.h ****    */
3405:Core/Inc/../../Drivers/CMSIS/DSP/Include/arm_math.h ****   void arm_biquad_cas_df1_32x64_init_q31(
3406:Core/Inc/../../Drivers/CMSIS/DSP/Include/arm_math.h ****       arm_biquad_cas_df1_32x64_ins_q31 *S,
3407:Core/Inc/../../Drivers/CMSIS/DSP/Include/arm_math.h ****       uint8_t numStages,
3408:Core/Inc/../../Drivers/CMSIS/DSP/Include/arm_math.h ****       q31_t *pCoeffs,
3409:Core/Inc/../../Drivers/CMSIS/DSP/Include/arm_math.h ****       q63_t *pState,
3410:Core/Inc/../../Drivers/CMSIS/DSP/Include/arm_math.h ****       uint8_t postShift);
3411:Core/Inc/../../Drivers/CMSIS/DSP/Include/arm_math.h **** 
3412:Core/Inc/../../Drivers/CMSIS/DSP/Include/arm_math.h ****   /**
3413:Core/Inc/../../Drivers/CMSIS/DSP/Include/arm_math.h ****    * @brief Instance structure for the floating-point transposed direct form II Biquad cascade filt
3414:Core/Inc/../../Drivers/CMSIS/DSP/Include/arm_math.h ****    */
3415:Core/Inc/../../Drivers/CMSIS/DSP/Include/arm_math.h ****   typedef struct
3416:Core/Inc/../../Drivers/CMSIS/DSP/Include/arm_math.h ****   {
3417:Core/Inc/../../Drivers/CMSIS/DSP/Include/arm_math.h ****     uint8_t numStages;  /**< number of 2nd order stages in the filter.  Overall order is 2*numStage
3418:Core/Inc/../../Drivers/CMSIS/DSP/Include/arm_math.h ****     float32_t *pState;  /**< points to the array of state coefficients.  The array is of length 2*n
3419:Core/Inc/../../Drivers/CMSIS/DSP/Include/arm_math.h ****     float32_t *pCoeffs; /**< points to the array of coefficients.  The array is of length 5*numStag
3420:Core/Inc/../../Drivers/CMSIS/DSP/Include/arm_math.h ****   } arm_biquad_cascade_df2T_instance_f32;
3421:Core/Inc/../../Drivers/CMSIS/DSP/Include/arm_math.h **** 
3422:Core/Inc/../../Drivers/CMSIS/DSP/Include/arm_math.h ****   /**
3423:Core/Inc/../../Drivers/CMSIS/DSP/Include/arm_math.h ****    * @brief Instance structure for the floating-point transposed direct form II Biquad cascade filt
3424:Core/Inc/../../Drivers/CMSIS/DSP/Include/arm_math.h ****    */
3425:Core/Inc/../../Drivers/CMSIS/DSP/Include/arm_math.h ****   typedef struct
3426:Core/Inc/../../Drivers/CMSIS/DSP/Include/arm_math.h ****   {
3427:Core/Inc/../../Drivers/CMSIS/DSP/Include/arm_math.h ****     uint8_t numStages;  /**< number of 2nd order stages in the filter.  Overall order is 2*numStage
3428:Core/Inc/../../Drivers/CMSIS/DSP/Include/arm_math.h ****     float32_t *pState;  /**< points to the array of state coefficients.  The array is of length 4*n
3429:Core/Inc/../../Drivers/CMSIS/DSP/Include/arm_math.h ****     float32_t *pCoeffs; /**< points to the array of coefficients.  The array is of length 5*numStag
3430:Core/Inc/../../Drivers/CMSIS/DSP/Include/arm_math.h ****   } arm_biquad_cascade_stereo_df2T_instance_f32;
3431:Core/Inc/../../Drivers/CMSIS/DSP/Include/arm_math.h **** 
3432:Core/Inc/../../Drivers/CMSIS/DSP/Include/arm_math.h ****   /**
3433:Core/Inc/../../Drivers/CMSIS/DSP/Include/arm_math.h ****    * @brief Instance structure for the floating-point transposed direct form II Biquad cascade filt
3434:Core/Inc/../../Drivers/CMSIS/DSP/Include/arm_math.h ****    */
3435:Core/Inc/../../Drivers/CMSIS/DSP/Include/arm_math.h ****   typedef struct
3436:Core/Inc/../../Drivers/CMSIS/DSP/Include/arm_math.h ****   {
3437:Core/Inc/../../Drivers/CMSIS/DSP/Include/arm_math.h ****     uint8_t numStages;  /**< number of 2nd order stages in the filter.  Overall order is 2*numStage
3438:Core/Inc/../../Drivers/CMSIS/DSP/Include/arm_math.h ****     float64_t *pState;  /**< points to the array of state coefficients.  The array is of length 2*n
3439:Core/Inc/../../Drivers/CMSIS/DSP/Include/arm_math.h ****     float64_t *pCoeffs; /**< points to the array of coefficients.  The array is of length 5*numStag
3440:Core/Inc/../../Drivers/CMSIS/DSP/Include/arm_math.h ****   } arm_biquad_cascade_df2T_instance_f64;
3441:Core/Inc/../../Drivers/CMSIS/DSP/Include/arm_math.h **** 
3442:Core/Inc/../../Drivers/CMSIS/DSP/Include/arm_math.h ****   /**
3443:Core/Inc/../../Drivers/CMSIS/DSP/Include/arm_math.h ****    * @brief Processing function for the floating-point transposed direct form II Biquad cascade fil
3444:Core/Inc/../../Drivers/CMSIS/DSP/Include/arm_math.h ****    * @param[in]  S          points to an instance of the filter data structure.
3445:Core/Inc/../../Drivers/CMSIS/DSP/Include/arm_math.h ****    * @param[in]  pSrc       points to the block of input data.
3446:Core/Inc/../../Drivers/CMSIS/DSP/Include/arm_math.h ****    * @param[out] pDst       points to the block of output data
3447:Core/Inc/../../Drivers/CMSIS/DSP/Include/arm_math.h ****    * @param[in]  blockSize  number of samples to process.
3448:Core/Inc/../../Drivers/CMSIS/DSP/Include/arm_math.h ****    */
3449:Core/Inc/../../Drivers/CMSIS/DSP/Include/arm_math.h ****   void arm_biquad_cascade_df2T_f32(
3450:Core/Inc/../../Drivers/CMSIS/DSP/Include/arm_math.h ****       const arm_biquad_cascade_df2T_instance_f32 *S,
3451:Core/Inc/../../Drivers/CMSIS/DSP/Include/arm_math.h ****       float32_t *pSrc,
ARM GAS  /var/folders/n6/c271nzx11xl4r4_m7sqjlt0m0000gn/T//ccGo3Vqh.s 			page 89


3452:Core/Inc/../../Drivers/CMSIS/DSP/Include/arm_math.h ****       float32_t *pDst,
3453:Core/Inc/../../Drivers/CMSIS/DSP/Include/arm_math.h ****       uint32_t blockSize);
3454:Core/Inc/../../Drivers/CMSIS/DSP/Include/arm_math.h **** 
3455:Core/Inc/../../Drivers/CMSIS/DSP/Include/arm_math.h ****   /**
3456:Core/Inc/../../Drivers/CMSIS/DSP/Include/arm_math.h ****    * @brief Processing function for the floating-point transposed direct form II Biquad cascade fil
3457:Core/Inc/../../Drivers/CMSIS/DSP/Include/arm_math.h ****    * @param[in]  S          points to an instance of the filter data structure.
3458:Core/Inc/../../Drivers/CMSIS/DSP/Include/arm_math.h ****    * @param[in]  pSrc       points to the block of input data.
3459:Core/Inc/../../Drivers/CMSIS/DSP/Include/arm_math.h ****    * @param[out] pDst       points to the block of output data
3460:Core/Inc/../../Drivers/CMSIS/DSP/Include/arm_math.h ****    * @param[in]  blockSize  number of samples to process.
3461:Core/Inc/../../Drivers/CMSIS/DSP/Include/arm_math.h ****    */
3462:Core/Inc/../../Drivers/CMSIS/DSP/Include/arm_math.h ****   void arm_biquad_cascade_stereo_df2T_f32(
3463:Core/Inc/../../Drivers/CMSIS/DSP/Include/arm_math.h ****       const arm_biquad_cascade_stereo_df2T_instance_f32 *S,
3464:Core/Inc/../../Drivers/CMSIS/DSP/Include/arm_math.h ****       float32_t *pSrc,
3465:Core/Inc/../../Drivers/CMSIS/DSP/Include/arm_math.h ****       float32_t *pDst,
3466:Core/Inc/../../Drivers/CMSIS/DSP/Include/arm_math.h ****       uint32_t blockSize);
3467:Core/Inc/../../Drivers/CMSIS/DSP/Include/arm_math.h **** 
3468:Core/Inc/../../Drivers/CMSIS/DSP/Include/arm_math.h ****   /**
3469:Core/Inc/../../Drivers/CMSIS/DSP/Include/arm_math.h ****    * @brief Processing function for the floating-point transposed direct form II Biquad cascade fil
3470:Core/Inc/../../Drivers/CMSIS/DSP/Include/arm_math.h ****    * @param[in]  S          points to an instance of the filter data structure.
3471:Core/Inc/../../Drivers/CMSIS/DSP/Include/arm_math.h ****    * @param[in]  pSrc       points to the block of input data.
3472:Core/Inc/../../Drivers/CMSIS/DSP/Include/arm_math.h ****    * @param[out] pDst       points to the block of output data
3473:Core/Inc/../../Drivers/CMSIS/DSP/Include/arm_math.h ****    * @param[in]  blockSize  number of samples to process.
3474:Core/Inc/../../Drivers/CMSIS/DSP/Include/arm_math.h ****    */
3475:Core/Inc/../../Drivers/CMSIS/DSP/Include/arm_math.h ****   void arm_biquad_cascade_df2T_f64(
3476:Core/Inc/../../Drivers/CMSIS/DSP/Include/arm_math.h ****       const arm_biquad_cascade_df2T_instance_f64 *S,
3477:Core/Inc/../../Drivers/CMSIS/DSP/Include/arm_math.h ****       float64_t *pSrc,
3478:Core/Inc/../../Drivers/CMSIS/DSP/Include/arm_math.h ****       float64_t *pDst,
3479:Core/Inc/../../Drivers/CMSIS/DSP/Include/arm_math.h ****       uint32_t blockSize);
3480:Core/Inc/../../Drivers/CMSIS/DSP/Include/arm_math.h **** 
3481:Core/Inc/../../Drivers/CMSIS/DSP/Include/arm_math.h ****   /**
3482:Core/Inc/../../Drivers/CMSIS/DSP/Include/arm_math.h ****    * @brief  Initialization function for the floating-point transposed direct form II Biquad cascad
3483:Core/Inc/../../Drivers/CMSIS/DSP/Include/arm_math.h ****    * @param[in,out] S          points to an instance of the filter data structure.
3484:Core/Inc/../../Drivers/CMSIS/DSP/Include/arm_math.h ****    * @param[in]     numStages  number of 2nd order stages in the filter.
3485:Core/Inc/../../Drivers/CMSIS/DSP/Include/arm_math.h ****    * @param[in]     pCoeffs    points to the filter coefficients.
3486:Core/Inc/../../Drivers/CMSIS/DSP/Include/arm_math.h ****    * @param[in]     pState     points to the state buffer.
3487:Core/Inc/../../Drivers/CMSIS/DSP/Include/arm_math.h ****    */
3488:Core/Inc/../../Drivers/CMSIS/DSP/Include/arm_math.h ****   void arm_biquad_cascade_df2T_init_f32(
3489:Core/Inc/../../Drivers/CMSIS/DSP/Include/arm_math.h ****       arm_biquad_cascade_df2T_instance_f32 *S,
3490:Core/Inc/../../Drivers/CMSIS/DSP/Include/arm_math.h ****       uint8_t numStages,
3491:Core/Inc/../../Drivers/CMSIS/DSP/Include/arm_math.h ****       float32_t *pCoeffs,
3492:Core/Inc/../../Drivers/CMSIS/DSP/Include/arm_math.h ****       float32_t *pState);
3493:Core/Inc/../../Drivers/CMSIS/DSP/Include/arm_math.h **** 
3494:Core/Inc/../../Drivers/CMSIS/DSP/Include/arm_math.h ****   /**
3495:Core/Inc/../../Drivers/CMSIS/DSP/Include/arm_math.h ****    * @brief  Initialization function for the floating-point transposed direct form II Biquad cascad
3496:Core/Inc/../../Drivers/CMSIS/DSP/Include/arm_math.h ****    * @param[in,out] S          points to an instance of the filter data structure.
3497:Core/Inc/../../Drivers/CMSIS/DSP/Include/arm_math.h ****    * @param[in]     numStages  number of 2nd order stages in the filter.
3498:Core/Inc/../../Drivers/CMSIS/DSP/Include/arm_math.h ****    * @param[in]     pCoeffs    points to the filter coefficients.
3499:Core/Inc/../../Drivers/CMSIS/DSP/Include/arm_math.h ****    * @param[in]     pState     points to the state buffer.
3500:Core/Inc/../../Drivers/CMSIS/DSP/Include/arm_math.h ****    */
3501:Core/Inc/../../Drivers/CMSIS/DSP/Include/arm_math.h ****   void arm_biquad_cascade_stereo_df2T_init_f32(
3502:Core/Inc/../../Drivers/CMSIS/DSP/Include/arm_math.h ****       arm_biquad_cascade_stereo_df2T_instance_f32 *S,
3503:Core/Inc/../../Drivers/CMSIS/DSP/Include/arm_math.h ****       uint8_t numStages,
3504:Core/Inc/../../Drivers/CMSIS/DSP/Include/arm_math.h ****       float32_t *pCoeffs,
3505:Core/Inc/../../Drivers/CMSIS/DSP/Include/arm_math.h ****       float32_t *pState);
3506:Core/Inc/../../Drivers/CMSIS/DSP/Include/arm_math.h **** 
3507:Core/Inc/../../Drivers/CMSIS/DSP/Include/arm_math.h ****   /**
3508:Core/Inc/../../Drivers/CMSIS/DSP/Include/arm_math.h ****    * @brief  Initialization function for the floating-point transposed direct form II Biquad cascad
ARM GAS  /var/folders/n6/c271nzx11xl4r4_m7sqjlt0m0000gn/T//ccGo3Vqh.s 			page 90


3509:Core/Inc/../../Drivers/CMSIS/DSP/Include/arm_math.h ****    * @param[in,out] S          points to an instance of the filter data structure.
3510:Core/Inc/../../Drivers/CMSIS/DSP/Include/arm_math.h ****    * @param[in]     numStages  number of 2nd order stages in the filter.
3511:Core/Inc/../../Drivers/CMSIS/DSP/Include/arm_math.h ****    * @param[in]     pCoeffs    points to the filter coefficients.
3512:Core/Inc/../../Drivers/CMSIS/DSP/Include/arm_math.h ****    * @param[in]     pState     points to the state buffer.
3513:Core/Inc/../../Drivers/CMSIS/DSP/Include/arm_math.h ****    */
3514:Core/Inc/../../Drivers/CMSIS/DSP/Include/arm_math.h ****   void arm_biquad_cascade_df2T_init_f64(
3515:Core/Inc/../../Drivers/CMSIS/DSP/Include/arm_math.h ****       arm_biquad_cascade_df2T_instance_f64 *S,
3516:Core/Inc/../../Drivers/CMSIS/DSP/Include/arm_math.h ****       uint8_t numStages,
3517:Core/Inc/../../Drivers/CMSIS/DSP/Include/arm_math.h ****       float64_t *pCoeffs,
3518:Core/Inc/../../Drivers/CMSIS/DSP/Include/arm_math.h ****       float64_t *pState);
3519:Core/Inc/../../Drivers/CMSIS/DSP/Include/arm_math.h **** 
3520:Core/Inc/../../Drivers/CMSIS/DSP/Include/arm_math.h ****   /**
3521:Core/Inc/../../Drivers/CMSIS/DSP/Include/arm_math.h ****    * @brief Instance structure for the Q15 FIR lattice filter.
3522:Core/Inc/../../Drivers/CMSIS/DSP/Include/arm_math.h ****    */
3523:Core/Inc/../../Drivers/CMSIS/DSP/Include/arm_math.h ****   typedef struct
3524:Core/Inc/../../Drivers/CMSIS/DSP/Include/arm_math.h ****   {
3525:Core/Inc/../../Drivers/CMSIS/DSP/Include/arm_math.h ****     uint16_t numStages; /**< number of filter stages. */
3526:Core/Inc/../../Drivers/CMSIS/DSP/Include/arm_math.h ****     q15_t *pState;      /**< points to the state variable array. The array is of length numStages. 
3527:Core/Inc/../../Drivers/CMSIS/DSP/Include/arm_math.h ****     q15_t *pCoeffs;     /**< points to the coefficient array. The array is of length numStages. */
3528:Core/Inc/../../Drivers/CMSIS/DSP/Include/arm_math.h ****   } arm_fir_lattice_instance_q15;
3529:Core/Inc/../../Drivers/CMSIS/DSP/Include/arm_math.h **** 
3530:Core/Inc/../../Drivers/CMSIS/DSP/Include/arm_math.h ****   /**
3531:Core/Inc/../../Drivers/CMSIS/DSP/Include/arm_math.h ****    * @brief Instance structure for the Q31 FIR lattice filter.
3532:Core/Inc/../../Drivers/CMSIS/DSP/Include/arm_math.h ****    */
3533:Core/Inc/../../Drivers/CMSIS/DSP/Include/arm_math.h ****   typedef struct
3534:Core/Inc/../../Drivers/CMSIS/DSP/Include/arm_math.h ****   {
3535:Core/Inc/../../Drivers/CMSIS/DSP/Include/arm_math.h ****     uint16_t numStages; /**< number of filter stages. */
3536:Core/Inc/../../Drivers/CMSIS/DSP/Include/arm_math.h ****     q31_t *pState;      /**< points to the state variable array. The array is of length numStages. 
3537:Core/Inc/../../Drivers/CMSIS/DSP/Include/arm_math.h ****     q31_t *pCoeffs;     /**< points to the coefficient array. The array is of length numStages. */
3538:Core/Inc/../../Drivers/CMSIS/DSP/Include/arm_math.h ****   } arm_fir_lattice_instance_q31;
3539:Core/Inc/../../Drivers/CMSIS/DSP/Include/arm_math.h **** 
3540:Core/Inc/../../Drivers/CMSIS/DSP/Include/arm_math.h ****   /**
3541:Core/Inc/../../Drivers/CMSIS/DSP/Include/arm_math.h ****    * @brief Instance structure for the floating-point FIR lattice filter.
3542:Core/Inc/../../Drivers/CMSIS/DSP/Include/arm_math.h ****    */
3543:Core/Inc/../../Drivers/CMSIS/DSP/Include/arm_math.h ****   typedef struct
3544:Core/Inc/../../Drivers/CMSIS/DSP/Include/arm_math.h ****   {
3545:Core/Inc/../../Drivers/CMSIS/DSP/Include/arm_math.h ****     uint16_t numStages; /**< number of filter stages. */
3546:Core/Inc/../../Drivers/CMSIS/DSP/Include/arm_math.h ****     float32_t *pState;  /**< points to the state variable array. The array is of length numStages. 
3547:Core/Inc/../../Drivers/CMSIS/DSP/Include/arm_math.h ****     float32_t *pCoeffs; /**< points to the coefficient array. The array is of length numStages. */
3548:Core/Inc/../../Drivers/CMSIS/DSP/Include/arm_math.h ****   } arm_fir_lattice_instance_f32;
3549:Core/Inc/../../Drivers/CMSIS/DSP/Include/arm_math.h **** 
3550:Core/Inc/../../Drivers/CMSIS/DSP/Include/arm_math.h ****   /**
3551:Core/Inc/../../Drivers/CMSIS/DSP/Include/arm_math.h ****    * @brief Initialization function for the Q15 FIR lattice filter.
3552:Core/Inc/../../Drivers/CMSIS/DSP/Include/arm_math.h ****    * @param[in] S          points to an instance of the Q15 FIR lattice structure.
3553:Core/Inc/../../Drivers/CMSIS/DSP/Include/arm_math.h ****    * @param[in] numStages  number of filter stages.
3554:Core/Inc/../../Drivers/CMSIS/DSP/Include/arm_math.h ****    * @param[in] pCoeffs    points to the coefficient buffer.  The array is of length numStages.
3555:Core/Inc/../../Drivers/CMSIS/DSP/Include/arm_math.h ****    * @param[in] pState     points to the state buffer.  The array is of length numStages.
3556:Core/Inc/../../Drivers/CMSIS/DSP/Include/arm_math.h ****    */
3557:Core/Inc/../../Drivers/CMSIS/DSP/Include/arm_math.h ****   void arm_fir_lattice_init_q15(
3558:Core/Inc/../../Drivers/CMSIS/DSP/Include/arm_math.h ****       arm_fir_lattice_instance_q15 *S,
3559:Core/Inc/../../Drivers/CMSIS/DSP/Include/arm_math.h ****       uint16_t numStages,
3560:Core/Inc/../../Drivers/CMSIS/DSP/Include/arm_math.h ****       q15_t *pCoeffs,
3561:Core/Inc/../../Drivers/CMSIS/DSP/Include/arm_math.h ****       q15_t *pState);
3562:Core/Inc/../../Drivers/CMSIS/DSP/Include/arm_math.h **** 
3563:Core/Inc/../../Drivers/CMSIS/DSP/Include/arm_math.h ****   /**
3564:Core/Inc/../../Drivers/CMSIS/DSP/Include/arm_math.h ****    * @brief Processing function for the Q15 FIR lattice filter.
3565:Core/Inc/../../Drivers/CMSIS/DSP/Include/arm_math.h ****    * @param[in]  S          points to an instance of the Q15 FIR lattice structure.
ARM GAS  /var/folders/n6/c271nzx11xl4r4_m7sqjlt0m0000gn/T//ccGo3Vqh.s 			page 91


3566:Core/Inc/../../Drivers/CMSIS/DSP/Include/arm_math.h ****    * @param[in]  pSrc       points to the block of input data.
3567:Core/Inc/../../Drivers/CMSIS/DSP/Include/arm_math.h ****    * @param[out] pDst       points to the block of output data.
3568:Core/Inc/../../Drivers/CMSIS/DSP/Include/arm_math.h ****    * @param[in]  blockSize  number of samples to process.
3569:Core/Inc/../../Drivers/CMSIS/DSP/Include/arm_math.h ****    */
3570:Core/Inc/../../Drivers/CMSIS/DSP/Include/arm_math.h ****   void arm_fir_lattice_q15(
3571:Core/Inc/../../Drivers/CMSIS/DSP/Include/arm_math.h ****       const arm_fir_lattice_instance_q15 *S,
3572:Core/Inc/../../Drivers/CMSIS/DSP/Include/arm_math.h ****       q15_t *pSrc,
3573:Core/Inc/../../Drivers/CMSIS/DSP/Include/arm_math.h ****       q15_t *pDst,
3574:Core/Inc/../../Drivers/CMSIS/DSP/Include/arm_math.h ****       uint32_t blockSize);
3575:Core/Inc/../../Drivers/CMSIS/DSP/Include/arm_math.h **** 
3576:Core/Inc/../../Drivers/CMSIS/DSP/Include/arm_math.h ****   /**
3577:Core/Inc/../../Drivers/CMSIS/DSP/Include/arm_math.h ****    * @brief Initialization function for the Q31 FIR lattice filter.
3578:Core/Inc/../../Drivers/CMSIS/DSP/Include/arm_math.h ****    * @param[in] S          points to an instance of the Q31 FIR lattice structure.
3579:Core/Inc/../../Drivers/CMSIS/DSP/Include/arm_math.h ****    * @param[in] numStages  number of filter stages.
3580:Core/Inc/../../Drivers/CMSIS/DSP/Include/arm_math.h ****    * @param[in] pCoeffs    points to the coefficient buffer.  The array is of length numStages.
3581:Core/Inc/../../Drivers/CMSIS/DSP/Include/arm_math.h ****    * @param[in] pState     points to the state buffer.   The array is of length numStages.
3582:Core/Inc/../../Drivers/CMSIS/DSP/Include/arm_math.h ****    */
3583:Core/Inc/../../Drivers/CMSIS/DSP/Include/arm_math.h ****   void arm_fir_lattice_init_q31(
3584:Core/Inc/../../Drivers/CMSIS/DSP/Include/arm_math.h ****       arm_fir_lattice_instance_q31 *S,
3585:Core/Inc/../../Drivers/CMSIS/DSP/Include/arm_math.h ****       uint16_t numStages,
3586:Core/Inc/../../Drivers/CMSIS/DSP/Include/arm_math.h ****       q31_t *pCoeffs,
3587:Core/Inc/../../Drivers/CMSIS/DSP/Include/arm_math.h ****       q31_t *pState);
3588:Core/Inc/../../Drivers/CMSIS/DSP/Include/arm_math.h **** 
3589:Core/Inc/../../Drivers/CMSIS/DSP/Include/arm_math.h ****   /**
3590:Core/Inc/../../Drivers/CMSIS/DSP/Include/arm_math.h ****    * @brief Processing function for the Q31 FIR lattice filter.
3591:Core/Inc/../../Drivers/CMSIS/DSP/Include/arm_math.h ****    * @param[in]  S          points to an instance of the Q31 FIR lattice structure.
3592:Core/Inc/../../Drivers/CMSIS/DSP/Include/arm_math.h ****    * @param[in]  pSrc       points to the block of input data.
3593:Core/Inc/../../Drivers/CMSIS/DSP/Include/arm_math.h ****    * @param[out] pDst       points to the block of output data
3594:Core/Inc/../../Drivers/CMSIS/DSP/Include/arm_math.h ****    * @param[in]  blockSize  number of samples to process.
3595:Core/Inc/../../Drivers/CMSIS/DSP/Include/arm_math.h ****    */
3596:Core/Inc/../../Drivers/CMSIS/DSP/Include/arm_math.h ****   void arm_fir_lattice_q31(
3597:Core/Inc/../../Drivers/CMSIS/DSP/Include/arm_math.h ****       const arm_fir_lattice_instance_q31 *S,
3598:Core/Inc/../../Drivers/CMSIS/DSP/Include/arm_math.h ****       q31_t *pSrc,
3599:Core/Inc/../../Drivers/CMSIS/DSP/Include/arm_math.h ****       q31_t *pDst,
3600:Core/Inc/../../Drivers/CMSIS/DSP/Include/arm_math.h ****       uint32_t blockSize);
3601:Core/Inc/../../Drivers/CMSIS/DSP/Include/arm_math.h **** 
3602:Core/Inc/../../Drivers/CMSIS/DSP/Include/arm_math.h ****   /**
3603:Core/Inc/../../Drivers/CMSIS/DSP/Include/arm_math.h ****    * @brief Initialization function for the floating-point FIR lattice filter.
3604:Core/Inc/../../Drivers/CMSIS/DSP/Include/arm_math.h ****    * @param[in] S          points to an instance of the floating-point FIR lattice structure.
3605:Core/Inc/../../Drivers/CMSIS/DSP/Include/arm_math.h ****    * @param[in] numStages  number of filter stages.
3606:Core/Inc/../../Drivers/CMSIS/DSP/Include/arm_math.h ****    * @param[in] pCoeffs    points to the coefficient buffer.  The array is of length numStages.
3607:Core/Inc/../../Drivers/CMSIS/DSP/Include/arm_math.h ****    * @param[in] pState     points to the state buffer.  The array is of length numStages.
3608:Core/Inc/../../Drivers/CMSIS/DSP/Include/arm_math.h ****    */
3609:Core/Inc/../../Drivers/CMSIS/DSP/Include/arm_math.h ****   void arm_fir_lattice_init_f32(
3610:Core/Inc/../../Drivers/CMSIS/DSP/Include/arm_math.h ****       arm_fir_lattice_instance_f32 *S,
3611:Core/Inc/../../Drivers/CMSIS/DSP/Include/arm_math.h ****       uint16_t numStages,
3612:Core/Inc/../../Drivers/CMSIS/DSP/Include/arm_math.h ****       float32_t *pCoeffs,
3613:Core/Inc/../../Drivers/CMSIS/DSP/Include/arm_math.h ****       float32_t *pState);
3614:Core/Inc/../../Drivers/CMSIS/DSP/Include/arm_math.h **** 
3615:Core/Inc/../../Drivers/CMSIS/DSP/Include/arm_math.h ****   /**
3616:Core/Inc/../../Drivers/CMSIS/DSP/Include/arm_math.h ****    * @brief Processing function for the floating-point FIR lattice filter.
3617:Core/Inc/../../Drivers/CMSIS/DSP/Include/arm_math.h ****    * @param[in]  S          points to an instance of the floating-point FIR lattice structure.
3618:Core/Inc/../../Drivers/CMSIS/DSP/Include/arm_math.h ****    * @param[in]  pSrc       points to the block of input data.
3619:Core/Inc/../../Drivers/CMSIS/DSP/Include/arm_math.h ****    * @param[out] pDst       points to the block of output data
3620:Core/Inc/../../Drivers/CMSIS/DSP/Include/arm_math.h ****    * @param[in]  blockSize  number of samples to process.
3621:Core/Inc/../../Drivers/CMSIS/DSP/Include/arm_math.h ****    */
3622:Core/Inc/../../Drivers/CMSIS/DSP/Include/arm_math.h ****   void arm_fir_lattice_f32(
ARM GAS  /var/folders/n6/c271nzx11xl4r4_m7sqjlt0m0000gn/T//ccGo3Vqh.s 			page 92


3623:Core/Inc/../../Drivers/CMSIS/DSP/Include/arm_math.h ****       const arm_fir_lattice_instance_f32 *S,
3624:Core/Inc/../../Drivers/CMSIS/DSP/Include/arm_math.h ****       float32_t *pSrc,
3625:Core/Inc/../../Drivers/CMSIS/DSP/Include/arm_math.h ****       float32_t *pDst,
3626:Core/Inc/../../Drivers/CMSIS/DSP/Include/arm_math.h ****       uint32_t blockSize);
3627:Core/Inc/../../Drivers/CMSIS/DSP/Include/arm_math.h **** 
3628:Core/Inc/../../Drivers/CMSIS/DSP/Include/arm_math.h ****   /**
3629:Core/Inc/../../Drivers/CMSIS/DSP/Include/arm_math.h ****    * @brief Instance structure for the Q15 IIR lattice filter.
3630:Core/Inc/../../Drivers/CMSIS/DSP/Include/arm_math.h ****    */
3631:Core/Inc/../../Drivers/CMSIS/DSP/Include/arm_math.h ****   typedef struct
3632:Core/Inc/../../Drivers/CMSIS/DSP/Include/arm_math.h ****   {
3633:Core/Inc/../../Drivers/CMSIS/DSP/Include/arm_math.h ****     uint16_t numStages; /**< number of stages in the filter. */
3634:Core/Inc/../../Drivers/CMSIS/DSP/Include/arm_math.h ****     q15_t *pState;      /**< points to the state variable array. The array is of length numStages+b
3635:Core/Inc/../../Drivers/CMSIS/DSP/Include/arm_math.h ****     q15_t *pkCoeffs;    /**< points to the reflection coefficient array. The array is of length num
3636:Core/Inc/../../Drivers/CMSIS/DSP/Include/arm_math.h ****     q15_t *pvCoeffs;    /**< points to the ladder coefficient array. The array is of length numStag
3637:Core/Inc/../../Drivers/CMSIS/DSP/Include/arm_math.h ****   } arm_iir_lattice_instance_q15;
3638:Core/Inc/../../Drivers/CMSIS/DSP/Include/arm_math.h **** 
3639:Core/Inc/../../Drivers/CMSIS/DSP/Include/arm_math.h ****   /**
3640:Core/Inc/../../Drivers/CMSIS/DSP/Include/arm_math.h ****    * @brief Instance structure for the Q31 IIR lattice filter.
3641:Core/Inc/../../Drivers/CMSIS/DSP/Include/arm_math.h ****    */
3642:Core/Inc/../../Drivers/CMSIS/DSP/Include/arm_math.h ****   typedef struct
3643:Core/Inc/../../Drivers/CMSIS/DSP/Include/arm_math.h ****   {
3644:Core/Inc/../../Drivers/CMSIS/DSP/Include/arm_math.h ****     uint16_t numStages; /**< number of stages in the filter. */
3645:Core/Inc/../../Drivers/CMSIS/DSP/Include/arm_math.h ****     q31_t *pState;      /**< points to the state variable array. The array is of length numStages+b
3646:Core/Inc/../../Drivers/CMSIS/DSP/Include/arm_math.h ****     q31_t *pkCoeffs;    /**< points to the reflection coefficient array. The array is of length num
3647:Core/Inc/../../Drivers/CMSIS/DSP/Include/arm_math.h ****     q31_t *pvCoeffs;    /**< points to the ladder coefficient array. The array is of length numStag
3648:Core/Inc/../../Drivers/CMSIS/DSP/Include/arm_math.h ****   } arm_iir_lattice_instance_q31;
3649:Core/Inc/../../Drivers/CMSIS/DSP/Include/arm_math.h **** 
3650:Core/Inc/../../Drivers/CMSIS/DSP/Include/arm_math.h ****   /**
3651:Core/Inc/../../Drivers/CMSIS/DSP/Include/arm_math.h ****    * @brief Instance structure for the floating-point IIR lattice filter.
3652:Core/Inc/../../Drivers/CMSIS/DSP/Include/arm_math.h ****    */
3653:Core/Inc/../../Drivers/CMSIS/DSP/Include/arm_math.h ****   typedef struct
3654:Core/Inc/../../Drivers/CMSIS/DSP/Include/arm_math.h ****   {
3655:Core/Inc/../../Drivers/CMSIS/DSP/Include/arm_math.h ****     uint16_t numStages;  /**< number of stages in the filter. */
3656:Core/Inc/../../Drivers/CMSIS/DSP/Include/arm_math.h ****     float32_t *pState;   /**< points to the state variable array. The array is of length numStages+
3657:Core/Inc/../../Drivers/CMSIS/DSP/Include/arm_math.h ****     float32_t *pkCoeffs; /**< points to the reflection coefficient array. The array is of length nu
3658:Core/Inc/../../Drivers/CMSIS/DSP/Include/arm_math.h ****     float32_t *pvCoeffs; /**< points to the ladder coefficient array. The array is of length numSta
3659:Core/Inc/../../Drivers/CMSIS/DSP/Include/arm_math.h ****   } arm_iir_lattice_instance_f32;
3660:Core/Inc/../../Drivers/CMSIS/DSP/Include/arm_math.h **** 
3661:Core/Inc/../../Drivers/CMSIS/DSP/Include/arm_math.h ****   /**
3662:Core/Inc/../../Drivers/CMSIS/DSP/Include/arm_math.h ****    * @brief Processing function for the floating-point IIR lattice filter.
3663:Core/Inc/../../Drivers/CMSIS/DSP/Include/arm_math.h ****    * @param[in]  S          points to an instance of the floating-point IIR lattice structure.
3664:Core/Inc/../../Drivers/CMSIS/DSP/Include/arm_math.h ****    * @param[in]  pSrc       points to the block of input data.
3665:Core/Inc/../../Drivers/CMSIS/DSP/Include/arm_math.h ****    * @param[out] pDst       points to the block of output data.
3666:Core/Inc/../../Drivers/CMSIS/DSP/Include/arm_math.h ****    * @param[in]  blockSize  number of samples to process.
3667:Core/Inc/../../Drivers/CMSIS/DSP/Include/arm_math.h ****    */
3668:Core/Inc/../../Drivers/CMSIS/DSP/Include/arm_math.h ****   void arm_iir_lattice_f32(
3669:Core/Inc/../../Drivers/CMSIS/DSP/Include/arm_math.h ****       const arm_iir_lattice_instance_f32 *S,
3670:Core/Inc/../../Drivers/CMSIS/DSP/Include/arm_math.h ****       float32_t *pSrc,
3671:Core/Inc/../../Drivers/CMSIS/DSP/Include/arm_math.h ****       float32_t *pDst,
3672:Core/Inc/../../Drivers/CMSIS/DSP/Include/arm_math.h ****       uint32_t blockSize);
3673:Core/Inc/../../Drivers/CMSIS/DSP/Include/arm_math.h **** 
3674:Core/Inc/../../Drivers/CMSIS/DSP/Include/arm_math.h ****   /**
3675:Core/Inc/../../Drivers/CMSIS/DSP/Include/arm_math.h ****    * @brief Initialization function for the floating-point IIR lattice filter.
3676:Core/Inc/../../Drivers/CMSIS/DSP/Include/arm_math.h ****    * @param[in] S          points to an instance of the floating-point IIR lattice structure.
3677:Core/Inc/../../Drivers/CMSIS/DSP/Include/arm_math.h ****    * @param[in] numStages  number of stages in the filter.
3678:Core/Inc/../../Drivers/CMSIS/DSP/Include/arm_math.h ****    * @param[in] pkCoeffs   points to the reflection coefficient buffer.  The array is of length num
3679:Core/Inc/../../Drivers/CMSIS/DSP/Include/arm_math.h ****    * @param[in] pvCoeffs   points to the ladder coefficient buffer.  The array is of length numStag
ARM GAS  /var/folders/n6/c271nzx11xl4r4_m7sqjlt0m0000gn/T//ccGo3Vqh.s 			page 93


3680:Core/Inc/../../Drivers/CMSIS/DSP/Include/arm_math.h ****    * @param[in] pState     points to the state buffer.  The array is of length numStages+blockSize-
3681:Core/Inc/../../Drivers/CMSIS/DSP/Include/arm_math.h ****    * @param[in] blockSize  number of samples to process.
3682:Core/Inc/../../Drivers/CMSIS/DSP/Include/arm_math.h ****    */
3683:Core/Inc/../../Drivers/CMSIS/DSP/Include/arm_math.h ****   void arm_iir_lattice_init_f32(
3684:Core/Inc/../../Drivers/CMSIS/DSP/Include/arm_math.h ****       arm_iir_lattice_instance_f32 *S,
3685:Core/Inc/../../Drivers/CMSIS/DSP/Include/arm_math.h ****       uint16_t numStages,
3686:Core/Inc/../../Drivers/CMSIS/DSP/Include/arm_math.h ****       float32_t *pkCoeffs,
3687:Core/Inc/../../Drivers/CMSIS/DSP/Include/arm_math.h ****       float32_t *pvCoeffs,
3688:Core/Inc/../../Drivers/CMSIS/DSP/Include/arm_math.h ****       float32_t *pState,
3689:Core/Inc/../../Drivers/CMSIS/DSP/Include/arm_math.h ****       uint32_t blockSize);
3690:Core/Inc/../../Drivers/CMSIS/DSP/Include/arm_math.h **** 
3691:Core/Inc/../../Drivers/CMSIS/DSP/Include/arm_math.h ****   /**
3692:Core/Inc/../../Drivers/CMSIS/DSP/Include/arm_math.h ****    * @brief Processing function for the Q31 IIR lattice filter.
3693:Core/Inc/../../Drivers/CMSIS/DSP/Include/arm_math.h ****    * @param[in]  S          points to an instance of the Q31 IIR lattice structure.
3694:Core/Inc/../../Drivers/CMSIS/DSP/Include/arm_math.h ****    * @param[in]  pSrc       points to the block of input data.
3695:Core/Inc/../../Drivers/CMSIS/DSP/Include/arm_math.h ****    * @param[out] pDst       points to the block of output data.
3696:Core/Inc/../../Drivers/CMSIS/DSP/Include/arm_math.h ****    * @param[in]  blockSize  number of samples to process.
3697:Core/Inc/../../Drivers/CMSIS/DSP/Include/arm_math.h ****    */
3698:Core/Inc/../../Drivers/CMSIS/DSP/Include/arm_math.h ****   void arm_iir_lattice_q31(
3699:Core/Inc/../../Drivers/CMSIS/DSP/Include/arm_math.h ****       const arm_iir_lattice_instance_q31 *S,
3700:Core/Inc/../../Drivers/CMSIS/DSP/Include/arm_math.h ****       q31_t *pSrc,
3701:Core/Inc/../../Drivers/CMSIS/DSP/Include/arm_math.h ****       q31_t *pDst,
3702:Core/Inc/../../Drivers/CMSIS/DSP/Include/arm_math.h ****       uint32_t blockSize);
3703:Core/Inc/../../Drivers/CMSIS/DSP/Include/arm_math.h **** 
3704:Core/Inc/../../Drivers/CMSIS/DSP/Include/arm_math.h ****   /**
3705:Core/Inc/../../Drivers/CMSIS/DSP/Include/arm_math.h ****    * @brief Initialization function for the Q31 IIR lattice filter.
3706:Core/Inc/../../Drivers/CMSIS/DSP/Include/arm_math.h ****    * @param[in] S          points to an instance of the Q31 IIR lattice structure.
3707:Core/Inc/../../Drivers/CMSIS/DSP/Include/arm_math.h ****    * @param[in] numStages  number of stages in the filter.
3708:Core/Inc/../../Drivers/CMSIS/DSP/Include/arm_math.h ****    * @param[in] pkCoeffs   points to the reflection coefficient buffer.  The array is of length num
3709:Core/Inc/../../Drivers/CMSIS/DSP/Include/arm_math.h ****    * @param[in] pvCoeffs   points to the ladder coefficient buffer.  The array is of length numStag
3710:Core/Inc/../../Drivers/CMSIS/DSP/Include/arm_math.h ****    * @param[in] pState     points to the state buffer.  The array is of length numStages+blockSize.
3711:Core/Inc/../../Drivers/CMSIS/DSP/Include/arm_math.h ****    * @param[in] blockSize  number of samples to process.
3712:Core/Inc/../../Drivers/CMSIS/DSP/Include/arm_math.h ****    */
3713:Core/Inc/../../Drivers/CMSIS/DSP/Include/arm_math.h ****   void arm_iir_lattice_init_q31(
3714:Core/Inc/../../Drivers/CMSIS/DSP/Include/arm_math.h ****       arm_iir_lattice_instance_q31 *S,
3715:Core/Inc/../../Drivers/CMSIS/DSP/Include/arm_math.h ****       uint16_t numStages,
3716:Core/Inc/../../Drivers/CMSIS/DSP/Include/arm_math.h ****       q31_t *pkCoeffs,
3717:Core/Inc/../../Drivers/CMSIS/DSP/Include/arm_math.h ****       q31_t *pvCoeffs,
3718:Core/Inc/../../Drivers/CMSIS/DSP/Include/arm_math.h ****       q31_t *pState,
3719:Core/Inc/../../Drivers/CMSIS/DSP/Include/arm_math.h ****       uint32_t blockSize);
3720:Core/Inc/../../Drivers/CMSIS/DSP/Include/arm_math.h **** 
3721:Core/Inc/../../Drivers/CMSIS/DSP/Include/arm_math.h ****   /**
3722:Core/Inc/../../Drivers/CMSIS/DSP/Include/arm_math.h ****    * @brief Processing function for the Q15 IIR lattice filter.
3723:Core/Inc/../../Drivers/CMSIS/DSP/Include/arm_math.h ****    * @param[in]  S          points to an instance of the Q15 IIR lattice structure.
3724:Core/Inc/../../Drivers/CMSIS/DSP/Include/arm_math.h ****    * @param[in]  pSrc       points to the block of input data.
3725:Core/Inc/../../Drivers/CMSIS/DSP/Include/arm_math.h ****    * @param[out] pDst       points to the block of output data.
3726:Core/Inc/../../Drivers/CMSIS/DSP/Include/arm_math.h ****    * @param[in]  blockSize  number of samples to process.
3727:Core/Inc/../../Drivers/CMSIS/DSP/Include/arm_math.h ****    */
3728:Core/Inc/../../Drivers/CMSIS/DSP/Include/arm_math.h ****   void arm_iir_lattice_q15(
3729:Core/Inc/../../Drivers/CMSIS/DSP/Include/arm_math.h ****       const arm_iir_lattice_instance_q15 *S,
3730:Core/Inc/../../Drivers/CMSIS/DSP/Include/arm_math.h ****       q15_t *pSrc,
3731:Core/Inc/../../Drivers/CMSIS/DSP/Include/arm_math.h ****       q15_t *pDst,
3732:Core/Inc/../../Drivers/CMSIS/DSP/Include/arm_math.h ****       uint32_t blockSize);
3733:Core/Inc/../../Drivers/CMSIS/DSP/Include/arm_math.h **** 
3734:Core/Inc/../../Drivers/CMSIS/DSP/Include/arm_math.h ****   /**
3735:Core/Inc/../../Drivers/CMSIS/DSP/Include/arm_math.h ****    * @brief Initialization function for the Q15 IIR lattice filter.
3736:Core/Inc/../../Drivers/CMSIS/DSP/Include/arm_math.h ****    * @param[in] S          points to an instance of the fixed-point Q15 IIR lattice structure.
ARM GAS  /var/folders/n6/c271nzx11xl4r4_m7sqjlt0m0000gn/T//ccGo3Vqh.s 			page 94


3737:Core/Inc/../../Drivers/CMSIS/DSP/Include/arm_math.h ****    * @param[in] numStages  number of stages in the filter.
3738:Core/Inc/../../Drivers/CMSIS/DSP/Include/arm_math.h ****    * @param[in] pkCoeffs   points to reflection coefficient buffer.  The array is of length numStag
3739:Core/Inc/../../Drivers/CMSIS/DSP/Include/arm_math.h ****    * @param[in] pvCoeffs   points to ladder coefficient buffer.  The array is of length numStages+1
3740:Core/Inc/../../Drivers/CMSIS/DSP/Include/arm_math.h ****    * @param[in] pState     points to state buffer.  The array is of length numStages+blockSize.
3741:Core/Inc/../../Drivers/CMSIS/DSP/Include/arm_math.h ****    * @param[in] blockSize  number of samples to process per call.
3742:Core/Inc/../../Drivers/CMSIS/DSP/Include/arm_math.h ****    */
3743:Core/Inc/../../Drivers/CMSIS/DSP/Include/arm_math.h ****   void arm_iir_lattice_init_q15(
3744:Core/Inc/../../Drivers/CMSIS/DSP/Include/arm_math.h ****       arm_iir_lattice_instance_q15 *S,
3745:Core/Inc/../../Drivers/CMSIS/DSP/Include/arm_math.h ****       uint16_t numStages,
3746:Core/Inc/../../Drivers/CMSIS/DSP/Include/arm_math.h ****       q15_t *pkCoeffs,
3747:Core/Inc/../../Drivers/CMSIS/DSP/Include/arm_math.h ****       q15_t *pvCoeffs,
3748:Core/Inc/../../Drivers/CMSIS/DSP/Include/arm_math.h ****       q15_t *pState,
3749:Core/Inc/../../Drivers/CMSIS/DSP/Include/arm_math.h ****       uint32_t blockSize);
3750:Core/Inc/../../Drivers/CMSIS/DSP/Include/arm_math.h **** 
3751:Core/Inc/../../Drivers/CMSIS/DSP/Include/arm_math.h ****   /**
3752:Core/Inc/../../Drivers/CMSIS/DSP/Include/arm_math.h ****    * @brief Instance structure for the floating-point LMS filter.
3753:Core/Inc/../../Drivers/CMSIS/DSP/Include/arm_math.h ****    */
3754:Core/Inc/../../Drivers/CMSIS/DSP/Include/arm_math.h ****   typedef struct
3755:Core/Inc/../../Drivers/CMSIS/DSP/Include/arm_math.h ****   {
3756:Core/Inc/../../Drivers/CMSIS/DSP/Include/arm_math.h ****     uint16_t numTaps;   /**< number of coefficients in the filter. */
3757:Core/Inc/../../Drivers/CMSIS/DSP/Include/arm_math.h ****     float32_t *pState;  /**< points to the state variable array. The array is of length numTaps+blo
3758:Core/Inc/../../Drivers/CMSIS/DSP/Include/arm_math.h ****     float32_t *pCoeffs; /**< points to the coefficient array. The array is of length numTaps. */
3759:Core/Inc/../../Drivers/CMSIS/DSP/Include/arm_math.h ****     float32_t mu;       /**< step size that controls filter coefficient updates. */
3760:Core/Inc/../../Drivers/CMSIS/DSP/Include/arm_math.h ****   } arm_lms_instance_f32;
3761:Core/Inc/../../Drivers/CMSIS/DSP/Include/arm_math.h **** 
3762:Core/Inc/../../Drivers/CMSIS/DSP/Include/arm_math.h ****   /**
3763:Core/Inc/../../Drivers/CMSIS/DSP/Include/arm_math.h ****    * @brief Processing function for floating-point LMS filter.
3764:Core/Inc/../../Drivers/CMSIS/DSP/Include/arm_math.h ****    * @param[in]  S          points to an instance of the floating-point LMS filter structure.
3765:Core/Inc/../../Drivers/CMSIS/DSP/Include/arm_math.h ****    * @param[in]  pSrc       points to the block of input data.
3766:Core/Inc/../../Drivers/CMSIS/DSP/Include/arm_math.h ****    * @param[in]  pRef       points to the block of reference data.
3767:Core/Inc/../../Drivers/CMSIS/DSP/Include/arm_math.h ****    * @param[out] pOut       points to the block of output data.
3768:Core/Inc/../../Drivers/CMSIS/DSP/Include/arm_math.h ****    * @param[out] pErr       points to the block of error data.
3769:Core/Inc/../../Drivers/CMSIS/DSP/Include/arm_math.h ****    * @param[in]  blockSize  number of samples to process.
3770:Core/Inc/../../Drivers/CMSIS/DSP/Include/arm_math.h ****    */
3771:Core/Inc/../../Drivers/CMSIS/DSP/Include/arm_math.h ****   void arm_lms_f32(
3772:Core/Inc/../../Drivers/CMSIS/DSP/Include/arm_math.h ****       const arm_lms_instance_f32 *S,
3773:Core/Inc/../../Drivers/CMSIS/DSP/Include/arm_math.h ****       float32_t *pSrc,
3774:Core/Inc/../../Drivers/CMSIS/DSP/Include/arm_math.h ****       float32_t *pRef,
3775:Core/Inc/../../Drivers/CMSIS/DSP/Include/arm_math.h ****       float32_t *pOut,
3776:Core/Inc/../../Drivers/CMSIS/DSP/Include/arm_math.h ****       float32_t *pErr,
3777:Core/Inc/../../Drivers/CMSIS/DSP/Include/arm_math.h ****       uint32_t blockSize);
3778:Core/Inc/../../Drivers/CMSIS/DSP/Include/arm_math.h **** 
3779:Core/Inc/../../Drivers/CMSIS/DSP/Include/arm_math.h ****   /**
3780:Core/Inc/../../Drivers/CMSIS/DSP/Include/arm_math.h ****    * @brief Initialization function for floating-point LMS filter.
3781:Core/Inc/../../Drivers/CMSIS/DSP/Include/arm_math.h ****    * @param[in] S          points to an instance of the floating-point LMS filter structure.
3782:Core/Inc/../../Drivers/CMSIS/DSP/Include/arm_math.h ****    * @param[in] numTaps    number of filter coefficients.
3783:Core/Inc/../../Drivers/CMSIS/DSP/Include/arm_math.h ****    * @param[in] pCoeffs    points to the coefficient buffer.
3784:Core/Inc/../../Drivers/CMSIS/DSP/Include/arm_math.h ****    * @param[in] pState     points to state buffer.
3785:Core/Inc/../../Drivers/CMSIS/DSP/Include/arm_math.h ****    * @param[in] mu         step size that controls filter coefficient updates.
3786:Core/Inc/../../Drivers/CMSIS/DSP/Include/arm_math.h ****    * @param[in] blockSize  number of samples to process.
3787:Core/Inc/../../Drivers/CMSIS/DSP/Include/arm_math.h ****    */
3788:Core/Inc/../../Drivers/CMSIS/DSP/Include/arm_math.h ****   void arm_lms_init_f32(
3789:Core/Inc/../../Drivers/CMSIS/DSP/Include/arm_math.h ****       arm_lms_instance_f32 *S,
3790:Core/Inc/../../Drivers/CMSIS/DSP/Include/arm_math.h ****       uint16_t numTaps,
3791:Core/Inc/../../Drivers/CMSIS/DSP/Include/arm_math.h ****       float32_t *pCoeffs,
3792:Core/Inc/../../Drivers/CMSIS/DSP/Include/arm_math.h ****       float32_t *pState,
3793:Core/Inc/../../Drivers/CMSIS/DSP/Include/arm_math.h ****       float32_t mu,
ARM GAS  /var/folders/n6/c271nzx11xl4r4_m7sqjlt0m0000gn/T//ccGo3Vqh.s 			page 95


3794:Core/Inc/../../Drivers/CMSIS/DSP/Include/arm_math.h ****       uint32_t blockSize);
3795:Core/Inc/../../Drivers/CMSIS/DSP/Include/arm_math.h **** 
3796:Core/Inc/../../Drivers/CMSIS/DSP/Include/arm_math.h ****   /**
3797:Core/Inc/../../Drivers/CMSIS/DSP/Include/arm_math.h ****    * @brief Instance structure for the Q15 LMS filter.
3798:Core/Inc/../../Drivers/CMSIS/DSP/Include/arm_math.h ****    */
3799:Core/Inc/../../Drivers/CMSIS/DSP/Include/arm_math.h ****   typedef struct
3800:Core/Inc/../../Drivers/CMSIS/DSP/Include/arm_math.h ****   {
3801:Core/Inc/../../Drivers/CMSIS/DSP/Include/arm_math.h ****     uint16_t numTaps;   /**< number of coefficients in the filter. */
3802:Core/Inc/../../Drivers/CMSIS/DSP/Include/arm_math.h ****     q15_t *pState;      /**< points to the state variable array. The array is of length numTaps+blo
3803:Core/Inc/../../Drivers/CMSIS/DSP/Include/arm_math.h ****     q15_t *pCoeffs;     /**< points to the coefficient array. The array is of length numTaps. */
3804:Core/Inc/../../Drivers/CMSIS/DSP/Include/arm_math.h ****     q15_t mu;           /**< step size that controls filter coefficient updates. */
3805:Core/Inc/../../Drivers/CMSIS/DSP/Include/arm_math.h ****     uint32_t postShift; /**< bit shift applied to coefficients. */
3806:Core/Inc/../../Drivers/CMSIS/DSP/Include/arm_math.h ****   } arm_lms_instance_q15;
3807:Core/Inc/../../Drivers/CMSIS/DSP/Include/arm_math.h **** 
3808:Core/Inc/../../Drivers/CMSIS/DSP/Include/arm_math.h ****   /**
3809:Core/Inc/../../Drivers/CMSIS/DSP/Include/arm_math.h ****    * @brief Initialization function for the Q15 LMS filter.
3810:Core/Inc/../../Drivers/CMSIS/DSP/Include/arm_math.h ****    * @param[in] S          points to an instance of the Q15 LMS filter structure.
3811:Core/Inc/../../Drivers/CMSIS/DSP/Include/arm_math.h ****    * @param[in] numTaps    number of filter coefficients.
3812:Core/Inc/../../Drivers/CMSIS/DSP/Include/arm_math.h ****    * @param[in] pCoeffs    points to the coefficient buffer.
3813:Core/Inc/../../Drivers/CMSIS/DSP/Include/arm_math.h ****    * @param[in] pState     points to the state buffer.
3814:Core/Inc/../../Drivers/CMSIS/DSP/Include/arm_math.h ****    * @param[in] mu         step size that controls filter coefficient updates.
3815:Core/Inc/../../Drivers/CMSIS/DSP/Include/arm_math.h ****    * @param[in] blockSize  number of samples to process.
3816:Core/Inc/../../Drivers/CMSIS/DSP/Include/arm_math.h ****    * @param[in] postShift  bit shift applied to coefficients.
3817:Core/Inc/../../Drivers/CMSIS/DSP/Include/arm_math.h ****    */
3818:Core/Inc/../../Drivers/CMSIS/DSP/Include/arm_math.h ****   void arm_lms_init_q15(
3819:Core/Inc/../../Drivers/CMSIS/DSP/Include/arm_math.h ****       arm_lms_instance_q15 *S,
3820:Core/Inc/../../Drivers/CMSIS/DSP/Include/arm_math.h ****       uint16_t numTaps,
3821:Core/Inc/../../Drivers/CMSIS/DSP/Include/arm_math.h ****       q15_t *pCoeffs,
3822:Core/Inc/../../Drivers/CMSIS/DSP/Include/arm_math.h ****       q15_t *pState,
3823:Core/Inc/../../Drivers/CMSIS/DSP/Include/arm_math.h ****       q15_t mu,
3824:Core/Inc/../../Drivers/CMSIS/DSP/Include/arm_math.h ****       uint32_t blockSize,
3825:Core/Inc/../../Drivers/CMSIS/DSP/Include/arm_math.h ****       uint32_t postShift);
3826:Core/Inc/../../Drivers/CMSIS/DSP/Include/arm_math.h **** 
3827:Core/Inc/../../Drivers/CMSIS/DSP/Include/arm_math.h ****   /**
3828:Core/Inc/../../Drivers/CMSIS/DSP/Include/arm_math.h ****    * @brief Processing function for Q15 LMS filter.
3829:Core/Inc/../../Drivers/CMSIS/DSP/Include/arm_math.h ****    * @param[in]  S          points to an instance of the Q15 LMS filter structure.
3830:Core/Inc/../../Drivers/CMSIS/DSP/Include/arm_math.h ****    * @param[in]  pSrc       points to the block of input data.
3831:Core/Inc/../../Drivers/CMSIS/DSP/Include/arm_math.h ****    * @param[in]  pRef       points to the block of reference data.
3832:Core/Inc/../../Drivers/CMSIS/DSP/Include/arm_math.h ****    * @param[out] pOut       points to the block of output data.
3833:Core/Inc/../../Drivers/CMSIS/DSP/Include/arm_math.h ****    * @param[out] pErr       points to the block of error data.
3834:Core/Inc/../../Drivers/CMSIS/DSP/Include/arm_math.h ****    * @param[in]  blockSize  number of samples to process.
3835:Core/Inc/../../Drivers/CMSIS/DSP/Include/arm_math.h ****    */
3836:Core/Inc/../../Drivers/CMSIS/DSP/Include/arm_math.h ****   void arm_lms_q15(
3837:Core/Inc/../../Drivers/CMSIS/DSP/Include/arm_math.h ****       const arm_lms_instance_q15 *S,
3838:Core/Inc/../../Drivers/CMSIS/DSP/Include/arm_math.h ****       q15_t *pSrc,
3839:Core/Inc/../../Drivers/CMSIS/DSP/Include/arm_math.h ****       q15_t *pRef,
3840:Core/Inc/../../Drivers/CMSIS/DSP/Include/arm_math.h ****       q15_t *pOut,
3841:Core/Inc/../../Drivers/CMSIS/DSP/Include/arm_math.h ****       q15_t *pErr,
3842:Core/Inc/../../Drivers/CMSIS/DSP/Include/arm_math.h ****       uint32_t blockSize);
3843:Core/Inc/../../Drivers/CMSIS/DSP/Include/arm_math.h **** 
3844:Core/Inc/../../Drivers/CMSIS/DSP/Include/arm_math.h ****   /**
3845:Core/Inc/../../Drivers/CMSIS/DSP/Include/arm_math.h ****    * @brief Instance structure for the Q31 LMS filter.
3846:Core/Inc/../../Drivers/CMSIS/DSP/Include/arm_math.h ****    */
3847:Core/Inc/../../Drivers/CMSIS/DSP/Include/arm_math.h ****   typedef struct
3848:Core/Inc/../../Drivers/CMSIS/DSP/Include/arm_math.h ****   {
3849:Core/Inc/../../Drivers/CMSIS/DSP/Include/arm_math.h ****     uint16_t numTaps;   /**< number of coefficients in the filter. */
3850:Core/Inc/../../Drivers/CMSIS/DSP/Include/arm_math.h ****     q31_t *pState;      /**< points to the state variable array. The array is of length numTaps+blo
ARM GAS  /var/folders/n6/c271nzx11xl4r4_m7sqjlt0m0000gn/T//ccGo3Vqh.s 			page 96


3851:Core/Inc/../../Drivers/CMSIS/DSP/Include/arm_math.h ****     q31_t *pCoeffs;     /**< points to the coefficient array. The array is of length numTaps. */
3852:Core/Inc/../../Drivers/CMSIS/DSP/Include/arm_math.h ****     q31_t mu;           /**< step size that controls filter coefficient updates. */
3853:Core/Inc/../../Drivers/CMSIS/DSP/Include/arm_math.h ****     uint32_t postShift; /**< bit shift applied to coefficients. */
3854:Core/Inc/../../Drivers/CMSIS/DSP/Include/arm_math.h ****   } arm_lms_instance_q31;
3855:Core/Inc/../../Drivers/CMSIS/DSP/Include/arm_math.h **** 
3856:Core/Inc/../../Drivers/CMSIS/DSP/Include/arm_math.h ****   /**
3857:Core/Inc/../../Drivers/CMSIS/DSP/Include/arm_math.h ****    * @brief Processing function for Q31 LMS filter.
3858:Core/Inc/../../Drivers/CMSIS/DSP/Include/arm_math.h ****    * @param[in]  S          points to an instance of the Q15 LMS filter structure.
3859:Core/Inc/../../Drivers/CMSIS/DSP/Include/arm_math.h ****    * @param[in]  pSrc       points to the block of input data.
3860:Core/Inc/../../Drivers/CMSIS/DSP/Include/arm_math.h ****    * @param[in]  pRef       points to the block of reference data.
3861:Core/Inc/../../Drivers/CMSIS/DSP/Include/arm_math.h ****    * @param[out] pOut       points to the block of output data.
3862:Core/Inc/../../Drivers/CMSIS/DSP/Include/arm_math.h ****    * @param[out] pErr       points to the block of error data.
3863:Core/Inc/../../Drivers/CMSIS/DSP/Include/arm_math.h ****    * @param[in]  blockSize  number of samples to process.
3864:Core/Inc/../../Drivers/CMSIS/DSP/Include/arm_math.h ****    */
3865:Core/Inc/../../Drivers/CMSIS/DSP/Include/arm_math.h ****   void arm_lms_q31(
3866:Core/Inc/../../Drivers/CMSIS/DSP/Include/arm_math.h ****       const arm_lms_instance_q31 *S,
3867:Core/Inc/../../Drivers/CMSIS/DSP/Include/arm_math.h ****       q31_t *pSrc,
3868:Core/Inc/../../Drivers/CMSIS/DSP/Include/arm_math.h ****       q31_t *pRef,
3869:Core/Inc/../../Drivers/CMSIS/DSP/Include/arm_math.h ****       q31_t *pOut,
3870:Core/Inc/../../Drivers/CMSIS/DSP/Include/arm_math.h ****       q31_t *pErr,
3871:Core/Inc/../../Drivers/CMSIS/DSP/Include/arm_math.h ****       uint32_t blockSize);
3872:Core/Inc/../../Drivers/CMSIS/DSP/Include/arm_math.h **** 
3873:Core/Inc/../../Drivers/CMSIS/DSP/Include/arm_math.h ****   /**
3874:Core/Inc/../../Drivers/CMSIS/DSP/Include/arm_math.h ****    * @brief Initialization function for Q31 LMS filter.
3875:Core/Inc/../../Drivers/CMSIS/DSP/Include/arm_math.h ****    * @param[in] S          points to an instance of the Q31 LMS filter structure.
3876:Core/Inc/../../Drivers/CMSIS/DSP/Include/arm_math.h ****    * @param[in] numTaps    number of filter coefficients.
3877:Core/Inc/../../Drivers/CMSIS/DSP/Include/arm_math.h ****    * @param[in] pCoeffs    points to coefficient buffer.
3878:Core/Inc/../../Drivers/CMSIS/DSP/Include/arm_math.h ****    * @param[in] pState     points to state buffer.
3879:Core/Inc/../../Drivers/CMSIS/DSP/Include/arm_math.h ****    * @param[in] mu         step size that controls filter coefficient updates.
3880:Core/Inc/../../Drivers/CMSIS/DSP/Include/arm_math.h ****    * @param[in] blockSize  number of samples to process.
3881:Core/Inc/../../Drivers/CMSIS/DSP/Include/arm_math.h ****    * @param[in] postShift  bit shift applied to coefficients.
3882:Core/Inc/../../Drivers/CMSIS/DSP/Include/arm_math.h ****    */
3883:Core/Inc/../../Drivers/CMSIS/DSP/Include/arm_math.h ****   void arm_lms_init_q31(
3884:Core/Inc/../../Drivers/CMSIS/DSP/Include/arm_math.h ****       arm_lms_instance_q31 *S,
3885:Core/Inc/../../Drivers/CMSIS/DSP/Include/arm_math.h ****       uint16_t numTaps,
3886:Core/Inc/../../Drivers/CMSIS/DSP/Include/arm_math.h ****       q31_t *pCoeffs,
3887:Core/Inc/../../Drivers/CMSIS/DSP/Include/arm_math.h ****       q31_t *pState,
3888:Core/Inc/../../Drivers/CMSIS/DSP/Include/arm_math.h ****       q31_t mu,
3889:Core/Inc/../../Drivers/CMSIS/DSP/Include/arm_math.h ****       uint32_t blockSize,
3890:Core/Inc/../../Drivers/CMSIS/DSP/Include/arm_math.h ****       uint32_t postShift);
3891:Core/Inc/../../Drivers/CMSIS/DSP/Include/arm_math.h **** 
3892:Core/Inc/../../Drivers/CMSIS/DSP/Include/arm_math.h ****   /**
3893:Core/Inc/../../Drivers/CMSIS/DSP/Include/arm_math.h ****    * @brief Instance structure for the floating-point normalized LMS filter.
3894:Core/Inc/../../Drivers/CMSIS/DSP/Include/arm_math.h ****    */
3895:Core/Inc/../../Drivers/CMSIS/DSP/Include/arm_math.h ****   typedef struct
3896:Core/Inc/../../Drivers/CMSIS/DSP/Include/arm_math.h ****   {
3897:Core/Inc/../../Drivers/CMSIS/DSP/Include/arm_math.h ****     uint16_t numTaps;   /**< number of coefficients in the filter. */
3898:Core/Inc/../../Drivers/CMSIS/DSP/Include/arm_math.h ****     float32_t *pState;  /**< points to the state variable array. The array is of length numTaps+blo
3899:Core/Inc/../../Drivers/CMSIS/DSP/Include/arm_math.h ****     float32_t *pCoeffs; /**< points to the coefficient array. The array is of length numTaps. */
3900:Core/Inc/../../Drivers/CMSIS/DSP/Include/arm_math.h ****     float32_t mu;       /**< step size that control filter coefficient updates. */
3901:Core/Inc/../../Drivers/CMSIS/DSP/Include/arm_math.h ****     float32_t energy;   /**< saves previous frame energy. */
3902:Core/Inc/../../Drivers/CMSIS/DSP/Include/arm_math.h ****     float32_t x0;       /**< saves previous input sample. */
3903:Core/Inc/../../Drivers/CMSIS/DSP/Include/arm_math.h ****   } arm_lms_norm_instance_f32;
3904:Core/Inc/../../Drivers/CMSIS/DSP/Include/arm_math.h **** 
3905:Core/Inc/../../Drivers/CMSIS/DSP/Include/arm_math.h ****   /**
3906:Core/Inc/../../Drivers/CMSIS/DSP/Include/arm_math.h ****    * @brief Processing function for floating-point normalized LMS filter.
3907:Core/Inc/../../Drivers/CMSIS/DSP/Include/arm_math.h ****    * @param[in]  S          points to an instance of the floating-point normalized LMS filter struc
ARM GAS  /var/folders/n6/c271nzx11xl4r4_m7sqjlt0m0000gn/T//ccGo3Vqh.s 			page 97


3908:Core/Inc/../../Drivers/CMSIS/DSP/Include/arm_math.h ****    * @param[in]  pSrc       points to the block of input data.
3909:Core/Inc/../../Drivers/CMSIS/DSP/Include/arm_math.h ****    * @param[in]  pRef       points to the block of reference data.
3910:Core/Inc/../../Drivers/CMSIS/DSP/Include/arm_math.h ****    * @param[out] pOut       points to the block of output data.
3911:Core/Inc/../../Drivers/CMSIS/DSP/Include/arm_math.h ****    * @param[out] pErr       points to the block of error data.
3912:Core/Inc/../../Drivers/CMSIS/DSP/Include/arm_math.h ****    * @param[in]  blockSize  number of samples to process.
3913:Core/Inc/../../Drivers/CMSIS/DSP/Include/arm_math.h ****    */
3914:Core/Inc/../../Drivers/CMSIS/DSP/Include/arm_math.h ****   void arm_lms_norm_f32(
3915:Core/Inc/../../Drivers/CMSIS/DSP/Include/arm_math.h ****       arm_lms_norm_instance_f32 *S,
3916:Core/Inc/../../Drivers/CMSIS/DSP/Include/arm_math.h ****       float32_t *pSrc,
3917:Core/Inc/../../Drivers/CMSIS/DSP/Include/arm_math.h ****       float32_t *pRef,
3918:Core/Inc/../../Drivers/CMSIS/DSP/Include/arm_math.h ****       float32_t *pOut,
3919:Core/Inc/../../Drivers/CMSIS/DSP/Include/arm_math.h ****       float32_t *pErr,
3920:Core/Inc/../../Drivers/CMSIS/DSP/Include/arm_math.h ****       uint32_t blockSize);
3921:Core/Inc/../../Drivers/CMSIS/DSP/Include/arm_math.h **** 
3922:Core/Inc/../../Drivers/CMSIS/DSP/Include/arm_math.h ****   /**
3923:Core/Inc/../../Drivers/CMSIS/DSP/Include/arm_math.h ****    * @brief Initialization function for floating-point normalized LMS filter.
3924:Core/Inc/../../Drivers/CMSIS/DSP/Include/arm_math.h ****    * @param[in] S          points to an instance of the floating-point LMS filter structure.
3925:Core/Inc/../../Drivers/CMSIS/DSP/Include/arm_math.h ****    * @param[in] numTaps    number of filter coefficients.
3926:Core/Inc/../../Drivers/CMSIS/DSP/Include/arm_math.h ****    * @param[in] pCoeffs    points to coefficient buffer.
3927:Core/Inc/../../Drivers/CMSIS/DSP/Include/arm_math.h ****    * @param[in] pState     points to state buffer.
3928:Core/Inc/../../Drivers/CMSIS/DSP/Include/arm_math.h ****    * @param[in] mu         step size that controls filter coefficient updates.
3929:Core/Inc/../../Drivers/CMSIS/DSP/Include/arm_math.h ****    * @param[in] blockSize  number of samples to process.
3930:Core/Inc/../../Drivers/CMSIS/DSP/Include/arm_math.h ****    */
3931:Core/Inc/../../Drivers/CMSIS/DSP/Include/arm_math.h ****   void arm_lms_norm_init_f32(
3932:Core/Inc/../../Drivers/CMSIS/DSP/Include/arm_math.h ****       arm_lms_norm_instance_f32 *S,
3933:Core/Inc/../../Drivers/CMSIS/DSP/Include/arm_math.h ****       uint16_t numTaps,
3934:Core/Inc/../../Drivers/CMSIS/DSP/Include/arm_math.h ****       float32_t *pCoeffs,
3935:Core/Inc/../../Drivers/CMSIS/DSP/Include/arm_math.h ****       float32_t *pState,
3936:Core/Inc/../../Drivers/CMSIS/DSP/Include/arm_math.h ****       float32_t mu,
3937:Core/Inc/../../Drivers/CMSIS/DSP/Include/arm_math.h ****       uint32_t blockSize);
3938:Core/Inc/../../Drivers/CMSIS/DSP/Include/arm_math.h **** 
3939:Core/Inc/../../Drivers/CMSIS/DSP/Include/arm_math.h ****   /**
3940:Core/Inc/../../Drivers/CMSIS/DSP/Include/arm_math.h ****    * @brief Instance structure for the Q31 normalized LMS filter.
3941:Core/Inc/../../Drivers/CMSIS/DSP/Include/arm_math.h ****    */
3942:Core/Inc/../../Drivers/CMSIS/DSP/Include/arm_math.h ****   typedef struct
3943:Core/Inc/../../Drivers/CMSIS/DSP/Include/arm_math.h ****   {
3944:Core/Inc/../../Drivers/CMSIS/DSP/Include/arm_math.h ****     uint16_t numTaps;  /**< number of coefficients in the filter. */
3945:Core/Inc/../../Drivers/CMSIS/DSP/Include/arm_math.h ****     q31_t *pState;     /**< points to the state variable array. The array is of length numTaps+bloc
3946:Core/Inc/../../Drivers/CMSIS/DSP/Include/arm_math.h ****     q31_t *pCoeffs;    /**< points to the coefficient array. The array is of length numTaps. */
3947:Core/Inc/../../Drivers/CMSIS/DSP/Include/arm_math.h ****     q31_t mu;          /**< step size that controls filter coefficient updates. */
3948:Core/Inc/../../Drivers/CMSIS/DSP/Include/arm_math.h ****     uint8_t postShift; /**< bit shift applied to coefficients. */
3949:Core/Inc/../../Drivers/CMSIS/DSP/Include/arm_math.h ****     q31_t *recipTable; /**< points to the reciprocal initial value table. */
3950:Core/Inc/../../Drivers/CMSIS/DSP/Include/arm_math.h ****     q31_t energy;      /**< saves previous frame energy. */
3951:Core/Inc/../../Drivers/CMSIS/DSP/Include/arm_math.h ****     q31_t x0;          /**< saves previous input sample. */
3952:Core/Inc/../../Drivers/CMSIS/DSP/Include/arm_math.h ****   } arm_lms_norm_instance_q31;
3953:Core/Inc/../../Drivers/CMSIS/DSP/Include/arm_math.h **** 
3954:Core/Inc/../../Drivers/CMSIS/DSP/Include/arm_math.h ****   /**
3955:Core/Inc/../../Drivers/CMSIS/DSP/Include/arm_math.h ****    * @brief Processing function for Q31 normalized LMS filter.
3956:Core/Inc/../../Drivers/CMSIS/DSP/Include/arm_math.h ****    * @param[in]  S          points to an instance of the Q31 normalized LMS filter structure.
3957:Core/Inc/../../Drivers/CMSIS/DSP/Include/arm_math.h ****    * @param[in]  pSrc       points to the block of input data.
3958:Core/Inc/../../Drivers/CMSIS/DSP/Include/arm_math.h ****    * @param[in]  pRef       points to the block of reference data.
3959:Core/Inc/../../Drivers/CMSIS/DSP/Include/arm_math.h ****    * @param[out] pOut       points to the block of output data.
3960:Core/Inc/../../Drivers/CMSIS/DSP/Include/arm_math.h ****    * @param[out] pErr       points to the block of error data.
3961:Core/Inc/../../Drivers/CMSIS/DSP/Include/arm_math.h ****    * @param[in]  blockSize  number of samples to process.
3962:Core/Inc/../../Drivers/CMSIS/DSP/Include/arm_math.h ****    */
3963:Core/Inc/../../Drivers/CMSIS/DSP/Include/arm_math.h ****   void arm_lms_norm_q31(
3964:Core/Inc/../../Drivers/CMSIS/DSP/Include/arm_math.h ****       arm_lms_norm_instance_q31 *S,
ARM GAS  /var/folders/n6/c271nzx11xl4r4_m7sqjlt0m0000gn/T//ccGo3Vqh.s 			page 98


3965:Core/Inc/../../Drivers/CMSIS/DSP/Include/arm_math.h ****       q31_t *pSrc,
3966:Core/Inc/../../Drivers/CMSIS/DSP/Include/arm_math.h ****       q31_t *pRef,
3967:Core/Inc/../../Drivers/CMSIS/DSP/Include/arm_math.h ****       q31_t *pOut,
3968:Core/Inc/../../Drivers/CMSIS/DSP/Include/arm_math.h ****       q31_t *pErr,
3969:Core/Inc/../../Drivers/CMSIS/DSP/Include/arm_math.h ****       uint32_t blockSize);
3970:Core/Inc/../../Drivers/CMSIS/DSP/Include/arm_math.h **** 
3971:Core/Inc/../../Drivers/CMSIS/DSP/Include/arm_math.h ****   /**
3972:Core/Inc/../../Drivers/CMSIS/DSP/Include/arm_math.h ****    * @brief Initialization function for Q31 normalized LMS filter.
3973:Core/Inc/../../Drivers/CMSIS/DSP/Include/arm_math.h ****    * @param[in] S          points to an instance of the Q31 normalized LMS filter structure.
3974:Core/Inc/../../Drivers/CMSIS/DSP/Include/arm_math.h ****    * @param[in] numTaps    number of filter coefficients.
3975:Core/Inc/../../Drivers/CMSIS/DSP/Include/arm_math.h ****    * @param[in] pCoeffs    points to coefficient buffer.
3976:Core/Inc/../../Drivers/CMSIS/DSP/Include/arm_math.h ****    * @param[in] pState     points to state buffer.
3977:Core/Inc/../../Drivers/CMSIS/DSP/Include/arm_math.h ****    * @param[in] mu         step size that controls filter coefficient updates.
3978:Core/Inc/../../Drivers/CMSIS/DSP/Include/arm_math.h ****    * @param[in] blockSize  number of samples to process.
3979:Core/Inc/../../Drivers/CMSIS/DSP/Include/arm_math.h ****    * @param[in] postShift  bit shift applied to coefficients.
3980:Core/Inc/../../Drivers/CMSIS/DSP/Include/arm_math.h ****    */
3981:Core/Inc/../../Drivers/CMSIS/DSP/Include/arm_math.h ****   void arm_lms_norm_init_q31(
3982:Core/Inc/../../Drivers/CMSIS/DSP/Include/arm_math.h ****       arm_lms_norm_instance_q31 *S,
3983:Core/Inc/../../Drivers/CMSIS/DSP/Include/arm_math.h ****       uint16_t numTaps,
3984:Core/Inc/../../Drivers/CMSIS/DSP/Include/arm_math.h ****       q31_t *pCoeffs,
3985:Core/Inc/../../Drivers/CMSIS/DSP/Include/arm_math.h ****       q31_t *pState,
3986:Core/Inc/../../Drivers/CMSIS/DSP/Include/arm_math.h ****       q31_t mu,
3987:Core/Inc/../../Drivers/CMSIS/DSP/Include/arm_math.h ****       uint32_t blockSize,
3988:Core/Inc/../../Drivers/CMSIS/DSP/Include/arm_math.h ****       uint8_t postShift);
3989:Core/Inc/../../Drivers/CMSIS/DSP/Include/arm_math.h **** 
3990:Core/Inc/../../Drivers/CMSIS/DSP/Include/arm_math.h ****   /**
3991:Core/Inc/../../Drivers/CMSIS/DSP/Include/arm_math.h ****    * @brief Instance structure for the Q15 normalized LMS filter.
3992:Core/Inc/../../Drivers/CMSIS/DSP/Include/arm_math.h ****    */
3993:Core/Inc/../../Drivers/CMSIS/DSP/Include/arm_math.h ****   typedef struct
3994:Core/Inc/../../Drivers/CMSIS/DSP/Include/arm_math.h ****   {
3995:Core/Inc/../../Drivers/CMSIS/DSP/Include/arm_math.h ****     uint16_t numTaps;  /**< Number of coefficients in the filter. */
3996:Core/Inc/../../Drivers/CMSIS/DSP/Include/arm_math.h ****     q15_t *pState;     /**< points to the state variable array. The array is of length numTaps+bloc
3997:Core/Inc/../../Drivers/CMSIS/DSP/Include/arm_math.h ****     q15_t *pCoeffs;    /**< points to the coefficient array. The array is of length numTaps. */
3998:Core/Inc/../../Drivers/CMSIS/DSP/Include/arm_math.h ****     q15_t mu;          /**< step size that controls filter coefficient updates. */
3999:Core/Inc/../../Drivers/CMSIS/DSP/Include/arm_math.h ****     uint8_t postShift; /**< bit shift applied to coefficients. */
4000:Core/Inc/../../Drivers/CMSIS/DSP/Include/arm_math.h ****     q15_t *recipTable; /**< Points to the reciprocal initial value table. */
4001:Core/Inc/../../Drivers/CMSIS/DSP/Include/arm_math.h ****     q15_t energy;      /**< saves previous frame energy. */
4002:Core/Inc/../../Drivers/CMSIS/DSP/Include/arm_math.h ****     q15_t x0;          /**< saves previous input sample. */
4003:Core/Inc/../../Drivers/CMSIS/DSP/Include/arm_math.h ****   } arm_lms_norm_instance_q15;
4004:Core/Inc/../../Drivers/CMSIS/DSP/Include/arm_math.h **** 
4005:Core/Inc/../../Drivers/CMSIS/DSP/Include/arm_math.h ****   /**
4006:Core/Inc/../../Drivers/CMSIS/DSP/Include/arm_math.h ****    * @brief Processing function for Q15 normalized LMS filter.
4007:Core/Inc/../../Drivers/CMSIS/DSP/Include/arm_math.h ****    * @param[in]  S          points to an instance of the Q15 normalized LMS filter structure.
4008:Core/Inc/../../Drivers/CMSIS/DSP/Include/arm_math.h ****    * @param[in]  pSrc       points to the block of input data.
4009:Core/Inc/../../Drivers/CMSIS/DSP/Include/arm_math.h ****    * @param[in]  pRef       points to the block of reference data.
4010:Core/Inc/../../Drivers/CMSIS/DSP/Include/arm_math.h ****    * @param[out] pOut       points to the block of output data.
4011:Core/Inc/../../Drivers/CMSIS/DSP/Include/arm_math.h ****    * @param[out] pErr       points to the block of error data.
4012:Core/Inc/../../Drivers/CMSIS/DSP/Include/arm_math.h ****    * @param[in]  blockSize  number of samples to process.
4013:Core/Inc/../../Drivers/CMSIS/DSP/Include/arm_math.h ****    */
4014:Core/Inc/../../Drivers/CMSIS/DSP/Include/arm_math.h ****   void arm_lms_norm_q15(
4015:Core/Inc/../../Drivers/CMSIS/DSP/Include/arm_math.h ****       arm_lms_norm_instance_q15 *S,
4016:Core/Inc/../../Drivers/CMSIS/DSP/Include/arm_math.h ****       q15_t *pSrc,
4017:Core/Inc/../../Drivers/CMSIS/DSP/Include/arm_math.h ****       q15_t *pRef,
4018:Core/Inc/../../Drivers/CMSIS/DSP/Include/arm_math.h ****       q15_t *pOut,
4019:Core/Inc/../../Drivers/CMSIS/DSP/Include/arm_math.h ****       q15_t *pErr,
4020:Core/Inc/../../Drivers/CMSIS/DSP/Include/arm_math.h ****       uint32_t blockSize);
4021:Core/Inc/../../Drivers/CMSIS/DSP/Include/arm_math.h **** 
ARM GAS  /var/folders/n6/c271nzx11xl4r4_m7sqjlt0m0000gn/T//ccGo3Vqh.s 			page 99


4022:Core/Inc/../../Drivers/CMSIS/DSP/Include/arm_math.h ****   /**
4023:Core/Inc/../../Drivers/CMSIS/DSP/Include/arm_math.h ****    * @brief Initialization function for Q15 normalized LMS filter.
4024:Core/Inc/../../Drivers/CMSIS/DSP/Include/arm_math.h ****    * @param[in] S          points to an instance of the Q15 normalized LMS filter structure.
4025:Core/Inc/../../Drivers/CMSIS/DSP/Include/arm_math.h ****    * @param[in] numTaps    number of filter coefficients.
4026:Core/Inc/../../Drivers/CMSIS/DSP/Include/arm_math.h ****    * @param[in] pCoeffs    points to coefficient buffer.
4027:Core/Inc/../../Drivers/CMSIS/DSP/Include/arm_math.h ****    * @param[in] pState     points to state buffer.
4028:Core/Inc/../../Drivers/CMSIS/DSP/Include/arm_math.h ****    * @param[in] mu         step size that controls filter coefficient updates.
4029:Core/Inc/../../Drivers/CMSIS/DSP/Include/arm_math.h ****    * @param[in] blockSize  number of samples to process.
4030:Core/Inc/../../Drivers/CMSIS/DSP/Include/arm_math.h ****    * @param[in] postShift  bit shift applied to coefficients.
4031:Core/Inc/../../Drivers/CMSIS/DSP/Include/arm_math.h ****    */
4032:Core/Inc/../../Drivers/CMSIS/DSP/Include/arm_math.h ****   void arm_lms_norm_init_q15(
4033:Core/Inc/../../Drivers/CMSIS/DSP/Include/arm_math.h ****       arm_lms_norm_instance_q15 *S,
4034:Core/Inc/../../Drivers/CMSIS/DSP/Include/arm_math.h ****       uint16_t numTaps,
4035:Core/Inc/../../Drivers/CMSIS/DSP/Include/arm_math.h ****       q15_t *pCoeffs,
4036:Core/Inc/../../Drivers/CMSIS/DSP/Include/arm_math.h ****       q15_t *pState,
4037:Core/Inc/../../Drivers/CMSIS/DSP/Include/arm_math.h ****       q15_t mu,
4038:Core/Inc/../../Drivers/CMSIS/DSP/Include/arm_math.h ****       uint32_t blockSize,
4039:Core/Inc/../../Drivers/CMSIS/DSP/Include/arm_math.h ****       uint8_t postShift);
4040:Core/Inc/../../Drivers/CMSIS/DSP/Include/arm_math.h **** 
4041:Core/Inc/../../Drivers/CMSIS/DSP/Include/arm_math.h ****   /**
4042:Core/Inc/../../Drivers/CMSIS/DSP/Include/arm_math.h ****    * @brief Correlation of floating-point sequences.
4043:Core/Inc/../../Drivers/CMSIS/DSP/Include/arm_math.h ****    * @param[in]  pSrcA    points to the first input sequence.
4044:Core/Inc/../../Drivers/CMSIS/DSP/Include/arm_math.h ****    * @param[in]  srcALen  length of the first input sequence.
4045:Core/Inc/../../Drivers/CMSIS/DSP/Include/arm_math.h ****    * @param[in]  pSrcB    points to the second input sequence.
4046:Core/Inc/../../Drivers/CMSIS/DSP/Include/arm_math.h ****    * @param[in]  srcBLen  length of the second input sequence.
4047:Core/Inc/../../Drivers/CMSIS/DSP/Include/arm_math.h ****    * @param[out] pDst     points to the block of output data  Length 2 * max(srcALen, srcBLen) - 1.
4048:Core/Inc/../../Drivers/CMSIS/DSP/Include/arm_math.h ****    */
4049:Core/Inc/../../Drivers/CMSIS/DSP/Include/arm_math.h ****   void arm_correlate_f32(
4050:Core/Inc/../../Drivers/CMSIS/DSP/Include/arm_math.h ****       float32_t *pSrcA,
4051:Core/Inc/../../Drivers/CMSIS/DSP/Include/arm_math.h ****       uint32_t srcALen,
4052:Core/Inc/../../Drivers/CMSIS/DSP/Include/arm_math.h ****       float32_t *pSrcB,
4053:Core/Inc/../../Drivers/CMSIS/DSP/Include/arm_math.h ****       uint32_t srcBLen,
4054:Core/Inc/../../Drivers/CMSIS/DSP/Include/arm_math.h ****       float32_t *pDst);
4055:Core/Inc/../../Drivers/CMSIS/DSP/Include/arm_math.h **** 
4056:Core/Inc/../../Drivers/CMSIS/DSP/Include/arm_math.h ****   /**
4057:Core/Inc/../../Drivers/CMSIS/DSP/Include/arm_math.h ****    * @brief Correlation of Q15 sequences
4058:Core/Inc/../../Drivers/CMSIS/DSP/Include/arm_math.h ****    * @param[in]  pSrcA     points to the first input sequence.
4059:Core/Inc/../../Drivers/CMSIS/DSP/Include/arm_math.h ****    * @param[in]  srcALen   length of the first input sequence.
4060:Core/Inc/../../Drivers/CMSIS/DSP/Include/arm_math.h ****    * @param[in]  pSrcB     points to the second input sequence.
4061:Core/Inc/../../Drivers/CMSIS/DSP/Include/arm_math.h ****    * @param[in]  srcBLen   length of the second input sequence.
4062:Core/Inc/../../Drivers/CMSIS/DSP/Include/arm_math.h ****    * @param[out] pDst      points to the block of output data  Length 2 * max(srcALen, srcBLen) - 1
4063:Core/Inc/../../Drivers/CMSIS/DSP/Include/arm_math.h ****    * @param[in]  pScratch  points to scratch buffer of size max(srcALen, srcBLen) + 2*min(srcALen, 
4064:Core/Inc/../../Drivers/CMSIS/DSP/Include/arm_math.h ****    */
4065:Core/Inc/../../Drivers/CMSIS/DSP/Include/arm_math.h ****   void arm_correlate_opt_q15(
4066:Core/Inc/../../Drivers/CMSIS/DSP/Include/arm_math.h ****       q15_t *pSrcA,
4067:Core/Inc/../../Drivers/CMSIS/DSP/Include/arm_math.h ****       uint32_t srcALen,
4068:Core/Inc/../../Drivers/CMSIS/DSP/Include/arm_math.h ****       q15_t *pSrcB,
4069:Core/Inc/../../Drivers/CMSIS/DSP/Include/arm_math.h ****       uint32_t srcBLen,
4070:Core/Inc/../../Drivers/CMSIS/DSP/Include/arm_math.h ****       q15_t *pDst,
4071:Core/Inc/../../Drivers/CMSIS/DSP/Include/arm_math.h ****       q15_t *pScratch);
4072:Core/Inc/../../Drivers/CMSIS/DSP/Include/arm_math.h **** 
4073:Core/Inc/../../Drivers/CMSIS/DSP/Include/arm_math.h ****   /**
4074:Core/Inc/../../Drivers/CMSIS/DSP/Include/arm_math.h ****    * @brief Correlation of Q15 sequences.
4075:Core/Inc/../../Drivers/CMSIS/DSP/Include/arm_math.h ****    * @param[in]  pSrcA    points to the first input sequence.
4076:Core/Inc/../../Drivers/CMSIS/DSP/Include/arm_math.h ****    * @param[in]  srcALen  length of the first input sequence.
4077:Core/Inc/../../Drivers/CMSIS/DSP/Include/arm_math.h ****    * @param[in]  pSrcB    points to the second input sequence.
4078:Core/Inc/../../Drivers/CMSIS/DSP/Include/arm_math.h ****    * @param[in]  srcBLen  length of the second input sequence.
ARM GAS  /var/folders/n6/c271nzx11xl4r4_m7sqjlt0m0000gn/T//ccGo3Vqh.s 			page 100


4079:Core/Inc/../../Drivers/CMSIS/DSP/Include/arm_math.h ****    * @param[out] pDst     points to the block of output data  Length 2 * max(srcALen, srcBLen) - 1.
4080:Core/Inc/../../Drivers/CMSIS/DSP/Include/arm_math.h ****    */
4081:Core/Inc/../../Drivers/CMSIS/DSP/Include/arm_math.h **** 
4082:Core/Inc/../../Drivers/CMSIS/DSP/Include/arm_math.h ****   void arm_correlate_q15(
4083:Core/Inc/../../Drivers/CMSIS/DSP/Include/arm_math.h ****       q15_t *pSrcA,
4084:Core/Inc/../../Drivers/CMSIS/DSP/Include/arm_math.h ****       uint32_t srcALen,
4085:Core/Inc/../../Drivers/CMSIS/DSP/Include/arm_math.h ****       q15_t *pSrcB,
4086:Core/Inc/../../Drivers/CMSIS/DSP/Include/arm_math.h ****       uint32_t srcBLen,
4087:Core/Inc/../../Drivers/CMSIS/DSP/Include/arm_math.h ****       q15_t *pDst);
4088:Core/Inc/../../Drivers/CMSIS/DSP/Include/arm_math.h **** 
4089:Core/Inc/../../Drivers/CMSIS/DSP/Include/arm_math.h ****   /**
4090:Core/Inc/../../Drivers/CMSIS/DSP/Include/arm_math.h ****    * @brief Correlation of Q15 sequences (fast version) for Cortex-M3 and Cortex-M4.
4091:Core/Inc/../../Drivers/CMSIS/DSP/Include/arm_math.h ****    * @param[in]  pSrcA    points to the first input sequence.
4092:Core/Inc/../../Drivers/CMSIS/DSP/Include/arm_math.h ****    * @param[in]  srcALen  length of the first input sequence.
4093:Core/Inc/../../Drivers/CMSIS/DSP/Include/arm_math.h ****    * @param[in]  pSrcB    points to the second input sequence.
4094:Core/Inc/../../Drivers/CMSIS/DSP/Include/arm_math.h ****    * @param[in]  srcBLen  length of the second input sequence.
4095:Core/Inc/../../Drivers/CMSIS/DSP/Include/arm_math.h ****    * @param[out] pDst     points to the block of output data  Length 2 * max(srcALen, srcBLen) - 1.
4096:Core/Inc/../../Drivers/CMSIS/DSP/Include/arm_math.h ****    */
4097:Core/Inc/../../Drivers/CMSIS/DSP/Include/arm_math.h **** 
4098:Core/Inc/../../Drivers/CMSIS/DSP/Include/arm_math.h ****   void arm_correlate_fast_q15(
4099:Core/Inc/../../Drivers/CMSIS/DSP/Include/arm_math.h ****       q15_t *pSrcA,
4100:Core/Inc/../../Drivers/CMSIS/DSP/Include/arm_math.h ****       uint32_t srcALen,
4101:Core/Inc/../../Drivers/CMSIS/DSP/Include/arm_math.h ****       q15_t *pSrcB,
4102:Core/Inc/../../Drivers/CMSIS/DSP/Include/arm_math.h ****       uint32_t srcBLen,
4103:Core/Inc/../../Drivers/CMSIS/DSP/Include/arm_math.h ****       q15_t *pDst);
4104:Core/Inc/../../Drivers/CMSIS/DSP/Include/arm_math.h **** 
4105:Core/Inc/../../Drivers/CMSIS/DSP/Include/arm_math.h ****   /**
4106:Core/Inc/../../Drivers/CMSIS/DSP/Include/arm_math.h ****    * @brief Correlation of Q15 sequences (fast version) for Cortex-M3 and Cortex-M4.
4107:Core/Inc/../../Drivers/CMSIS/DSP/Include/arm_math.h ****    * @param[in]  pSrcA     points to the first input sequence.
4108:Core/Inc/../../Drivers/CMSIS/DSP/Include/arm_math.h ****    * @param[in]  srcALen   length of the first input sequence.
4109:Core/Inc/../../Drivers/CMSIS/DSP/Include/arm_math.h ****    * @param[in]  pSrcB     points to the second input sequence.
4110:Core/Inc/../../Drivers/CMSIS/DSP/Include/arm_math.h ****    * @param[in]  srcBLen   length of the second input sequence.
4111:Core/Inc/../../Drivers/CMSIS/DSP/Include/arm_math.h ****    * @param[out] pDst      points to the block of output data  Length 2 * max(srcALen, srcBLen) - 1
4112:Core/Inc/../../Drivers/CMSIS/DSP/Include/arm_math.h ****    * @param[in]  pScratch  points to scratch buffer of size max(srcALen, srcBLen) + 2*min(srcALen, 
4113:Core/Inc/../../Drivers/CMSIS/DSP/Include/arm_math.h ****    */
4114:Core/Inc/../../Drivers/CMSIS/DSP/Include/arm_math.h ****   void arm_correlate_fast_opt_q15(
4115:Core/Inc/../../Drivers/CMSIS/DSP/Include/arm_math.h ****       q15_t *pSrcA,
4116:Core/Inc/../../Drivers/CMSIS/DSP/Include/arm_math.h ****       uint32_t srcALen,
4117:Core/Inc/../../Drivers/CMSIS/DSP/Include/arm_math.h ****       q15_t *pSrcB,
4118:Core/Inc/../../Drivers/CMSIS/DSP/Include/arm_math.h ****       uint32_t srcBLen,
4119:Core/Inc/../../Drivers/CMSIS/DSP/Include/arm_math.h ****       q15_t *pDst,
4120:Core/Inc/../../Drivers/CMSIS/DSP/Include/arm_math.h ****       q15_t *pScratch);
4121:Core/Inc/../../Drivers/CMSIS/DSP/Include/arm_math.h **** 
4122:Core/Inc/../../Drivers/CMSIS/DSP/Include/arm_math.h ****   /**
4123:Core/Inc/../../Drivers/CMSIS/DSP/Include/arm_math.h ****    * @brief Correlation of Q31 sequences.
4124:Core/Inc/../../Drivers/CMSIS/DSP/Include/arm_math.h ****    * @param[in]  pSrcA    points to the first input sequence.
4125:Core/Inc/../../Drivers/CMSIS/DSP/Include/arm_math.h ****    * @param[in]  srcALen  length of the first input sequence.
4126:Core/Inc/../../Drivers/CMSIS/DSP/Include/arm_math.h ****    * @param[in]  pSrcB    points to the second input sequence.
4127:Core/Inc/../../Drivers/CMSIS/DSP/Include/arm_math.h ****    * @param[in]  srcBLen  length of the second input sequence.
4128:Core/Inc/../../Drivers/CMSIS/DSP/Include/arm_math.h ****    * @param[out] pDst     points to the block of output data  Length 2 * max(srcALen, srcBLen) - 1.
4129:Core/Inc/../../Drivers/CMSIS/DSP/Include/arm_math.h ****    */
4130:Core/Inc/../../Drivers/CMSIS/DSP/Include/arm_math.h ****   void arm_correlate_q31(
4131:Core/Inc/../../Drivers/CMSIS/DSP/Include/arm_math.h ****       q31_t *pSrcA,
4132:Core/Inc/../../Drivers/CMSIS/DSP/Include/arm_math.h ****       uint32_t srcALen,
4133:Core/Inc/../../Drivers/CMSIS/DSP/Include/arm_math.h ****       q31_t *pSrcB,
4134:Core/Inc/../../Drivers/CMSIS/DSP/Include/arm_math.h ****       uint32_t srcBLen,
4135:Core/Inc/../../Drivers/CMSIS/DSP/Include/arm_math.h ****       q31_t *pDst);
ARM GAS  /var/folders/n6/c271nzx11xl4r4_m7sqjlt0m0000gn/T//ccGo3Vqh.s 			page 101


4136:Core/Inc/../../Drivers/CMSIS/DSP/Include/arm_math.h **** 
4137:Core/Inc/../../Drivers/CMSIS/DSP/Include/arm_math.h ****   /**
4138:Core/Inc/../../Drivers/CMSIS/DSP/Include/arm_math.h ****    * @brief Correlation of Q31 sequences (fast version) for Cortex-M3 and Cortex-M4
4139:Core/Inc/../../Drivers/CMSIS/DSP/Include/arm_math.h ****    * @param[in]  pSrcA    points to the first input sequence.
4140:Core/Inc/../../Drivers/CMSIS/DSP/Include/arm_math.h ****    * @param[in]  srcALen  length of the first input sequence.
4141:Core/Inc/../../Drivers/CMSIS/DSP/Include/arm_math.h ****    * @param[in]  pSrcB    points to the second input sequence.
4142:Core/Inc/../../Drivers/CMSIS/DSP/Include/arm_math.h ****    * @param[in]  srcBLen  length of the second input sequence.
4143:Core/Inc/../../Drivers/CMSIS/DSP/Include/arm_math.h ****    * @param[out] pDst     points to the block of output data  Length 2 * max(srcALen, srcBLen) - 1.
4144:Core/Inc/../../Drivers/CMSIS/DSP/Include/arm_math.h ****    */
4145:Core/Inc/../../Drivers/CMSIS/DSP/Include/arm_math.h ****   void arm_correlate_fast_q31(
4146:Core/Inc/../../Drivers/CMSIS/DSP/Include/arm_math.h ****       q31_t *pSrcA,
4147:Core/Inc/../../Drivers/CMSIS/DSP/Include/arm_math.h ****       uint32_t srcALen,
4148:Core/Inc/../../Drivers/CMSIS/DSP/Include/arm_math.h ****       q31_t *pSrcB,
4149:Core/Inc/../../Drivers/CMSIS/DSP/Include/arm_math.h ****       uint32_t srcBLen,
4150:Core/Inc/../../Drivers/CMSIS/DSP/Include/arm_math.h ****       q31_t *pDst);
4151:Core/Inc/../../Drivers/CMSIS/DSP/Include/arm_math.h **** 
4152:Core/Inc/../../Drivers/CMSIS/DSP/Include/arm_math.h ****   /**
4153:Core/Inc/../../Drivers/CMSIS/DSP/Include/arm_math.h ****    * @brief Correlation of Q7 sequences.
4154:Core/Inc/../../Drivers/CMSIS/DSP/Include/arm_math.h ****    * @param[in]  pSrcA      points to the first input sequence.
4155:Core/Inc/../../Drivers/CMSIS/DSP/Include/arm_math.h ****    * @param[in]  srcALen    length of the first input sequence.
4156:Core/Inc/../../Drivers/CMSIS/DSP/Include/arm_math.h ****    * @param[in]  pSrcB      points to the second input sequence.
4157:Core/Inc/../../Drivers/CMSIS/DSP/Include/arm_math.h ****    * @param[in]  srcBLen    length of the second input sequence.
4158:Core/Inc/../../Drivers/CMSIS/DSP/Include/arm_math.h ****    * @param[out] pDst       points to the block of output data  Length 2 * max(srcALen, srcBLen) - 
4159:Core/Inc/../../Drivers/CMSIS/DSP/Include/arm_math.h ****    * @param[in]  pScratch1  points to scratch buffer(of type q15_t) of size max(srcALen, srcBLen) +
4160:Core/Inc/../../Drivers/CMSIS/DSP/Include/arm_math.h ****    * @param[in]  pScratch2  points to scratch buffer (of type q15_t) of size min(srcALen, srcBLen).
4161:Core/Inc/../../Drivers/CMSIS/DSP/Include/arm_math.h ****    */
4162:Core/Inc/../../Drivers/CMSIS/DSP/Include/arm_math.h ****   void arm_correlate_opt_q7(
4163:Core/Inc/../../Drivers/CMSIS/DSP/Include/arm_math.h ****       q7_t *pSrcA,
4164:Core/Inc/../../Drivers/CMSIS/DSP/Include/arm_math.h ****       uint32_t srcALen,
4165:Core/Inc/../../Drivers/CMSIS/DSP/Include/arm_math.h ****       q7_t *pSrcB,
4166:Core/Inc/../../Drivers/CMSIS/DSP/Include/arm_math.h ****       uint32_t srcBLen,
4167:Core/Inc/../../Drivers/CMSIS/DSP/Include/arm_math.h ****       q7_t *pDst,
4168:Core/Inc/../../Drivers/CMSIS/DSP/Include/arm_math.h ****       q15_t *pScratch1,
4169:Core/Inc/../../Drivers/CMSIS/DSP/Include/arm_math.h ****       q15_t *pScratch2);
4170:Core/Inc/../../Drivers/CMSIS/DSP/Include/arm_math.h **** 
4171:Core/Inc/../../Drivers/CMSIS/DSP/Include/arm_math.h ****   /**
4172:Core/Inc/../../Drivers/CMSIS/DSP/Include/arm_math.h ****    * @brief Correlation of Q7 sequences.
4173:Core/Inc/../../Drivers/CMSIS/DSP/Include/arm_math.h ****    * @param[in]  pSrcA    points to the first input sequence.
4174:Core/Inc/../../Drivers/CMSIS/DSP/Include/arm_math.h ****    * @param[in]  srcALen  length of the first input sequence.
4175:Core/Inc/../../Drivers/CMSIS/DSP/Include/arm_math.h ****    * @param[in]  pSrcB    points to the second input sequence.
4176:Core/Inc/../../Drivers/CMSIS/DSP/Include/arm_math.h ****    * @param[in]  srcBLen  length of the second input sequence.
4177:Core/Inc/../../Drivers/CMSIS/DSP/Include/arm_math.h ****    * @param[out] pDst     points to the block of output data  Length 2 * max(srcALen, srcBLen) - 1.
4178:Core/Inc/../../Drivers/CMSIS/DSP/Include/arm_math.h ****    */
4179:Core/Inc/../../Drivers/CMSIS/DSP/Include/arm_math.h ****   void arm_correlate_q7(
4180:Core/Inc/../../Drivers/CMSIS/DSP/Include/arm_math.h ****       q7_t *pSrcA,
4181:Core/Inc/../../Drivers/CMSIS/DSP/Include/arm_math.h ****       uint32_t srcALen,
4182:Core/Inc/../../Drivers/CMSIS/DSP/Include/arm_math.h ****       q7_t *pSrcB,
4183:Core/Inc/../../Drivers/CMSIS/DSP/Include/arm_math.h ****       uint32_t srcBLen,
4184:Core/Inc/../../Drivers/CMSIS/DSP/Include/arm_math.h ****       q7_t *pDst);
4185:Core/Inc/../../Drivers/CMSIS/DSP/Include/arm_math.h **** 
4186:Core/Inc/../../Drivers/CMSIS/DSP/Include/arm_math.h ****   /**
4187:Core/Inc/../../Drivers/CMSIS/DSP/Include/arm_math.h ****    * @brief Instance structure for the floating-point sparse FIR filter.
4188:Core/Inc/../../Drivers/CMSIS/DSP/Include/arm_math.h ****    */
4189:Core/Inc/../../Drivers/CMSIS/DSP/Include/arm_math.h ****   typedef struct
4190:Core/Inc/../../Drivers/CMSIS/DSP/Include/arm_math.h ****   {
4191:Core/Inc/../../Drivers/CMSIS/DSP/Include/arm_math.h ****     uint16_t numTaps;    /**< number of coefficients in the filter. */
4192:Core/Inc/../../Drivers/CMSIS/DSP/Include/arm_math.h ****     uint16_t stateIndex; /**< state buffer index.  Points to the oldest sample in the state buffer.
ARM GAS  /var/folders/n6/c271nzx11xl4r4_m7sqjlt0m0000gn/T//ccGo3Vqh.s 			page 102


4193:Core/Inc/../../Drivers/CMSIS/DSP/Include/arm_math.h ****     float32_t *pState;   /**< points to the state buffer array. The array is of length maxDelay+blo
4194:Core/Inc/../../Drivers/CMSIS/DSP/Include/arm_math.h ****     float32_t *pCoeffs;  /**< points to the coefficient array. The array is of length numTaps.*/
4195:Core/Inc/../../Drivers/CMSIS/DSP/Include/arm_math.h ****     uint16_t maxDelay;   /**< maximum offset specified by the pTapDelay array. */
4196:Core/Inc/../../Drivers/CMSIS/DSP/Include/arm_math.h ****     int32_t *pTapDelay;  /**< points to the array of delay values.  The array is of length numTaps.
4197:Core/Inc/../../Drivers/CMSIS/DSP/Include/arm_math.h ****   } arm_fir_sparse_instance_f32;
4198:Core/Inc/../../Drivers/CMSIS/DSP/Include/arm_math.h **** 
4199:Core/Inc/../../Drivers/CMSIS/DSP/Include/arm_math.h ****   /**
4200:Core/Inc/../../Drivers/CMSIS/DSP/Include/arm_math.h ****    * @brief Instance structure for the Q31 sparse FIR filter.
4201:Core/Inc/../../Drivers/CMSIS/DSP/Include/arm_math.h ****    */
4202:Core/Inc/../../Drivers/CMSIS/DSP/Include/arm_math.h ****   typedef struct
4203:Core/Inc/../../Drivers/CMSIS/DSP/Include/arm_math.h ****   {
4204:Core/Inc/../../Drivers/CMSIS/DSP/Include/arm_math.h ****     uint16_t numTaps;    /**< number of coefficients in the filter. */
4205:Core/Inc/../../Drivers/CMSIS/DSP/Include/arm_math.h ****     uint16_t stateIndex; /**< state buffer index.  Points to the oldest sample in the state buffer.
4206:Core/Inc/../../Drivers/CMSIS/DSP/Include/arm_math.h ****     q31_t *pState;       /**< points to the state buffer array. The array is of length maxDelay+blo
4207:Core/Inc/../../Drivers/CMSIS/DSP/Include/arm_math.h ****     q31_t *pCoeffs;      /**< points to the coefficient array. The array is of length numTaps.*/
4208:Core/Inc/../../Drivers/CMSIS/DSP/Include/arm_math.h ****     uint16_t maxDelay;   /**< maximum offset specified by the pTapDelay array. */
4209:Core/Inc/../../Drivers/CMSIS/DSP/Include/arm_math.h ****     int32_t *pTapDelay;  /**< points to the array of delay values.  The array is of length numTaps.
4210:Core/Inc/../../Drivers/CMSIS/DSP/Include/arm_math.h ****   } arm_fir_sparse_instance_q31;
4211:Core/Inc/../../Drivers/CMSIS/DSP/Include/arm_math.h **** 
4212:Core/Inc/../../Drivers/CMSIS/DSP/Include/arm_math.h ****   /**
4213:Core/Inc/../../Drivers/CMSIS/DSP/Include/arm_math.h ****    * @brief Instance structure for the Q15 sparse FIR filter.
4214:Core/Inc/../../Drivers/CMSIS/DSP/Include/arm_math.h ****    */
4215:Core/Inc/../../Drivers/CMSIS/DSP/Include/arm_math.h ****   typedef struct
4216:Core/Inc/../../Drivers/CMSIS/DSP/Include/arm_math.h ****   {
4217:Core/Inc/../../Drivers/CMSIS/DSP/Include/arm_math.h ****     uint16_t numTaps;    /**< number of coefficients in the filter. */
4218:Core/Inc/../../Drivers/CMSIS/DSP/Include/arm_math.h ****     uint16_t stateIndex; /**< state buffer index.  Points to the oldest sample in the state buffer.
4219:Core/Inc/../../Drivers/CMSIS/DSP/Include/arm_math.h ****     q15_t *pState;       /**< points to the state buffer array. The array is of length maxDelay+blo
4220:Core/Inc/../../Drivers/CMSIS/DSP/Include/arm_math.h ****     q15_t *pCoeffs;      /**< points to the coefficient array. The array is of length numTaps.*/
4221:Core/Inc/../../Drivers/CMSIS/DSP/Include/arm_math.h ****     uint16_t maxDelay;   /**< maximum offset specified by the pTapDelay array. */
4222:Core/Inc/../../Drivers/CMSIS/DSP/Include/arm_math.h ****     int32_t *pTapDelay;  /**< points to the array of delay values.  The array is of length numTaps.
4223:Core/Inc/../../Drivers/CMSIS/DSP/Include/arm_math.h ****   } arm_fir_sparse_instance_q15;
4224:Core/Inc/../../Drivers/CMSIS/DSP/Include/arm_math.h **** 
4225:Core/Inc/../../Drivers/CMSIS/DSP/Include/arm_math.h ****   /**
4226:Core/Inc/../../Drivers/CMSIS/DSP/Include/arm_math.h ****    * @brief Instance structure for the Q7 sparse FIR filter.
4227:Core/Inc/../../Drivers/CMSIS/DSP/Include/arm_math.h ****    */
4228:Core/Inc/../../Drivers/CMSIS/DSP/Include/arm_math.h ****   typedef struct
4229:Core/Inc/../../Drivers/CMSIS/DSP/Include/arm_math.h ****   {
4230:Core/Inc/../../Drivers/CMSIS/DSP/Include/arm_math.h ****     uint16_t numTaps;    /**< number of coefficients in the filter. */
4231:Core/Inc/../../Drivers/CMSIS/DSP/Include/arm_math.h ****     uint16_t stateIndex; /**< state buffer index.  Points to the oldest sample in the state buffer.
4232:Core/Inc/../../Drivers/CMSIS/DSP/Include/arm_math.h ****     q7_t *pState;        /**< points to the state buffer array. The array is of length maxDelay+blo
4233:Core/Inc/../../Drivers/CMSIS/DSP/Include/arm_math.h ****     q7_t *pCoeffs;       /**< points to the coefficient array. The array is of length numTaps.*/
4234:Core/Inc/../../Drivers/CMSIS/DSP/Include/arm_math.h ****     uint16_t maxDelay;   /**< maximum offset specified by the pTapDelay array. */
4235:Core/Inc/../../Drivers/CMSIS/DSP/Include/arm_math.h ****     int32_t *pTapDelay;  /**< points to the array of delay values.  The array is of length numTaps.
4236:Core/Inc/../../Drivers/CMSIS/DSP/Include/arm_math.h ****   } arm_fir_sparse_instance_q7;
4237:Core/Inc/../../Drivers/CMSIS/DSP/Include/arm_math.h **** 
4238:Core/Inc/../../Drivers/CMSIS/DSP/Include/arm_math.h ****   /**
4239:Core/Inc/../../Drivers/CMSIS/DSP/Include/arm_math.h ****    * @brief Processing function for the floating-point sparse FIR filter.
4240:Core/Inc/../../Drivers/CMSIS/DSP/Include/arm_math.h ****    * @param[in]  S           points to an instance of the floating-point sparse FIR structure.
4241:Core/Inc/../../Drivers/CMSIS/DSP/Include/arm_math.h ****    * @param[in]  pSrc        points to the block of input data.
4242:Core/Inc/../../Drivers/CMSIS/DSP/Include/arm_math.h ****    * @param[out] pDst        points to the block of output data
4243:Core/Inc/../../Drivers/CMSIS/DSP/Include/arm_math.h ****    * @param[in]  pScratchIn  points to a temporary buffer of size blockSize.
4244:Core/Inc/../../Drivers/CMSIS/DSP/Include/arm_math.h ****    * @param[in]  blockSize   number of input samples to process per call.
4245:Core/Inc/../../Drivers/CMSIS/DSP/Include/arm_math.h ****    */
4246:Core/Inc/../../Drivers/CMSIS/DSP/Include/arm_math.h ****   void arm_fir_sparse_f32(
4247:Core/Inc/../../Drivers/CMSIS/DSP/Include/arm_math.h ****       arm_fir_sparse_instance_f32 *S,
4248:Core/Inc/../../Drivers/CMSIS/DSP/Include/arm_math.h ****       float32_t *pSrc,
4249:Core/Inc/../../Drivers/CMSIS/DSP/Include/arm_math.h ****       float32_t *pDst,
ARM GAS  /var/folders/n6/c271nzx11xl4r4_m7sqjlt0m0000gn/T//ccGo3Vqh.s 			page 103


4250:Core/Inc/../../Drivers/CMSIS/DSP/Include/arm_math.h ****       float32_t *pScratchIn,
4251:Core/Inc/../../Drivers/CMSIS/DSP/Include/arm_math.h ****       uint32_t blockSize);
4252:Core/Inc/../../Drivers/CMSIS/DSP/Include/arm_math.h **** 
4253:Core/Inc/../../Drivers/CMSIS/DSP/Include/arm_math.h ****   /**
4254:Core/Inc/../../Drivers/CMSIS/DSP/Include/arm_math.h ****    * @brief  Initialization function for the floating-point sparse FIR filter.
4255:Core/Inc/../../Drivers/CMSIS/DSP/Include/arm_math.h ****    * @param[in,out] S          points to an instance of the floating-point sparse FIR structure.
4256:Core/Inc/../../Drivers/CMSIS/DSP/Include/arm_math.h ****    * @param[in]     numTaps    number of nonzero coefficients in the filter.
4257:Core/Inc/../../Drivers/CMSIS/DSP/Include/arm_math.h ****    * @param[in]     pCoeffs    points to the array of filter coefficients.
4258:Core/Inc/../../Drivers/CMSIS/DSP/Include/arm_math.h ****    * @param[in]     pState     points to the state buffer.
4259:Core/Inc/../../Drivers/CMSIS/DSP/Include/arm_math.h ****    * @param[in]     pTapDelay  points to the array of offset times.
4260:Core/Inc/../../Drivers/CMSIS/DSP/Include/arm_math.h ****    * @param[in]     maxDelay   maximum offset time supported.
4261:Core/Inc/../../Drivers/CMSIS/DSP/Include/arm_math.h ****    * @param[in]     blockSize  number of samples that will be processed per block.
4262:Core/Inc/../../Drivers/CMSIS/DSP/Include/arm_math.h ****    */
4263:Core/Inc/../../Drivers/CMSIS/DSP/Include/arm_math.h ****   void arm_fir_sparse_init_f32(
4264:Core/Inc/../../Drivers/CMSIS/DSP/Include/arm_math.h ****       arm_fir_sparse_instance_f32 *S,
4265:Core/Inc/../../Drivers/CMSIS/DSP/Include/arm_math.h ****       uint16_t numTaps,
4266:Core/Inc/../../Drivers/CMSIS/DSP/Include/arm_math.h ****       float32_t *pCoeffs,
4267:Core/Inc/../../Drivers/CMSIS/DSP/Include/arm_math.h ****       float32_t *pState,
4268:Core/Inc/../../Drivers/CMSIS/DSP/Include/arm_math.h ****       int32_t *pTapDelay,
4269:Core/Inc/../../Drivers/CMSIS/DSP/Include/arm_math.h ****       uint16_t maxDelay,
4270:Core/Inc/../../Drivers/CMSIS/DSP/Include/arm_math.h ****       uint32_t blockSize);
4271:Core/Inc/../../Drivers/CMSIS/DSP/Include/arm_math.h **** 
4272:Core/Inc/../../Drivers/CMSIS/DSP/Include/arm_math.h ****   /**
4273:Core/Inc/../../Drivers/CMSIS/DSP/Include/arm_math.h ****    * @brief Processing function for the Q31 sparse FIR filter.
4274:Core/Inc/../../Drivers/CMSIS/DSP/Include/arm_math.h ****    * @param[in]  S           points to an instance of the Q31 sparse FIR structure.
4275:Core/Inc/../../Drivers/CMSIS/DSP/Include/arm_math.h ****    * @param[in]  pSrc        points to the block of input data.
4276:Core/Inc/../../Drivers/CMSIS/DSP/Include/arm_math.h ****    * @param[out] pDst        points to the block of output data
4277:Core/Inc/../../Drivers/CMSIS/DSP/Include/arm_math.h ****    * @param[in]  pScratchIn  points to a temporary buffer of size blockSize.
4278:Core/Inc/../../Drivers/CMSIS/DSP/Include/arm_math.h ****    * @param[in]  blockSize   number of input samples to process per call.
4279:Core/Inc/../../Drivers/CMSIS/DSP/Include/arm_math.h ****    */
4280:Core/Inc/../../Drivers/CMSIS/DSP/Include/arm_math.h ****   void arm_fir_sparse_q31(
4281:Core/Inc/../../Drivers/CMSIS/DSP/Include/arm_math.h ****       arm_fir_sparse_instance_q31 *S,
4282:Core/Inc/../../Drivers/CMSIS/DSP/Include/arm_math.h ****       q31_t *pSrc,
4283:Core/Inc/../../Drivers/CMSIS/DSP/Include/arm_math.h ****       q31_t *pDst,
4284:Core/Inc/../../Drivers/CMSIS/DSP/Include/arm_math.h ****       q31_t *pScratchIn,
4285:Core/Inc/../../Drivers/CMSIS/DSP/Include/arm_math.h ****       uint32_t blockSize);
4286:Core/Inc/../../Drivers/CMSIS/DSP/Include/arm_math.h **** 
4287:Core/Inc/../../Drivers/CMSIS/DSP/Include/arm_math.h ****   /**
4288:Core/Inc/../../Drivers/CMSIS/DSP/Include/arm_math.h ****    * @brief  Initialization function for the Q31 sparse FIR filter.
4289:Core/Inc/../../Drivers/CMSIS/DSP/Include/arm_math.h ****    * @param[in,out] S          points to an instance of the Q31 sparse FIR structure.
4290:Core/Inc/../../Drivers/CMSIS/DSP/Include/arm_math.h ****    * @param[in]     numTaps    number of nonzero coefficients in the filter.
4291:Core/Inc/../../Drivers/CMSIS/DSP/Include/arm_math.h ****    * @param[in]     pCoeffs    points to the array of filter coefficients.
4292:Core/Inc/../../Drivers/CMSIS/DSP/Include/arm_math.h ****    * @param[in]     pState     points to the state buffer.
4293:Core/Inc/../../Drivers/CMSIS/DSP/Include/arm_math.h ****    * @param[in]     pTapDelay  points to the array of offset times.
4294:Core/Inc/../../Drivers/CMSIS/DSP/Include/arm_math.h ****    * @param[in]     maxDelay   maximum offset time supported.
4295:Core/Inc/../../Drivers/CMSIS/DSP/Include/arm_math.h ****    * @param[in]     blockSize  number of samples that will be processed per block.
4296:Core/Inc/../../Drivers/CMSIS/DSP/Include/arm_math.h ****    */
4297:Core/Inc/../../Drivers/CMSIS/DSP/Include/arm_math.h ****   void arm_fir_sparse_init_q31(
4298:Core/Inc/../../Drivers/CMSIS/DSP/Include/arm_math.h ****       arm_fir_sparse_instance_q31 *S,
4299:Core/Inc/../../Drivers/CMSIS/DSP/Include/arm_math.h ****       uint16_t numTaps,
4300:Core/Inc/../../Drivers/CMSIS/DSP/Include/arm_math.h ****       q31_t *pCoeffs,
4301:Core/Inc/../../Drivers/CMSIS/DSP/Include/arm_math.h ****       q31_t *pState,
4302:Core/Inc/../../Drivers/CMSIS/DSP/Include/arm_math.h ****       int32_t *pTapDelay,
4303:Core/Inc/../../Drivers/CMSIS/DSP/Include/arm_math.h ****       uint16_t maxDelay,
4304:Core/Inc/../../Drivers/CMSIS/DSP/Include/arm_math.h ****       uint32_t blockSize);
4305:Core/Inc/../../Drivers/CMSIS/DSP/Include/arm_math.h **** 
4306:Core/Inc/../../Drivers/CMSIS/DSP/Include/arm_math.h ****   /**
ARM GAS  /var/folders/n6/c271nzx11xl4r4_m7sqjlt0m0000gn/T//ccGo3Vqh.s 			page 104


4307:Core/Inc/../../Drivers/CMSIS/DSP/Include/arm_math.h ****    * @brief Processing function for the Q15 sparse FIR filter.
4308:Core/Inc/../../Drivers/CMSIS/DSP/Include/arm_math.h ****    * @param[in]  S            points to an instance of the Q15 sparse FIR structure.
4309:Core/Inc/../../Drivers/CMSIS/DSP/Include/arm_math.h ****    * @param[in]  pSrc         points to the block of input data.
4310:Core/Inc/../../Drivers/CMSIS/DSP/Include/arm_math.h ****    * @param[out] pDst         points to the block of output data
4311:Core/Inc/../../Drivers/CMSIS/DSP/Include/arm_math.h ****    * @param[in]  pScratchIn   points to a temporary buffer of size blockSize.
4312:Core/Inc/../../Drivers/CMSIS/DSP/Include/arm_math.h ****    * @param[in]  pScratchOut  points to a temporary buffer of size blockSize.
4313:Core/Inc/../../Drivers/CMSIS/DSP/Include/arm_math.h ****    * @param[in]  blockSize    number of input samples to process per call.
4314:Core/Inc/../../Drivers/CMSIS/DSP/Include/arm_math.h ****    */
4315:Core/Inc/../../Drivers/CMSIS/DSP/Include/arm_math.h ****   void arm_fir_sparse_q15(
4316:Core/Inc/../../Drivers/CMSIS/DSP/Include/arm_math.h ****       arm_fir_sparse_instance_q15 *S,
4317:Core/Inc/../../Drivers/CMSIS/DSP/Include/arm_math.h ****       q15_t *pSrc,
4318:Core/Inc/../../Drivers/CMSIS/DSP/Include/arm_math.h ****       q15_t *pDst,
4319:Core/Inc/../../Drivers/CMSIS/DSP/Include/arm_math.h ****       q15_t *pScratchIn,
4320:Core/Inc/../../Drivers/CMSIS/DSP/Include/arm_math.h ****       q31_t *pScratchOut,
4321:Core/Inc/../../Drivers/CMSIS/DSP/Include/arm_math.h ****       uint32_t blockSize);
4322:Core/Inc/../../Drivers/CMSIS/DSP/Include/arm_math.h **** 
4323:Core/Inc/../../Drivers/CMSIS/DSP/Include/arm_math.h ****   /**
4324:Core/Inc/../../Drivers/CMSIS/DSP/Include/arm_math.h ****    * @brief  Initialization function for the Q15 sparse FIR filter.
4325:Core/Inc/../../Drivers/CMSIS/DSP/Include/arm_math.h ****    * @param[in,out] S          points to an instance of the Q15 sparse FIR structure.
4326:Core/Inc/../../Drivers/CMSIS/DSP/Include/arm_math.h ****    * @param[in]     numTaps    number of nonzero coefficients in the filter.
4327:Core/Inc/../../Drivers/CMSIS/DSP/Include/arm_math.h ****    * @param[in]     pCoeffs    points to the array of filter coefficients.
4328:Core/Inc/../../Drivers/CMSIS/DSP/Include/arm_math.h ****    * @param[in]     pState     points to the state buffer.
4329:Core/Inc/../../Drivers/CMSIS/DSP/Include/arm_math.h ****    * @param[in]     pTapDelay  points to the array of offset times.
4330:Core/Inc/../../Drivers/CMSIS/DSP/Include/arm_math.h ****    * @param[in]     maxDelay   maximum offset time supported.
4331:Core/Inc/../../Drivers/CMSIS/DSP/Include/arm_math.h ****    * @param[in]     blockSize  number of samples that will be processed per block.
4332:Core/Inc/../../Drivers/CMSIS/DSP/Include/arm_math.h ****    */
4333:Core/Inc/../../Drivers/CMSIS/DSP/Include/arm_math.h ****   void arm_fir_sparse_init_q15(
4334:Core/Inc/../../Drivers/CMSIS/DSP/Include/arm_math.h ****       arm_fir_sparse_instance_q15 *S,
4335:Core/Inc/../../Drivers/CMSIS/DSP/Include/arm_math.h ****       uint16_t numTaps,
4336:Core/Inc/../../Drivers/CMSIS/DSP/Include/arm_math.h ****       q15_t *pCoeffs,
4337:Core/Inc/../../Drivers/CMSIS/DSP/Include/arm_math.h ****       q15_t *pState,
4338:Core/Inc/../../Drivers/CMSIS/DSP/Include/arm_math.h ****       int32_t *pTapDelay,
4339:Core/Inc/../../Drivers/CMSIS/DSP/Include/arm_math.h ****       uint16_t maxDelay,
4340:Core/Inc/../../Drivers/CMSIS/DSP/Include/arm_math.h ****       uint32_t blockSize);
4341:Core/Inc/../../Drivers/CMSIS/DSP/Include/arm_math.h **** 
4342:Core/Inc/../../Drivers/CMSIS/DSP/Include/arm_math.h ****   /**
4343:Core/Inc/../../Drivers/CMSIS/DSP/Include/arm_math.h ****    * @brief Processing function for the Q7 sparse FIR filter.
4344:Core/Inc/../../Drivers/CMSIS/DSP/Include/arm_math.h ****    * @param[in]  S            points to an instance of the Q7 sparse FIR structure.
4345:Core/Inc/../../Drivers/CMSIS/DSP/Include/arm_math.h ****    * @param[in]  pSrc         points to the block of input data.
4346:Core/Inc/../../Drivers/CMSIS/DSP/Include/arm_math.h ****    * @param[out] pDst         points to the block of output data
4347:Core/Inc/../../Drivers/CMSIS/DSP/Include/arm_math.h ****    * @param[in]  pScratchIn   points to a temporary buffer of size blockSize.
4348:Core/Inc/../../Drivers/CMSIS/DSP/Include/arm_math.h ****    * @param[in]  pScratchOut  points to a temporary buffer of size blockSize.
4349:Core/Inc/../../Drivers/CMSIS/DSP/Include/arm_math.h ****    * @param[in]  blockSize    number of input samples to process per call.
4350:Core/Inc/../../Drivers/CMSIS/DSP/Include/arm_math.h ****    */
4351:Core/Inc/../../Drivers/CMSIS/DSP/Include/arm_math.h ****   void arm_fir_sparse_q7(
4352:Core/Inc/../../Drivers/CMSIS/DSP/Include/arm_math.h ****       arm_fir_sparse_instance_q7 *S,
4353:Core/Inc/../../Drivers/CMSIS/DSP/Include/arm_math.h ****       q7_t *pSrc,
4354:Core/Inc/../../Drivers/CMSIS/DSP/Include/arm_math.h ****       q7_t *pDst,
4355:Core/Inc/../../Drivers/CMSIS/DSP/Include/arm_math.h ****       q7_t *pScratchIn,
4356:Core/Inc/../../Drivers/CMSIS/DSP/Include/arm_math.h ****       q31_t *pScratchOut,
4357:Core/Inc/../../Drivers/CMSIS/DSP/Include/arm_math.h ****       uint32_t blockSize);
4358:Core/Inc/../../Drivers/CMSIS/DSP/Include/arm_math.h **** 
4359:Core/Inc/../../Drivers/CMSIS/DSP/Include/arm_math.h ****   /**
4360:Core/Inc/../../Drivers/CMSIS/DSP/Include/arm_math.h ****    * @brief  Initialization function for the Q7 sparse FIR filter.
4361:Core/Inc/../../Drivers/CMSIS/DSP/Include/arm_math.h ****    * @param[in,out] S          points to an instance of the Q7 sparse FIR structure.
4362:Core/Inc/../../Drivers/CMSIS/DSP/Include/arm_math.h ****    * @param[in]     numTaps    number of nonzero coefficients in the filter.
4363:Core/Inc/../../Drivers/CMSIS/DSP/Include/arm_math.h ****    * @param[in]     pCoeffs    points to the array of filter coefficients.
ARM GAS  /var/folders/n6/c271nzx11xl4r4_m7sqjlt0m0000gn/T//ccGo3Vqh.s 			page 105


4364:Core/Inc/../../Drivers/CMSIS/DSP/Include/arm_math.h ****    * @param[in]     pState     points to the state buffer.
4365:Core/Inc/../../Drivers/CMSIS/DSP/Include/arm_math.h ****    * @param[in]     pTapDelay  points to the array of offset times.
4366:Core/Inc/../../Drivers/CMSIS/DSP/Include/arm_math.h ****    * @param[in]     maxDelay   maximum offset time supported.
4367:Core/Inc/../../Drivers/CMSIS/DSP/Include/arm_math.h ****    * @param[in]     blockSize  number of samples that will be processed per block.
4368:Core/Inc/../../Drivers/CMSIS/DSP/Include/arm_math.h ****    */
4369:Core/Inc/../../Drivers/CMSIS/DSP/Include/arm_math.h ****   void arm_fir_sparse_init_q7(
4370:Core/Inc/../../Drivers/CMSIS/DSP/Include/arm_math.h ****       arm_fir_sparse_instance_q7 *S,
4371:Core/Inc/../../Drivers/CMSIS/DSP/Include/arm_math.h ****       uint16_t numTaps,
4372:Core/Inc/../../Drivers/CMSIS/DSP/Include/arm_math.h ****       q7_t *pCoeffs,
4373:Core/Inc/../../Drivers/CMSIS/DSP/Include/arm_math.h ****       q7_t *pState,
4374:Core/Inc/../../Drivers/CMSIS/DSP/Include/arm_math.h ****       int32_t *pTapDelay,
4375:Core/Inc/../../Drivers/CMSIS/DSP/Include/arm_math.h ****       uint16_t maxDelay,
4376:Core/Inc/../../Drivers/CMSIS/DSP/Include/arm_math.h ****       uint32_t blockSize);
4377:Core/Inc/../../Drivers/CMSIS/DSP/Include/arm_math.h **** 
4378:Core/Inc/../../Drivers/CMSIS/DSP/Include/arm_math.h ****   /**
4379:Core/Inc/../../Drivers/CMSIS/DSP/Include/arm_math.h ****    * @brief  Floating-point sin_cos function.
4380:Core/Inc/../../Drivers/CMSIS/DSP/Include/arm_math.h ****    * @param[in]  theta   input value in degrees
4381:Core/Inc/../../Drivers/CMSIS/DSP/Include/arm_math.h ****    * @param[out] pSinVal  points to the processed sine output.
4382:Core/Inc/../../Drivers/CMSIS/DSP/Include/arm_math.h ****    * @param[out] pCosVal  points to the processed cos output.
4383:Core/Inc/../../Drivers/CMSIS/DSP/Include/arm_math.h ****    */
4384:Core/Inc/../../Drivers/CMSIS/DSP/Include/arm_math.h ****   void arm_sin_cos_f32(
4385:Core/Inc/../../Drivers/CMSIS/DSP/Include/arm_math.h ****       float32_t theta,
4386:Core/Inc/../../Drivers/CMSIS/DSP/Include/arm_math.h ****       float32_t *pSinVal,
4387:Core/Inc/../../Drivers/CMSIS/DSP/Include/arm_math.h ****       float32_t *pCosVal);
4388:Core/Inc/../../Drivers/CMSIS/DSP/Include/arm_math.h **** 
4389:Core/Inc/../../Drivers/CMSIS/DSP/Include/arm_math.h ****   /**
4390:Core/Inc/../../Drivers/CMSIS/DSP/Include/arm_math.h ****    * @brief  Q31 sin_cos function.
4391:Core/Inc/../../Drivers/CMSIS/DSP/Include/arm_math.h ****    * @param[in]  theta    scaled input value in degrees
4392:Core/Inc/../../Drivers/CMSIS/DSP/Include/arm_math.h ****    * @param[out] pSinVal  points to the processed sine output.
4393:Core/Inc/../../Drivers/CMSIS/DSP/Include/arm_math.h ****    * @param[out] pCosVal  points to the processed cosine output.
4394:Core/Inc/../../Drivers/CMSIS/DSP/Include/arm_math.h ****    */
4395:Core/Inc/../../Drivers/CMSIS/DSP/Include/arm_math.h ****   void arm_sin_cos_q31(
4396:Core/Inc/../../Drivers/CMSIS/DSP/Include/arm_math.h ****       q31_t theta,
4397:Core/Inc/../../Drivers/CMSIS/DSP/Include/arm_math.h ****       q31_t *pSinVal,
4398:Core/Inc/../../Drivers/CMSIS/DSP/Include/arm_math.h ****       q31_t *pCosVal);
4399:Core/Inc/../../Drivers/CMSIS/DSP/Include/arm_math.h **** 
4400:Core/Inc/../../Drivers/CMSIS/DSP/Include/arm_math.h ****   /**
4401:Core/Inc/../../Drivers/CMSIS/DSP/Include/arm_math.h ****    * @brief  Floating-point complex conjugate.
4402:Core/Inc/../../Drivers/CMSIS/DSP/Include/arm_math.h ****    * @param[in]  pSrc        points to the input vector
4403:Core/Inc/../../Drivers/CMSIS/DSP/Include/arm_math.h ****    * @param[out] pDst        points to the output vector
4404:Core/Inc/../../Drivers/CMSIS/DSP/Include/arm_math.h ****    * @param[in]  numSamples  number of complex samples in each vector
4405:Core/Inc/../../Drivers/CMSIS/DSP/Include/arm_math.h ****    */
4406:Core/Inc/../../Drivers/CMSIS/DSP/Include/arm_math.h ****   void arm_cmplx_conj_f32(
4407:Core/Inc/../../Drivers/CMSIS/DSP/Include/arm_math.h ****       float32_t *pSrc,
4408:Core/Inc/../../Drivers/CMSIS/DSP/Include/arm_math.h ****       float32_t *pDst,
4409:Core/Inc/../../Drivers/CMSIS/DSP/Include/arm_math.h ****       uint32_t numSamples);
4410:Core/Inc/../../Drivers/CMSIS/DSP/Include/arm_math.h **** 
4411:Core/Inc/../../Drivers/CMSIS/DSP/Include/arm_math.h ****   /**
4412:Core/Inc/../../Drivers/CMSIS/DSP/Include/arm_math.h ****    * @brief  Q31 complex conjugate.
4413:Core/Inc/../../Drivers/CMSIS/DSP/Include/arm_math.h ****    * @param[in]  pSrc        points to the input vector
4414:Core/Inc/../../Drivers/CMSIS/DSP/Include/arm_math.h ****    * @param[out] pDst        points to the output vector
4415:Core/Inc/../../Drivers/CMSIS/DSP/Include/arm_math.h ****    * @param[in]  numSamples  number of complex samples in each vector
4416:Core/Inc/../../Drivers/CMSIS/DSP/Include/arm_math.h ****    */
4417:Core/Inc/../../Drivers/CMSIS/DSP/Include/arm_math.h ****   void arm_cmplx_conj_q31(
4418:Core/Inc/../../Drivers/CMSIS/DSP/Include/arm_math.h ****       q31_t *pSrc,
4419:Core/Inc/../../Drivers/CMSIS/DSP/Include/arm_math.h ****       q31_t *pDst,
4420:Core/Inc/../../Drivers/CMSIS/DSP/Include/arm_math.h ****       uint32_t numSamples);
ARM GAS  /var/folders/n6/c271nzx11xl4r4_m7sqjlt0m0000gn/T//ccGo3Vqh.s 			page 106


4421:Core/Inc/../../Drivers/CMSIS/DSP/Include/arm_math.h **** 
4422:Core/Inc/../../Drivers/CMSIS/DSP/Include/arm_math.h ****   /**
4423:Core/Inc/../../Drivers/CMSIS/DSP/Include/arm_math.h ****    * @brief  Q15 complex conjugate.
4424:Core/Inc/../../Drivers/CMSIS/DSP/Include/arm_math.h ****    * @param[in]  pSrc        points to the input vector
4425:Core/Inc/../../Drivers/CMSIS/DSP/Include/arm_math.h ****    * @param[out] pDst        points to the output vector
4426:Core/Inc/../../Drivers/CMSIS/DSP/Include/arm_math.h ****    * @param[in]  numSamples  number of complex samples in each vector
4427:Core/Inc/../../Drivers/CMSIS/DSP/Include/arm_math.h ****    */
4428:Core/Inc/../../Drivers/CMSIS/DSP/Include/arm_math.h ****   void arm_cmplx_conj_q15(
4429:Core/Inc/../../Drivers/CMSIS/DSP/Include/arm_math.h ****       q15_t *pSrc,
4430:Core/Inc/../../Drivers/CMSIS/DSP/Include/arm_math.h ****       q15_t *pDst,
4431:Core/Inc/../../Drivers/CMSIS/DSP/Include/arm_math.h ****       uint32_t numSamples);
4432:Core/Inc/../../Drivers/CMSIS/DSP/Include/arm_math.h **** 
4433:Core/Inc/../../Drivers/CMSIS/DSP/Include/arm_math.h ****   /**
4434:Core/Inc/../../Drivers/CMSIS/DSP/Include/arm_math.h ****    * @brief  Floating-point complex magnitude squared
4435:Core/Inc/../../Drivers/CMSIS/DSP/Include/arm_math.h ****    * @param[in]  pSrc        points to the complex input vector
4436:Core/Inc/../../Drivers/CMSIS/DSP/Include/arm_math.h ****    * @param[out] pDst        points to the real output vector
4437:Core/Inc/../../Drivers/CMSIS/DSP/Include/arm_math.h ****    * @param[in]  numSamples  number of complex samples in the input vector
4438:Core/Inc/../../Drivers/CMSIS/DSP/Include/arm_math.h ****    */
4439:Core/Inc/../../Drivers/CMSIS/DSP/Include/arm_math.h ****   void arm_cmplx_mag_squared_f32(
4440:Core/Inc/../../Drivers/CMSIS/DSP/Include/arm_math.h ****       float32_t *pSrc,
4441:Core/Inc/../../Drivers/CMSIS/DSP/Include/arm_math.h ****       float32_t *pDst,
4442:Core/Inc/../../Drivers/CMSIS/DSP/Include/arm_math.h ****       uint32_t numSamples);
4443:Core/Inc/../../Drivers/CMSIS/DSP/Include/arm_math.h **** 
4444:Core/Inc/../../Drivers/CMSIS/DSP/Include/arm_math.h ****   /**
4445:Core/Inc/../../Drivers/CMSIS/DSP/Include/arm_math.h ****    * @brief  Q31 complex magnitude squared
4446:Core/Inc/../../Drivers/CMSIS/DSP/Include/arm_math.h ****    * @param[in]  pSrc        points to the complex input vector
4447:Core/Inc/../../Drivers/CMSIS/DSP/Include/arm_math.h ****    * @param[out] pDst        points to the real output vector
4448:Core/Inc/../../Drivers/CMSIS/DSP/Include/arm_math.h ****    * @param[in]  numSamples  number of complex samples in the input vector
4449:Core/Inc/../../Drivers/CMSIS/DSP/Include/arm_math.h ****    */
4450:Core/Inc/../../Drivers/CMSIS/DSP/Include/arm_math.h ****   void arm_cmplx_mag_squared_q31(
4451:Core/Inc/../../Drivers/CMSIS/DSP/Include/arm_math.h ****       q31_t *pSrc,
4452:Core/Inc/../../Drivers/CMSIS/DSP/Include/arm_math.h ****       q31_t *pDst,
4453:Core/Inc/../../Drivers/CMSIS/DSP/Include/arm_math.h ****       uint32_t numSamples);
4454:Core/Inc/../../Drivers/CMSIS/DSP/Include/arm_math.h **** 
4455:Core/Inc/../../Drivers/CMSIS/DSP/Include/arm_math.h ****   /**
4456:Core/Inc/../../Drivers/CMSIS/DSP/Include/arm_math.h ****    * @brief  Q15 complex magnitude squared
4457:Core/Inc/../../Drivers/CMSIS/DSP/Include/arm_math.h ****    * @param[in]  pSrc        points to the complex input vector
4458:Core/Inc/../../Drivers/CMSIS/DSP/Include/arm_math.h ****    * @param[out] pDst        points to the real output vector
4459:Core/Inc/../../Drivers/CMSIS/DSP/Include/arm_math.h ****    * @param[in]  numSamples  number of complex samples in the input vector
4460:Core/Inc/../../Drivers/CMSIS/DSP/Include/arm_math.h ****    */
4461:Core/Inc/../../Drivers/CMSIS/DSP/Include/arm_math.h ****   void arm_cmplx_mag_squared_q15(
4462:Core/Inc/../../Drivers/CMSIS/DSP/Include/arm_math.h ****       q15_t *pSrc,
4463:Core/Inc/../../Drivers/CMSIS/DSP/Include/arm_math.h ****       q15_t *pDst,
4464:Core/Inc/../../Drivers/CMSIS/DSP/Include/arm_math.h ****       uint32_t numSamples);
4465:Core/Inc/../../Drivers/CMSIS/DSP/Include/arm_math.h **** 
4466:Core/Inc/../../Drivers/CMSIS/DSP/Include/arm_math.h ****   /**
4467:Core/Inc/../../Drivers/CMSIS/DSP/Include/arm_math.h ****    * @ingroup groupController
4468:Core/Inc/../../Drivers/CMSIS/DSP/Include/arm_math.h ****    */
4469:Core/Inc/../../Drivers/CMSIS/DSP/Include/arm_math.h **** 
4470:Core/Inc/../../Drivers/CMSIS/DSP/Include/arm_math.h ****   /**
4471:Core/Inc/../../Drivers/CMSIS/DSP/Include/arm_math.h ****    * @defgroup PID PID Motor Control
4472:Core/Inc/../../Drivers/CMSIS/DSP/Include/arm_math.h ****    *
4473:Core/Inc/../../Drivers/CMSIS/DSP/Include/arm_math.h ****    * A Proportional Integral Derivative (PID) controller is a generic feedback control
4474:Core/Inc/../../Drivers/CMSIS/DSP/Include/arm_math.h ****    * loop mechanism widely used in industrial control systems.
4475:Core/Inc/../../Drivers/CMSIS/DSP/Include/arm_math.h ****    * A PID controller is the most commonly used type of feedback controller.
4476:Core/Inc/../../Drivers/CMSIS/DSP/Include/arm_math.h ****    *
4477:Core/Inc/../../Drivers/CMSIS/DSP/Include/arm_math.h ****    * This set of functions implements (PID) controllers
ARM GAS  /var/folders/n6/c271nzx11xl4r4_m7sqjlt0m0000gn/T//ccGo3Vqh.s 			page 107


4478:Core/Inc/../../Drivers/CMSIS/DSP/Include/arm_math.h ****    * for Q15, Q31, and floating-point data types.  The functions operate on a single sample
4479:Core/Inc/../../Drivers/CMSIS/DSP/Include/arm_math.h ****    * of data and each call to the function returns a single processed value.
4480:Core/Inc/../../Drivers/CMSIS/DSP/Include/arm_math.h ****    * <code>S</code> points to an instance of the PID control data structure.  <code>in</code>
4481:Core/Inc/../../Drivers/CMSIS/DSP/Include/arm_math.h ****    * is the input sample value. The functions return the output value.
4482:Core/Inc/../../Drivers/CMSIS/DSP/Include/arm_math.h ****    *
4483:Core/Inc/../../Drivers/CMSIS/DSP/Include/arm_math.h ****    * \par Algorithm:
4484:Core/Inc/../../Drivers/CMSIS/DSP/Include/arm_math.h ****    * <pre>
4485:Core/Inc/../../Drivers/CMSIS/DSP/Include/arm_math.h ****    *    y[n] = y[n-1] + A0 * x[n] + A1 * x[n-1] + A2 * x[n-2]
4486:Core/Inc/../../Drivers/CMSIS/DSP/Include/arm_math.h ****    *    A0 = Kp + Ki + Kd
4487:Core/Inc/../../Drivers/CMSIS/DSP/Include/arm_math.h ****    *    A1 = (-Kp ) - (2 * Kd )
4488:Core/Inc/../../Drivers/CMSIS/DSP/Include/arm_math.h ****    *    A2 = Kd  </pre>
4489:Core/Inc/../../Drivers/CMSIS/DSP/Include/arm_math.h ****    *
4490:Core/Inc/../../Drivers/CMSIS/DSP/Include/arm_math.h ****    * \par
4491:Core/Inc/../../Drivers/CMSIS/DSP/Include/arm_math.h ****    * where \c Kp is proportional constant, \c Ki is Integral constant and \c Kd is Derivative const
4492:Core/Inc/../../Drivers/CMSIS/DSP/Include/arm_math.h ****    *
4493:Core/Inc/../../Drivers/CMSIS/DSP/Include/arm_math.h ****    * \par
4494:Core/Inc/../../Drivers/CMSIS/DSP/Include/arm_math.h ****    * \image html PID.gif "Proportional Integral Derivative Controller"
4495:Core/Inc/../../Drivers/CMSIS/DSP/Include/arm_math.h ****    *
4496:Core/Inc/../../Drivers/CMSIS/DSP/Include/arm_math.h ****    * \par
4497:Core/Inc/../../Drivers/CMSIS/DSP/Include/arm_math.h ****    * The PID controller calculates an "error" value as the difference between
4498:Core/Inc/../../Drivers/CMSIS/DSP/Include/arm_math.h ****    * the measured output and the reference input.
4499:Core/Inc/../../Drivers/CMSIS/DSP/Include/arm_math.h ****    * The controller attempts to minimize the error by adjusting the process control inputs.
4500:Core/Inc/../../Drivers/CMSIS/DSP/Include/arm_math.h ****    * The proportional value determines the reaction to the current error,
4501:Core/Inc/../../Drivers/CMSIS/DSP/Include/arm_math.h ****    * the integral value determines the reaction based on the sum of recent errors,
4502:Core/Inc/../../Drivers/CMSIS/DSP/Include/arm_math.h ****    * and the derivative value determines the reaction based on the rate at which the error has been
4503:Core/Inc/../../Drivers/CMSIS/DSP/Include/arm_math.h ****    *
4504:Core/Inc/../../Drivers/CMSIS/DSP/Include/arm_math.h ****    * \par Instance Structure
4505:Core/Inc/../../Drivers/CMSIS/DSP/Include/arm_math.h ****    * The Gains A0, A1, A2 and state variables for a PID controller are stored together in an instan
4506:Core/Inc/../../Drivers/CMSIS/DSP/Include/arm_math.h ****    * A separate instance structure must be defined for each PID Controller.
4507:Core/Inc/../../Drivers/CMSIS/DSP/Include/arm_math.h ****    * There are separate instance structure declarations for each of the 3 supported data types.
4508:Core/Inc/../../Drivers/CMSIS/DSP/Include/arm_math.h ****    *
4509:Core/Inc/../../Drivers/CMSIS/DSP/Include/arm_math.h ****    * \par Reset Functions
4510:Core/Inc/../../Drivers/CMSIS/DSP/Include/arm_math.h ****    * There is also an associated reset function for each data type which clears the state array.
4511:Core/Inc/../../Drivers/CMSIS/DSP/Include/arm_math.h ****    *
4512:Core/Inc/../../Drivers/CMSIS/DSP/Include/arm_math.h ****    * \par Initialization Functions
4513:Core/Inc/../../Drivers/CMSIS/DSP/Include/arm_math.h ****    * There is also an associated initialization function for each data type.
4514:Core/Inc/../../Drivers/CMSIS/DSP/Include/arm_math.h ****    * The initialization function performs the following operations:
4515:Core/Inc/../../Drivers/CMSIS/DSP/Include/arm_math.h ****    * - Initializes the Gains A0, A1, A2 from Kp,Ki, Kd gains.
4516:Core/Inc/../../Drivers/CMSIS/DSP/Include/arm_math.h ****    * - Zeros out the values in the state buffer.
4517:Core/Inc/../../Drivers/CMSIS/DSP/Include/arm_math.h ****    *
4518:Core/Inc/../../Drivers/CMSIS/DSP/Include/arm_math.h ****    * \par
4519:Core/Inc/../../Drivers/CMSIS/DSP/Include/arm_math.h ****    * Instance structure cannot be placed into a const data section and it is recommended to use the
4520:Core/Inc/../../Drivers/CMSIS/DSP/Include/arm_math.h ****    *
4521:Core/Inc/../../Drivers/CMSIS/DSP/Include/arm_math.h ****    * \par Fixed-Point Behavior
4522:Core/Inc/../../Drivers/CMSIS/DSP/Include/arm_math.h ****    * Care must be taken when using the fixed-point versions of the PID Controller functions.
4523:Core/Inc/../../Drivers/CMSIS/DSP/Include/arm_math.h ****    * In particular, the overflow and saturation behavior of the accumulator used in each function m
4524:Core/Inc/../../Drivers/CMSIS/DSP/Include/arm_math.h ****    * Refer to the function specific documentation below for usage guidelines.
4525:Core/Inc/../../Drivers/CMSIS/DSP/Include/arm_math.h ****    */
4526:Core/Inc/../../Drivers/CMSIS/DSP/Include/arm_math.h **** 
4527:Core/Inc/../../Drivers/CMSIS/DSP/Include/arm_math.h ****   /**
4528:Core/Inc/../../Drivers/CMSIS/DSP/Include/arm_math.h ****    * @addtogroup PID
4529:Core/Inc/../../Drivers/CMSIS/DSP/Include/arm_math.h ****    * @{
4530:Core/Inc/../../Drivers/CMSIS/DSP/Include/arm_math.h ****    */
4531:Core/Inc/../../Drivers/CMSIS/DSP/Include/arm_math.h **** 
4532:Core/Inc/../../Drivers/CMSIS/DSP/Include/arm_math.h ****   /**
4533:Core/Inc/../../Drivers/CMSIS/DSP/Include/arm_math.h ****    * @brief  Process function for the floating-point PID Control.
4534:Core/Inc/../../Drivers/CMSIS/DSP/Include/arm_math.h ****    * @param[in,out] S   is an instance of the floating-point PID Control structure
ARM GAS  /var/folders/n6/c271nzx11xl4r4_m7sqjlt0m0000gn/T//ccGo3Vqh.s 			page 108


4535:Core/Inc/../../Drivers/CMSIS/DSP/Include/arm_math.h ****    * @param[in]     in  input sample to process
4536:Core/Inc/../../Drivers/CMSIS/DSP/Include/arm_math.h ****    * @return out processed output sample.
4537:Core/Inc/../../Drivers/CMSIS/DSP/Include/arm_math.h ****    */
4538:Core/Inc/../../Drivers/CMSIS/DSP/Include/arm_math.h ****   CMSIS_INLINE __STATIC_INLINE float32_t arm_pid_f32(
4539:Core/Inc/../../Drivers/CMSIS/DSP/Include/arm_math.h ****       arm_pid_instance_f32 *S,
4540:Core/Inc/../../Drivers/CMSIS/DSP/Include/arm_math.h ****       float32_t in)
4541:Core/Inc/../../Drivers/CMSIS/DSP/Include/arm_math.h ****   {
4542:Core/Inc/../../Drivers/CMSIS/DSP/Include/arm_math.h ****     float32_t out;
4543:Core/Inc/../../Drivers/CMSIS/DSP/Include/arm_math.h **** 
4544:Core/Inc/../../Drivers/CMSIS/DSP/Include/arm_math.h ****     /* y[n] = y[n-1] + A0 * x[n] + A1 * x[n-1] + A2 * x[n-2]  */
4545:Core/Inc/../../Drivers/CMSIS/DSP/Include/arm_math.h ****     out = (S->A0 * in) +
4546:Core/Inc/../../Drivers/CMSIS/DSP/Include/arm_math.h ****           (S->A1 * S->state[0]) + (S->A2 * S->state[1]) + (S->state[2]);
4547:Core/Inc/../../Drivers/CMSIS/DSP/Include/arm_math.h **** 
4548:Core/Inc/../../Drivers/CMSIS/DSP/Include/arm_math.h ****     /* Update state */
4549:Core/Inc/../../Drivers/CMSIS/DSP/Include/arm_math.h ****     S->state[1] = S->state[0];
4550:Core/Inc/../../Drivers/CMSIS/DSP/Include/arm_math.h ****     S->state[0] = in;
4551:Core/Inc/../../Drivers/CMSIS/DSP/Include/arm_math.h ****     S->state[2] = out;
4552:Core/Inc/../../Drivers/CMSIS/DSP/Include/arm_math.h **** 
4553:Core/Inc/../../Drivers/CMSIS/DSP/Include/arm_math.h ****     /* return to application */
4554:Core/Inc/../../Drivers/CMSIS/DSP/Include/arm_math.h ****     return (out);
4555:Core/Inc/../../Drivers/CMSIS/DSP/Include/arm_math.h ****   }
4556:Core/Inc/../../Drivers/CMSIS/DSP/Include/arm_math.h **** 
4557:Core/Inc/../../Drivers/CMSIS/DSP/Include/arm_math.h ****   /**
4558:Core/Inc/../../Drivers/CMSIS/DSP/Include/arm_math.h ****    * @brief  Process function for the Q31 PID Control.
4559:Core/Inc/../../Drivers/CMSIS/DSP/Include/arm_math.h ****    * @param[in,out] S  points to an instance of the Q31 PID Control structure
4560:Core/Inc/../../Drivers/CMSIS/DSP/Include/arm_math.h ****    * @param[in]     in  input sample to process
4561:Core/Inc/../../Drivers/CMSIS/DSP/Include/arm_math.h ****    * @return out processed output sample.
4562:Core/Inc/../../Drivers/CMSIS/DSP/Include/arm_math.h ****    *
4563:Core/Inc/../../Drivers/CMSIS/DSP/Include/arm_math.h ****    * <b>Scaling and Overflow Behavior:</b>
4564:Core/Inc/../../Drivers/CMSIS/DSP/Include/arm_math.h ****    * \par
4565:Core/Inc/../../Drivers/CMSIS/DSP/Include/arm_math.h ****    * The function is implemented using an internal 64-bit accumulator.
4566:Core/Inc/../../Drivers/CMSIS/DSP/Include/arm_math.h ****    * The accumulator has a 2.62 format and maintains full precision of the intermediate multiplicat
4567:Core/Inc/../../Drivers/CMSIS/DSP/Include/arm_math.h ****    * Thus, if the accumulator result overflows it wraps around rather than clip.
4568:Core/Inc/../../Drivers/CMSIS/DSP/Include/arm_math.h ****    * In order to avoid overflows completely the input signal must be scaled down by 2 bits as there
4569:Core/Inc/../../Drivers/CMSIS/DSP/Include/arm_math.h ****    * After all multiply-accumulates are performed, the 2.62 accumulator is truncated to 1.32 format
4570:Core/Inc/../../Drivers/CMSIS/DSP/Include/arm_math.h ****    */
4571:Core/Inc/../../Drivers/CMSIS/DSP/Include/arm_math.h ****   CMSIS_INLINE __STATIC_INLINE q31_t arm_pid_q31(
4572:Core/Inc/../../Drivers/CMSIS/DSP/Include/arm_math.h ****       arm_pid_instance_q31 *S,
4573:Core/Inc/../../Drivers/CMSIS/DSP/Include/arm_math.h ****       q31_t in)
4574:Core/Inc/../../Drivers/CMSIS/DSP/Include/arm_math.h ****   {
4575:Core/Inc/../../Drivers/CMSIS/DSP/Include/arm_math.h ****     q63_t acc;
4576:Core/Inc/../../Drivers/CMSIS/DSP/Include/arm_math.h ****     q31_t out;
4577:Core/Inc/../../Drivers/CMSIS/DSP/Include/arm_math.h **** 
4578:Core/Inc/../../Drivers/CMSIS/DSP/Include/arm_math.h ****     /* acc = A0 * x[n]  */
4579:Core/Inc/../../Drivers/CMSIS/DSP/Include/arm_math.h ****     acc = (q63_t)S->A0 * in;
4580:Core/Inc/../../Drivers/CMSIS/DSP/Include/arm_math.h **** 
4581:Core/Inc/../../Drivers/CMSIS/DSP/Include/arm_math.h ****     /* acc += A1 * x[n-1] */
4582:Core/Inc/../../Drivers/CMSIS/DSP/Include/arm_math.h ****     acc += (q63_t)S->A1 * S->state[0];
4583:Core/Inc/../../Drivers/CMSIS/DSP/Include/arm_math.h **** 
4584:Core/Inc/../../Drivers/CMSIS/DSP/Include/arm_math.h ****     /* acc += A2 * x[n-2]  */
4585:Core/Inc/../../Drivers/CMSIS/DSP/Include/arm_math.h ****     acc += (q63_t)S->A2 * S->state[1];
4586:Core/Inc/../../Drivers/CMSIS/DSP/Include/arm_math.h **** 
4587:Core/Inc/../../Drivers/CMSIS/DSP/Include/arm_math.h ****     /* convert output to 1.31 format to add y[n-1] */
4588:Core/Inc/../../Drivers/CMSIS/DSP/Include/arm_math.h ****     out = (q31_t)(acc >> 31U);
4589:Core/Inc/../../Drivers/CMSIS/DSP/Include/arm_math.h **** 
4590:Core/Inc/../../Drivers/CMSIS/DSP/Include/arm_math.h ****     /* out += y[n-1] */
4591:Core/Inc/../../Drivers/CMSIS/DSP/Include/arm_math.h ****     out += S->state[2];
ARM GAS  /var/folders/n6/c271nzx11xl4r4_m7sqjlt0m0000gn/T//ccGo3Vqh.s 			page 109


4592:Core/Inc/../../Drivers/CMSIS/DSP/Include/arm_math.h **** 
4593:Core/Inc/../../Drivers/CMSIS/DSP/Include/arm_math.h ****     /* Update state */
4594:Core/Inc/../../Drivers/CMSIS/DSP/Include/arm_math.h ****     S->state[1] = S->state[0];
4595:Core/Inc/../../Drivers/CMSIS/DSP/Include/arm_math.h ****     S->state[0] = in;
4596:Core/Inc/../../Drivers/CMSIS/DSP/Include/arm_math.h ****     S->state[2] = out;
4597:Core/Inc/../../Drivers/CMSIS/DSP/Include/arm_math.h **** 
4598:Core/Inc/../../Drivers/CMSIS/DSP/Include/arm_math.h ****     /* return to application */
4599:Core/Inc/../../Drivers/CMSIS/DSP/Include/arm_math.h ****     return (out);
4600:Core/Inc/../../Drivers/CMSIS/DSP/Include/arm_math.h ****   }
4601:Core/Inc/../../Drivers/CMSIS/DSP/Include/arm_math.h **** 
4602:Core/Inc/../../Drivers/CMSIS/DSP/Include/arm_math.h ****   /**
4603:Core/Inc/../../Drivers/CMSIS/DSP/Include/arm_math.h ****    * @brief  Process function for the Q15 PID Control.
4604:Core/Inc/../../Drivers/CMSIS/DSP/Include/arm_math.h ****    * @param[in,out] S   points to an instance of the Q15 PID Control structure
4605:Core/Inc/../../Drivers/CMSIS/DSP/Include/arm_math.h ****    * @param[in]     in  input sample to process
4606:Core/Inc/../../Drivers/CMSIS/DSP/Include/arm_math.h ****    * @return out processed output sample.
4607:Core/Inc/../../Drivers/CMSIS/DSP/Include/arm_math.h ****    *
4608:Core/Inc/../../Drivers/CMSIS/DSP/Include/arm_math.h ****    * <b>Scaling and Overflow Behavior:</b>
4609:Core/Inc/../../Drivers/CMSIS/DSP/Include/arm_math.h ****    * \par
4610:Core/Inc/../../Drivers/CMSIS/DSP/Include/arm_math.h ****    * The function is implemented using a 64-bit internal accumulator.
4611:Core/Inc/../../Drivers/CMSIS/DSP/Include/arm_math.h ****    * Both Gains and state variables are represented in 1.15 format and multiplications yield a 2.30
4612:Core/Inc/../../Drivers/CMSIS/DSP/Include/arm_math.h ****    * The 2.30 intermediate results are accumulated in a 64-bit accumulator in 34.30 format.
4613:Core/Inc/../../Drivers/CMSIS/DSP/Include/arm_math.h ****    * There is no risk of internal overflow with this approach and the full precision of intermediat
4614:Core/Inc/../../Drivers/CMSIS/DSP/Include/arm_math.h ****    * After all additions have been performed, the accumulator is truncated to 34.15 format by disca
4615:Core/Inc/../../Drivers/CMSIS/DSP/Include/arm_math.h ****    * Lastly, the accumulator is saturated to yield a result in 1.15 format.
4616:Core/Inc/../../Drivers/CMSIS/DSP/Include/arm_math.h ****    */
4617:Core/Inc/../../Drivers/CMSIS/DSP/Include/arm_math.h ****   CMSIS_INLINE __STATIC_INLINE q15_t arm_pid_q15(
4618:Core/Inc/../../Drivers/CMSIS/DSP/Include/arm_math.h ****       arm_pid_instance_q15 *S,
4619:Core/Inc/../../Drivers/CMSIS/DSP/Include/arm_math.h ****       q15_t in)
4620:Core/Inc/../../Drivers/CMSIS/DSP/Include/arm_math.h ****   {
4621:Core/Inc/../../Drivers/CMSIS/DSP/Include/arm_math.h ****     q63_t acc;
4622:Core/Inc/../../Drivers/CMSIS/DSP/Include/arm_math.h ****     q15_t out;
4623:Core/Inc/../../Drivers/CMSIS/DSP/Include/arm_math.h **** 
4624:Core/Inc/../../Drivers/CMSIS/DSP/Include/arm_math.h **** #if defined(ARM_MATH_DSP)
4625:Core/Inc/../../Drivers/CMSIS/DSP/Include/arm_math.h ****     __SIMD32_TYPE *vstate;
4626:Core/Inc/../../Drivers/CMSIS/DSP/Include/arm_math.h **** 
4627:Core/Inc/../../Drivers/CMSIS/DSP/Include/arm_math.h ****     /* Implementation of PID controller */
4628:Core/Inc/../../Drivers/CMSIS/DSP/Include/arm_math.h **** 
4629:Core/Inc/../../Drivers/CMSIS/DSP/Include/arm_math.h ****     /* acc = A0 * x[n]  */
4630:Core/Inc/../../Drivers/CMSIS/DSP/Include/arm_math.h ****     acc = (q31_t)__SMUAD((uint32_t)S->A0, (uint32_t)in);
4631:Core/Inc/../../Drivers/CMSIS/DSP/Include/arm_math.h **** 
4632:Core/Inc/../../Drivers/CMSIS/DSP/Include/arm_math.h ****     /* acc += A1 * x[n-1] + A2 * x[n-2]  */
4633:Core/Inc/../../Drivers/CMSIS/DSP/Include/arm_math.h ****     vstate = __SIMD32_CONST(S->state);
4634:Core/Inc/../../Drivers/CMSIS/DSP/Include/arm_math.h ****     acc = (q63_t)__SMLALD((uint32_t)S->A1, (uint32_t)*vstate, (uint64_t)acc);
4635:Core/Inc/../../Drivers/CMSIS/DSP/Include/arm_math.h **** #else
4636:Core/Inc/../../Drivers/CMSIS/DSP/Include/arm_math.h ****   /* acc = A0 * x[n]  */
4637:Core/Inc/../../Drivers/CMSIS/DSP/Include/arm_math.h ****   acc = ((q31_t)S->A0) * in;
4638:Core/Inc/../../Drivers/CMSIS/DSP/Include/arm_math.h **** 
4639:Core/Inc/../../Drivers/CMSIS/DSP/Include/arm_math.h ****   /* acc += A1 * x[n-1] + A2 * x[n-2]  */
4640:Core/Inc/../../Drivers/CMSIS/DSP/Include/arm_math.h ****   acc += (q31_t)S->A1 * S->state[0];
4641:Core/Inc/../../Drivers/CMSIS/DSP/Include/arm_math.h ****   acc += (q31_t)S->A2 * S->state[1];
4642:Core/Inc/../../Drivers/CMSIS/DSP/Include/arm_math.h **** #endif
4643:Core/Inc/../../Drivers/CMSIS/DSP/Include/arm_math.h **** 
4644:Core/Inc/../../Drivers/CMSIS/DSP/Include/arm_math.h ****     /* acc += y[n-1] */
4645:Core/Inc/../../Drivers/CMSIS/DSP/Include/arm_math.h ****     acc += (q31_t)S->state[2] << 15;
4646:Core/Inc/../../Drivers/CMSIS/DSP/Include/arm_math.h **** 
4647:Core/Inc/../../Drivers/CMSIS/DSP/Include/arm_math.h ****     /* saturate the output */
4648:Core/Inc/../../Drivers/CMSIS/DSP/Include/arm_math.h ****     out = (q15_t)(__SSAT((acc >> 15), 16));
ARM GAS  /var/folders/n6/c271nzx11xl4r4_m7sqjlt0m0000gn/T//ccGo3Vqh.s 			page 110


4649:Core/Inc/../../Drivers/CMSIS/DSP/Include/arm_math.h **** 
4650:Core/Inc/../../Drivers/CMSIS/DSP/Include/arm_math.h ****     /* Update state */
4651:Core/Inc/../../Drivers/CMSIS/DSP/Include/arm_math.h ****     S->state[1] = S->state[0];
4652:Core/Inc/../../Drivers/CMSIS/DSP/Include/arm_math.h ****     S->state[0] = in;
4653:Core/Inc/../../Drivers/CMSIS/DSP/Include/arm_math.h ****     S->state[2] = out;
4654:Core/Inc/../../Drivers/CMSIS/DSP/Include/arm_math.h **** 
4655:Core/Inc/../../Drivers/CMSIS/DSP/Include/arm_math.h ****     /* return to application */
4656:Core/Inc/../../Drivers/CMSIS/DSP/Include/arm_math.h ****     return (out);
4657:Core/Inc/../../Drivers/CMSIS/DSP/Include/arm_math.h ****   }
4658:Core/Inc/../../Drivers/CMSIS/DSP/Include/arm_math.h **** 
4659:Core/Inc/../../Drivers/CMSIS/DSP/Include/arm_math.h ****   /**
4660:Core/Inc/../../Drivers/CMSIS/DSP/Include/arm_math.h ****    * @} end of PID group
4661:Core/Inc/../../Drivers/CMSIS/DSP/Include/arm_math.h ****    */
4662:Core/Inc/../../Drivers/CMSIS/DSP/Include/arm_math.h **** 
4663:Core/Inc/../../Drivers/CMSIS/DSP/Include/arm_math.h ****   /**
4664:Core/Inc/../../Drivers/CMSIS/DSP/Include/arm_math.h ****    * @brief Floating-point matrix inverse.
4665:Core/Inc/../../Drivers/CMSIS/DSP/Include/arm_math.h ****    * @param[in]  src   points to the instance of the input floating-point matrix structure.
4666:Core/Inc/../../Drivers/CMSIS/DSP/Include/arm_math.h ****    * @param[out] dst   points to the instance of the output floating-point matrix structure.
4667:Core/Inc/../../Drivers/CMSIS/DSP/Include/arm_math.h ****    * @return The function returns ARM_MATH_SIZE_MISMATCH, if the dimensions do not match.
4668:Core/Inc/../../Drivers/CMSIS/DSP/Include/arm_math.h ****    * If the input matrix is singular (does not have an inverse), then the algorithm terminates and 
4669:Core/Inc/../../Drivers/CMSIS/DSP/Include/arm_math.h ****    */
4670:Core/Inc/../../Drivers/CMSIS/DSP/Include/arm_math.h ****   arm_status arm_mat_inverse_f32(
4671:Core/Inc/../../Drivers/CMSIS/DSP/Include/arm_math.h ****       const arm_matrix_instance_f32 *src,
4672:Core/Inc/../../Drivers/CMSIS/DSP/Include/arm_math.h ****       arm_matrix_instance_f32 *dst);
4673:Core/Inc/../../Drivers/CMSIS/DSP/Include/arm_math.h **** 
4674:Core/Inc/../../Drivers/CMSIS/DSP/Include/arm_math.h ****   /**
4675:Core/Inc/../../Drivers/CMSIS/DSP/Include/arm_math.h ****    * @brief Floating-point matrix inverse.
4676:Core/Inc/../../Drivers/CMSIS/DSP/Include/arm_math.h ****    * @param[in]  src   points to the instance of the input floating-point matrix structure.
4677:Core/Inc/../../Drivers/CMSIS/DSP/Include/arm_math.h ****    * @param[out] dst   points to the instance of the output floating-point matrix structure.
4678:Core/Inc/../../Drivers/CMSIS/DSP/Include/arm_math.h ****    * @return The function returns ARM_MATH_SIZE_MISMATCH, if the dimensions do not match.
4679:Core/Inc/../../Drivers/CMSIS/DSP/Include/arm_math.h ****    * If the input matrix is singular (does not have an inverse), then the algorithm terminates and 
4680:Core/Inc/../../Drivers/CMSIS/DSP/Include/arm_math.h ****    */
4681:Core/Inc/../../Drivers/CMSIS/DSP/Include/arm_math.h ****   arm_status arm_mat_inverse_f64(
4682:Core/Inc/../../Drivers/CMSIS/DSP/Include/arm_math.h ****       const arm_matrix_instance_f64 *src,
4683:Core/Inc/../../Drivers/CMSIS/DSP/Include/arm_math.h ****       arm_matrix_instance_f64 *dst);
4684:Core/Inc/../../Drivers/CMSIS/DSP/Include/arm_math.h **** 
4685:Core/Inc/../../Drivers/CMSIS/DSP/Include/arm_math.h ****   /**
4686:Core/Inc/../../Drivers/CMSIS/DSP/Include/arm_math.h ****    * @ingroup groupController
4687:Core/Inc/../../Drivers/CMSIS/DSP/Include/arm_math.h ****    */
4688:Core/Inc/../../Drivers/CMSIS/DSP/Include/arm_math.h **** 
4689:Core/Inc/../../Drivers/CMSIS/DSP/Include/arm_math.h ****   /**
4690:Core/Inc/../../Drivers/CMSIS/DSP/Include/arm_math.h ****    * @defgroup clarke Vector Clarke Transform
4691:Core/Inc/../../Drivers/CMSIS/DSP/Include/arm_math.h ****    * Forward Clarke transform converts the instantaneous stator phases into a two-coordinate time i
4692:Core/Inc/../../Drivers/CMSIS/DSP/Include/arm_math.h ****    * Generally the Clarke transform uses three-phase currents <code>Ia, Ib and Ic</code> to calcula
4693:Core/Inc/../../Drivers/CMSIS/DSP/Include/arm_math.h ****    * in the two-phase orthogonal stator axis <code>Ialpha</code> and <code>Ibeta</code>.
4694:Core/Inc/../../Drivers/CMSIS/DSP/Include/arm_math.h ****    * When <code>Ialpha</code> is superposed with <code>Ia</code> as shown in the figure below
4695:Core/Inc/../../Drivers/CMSIS/DSP/Include/arm_math.h ****    * \image html clarke.gif Stator current space vector and its components in (a,b).
4696:Core/Inc/../../Drivers/CMSIS/DSP/Include/arm_math.h ****    * and <code>Ia + Ib + Ic = 0</code>, in this condition <code>Ialpha</code> and <code>Ibeta</code
4697:Core/Inc/../../Drivers/CMSIS/DSP/Include/arm_math.h ****    * can be calculated using only <code>Ia</code> and <code>Ib</code>.
4698:Core/Inc/../../Drivers/CMSIS/DSP/Include/arm_math.h ****    *
4699:Core/Inc/../../Drivers/CMSIS/DSP/Include/arm_math.h ****    * The function operates on a single sample of data and each call to the function returns the pro
4700:Core/Inc/../../Drivers/CMSIS/DSP/Include/arm_math.h ****    * The library provides separate functions for Q31 and floating-point data types.
4701:Core/Inc/../../Drivers/CMSIS/DSP/Include/arm_math.h ****    * \par Algorithm
4702:Core/Inc/../../Drivers/CMSIS/DSP/Include/arm_math.h ****    * \image html clarkeFormula.gif
4703:Core/Inc/../../Drivers/CMSIS/DSP/Include/arm_math.h ****    * where <code>Ia</code> and <code>Ib</code> are the instantaneous stator phases and
4704:Core/Inc/../../Drivers/CMSIS/DSP/Include/arm_math.h ****    * <code>pIalpha</code> and <code>pIbeta</code> are the two coordinates of time invariant vector.
4705:Core/Inc/../../Drivers/CMSIS/DSP/Include/arm_math.h ****    * \par Fixed-Point Behavior
ARM GAS  /var/folders/n6/c271nzx11xl4r4_m7sqjlt0m0000gn/T//ccGo3Vqh.s 			page 111


4706:Core/Inc/../../Drivers/CMSIS/DSP/Include/arm_math.h ****    * Care must be taken when using the Q31 version of the Clarke transform.
4707:Core/Inc/../../Drivers/CMSIS/DSP/Include/arm_math.h ****    * In particular, the overflow and saturation behavior of the accumulator used must be considered
4708:Core/Inc/../../Drivers/CMSIS/DSP/Include/arm_math.h ****    * Refer to the function specific documentation below for usage guidelines.
4709:Core/Inc/../../Drivers/CMSIS/DSP/Include/arm_math.h ****    */
4710:Core/Inc/../../Drivers/CMSIS/DSP/Include/arm_math.h **** 
4711:Core/Inc/../../Drivers/CMSIS/DSP/Include/arm_math.h ****   /**
4712:Core/Inc/../../Drivers/CMSIS/DSP/Include/arm_math.h ****    * @addtogroup clarke
4713:Core/Inc/../../Drivers/CMSIS/DSP/Include/arm_math.h ****    * @{
4714:Core/Inc/../../Drivers/CMSIS/DSP/Include/arm_math.h ****    */
4715:Core/Inc/../../Drivers/CMSIS/DSP/Include/arm_math.h **** 
4716:Core/Inc/../../Drivers/CMSIS/DSP/Include/arm_math.h ****   /**
4717:Core/Inc/../../Drivers/CMSIS/DSP/Include/arm_math.h ****    *
4718:Core/Inc/../../Drivers/CMSIS/DSP/Include/arm_math.h ****    * @brief  Floating-point Clarke transform
4719:Core/Inc/../../Drivers/CMSIS/DSP/Include/arm_math.h ****    * @param[in]  Ia       input three-phase coordinate <code>a</code>
4720:Core/Inc/../../Drivers/CMSIS/DSP/Include/arm_math.h ****    * @param[in]  Ib       input three-phase coordinate <code>b</code>
4721:Core/Inc/../../Drivers/CMSIS/DSP/Include/arm_math.h ****    * @param[out] pIalpha  points to output two-phase orthogonal vector axis alpha
4722:Core/Inc/../../Drivers/CMSIS/DSP/Include/arm_math.h ****    * @param[out] pIbeta   points to output two-phase orthogonal vector axis beta
4723:Core/Inc/../../Drivers/CMSIS/DSP/Include/arm_math.h ****    */
4724:Core/Inc/../../Drivers/CMSIS/DSP/Include/arm_math.h ****   CMSIS_INLINE __STATIC_INLINE void arm_clarke_f32(
4725:Core/Inc/../../Drivers/CMSIS/DSP/Include/arm_math.h ****       float32_t Ia,
4726:Core/Inc/../../Drivers/CMSIS/DSP/Include/arm_math.h ****       float32_t Ib,
4727:Core/Inc/../../Drivers/CMSIS/DSP/Include/arm_math.h ****       float32_t *pIalpha,
4728:Core/Inc/../../Drivers/CMSIS/DSP/Include/arm_math.h ****       float32_t *pIbeta)
4729:Core/Inc/../../Drivers/CMSIS/DSP/Include/arm_math.h ****   {
4730:Core/Inc/../../Drivers/CMSIS/DSP/Include/arm_math.h ****     /* Calculate pIalpha using the equation, pIalpha = Ia */
4731:Core/Inc/../../Drivers/CMSIS/DSP/Include/arm_math.h ****     *pIalpha = Ia;
4732:Core/Inc/../../Drivers/CMSIS/DSP/Include/arm_math.h **** 
4733:Core/Inc/../../Drivers/CMSIS/DSP/Include/arm_math.h ****     /* Calculate pIbeta using the equation, pIbeta = (1/sqrt(3)) * Ia + (2/sqrt(3)) * Ib */
4734:Core/Inc/../../Drivers/CMSIS/DSP/Include/arm_math.h ****     *pIbeta = ((float32_t)0.57735026919 * Ia + (float32_t)1.15470053838 * Ib);
4735:Core/Inc/../../Drivers/CMSIS/DSP/Include/arm_math.h ****   }
4736:Core/Inc/../../Drivers/CMSIS/DSP/Include/arm_math.h **** 
4737:Core/Inc/../../Drivers/CMSIS/DSP/Include/arm_math.h ****   /**
4738:Core/Inc/../../Drivers/CMSIS/DSP/Include/arm_math.h ****    * @brief  Clarke transform for Q31 version
4739:Core/Inc/../../Drivers/CMSIS/DSP/Include/arm_math.h ****    * @param[in]  Ia       input three-phase coordinate <code>a</code>
4740:Core/Inc/../../Drivers/CMSIS/DSP/Include/arm_math.h ****    * @param[in]  Ib       input three-phase coordinate <code>b</code>
4741:Core/Inc/../../Drivers/CMSIS/DSP/Include/arm_math.h ****    * @param[out] pIalpha  points to output two-phase orthogonal vector axis alpha
4742:Core/Inc/../../Drivers/CMSIS/DSP/Include/arm_math.h ****    * @param[out] pIbeta   points to output two-phase orthogonal vector axis beta
4743:Core/Inc/../../Drivers/CMSIS/DSP/Include/arm_math.h ****    *
4744:Core/Inc/../../Drivers/CMSIS/DSP/Include/arm_math.h ****    * <b>Scaling and Overflow Behavior:</b>
4745:Core/Inc/../../Drivers/CMSIS/DSP/Include/arm_math.h ****    * \par
4746:Core/Inc/../../Drivers/CMSIS/DSP/Include/arm_math.h ****    * The function is implemented using an internal 32-bit accumulator.
4747:Core/Inc/../../Drivers/CMSIS/DSP/Include/arm_math.h ****    * The accumulator maintains 1.31 format by truncating lower 31 bits of the intermediate multipli
4748:Core/Inc/../../Drivers/CMSIS/DSP/Include/arm_math.h ****    * There is saturation on the addition, hence there is no risk of overflow.
4749:Core/Inc/../../Drivers/CMSIS/DSP/Include/arm_math.h ****    */
4750:Core/Inc/../../Drivers/CMSIS/DSP/Include/arm_math.h ****   CMSIS_INLINE __STATIC_INLINE void arm_clarke_q31(
4751:Core/Inc/../../Drivers/CMSIS/DSP/Include/arm_math.h ****       q31_t Ia,
4752:Core/Inc/../../Drivers/CMSIS/DSP/Include/arm_math.h ****       q31_t Ib,
4753:Core/Inc/../../Drivers/CMSIS/DSP/Include/arm_math.h ****       q31_t *pIalpha,
4754:Core/Inc/../../Drivers/CMSIS/DSP/Include/arm_math.h ****       q31_t *pIbeta)
4755:Core/Inc/../../Drivers/CMSIS/DSP/Include/arm_math.h ****   {
4756:Core/Inc/../../Drivers/CMSIS/DSP/Include/arm_math.h ****     q31_t product1, product2; /* Temporary variables used to store intermediate results */
4757:Core/Inc/../../Drivers/CMSIS/DSP/Include/arm_math.h **** 
4758:Core/Inc/../../Drivers/CMSIS/DSP/Include/arm_math.h ****     /* Calculating pIalpha from Ia by equation pIalpha = Ia */
4759:Core/Inc/../../Drivers/CMSIS/DSP/Include/arm_math.h ****     *pIalpha = Ia;
4760:Core/Inc/../../Drivers/CMSIS/DSP/Include/arm_math.h **** 
4761:Core/Inc/../../Drivers/CMSIS/DSP/Include/arm_math.h ****     /* Intermediate product is calculated by (1/(sqrt(3)) * Ia) */
4762:Core/Inc/../../Drivers/CMSIS/DSP/Include/arm_math.h ****     product1 = (q31_t)(((q63_t)Ia * 0x24F34E8B) >> 30);
ARM GAS  /var/folders/n6/c271nzx11xl4r4_m7sqjlt0m0000gn/T//ccGo3Vqh.s 			page 112


4763:Core/Inc/../../Drivers/CMSIS/DSP/Include/arm_math.h **** 
4764:Core/Inc/../../Drivers/CMSIS/DSP/Include/arm_math.h ****     /* Intermediate product is calculated by (2/sqrt(3) * Ib) */
4765:Core/Inc/../../Drivers/CMSIS/DSP/Include/arm_math.h ****     product2 = (q31_t)(((q63_t)Ib * 0x49E69D16) >> 30);
4766:Core/Inc/../../Drivers/CMSIS/DSP/Include/arm_math.h **** 
4767:Core/Inc/../../Drivers/CMSIS/DSP/Include/arm_math.h ****     /* pIbeta is calculated by adding the intermediate products */
4768:Core/Inc/../../Drivers/CMSIS/DSP/Include/arm_math.h ****     *pIbeta = __QADD(product1, product2);
4769:Core/Inc/../../Drivers/CMSIS/DSP/Include/arm_math.h ****   }
4770:Core/Inc/../../Drivers/CMSIS/DSP/Include/arm_math.h **** 
4771:Core/Inc/../../Drivers/CMSIS/DSP/Include/arm_math.h ****   /**
4772:Core/Inc/../../Drivers/CMSIS/DSP/Include/arm_math.h ****    * @} end of clarke group
4773:Core/Inc/../../Drivers/CMSIS/DSP/Include/arm_math.h ****    */
4774:Core/Inc/../../Drivers/CMSIS/DSP/Include/arm_math.h **** 
4775:Core/Inc/../../Drivers/CMSIS/DSP/Include/arm_math.h ****   /**
4776:Core/Inc/../../Drivers/CMSIS/DSP/Include/arm_math.h ****    * @brief  Converts the elements of the Q7 vector to Q31 vector.
4777:Core/Inc/../../Drivers/CMSIS/DSP/Include/arm_math.h ****    * @param[in]  pSrc       input pointer
4778:Core/Inc/../../Drivers/CMSIS/DSP/Include/arm_math.h ****    * @param[out] pDst       output pointer
4779:Core/Inc/../../Drivers/CMSIS/DSP/Include/arm_math.h ****    * @param[in]  blockSize  number of samples to process
4780:Core/Inc/../../Drivers/CMSIS/DSP/Include/arm_math.h ****    */
4781:Core/Inc/../../Drivers/CMSIS/DSP/Include/arm_math.h ****   void arm_q7_to_q31(
4782:Core/Inc/../../Drivers/CMSIS/DSP/Include/arm_math.h ****       q7_t *pSrc,
4783:Core/Inc/../../Drivers/CMSIS/DSP/Include/arm_math.h ****       q31_t *pDst,
4784:Core/Inc/../../Drivers/CMSIS/DSP/Include/arm_math.h ****       uint32_t blockSize);
4785:Core/Inc/../../Drivers/CMSIS/DSP/Include/arm_math.h **** 
4786:Core/Inc/../../Drivers/CMSIS/DSP/Include/arm_math.h ****   /**
4787:Core/Inc/../../Drivers/CMSIS/DSP/Include/arm_math.h ****    * @ingroup groupController
4788:Core/Inc/../../Drivers/CMSIS/DSP/Include/arm_math.h ****    */
4789:Core/Inc/../../Drivers/CMSIS/DSP/Include/arm_math.h **** 
4790:Core/Inc/../../Drivers/CMSIS/DSP/Include/arm_math.h ****   /**
4791:Core/Inc/../../Drivers/CMSIS/DSP/Include/arm_math.h ****    * @defgroup inv_clarke Vector Inverse Clarke Transform
4792:Core/Inc/../../Drivers/CMSIS/DSP/Include/arm_math.h ****    * Inverse Clarke transform converts the two-coordinate time invariant vector into instantaneous 
4793:Core/Inc/../../Drivers/CMSIS/DSP/Include/arm_math.h ****    *
4794:Core/Inc/../../Drivers/CMSIS/DSP/Include/arm_math.h ****    * The function operates on a single sample of data and each call to the function returns the pro
4795:Core/Inc/../../Drivers/CMSIS/DSP/Include/arm_math.h ****    * The library provides separate functions for Q31 and floating-point data types.
4796:Core/Inc/../../Drivers/CMSIS/DSP/Include/arm_math.h ****    * \par Algorithm
4797:Core/Inc/../../Drivers/CMSIS/DSP/Include/arm_math.h ****    * \image html clarkeInvFormula.gif
4798:Core/Inc/../../Drivers/CMSIS/DSP/Include/arm_math.h ****    * where <code>pIa</code> and <code>pIb</code> are the instantaneous stator phases and
4799:Core/Inc/../../Drivers/CMSIS/DSP/Include/arm_math.h ****    * <code>Ialpha</code> and <code>Ibeta</code> are the two coordinates of time invariant vector.
4800:Core/Inc/../../Drivers/CMSIS/DSP/Include/arm_math.h ****    * \par Fixed-Point Behavior
4801:Core/Inc/../../Drivers/CMSIS/DSP/Include/arm_math.h ****    * Care must be taken when using the Q31 version of the Clarke transform.
4802:Core/Inc/../../Drivers/CMSIS/DSP/Include/arm_math.h ****    * In particular, the overflow and saturation behavior of the accumulator used must be considered
4803:Core/Inc/../../Drivers/CMSIS/DSP/Include/arm_math.h ****    * Refer to the function specific documentation below for usage guidelines.
4804:Core/Inc/../../Drivers/CMSIS/DSP/Include/arm_math.h ****    */
4805:Core/Inc/../../Drivers/CMSIS/DSP/Include/arm_math.h **** 
4806:Core/Inc/../../Drivers/CMSIS/DSP/Include/arm_math.h ****   /**
4807:Core/Inc/../../Drivers/CMSIS/DSP/Include/arm_math.h ****    * @addtogroup inv_clarke
4808:Core/Inc/../../Drivers/CMSIS/DSP/Include/arm_math.h ****    * @{
4809:Core/Inc/../../Drivers/CMSIS/DSP/Include/arm_math.h ****    */
4810:Core/Inc/../../Drivers/CMSIS/DSP/Include/arm_math.h **** 
4811:Core/Inc/../../Drivers/CMSIS/DSP/Include/arm_math.h ****   /**
4812:Core/Inc/../../Drivers/CMSIS/DSP/Include/arm_math.h ****    * @brief  Floating-point Inverse Clarke transform
4813:Core/Inc/../../Drivers/CMSIS/DSP/Include/arm_math.h ****    * @param[in]  Ialpha  input two-phase orthogonal vector axis alpha
4814:Core/Inc/../../Drivers/CMSIS/DSP/Include/arm_math.h ****    * @param[in]  Ibeta   input two-phase orthogonal vector axis beta
4815:Core/Inc/../../Drivers/CMSIS/DSP/Include/arm_math.h ****    * @param[out] pIa     points to output three-phase coordinate <code>a</code>
4816:Core/Inc/../../Drivers/CMSIS/DSP/Include/arm_math.h ****    * @param[out] pIb     points to output three-phase coordinate <code>b</code>
4817:Core/Inc/../../Drivers/CMSIS/DSP/Include/arm_math.h ****    */
4818:Core/Inc/../../Drivers/CMSIS/DSP/Include/arm_math.h ****   CMSIS_INLINE __STATIC_INLINE void arm_inv_clarke_f32(
4819:Core/Inc/../../Drivers/CMSIS/DSP/Include/arm_math.h ****       float32_t Ialpha,
ARM GAS  /var/folders/n6/c271nzx11xl4r4_m7sqjlt0m0000gn/T//ccGo3Vqh.s 			page 113


4820:Core/Inc/../../Drivers/CMSIS/DSP/Include/arm_math.h ****       float32_t Ibeta,
4821:Core/Inc/../../Drivers/CMSIS/DSP/Include/arm_math.h ****       float32_t *pIa,
4822:Core/Inc/../../Drivers/CMSIS/DSP/Include/arm_math.h ****       float32_t *pIb)
4823:Core/Inc/../../Drivers/CMSIS/DSP/Include/arm_math.h ****   {
4824:Core/Inc/../../Drivers/CMSIS/DSP/Include/arm_math.h ****     /* Calculating pIa from Ialpha by equation pIa = Ialpha */
4825:Core/Inc/../../Drivers/CMSIS/DSP/Include/arm_math.h ****     *pIa = Ialpha;
4826:Core/Inc/../../Drivers/CMSIS/DSP/Include/arm_math.h **** 
4827:Core/Inc/../../Drivers/CMSIS/DSP/Include/arm_math.h ****     /* Calculating pIb from Ialpha and Ibeta by equation pIb = -(1/2) * Ialpha + (sqrt(3)/2) * Ibet
4828:Core/Inc/../../Drivers/CMSIS/DSP/Include/arm_math.h ****     *pIb = -0.5f * Ialpha + 0.8660254039f * Ibeta;
4829:Core/Inc/../../Drivers/CMSIS/DSP/Include/arm_math.h ****   }
4830:Core/Inc/../../Drivers/CMSIS/DSP/Include/arm_math.h **** 
4831:Core/Inc/../../Drivers/CMSIS/DSP/Include/arm_math.h ****   /**
4832:Core/Inc/../../Drivers/CMSIS/DSP/Include/arm_math.h ****    * @brief  Inverse Clarke transform for Q31 version
4833:Core/Inc/../../Drivers/CMSIS/DSP/Include/arm_math.h ****    * @param[in]  Ialpha  input two-phase orthogonal vector axis alpha
4834:Core/Inc/../../Drivers/CMSIS/DSP/Include/arm_math.h ****    * @param[in]  Ibeta   input two-phase orthogonal vector axis beta
4835:Core/Inc/../../Drivers/CMSIS/DSP/Include/arm_math.h ****    * @param[out] pIa     points to output three-phase coordinate <code>a</code>
4836:Core/Inc/../../Drivers/CMSIS/DSP/Include/arm_math.h ****    * @param[out] pIb     points to output three-phase coordinate <code>b</code>
4837:Core/Inc/../../Drivers/CMSIS/DSP/Include/arm_math.h ****    *
4838:Core/Inc/../../Drivers/CMSIS/DSP/Include/arm_math.h ****    * <b>Scaling and Overflow Behavior:</b>
4839:Core/Inc/../../Drivers/CMSIS/DSP/Include/arm_math.h ****    * \par
4840:Core/Inc/../../Drivers/CMSIS/DSP/Include/arm_math.h ****    * The function is implemented using an internal 32-bit accumulator.
4841:Core/Inc/../../Drivers/CMSIS/DSP/Include/arm_math.h ****    * The accumulator maintains 1.31 format by truncating lower 31 bits of the intermediate multipli
4842:Core/Inc/../../Drivers/CMSIS/DSP/Include/arm_math.h ****    * There is saturation on the subtraction, hence there is no risk of overflow.
4843:Core/Inc/../../Drivers/CMSIS/DSP/Include/arm_math.h ****    */
4844:Core/Inc/../../Drivers/CMSIS/DSP/Include/arm_math.h ****   CMSIS_INLINE __STATIC_INLINE void arm_inv_clarke_q31(
4845:Core/Inc/../../Drivers/CMSIS/DSP/Include/arm_math.h ****       q31_t Ialpha,
4846:Core/Inc/../../Drivers/CMSIS/DSP/Include/arm_math.h ****       q31_t Ibeta,
4847:Core/Inc/../../Drivers/CMSIS/DSP/Include/arm_math.h ****       q31_t *pIa,
4848:Core/Inc/../../Drivers/CMSIS/DSP/Include/arm_math.h ****       q31_t *pIb)
4849:Core/Inc/../../Drivers/CMSIS/DSP/Include/arm_math.h ****   {
4850:Core/Inc/../../Drivers/CMSIS/DSP/Include/arm_math.h ****     q31_t product1, product2; /* Temporary variables used to store intermediate results */
4851:Core/Inc/../../Drivers/CMSIS/DSP/Include/arm_math.h **** 
4852:Core/Inc/../../Drivers/CMSIS/DSP/Include/arm_math.h ****     /* Calculating pIa from Ialpha by equation pIa = Ialpha */
4853:Core/Inc/../../Drivers/CMSIS/DSP/Include/arm_math.h ****     *pIa = Ialpha;
4854:Core/Inc/../../Drivers/CMSIS/DSP/Include/arm_math.h **** 
4855:Core/Inc/../../Drivers/CMSIS/DSP/Include/arm_math.h ****     /* Intermediate product is calculated by (1/(2*sqrt(3)) * Ia) */
4856:Core/Inc/../../Drivers/CMSIS/DSP/Include/arm_math.h ****     product1 = (q31_t)(((q63_t)(Ialpha) * (0x40000000)) >> 31);
4857:Core/Inc/../../Drivers/CMSIS/DSP/Include/arm_math.h **** 
4858:Core/Inc/../../Drivers/CMSIS/DSP/Include/arm_math.h ****     /* Intermediate product is calculated by (1/sqrt(3) * pIb) */
4859:Core/Inc/../../Drivers/CMSIS/DSP/Include/arm_math.h ****     product2 = (q31_t)(((q63_t)(Ibeta) * (0x6ED9EBA1)) >> 31);
4860:Core/Inc/../../Drivers/CMSIS/DSP/Include/arm_math.h **** 
4861:Core/Inc/../../Drivers/CMSIS/DSP/Include/arm_math.h ****     /* pIb is calculated by subtracting the products */
4862:Core/Inc/../../Drivers/CMSIS/DSP/Include/arm_math.h ****     *pIb = __QSUB(product2, product1);
4863:Core/Inc/../../Drivers/CMSIS/DSP/Include/arm_math.h ****   }
4864:Core/Inc/../../Drivers/CMSIS/DSP/Include/arm_math.h **** 
4865:Core/Inc/../../Drivers/CMSIS/DSP/Include/arm_math.h ****   /**
4866:Core/Inc/../../Drivers/CMSIS/DSP/Include/arm_math.h ****    * @} end of inv_clarke group
4867:Core/Inc/../../Drivers/CMSIS/DSP/Include/arm_math.h ****    */
4868:Core/Inc/../../Drivers/CMSIS/DSP/Include/arm_math.h **** 
4869:Core/Inc/../../Drivers/CMSIS/DSP/Include/arm_math.h ****   /**
4870:Core/Inc/../../Drivers/CMSIS/DSP/Include/arm_math.h ****    * @brief  Converts the elements of the Q7 vector to Q15 vector.
4871:Core/Inc/../../Drivers/CMSIS/DSP/Include/arm_math.h ****    * @param[in]  pSrc       input pointer
4872:Core/Inc/../../Drivers/CMSIS/DSP/Include/arm_math.h ****    * @param[out] pDst       output pointer
4873:Core/Inc/../../Drivers/CMSIS/DSP/Include/arm_math.h ****    * @param[in]  blockSize  number of samples to process
4874:Core/Inc/../../Drivers/CMSIS/DSP/Include/arm_math.h ****    */
4875:Core/Inc/../../Drivers/CMSIS/DSP/Include/arm_math.h ****   void arm_q7_to_q15(
4876:Core/Inc/../../Drivers/CMSIS/DSP/Include/arm_math.h ****       q7_t *pSrc,
ARM GAS  /var/folders/n6/c271nzx11xl4r4_m7sqjlt0m0000gn/T//ccGo3Vqh.s 			page 114


4877:Core/Inc/../../Drivers/CMSIS/DSP/Include/arm_math.h ****       q15_t *pDst,
4878:Core/Inc/../../Drivers/CMSIS/DSP/Include/arm_math.h ****       uint32_t blockSize);
4879:Core/Inc/../../Drivers/CMSIS/DSP/Include/arm_math.h **** 
4880:Core/Inc/../../Drivers/CMSIS/DSP/Include/arm_math.h ****   /**
4881:Core/Inc/../../Drivers/CMSIS/DSP/Include/arm_math.h ****    * @ingroup groupController
4882:Core/Inc/../../Drivers/CMSIS/DSP/Include/arm_math.h ****    */
4883:Core/Inc/../../Drivers/CMSIS/DSP/Include/arm_math.h **** 
4884:Core/Inc/../../Drivers/CMSIS/DSP/Include/arm_math.h ****   /**
4885:Core/Inc/../../Drivers/CMSIS/DSP/Include/arm_math.h ****    * @defgroup park Vector Park Transform
4886:Core/Inc/../../Drivers/CMSIS/DSP/Include/arm_math.h ****    *
4887:Core/Inc/../../Drivers/CMSIS/DSP/Include/arm_math.h ****    * Forward Park transform converts the input two-coordinate vector to flux and torque components.
4888:Core/Inc/../../Drivers/CMSIS/DSP/Include/arm_math.h ****    * The Park transform can be used to realize the transformation of the <code>Ialpha</code> and th
4889:Core/Inc/../../Drivers/CMSIS/DSP/Include/arm_math.h ****    * from the stationary to the moving reference frame and control the spatial relationship between
4890:Core/Inc/../../Drivers/CMSIS/DSP/Include/arm_math.h ****    * the stator vector current and rotor flux vector.
4891:Core/Inc/../../Drivers/CMSIS/DSP/Include/arm_math.h ****    * If we consider the d axis aligned with the rotor flux, the diagram below shows the
4892:Core/Inc/../../Drivers/CMSIS/DSP/Include/arm_math.h ****    * current vector and the relationship from the two reference frames:
4893:Core/Inc/../../Drivers/CMSIS/DSP/Include/arm_math.h ****    * \image html park.gif "Stator current space vector and its component in (a,b) and in the d,q ro
4894:Core/Inc/../../Drivers/CMSIS/DSP/Include/arm_math.h ****    *
4895:Core/Inc/../../Drivers/CMSIS/DSP/Include/arm_math.h ****    * The function operates on a single sample of data and each call to the function returns the pro
4896:Core/Inc/../../Drivers/CMSIS/DSP/Include/arm_math.h ****    * The library provides separate functions for Q31 and floating-point data types.
4897:Core/Inc/../../Drivers/CMSIS/DSP/Include/arm_math.h ****    * \par Algorithm
4898:Core/Inc/../../Drivers/CMSIS/DSP/Include/arm_math.h ****    * \image html parkFormula.gif
4899:Core/Inc/../../Drivers/CMSIS/DSP/Include/arm_math.h ****    * where <code>Ialpha</code> and <code>Ibeta</code> are the stator vector components,
4900:Core/Inc/../../Drivers/CMSIS/DSP/Include/arm_math.h ****    * <code>pId</code> and <code>pIq</code> are rotor vector components and <code>cosVal</code> and 
4901:Core/Inc/../../Drivers/CMSIS/DSP/Include/arm_math.h ****    * cosine and sine values of theta (rotor flux position).
4902:Core/Inc/../../Drivers/CMSIS/DSP/Include/arm_math.h ****    * \par Fixed-Point Behavior
4903:Core/Inc/../../Drivers/CMSIS/DSP/Include/arm_math.h ****    * Care must be taken when using the Q31 version of the Park transform.
4904:Core/Inc/../../Drivers/CMSIS/DSP/Include/arm_math.h ****    * In particular, the overflow and saturation behavior of the accumulator used must be considered
4905:Core/Inc/../../Drivers/CMSIS/DSP/Include/arm_math.h ****    * Refer to the function specific documentation below for usage guidelines.
4906:Core/Inc/../../Drivers/CMSIS/DSP/Include/arm_math.h ****    */
4907:Core/Inc/../../Drivers/CMSIS/DSP/Include/arm_math.h **** 
4908:Core/Inc/../../Drivers/CMSIS/DSP/Include/arm_math.h ****   /**
4909:Core/Inc/../../Drivers/CMSIS/DSP/Include/arm_math.h ****    * @addtogroup park
4910:Core/Inc/../../Drivers/CMSIS/DSP/Include/arm_math.h ****    * @{
4911:Core/Inc/../../Drivers/CMSIS/DSP/Include/arm_math.h ****    */
4912:Core/Inc/../../Drivers/CMSIS/DSP/Include/arm_math.h **** 
4913:Core/Inc/../../Drivers/CMSIS/DSP/Include/arm_math.h ****   /**
4914:Core/Inc/../../Drivers/CMSIS/DSP/Include/arm_math.h ****    * @brief Floating-point Park transform
4915:Core/Inc/../../Drivers/CMSIS/DSP/Include/arm_math.h ****    * @param[in]  Ialpha  input two-phase vector coordinate alpha
4916:Core/Inc/../../Drivers/CMSIS/DSP/Include/arm_math.h ****    * @param[in]  Ibeta   input two-phase vector coordinate beta
4917:Core/Inc/../../Drivers/CMSIS/DSP/Include/arm_math.h ****    * @param[out] pId     points to output   rotor reference frame d
4918:Core/Inc/../../Drivers/CMSIS/DSP/Include/arm_math.h ****    * @param[out] pIq     points to output   rotor reference frame q
4919:Core/Inc/../../Drivers/CMSIS/DSP/Include/arm_math.h ****    * @param[in]  sinVal  sine value of rotation angle theta
4920:Core/Inc/../../Drivers/CMSIS/DSP/Include/arm_math.h ****    * @param[in]  cosVal  cosine value of rotation angle theta
4921:Core/Inc/../../Drivers/CMSIS/DSP/Include/arm_math.h ****    *
4922:Core/Inc/../../Drivers/CMSIS/DSP/Include/arm_math.h ****    * The function implements the forward Park transform.
4923:Core/Inc/../../Drivers/CMSIS/DSP/Include/arm_math.h ****    *
4924:Core/Inc/../../Drivers/CMSIS/DSP/Include/arm_math.h ****    */
4925:Core/Inc/../../Drivers/CMSIS/DSP/Include/arm_math.h ****   CMSIS_INLINE __STATIC_INLINE void arm_park_f32(
4926:Core/Inc/../../Drivers/CMSIS/DSP/Include/arm_math.h ****       float32_t Ialpha,
4927:Core/Inc/../../Drivers/CMSIS/DSP/Include/arm_math.h ****       float32_t Ibeta,
4928:Core/Inc/../../Drivers/CMSIS/DSP/Include/arm_math.h ****       float32_t *pId,
4929:Core/Inc/../../Drivers/CMSIS/DSP/Include/arm_math.h ****       float32_t *pIq,
4930:Core/Inc/../../Drivers/CMSIS/DSP/Include/arm_math.h ****       float32_t sinVal,
4931:Core/Inc/../../Drivers/CMSIS/DSP/Include/arm_math.h ****       float32_t cosVal)
4932:Core/Inc/../../Drivers/CMSIS/DSP/Include/arm_math.h ****   {
4933:Core/Inc/../../Drivers/CMSIS/DSP/Include/arm_math.h ****     /* Calculate pId using the equation, pId = Ialpha * cosVal + Ibeta * sinVal */
ARM GAS  /var/folders/n6/c271nzx11xl4r4_m7sqjlt0m0000gn/T//ccGo3Vqh.s 			page 115


4934:Core/Inc/../../Drivers/CMSIS/DSP/Include/arm_math.h ****     *pId = Ialpha * cosVal + Ibeta * sinVal;
4935:Core/Inc/../../Drivers/CMSIS/DSP/Include/arm_math.h **** 
4936:Core/Inc/../../Drivers/CMSIS/DSP/Include/arm_math.h ****     /* Calculate pIq using the equation, pIq = - Ialpha * sinVal + Ibeta * cosVal */
4937:Core/Inc/../../Drivers/CMSIS/DSP/Include/arm_math.h ****     *pIq = -Ialpha * sinVal + Ibeta * cosVal;
4938:Core/Inc/../../Drivers/CMSIS/DSP/Include/arm_math.h ****   }
4939:Core/Inc/../../Drivers/CMSIS/DSP/Include/arm_math.h **** 
4940:Core/Inc/../../Drivers/CMSIS/DSP/Include/arm_math.h ****   /**
4941:Core/Inc/../../Drivers/CMSIS/DSP/Include/arm_math.h ****    * @brief  Park transform for Q31 version
4942:Core/Inc/../../Drivers/CMSIS/DSP/Include/arm_math.h ****    * @param[in]  Ialpha  input two-phase vector coordinate alpha
4943:Core/Inc/../../Drivers/CMSIS/DSP/Include/arm_math.h ****    * @param[in]  Ibeta   input two-phase vector coordinate beta
4944:Core/Inc/../../Drivers/CMSIS/DSP/Include/arm_math.h ****    * @param[out] pId     points to output rotor reference frame d
4945:Core/Inc/../../Drivers/CMSIS/DSP/Include/arm_math.h ****    * @param[out] pIq     points to output rotor reference frame q
4946:Core/Inc/../../Drivers/CMSIS/DSP/Include/arm_math.h ****    * @param[in]  sinVal  sine value of rotation angle theta
4947:Core/Inc/../../Drivers/CMSIS/DSP/Include/arm_math.h ****    * @param[in]  cosVal  cosine value of rotation angle theta
4948:Core/Inc/../../Drivers/CMSIS/DSP/Include/arm_math.h ****    *
4949:Core/Inc/../../Drivers/CMSIS/DSP/Include/arm_math.h ****    * <b>Scaling and Overflow Behavior:</b>
4950:Core/Inc/../../Drivers/CMSIS/DSP/Include/arm_math.h ****    * \par
4951:Core/Inc/../../Drivers/CMSIS/DSP/Include/arm_math.h ****    * The function is implemented using an internal 32-bit accumulator.
4952:Core/Inc/../../Drivers/CMSIS/DSP/Include/arm_math.h ****    * The accumulator maintains 1.31 format by truncating lower 31 bits of the intermediate multipli
4953:Core/Inc/../../Drivers/CMSIS/DSP/Include/arm_math.h ****    * There is saturation on the addition and subtraction, hence there is no risk of overflow.
4954:Core/Inc/../../Drivers/CMSIS/DSP/Include/arm_math.h ****    */
4955:Core/Inc/../../Drivers/CMSIS/DSP/Include/arm_math.h ****   CMSIS_INLINE __STATIC_INLINE void arm_park_q31(
4956:Core/Inc/../../Drivers/CMSIS/DSP/Include/arm_math.h ****       q31_t Ialpha,
4957:Core/Inc/../../Drivers/CMSIS/DSP/Include/arm_math.h ****       q31_t Ibeta,
4958:Core/Inc/../../Drivers/CMSIS/DSP/Include/arm_math.h ****       q31_t *pId,
4959:Core/Inc/../../Drivers/CMSIS/DSP/Include/arm_math.h ****       q31_t *pIq,
4960:Core/Inc/../../Drivers/CMSIS/DSP/Include/arm_math.h ****       q31_t sinVal,
4961:Core/Inc/../../Drivers/CMSIS/DSP/Include/arm_math.h ****       q31_t cosVal)
4962:Core/Inc/../../Drivers/CMSIS/DSP/Include/arm_math.h ****   {
4963:Core/Inc/../../Drivers/CMSIS/DSP/Include/arm_math.h ****     q31_t product1, product2; /* Temporary variables used to store intermediate results */
4964:Core/Inc/../../Drivers/CMSIS/DSP/Include/arm_math.h ****     q31_t product3, product4; /* Temporary variables used to store intermediate results */
4965:Core/Inc/../../Drivers/CMSIS/DSP/Include/arm_math.h **** 
4966:Core/Inc/../../Drivers/CMSIS/DSP/Include/arm_math.h ****     /* Intermediate product is calculated by (Ialpha * cosVal) */
4967:Core/Inc/../../Drivers/CMSIS/DSP/Include/arm_math.h ****     product1 = (q31_t)(((q63_t)(Ialpha) * (cosVal)) >> 31);
4968:Core/Inc/../../Drivers/CMSIS/DSP/Include/arm_math.h **** 
4969:Core/Inc/../../Drivers/CMSIS/DSP/Include/arm_math.h ****     /* Intermediate product is calculated by (Ibeta * sinVal) */
4970:Core/Inc/../../Drivers/CMSIS/DSP/Include/arm_math.h ****     product2 = (q31_t)(((q63_t)(Ibeta) * (sinVal)) >> 31);
4971:Core/Inc/../../Drivers/CMSIS/DSP/Include/arm_math.h **** 
4972:Core/Inc/../../Drivers/CMSIS/DSP/Include/arm_math.h ****     /* Intermediate product is calculated by (Ialpha * sinVal) */
4973:Core/Inc/../../Drivers/CMSIS/DSP/Include/arm_math.h ****     product3 = (q31_t)(((q63_t)(Ialpha) * (sinVal)) >> 31);
4974:Core/Inc/../../Drivers/CMSIS/DSP/Include/arm_math.h **** 
4975:Core/Inc/../../Drivers/CMSIS/DSP/Include/arm_math.h ****     /* Intermediate product is calculated by (Ibeta * cosVal) */
4976:Core/Inc/../../Drivers/CMSIS/DSP/Include/arm_math.h ****     product4 = (q31_t)(((q63_t)(Ibeta) * (cosVal)) >> 31);
4977:Core/Inc/../../Drivers/CMSIS/DSP/Include/arm_math.h **** 
4978:Core/Inc/../../Drivers/CMSIS/DSP/Include/arm_math.h ****     /* Calculate pId by adding the two intermediate products 1 and 2 */
4979:Core/Inc/../../Drivers/CMSIS/DSP/Include/arm_math.h ****     *pId = __QADD(product1, product2);
4980:Core/Inc/../../Drivers/CMSIS/DSP/Include/arm_math.h **** 
4981:Core/Inc/../../Drivers/CMSIS/DSP/Include/arm_math.h ****     /* Calculate pIq by subtracting the two intermediate products 3 from 4 */
4982:Core/Inc/../../Drivers/CMSIS/DSP/Include/arm_math.h ****     *pIq = __QSUB(product4, product3);
4983:Core/Inc/../../Drivers/CMSIS/DSP/Include/arm_math.h ****   }
4984:Core/Inc/../../Drivers/CMSIS/DSP/Include/arm_math.h **** 
4985:Core/Inc/../../Drivers/CMSIS/DSP/Include/arm_math.h ****   /**
4986:Core/Inc/../../Drivers/CMSIS/DSP/Include/arm_math.h ****    * @} end of park group
4987:Core/Inc/../../Drivers/CMSIS/DSP/Include/arm_math.h ****    */
4988:Core/Inc/../../Drivers/CMSIS/DSP/Include/arm_math.h **** 
4989:Core/Inc/../../Drivers/CMSIS/DSP/Include/arm_math.h ****   /**
4990:Core/Inc/../../Drivers/CMSIS/DSP/Include/arm_math.h ****    * @brief  Converts the elements of the Q7 vector to floating-point vector.
ARM GAS  /var/folders/n6/c271nzx11xl4r4_m7sqjlt0m0000gn/T//ccGo3Vqh.s 			page 116


4991:Core/Inc/../../Drivers/CMSIS/DSP/Include/arm_math.h ****    * @param[in]  pSrc       is input pointer
4992:Core/Inc/../../Drivers/CMSIS/DSP/Include/arm_math.h ****    * @param[out] pDst       is output pointer
4993:Core/Inc/../../Drivers/CMSIS/DSP/Include/arm_math.h ****    * @param[in]  blockSize  is the number of samples to process
4994:Core/Inc/../../Drivers/CMSIS/DSP/Include/arm_math.h ****    */
4995:Core/Inc/../../Drivers/CMSIS/DSP/Include/arm_math.h ****   void arm_q7_to_float(
4996:Core/Inc/../../Drivers/CMSIS/DSP/Include/arm_math.h ****       q7_t *pSrc,
4997:Core/Inc/../../Drivers/CMSIS/DSP/Include/arm_math.h ****       float32_t *pDst,
4998:Core/Inc/../../Drivers/CMSIS/DSP/Include/arm_math.h ****       uint32_t blockSize);
4999:Core/Inc/../../Drivers/CMSIS/DSP/Include/arm_math.h **** 
5000:Core/Inc/../../Drivers/CMSIS/DSP/Include/arm_math.h ****   /**
5001:Core/Inc/../../Drivers/CMSIS/DSP/Include/arm_math.h ****    * @ingroup groupController
5002:Core/Inc/../../Drivers/CMSIS/DSP/Include/arm_math.h ****    */
5003:Core/Inc/../../Drivers/CMSIS/DSP/Include/arm_math.h **** 
5004:Core/Inc/../../Drivers/CMSIS/DSP/Include/arm_math.h ****   /**
5005:Core/Inc/../../Drivers/CMSIS/DSP/Include/arm_math.h ****    * @defgroup inv_park Vector Inverse Park transform
5006:Core/Inc/../../Drivers/CMSIS/DSP/Include/arm_math.h ****    * Inverse Park transform converts the input flux and torque components to two-coordinate vector.
5007:Core/Inc/../../Drivers/CMSIS/DSP/Include/arm_math.h ****    *
5008:Core/Inc/../../Drivers/CMSIS/DSP/Include/arm_math.h ****    * The function operates on a single sample of data and each call to the function returns the pro
5009:Core/Inc/../../Drivers/CMSIS/DSP/Include/arm_math.h ****    * The library provides separate functions for Q31 and floating-point data types.
5010:Core/Inc/../../Drivers/CMSIS/DSP/Include/arm_math.h ****    * \par Algorithm
5011:Core/Inc/../../Drivers/CMSIS/DSP/Include/arm_math.h ****    * \image html parkInvFormula.gif
5012:Core/Inc/../../Drivers/CMSIS/DSP/Include/arm_math.h ****    * where <code>pIalpha</code> and <code>pIbeta</code> are the stator vector components,
5013:Core/Inc/../../Drivers/CMSIS/DSP/Include/arm_math.h ****    * <code>Id</code> and <code>Iq</code> are rotor vector components and <code>cosVal</code> and <c
5014:Core/Inc/../../Drivers/CMSIS/DSP/Include/arm_math.h ****    * cosine and sine values of theta (rotor flux position).
5015:Core/Inc/../../Drivers/CMSIS/DSP/Include/arm_math.h ****    * \par Fixed-Point Behavior
5016:Core/Inc/../../Drivers/CMSIS/DSP/Include/arm_math.h ****    * Care must be taken when using the Q31 version of the Park transform.
5017:Core/Inc/../../Drivers/CMSIS/DSP/Include/arm_math.h ****    * In particular, the overflow and saturation behavior of the accumulator used must be considered
5018:Core/Inc/../../Drivers/CMSIS/DSP/Include/arm_math.h ****    * Refer to the function specific documentation below for usage guidelines.
5019:Core/Inc/../../Drivers/CMSIS/DSP/Include/arm_math.h ****    */
5020:Core/Inc/../../Drivers/CMSIS/DSP/Include/arm_math.h **** 
5021:Core/Inc/../../Drivers/CMSIS/DSP/Include/arm_math.h ****   /**
5022:Core/Inc/../../Drivers/CMSIS/DSP/Include/arm_math.h ****    * @addtogroup inv_park
5023:Core/Inc/../../Drivers/CMSIS/DSP/Include/arm_math.h ****    * @{
5024:Core/Inc/../../Drivers/CMSIS/DSP/Include/arm_math.h ****    */
5025:Core/Inc/../../Drivers/CMSIS/DSP/Include/arm_math.h **** 
5026:Core/Inc/../../Drivers/CMSIS/DSP/Include/arm_math.h ****   /**
5027:Core/Inc/../../Drivers/CMSIS/DSP/Include/arm_math.h ****    * @brief  Floating-point Inverse Park transform
5028:Core/Inc/../../Drivers/CMSIS/DSP/Include/arm_math.h ****    * @param[in]  Id       input coordinate of rotor reference frame d
5029:Core/Inc/../../Drivers/CMSIS/DSP/Include/arm_math.h ****    * @param[in]  Iq       input coordinate of rotor reference frame q
5030:Core/Inc/../../Drivers/CMSIS/DSP/Include/arm_math.h ****    * @param[out] pIalpha  points to output two-phase orthogonal vector axis alpha
5031:Core/Inc/../../Drivers/CMSIS/DSP/Include/arm_math.h ****    * @param[out] pIbeta   points to output two-phase orthogonal vector axis beta
5032:Core/Inc/../../Drivers/CMSIS/DSP/Include/arm_math.h ****    * @param[in]  sinVal   sine value of rotation angle theta
5033:Core/Inc/../../Drivers/CMSIS/DSP/Include/arm_math.h ****    * @param[in]  cosVal   cosine value of rotation angle theta
5034:Core/Inc/../../Drivers/CMSIS/DSP/Include/arm_math.h ****    */
5035:Core/Inc/../../Drivers/CMSIS/DSP/Include/arm_math.h ****   CMSIS_INLINE __STATIC_INLINE void arm_inv_park_f32(
5036:Core/Inc/../../Drivers/CMSIS/DSP/Include/arm_math.h ****       float32_t Id,
5037:Core/Inc/../../Drivers/CMSIS/DSP/Include/arm_math.h ****       float32_t Iq,
5038:Core/Inc/../../Drivers/CMSIS/DSP/Include/arm_math.h ****       float32_t *pIalpha,
5039:Core/Inc/../../Drivers/CMSIS/DSP/Include/arm_math.h ****       float32_t *pIbeta,
5040:Core/Inc/../../Drivers/CMSIS/DSP/Include/arm_math.h ****       float32_t sinVal,
5041:Core/Inc/../../Drivers/CMSIS/DSP/Include/arm_math.h ****       float32_t cosVal)
5042:Core/Inc/../../Drivers/CMSIS/DSP/Include/arm_math.h ****   {
5043:Core/Inc/../../Drivers/CMSIS/DSP/Include/arm_math.h ****     /* Calculate pIalpha using the equation, pIalpha = Id * cosVal - Iq * sinVal */
5044:Core/Inc/../../Drivers/CMSIS/DSP/Include/arm_math.h ****     *pIalpha = Id * cosVal - Iq * sinVal;
5045:Core/Inc/../../Drivers/CMSIS/DSP/Include/arm_math.h **** 
5046:Core/Inc/../../Drivers/CMSIS/DSP/Include/arm_math.h ****     /* Calculate pIbeta using the equation, pIbeta = Id * sinVal + Iq * cosVal */
5047:Core/Inc/../../Drivers/CMSIS/DSP/Include/arm_math.h ****     *pIbeta = Id * sinVal + Iq * cosVal;
ARM GAS  /var/folders/n6/c271nzx11xl4r4_m7sqjlt0m0000gn/T//ccGo3Vqh.s 			page 117


5048:Core/Inc/../../Drivers/CMSIS/DSP/Include/arm_math.h ****   }
5049:Core/Inc/../../Drivers/CMSIS/DSP/Include/arm_math.h **** 
5050:Core/Inc/../../Drivers/CMSIS/DSP/Include/arm_math.h ****   /**
5051:Core/Inc/../../Drivers/CMSIS/DSP/Include/arm_math.h ****    * @brief  Inverse Park transform for   Q31 version
5052:Core/Inc/../../Drivers/CMSIS/DSP/Include/arm_math.h ****    * @param[in]  Id       input coordinate of rotor reference frame d
5053:Core/Inc/../../Drivers/CMSIS/DSP/Include/arm_math.h ****    * @param[in]  Iq       input coordinate of rotor reference frame q
5054:Core/Inc/../../Drivers/CMSIS/DSP/Include/arm_math.h ****    * @param[out] pIalpha  points to output two-phase orthogonal vector axis alpha
5055:Core/Inc/../../Drivers/CMSIS/DSP/Include/arm_math.h ****    * @param[out] pIbeta   points to output two-phase orthogonal vector axis beta
5056:Core/Inc/../../Drivers/CMSIS/DSP/Include/arm_math.h ****    * @param[in]  sinVal   sine value of rotation angle theta
5057:Core/Inc/../../Drivers/CMSIS/DSP/Include/arm_math.h ****    * @param[in]  cosVal   cosine value of rotation angle theta
5058:Core/Inc/../../Drivers/CMSIS/DSP/Include/arm_math.h ****    *
5059:Core/Inc/../../Drivers/CMSIS/DSP/Include/arm_math.h ****    * <b>Scaling and Overflow Behavior:</b>
5060:Core/Inc/../../Drivers/CMSIS/DSP/Include/arm_math.h ****    * \par
5061:Core/Inc/../../Drivers/CMSIS/DSP/Include/arm_math.h ****    * The function is implemented using an internal 32-bit accumulator.
5062:Core/Inc/../../Drivers/CMSIS/DSP/Include/arm_math.h ****    * The accumulator maintains 1.31 format by truncating lower 31 bits of the intermediate multipli
5063:Core/Inc/../../Drivers/CMSIS/DSP/Include/arm_math.h ****    * There is saturation on the addition, hence there is no risk of overflow.
5064:Core/Inc/../../Drivers/CMSIS/DSP/Include/arm_math.h ****    */
5065:Core/Inc/../../Drivers/CMSIS/DSP/Include/arm_math.h ****   CMSIS_INLINE __STATIC_INLINE void arm_inv_park_q31(
5066:Core/Inc/../../Drivers/CMSIS/DSP/Include/arm_math.h ****       q31_t Id,
5067:Core/Inc/../../Drivers/CMSIS/DSP/Include/arm_math.h ****       q31_t Iq,
5068:Core/Inc/../../Drivers/CMSIS/DSP/Include/arm_math.h ****       q31_t *pIalpha,
5069:Core/Inc/../../Drivers/CMSIS/DSP/Include/arm_math.h ****       q31_t *pIbeta,
5070:Core/Inc/../../Drivers/CMSIS/DSP/Include/arm_math.h ****       q31_t sinVal,
5071:Core/Inc/../../Drivers/CMSIS/DSP/Include/arm_math.h ****       q31_t cosVal)
5072:Core/Inc/../../Drivers/CMSIS/DSP/Include/arm_math.h ****   {
5073:Core/Inc/../../Drivers/CMSIS/DSP/Include/arm_math.h ****     q31_t product1, product2; /* Temporary variables used to store intermediate results */
5074:Core/Inc/../../Drivers/CMSIS/DSP/Include/arm_math.h ****     q31_t product3, product4; /* Temporary variables used to store intermediate results */
5075:Core/Inc/../../Drivers/CMSIS/DSP/Include/arm_math.h **** 
5076:Core/Inc/../../Drivers/CMSIS/DSP/Include/arm_math.h ****     /* Intermediate product is calculated by (Id * cosVal) */
5077:Core/Inc/../../Drivers/CMSIS/DSP/Include/arm_math.h ****     product1 = (q31_t)(((q63_t)(Id) * (cosVal)) >> 31);
5078:Core/Inc/../../Drivers/CMSIS/DSP/Include/arm_math.h **** 
5079:Core/Inc/../../Drivers/CMSIS/DSP/Include/arm_math.h ****     /* Intermediate product is calculated by (Iq * sinVal) */
5080:Core/Inc/../../Drivers/CMSIS/DSP/Include/arm_math.h ****     product2 = (q31_t)(((q63_t)(Iq) * (sinVal)) >> 31);
5081:Core/Inc/../../Drivers/CMSIS/DSP/Include/arm_math.h **** 
5082:Core/Inc/../../Drivers/CMSIS/DSP/Include/arm_math.h ****     /* Intermediate product is calculated by (Id * sinVal) */
5083:Core/Inc/../../Drivers/CMSIS/DSP/Include/arm_math.h ****     product3 = (q31_t)(((q63_t)(Id) * (sinVal)) >> 31);
5084:Core/Inc/../../Drivers/CMSIS/DSP/Include/arm_math.h **** 
5085:Core/Inc/../../Drivers/CMSIS/DSP/Include/arm_math.h ****     /* Intermediate product is calculated by (Iq * cosVal) */
5086:Core/Inc/../../Drivers/CMSIS/DSP/Include/arm_math.h ****     product4 = (q31_t)(((q63_t)(Iq) * (cosVal)) >> 31);
5087:Core/Inc/../../Drivers/CMSIS/DSP/Include/arm_math.h **** 
5088:Core/Inc/../../Drivers/CMSIS/DSP/Include/arm_math.h ****     /* Calculate pIalpha by using the two intermediate products 1 and 2 */
5089:Core/Inc/../../Drivers/CMSIS/DSP/Include/arm_math.h ****     *pIalpha = __QSUB(product1, product2);
5090:Core/Inc/../../Drivers/CMSIS/DSP/Include/arm_math.h **** 
5091:Core/Inc/../../Drivers/CMSIS/DSP/Include/arm_math.h ****     /* Calculate pIbeta by using the two intermediate products 3 and 4 */
5092:Core/Inc/../../Drivers/CMSIS/DSP/Include/arm_math.h ****     *pIbeta = __QADD(product4, product3);
5093:Core/Inc/../../Drivers/CMSIS/DSP/Include/arm_math.h ****   }
5094:Core/Inc/../../Drivers/CMSIS/DSP/Include/arm_math.h **** 
5095:Core/Inc/../../Drivers/CMSIS/DSP/Include/arm_math.h ****   /**
5096:Core/Inc/../../Drivers/CMSIS/DSP/Include/arm_math.h ****    * @} end of Inverse park group
5097:Core/Inc/../../Drivers/CMSIS/DSP/Include/arm_math.h ****    */
5098:Core/Inc/../../Drivers/CMSIS/DSP/Include/arm_math.h **** 
5099:Core/Inc/../../Drivers/CMSIS/DSP/Include/arm_math.h ****   /**
5100:Core/Inc/../../Drivers/CMSIS/DSP/Include/arm_math.h ****    * @brief  Converts the elements of the Q31 vector to floating-point vector.
5101:Core/Inc/../../Drivers/CMSIS/DSP/Include/arm_math.h ****    * @param[in]  pSrc       is input pointer
5102:Core/Inc/../../Drivers/CMSIS/DSP/Include/arm_math.h ****    * @param[out] pDst       is output pointer
5103:Core/Inc/../../Drivers/CMSIS/DSP/Include/arm_math.h ****    * @param[in]  blockSize  is the number of samples to process
5104:Core/Inc/../../Drivers/CMSIS/DSP/Include/arm_math.h ****    */
ARM GAS  /var/folders/n6/c271nzx11xl4r4_m7sqjlt0m0000gn/T//ccGo3Vqh.s 			page 118


5105:Core/Inc/../../Drivers/CMSIS/DSP/Include/arm_math.h ****   void arm_q31_to_float(
5106:Core/Inc/../../Drivers/CMSIS/DSP/Include/arm_math.h ****       q31_t *pSrc,
5107:Core/Inc/../../Drivers/CMSIS/DSP/Include/arm_math.h ****       float32_t *pDst,
5108:Core/Inc/../../Drivers/CMSIS/DSP/Include/arm_math.h ****       uint32_t blockSize);
5109:Core/Inc/../../Drivers/CMSIS/DSP/Include/arm_math.h **** 
5110:Core/Inc/../../Drivers/CMSIS/DSP/Include/arm_math.h ****   /**
5111:Core/Inc/../../Drivers/CMSIS/DSP/Include/arm_math.h ****    * @ingroup groupInterpolation
5112:Core/Inc/../../Drivers/CMSIS/DSP/Include/arm_math.h ****    */
5113:Core/Inc/../../Drivers/CMSIS/DSP/Include/arm_math.h **** 
5114:Core/Inc/../../Drivers/CMSIS/DSP/Include/arm_math.h ****   /**
5115:Core/Inc/../../Drivers/CMSIS/DSP/Include/arm_math.h ****    * @defgroup LinearInterpolate Linear Interpolation
5116:Core/Inc/../../Drivers/CMSIS/DSP/Include/arm_math.h ****    *
5117:Core/Inc/../../Drivers/CMSIS/DSP/Include/arm_math.h ****    * Linear interpolation is a method of curve fitting using linear polynomials.
5118:Core/Inc/../../Drivers/CMSIS/DSP/Include/arm_math.h ****    * Linear interpolation works by effectively drawing a straight line between two neighboring samp
5119:Core/Inc/../../Drivers/CMSIS/DSP/Include/arm_math.h ****    *
5120:Core/Inc/../../Drivers/CMSIS/DSP/Include/arm_math.h ****    * \par
5121:Core/Inc/../../Drivers/CMSIS/DSP/Include/arm_math.h ****    * \image html LinearInterp.gif "Linear interpolation"
5122:Core/Inc/../../Drivers/CMSIS/DSP/Include/arm_math.h ****    *
5123:Core/Inc/../../Drivers/CMSIS/DSP/Include/arm_math.h ****    * \par
5124:Core/Inc/../../Drivers/CMSIS/DSP/Include/arm_math.h ****    * A  Linear Interpolate function calculates an output value(y), for the input(x)
5125:Core/Inc/../../Drivers/CMSIS/DSP/Include/arm_math.h ****    * using linear interpolation of the input values x0, x1( nearest input values) and the output va
5126:Core/Inc/../../Drivers/CMSIS/DSP/Include/arm_math.h ****    *
5127:Core/Inc/../../Drivers/CMSIS/DSP/Include/arm_math.h ****    * \par Algorithm:
5128:Core/Inc/../../Drivers/CMSIS/DSP/Include/arm_math.h ****    * <pre>
5129:Core/Inc/../../Drivers/CMSIS/DSP/Include/arm_math.h ****    *       y = y0 + (x - x0) * ((y1 - y0)/(x1-x0))
5130:Core/Inc/../../Drivers/CMSIS/DSP/Include/arm_math.h ****    *       where x0, x1 are nearest values of input x
5131:Core/Inc/../../Drivers/CMSIS/DSP/Include/arm_math.h ****    *             y0, y1 are nearest values to output y
5132:Core/Inc/../../Drivers/CMSIS/DSP/Include/arm_math.h ****    * </pre>
5133:Core/Inc/../../Drivers/CMSIS/DSP/Include/arm_math.h ****    *
5134:Core/Inc/../../Drivers/CMSIS/DSP/Include/arm_math.h ****    * \par
5135:Core/Inc/../../Drivers/CMSIS/DSP/Include/arm_math.h ****    * This set of functions implements Linear interpolation process
5136:Core/Inc/../../Drivers/CMSIS/DSP/Include/arm_math.h ****    * for Q7, Q15, Q31, and floating-point data types.  The functions operate on a single
5137:Core/Inc/../../Drivers/CMSIS/DSP/Include/arm_math.h ****    * sample of data and each call to the function returns a single processed value.
5138:Core/Inc/../../Drivers/CMSIS/DSP/Include/arm_math.h ****    * <code>S</code> points to an instance of the Linear Interpolate function data structure.
5139:Core/Inc/../../Drivers/CMSIS/DSP/Include/arm_math.h ****    * <code>x</code> is the input sample value. The functions returns the output value.
5140:Core/Inc/../../Drivers/CMSIS/DSP/Include/arm_math.h ****    *
5141:Core/Inc/../../Drivers/CMSIS/DSP/Include/arm_math.h ****    * \par
5142:Core/Inc/../../Drivers/CMSIS/DSP/Include/arm_math.h ****    * if x is outside of the table boundary, Linear interpolation returns first value of the table
5143:Core/Inc/../../Drivers/CMSIS/DSP/Include/arm_math.h ****    * if x is below input range and returns last value of table if x is above range.
5144:Core/Inc/../../Drivers/CMSIS/DSP/Include/arm_math.h ****    */
5145:Core/Inc/../../Drivers/CMSIS/DSP/Include/arm_math.h **** 
5146:Core/Inc/../../Drivers/CMSIS/DSP/Include/arm_math.h ****   /**
5147:Core/Inc/../../Drivers/CMSIS/DSP/Include/arm_math.h ****    * @addtogroup LinearInterpolate
5148:Core/Inc/../../Drivers/CMSIS/DSP/Include/arm_math.h ****    * @{
5149:Core/Inc/../../Drivers/CMSIS/DSP/Include/arm_math.h ****    */
5150:Core/Inc/../../Drivers/CMSIS/DSP/Include/arm_math.h **** 
5151:Core/Inc/../../Drivers/CMSIS/DSP/Include/arm_math.h ****   /**
5152:Core/Inc/../../Drivers/CMSIS/DSP/Include/arm_math.h ****    * @brief  Process function for the floating-point Linear Interpolation Function.
5153:Core/Inc/../../Drivers/CMSIS/DSP/Include/arm_math.h ****    * @param[in,out] S  is an instance of the floating-point Linear Interpolation structure
5154:Core/Inc/../../Drivers/CMSIS/DSP/Include/arm_math.h ****    * @param[in]     x  input sample to process
5155:Core/Inc/../../Drivers/CMSIS/DSP/Include/arm_math.h ****    * @return y processed output sample.
5156:Core/Inc/../../Drivers/CMSIS/DSP/Include/arm_math.h ****    *
5157:Core/Inc/../../Drivers/CMSIS/DSP/Include/arm_math.h ****    */
5158:Core/Inc/../../Drivers/CMSIS/DSP/Include/arm_math.h ****   CMSIS_INLINE __STATIC_INLINE float32_t arm_linear_interp_f32(
5159:Core/Inc/../../Drivers/CMSIS/DSP/Include/arm_math.h ****       arm_linear_interp_instance_f32 *S,
5160:Core/Inc/../../Drivers/CMSIS/DSP/Include/arm_math.h ****       float32_t x)
5161:Core/Inc/../../Drivers/CMSIS/DSP/Include/arm_math.h ****   {
ARM GAS  /var/folders/n6/c271nzx11xl4r4_m7sqjlt0m0000gn/T//ccGo3Vqh.s 			page 119


5162:Core/Inc/../../Drivers/CMSIS/DSP/Include/arm_math.h ****     float32_t y;
5163:Core/Inc/../../Drivers/CMSIS/DSP/Include/arm_math.h ****     float32_t x0, x1;                 /* Nearest input values */
5164:Core/Inc/../../Drivers/CMSIS/DSP/Include/arm_math.h ****     float32_t y0, y1;                 /* Nearest output values */
5165:Core/Inc/../../Drivers/CMSIS/DSP/Include/arm_math.h ****     float32_t xSpacing = S->xSpacing; /* spacing between input values */
5166:Core/Inc/../../Drivers/CMSIS/DSP/Include/arm_math.h ****     int32_t i;                        /* Index variable */
5167:Core/Inc/../../Drivers/CMSIS/DSP/Include/arm_math.h ****     float32_t *pYData = S->pYData;    /* pointer to output table */
5168:Core/Inc/../../Drivers/CMSIS/DSP/Include/arm_math.h **** 
5169:Core/Inc/../../Drivers/CMSIS/DSP/Include/arm_math.h ****     /* Calculation of index */
5170:Core/Inc/../../Drivers/CMSIS/DSP/Include/arm_math.h ****     i = (int32_t)((x - S->x1) / xSpacing);
5171:Core/Inc/../../Drivers/CMSIS/DSP/Include/arm_math.h **** 
5172:Core/Inc/../../Drivers/CMSIS/DSP/Include/arm_math.h ****     if (i < 0)
5173:Core/Inc/../../Drivers/CMSIS/DSP/Include/arm_math.h ****     {
5174:Core/Inc/../../Drivers/CMSIS/DSP/Include/arm_math.h ****       /* Iniatilize output for below specified range as least output value of table */
5175:Core/Inc/../../Drivers/CMSIS/DSP/Include/arm_math.h ****       y = pYData[0];
5176:Core/Inc/../../Drivers/CMSIS/DSP/Include/arm_math.h ****     }
5177:Core/Inc/../../Drivers/CMSIS/DSP/Include/arm_math.h ****     else if ((uint32_t)i >= S->nValues)
5178:Core/Inc/../../Drivers/CMSIS/DSP/Include/arm_math.h ****     {
5179:Core/Inc/../../Drivers/CMSIS/DSP/Include/arm_math.h ****       /* Iniatilize output for above specified range as last output value of table */
5180:Core/Inc/../../Drivers/CMSIS/DSP/Include/arm_math.h ****       y = pYData[S->nValues - 1];
5181:Core/Inc/../../Drivers/CMSIS/DSP/Include/arm_math.h ****     }
5182:Core/Inc/../../Drivers/CMSIS/DSP/Include/arm_math.h ****     else
5183:Core/Inc/../../Drivers/CMSIS/DSP/Include/arm_math.h ****     {
5184:Core/Inc/../../Drivers/CMSIS/DSP/Include/arm_math.h ****       /* Calculation of nearest input values */
5185:Core/Inc/../../Drivers/CMSIS/DSP/Include/arm_math.h ****       x0 = S->x1 + i * xSpacing;
5186:Core/Inc/../../Drivers/CMSIS/DSP/Include/arm_math.h ****       x1 = S->x1 + (i + 1) * xSpacing;
5187:Core/Inc/../../Drivers/CMSIS/DSP/Include/arm_math.h **** 
5188:Core/Inc/../../Drivers/CMSIS/DSP/Include/arm_math.h ****       /* Read of nearest output values */
5189:Core/Inc/../../Drivers/CMSIS/DSP/Include/arm_math.h ****       y0 = pYData[i];
5190:Core/Inc/../../Drivers/CMSIS/DSP/Include/arm_math.h ****       y1 = pYData[i + 1];
5191:Core/Inc/../../Drivers/CMSIS/DSP/Include/arm_math.h **** 
5192:Core/Inc/../../Drivers/CMSIS/DSP/Include/arm_math.h ****       /* Calculation of output */
5193:Core/Inc/../../Drivers/CMSIS/DSP/Include/arm_math.h ****       y = y0 + (x - x0) * ((y1 - y0) / (x1 - x0));
5194:Core/Inc/../../Drivers/CMSIS/DSP/Include/arm_math.h ****     }
5195:Core/Inc/../../Drivers/CMSIS/DSP/Include/arm_math.h **** 
5196:Core/Inc/../../Drivers/CMSIS/DSP/Include/arm_math.h ****     /* returns output value */
5197:Core/Inc/../../Drivers/CMSIS/DSP/Include/arm_math.h ****     return (y);
5198:Core/Inc/../../Drivers/CMSIS/DSP/Include/arm_math.h ****   }
5199:Core/Inc/../../Drivers/CMSIS/DSP/Include/arm_math.h **** 
5200:Core/Inc/../../Drivers/CMSIS/DSP/Include/arm_math.h ****   /**
5201:Core/Inc/../../Drivers/CMSIS/DSP/Include/arm_math.h ****    *
5202:Core/Inc/../../Drivers/CMSIS/DSP/Include/arm_math.h ****    * @brief  Process function for the Q31 Linear Interpolation Function.
5203:Core/Inc/../../Drivers/CMSIS/DSP/Include/arm_math.h ****    * @param[in] pYData   pointer to Q31 Linear Interpolation table
5204:Core/Inc/../../Drivers/CMSIS/DSP/Include/arm_math.h ****    * @param[in] x        input sample to process
5205:Core/Inc/../../Drivers/CMSIS/DSP/Include/arm_math.h ****    * @param[in] nValues  number of table values
5206:Core/Inc/../../Drivers/CMSIS/DSP/Include/arm_math.h ****    * @return y processed output sample.
5207:Core/Inc/../../Drivers/CMSIS/DSP/Include/arm_math.h ****    *
5208:Core/Inc/../../Drivers/CMSIS/DSP/Include/arm_math.h ****    * \par
5209:Core/Inc/../../Drivers/CMSIS/DSP/Include/arm_math.h ****    * Input sample <code>x</code> is in 12.20 format which contains 12 bits for table index and 20 b
5210:Core/Inc/../../Drivers/CMSIS/DSP/Include/arm_math.h ****    * This function can support maximum of table size 2^12.
5211:Core/Inc/../../Drivers/CMSIS/DSP/Include/arm_math.h ****    *
5212:Core/Inc/../../Drivers/CMSIS/DSP/Include/arm_math.h ****    */
5213:Core/Inc/../../Drivers/CMSIS/DSP/Include/arm_math.h ****   CMSIS_INLINE __STATIC_INLINE q31_t arm_linear_interp_q31(
5214:Core/Inc/../../Drivers/CMSIS/DSP/Include/arm_math.h ****       q31_t *pYData,
5215:Core/Inc/../../Drivers/CMSIS/DSP/Include/arm_math.h ****       q31_t x,
5216:Core/Inc/../../Drivers/CMSIS/DSP/Include/arm_math.h ****       uint32_t nValues)
5217:Core/Inc/../../Drivers/CMSIS/DSP/Include/arm_math.h ****   {
5218:Core/Inc/../../Drivers/CMSIS/DSP/Include/arm_math.h ****     q31_t y;       /* output */
ARM GAS  /var/folders/n6/c271nzx11xl4r4_m7sqjlt0m0000gn/T//ccGo3Vqh.s 			page 120


5219:Core/Inc/../../Drivers/CMSIS/DSP/Include/arm_math.h ****     q31_t y0, y1;  /* Nearest output values */
5220:Core/Inc/../../Drivers/CMSIS/DSP/Include/arm_math.h ****     q31_t fract;   /* fractional part */
5221:Core/Inc/../../Drivers/CMSIS/DSP/Include/arm_math.h ****     int32_t index; /* Index to read nearest output values */
5222:Core/Inc/../../Drivers/CMSIS/DSP/Include/arm_math.h **** 
5223:Core/Inc/../../Drivers/CMSIS/DSP/Include/arm_math.h ****     /* Input is in 12.20 format */
5224:Core/Inc/../../Drivers/CMSIS/DSP/Include/arm_math.h ****     /* 12 bits for the table index */
5225:Core/Inc/../../Drivers/CMSIS/DSP/Include/arm_math.h ****     /* Index value calculation */
5226:Core/Inc/../../Drivers/CMSIS/DSP/Include/arm_math.h ****     index = ((x & (q31_t)0xFFF00000) >> 20);
5227:Core/Inc/../../Drivers/CMSIS/DSP/Include/arm_math.h **** 
5228:Core/Inc/../../Drivers/CMSIS/DSP/Include/arm_math.h ****     if (index >= (int32_t)(nValues - 1))
5229:Core/Inc/../../Drivers/CMSIS/DSP/Include/arm_math.h ****     {
5230:Core/Inc/../../Drivers/CMSIS/DSP/Include/arm_math.h ****       return (pYData[nValues - 1]);
5231:Core/Inc/../../Drivers/CMSIS/DSP/Include/arm_math.h ****     }
5232:Core/Inc/../../Drivers/CMSIS/DSP/Include/arm_math.h ****     else if (index < 0)
5233:Core/Inc/../../Drivers/CMSIS/DSP/Include/arm_math.h ****     {
5234:Core/Inc/../../Drivers/CMSIS/DSP/Include/arm_math.h ****       return (pYData[0]);
5235:Core/Inc/../../Drivers/CMSIS/DSP/Include/arm_math.h ****     }
5236:Core/Inc/../../Drivers/CMSIS/DSP/Include/arm_math.h ****     else
5237:Core/Inc/../../Drivers/CMSIS/DSP/Include/arm_math.h ****     {
5238:Core/Inc/../../Drivers/CMSIS/DSP/Include/arm_math.h ****       /* 20 bits for the fractional part */
5239:Core/Inc/../../Drivers/CMSIS/DSP/Include/arm_math.h ****       /* shift left by 11 to keep fract in 1.31 format */
5240:Core/Inc/../../Drivers/CMSIS/DSP/Include/arm_math.h ****       fract = (x & 0x000FFFFF) << 11;
5241:Core/Inc/../../Drivers/CMSIS/DSP/Include/arm_math.h **** 
5242:Core/Inc/../../Drivers/CMSIS/DSP/Include/arm_math.h ****       /* Read two nearest output values from the index in 1.31(q31) format */
5243:Core/Inc/../../Drivers/CMSIS/DSP/Include/arm_math.h ****       y0 = pYData[index];
5244:Core/Inc/../../Drivers/CMSIS/DSP/Include/arm_math.h ****       y1 = pYData[index + 1];
5245:Core/Inc/../../Drivers/CMSIS/DSP/Include/arm_math.h **** 
5246:Core/Inc/../../Drivers/CMSIS/DSP/Include/arm_math.h ****       /* Calculation of y0 * (1-fract) and y is in 2.30 format */
5247:Core/Inc/../../Drivers/CMSIS/DSP/Include/arm_math.h ****       y = ((q31_t)((q63_t)y0 * (0x7FFFFFFF - fract) >> 32));
5248:Core/Inc/../../Drivers/CMSIS/DSP/Include/arm_math.h **** 
5249:Core/Inc/../../Drivers/CMSIS/DSP/Include/arm_math.h ****       /* Calculation of y0 * (1-fract) + y1 *fract and y is in 2.30 format */
5250:Core/Inc/../../Drivers/CMSIS/DSP/Include/arm_math.h ****       y += ((q31_t)(((q63_t)y1 * fract) >> 32));
5251:Core/Inc/../../Drivers/CMSIS/DSP/Include/arm_math.h **** 
5252:Core/Inc/../../Drivers/CMSIS/DSP/Include/arm_math.h ****       /* Convert y to 1.31 format */
5253:Core/Inc/../../Drivers/CMSIS/DSP/Include/arm_math.h ****       return (y << 1U);
5254:Core/Inc/../../Drivers/CMSIS/DSP/Include/arm_math.h ****     }
5255:Core/Inc/../../Drivers/CMSIS/DSP/Include/arm_math.h ****   }
5256:Core/Inc/../../Drivers/CMSIS/DSP/Include/arm_math.h **** 
5257:Core/Inc/../../Drivers/CMSIS/DSP/Include/arm_math.h ****   /**
5258:Core/Inc/../../Drivers/CMSIS/DSP/Include/arm_math.h ****    *
5259:Core/Inc/../../Drivers/CMSIS/DSP/Include/arm_math.h ****    * @brief  Process function for the Q15 Linear Interpolation Function.
5260:Core/Inc/../../Drivers/CMSIS/DSP/Include/arm_math.h ****    * @param[in] pYData   pointer to Q15 Linear Interpolation table
5261:Core/Inc/../../Drivers/CMSIS/DSP/Include/arm_math.h ****    * @param[in] x        input sample to process
5262:Core/Inc/../../Drivers/CMSIS/DSP/Include/arm_math.h ****    * @param[in] nValues  number of table values
5263:Core/Inc/../../Drivers/CMSIS/DSP/Include/arm_math.h ****    * @return y processed output sample.
5264:Core/Inc/../../Drivers/CMSIS/DSP/Include/arm_math.h ****    *
5265:Core/Inc/../../Drivers/CMSIS/DSP/Include/arm_math.h ****    * \par
5266:Core/Inc/../../Drivers/CMSIS/DSP/Include/arm_math.h ****    * Input sample <code>x</code> is in 12.20 format which contains 12 bits for table index and 20 b
5267:Core/Inc/../../Drivers/CMSIS/DSP/Include/arm_math.h ****    * This function can support maximum of table size 2^12.
5268:Core/Inc/../../Drivers/CMSIS/DSP/Include/arm_math.h ****    *
5269:Core/Inc/../../Drivers/CMSIS/DSP/Include/arm_math.h ****    */
5270:Core/Inc/../../Drivers/CMSIS/DSP/Include/arm_math.h ****   CMSIS_INLINE __STATIC_INLINE q15_t arm_linear_interp_q15(
5271:Core/Inc/../../Drivers/CMSIS/DSP/Include/arm_math.h ****       q15_t *pYData,
5272:Core/Inc/../../Drivers/CMSIS/DSP/Include/arm_math.h ****       q31_t x,
5273:Core/Inc/../../Drivers/CMSIS/DSP/Include/arm_math.h ****       uint32_t nValues)
5274:Core/Inc/../../Drivers/CMSIS/DSP/Include/arm_math.h ****   {
5275:Core/Inc/../../Drivers/CMSIS/DSP/Include/arm_math.h ****     q63_t y;       /* output */
ARM GAS  /var/folders/n6/c271nzx11xl4r4_m7sqjlt0m0000gn/T//ccGo3Vqh.s 			page 121


5276:Core/Inc/../../Drivers/CMSIS/DSP/Include/arm_math.h ****     q15_t y0, y1;  /* Nearest output values */
5277:Core/Inc/../../Drivers/CMSIS/DSP/Include/arm_math.h ****     q31_t fract;   /* fractional part */
5278:Core/Inc/../../Drivers/CMSIS/DSP/Include/arm_math.h ****     int32_t index; /* Index to read nearest output values */
5279:Core/Inc/../../Drivers/CMSIS/DSP/Include/arm_math.h **** 
5280:Core/Inc/../../Drivers/CMSIS/DSP/Include/arm_math.h ****     /* Input is in 12.20 format */
5281:Core/Inc/../../Drivers/CMSIS/DSP/Include/arm_math.h ****     /* 12 bits for the table index */
5282:Core/Inc/../../Drivers/CMSIS/DSP/Include/arm_math.h ****     /* Index value calculation */
5283:Core/Inc/../../Drivers/CMSIS/DSP/Include/arm_math.h ****     index = ((x & (int32_t)0xFFF00000) >> 20);
5284:Core/Inc/../../Drivers/CMSIS/DSP/Include/arm_math.h **** 
5285:Core/Inc/../../Drivers/CMSIS/DSP/Include/arm_math.h ****     if (index >= (int32_t)(nValues - 1))
5286:Core/Inc/../../Drivers/CMSIS/DSP/Include/arm_math.h ****     {
5287:Core/Inc/../../Drivers/CMSIS/DSP/Include/arm_math.h ****       return (pYData[nValues - 1]);
5288:Core/Inc/../../Drivers/CMSIS/DSP/Include/arm_math.h ****     }
5289:Core/Inc/../../Drivers/CMSIS/DSP/Include/arm_math.h ****     else if (index < 0)
5290:Core/Inc/../../Drivers/CMSIS/DSP/Include/arm_math.h ****     {
5291:Core/Inc/../../Drivers/CMSIS/DSP/Include/arm_math.h ****       return (pYData[0]);
5292:Core/Inc/../../Drivers/CMSIS/DSP/Include/arm_math.h ****     }
5293:Core/Inc/../../Drivers/CMSIS/DSP/Include/arm_math.h ****     else
5294:Core/Inc/../../Drivers/CMSIS/DSP/Include/arm_math.h ****     {
5295:Core/Inc/../../Drivers/CMSIS/DSP/Include/arm_math.h ****       /* 20 bits for the fractional part */
5296:Core/Inc/../../Drivers/CMSIS/DSP/Include/arm_math.h ****       /* fract is in 12.20 format */
5297:Core/Inc/../../Drivers/CMSIS/DSP/Include/arm_math.h ****       fract = (x & 0x000FFFFF);
5298:Core/Inc/../../Drivers/CMSIS/DSP/Include/arm_math.h **** 
5299:Core/Inc/../../Drivers/CMSIS/DSP/Include/arm_math.h ****       /* Read two nearest output values from the index */
5300:Core/Inc/../../Drivers/CMSIS/DSP/Include/arm_math.h ****       y0 = pYData[index];
5301:Core/Inc/../../Drivers/CMSIS/DSP/Include/arm_math.h ****       y1 = pYData[index + 1];
5302:Core/Inc/../../Drivers/CMSIS/DSP/Include/arm_math.h **** 
5303:Core/Inc/../../Drivers/CMSIS/DSP/Include/arm_math.h ****       /* Calculation of y0 * (1-fract) and y is in 13.35 format */
5304:Core/Inc/../../Drivers/CMSIS/DSP/Include/arm_math.h ****       y = ((q63_t)y0 * (0xFFFFF - fract));
5305:Core/Inc/../../Drivers/CMSIS/DSP/Include/arm_math.h **** 
5306:Core/Inc/../../Drivers/CMSIS/DSP/Include/arm_math.h ****       /* Calculation of (y0 * (1-fract) + y1 * fract) and y is in 13.35 format */
5307:Core/Inc/../../Drivers/CMSIS/DSP/Include/arm_math.h ****       y += ((q63_t)y1 * (fract));
5308:Core/Inc/../../Drivers/CMSIS/DSP/Include/arm_math.h **** 
5309:Core/Inc/../../Drivers/CMSIS/DSP/Include/arm_math.h ****       /* convert y to 1.15 format */
5310:Core/Inc/../../Drivers/CMSIS/DSP/Include/arm_math.h ****       return (q15_t)(y >> 20);
5311:Core/Inc/../../Drivers/CMSIS/DSP/Include/arm_math.h ****     }
5312:Core/Inc/../../Drivers/CMSIS/DSP/Include/arm_math.h ****   }
5313:Core/Inc/../../Drivers/CMSIS/DSP/Include/arm_math.h **** 
5314:Core/Inc/../../Drivers/CMSIS/DSP/Include/arm_math.h ****   /**
5315:Core/Inc/../../Drivers/CMSIS/DSP/Include/arm_math.h ****    *
5316:Core/Inc/../../Drivers/CMSIS/DSP/Include/arm_math.h ****    * @brief  Process function for the Q7 Linear Interpolation Function.
5317:Core/Inc/../../Drivers/CMSIS/DSP/Include/arm_math.h ****    * @param[in] pYData   pointer to Q7 Linear Interpolation table
5318:Core/Inc/../../Drivers/CMSIS/DSP/Include/arm_math.h ****    * @param[in] x        input sample to process
5319:Core/Inc/../../Drivers/CMSIS/DSP/Include/arm_math.h ****    * @param[in] nValues  number of table values
5320:Core/Inc/../../Drivers/CMSIS/DSP/Include/arm_math.h ****    * @return y processed output sample.
5321:Core/Inc/../../Drivers/CMSIS/DSP/Include/arm_math.h ****    *
5322:Core/Inc/../../Drivers/CMSIS/DSP/Include/arm_math.h ****    * \par
5323:Core/Inc/../../Drivers/CMSIS/DSP/Include/arm_math.h ****    * Input sample <code>x</code> is in 12.20 format which contains 12 bits for table index and 20 b
5324:Core/Inc/../../Drivers/CMSIS/DSP/Include/arm_math.h ****    * This function can support maximum of table size 2^12.
5325:Core/Inc/../../Drivers/CMSIS/DSP/Include/arm_math.h ****    */
5326:Core/Inc/../../Drivers/CMSIS/DSP/Include/arm_math.h ****   CMSIS_INLINE __STATIC_INLINE q7_t arm_linear_interp_q7(
5327:Core/Inc/../../Drivers/CMSIS/DSP/Include/arm_math.h ****       q7_t *pYData,
5328:Core/Inc/../../Drivers/CMSIS/DSP/Include/arm_math.h ****       q31_t x,
5329:Core/Inc/../../Drivers/CMSIS/DSP/Include/arm_math.h ****       uint32_t nValues)
5330:Core/Inc/../../Drivers/CMSIS/DSP/Include/arm_math.h ****   {
5331:Core/Inc/../../Drivers/CMSIS/DSP/Include/arm_math.h ****     q31_t y;        /* output */
5332:Core/Inc/../../Drivers/CMSIS/DSP/Include/arm_math.h ****     q7_t y0, y1;    /* Nearest output values */
ARM GAS  /var/folders/n6/c271nzx11xl4r4_m7sqjlt0m0000gn/T//ccGo3Vqh.s 			page 122


5333:Core/Inc/../../Drivers/CMSIS/DSP/Include/arm_math.h ****     q31_t fract;    /* fractional part */
5334:Core/Inc/../../Drivers/CMSIS/DSP/Include/arm_math.h ****     uint32_t index; /* Index to read nearest output values */
5335:Core/Inc/../../Drivers/CMSIS/DSP/Include/arm_math.h **** 
5336:Core/Inc/../../Drivers/CMSIS/DSP/Include/arm_math.h ****     /* Input is in 12.20 format */
5337:Core/Inc/../../Drivers/CMSIS/DSP/Include/arm_math.h ****     /* 12 bits for the table index */
5338:Core/Inc/../../Drivers/CMSIS/DSP/Include/arm_math.h ****     /* Index value calculation */
5339:Core/Inc/../../Drivers/CMSIS/DSP/Include/arm_math.h ****     if (x < 0)
5340:Core/Inc/../../Drivers/CMSIS/DSP/Include/arm_math.h ****     {
5341:Core/Inc/../../Drivers/CMSIS/DSP/Include/arm_math.h ****       return (pYData[0]);
5342:Core/Inc/../../Drivers/CMSIS/DSP/Include/arm_math.h ****     }
5343:Core/Inc/../../Drivers/CMSIS/DSP/Include/arm_math.h ****     index = (x >> 20) & 0xfff;
5344:Core/Inc/../../Drivers/CMSIS/DSP/Include/arm_math.h **** 
5345:Core/Inc/../../Drivers/CMSIS/DSP/Include/arm_math.h ****     if (index >= (nValues - 1))
5346:Core/Inc/../../Drivers/CMSIS/DSP/Include/arm_math.h ****     {
5347:Core/Inc/../../Drivers/CMSIS/DSP/Include/arm_math.h ****       return (pYData[nValues - 1]);
5348:Core/Inc/../../Drivers/CMSIS/DSP/Include/arm_math.h ****     }
5349:Core/Inc/../../Drivers/CMSIS/DSP/Include/arm_math.h ****     else
5350:Core/Inc/../../Drivers/CMSIS/DSP/Include/arm_math.h ****     {
5351:Core/Inc/../../Drivers/CMSIS/DSP/Include/arm_math.h ****       /* 20 bits for the fractional part */
5352:Core/Inc/../../Drivers/CMSIS/DSP/Include/arm_math.h ****       /* fract is in 12.20 format */
5353:Core/Inc/../../Drivers/CMSIS/DSP/Include/arm_math.h ****       fract = (x & 0x000FFFFF);
5354:Core/Inc/../../Drivers/CMSIS/DSP/Include/arm_math.h **** 
5355:Core/Inc/../../Drivers/CMSIS/DSP/Include/arm_math.h ****       /* Read two nearest output values from the index and are in 1.7(q7) format */
5356:Core/Inc/../../Drivers/CMSIS/DSP/Include/arm_math.h ****       y0 = pYData[index];
5357:Core/Inc/../../Drivers/CMSIS/DSP/Include/arm_math.h ****       y1 = pYData[index + 1];
5358:Core/Inc/../../Drivers/CMSIS/DSP/Include/arm_math.h **** 
5359:Core/Inc/../../Drivers/CMSIS/DSP/Include/arm_math.h ****       /* Calculation of y0 * (1-fract ) and y is in 13.27(q27) format */
5360:Core/Inc/../../Drivers/CMSIS/DSP/Include/arm_math.h ****       y = ((y0 * (0xFFFFF - fract)));
5361:Core/Inc/../../Drivers/CMSIS/DSP/Include/arm_math.h **** 
5362:Core/Inc/../../Drivers/CMSIS/DSP/Include/arm_math.h ****       /* Calculation of y1 * fract + y0 * (1-fract) and y is in 13.27(q27) format */
5363:Core/Inc/../../Drivers/CMSIS/DSP/Include/arm_math.h ****       y += (y1 * fract);
5364:Core/Inc/../../Drivers/CMSIS/DSP/Include/arm_math.h **** 
5365:Core/Inc/../../Drivers/CMSIS/DSP/Include/arm_math.h ****       /* convert y to 1.7(q7) format */
5366:Core/Inc/../../Drivers/CMSIS/DSP/Include/arm_math.h ****       return (q7_t)(y >> 20);
5367:Core/Inc/../../Drivers/CMSIS/DSP/Include/arm_math.h ****     }
5368:Core/Inc/../../Drivers/CMSIS/DSP/Include/arm_math.h ****   }
5369:Core/Inc/../../Drivers/CMSIS/DSP/Include/arm_math.h **** 
5370:Core/Inc/../../Drivers/CMSIS/DSP/Include/arm_math.h ****   /**
5371:Core/Inc/../../Drivers/CMSIS/DSP/Include/arm_math.h ****    * @} end of LinearInterpolate group
5372:Core/Inc/../../Drivers/CMSIS/DSP/Include/arm_math.h ****    */
5373:Core/Inc/../../Drivers/CMSIS/DSP/Include/arm_math.h **** 
5374:Core/Inc/../../Drivers/CMSIS/DSP/Include/arm_math.h ****   /**
5375:Core/Inc/../../Drivers/CMSIS/DSP/Include/arm_math.h ****    * @brief  Fast approximation to the trigonometric sine function for floating-point data.
5376:Core/Inc/../../Drivers/CMSIS/DSP/Include/arm_math.h ****    * @param[in] x  input value in radians.
5377:Core/Inc/../../Drivers/CMSIS/DSP/Include/arm_math.h ****    * @return  sin(x).
5378:Core/Inc/../../Drivers/CMSIS/DSP/Include/arm_math.h ****    */
5379:Core/Inc/../../Drivers/CMSIS/DSP/Include/arm_math.h ****   float32_t arm_sin_f32(
5380:Core/Inc/../../Drivers/CMSIS/DSP/Include/arm_math.h ****       float32_t x);
5381:Core/Inc/../../Drivers/CMSIS/DSP/Include/arm_math.h **** 
5382:Core/Inc/../../Drivers/CMSIS/DSP/Include/arm_math.h ****   /**
5383:Core/Inc/../../Drivers/CMSIS/DSP/Include/arm_math.h ****    * @brief  Fast approximation to the trigonometric sine function for Q31 data.
5384:Core/Inc/../../Drivers/CMSIS/DSP/Include/arm_math.h ****    * @param[in] x  Scaled input value in radians.
5385:Core/Inc/../../Drivers/CMSIS/DSP/Include/arm_math.h ****    * @return  sin(x).
5386:Core/Inc/../../Drivers/CMSIS/DSP/Include/arm_math.h ****    */
5387:Core/Inc/../../Drivers/CMSIS/DSP/Include/arm_math.h ****   q31_t arm_sin_q31(
5388:Core/Inc/../../Drivers/CMSIS/DSP/Include/arm_math.h ****       q31_t x);
5389:Core/Inc/../../Drivers/CMSIS/DSP/Include/arm_math.h **** 
ARM GAS  /var/folders/n6/c271nzx11xl4r4_m7sqjlt0m0000gn/T//ccGo3Vqh.s 			page 123


5390:Core/Inc/../../Drivers/CMSIS/DSP/Include/arm_math.h ****   /**
5391:Core/Inc/../../Drivers/CMSIS/DSP/Include/arm_math.h ****    * @brief  Fast approximation to the trigonometric sine function for Q15 data.
5392:Core/Inc/../../Drivers/CMSIS/DSP/Include/arm_math.h ****    * @param[in] x  Scaled input value in radians.
5393:Core/Inc/../../Drivers/CMSIS/DSP/Include/arm_math.h ****    * @return  sin(x).
5394:Core/Inc/../../Drivers/CMSIS/DSP/Include/arm_math.h ****    */
5395:Core/Inc/../../Drivers/CMSIS/DSP/Include/arm_math.h ****   q15_t arm_sin_q15(
5396:Core/Inc/../../Drivers/CMSIS/DSP/Include/arm_math.h ****       q15_t x);
5397:Core/Inc/../../Drivers/CMSIS/DSP/Include/arm_math.h **** 
5398:Core/Inc/../../Drivers/CMSIS/DSP/Include/arm_math.h ****   /**
5399:Core/Inc/../../Drivers/CMSIS/DSP/Include/arm_math.h ****    * @brief  Fast approximation to the trigonometric cosine function for floating-point data.
5400:Core/Inc/../../Drivers/CMSIS/DSP/Include/arm_math.h ****    * @param[in] x  input value in radians.
5401:Core/Inc/../../Drivers/CMSIS/DSP/Include/arm_math.h ****    * @return  cos(x).
5402:Core/Inc/../../Drivers/CMSIS/DSP/Include/arm_math.h ****    */
5403:Core/Inc/../../Drivers/CMSIS/DSP/Include/arm_math.h ****   float32_t arm_cos_f32(
5404:Core/Inc/../../Drivers/CMSIS/DSP/Include/arm_math.h ****       float32_t x);
5405:Core/Inc/../../Drivers/CMSIS/DSP/Include/arm_math.h **** 
5406:Core/Inc/../../Drivers/CMSIS/DSP/Include/arm_math.h ****   /**
5407:Core/Inc/../../Drivers/CMSIS/DSP/Include/arm_math.h ****    * @brief Fast approximation to the trigonometric cosine function for Q31 data.
5408:Core/Inc/../../Drivers/CMSIS/DSP/Include/arm_math.h ****    * @param[in] x  Scaled input value in radians.
5409:Core/Inc/../../Drivers/CMSIS/DSP/Include/arm_math.h ****    * @return  cos(x).
5410:Core/Inc/../../Drivers/CMSIS/DSP/Include/arm_math.h ****    */
5411:Core/Inc/../../Drivers/CMSIS/DSP/Include/arm_math.h ****   q31_t arm_cos_q31(
5412:Core/Inc/../../Drivers/CMSIS/DSP/Include/arm_math.h ****       q31_t x);
5413:Core/Inc/../../Drivers/CMSIS/DSP/Include/arm_math.h **** 
5414:Core/Inc/../../Drivers/CMSIS/DSP/Include/arm_math.h ****   /**
5415:Core/Inc/../../Drivers/CMSIS/DSP/Include/arm_math.h ****    * @brief  Fast approximation to the trigonometric cosine function for Q15 data.
5416:Core/Inc/../../Drivers/CMSIS/DSP/Include/arm_math.h ****    * @param[in] x  Scaled input value in radians.
5417:Core/Inc/../../Drivers/CMSIS/DSP/Include/arm_math.h ****    * @return  cos(x).
5418:Core/Inc/../../Drivers/CMSIS/DSP/Include/arm_math.h ****    */
5419:Core/Inc/../../Drivers/CMSIS/DSP/Include/arm_math.h ****   q15_t arm_cos_q15(
5420:Core/Inc/../../Drivers/CMSIS/DSP/Include/arm_math.h ****       q15_t x);
5421:Core/Inc/../../Drivers/CMSIS/DSP/Include/arm_math.h **** 
5422:Core/Inc/../../Drivers/CMSIS/DSP/Include/arm_math.h ****   /**
5423:Core/Inc/../../Drivers/CMSIS/DSP/Include/arm_math.h ****    * @ingroup groupFastMath
5424:Core/Inc/../../Drivers/CMSIS/DSP/Include/arm_math.h ****    */
5425:Core/Inc/../../Drivers/CMSIS/DSP/Include/arm_math.h **** 
5426:Core/Inc/../../Drivers/CMSIS/DSP/Include/arm_math.h ****   /**
5427:Core/Inc/../../Drivers/CMSIS/DSP/Include/arm_math.h ****    * @defgroup SQRT Square Root
5428:Core/Inc/../../Drivers/CMSIS/DSP/Include/arm_math.h ****    *
5429:Core/Inc/../../Drivers/CMSIS/DSP/Include/arm_math.h ****    * Computes the square root of a number.
5430:Core/Inc/../../Drivers/CMSIS/DSP/Include/arm_math.h ****    * There are separate functions for Q15, Q31, and floating-point data types.
5431:Core/Inc/../../Drivers/CMSIS/DSP/Include/arm_math.h ****    * The square root function is computed using the Newton-Raphson algorithm.
5432:Core/Inc/../../Drivers/CMSIS/DSP/Include/arm_math.h ****    * This is an iterative algorithm of the form:
5433:Core/Inc/../../Drivers/CMSIS/DSP/Include/arm_math.h ****    * <pre>
5434:Core/Inc/../../Drivers/CMSIS/DSP/Include/arm_math.h ****    *      x1 = x0 - f(x0)/f'(x0)
5435:Core/Inc/../../Drivers/CMSIS/DSP/Include/arm_math.h ****    * </pre>
5436:Core/Inc/../../Drivers/CMSIS/DSP/Include/arm_math.h ****    * where <code>x1</code> is the current estimate,
5437:Core/Inc/../../Drivers/CMSIS/DSP/Include/arm_math.h ****    * <code>x0</code> is the previous estimate, and
5438:Core/Inc/../../Drivers/CMSIS/DSP/Include/arm_math.h ****    * <code>f'(x0)</code> is the derivative of <code>f()</code> evaluated at <code>x0</code>.
5439:Core/Inc/../../Drivers/CMSIS/DSP/Include/arm_math.h ****    * For the square root function, the algorithm reduces to:
5440:Core/Inc/../../Drivers/CMSIS/DSP/Include/arm_math.h ****    * <pre>
5441:Core/Inc/../../Drivers/CMSIS/DSP/Include/arm_math.h ****    *     x0 = in/2                         [initial guess]
5442:Core/Inc/../../Drivers/CMSIS/DSP/Include/arm_math.h ****    *     x1 = 1/2 * ( x0 + in / x0)        [each iteration]
5443:Core/Inc/../../Drivers/CMSIS/DSP/Include/arm_math.h ****    * </pre>
5444:Core/Inc/../../Drivers/CMSIS/DSP/Include/arm_math.h ****    */
5445:Core/Inc/../../Drivers/CMSIS/DSP/Include/arm_math.h **** 
5446:Core/Inc/../../Drivers/CMSIS/DSP/Include/arm_math.h ****   /**
ARM GAS  /var/folders/n6/c271nzx11xl4r4_m7sqjlt0m0000gn/T//ccGo3Vqh.s 			page 124


5447:Core/Inc/../../Drivers/CMSIS/DSP/Include/arm_math.h ****    * @addtogroup SQRT
5448:Core/Inc/../../Drivers/CMSIS/DSP/Include/arm_math.h ****    * @{
5449:Core/Inc/../../Drivers/CMSIS/DSP/Include/arm_math.h ****    */
5450:Core/Inc/../../Drivers/CMSIS/DSP/Include/arm_math.h **** 
5451:Core/Inc/../../Drivers/CMSIS/DSP/Include/arm_math.h ****   /**
5452:Core/Inc/../../Drivers/CMSIS/DSP/Include/arm_math.h ****    * @brief  Floating-point square root function.
5453:Core/Inc/../../Drivers/CMSIS/DSP/Include/arm_math.h ****    * @param[in]  in    input value.
5454:Core/Inc/../../Drivers/CMSIS/DSP/Include/arm_math.h ****    * @param[out] pOut  square root of input value.
5455:Core/Inc/../../Drivers/CMSIS/DSP/Include/arm_math.h ****    * @return The function returns ARM_MATH_SUCCESS if input value is positive value or ARM_MATH_ARG
5456:Core/Inc/../../Drivers/CMSIS/DSP/Include/arm_math.h ****    * <code>in</code> is negative value and returns zero output for negative values.
5457:Core/Inc/../../Drivers/CMSIS/DSP/Include/arm_math.h ****    */
5458:Core/Inc/../../Drivers/CMSIS/DSP/Include/arm_math.h ****   CMSIS_INLINE __STATIC_INLINE arm_status arm_sqrt_f32(
5459:Core/Inc/../../Drivers/CMSIS/DSP/Include/arm_math.h ****       float32_t in,
5460:Core/Inc/../../Drivers/CMSIS/DSP/Include/arm_math.h ****       float32_t *pOut)
5461:Core/Inc/../../Drivers/CMSIS/DSP/Include/arm_math.h ****   {
5462:Core/Inc/../../Drivers/CMSIS/DSP/Include/arm_math.h ****     if (in >= 0.0f)
5463:Core/Inc/../../Drivers/CMSIS/DSP/Include/arm_math.h ****     {
5464:Core/Inc/../../Drivers/CMSIS/DSP/Include/arm_math.h **** 
5465:Core/Inc/../../Drivers/CMSIS/DSP/Include/arm_math.h **** #if (__FPU_USED == 1) && defined(__CC_ARM)
5466:Core/Inc/../../Drivers/CMSIS/DSP/Include/arm_math.h ****       *pOut = __sqrtf(in);
5467:Core/Inc/../../Drivers/CMSIS/DSP/Include/arm_math.h **** #elif (__FPU_USED == 1) && (defined(__ARMCC_VERSION) && (__ARMCC_VERSION >= 6010050))
5468:Core/Inc/../../Drivers/CMSIS/DSP/Include/arm_math.h ****     *pOut = __builtin_sqrtf(in);
5469:Core/Inc/../../Drivers/CMSIS/DSP/Include/arm_math.h **** #elif (__FPU_USED == 1) && defined(__GNUC__)
5470:Core/Inc/../../Drivers/CMSIS/DSP/Include/arm_math.h ****     *pOut = __builtin_sqrtf(in);
5471:Core/Inc/../../Drivers/CMSIS/DSP/Include/arm_math.h **** #elif (__FPU_USED == 1) && defined(__ICCARM__) && (__VER__ >= 6040000)
5472:Core/Inc/../../Drivers/CMSIS/DSP/Include/arm_math.h ****     __ASM("VSQRT.F32 %0,%1" : "=t"(*pOut) : "t"(in));
5473:Core/Inc/../../Drivers/CMSIS/DSP/Include/arm_math.h **** #else
5474:Core/Inc/../../Drivers/CMSIS/DSP/Include/arm_math.h ****     *pOut = sqrtf(in);
5475:Core/Inc/../../Drivers/CMSIS/DSP/Include/arm_math.h **** #endif
5476:Core/Inc/../../Drivers/CMSIS/DSP/Include/arm_math.h **** 
5477:Core/Inc/../../Drivers/CMSIS/DSP/Include/arm_math.h ****       return (ARM_MATH_SUCCESS);
5478:Core/Inc/../../Drivers/CMSIS/DSP/Include/arm_math.h ****     }
5479:Core/Inc/../../Drivers/CMSIS/DSP/Include/arm_math.h ****     else
5480:Core/Inc/../../Drivers/CMSIS/DSP/Include/arm_math.h ****     {
5481:Core/Inc/../../Drivers/CMSIS/DSP/Include/arm_math.h ****       *pOut = 0.0f;
5482:Core/Inc/../../Drivers/CMSIS/DSP/Include/arm_math.h ****       return (ARM_MATH_ARGUMENT_ERROR);
5483:Core/Inc/../../Drivers/CMSIS/DSP/Include/arm_math.h ****     }
5484:Core/Inc/../../Drivers/CMSIS/DSP/Include/arm_math.h ****   }
5485:Core/Inc/../../Drivers/CMSIS/DSP/Include/arm_math.h **** 
5486:Core/Inc/../../Drivers/CMSIS/DSP/Include/arm_math.h ****   /**
5487:Core/Inc/../../Drivers/CMSIS/DSP/Include/arm_math.h ****    * @brief Q31 square root function.
5488:Core/Inc/../../Drivers/CMSIS/DSP/Include/arm_math.h ****    * @param[in]  in    input value.  The range of the input value is [0 +1) or 0x00000000 to 0x7FFF
5489:Core/Inc/../../Drivers/CMSIS/DSP/Include/arm_math.h ****    * @param[out] pOut  square root of input value.
5490:Core/Inc/../../Drivers/CMSIS/DSP/Include/arm_math.h ****    * @return The function returns ARM_MATH_SUCCESS if input value is positive value or ARM_MATH_ARG
5491:Core/Inc/../../Drivers/CMSIS/DSP/Include/arm_math.h ****    * <code>in</code> is negative value and returns zero output for negative values.
5492:Core/Inc/../../Drivers/CMSIS/DSP/Include/arm_math.h ****    */
5493:Core/Inc/../../Drivers/CMSIS/DSP/Include/arm_math.h ****   arm_status arm_sqrt_q31(
5494:Core/Inc/../../Drivers/CMSIS/DSP/Include/arm_math.h ****       q31_t in,
5495:Core/Inc/../../Drivers/CMSIS/DSP/Include/arm_math.h ****       q31_t *pOut);
5496:Core/Inc/../../Drivers/CMSIS/DSP/Include/arm_math.h **** 
5497:Core/Inc/../../Drivers/CMSIS/DSP/Include/arm_math.h ****   /**
5498:Core/Inc/../../Drivers/CMSIS/DSP/Include/arm_math.h ****    * @brief  Q15 square root function.
5499:Core/Inc/../../Drivers/CMSIS/DSP/Include/arm_math.h ****    * @param[in]  in    input value.  The range of the input value is [0 +1) or 0x0000 to 0x7FFF.
5500:Core/Inc/../../Drivers/CMSIS/DSP/Include/arm_math.h ****    * @param[out] pOut  square root of input value.
5501:Core/Inc/../../Drivers/CMSIS/DSP/Include/arm_math.h ****    * @return The function returns ARM_MATH_SUCCESS if input value is positive value or ARM_MATH_ARG
5502:Core/Inc/../../Drivers/CMSIS/DSP/Include/arm_math.h ****    * <code>in</code> is negative value and returns zero output for negative values.
5503:Core/Inc/../../Drivers/CMSIS/DSP/Include/arm_math.h ****    */
ARM GAS  /var/folders/n6/c271nzx11xl4r4_m7sqjlt0m0000gn/T//ccGo3Vqh.s 			page 125


5504:Core/Inc/../../Drivers/CMSIS/DSP/Include/arm_math.h ****   arm_status arm_sqrt_q15(
5505:Core/Inc/../../Drivers/CMSIS/DSP/Include/arm_math.h ****       q15_t in,
5506:Core/Inc/../../Drivers/CMSIS/DSP/Include/arm_math.h ****       q15_t *pOut);
5507:Core/Inc/../../Drivers/CMSIS/DSP/Include/arm_math.h **** 
5508:Core/Inc/../../Drivers/CMSIS/DSP/Include/arm_math.h ****   /**
5509:Core/Inc/../../Drivers/CMSIS/DSP/Include/arm_math.h ****    * @} end of SQRT group
5510:Core/Inc/../../Drivers/CMSIS/DSP/Include/arm_math.h ****    */
5511:Core/Inc/../../Drivers/CMSIS/DSP/Include/arm_math.h **** 
5512:Core/Inc/../../Drivers/CMSIS/DSP/Include/arm_math.h ****   /**
5513:Core/Inc/../../Drivers/CMSIS/DSP/Include/arm_math.h ****    * @brief floating-point Circular write function.
5514:Core/Inc/../../Drivers/CMSIS/DSP/Include/arm_math.h ****    */
5515:Core/Inc/../../Drivers/CMSIS/DSP/Include/arm_math.h ****   CMSIS_INLINE __STATIC_INLINE void arm_circularWrite_f32(
5516:Core/Inc/../../Drivers/CMSIS/DSP/Include/arm_math.h ****       int32_t *circBuffer,
5517:Core/Inc/../../Drivers/CMSIS/DSP/Include/arm_math.h ****       int32_t L,
5518:Core/Inc/../../Drivers/CMSIS/DSP/Include/arm_math.h ****       uint16_t *writeOffset,
5519:Core/Inc/../../Drivers/CMSIS/DSP/Include/arm_math.h ****       int32_t bufferInc,
5520:Core/Inc/../../Drivers/CMSIS/DSP/Include/arm_math.h ****       const int32_t *src,
5521:Core/Inc/../../Drivers/CMSIS/DSP/Include/arm_math.h ****       int32_t srcInc,
5522:Core/Inc/../../Drivers/CMSIS/DSP/Include/arm_math.h ****       uint32_t blockSize)
5523:Core/Inc/../../Drivers/CMSIS/DSP/Include/arm_math.h ****   {
5524:Core/Inc/../../Drivers/CMSIS/DSP/Include/arm_math.h ****     uint32_t i = 0U;
5525:Core/Inc/../../Drivers/CMSIS/DSP/Include/arm_math.h ****     int32_t wOffset;
5526:Core/Inc/../../Drivers/CMSIS/DSP/Include/arm_math.h **** 
5527:Core/Inc/../../Drivers/CMSIS/DSP/Include/arm_math.h ****     /* Copy the value of Index pointer that points
5528:Core/Inc/../../Drivers/CMSIS/DSP/Include/arm_math.h ****      * to the current location where the input samples to be copied */
5529:Core/Inc/../../Drivers/CMSIS/DSP/Include/arm_math.h ****     wOffset = *writeOffset;
5530:Core/Inc/../../Drivers/CMSIS/DSP/Include/arm_math.h **** 
5531:Core/Inc/../../Drivers/CMSIS/DSP/Include/arm_math.h ****     /* Loop over the blockSize */
5532:Core/Inc/../../Drivers/CMSIS/DSP/Include/arm_math.h ****     i = blockSize;
5533:Core/Inc/../../Drivers/CMSIS/DSP/Include/arm_math.h **** 
5534:Core/Inc/../../Drivers/CMSIS/DSP/Include/arm_math.h ****     while (i > 0U)
5535:Core/Inc/../../Drivers/CMSIS/DSP/Include/arm_math.h ****     {
5536:Core/Inc/../../Drivers/CMSIS/DSP/Include/arm_math.h ****       /* copy the input sample to the circular buffer */
5537:Core/Inc/../../Drivers/CMSIS/DSP/Include/arm_math.h ****       circBuffer[wOffset] = *src;
5538:Core/Inc/../../Drivers/CMSIS/DSP/Include/arm_math.h **** 
5539:Core/Inc/../../Drivers/CMSIS/DSP/Include/arm_math.h ****       /* Update the input pointer */
5540:Core/Inc/../../Drivers/CMSIS/DSP/Include/arm_math.h ****       src += srcInc;
5541:Core/Inc/../../Drivers/CMSIS/DSP/Include/arm_math.h **** 
5542:Core/Inc/../../Drivers/CMSIS/DSP/Include/arm_math.h ****       /* Circularly update wOffset.  Watch out for positive and negative value */
5543:Core/Inc/../../Drivers/CMSIS/DSP/Include/arm_math.h ****       wOffset += bufferInc;
5544:Core/Inc/../../Drivers/CMSIS/DSP/Include/arm_math.h ****       if (wOffset >= L)
5545:Core/Inc/../../Drivers/CMSIS/DSP/Include/arm_math.h ****         wOffset -= L;
5546:Core/Inc/../../Drivers/CMSIS/DSP/Include/arm_math.h **** 
5547:Core/Inc/../../Drivers/CMSIS/DSP/Include/arm_math.h ****       /* Decrement the loop counter */
5548:Core/Inc/../../Drivers/CMSIS/DSP/Include/arm_math.h ****       i--;
5549:Core/Inc/../../Drivers/CMSIS/DSP/Include/arm_math.h ****     }
5550:Core/Inc/../../Drivers/CMSIS/DSP/Include/arm_math.h **** 
5551:Core/Inc/../../Drivers/CMSIS/DSP/Include/arm_math.h ****     /* Update the index pointer */
5552:Core/Inc/../../Drivers/CMSIS/DSP/Include/arm_math.h ****     *writeOffset = (uint16_t)wOffset;
5553:Core/Inc/../../Drivers/CMSIS/DSP/Include/arm_math.h ****   }
5554:Core/Inc/../../Drivers/CMSIS/DSP/Include/arm_math.h **** 
5555:Core/Inc/../../Drivers/CMSIS/DSP/Include/arm_math.h ****   /**
5556:Core/Inc/../../Drivers/CMSIS/DSP/Include/arm_math.h ****    * @brief floating-point Circular Read function.
5557:Core/Inc/../../Drivers/CMSIS/DSP/Include/arm_math.h ****    */
5558:Core/Inc/../../Drivers/CMSIS/DSP/Include/arm_math.h ****   CMSIS_INLINE __STATIC_INLINE void arm_circularRead_f32(
5559:Core/Inc/../../Drivers/CMSIS/DSP/Include/arm_math.h ****       int32_t *circBuffer,
5560:Core/Inc/../../Drivers/CMSIS/DSP/Include/arm_math.h ****       int32_t L,
ARM GAS  /var/folders/n6/c271nzx11xl4r4_m7sqjlt0m0000gn/T//ccGo3Vqh.s 			page 126


5561:Core/Inc/../../Drivers/CMSIS/DSP/Include/arm_math.h ****       int32_t *readOffset,
5562:Core/Inc/../../Drivers/CMSIS/DSP/Include/arm_math.h ****       int32_t bufferInc,
5563:Core/Inc/../../Drivers/CMSIS/DSP/Include/arm_math.h ****       int32_t *dst,
5564:Core/Inc/../../Drivers/CMSIS/DSP/Include/arm_math.h ****       int32_t *dst_base,
5565:Core/Inc/../../Drivers/CMSIS/DSP/Include/arm_math.h ****       int32_t dst_length,
5566:Core/Inc/../../Drivers/CMSIS/DSP/Include/arm_math.h ****       int32_t dstInc,
5567:Core/Inc/../../Drivers/CMSIS/DSP/Include/arm_math.h ****       uint32_t blockSize)
5568:Core/Inc/../../Drivers/CMSIS/DSP/Include/arm_math.h ****   {
5569:Core/Inc/../../Drivers/CMSIS/DSP/Include/arm_math.h ****     uint32_t i = 0U;
5570:Core/Inc/../../Drivers/CMSIS/DSP/Include/arm_math.h ****     int32_t rOffset, dst_end;
5571:Core/Inc/../../Drivers/CMSIS/DSP/Include/arm_math.h **** 
5572:Core/Inc/../../Drivers/CMSIS/DSP/Include/arm_math.h ****     /* Copy the value of Index pointer that points
5573:Core/Inc/../../Drivers/CMSIS/DSP/Include/arm_math.h ****      * to the current location from where the input samples to be read */
5574:Core/Inc/../../Drivers/CMSIS/DSP/Include/arm_math.h ****     rOffset = *readOffset;
5575:Core/Inc/../../Drivers/CMSIS/DSP/Include/arm_math.h ****     dst_end = (int32_t)(dst_base + dst_length);
5576:Core/Inc/../../Drivers/CMSIS/DSP/Include/arm_math.h **** 
5577:Core/Inc/../../Drivers/CMSIS/DSP/Include/arm_math.h ****     /* Loop over the blockSize */
5578:Core/Inc/../../Drivers/CMSIS/DSP/Include/arm_math.h ****     i = blockSize;
5579:Core/Inc/../../Drivers/CMSIS/DSP/Include/arm_math.h **** 
5580:Core/Inc/../../Drivers/CMSIS/DSP/Include/arm_math.h ****     while (i > 0U)
5581:Core/Inc/../../Drivers/CMSIS/DSP/Include/arm_math.h ****     {
5582:Core/Inc/../../Drivers/CMSIS/DSP/Include/arm_math.h ****       /* copy the sample from the circular buffer to the destination buffer */
5583:Core/Inc/../../Drivers/CMSIS/DSP/Include/arm_math.h ****       *dst = circBuffer[rOffset];
5584:Core/Inc/../../Drivers/CMSIS/DSP/Include/arm_math.h **** 
5585:Core/Inc/../../Drivers/CMSIS/DSP/Include/arm_math.h ****       /* Update the input pointer */
5586:Core/Inc/../../Drivers/CMSIS/DSP/Include/arm_math.h ****       dst += dstInc;
5587:Core/Inc/../../Drivers/CMSIS/DSP/Include/arm_math.h **** 
5588:Core/Inc/../../Drivers/CMSIS/DSP/Include/arm_math.h ****       if (dst == (int32_t *)dst_end)
5589:Core/Inc/../../Drivers/CMSIS/DSP/Include/arm_math.h ****       {
5590:Core/Inc/../../Drivers/CMSIS/DSP/Include/arm_math.h ****         dst = dst_base;
5591:Core/Inc/../../Drivers/CMSIS/DSP/Include/arm_math.h ****       }
5592:Core/Inc/../../Drivers/CMSIS/DSP/Include/arm_math.h **** 
5593:Core/Inc/../../Drivers/CMSIS/DSP/Include/arm_math.h ****       /* Circularly update rOffset.  Watch out for positive and negative value  */
5594:Core/Inc/../../Drivers/CMSIS/DSP/Include/arm_math.h ****       rOffset += bufferInc;
5595:Core/Inc/../../Drivers/CMSIS/DSP/Include/arm_math.h **** 
5596:Core/Inc/../../Drivers/CMSIS/DSP/Include/arm_math.h ****       if (rOffset >= L)
5597:Core/Inc/../../Drivers/CMSIS/DSP/Include/arm_math.h ****       {
5598:Core/Inc/../../Drivers/CMSIS/DSP/Include/arm_math.h ****         rOffset -= L;
5599:Core/Inc/../../Drivers/CMSIS/DSP/Include/arm_math.h ****       }
5600:Core/Inc/../../Drivers/CMSIS/DSP/Include/arm_math.h **** 
5601:Core/Inc/../../Drivers/CMSIS/DSP/Include/arm_math.h ****       /* Decrement the loop counter */
5602:Core/Inc/../../Drivers/CMSIS/DSP/Include/arm_math.h ****       i--;
5603:Core/Inc/../../Drivers/CMSIS/DSP/Include/arm_math.h ****     }
5604:Core/Inc/../../Drivers/CMSIS/DSP/Include/arm_math.h **** 
5605:Core/Inc/../../Drivers/CMSIS/DSP/Include/arm_math.h ****     /* Update the index pointer */
5606:Core/Inc/../../Drivers/CMSIS/DSP/Include/arm_math.h ****     *readOffset = rOffset;
5607:Core/Inc/../../Drivers/CMSIS/DSP/Include/arm_math.h ****   }
5608:Core/Inc/../../Drivers/CMSIS/DSP/Include/arm_math.h **** 
5609:Core/Inc/../../Drivers/CMSIS/DSP/Include/arm_math.h ****   /**
5610:Core/Inc/../../Drivers/CMSIS/DSP/Include/arm_math.h ****    * @brief Q15 Circular write function.
5611:Core/Inc/../../Drivers/CMSIS/DSP/Include/arm_math.h ****    */
5612:Core/Inc/../../Drivers/CMSIS/DSP/Include/arm_math.h ****   CMSIS_INLINE __STATIC_INLINE void arm_circularWrite_q15(
5613:Core/Inc/../../Drivers/CMSIS/DSP/Include/arm_math.h ****       q15_t *circBuffer,
5614:Core/Inc/../../Drivers/CMSIS/DSP/Include/arm_math.h ****       int32_t L,
5615:Core/Inc/../../Drivers/CMSIS/DSP/Include/arm_math.h ****       uint16_t *writeOffset,
5616:Core/Inc/../../Drivers/CMSIS/DSP/Include/arm_math.h ****       int32_t bufferInc,
5617:Core/Inc/../../Drivers/CMSIS/DSP/Include/arm_math.h ****       const q15_t *src,
ARM GAS  /var/folders/n6/c271nzx11xl4r4_m7sqjlt0m0000gn/T//ccGo3Vqh.s 			page 127


5618:Core/Inc/../../Drivers/CMSIS/DSP/Include/arm_math.h ****       int32_t srcInc,
5619:Core/Inc/../../Drivers/CMSIS/DSP/Include/arm_math.h ****       uint32_t blockSize)
5620:Core/Inc/../../Drivers/CMSIS/DSP/Include/arm_math.h ****   {
5621:Core/Inc/../../Drivers/CMSIS/DSP/Include/arm_math.h ****     uint32_t i = 0U;
5622:Core/Inc/../../Drivers/CMSIS/DSP/Include/arm_math.h ****     int32_t wOffset;
5623:Core/Inc/../../Drivers/CMSIS/DSP/Include/arm_math.h **** 
5624:Core/Inc/../../Drivers/CMSIS/DSP/Include/arm_math.h ****     /* Copy the value of Index pointer that points
5625:Core/Inc/../../Drivers/CMSIS/DSP/Include/arm_math.h ****      * to the current location where the input samples to be copied */
5626:Core/Inc/../../Drivers/CMSIS/DSP/Include/arm_math.h ****     wOffset = *writeOffset;
5627:Core/Inc/../../Drivers/CMSIS/DSP/Include/arm_math.h **** 
5628:Core/Inc/../../Drivers/CMSIS/DSP/Include/arm_math.h ****     /* Loop over the blockSize */
5629:Core/Inc/../../Drivers/CMSIS/DSP/Include/arm_math.h ****     i = blockSize;
5630:Core/Inc/../../Drivers/CMSIS/DSP/Include/arm_math.h **** 
5631:Core/Inc/../../Drivers/CMSIS/DSP/Include/arm_math.h ****     while (i > 0U)
5632:Core/Inc/../../Drivers/CMSIS/DSP/Include/arm_math.h ****     {
5633:Core/Inc/../../Drivers/CMSIS/DSP/Include/arm_math.h ****       /* copy the input sample to the circular buffer */
5634:Core/Inc/../../Drivers/CMSIS/DSP/Include/arm_math.h ****       circBuffer[wOffset] = *src;
5635:Core/Inc/../../Drivers/CMSIS/DSP/Include/arm_math.h **** 
5636:Core/Inc/../../Drivers/CMSIS/DSP/Include/arm_math.h ****       /* Update the input pointer */
5637:Core/Inc/../../Drivers/CMSIS/DSP/Include/arm_math.h ****       src += srcInc;
5638:Core/Inc/../../Drivers/CMSIS/DSP/Include/arm_math.h **** 
5639:Core/Inc/../../Drivers/CMSIS/DSP/Include/arm_math.h ****       /* Circularly update wOffset.  Watch out for positive and negative value */
5640:Core/Inc/../../Drivers/CMSIS/DSP/Include/arm_math.h ****       wOffset += bufferInc;
5641:Core/Inc/../../Drivers/CMSIS/DSP/Include/arm_math.h ****       if (wOffset >= L)
5642:Core/Inc/../../Drivers/CMSIS/DSP/Include/arm_math.h ****         wOffset -= L;
5643:Core/Inc/../../Drivers/CMSIS/DSP/Include/arm_math.h **** 
5644:Core/Inc/../../Drivers/CMSIS/DSP/Include/arm_math.h ****       /* Decrement the loop counter */
5645:Core/Inc/../../Drivers/CMSIS/DSP/Include/arm_math.h ****       i--;
5646:Core/Inc/../../Drivers/CMSIS/DSP/Include/arm_math.h ****     }
5647:Core/Inc/../../Drivers/CMSIS/DSP/Include/arm_math.h **** 
5648:Core/Inc/../../Drivers/CMSIS/DSP/Include/arm_math.h ****     /* Update the index pointer */
5649:Core/Inc/../../Drivers/CMSIS/DSP/Include/arm_math.h ****     *writeOffset = (uint16_t)wOffset;
5650:Core/Inc/../../Drivers/CMSIS/DSP/Include/arm_math.h ****   }
5651:Core/Inc/../../Drivers/CMSIS/DSP/Include/arm_math.h **** 
5652:Core/Inc/../../Drivers/CMSIS/DSP/Include/arm_math.h ****   /**
5653:Core/Inc/../../Drivers/CMSIS/DSP/Include/arm_math.h ****    * @brief Q15 Circular Read function.
5654:Core/Inc/../../Drivers/CMSIS/DSP/Include/arm_math.h ****    */
5655:Core/Inc/../../Drivers/CMSIS/DSP/Include/arm_math.h ****   CMSIS_INLINE __STATIC_INLINE void arm_circularRead_q15(
 1169              		.loc 2 5655 37 view .LVU311
 1170              	.LBB33:
5656:Core/Inc/../../Drivers/CMSIS/DSP/Include/arm_math.h ****       q15_t *circBuffer,
5657:Core/Inc/../../Drivers/CMSIS/DSP/Include/arm_math.h ****       int32_t L,
5658:Core/Inc/../../Drivers/CMSIS/DSP/Include/arm_math.h ****       int32_t *readOffset,
5659:Core/Inc/../../Drivers/CMSIS/DSP/Include/arm_math.h ****       int32_t bufferInc,
5660:Core/Inc/../../Drivers/CMSIS/DSP/Include/arm_math.h ****       q15_t *dst,
5661:Core/Inc/../../Drivers/CMSIS/DSP/Include/arm_math.h ****       q15_t *dst_base,
5662:Core/Inc/../../Drivers/CMSIS/DSP/Include/arm_math.h ****       int32_t dst_length,
5663:Core/Inc/../../Drivers/CMSIS/DSP/Include/arm_math.h ****       int32_t dstInc,
5664:Core/Inc/../../Drivers/CMSIS/DSP/Include/arm_math.h ****       uint32_t blockSize)
5665:Core/Inc/../../Drivers/CMSIS/DSP/Include/arm_math.h ****   {
5666:Core/Inc/../../Drivers/CMSIS/DSP/Include/arm_math.h ****     uint32_t i = 0;
 1171              		.loc 2 5666 5 view .LVU312
5667:Core/Inc/../../Drivers/CMSIS/DSP/Include/arm_math.h ****     int32_t rOffset, dst_end;
 1172              		.loc 2 5667 5 view .LVU313
5668:Core/Inc/../../Drivers/CMSIS/DSP/Include/arm_math.h **** 
5669:Core/Inc/../../Drivers/CMSIS/DSP/Include/arm_math.h ****     /* Copy the value of Index pointer that points
5670:Core/Inc/../../Drivers/CMSIS/DSP/Include/arm_math.h ****      * to the current location from where the input samples to be read */
ARM GAS  /var/folders/n6/c271nzx11xl4r4_m7sqjlt0m0000gn/T//ccGo3Vqh.s 			page 128


5671:Core/Inc/../../Drivers/CMSIS/DSP/Include/arm_math.h ****     rOffset = *readOffset;
 1173              		.loc 2 5671 5 view .LVU314
5672:Core/Inc/../../Drivers/CMSIS/DSP/Include/arm_math.h **** 
5673:Core/Inc/../../Drivers/CMSIS/DSP/Include/arm_math.h ****     dst_end = (int32_t)(dst_base + dst_length);
 1174              		.loc 2 5673 5 view .LVU315
5674:Core/Inc/../../Drivers/CMSIS/DSP/Include/arm_math.h **** 
5675:Core/Inc/../../Drivers/CMSIS/DSP/Include/arm_math.h ****     /* Loop over the blockSize */
5676:Core/Inc/../../Drivers/CMSIS/DSP/Include/arm_math.h ****     i = blockSize;
 1175              		.loc 2 5676 5 view .LVU316
5677:Core/Inc/../../Drivers/CMSIS/DSP/Include/arm_math.h **** 
5678:Core/Inc/../../Drivers/CMSIS/DSP/Include/arm_math.h ****     while (i > 0U)
 1176              		.loc 2 5678 5 view .LVU317
5676:Core/Inc/../../Drivers/CMSIS/DSP/Include/arm_math.h **** 
 1177              		.loc 2 5676 7 is_stmt 0 view .LVU318
 1178 002a 4FF48060 		mov	r0, #1024
 1179              	.LVL106:
 1180              		.loc 2 5678 11 view .LVU319
 1181 002e AE49     		ldr	r1, .L147+8
 1182              	.LVL107:
 1183              		.loc 2 5678 11 view .LVU320
 1184 0030 04E0     		b	.L110
 1185              	.LVL108:
 1186              	.L138:
5679:Core/Inc/../../Drivers/CMSIS/DSP/Include/arm_math.h ****     {
5680:Core/Inc/../../Drivers/CMSIS/DSP/Include/arm_math.h ****       /* copy the sample from the circular buffer to the destination buffer */
5681:Core/Inc/../../Drivers/CMSIS/DSP/Include/arm_math.h ****       *dst = circBuffer[rOffset];
5682:Core/Inc/../../Drivers/CMSIS/DSP/Include/arm_math.h **** 
5683:Core/Inc/../../Drivers/CMSIS/DSP/Include/arm_math.h ****       /* Update the input pointer */
5684:Core/Inc/../../Drivers/CMSIS/DSP/Include/arm_math.h ****       dst += dstInc;
5685:Core/Inc/../../Drivers/CMSIS/DSP/Include/arm_math.h **** 
5686:Core/Inc/../../Drivers/CMSIS/DSP/Include/arm_math.h ****       if (dst == (q15_t *)dst_end)
5687:Core/Inc/../../Drivers/CMSIS/DSP/Include/arm_math.h ****       {
5688:Core/Inc/../../Drivers/CMSIS/DSP/Include/arm_math.h ****         dst = dst_base;
 1187              		.loc 2 5688 13 view .LVU321
 1188 0032 A2F50061 		sub	r1, r2, #2048
 1189              	.LVL109:
 1190              		.loc 2 5688 13 view .LVU322
 1191 0036 09E0     		b	.L111
 1192              	.LVL110:
 1193              	.L112:
5689:Core/Inc/../../Drivers/CMSIS/DSP/Include/arm_math.h ****       }
5690:Core/Inc/../../Drivers/CMSIS/DSP/Include/arm_math.h **** 
5691:Core/Inc/../../Drivers/CMSIS/DSP/Include/arm_math.h ****       /* Circularly update wOffset.  Watch out for positive and negative value */
5692:Core/Inc/../../Drivers/CMSIS/DSP/Include/arm_math.h ****       rOffset += bufferInc;
5693:Core/Inc/../../Drivers/CMSIS/DSP/Include/arm_math.h **** 
5694:Core/Inc/../../Drivers/CMSIS/DSP/Include/arm_math.h ****       if (rOffset >= L)
5695:Core/Inc/../../Drivers/CMSIS/DSP/Include/arm_math.h ****       {
5696:Core/Inc/../../Drivers/CMSIS/DSP/Include/arm_math.h ****         rOffset -= L;
5697:Core/Inc/../../Drivers/CMSIS/DSP/Include/arm_math.h ****       }
5698:Core/Inc/../../Drivers/CMSIS/DSP/Include/arm_math.h **** 
5699:Core/Inc/../../Drivers/CMSIS/DSP/Include/arm_math.h ****       /* Decrement the loop counter */
5700:Core/Inc/../../Drivers/CMSIS/DSP/Include/arm_math.h ****       i--;
 1194              		.loc 2 5700 7 is_stmt 1 view .LVU323
 1195              		.loc 2 5700 8 is_stmt 0 view .LVU324
 1196 0038 0138     		subs	r0, r0, #1
 1197              	.LVL111:
 1198              		.loc 2 5700 8 view .LVU325
ARM GAS  /var/folders/n6/c271nzx11xl4r4_m7sqjlt0m0000gn/T//ccGo3Vqh.s 			page 129


 1199 003a 1346     		mov	r3, r2
 1200              	.LVL112:
 1201              	.L110:
5678:Core/Inc/../../Drivers/CMSIS/DSP/Include/arm_math.h ****     {
 1202              		.loc 2 5678 14 is_stmt 1 view .LVU326
 1203 003c 68B1     		cbz	r0, .L137
5681:Core/Inc/../../Drivers/CMSIS/DSP/Include/arm_math.h **** 
 1204              		.loc 2 5681 7 view .LVU327
5681:Core/Inc/../../Drivers/CMSIS/DSP/Include/arm_math.h **** 
 1205              		.loc 2 5681 24 is_stmt 0 view .LVU328
 1206 003e 34F91320 		ldrsh	r2, [r4, r3, lsl #1]
5681:Core/Inc/../../Drivers/CMSIS/DSP/Include/arm_math.h **** 
 1207              		.loc 2 5681 12 view .LVU329
 1208 0042 21F8022B 		strh	r2, [r1], #2	@ movhi
 1209              	.LVL113:
5684:Core/Inc/../../Drivers/CMSIS/DSP/Include/arm_math.h **** 
 1210              		.loc 2 5684 7 is_stmt 1 view .LVU330
5686:Core/Inc/../../Drivers/CMSIS/DSP/Include/arm_math.h ****       {
 1211              		.loc 2 5686 7 view .LVU331
5686:Core/Inc/../../Drivers/CMSIS/DSP/Include/arm_math.h ****       {
 1212              		.loc 2 5686 10 is_stmt 0 view .LVU332
 1213 0046 A94A     		ldr	r2, .L147+12
 1214              	.LVL114:
5686:Core/Inc/../../Drivers/CMSIS/DSP/Include/arm_math.h ****       {
 1215              		.loc 2 5686 10 view .LVU333
 1216 0048 9142     		cmp	r1, r2
 1217 004a F2D0     		beq	.L138
 1218              	.LVL115:
 1219              	.L111:
5692:Core/Inc/../../Drivers/CMSIS/DSP/Include/arm_math.h **** 
 1220              		.loc 2 5692 7 is_stmt 1 view .LVU334
5692:Core/Inc/../../Drivers/CMSIS/DSP/Include/arm_math.h **** 
 1221              		.loc 2 5692 15 is_stmt 0 view .LVU335
 1222 004c 9A1C     		adds	r2, r3, #2
 1223              	.LVL116:
5694:Core/Inc/../../Drivers/CMSIS/DSP/Include/arm_math.h ****       {
 1224              		.loc 2 5694 7 is_stmt 1 view .LVU336
5694:Core/Inc/../../Drivers/CMSIS/DSP/Include/arm_math.h ****       {
 1225              		.loc 2 5694 10 is_stmt 0 view .LVU337
 1226 004e B2F5805F 		cmp	r2, #4096
 1227 0052 F1DB     		blt	.L112
5696:Core/Inc/../../Drivers/CMSIS/DSP/Include/arm_math.h ****       }
 1228              		.loc 2 5696 9 is_stmt 1 view .LVU338
5696:Core/Inc/../../Drivers/CMSIS/DSP/Include/arm_math.h ****       }
 1229              		.loc 2 5696 17 is_stmt 0 view .LVU339
 1230 0054 A3F6FE72 		subw	r2, r3, #4094
 1231              	.LVL117:
5696:Core/Inc/../../Drivers/CMSIS/DSP/Include/arm_math.h ****       }
 1232              		.loc 2 5696 17 view .LVU340
 1233 0058 EEE7     		b	.L112
 1234              	.LVL118:
 1235              	.L137:
5701:Core/Inc/../../Drivers/CMSIS/DSP/Include/arm_math.h ****     }
5702:Core/Inc/../../Drivers/CMSIS/DSP/Include/arm_math.h **** 
5703:Core/Inc/../../Drivers/CMSIS/DSP/Include/arm_math.h ****     /* Update the index pointer */
5704:Core/Inc/../../Drivers/CMSIS/DSP/Include/arm_math.h ****     *readOffset = rOffset;
 1236              		.loc 2 5704 5 is_stmt 1 view .LVU341
ARM GAS  /var/folders/n6/c271nzx11xl4r4_m7sqjlt0m0000gn/T//ccGo3Vqh.s 			page 130


 1237              		.loc 2 5704 17 is_stmt 0 view .LVU342
 1238 005a A24A     		ldr	r2, .L147+4
 1239 005c 1360     		str	r3, [r2]
 1240              	.LVL119:
 1241              		.loc 2 5704 17 view .LVU343
 1242              	.LBE33:
 1243              	.LBE32:
 237:Core/Src/filtrage.c ****             FFT_Calculation(tmp_buf_2, tmp_buf_1);
 1244              		.loc 1 237 13 is_stmt 1 view .LVU344
 1245 005e A44E     		ldr	r6, .L147+16
 1246 0060 0023     		movs	r3, #0
 1247 0062 4FF48062 		mov	r2, #1024
 1248 0066 A049     		ldr	r1, .L147+8
 1249 0068 3046     		mov	r0, r6
 1250 006a FFF7FEFF 		bl	Hanning_window
 1251              	.LVL120:
 238:Core/Src/filtrage.c ****             DSE_Calculation(tmp_buf_1, tmp_buf_2);
 1252              		.loc 1 238 13 view .LVU345
 1253 006e A14D     		ldr	r5, .L147+20
 1254 0070 3146     		mov	r1, r6
 1255 0072 2846     		mov	r0, r5
 1256 0074 FFF7FEFF 		bl	FFT_Calculation
 1257              	.LVL121:
 239:Core/Src/filtrage.c ****             MEL_Calculation(&pOut[mel_indice * N_MELS], tmp_buf_1);
 1258              		.loc 1 239 13 view .LVU346
 1259 0078 2946     		mov	r1, r5
 1260 007a 3046     		mov	r0, r6
 1261 007c FFF7FEFF 		bl	DSE_Calculation
 1262              	.LVL122:
 240:Core/Src/filtrage.c ****             ZScore_Calculation(&pOut[mel_indice * N_MELS], N_MELS);
 1263              		.loc 1 240 13 view .LVU347
 240:Core/Src/filtrage.c ****             ZScore_Calculation(&pOut[mel_indice * N_MELS], N_MELS);
 1264              		.loc 1 240 34 is_stmt 0 view .LVU348
 1265 0080 9D4D     		ldr	r5, .L147+24
 1266 0082 2878     		ldrb	r0, [r5]	@ zero_extendqisi2
 1267 0084 C0EB0010 		rsb	r0, r0, r0, lsl #4
 240:Core/Src/filtrage.c ****             ZScore_Calculation(&pOut[mel_indice * N_MELS], N_MELS);
 1268              		.loc 1 240 13 view .LVU349
 1269 0088 3146     		mov	r1, r6
 1270 008a 08EBC000 		add	r0, r8, r0, lsl #3
 1271 008e FFF7FEFF 		bl	MEL_Calculation
 1272              	.LVL123:
 241:Core/Src/filtrage.c ****             mel_indice++;
 1273              		.loc 1 241 13 is_stmt 1 view .LVU350
 241:Core/Src/filtrage.c ****             mel_indice++;
 1274              		.loc 1 241 37 is_stmt 0 view .LVU351
 1275 0092 2878     		ldrb	r0, [r5]	@ zero_extendqisi2
 1276 0094 C0EB0010 		rsb	r0, r0, r0, lsl #4
 241:Core/Src/filtrage.c ****             mel_indice++;
 1277              		.loc 1 241 13 view .LVU352
 1278 0098 1E21     		movs	r1, #30
 1279 009a 08EBC000 		add	r0, r8, r0, lsl #3
 1280 009e FFF7FEFF 		bl	ZScore_Calculation
 1281              	.LVL124:
 242:Core/Src/filtrage.c ****         }
 1282              		.loc 1 242 13 is_stmt 1 view .LVU353
 242:Core/Src/filtrage.c ****         }
ARM GAS  /var/folders/n6/c271nzx11xl4r4_m7sqjlt0m0000gn/T//ccGo3Vqh.s 			page 131


 1283              		.loc 1 242 23 is_stmt 0 view .LVU354
 1284 00a2 2B78     		ldrb	r3, [r5]	@ zero_extendqisi2
 1285 00a4 0133     		adds	r3, r3, #1
 1286 00a6 2B70     		strb	r3, [r5]
 1287              	.LVL125:
 1288              	.L109:
 244:Core/Src/filtrage.c ****         {
 1289              		.loc 1 244 9 is_stmt 1 view .LVU355
 244:Core/Src/filtrage.c ****         {
 1290              		.loc 1 244 24 is_stmt 0 view .LVU356
 1291 00a8 934B     		ldr	r3, .L147+24
 1292 00aa 1B78     		ldrb	r3, [r3]	@ zero_extendqisi2
 244:Core/Src/filtrage.c ****         {
 1293              		.loc 1 244 12 view .LVU357
 1294 00ac 202B     		cmp	r3, #32
 1295 00ae 06D0     		beq	.L139
 253:Core/Src/filtrage.c ****         arm_circularRead_q15(pIn, STEREO_RECORD_BUFFER_SIZE, &cReadIndex, 2, rawPCMdata, &distIndex
 1296              		.loc 1 253 9 is_stmt 1 view .LVU358
 253:Core/Src/filtrage.c ****         arm_circularRead_q15(pIn, STEREO_RECORD_BUFFER_SIZE, &cReadIndex, 2, rawPCMdata, &distIndex
 1297              		.loc 1 253 20 is_stmt 0 view .LVU359
 1298 00b0 0023     		movs	r3, #0
 1299 00b2 8C4A     		ldr	r2, .L147+4
 1300 00b4 1360     		str	r3, [r2]
 254:Core/Src/filtrage.c **** 
 1301              		.loc 1 254 9 is_stmt 1 view .LVU360
 1302              	.LVL126:
 1303              	.LBB34:
 1304              	.LBI34:
5655:Core/Inc/../../Drivers/CMSIS/DSP/Include/arm_math.h ****       q15_t *circBuffer,
 1305              		.loc 2 5655 37 view .LVU361
 1306              	.LBB35:
5666:Core/Inc/../../Drivers/CMSIS/DSP/Include/arm_math.h ****     int32_t rOffset, dst_end;
 1307              		.loc 2 5666 5 view .LVU362
5667:Core/Inc/../../Drivers/CMSIS/DSP/Include/arm_math.h **** 
 1308              		.loc 2 5667 5 view .LVU363
5671:Core/Inc/../../Drivers/CMSIS/DSP/Include/arm_math.h **** 
 1309              		.loc 2 5671 5 view .LVU364
5673:Core/Inc/../../Drivers/CMSIS/DSP/Include/arm_math.h **** 
 1310              		.loc 2 5673 5 view .LVU365
5676:Core/Inc/../../Drivers/CMSIS/DSP/Include/arm_math.h **** 
 1311              		.loc 2 5676 5 view .LVU366
5678:Core/Inc/../../Drivers/CMSIS/DSP/Include/arm_math.h ****     {
 1312              		.loc 2 5678 5 view .LVU367
5676:Core/Inc/../../Drivers/CMSIS/DSP/Include/arm_math.h **** 
 1313              		.loc 2 5676 7 is_stmt 0 view .LVU368
 1314 00b6 4FF48066 		mov	r6, #1024
5678:Core/Inc/../../Drivers/CMSIS/DSP/Include/arm_math.h ****     {
 1315              		.loc 2 5678 11 view .LVU369
 1316 00ba 8B4D     		ldr	r5, .L147+8
 1317 00bc 1AE0     		b	.L116
 1318              	.LVL127:
 1319              	.L139:
5678:Core/Inc/../../Drivers/CMSIS/DSP/Include/arm_math.h ****     {
 1320              		.loc 2 5678 11 view .LVU370
 1321              	.LBE35:
 1322              	.LBE34:
 246:Core/Src/filtrage.c ****             arm_copy_q15(&rawPCMdata[FILTRAGE_SIZE / 2], &sd_wav_cache[FILTRAGE_SIZE * wav_indice],
ARM GAS  /var/folders/n6/c271nzx11xl4r4_m7sqjlt0m0000gn/T//ccGo3Vqh.s 			page 132


 1323              		.loc 1 246 13 is_stmt 1 view .LVU371
 246:Core/Src/filtrage.c ****             arm_copy_q15(&rawPCMdata[FILTRAGE_SIZE / 2], &sd_wav_cache[FILTRAGE_SIZE * wav_indice],
 1324              		.loc 1 246 24 is_stmt 0 view .LVU372
 1325 00be 0025     		movs	r5, #0
 1326 00c0 8D4B     		ldr	r3, .L147+24
 1327 00c2 1D70     		strb	r5, [r3]
 247:Core/Src/filtrage.c ****             WriteWAVFile((uint8_t *)sd_wav_cache, sizeof(sd_wav_cache), END_WAV_FILE);
 1328              		.loc 1 247 13 is_stmt 1 view .LVU373
 247:Core/Src/filtrage.c ****             WriteWAVFile((uint8_t *)sd_wav_cache, sizeof(sd_wav_cache), END_WAV_FILE);
 1329              		.loc 1 247 86 is_stmt 0 view .LVU374
 1330 00c4 8D4C     		ldr	r4, .L147+28
 1331              	.LVL128:
 247:Core/Src/filtrage.c ****             WriteWAVFile((uint8_t *)sd_wav_cache, sizeof(sd_wav_cache), END_WAV_FILE);
 1332              		.loc 1 247 86 view .LVU375
 1333 00c6 2168     		ldr	r1, [r4]
 247:Core/Src/filtrage.c ****             WriteWAVFile((uint8_t *)sd_wav_cache, sizeof(sd_wav_cache), END_WAV_FILE);
 1334              		.loc 1 247 58 view .LVU376
 1335 00c8 8D4E     		ldr	r6, .L147+32
 247:Core/Src/filtrage.c ****             WriteWAVFile((uint8_t *)sd_wav_cache, sizeof(sd_wav_cache), END_WAV_FILE);
 1336              		.loc 1 247 13 view .LVU377
 1337 00ca 4FF40072 		mov	r2, #512
 1338 00ce 06EBC121 		add	r1, r6, r1, lsl #11
 1339 00d2 8C48     		ldr	r0, .L147+36
 1340 00d4 FFF7FEFF 		bl	arm_copy_q15
 1341              	.LVL129:
 248:Core/Src/filtrage.c ****             wav_indice = 0;
 1342              		.loc 1 248 13 is_stmt 1 view .LVU378
 1343 00d8 0122     		movs	r2, #1
 1344 00da 4FF48431 		mov	r1, #67584
 1345 00de 3046     		mov	r0, r6
 1346 00e0 FFF7FEFF 		bl	WriteWAVFile
 1347              	.LVL130:
 249:Core/Src/filtrage.c ****             return FEATURE_EXPORT_OK;
 1348              		.loc 1 249 13 view .LVU379
 249:Core/Src/filtrage.c ****             return FEATURE_EXPORT_OK;
 1349              		.loc 1 249 24 is_stmt 0 view .LVU380
 1350 00e4 2560     		str	r5, [r4]
 250:Core/Src/filtrage.c ****         }
 1351              		.loc 1 250 13 is_stmt 1 view .LVU381
 250:Core/Src/filtrage.c ****         }
 1352              		.loc 1 250 20 is_stmt 0 view .LVU382
 1353 00e6 0220     		movs	r0, #2
 1354 00e8 95E7     		b	.L115
 1355              	.LVL131:
 1356              	.L141:
 1357              	.LBB37:
 1358              	.LBB36:
5688:Core/Inc/../../Drivers/CMSIS/DSP/Include/arm_math.h ****       }
 1359              		.loc 2 5688 13 view .LVU383
 1360 00ea A2F50065 		sub	r5, r2, #2048
 1361              	.LVL132:
5688:Core/Inc/../../Drivers/CMSIS/DSP/Include/arm_math.h ****       }
 1362              		.loc 2 5688 13 view .LVU384
 1363 00ee 09E0     		b	.L117
 1364              	.LVL133:
 1365              	.L118:
5700:Core/Inc/../../Drivers/CMSIS/DSP/Include/arm_math.h ****     }
ARM GAS  /var/folders/n6/c271nzx11xl4r4_m7sqjlt0m0000gn/T//ccGo3Vqh.s 			page 133


 1366              		.loc 2 5700 7 is_stmt 1 view .LVU385
5700:Core/Inc/../../Drivers/CMSIS/DSP/Include/arm_math.h ****     }
 1367              		.loc 2 5700 8 is_stmt 0 view .LVU386
 1368 00f0 013E     		subs	r6, r6, #1
 1369              	.LVL134:
5700:Core/Inc/../../Drivers/CMSIS/DSP/Include/arm_math.h ****     }
 1370              		.loc 2 5700 8 view .LVU387
 1371 00f2 0B46     		mov	r3, r1
 1372              	.LVL135:
 1373              	.L116:
5678:Core/Inc/../../Drivers/CMSIS/DSP/Include/arm_math.h ****     {
 1374              		.loc 2 5678 14 is_stmt 1 view .LVU388
 1375 00f4 6EB1     		cbz	r6, .L140
5681:Core/Inc/../../Drivers/CMSIS/DSP/Include/arm_math.h **** 
 1376              		.loc 2 5681 7 view .LVU389
5681:Core/Inc/../../Drivers/CMSIS/DSP/Include/arm_math.h **** 
 1377              		.loc 2 5681 24 is_stmt 0 view .LVU390
 1378 00f6 34F91320 		ldrsh	r2, [r4, r3, lsl #1]
5681:Core/Inc/../../Drivers/CMSIS/DSP/Include/arm_math.h **** 
 1379              		.loc 2 5681 12 view .LVU391
 1380 00fa 25F8022B 		strh	r2, [r5], #2	@ movhi
 1381              	.LVL136:
5684:Core/Inc/../../Drivers/CMSIS/DSP/Include/arm_math.h **** 
 1382              		.loc 2 5684 7 is_stmt 1 view .LVU392
5686:Core/Inc/../../Drivers/CMSIS/DSP/Include/arm_math.h ****       {
 1383              		.loc 2 5686 7 view .LVU393
5686:Core/Inc/../../Drivers/CMSIS/DSP/Include/arm_math.h ****       {
 1384              		.loc 2 5686 10 is_stmt 0 view .LVU394
 1385 00fe 7B4A     		ldr	r2, .L147+12
 1386              	.LVL137:
5686:Core/Inc/../../Drivers/CMSIS/DSP/Include/arm_math.h ****       {
 1387              		.loc 2 5686 10 view .LVU395
 1388 0100 9542     		cmp	r5, r2
 1389 0102 F2D0     		beq	.L141
 1390              	.LVL138:
 1391              	.L117:
5692:Core/Inc/../../Drivers/CMSIS/DSP/Include/arm_math.h **** 
 1392              		.loc 2 5692 7 is_stmt 1 view .LVU396
5692:Core/Inc/../../Drivers/CMSIS/DSP/Include/arm_math.h **** 
 1393              		.loc 2 5692 15 is_stmt 0 view .LVU397
 1394 0104 991C     		adds	r1, r3, #2
 1395              	.LVL139:
5694:Core/Inc/../../Drivers/CMSIS/DSP/Include/arm_math.h ****       {
 1396              		.loc 2 5694 7 is_stmt 1 view .LVU398
5694:Core/Inc/../../Drivers/CMSIS/DSP/Include/arm_math.h ****       {
 1397              		.loc 2 5694 10 is_stmt 0 view .LVU399
 1398 0106 B1F5805F 		cmp	r1, #4096
 1399 010a F1DB     		blt	.L118
5696:Core/Inc/../../Drivers/CMSIS/DSP/Include/arm_math.h ****       }
 1400              		.loc 2 5696 9 is_stmt 1 view .LVU400
5696:Core/Inc/../../Drivers/CMSIS/DSP/Include/arm_math.h ****       }
 1401              		.loc 2 5696 17 is_stmt 0 view .LVU401
 1402 010c A3F6FE71 		subw	r1, r3, #4094
 1403              	.LVL140:
5696:Core/Inc/../../Drivers/CMSIS/DSP/Include/arm_math.h ****       }
 1404              		.loc 2 5696 17 view .LVU402
 1405 0110 EEE7     		b	.L118
ARM GAS  /var/folders/n6/c271nzx11xl4r4_m7sqjlt0m0000gn/T//ccGo3Vqh.s 			page 134


 1406              	.LVL141:
 1407              	.L140:
 1408              		.loc 2 5704 5 is_stmt 1 view .LVU403
 1409              		.loc 2 5704 17 is_stmt 0 view .LVU404
 1410 0112 744A     		ldr	r2, .L147+4
 1411 0114 1360     		str	r3, [r2]
 1412              	.LVL142:
 1413              		.loc 2 5704 17 view .LVU405
 1414              	.LBE36:
 1415              	.LBE37:
 256:Core/Src/filtrage.c ****         FFT_Calculation(tmp_buf_2, tmp_buf_1);
 1416              		.loc 1 256 9 is_stmt 1 view .LVU406
 1417 0116 744D     		ldr	r5, .L147+8
 1418 0118 754E     		ldr	r6, .L147+16
 1419 011a 0023     		movs	r3, #0
 1420 011c 4FF48062 		mov	r2, #1024
 1421 0120 2946     		mov	r1, r5
 1422 0122 3046     		mov	r0, r6
 1423 0124 FFF7FEFF 		bl	Hanning_window
 1424              	.LVL143:
 257:Core/Src/filtrage.c ****         DSE_Calculation(tmp_buf_1, tmp_buf_2);
 1425              		.loc 1 257 9 view .LVU407
 1426 0128 724C     		ldr	r4, .L147+20
 1427              	.LVL144:
 257:Core/Src/filtrage.c ****         DSE_Calculation(tmp_buf_1, tmp_buf_2);
 1428              		.loc 1 257 9 is_stmt 0 view .LVU408
 1429 012a 3146     		mov	r1, r6
 1430 012c 2046     		mov	r0, r4
 1431 012e FFF7FEFF 		bl	FFT_Calculation
 1432              	.LVL145:
 258:Core/Src/filtrage.c ****         MEL_Calculation(&pOut[mel_indice * N_MELS], tmp_buf_1);
 1433              		.loc 1 258 9 is_stmt 1 view .LVU409
 1434 0132 2146     		mov	r1, r4
 1435 0134 3046     		mov	r0, r6
 1436 0136 FFF7FEFF 		bl	DSE_Calculation
 1437              	.LVL146:
 259:Core/Src/filtrage.c ****         ZScore_Calculation(&pOut[mel_indice * N_MELS], N_MELS);
 1438              		.loc 1 259 9 view .LVU410
 259:Core/Src/filtrage.c ****         ZScore_Calculation(&pOut[mel_indice * N_MELS], N_MELS);
 1439              		.loc 1 259 30 is_stmt 0 view .LVU411
 1440 013a 6F4C     		ldr	r4, .L147+24
 1441 013c 2078     		ldrb	r0, [r4]	@ zero_extendqisi2
 1442 013e C0EB0010 		rsb	r0, r0, r0, lsl #4
 259:Core/Src/filtrage.c ****         ZScore_Calculation(&pOut[mel_indice * N_MELS], N_MELS);
 1443              		.loc 1 259 9 view .LVU412
 1444 0142 3146     		mov	r1, r6
 1445 0144 08EBC000 		add	r0, r8, r0, lsl #3
 1446 0148 FFF7FEFF 		bl	MEL_Calculation
 1447              	.LVL147:
 260:Core/Src/filtrage.c ****         buffer_run = BUFFER_HALF_NONE;
 1448              		.loc 1 260 9 is_stmt 1 view .LVU413
 260:Core/Src/filtrage.c ****         buffer_run = BUFFER_HALF_NONE;
 1449              		.loc 1 260 33 is_stmt 0 view .LVU414
 1450 014c 2078     		ldrb	r0, [r4]	@ zero_extendqisi2
 1451 014e C0EB0010 		rsb	r0, r0, r0, lsl #4
 260:Core/Src/filtrage.c ****         buffer_run = BUFFER_HALF_NONE;
 1452              		.loc 1 260 9 view .LVU415
ARM GAS  /var/folders/n6/c271nzx11xl4r4_m7sqjlt0m0000gn/T//ccGo3Vqh.s 			page 135


 1453 0152 1E21     		movs	r1, #30
 1454 0154 08EBC000 		add	r0, r8, r0, lsl #3
 1455 0158 FFF7FEFF 		bl	ZScore_Calculation
 1456              	.LVL148:
 261:Core/Src/filtrage.c ****         mel_indice++;
 1457              		.loc 1 261 9 is_stmt 1 view .LVU416
 261:Core/Src/filtrage.c ****         mel_indice++;
 1458              		.loc 1 261 20 is_stmt 0 view .LVU417
 1459 015c 604B     		ldr	r3, .L147
 1460 015e 0022     		movs	r2, #0
 1461 0160 1A70     		strb	r2, [r3]
 262:Core/Src/filtrage.c ****         arm_copy_q15(rawPCMdata, &sd_wav_cache[FILTRAGE_SIZE * wav_indice++], FILTRAGE_SIZE);
 1462              		.loc 1 262 9 is_stmt 1 view .LVU418
 262:Core/Src/filtrage.c ****         arm_copy_q15(rawPCMdata, &sd_wav_cache[FILTRAGE_SIZE * wav_indice++], FILTRAGE_SIZE);
 1463              		.loc 1 262 19 is_stmt 0 view .LVU419
 1464 0162 2378     		ldrb	r3, [r4]	@ zero_extendqisi2
 1465 0164 0133     		adds	r3, r3, #1
 1466 0166 2370     		strb	r3, [r4]
 263:Core/Src/filtrage.c ****     }
 1467              		.loc 1 263 9 is_stmt 1 view .LVU420
 263:Core/Src/filtrage.c ****     }
 1468              		.loc 1 263 74 is_stmt 0 view .LVU421
 1469 0168 644A     		ldr	r2, .L147+28
 1470 016a 1368     		ldr	r3, [r2]
 1471 016c 591C     		adds	r1, r3, #1
 1472 016e 1160     		str	r1, [r2]
 263:Core/Src/filtrage.c ****     }
 1473              		.loc 1 263 9 view .LVU422
 1474 0170 4FF48062 		mov	r2, #1024
 1475 0174 6249     		ldr	r1, .L147+32
 1476 0176 01EBC321 		add	r1, r1, r3, lsl #11
 1477 017a 2846     		mov	r0, r5
 1478 017c FFF7FEFF 		bl	arm_copy_q15
 1479              	.LVL149:
 298:Core/Src/filtrage.c **** }
 1480              		.loc 1 298 12 view .LVU423
 1481 0180 3846     		mov	r0, r7
 1482 0182 48E7     		b	.L115
 1483              	.LVL150:
 1484              	.L136:
 267:Core/Src/filtrage.c ****         arm_circularRead_q15(pIn, STEREO_RECORD_BUFFER_SIZE, &cReadIndex, 2, rawPCMdata, &distIndex
 1485              		.loc 1 267 9 is_stmt 1 view .LVU424
 267:Core/Src/filtrage.c ****         arm_circularRead_q15(pIn, STEREO_RECORD_BUFFER_SIZE, &cReadIndex, 2, rawPCMdata, &distIndex
 1486              		.loc 1 267 20 is_stmt 0 view .LVU425
 1487 0184 4FF48062 		mov	r2, #1024
 1488              	.LVL151:
 267:Core/Src/filtrage.c ****         arm_circularRead_q15(pIn, STEREO_RECORD_BUFFER_SIZE, &cReadIndex, 2, rawPCMdata, &distIndex
 1489              		.loc 1 267 20 view .LVU426
 1490 0188 564B     		ldr	r3, .L147+4
 1491 018a 1A60     		str	r2, [r3]
 268:Core/Src/filtrage.c **** 
 1492              		.loc 1 268 9 is_stmt 1 view .LVU427
 1493              	.LVL152:
 1494              	.LBB38:
 1495              	.LBI38:
5655:Core/Inc/../../Drivers/CMSIS/DSP/Include/arm_math.h ****       q15_t *circBuffer,
 1496              		.loc 2 5655 37 view .LVU428
ARM GAS  /var/folders/n6/c271nzx11xl4r4_m7sqjlt0m0000gn/T//ccGo3Vqh.s 			page 136


 1497              	.LBB39:
5666:Core/Inc/../../Drivers/CMSIS/DSP/Include/arm_math.h ****     int32_t rOffset, dst_end;
 1498              		.loc 2 5666 5 view .LVU429
5667:Core/Inc/../../Drivers/CMSIS/DSP/Include/arm_math.h **** 
 1499              		.loc 2 5667 5 view .LVU430
5671:Core/Inc/../../Drivers/CMSIS/DSP/Include/arm_math.h **** 
 1500              		.loc 2 5671 5 view .LVU431
5673:Core/Inc/../../Drivers/CMSIS/DSP/Include/arm_math.h **** 
 1501              		.loc 2 5673 5 view .LVU432
5676:Core/Inc/../../Drivers/CMSIS/DSP/Include/arm_math.h **** 
 1502              		.loc 2 5676 5 view .LVU433
5678:Core/Inc/../../Drivers/CMSIS/DSP/Include/arm_math.h ****     {
 1503              		.loc 2 5678 5 view .LVU434
5671:Core/Inc/../../Drivers/CMSIS/DSP/Include/arm_math.h **** 
 1504              		.loc 2 5671 13 is_stmt 0 view .LVU435
 1505 018c 1346     		mov	r3, r2
5678:Core/Inc/../../Drivers/CMSIS/DSP/Include/arm_math.h ****     {
 1506              		.loc 2 5678 11 view .LVU436
 1507 018e 5648     		ldr	r0, .L147+8
 1508              	.LVL153:
5678:Core/Inc/../../Drivers/CMSIS/DSP/Include/arm_math.h ****     {
 1509              		.loc 2 5678 11 view .LVU437
 1510 0190 04E0     		b	.L120
 1511              	.LVL154:
 1512              	.L143:
5688:Core/Inc/../../Drivers/CMSIS/DSP/Include/arm_math.h ****       }
 1513              		.loc 2 5688 13 view .LVU438
 1514 0192 A1F50060 		sub	r0, r1, #2048
 1515              	.LVL155:
5688:Core/Inc/../../Drivers/CMSIS/DSP/Include/arm_math.h ****       }
 1516              		.loc 2 5688 13 view .LVU439
 1517 0196 09E0     		b	.L121
 1518              	.LVL156:
 1519              	.L122:
5700:Core/Inc/../../Drivers/CMSIS/DSP/Include/arm_math.h ****     }
 1520              		.loc 2 5700 7 is_stmt 1 view .LVU440
5700:Core/Inc/../../Drivers/CMSIS/DSP/Include/arm_math.h ****     }
 1521              		.loc 2 5700 8 is_stmt 0 view .LVU441
 1522 0198 013A     		subs	r2, r2, #1
 1523              	.LVL157:
5700:Core/Inc/../../Drivers/CMSIS/DSP/Include/arm_math.h ****     }
 1524              		.loc 2 5700 8 view .LVU442
 1525 019a 0B46     		mov	r3, r1
 1526              	.LVL158:
 1527              	.L120:
5678:Core/Inc/../../Drivers/CMSIS/DSP/Include/arm_math.h ****     {
 1528              		.loc 2 5678 14 is_stmt 1 view .LVU443
 1529 019c 6AB1     		cbz	r2, .L142
5681:Core/Inc/../../Drivers/CMSIS/DSP/Include/arm_math.h **** 
 1530              		.loc 2 5681 7 view .LVU444
5681:Core/Inc/../../Drivers/CMSIS/DSP/Include/arm_math.h **** 
 1531              		.loc 2 5681 24 is_stmt 0 view .LVU445
 1532 019e 34F91310 		ldrsh	r1, [r4, r3, lsl #1]
5681:Core/Inc/../../Drivers/CMSIS/DSP/Include/arm_math.h **** 
 1533              		.loc 2 5681 12 view .LVU446
 1534 01a2 20F8021B 		strh	r1, [r0], #2	@ movhi
 1535              	.LVL159:
ARM GAS  /var/folders/n6/c271nzx11xl4r4_m7sqjlt0m0000gn/T//ccGo3Vqh.s 			page 137


5684:Core/Inc/../../Drivers/CMSIS/DSP/Include/arm_math.h **** 
 1536              		.loc 2 5684 7 is_stmt 1 view .LVU447
5686:Core/Inc/../../Drivers/CMSIS/DSP/Include/arm_math.h ****       {
 1537              		.loc 2 5686 7 view .LVU448
5686:Core/Inc/../../Drivers/CMSIS/DSP/Include/arm_math.h ****       {
 1538              		.loc 2 5686 10 is_stmt 0 view .LVU449
 1539 01a6 5149     		ldr	r1, .L147+12
 1540              	.LVL160:
5686:Core/Inc/../../Drivers/CMSIS/DSP/Include/arm_math.h ****       {
 1541              		.loc 2 5686 10 view .LVU450
 1542 01a8 8842     		cmp	r0, r1
 1543 01aa F2D0     		beq	.L143
 1544              	.LVL161:
 1545              	.L121:
5692:Core/Inc/../../Drivers/CMSIS/DSP/Include/arm_math.h **** 
 1546              		.loc 2 5692 7 is_stmt 1 view .LVU451
5692:Core/Inc/../../Drivers/CMSIS/DSP/Include/arm_math.h **** 
 1547              		.loc 2 5692 15 is_stmt 0 view .LVU452
 1548 01ac 991C     		adds	r1, r3, #2
 1549              	.LVL162:
5694:Core/Inc/../../Drivers/CMSIS/DSP/Include/arm_math.h ****       {
 1550              		.loc 2 5694 7 is_stmt 1 view .LVU453
5694:Core/Inc/../../Drivers/CMSIS/DSP/Include/arm_math.h ****       {
 1551              		.loc 2 5694 10 is_stmt 0 view .LVU454
 1552 01ae B1F5805F 		cmp	r1, #4096
 1553 01b2 F1DB     		blt	.L122
5696:Core/Inc/../../Drivers/CMSIS/DSP/Include/arm_math.h ****       }
 1554              		.loc 2 5696 9 is_stmt 1 view .LVU455
5696:Core/Inc/../../Drivers/CMSIS/DSP/Include/arm_math.h ****       }
 1555              		.loc 2 5696 17 is_stmt 0 view .LVU456
 1556 01b4 A3F6FE71 		subw	r1, r3, #4094
 1557              	.LVL163:
5696:Core/Inc/../../Drivers/CMSIS/DSP/Include/arm_math.h ****       }
 1558              		.loc 2 5696 17 view .LVU457
 1559 01b8 EEE7     		b	.L122
 1560              	.LVL164:
 1561              	.L142:
 1562              		.loc 2 5704 5 is_stmt 1 view .LVU458
 1563              		.loc 2 5704 17 is_stmt 0 view .LVU459
 1564 01ba 4A4A     		ldr	r2, .L147+4
 1565              	.LVL165:
 1566              		.loc 2 5704 17 view .LVU460
 1567 01bc 1360     		str	r3, [r2]
 1568              	.LVL166:
 1569              		.loc 2 5704 17 view .LVU461
 1570              	.LBE39:
 1571              	.LBE38:
 270:Core/Src/filtrage.c ****         FFT_Calculation(tmp_buf_2, tmp_buf_1);
 1572              		.loc 1 270 9 is_stmt 1 view .LVU462
 1573 01be 4C4E     		ldr	r6, .L147+16
 1574 01c0 0023     		movs	r3, #0
 1575 01c2 4FF48062 		mov	r2, #1024
 1576 01c6 4849     		ldr	r1, .L147+8
 1577 01c8 3046     		mov	r0, r6
 1578 01ca FFF7FEFF 		bl	Hanning_window
 1579              	.LVL167:
 271:Core/Src/filtrage.c ****         DSE_Calculation(tmp_buf_1, tmp_buf_2);
ARM GAS  /var/folders/n6/c271nzx11xl4r4_m7sqjlt0m0000gn/T//ccGo3Vqh.s 			page 138


 1580              		.loc 1 271 9 view .LVU463
 1581 01ce 494D     		ldr	r5, .L147+20
 1582 01d0 3146     		mov	r1, r6
 1583 01d2 2846     		mov	r0, r5
 1584 01d4 FFF7FEFF 		bl	FFT_Calculation
 1585              	.LVL168:
 272:Core/Src/filtrage.c ****         MEL_Calculation(&pOut[mel_indice * N_MELS], tmp_buf_1);
 1586              		.loc 1 272 9 view .LVU464
 1587 01d8 2946     		mov	r1, r5
 1588 01da 3046     		mov	r0, r6
 1589 01dc FFF7FEFF 		bl	DSE_Calculation
 1590              	.LVL169:
 273:Core/Src/filtrage.c ****         ZScore_Calculation(&pOut[mel_indice * N_MELS], N_MELS);
 1591              		.loc 1 273 9 view .LVU465
 273:Core/Src/filtrage.c ****         ZScore_Calculation(&pOut[mel_indice * N_MELS], N_MELS);
 1592              		.loc 1 273 30 is_stmt 0 view .LVU466
 1593 01e0 454D     		ldr	r5, .L147+24
 1594 01e2 2878     		ldrb	r0, [r5]	@ zero_extendqisi2
 1595 01e4 C0EB0010 		rsb	r0, r0, r0, lsl #4
 273:Core/Src/filtrage.c ****         ZScore_Calculation(&pOut[mel_indice * N_MELS], N_MELS);
 1596              		.loc 1 273 9 view .LVU467
 1597 01e8 3146     		mov	r1, r6
 1598 01ea 08EBC000 		add	r0, r8, r0, lsl #3
 1599 01ee FFF7FEFF 		bl	MEL_Calculation
 1600              	.LVL170:
 274:Core/Src/filtrage.c ****         mel_indice++;
 1601              		.loc 1 274 9 is_stmt 1 view .LVU468
 274:Core/Src/filtrage.c ****         mel_indice++;
 1602              		.loc 1 274 33 is_stmt 0 view .LVU469
 1603 01f2 2878     		ldrb	r0, [r5]	@ zero_extendqisi2
 1604 01f4 C0EB0010 		rsb	r0, r0, r0, lsl #4
 274:Core/Src/filtrage.c ****         mel_indice++;
 1605              		.loc 1 274 9 view .LVU470
 1606 01f8 1E21     		movs	r1, #30
 1607 01fa 08EBC000 		add	r0, r8, r0, lsl #3
 1608 01fe FFF7FEFF 		bl	ZScore_Calculation
 1609              	.LVL171:
 275:Core/Src/filtrage.c **** 
 1610              		.loc 1 275 9 is_stmt 1 view .LVU471
 275:Core/Src/filtrage.c **** 
 1611              		.loc 1 275 19 is_stmt 0 view .LVU472
 1612 0202 2B78     		ldrb	r3, [r5]	@ zero_extendqisi2
 1613 0204 0133     		adds	r3, r3, #1
 1614 0206 DBB2     		uxtb	r3, r3
 1615 0208 2B70     		strb	r3, [r5]
 277:Core/Src/filtrage.c ****         {
 1616              		.loc 1 277 9 is_stmt 1 view .LVU473
 277:Core/Src/filtrage.c ****         {
 1617              		.loc 1 277 12 is_stmt 0 view .LVU474
 1618 020a 202B     		cmp	r3, #32
 1619 020c 07D0     		beq	.L144
 286:Core/Src/filtrage.c ****         arm_circularRead_q15(pIn, STEREO_RECORD_BUFFER_SIZE, &cReadIndex, 2, rawPCMdata, &distIndex
 1620              		.loc 1 286 9 is_stmt 1 view .LVU475
 286:Core/Src/filtrage.c ****         arm_circularRead_q15(pIn, STEREO_RECORD_BUFFER_SIZE, &cReadIndex, 2, rawPCMdata, &distIndex
 1621              		.loc 1 286 20 is_stmt 0 view .LVU476
 1622 020e 4FF40063 		mov	r3, #2048
 1623 0212 344A     		ldr	r2, .L147+4
ARM GAS  /var/folders/n6/c271nzx11xl4r4_m7sqjlt0m0000gn/T//ccGo3Vqh.s 			page 139


 1624 0214 1360     		str	r3, [r2]
 287:Core/Src/filtrage.c **** 
 1625              		.loc 1 287 9 is_stmt 1 view .LVU477
 1626              	.LVL172:
 1627              	.LBB40:
 1628              	.LBI40:
5655:Core/Inc/../../Drivers/CMSIS/DSP/Include/arm_math.h ****       q15_t *circBuffer,
 1629              		.loc 2 5655 37 view .LVU478
 1630              	.LBB41:
5666:Core/Inc/../../Drivers/CMSIS/DSP/Include/arm_math.h ****     int32_t rOffset, dst_end;
 1631              		.loc 2 5666 5 view .LVU479
5667:Core/Inc/../../Drivers/CMSIS/DSP/Include/arm_math.h **** 
 1632              		.loc 2 5667 5 view .LVU480
5671:Core/Inc/../../Drivers/CMSIS/DSP/Include/arm_math.h **** 
 1633              		.loc 2 5671 5 view .LVU481
5673:Core/Inc/../../Drivers/CMSIS/DSP/Include/arm_math.h **** 
 1634              		.loc 2 5673 5 view .LVU482
5676:Core/Inc/../../Drivers/CMSIS/DSP/Include/arm_math.h **** 
 1635              		.loc 2 5676 5 view .LVU483
5678:Core/Inc/../../Drivers/CMSIS/DSP/Include/arm_math.h ****     {
 1636              		.loc 2 5678 5 view .LVU484
5676:Core/Inc/../../Drivers/CMSIS/DSP/Include/arm_math.h **** 
 1637              		.loc 2 5676 7 is_stmt 0 view .LVU485
 1638 0216 4FF48060 		mov	r0, #1024
5678:Core/Inc/../../Drivers/CMSIS/DSP/Include/arm_math.h ****     {
 1639              		.loc 2 5678 11 view .LVU486
 1640 021a 3349     		ldr	r1, .L147+8
 1641 021c 1AE0     		b	.L125
 1642              	.LVL173:
 1643              	.L144:
5678:Core/Inc/../../Drivers/CMSIS/DSP/Include/arm_math.h ****     {
 1644              		.loc 2 5678 11 view .LVU487
 1645              	.LBE41:
 1646              	.LBE40:
 279:Core/Src/filtrage.c ****             arm_copy_q15(&rawPCMdata[FILTRAGE_SIZE / 2], &sd_wav_cache[FILTRAGE_SIZE * wav_indice],
 1647              		.loc 1 279 13 is_stmt 1 view .LVU488
 279:Core/Src/filtrage.c ****             arm_copy_q15(&rawPCMdata[FILTRAGE_SIZE / 2], &sd_wav_cache[FILTRAGE_SIZE * wav_indice],
 1648              		.loc 1 279 24 is_stmt 0 view .LVU489
 1649 021e 0025     		movs	r5, #0
 1650 0220 354B     		ldr	r3, .L147+24
 1651 0222 1D70     		strb	r5, [r3]
 280:Core/Src/filtrage.c ****             WriteWAVFile((uint8_t *)sd_wav_cache, sizeof(sd_wav_cache), END_WAV_FILE);
 1652              		.loc 1 280 13 is_stmt 1 view .LVU490
 280:Core/Src/filtrage.c ****             WriteWAVFile((uint8_t *)sd_wav_cache, sizeof(sd_wav_cache), END_WAV_FILE);
 1653              		.loc 1 280 86 is_stmt 0 view .LVU491
 1654 0224 354C     		ldr	r4, .L147+28
 1655              	.LVL174:
 280:Core/Src/filtrage.c ****             WriteWAVFile((uint8_t *)sd_wav_cache, sizeof(sd_wav_cache), END_WAV_FILE);
 1656              		.loc 1 280 86 view .LVU492
 1657 0226 2168     		ldr	r1, [r4]
 280:Core/Src/filtrage.c ****             WriteWAVFile((uint8_t *)sd_wav_cache, sizeof(sd_wav_cache), END_WAV_FILE);
 1658              		.loc 1 280 58 view .LVU493
 1659 0228 354E     		ldr	r6, .L147+32
 280:Core/Src/filtrage.c ****             WriteWAVFile((uint8_t *)sd_wav_cache, sizeof(sd_wav_cache), END_WAV_FILE);
 1660              		.loc 1 280 13 view .LVU494
 1661 022a 4FF40072 		mov	r2, #512
 1662 022e 06EBC121 		add	r1, r6, r1, lsl #11
ARM GAS  /var/folders/n6/c271nzx11xl4r4_m7sqjlt0m0000gn/T//ccGo3Vqh.s 			page 140


 1663 0232 3448     		ldr	r0, .L147+36
 1664 0234 FFF7FEFF 		bl	arm_copy_q15
 1665              	.LVL175:
 281:Core/Src/filtrage.c ****             wav_indice = 0;
 1666              		.loc 1 281 13 is_stmt 1 view .LVU495
 1667 0238 0122     		movs	r2, #1
 1668 023a 4FF48431 		mov	r1, #67584
 1669 023e 3046     		mov	r0, r6
 1670 0240 FFF7FEFF 		bl	WriteWAVFile
 1671              	.LVL176:
 282:Core/Src/filtrage.c ****             return FEATURE_EXPORT_OK;
 1672              		.loc 1 282 13 view .LVU496
 282:Core/Src/filtrage.c ****             return FEATURE_EXPORT_OK;
 1673              		.loc 1 282 24 is_stmt 0 view .LVU497
 1674 0244 2560     		str	r5, [r4]
 283:Core/Src/filtrage.c ****         }
 1675              		.loc 1 283 13 is_stmt 1 view .LVU498
 283:Core/Src/filtrage.c ****         }
 1676              		.loc 1 283 20 is_stmt 0 view .LVU499
 1677 0246 3846     		mov	r0, r7
 1678 0248 E5E6     		b	.L115
 1679              	.LVL177:
 1680              	.L146:
 1681              	.LBB43:
 1682              	.LBB42:
5688:Core/Inc/../../Drivers/CMSIS/DSP/Include/arm_math.h ****       }
 1683              		.loc 2 5688 13 view .LVU500
 1684 024a A2F50061 		sub	r1, r2, #2048
 1685              	.LVL178:
5688:Core/Inc/../../Drivers/CMSIS/DSP/Include/arm_math.h ****       }
 1686              		.loc 2 5688 13 view .LVU501
 1687 024e 09E0     		b	.L126
 1688              	.LVL179:
 1689              	.L127:
5700:Core/Inc/../../Drivers/CMSIS/DSP/Include/arm_math.h ****     }
 1690              		.loc 2 5700 7 is_stmt 1 view .LVU502
5700:Core/Inc/../../Drivers/CMSIS/DSP/Include/arm_math.h ****     }
 1691              		.loc 2 5700 8 is_stmt 0 view .LVU503
 1692 0250 0138     		subs	r0, r0, #1
 1693              	.LVL180:
5700:Core/Inc/../../Drivers/CMSIS/DSP/Include/arm_math.h ****     }
 1694              		.loc 2 5700 8 view .LVU504
 1695 0252 1346     		mov	r3, r2
 1696              	.LVL181:
 1697              	.L125:
5678:Core/Inc/../../Drivers/CMSIS/DSP/Include/arm_math.h ****     {
 1698              		.loc 2 5678 14 is_stmt 1 view .LVU505
 1699 0254 68B1     		cbz	r0, .L145
5681:Core/Inc/../../Drivers/CMSIS/DSP/Include/arm_math.h **** 
 1700              		.loc 2 5681 7 view .LVU506
5681:Core/Inc/../../Drivers/CMSIS/DSP/Include/arm_math.h **** 
 1701              		.loc 2 5681 24 is_stmt 0 view .LVU507
 1702 0256 34F91320 		ldrsh	r2, [r4, r3, lsl #1]
5681:Core/Inc/../../Drivers/CMSIS/DSP/Include/arm_math.h **** 
 1703              		.loc 2 5681 12 view .LVU508
 1704 025a 21F8022B 		strh	r2, [r1], #2	@ movhi
 1705              	.LVL182:
ARM GAS  /var/folders/n6/c271nzx11xl4r4_m7sqjlt0m0000gn/T//ccGo3Vqh.s 			page 141


5684:Core/Inc/../../Drivers/CMSIS/DSP/Include/arm_math.h **** 
 1706              		.loc 2 5684 7 is_stmt 1 view .LVU509
5686:Core/Inc/../../Drivers/CMSIS/DSP/Include/arm_math.h ****       {
 1707              		.loc 2 5686 7 view .LVU510
5686:Core/Inc/../../Drivers/CMSIS/DSP/Include/arm_math.h ****       {
 1708              		.loc 2 5686 10 is_stmt 0 view .LVU511
 1709 025e 234A     		ldr	r2, .L147+12
 1710              	.LVL183:
5686:Core/Inc/../../Drivers/CMSIS/DSP/Include/arm_math.h ****       {
 1711              		.loc 2 5686 10 view .LVU512
 1712 0260 9142     		cmp	r1, r2
 1713 0262 F2D0     		beq	.L146
 1714              	.LVL184:
 1715              	.L126:
5692:Core/Inc/../../Drivers/CMSIS/DSP/Include/arm_math.h **** 
 1716              		.loc 2 5692 7 is_stmt 1 view .LVU513
5692:Core/Inc/../../Drivers/CMSIS/DSP/Include/arm_math.h **** 
 1717              		.loc 2 5692 15 is_stmt 0 view .LVU514
 1718 0264 9A1C     		adds	r2, r3, #2
 1719              	.LVL185:
5694:Core/Inc/../../Drivers/CMSIS/DSP/Include/arm_math.h ****       {
 1720              		.loc 2 5694 7 is_stmt 1 view .LVU515
5694:Core/Inc/../../Drivers/CMSIS/DSP/Include/arm_math.h ****       {
 1721              		.loc 2 5694 10 is_stmt 0 view .LVU516
 1722 0266 B2F5805F 		cmp	r2, #4096
 1723 026a F1DB     		blt	.L127
5696:Core/Inc/../../Drivers/CMSIS/DSP/Include/arm_math.h ****       }
 1724              		.loc 2 5696 9 is_stmt 1 view .LVU517
5696:Core/Inc/../../Drivers/CMSIS/DSP/Include/arm_math.h ****       }
 1725              		.loc 2 5696 17 is_stmt 0 view .LVU518
 1726 026c A3F6FE72 		subw	r2, r3, #4094
 1727              	.LVL186:
5696:Core/Inc/../../Drivers/CMSIS/DSP/Include/arm_math.h ****       }
 1728              		.loc 2 5696 17 view .LVU519
 1729 0270 EEE7     		b	.L127
 1730              	.LVL187:
 1731              	.L145:
 1732              		.loc 2 5704 5 is_stmt 1 view .LVU520
 1733              		.loc 2 5704 17 is_stmt 0 view .LVU521
 1734 0272 1C4A     		ldr	r2, .L147+4
 1735 0274 1360     		str	r3, [r2]
 1736              	.LVL188:
 1737              		.loc 2 5704 17 view .LVU522
 1738              	.LBE42:
 1739              	.LBE43:
 289:Core/Src/filtrage.c ****         FFT_Calculation(tmp_buf_2, tmp_buf_1);
 1740              		.loc 1 289 9 is_stmt 1 view .LVU523
 1741 0276 1C4E     		ldr	r6, .L147+8
 1742 0278 1D4D     		ldr	r5, .L147+16
 1743 027a 0023     		movs	r3, #0
 1744 027c 4FF48062 		mov	r2, #1024
 1745 0280 3146     		mov	r1, r6
 1746 0282 2846     		mov	r0, r5
 1747 0284 FFF7FEFF 		bl	Hanning_window
 1748              	.LVL189:
 290:Core/Src/filtrage.c ****         DSE_Calculation(tmp_buf_1, tmp_buf_2);
 1749              		.loc 1 290 9 view .LVU524
ARM GAS  /var/folders/n6/c271nzx11xl4r4_m7sqjlt0m0000gn/T//ccGo3Vqh.s 			page 142


 1750 0288 1A4C     		ldr	r4, .L147+20
 1751              	.LVL190:
 290:Core/Src/filtrage.c ****         DSE_Calculation(tmp_buf_1, tmp_buf_2);
 1752              		.loc 1 290 9 is_stmt 0 view .LVU525
 1753 028a 2946     		mov	r1, r5
 1754 028c 2046     		mov	r0, r4
 1755 028e FFF7FEFF 		bl	FFT_Calculation
 1756              	.LVL191:
 291:Core/Src/filtrage.c ****         MEL_Calculation(&pOut[mel_indice * N_MELS], tmp_buf_1);
 1757              		.loc 1 291 9 is_stmt 1 view .LVU526
 1758 0292 2146     		mov	r1, r4
 1759 0294 2846     		mov	r0, r5
 1760 0296 FFF7FEFF 		bl	DSE_Calculation
 1761              	.LVL192:
 292:Core/Src/filtrage.c ****         ZScore_Calculation(&pOut[mel_indice * N_MELS], N_MELS);
 1762              		.loc 1 292 9 view .LVU527
 292:Core/Src/filtrage.c ****         ZScore_Calculation(&pOut[mel_indice * N_MELS], N_MELS);
 1763              		.loc 1 292 30 is_stmt 0 view .LVU528
 1764 029a 174C     		ldr	r4, .L147+24
 1765 029c 2078     		ldrb	r0, [r4]	@ zero_extendqisi2
 1766 029e C0EB0010 		rsb	r0, r0, r0, lsl #4
 292:Core/Src/filtrage.c ****         ZScore_Calculation(&pOut[mel_indice * N_MELS], N_MELS);
 1767              		.loc 1 292 9 view .LVU529
 1768 02a2 2946     		mov	r1, r5
 1769 02a4 08EBC000 		add	r0, r8, r0, lsl #3
 1770 02a8 FFF7FEFF 		bl	MEL_Calculation
 1771              	.LVL193:
 293:Core/Src/filtrage.c ****         mel_indice++;
 1772              		.loc 1 293 9 is_stmt 1 view .LVU530
 293:Core/Src/filtrage.c ****         mel_indice++;
 1773              		.loc 1 293 33 is_stmt 0 view .LVU531
 1774 02ac 2078     		ldrb	r0, [r4]	@ zero_extendqisi2
 1775 02ae C0EB0010 		rsb	r0, r0, r0, lsl #4
 293:Core/Src/filtrage.c ****         mel_indice++;
 1776              		.loc 1 293 9 view .LVU532
 1777 02b2 1E21     		movs	r1, #30
 1778 02b4 08EBC000 		add	r0, r8, r0, lsl #3
 1779 02b8 FFF7FEFF 		bl	ZScore_Calculation
 1780              	.LVL194:
 294:Core/Src/filtrage.c ****         arm_copy_q15(rawPCMdata, &sd_wav_cache[FILTRAGE_SIZE * wav_indice++], FILTRAGE_SIZE);
 1781              		.loc 1 294 9 is_stmt 1 view .LVU533
 294:Core/Src/filtrage.c ****         arm_copy_q15(rawPCMdata, &sd_wav_cache[FILTRAGE_SIZE * wav_indice++], FILTRAGE_SIZE);
 1782              		.loc 1 294 19 is_stmt 0 view .LVU534
 1783 02bc 2378     		ldrb	r3, [r4]	@ zero_extendqisi2
 1784 02be 0133     		adds	r3, r3, #1
 1785 02c0 2370     		strb	r3, [r4]
 295:Core/Src/filtrage.c ****     }
 1786              		.loc 1 295 9 is_stmt 1 view .LVU535
 295:Core/Src/filtrage.c ****     }
 1787              		.loc 1 295 74 is_stmt 0 view .LVU536
 1788 02c2 0E4A     		ldr	r2, .L147+28
 1789 02c4 1368     		ldr	r3, [r2]
 1790 02c6 591C     		adds	r1, r3, #1
 1791 02c8 1160     		str	r1, [r2]
 295:Core/Src/filtrage.c ****     }
 1792              		.loc 1 295 9 view .LVU537
 1793 02ca 4FF48062 		mov	r2, #1024
ARM GAS  /var/folders/n6/c271nzx11xl4r4_m7sqjlt0m0000gn/T//ccGo3Vqh.s 			page 143


 1794 02ce 0C49     		ldr	r1, .L147+32
 1795 02d0 01EBC321 		add	r1, r1, r3, lsl #11
 1796 02d4 3046     		mov	r0, r6
 1797 02d6 FFF7FEFF 		bl	arm_copy_q15
 1798              	.LVL195:
 298:Core/Src/filtrage.c **** }
 1799              		.loc 1 298 12 view .LVU538
 1800 02da 0120     		movs	r0, #1
 1801 02dc 9BE6     		b	.L115
 1802              	.L148:
 1803 02de 00BF     		.align	2
 1804              	.L147:
 1805 02e0 00000000 		.word	buffer_run
 1806 02e4 00000000 		.word	cReadIndex
 1807 02e8 00000000 		.word	rawPCMdata
 1808 02ec 00080000 		.word	distIndex+2048
 1809 02f0 00000000 		.word	tmp_buf_1
 1810 02f4 00000000 		.word	tmp_buf_2
 1811 02f8 00000000 		.word	mel_indice
 1812 02fc 00000000 		.word	wav_indice
 1813 0300 00000000 		.word	sd_wav_cache
 1814 0304 00040000 		.word	rawPCMdata+1024
 1815              		.cfi_endproc
 1816              	.LFE187:
 1818              		.section	.text.Feature_Export_Init,"ax",%progbits
 1819              		.align	1
 1820              		.global	Feature_Export_Init
 1821              		.syntax unified
 1822              		.thumb
 1823              		.thumb_func
 1825              	Feature_Export_Init:
 1826              	.LFB188:
 300:Core/Src/filtrage.c **** 
 301:Core/Src/filtrage.c **** uint8_t Feature_Export_Init()
 302:Core/Src/filtrage.c **** {
 1827              		.loc 1 302 1 is_stmt 1 view -0
 1828              		.cfi_startproc
 1829              		@ args = 0, pretend = 0, frame = 0
 1830              		@ frame_needed = 0, uses_anonymous_args = 0
 1831 0000 08B5     		push	{r3, lr}
 1832              		.cfi_def_cfa_offset 8
 1833              		.cfi_offset 3, -8
 1834              		.cfi_offset 14, -4
 303:Core/Src/filtrage.c ****     uint8_t ret = DMA_Config();
 1835              		.loc 1 303 5 view .LVU540
 1836              		.loc 1 303 19 is_stmt 0 view .LVU541
 1837 0002 FFF7FEFF 		bl	DMA_Config
 1838              	.LVL196:
 304:Core/Src/filtrage.c ****     if (ret != FILTER_CALCULATION_OK)
 1839              		.loc 1 304 5 is_stmt 1 view .LVU542
 1840              		.loc 1 304 8 is_stmt 0 view .LVU543
 1841 0006 0128     		cmp	r0, #1
 1842 0008 00D0     		beq	.L152
 1843              	.LVL197:
 1844              	.L150:
 305:Core/Src/filtrage.c ****     {
 306:Core/Src/filtrage.c ****         return ret;
ARM GAS  /var/folders/n6/c271nzx11xl4r4_m7sqjlt0m0000gn/T//ccGo3Vqh.s 			page 144


 307:Core/Src/filtrage.c ****     }
 308:Core/Src/filtrage.c ****     return FFT_init(FILTRAGE_SIZE);
 309:Core/Src/filtrage.c **** }
 1845              		.loc 1 309 1 view .LVU544
 1846 000a 08BD     		pop	{r3, pc}
 1847              	.LVL198:
 1848              	.L152:
 308:Core/Src/filtrage.c **** }
 1849              		.loc 1 308 5 is_stmt 1 view .LVU545
 308:Core/Src/filtrage.c **** }
 1850              		.loc 1 308 12 is_stmt 0 view .LVU546
 1851 000c 4FF48060 		mov	r0, #1024
 1852              	.LVL199:
 308:Core/Src/filtrage.c **** }
 1853              		.loc 1 308 12 view .LVU547
 1854 0010 FFF7FEFF 		bl	FFT_init
 1855              	.LVL200:
 1856 0014 F9E7     		b	.L150
 1857              		.cfi_endproc
 1858              	.LFE188:
 1860              		.global	wav_indice
 1861              		.section	.bss.wav_indice,"aw",%nobits
 1862              		.align	2
 1865              	wav_indice:
 1866 0000 00000000 		.space	4
 1867              		.global	mel_indice
 1868              		.section	.bss.mel_indice,"aw",%nobits
 1871              	mel_indice:
 1872 0000 00       		.space	1
 1873              		.global	buffer_run
 1874              		.section	.data.buffer_run,"aw"
 1877              	buffer_run:
 1878 0000 01       		.byte	1
 1879              		.global	tmp_buf_2
 1880              		.section	.bss.tmp_buf_2,"aw",%nobits
 1881              		.align	2
 1884              	tmp_buf_2:
 1885 0000 00000000 		.space	4096
 1885      00000000 
 1885      00000000 
 1885      00000000 
 1885      00000000 
 1886              		.global	tmp_buf_1
 1887              		.section	.bss.tmp_buf_1,"aw",%nobits
 1888              		.align	2
 1891              	tmp_buf_1:
 1892 0000 00000000 		.space	4096
 1892      00000000 
 1892      00000000 
 1892      00000000 
 1892      00000000 
 1893              		.global	sd_wav_cache
 1894              		.section	.bss.sd_wav_cache,"aw",%nobits
 1895              		.align	2
 1898              	sd_wav_cache:
 1899 0000 00000000 		.space	67584
 1899      00000000 
ARM GAS  /var/folders/n6/c271nzx11xl4r4_m7sqjlt0m0000gn/T//ccGo3Vqh.s 			page 145


 1899      00000000 
 1899      00000000 
 1899      00000000 
 1900              		.global	rawPCMdata
 1901              		.section	.bss.rawPCMdata,"aw",%nobits
 1902              		.align	2
 1905              	rawPCMdata:
 1906 0000 00000000 		.space	2048
 1906      00000000 
 1906      00000000 
 1906      00000000 
 1906      00000000 
 1907              		.global	distIndex
 1908              		.section	.bss.distIndex,"aw",%nobits
 1909              		.align	1
 1912              	distIndex:
 1913 0000 0000     		.space	2
 1914              		.global	cReadIndex
 1915              		.section	.data.cReadIndex,"aw"
 1916              		.align	2
 1919              	cReadIndex:
 1920 0000 00040000 		.word	1024
 1921              		.global	FFT_struct
 1922              		.section	.bss.FFT_struct,"aw",%nobits
 1923              		.align	2
 1926              	FFT_struct:
 1927 0000 00000000 		.space	24
 1927      00000000 
 1927      00000000 
 1927      00000000 
 1927      00000000 
 1928              		.global	hdma_memtomem_dma2_stream2
 1929              		.section	.bss.hdma_memtomem_dma2_stream2,"aw",%nobits
 1930              		.align	2
 1933              	hdma_memtomem_dma2_stream2:
 1934 0000 00000000 		.space	96
 1934      00000000 
 1934      00000000 
 1934      00000000 
 1934      00000000 
 1935              		.global	mel_filters_num_non_zero
 1936              		.section	.rodata.mel_filters_num_non_zero,"a"
 1937              		.align	2
 1940              	mel_filters_num_non_zero:
 1941 0000 0C0C0C0D 		.ascii	"\014\014\014\015\015\014\014\015\015\014\016\020\020"
 1941      0D0C0C0D 
 1941      0D0C0E10 
 1941      10
 1942 000d 12151719 		.ascii	"\022\025\027\031\034\037\"&*.39>DLU]"
 1942      1C1F2226 
 1942      2A2E3339 
 1942      3E444C55 
 1942      5D
 1943              		.global	mel_filters_zeros_before
 1944              		.section	.rodata.mel_filters_zeros_before,"a"
 1945              		.align	2
 1948              	mel_filters_zeros_before:
ARM GAS  /var/folders/n6/c271nzx11xl4r4_m7sqjlt0m0000gn/T//ccGo3Vqh.s 			page 146


 1949 0000 0100     		.short	1
 1950 0002 0700     		.short	7
 1951 0004 0D00     		.short	13
 1952 0006 1300     		.short	19
 1953 0008 1900     		.short	25
 1954 000a 2000     		.short	32
 1955 000c 2600     		.short	38
 1956 000e 2C00     		.short	44
 1957 0010 3200     		.short	50
 1958 0012 3900     		.short	57
 1959 0014 3F00     		.short	63
 1960 0016 4500     		.short	69
 1961 0018 4D00     		.short	77
 1962 001a 5500     		.short	85
 1963 001c 5D00     		.short	93
 1964 001e 6700     		.short	103
 1965 0020 7200     		.short	114
 1966 0022 7E00     		.short	126
 1967 0024 8B00     		.short	139
 1968 0026 9A00     		.short	154
 1969 0028 AA00     		.short	170
 1970 002a BC00     		.short	188
 1971 002c D000     		.short	208
 1972 002e E600     		.short	230
 1973 0030 FE00     		.short	254
 1974 0032 1901     		.short	281
 1975 0034 3701     		.short	311
 1976 0036 5701     		.short	343
 1977 0038 7B01     		.short	379
 1978 003a A301     		.short	419
 1979              		.global	mel_filters_non_zero_data
 1980              		.section	.rodata.mel_filters_non_zero_data,"a"
 1981              		.align	2
 1984              	mel_filters_non_zero_data:
 1985 0000 6686D337 		.word	936609382
 1986 0004 66865338 		.word	944997990
 1987 0008 CCA49E38 		.word	949920972
 1988 000c 6686D338 		.word	953386598
 1989 0010 00340439 		.word	956576768
 1990 0014 CCA41E39 		.word	958309580
 1991 0018 DE391039 		.word	957364702
 1992 001c 2392EB38 		.word	954962467
 1993 0020 89B0B638 		.word	951496841
 1994 0024 EFCE8138 		.word	948031215
 1995 0028 ACDA1938 		.word	941218476
 1996 002c E25D4037 		.word	926965218
 1997 0030 EE6EA337 		.word	933457646
 1998 0034 A97A3B38 		.word	943422121
 1999 0038 EF9E9238 		.word	949133039
 2000 003c 8880C738 		.word	952598664
 2001 0040 2162FC38 		.word	956064289
 2002 0044 DDA11839 		.word	957915613
 2003 0048 CD3C1639 		.word	957758669
 2004 004c 0198F738 		.word	955750401
 2005 0050 67B6C238 		.word	952284775
 2006 0054 CDD48D38 		.word	948819149
 2007 0058 68E63138 		.word	942794344
ARM GAS  /var/folders/n6/c271nzx11xl4r4_m7sqjlt0m0000gn/T//ccGo3Vqh.s 			page 147


 2008 005c 69469037 		.word	932202089
 2009 0060 EBAE6637 		.word	929476331
 2010 0064 EE6E2338 		.word	941846254
 2011 0068 11998638 		.word	948345105
 2012 006c A97ABB38 		.word	951810729
 2013 0070 435CF038 		.word	955276355
 2014 0074 EF9E1239 		.word	957521647
 2015 0078 BC3F1C39 		.word	958152636
 2016 007c EFCE0139 		.word	956419823
 2017 0080 45BCCE38 		.word	953072709
 2018 0084 ACDA9938 		.word	949607084
 2019 0088 25F24938 		.word	944370213
 2020 008c E25DC037 		.word	935353826
 2021 0090 CB060637 		.word	923141835
 2022 0094 9BE50A38 		.word	940238235
 2023 0098 84497438 		.word	947145092
 2024 009c B7D6AE38 		.word	950982327
 2025 00a0 AB88E338 		.word	954435755
 2026 00a4 501D0C39 		.word	957095248
 2027 00a8 79B02139 		.word	958509177
 2028 00ac 7F570739 		.word	956782463
 2029 00b0 0AFDD938 		.word	953810186
 2030 00b4 154BA538 		.word	950356757
 2031 00b8 42326138 		.word	945893954
 2032 00bc B39CEF37 		.word	938450099
 2033 00c0 15A76636 		.word	912697109
 2034 00c4 97E81836 		.word	907602071
 2035 00c8 2125E637 		.word	937829665
 2036 00cc 98965C38 		.word	945591960
 2037 00d0 4F0DA338 		.word	950209871
 2038 00d4 53CFD738 		.word	953667411
 2039 00d8 AB480639 		.word	956713131
 2040 00dc ADA92039 		.word	958441901
 2041 00e0 16800D39 		.word	957186070
 2042 00e4 293EE638 		.word	954613289
 2043 00e8 257CB138 		.word	951155749
 2044 00ec 43747938 		.word	947483715
 2045 00f0 3DF00F38 		.word	940568637
 2046 00f4 D6B01937 		.word	924430550
 2047 00f8 7297B637 		.word	934713202
 2048 00fc EC0E4538 		.word	944049900
 2049 0100 0F699738 		.word	949446927
 2050 0104 A94ACC38 		.word	952912553
 2051 0108 21960039 		.word	956339745
 2052 010c EE061B39 		.word	958072558
 2053 0110 BCD71339 		.word	957601724
 2054 0114 DFCDF238 		.word	955436511
 2055 0118 46ECBD38 		.word	951970886
 2056 011c AC0A8938 		.word	948505260
 2057 0120 26522838 		.word	942166566
 2058 0124 CA3B7A37 		.word	930757578
 2059 0128 FA7F8637 		.word	931561466
 2060 012c 2F032D38 		.word	942474031
 2061 0130 31638B38 		.word	948658993
 2062 0134 CB44C038 		.word	952124619
 2063 0138 6426F538 		.word	955590244
 2064 013c FF031539 		.word	957678591
ARM GAS  /var/folders/n6/c271nzx11xl4r4_m7sqjlt0m0000gn/T//ccGo3Vqh.s 			page 148


 2065 0140 ACDA1939 		.word	957995692
 2066 0144 BED3FE38 		.word	956224446
 2067 0148 24F2C938 		.word	952758820
 2068 014c 8A109538 		.word	949293194
 2069 0150 E25D4038 		.word	943742434
 2070 0154 5D35AD37 		.word	934098269
 2071 0158 479C2C37 		.word	925670471
 2072 015c 00CA1438 		.word	940886528
 2073 0160 EF6C7E38 		.word	947809519
 2074 0164 EE07B438 		.word	951322606
 2075 0168 65D9E838 		.word	954784101
 2076 016c 6ED50E39 		.word	957273454
 2077 0170 D4AC1F39 		.word	958377172
 2078 0174 19440539 		.word	956646425
 2079 0178 B9B6D538 		.word	953530041
 2080 017c 42E5A038 		.word	950068546
 2081 0180 97275838 		.word	945301399
 2082 0184 5109DD37 		.word	937232721
 2083 0188 45379C35 		.word	899430213
 2084 018c 788D9836 		.word	915967352
 2085 0190 ABADF837 		.word	939044267
 2086 0194 FC9B6538 		.word	946183164
 2087 0198 9270A738 		.word	950497426
 2088 019c 2513DC38 		.word	953946917
 2089 01a0 DC5A0839 		.word	956848860
 2090 01a4 25AC2239 		.word	958573605
 2091 01a8 8EC90A39 		.word	957008270
 2092 01ac 88F0E038 		.word	954265736
 2093 01b0 F54DAC38 		.word	950816245
 2094 01b4 C4566F38 		.word	946820804
 2095 01b8 9F110638 		.word	939921823
 2096 01bc C363E636 		.word	921068483
 2097 01c0 7708C537 		.word	935659639
 2098 01c4 6ECE4938 		.word	944361070
 2099 01c8 508C9838 		.word	949521488
 2100 01cc 6A31CC38 		.word	952906090
 2101 01d0 83D6FF38 		.word	956290691
 2102 01d4 CEBD1939 		.word	957988302
 2103 01d8 21F20E39 		.word	957280801
 2104 01dc 58B8EC38 		.word	955037784
 2105 01e0 6D8CBB38 		.word	951815277
 2106 01e4 83608A38 		.word	948592771
 2107 01e8 31693238 		.word	942827825
 2108 01ec B822A037 		.word	933241528
 2109 01f0 6CDB8337 		.word	931388268
 2110 01f4 79AF1C38 		.word	941404025
 2111 01f8 3E717738 		.word	947351870
 2112 01fc 8119A938 		.word	950606209
 2113 0200 637AD638 		.word	953580131
 2114 0204 A3ED0139 		.word	956427683
 2115 0208 B99A1039 		.word	957389497
 2116 020c CD58F838 		.word	955799757
 2117 0210 2A7CCF38 		.word	953121834
 2118 0214 869FA638 		.word	950443910
 2119 0218 C5857B38 		.word	947619269
 2120 021c 7DCC2938 		.word	942263421
 2121 0220 6B26B037 		.word	934291051
ARM GAS  /var/folders/n6/c271nzx11xl4r4_m7sqjlt0m0000gn/T//ccGo3Vqh.s 			page 149


 2122 0224 BE3DCB35 		.word	902512062
 2123 0228 04105B36 		.word	911937540
 2124 022c 46BCAE37 		.word	934198342
 2125 0230 460B2138 		.word	941689670
 2126 0234 69B86A38 		.word	946518121
 2127 0238 C6329A38 		.word	949629638
 2128 023c 5709BF38 		.word	952043863
 2129 0240 E9DFE338 		.word	954458089
 2130 0244 3D5B0439 		.word	956586813
 2131 0248 25D8EC38 		.word	955045925
 2132 024c F785CB38 		.word	952862199
 2133 0250 C933AA38 		.word	950678473
 2134 0254 9AE18838 		.word	948494746
 2135 0258 D71E4F38 		.word	944709335
 2136 025c 7A7A0C38 		.word	940341882
 2137 0260 3AAC9337 		.word	932424762
 2138 0264 0C38E635 		.word	904280076
 2139 0268 C4BE5E37 		.word	928956100
 2140 026c 4921E837 		.word	937959753
 2141 0270 99713038 		.word	942698905
 2142 0274 8CD26C38 		.word	946655884
 2143 0278 BF999438 		.word	949262783
 2144 027c 39CAB238 		.word	951241273
 2145 0280 B3FAD038 		.word	953219763
 2146 0284 2D2BEF38 		.word	955198253
 2147 0288 9411DA38 		.word	953815444
 2148 028c FBC2BE38 		.word	952025851
 2149 0290 6374A338 		.word	950236259
 2150 0294 CA258838 		.word	948446666
 2151 0298 62AE5938 		.word	945401442
 2152 029c 30112338 		.word	941822256
 2153 02a0 FDE7D837 		.word	936962045
 2154 02a4 345B5737 		.word	928471860
 2155 02a8 67E92F37 		.word	925886823
 2156 02ac 5E8EBA37 		.word	934973022
 2157 02b0 04940E38 		.word	940479492
 2158 02b4 D9E03F38 		.word	943710425
 2159 02b8 AF2D7138 		.word	946941359
 2160 02bc 423D9138 		.word	949042498
 2161 02c0 ACE3A938 		.word	950657964
 2162 02c4 178AC238 		.word	952273431
 2163 02c8 F785DA38 		.word	953845239
 2164 02cc 0A3AC438 		.word	952384010
 2165 02d0 1CEEAD38 		.word	950922780
 2166 02d4 30A29738 		.word	949461552
 2167 02d8 42568138 		.word	948000322
 2168 02dc A9145638 		.word	945165481
 2169 02e0 CF7C2938 		.word	942243023
 2170 02e4 E9C9F937 		.word	939117033
 2171 02e8 339AA037 		.word	933272115
 2172 02ec FBD40E37 		.word	923718907
 2173 02f0 65C61234 		.word	873645669
 2174 02f4 4AE92337 		.word	925100362
 2175 02f8 BDC3A237 		.word	933413821
 2176 02fc D592F337 		.word	938709717
 2177 0300 F7302238 		.word	941764855
 2178 0304 82984A38 		.word	944412802
ARM GAS  /var/folders/n6/c271nzx11xl4r4_m7sqjlt0m0000gn/T//ccGo3Vqh.s 			page 150


 2179 0308 0E007338 		.word	947060750
 2180 030c CDB38D38 		.word	948810701
 2181 0310 93E7A138 		.word	950134675
 2182 0314 5A1BB638 		.word	951458650
 2183 0318 8FA4C238 		.word	952280207
 2184 031c 8F5EB038 		.word	951082639
 2185 0320 91189E38 		.word	949885073
 2186 0324 91D28B38 		.word	948687505
 2187 0328 25197338 		.word	947067173
 2188 032c 268D4E38 		.word	944672038
 2189 0330 28012A38 		.word	942276904
 2190 0334 29750538 		.word	939881769
 2191 0338 56D2C137 		.word	935449174
 2192 033c B4747137 		.word	930182324
 2193 0340 7789BE36 		.word	918456695
 2194 0344 49BED235 		.word	903003721
 2195 0348 A68D1E37 		.word	924749222
 2196 034c C1619137 		.word	932274625
 2197 0350 B07CD337 		.word	936606896
 2198 0354 CFCB0A38 		.word	940231631
 2199 0358 46D92B38 		.word	942397766
 2200 035c BEE64C38 		.word	944563902
 2201 0360 34F46D38 		.word	946730036
 2202 0364 D6808738 		.word	948404438
 2203 0368 92079838 		.word	949487506
 2204 036c 4D8EA838 		.word	950570573
 2205 0370 7E1EAE38 		.word	950935166
 2206 0374 B12B9F38 		.word	949955505
 2207 0378 E4389038 		.word	948975844
 2208 037c 16468138 		.word	947996182
 2209 0380 92A66438 		.word	946120338
 2210 0384 F8C04638 		.word	944161016
 2211 0388 5DDB2838 		.word	942201693
 2212 038c C2F50A38 		.word	940242370
 2213 0390 5020DA37 		.word	937042000
 2214 0394 1A559E37 		.word	933123354
 2215 0398 C9134537 		.word	927273929
 2216 039c BEFA9A36 		.word	916126398
 2217 03a0 DFBB1636 		.word	907459551
 2218 03a4 44DF1137 		.word	923918148
 2219 03a8 900F7E37 		.word	931008400
 2220 03ac EE1FB537 		.word	934617070
 2221 03b0 1438EB37 		.word	938162196
 2222 03b4 1DA81038 		.word	940615709
 2223 03b8 30B42B38 		.word	942388272
 2224 03bc 43C04638 		.word	944160835
 2225 03c0 56CC6138 		.word	945933398
 2226 03c4 69D87C38 		.word	947705961
 2227 03c8 3EF28B38 		.word	948695614
 2228 03cc 47789938 		.word	949581895
 2229 03d0 3AED9D38 		.word	949873978
 2230 03d4 BAB19138 		.word	949072314
 2231 03d8 3B768538 		.word	948270651
 2232 03dc 77757238 		.word	947025271
 2233 03e0 78FE5938 		.word	945421944
 2234 03e4 79874138 		.word	943818617
 2235 03e8 7A102938 		.word	942215290
ARM GAS  /var/folders/n6/c271nzx11xl4r4_m7sqjlt0m0000gn/T//ccGo3Vqh.s 			page 151


 2236 03ec 7B991038 		.word	940611963
 2237 03f0 F944F037 		.word	938493177
 2238 03f4 FB56BF37 		.word	935286523
 2239 03f8 FD688E37 		.word	932079869
 2240 03fc 01F63A37 		.word	926610945
 2241 0400 0834B236 		.word	917648392
 2242 0404 B3F8F835 		.word	905509043
 2243 0408 7B0EEF36 		.word	921636475
 2244 040c 65EF4F37 		.word	927985509
 2245 0410 C62B9437 		.word	932457414
 2246 0414 D95FC037 		.word	935354329
 2247 0418 ED93EC37 		.word	938251245
 2248 041c 00640C38 		.word	940336128
 2249 0420 0A7E2238 		.word	941784586
 2250 0424 14983838 		.word	943233044
 2251 0428 1EB24E38 		.word	944681502
 2252 042c 27CC6438 		.word	946129959
 2253 0430 32E67A38 		.word	947578418
 2254 0434 1E808838 		.word	948469790
 2255 0438 F5AA9138 		.word	949070581
 2256 043c 0AAC8738 		.word	948415498
 2257 0440 3D5A7B38 		.word	947608125
 2258 0444 685C6738 		.word	946297960
 2259 0448 925E5338 		.word	944987794
 2260 044c BC603F38 		.word	943677628
 2261 0450 E6622B38 		.word	942367462
 2262 0454 11651738 		.word	941057297
 2263 0458 3B670338 		.word	939747131
 2264 045c CAD2DE37 		.word	937349834
 2265 0460 1FD7B637 		.word	934729503
 2266 0464 73DB8E37 		.word	932109171
 2267 0468 90BF4D37 		.word	927842192
 2268 046c 7190FB36 		.word	922456177
 2269 0470 86433736 		.word	909591430
 2270 0474 F968CF34 		.word	886008057
 2271 0478 8FD09D36 		.word	916312207
 2272 047c 47551737 		.word	924276039
 2273 0480 46C25F37 		.word	929022534
 2274 0484 A3179437 		.word	932452259
 2275 0488 224EB837 		.word	934825506
 2276 048c A284DC37 		.word	937198754
 2277 0490 915D0038 		.word	939548049
 2278 0494 D1781238 		.word	940734673
 2279 0498 11942438 		.word	941921297
 2280 049c 50AF3638 		.word	943107920
 2281 04a0 90CA4838 		.word	944294544
 2282 04a4 D0E55A38 		.word	945481168
 2283 04a8 10016D38 		.word	946667792
 2284 04ac 4F1C7F38 		.word	947854415
 2285 04b0 C23E8138 		.word	947994306
 2286 04b4 D01C7238 		.word	947002576
 2287 04b8 1EBC6138 		.word	945929246
 2288 04bc 6C5B5138 		.word	944855916
 2289 04c0 B9FA4038 		.word	943782585
 2290 04c4 079A3038 		.word	942709255
 2291 04c8 54392038 		.word	941635924
 2292 04cc A1D80F38 		.word	940562593
ARM GAS  /var/folders/n6/c271nzx11xl4r4_m7sqjlt0m0000gn/T//ccGo3Vqh.s 			page 152


 2293 04d0 DEEFFE37 		.word	939454430
 2294 04d4 792EDE37 		.word	937307769
 2295 04d8 146DBD37 		.word	935161108
 2296 04dc AFAB9C37 		.word	933014447
 2297 04e0 94D47737 		.word	930600084
 2298 04e4 CB513637 		.word	926306763
 2299 04e8 019EE936 		.word	921280001
 2300 04ec DA304D36 		.word	911028442
 2301 04f0 BC4DCA35 		.word	902450620
 2302 04f4 2401A936 		.word	917045540
 2303 04f8 6DB70F37 		.word	923776877
 2304 04fc 48EE4A37 		.word	927657544
 2305 0500 91128337 		.word	931336849
 2306 0504 FEADA037 		.word	933277182
 2307 0508 6B49BE37 		.word	935217515
 2308 050c D9E4DB37 		.word	937157849
 2309 0510 4580F937 		.word	939098181
 2310 0514 DA8D0B38 		.word	940281306
 2311 0518 905B1A38 		.word	941251472
 2312 051c 47292938 		.word	942221639
 2313 0520 FEF63738 		.word	943191806
 2314 0524 B4C44638 		.word	944161972
 2315 0528 6B925538 		.word	945132139
 2316 052c 21606438 		.word	946102305
 2317 0530 EB0F6D38 		.word	946671595
 2318 0534 08AC5F38 		.word	945794056
 2319 0538 24485238 		.word	944916516
 2320 053c 41E44438 		.word	944038977
 2321 0540 5D803738 		.word	943161437
 2322 0544 7A1C2A38 		.word	942283898
 2323 0548 96B81C38 		.word	941406358
 2324 054c B2540F38 		.word	940528818
 2325 0550 CEF00138 		.word	939651278
 2326 0554 D619E937 		.word	938023382
 2327 0558 0E52CE37 		.word	936268302
 2328 055c 478AB337 		.word	934513223
 2329 0560 80C29837 		.word	932758144
 2330 0564 72F57B37 		.word	930870642
 2331 0568 E3654637 		.word	927360483
 2332 056c 54D61037 		.word	923850324
 2333 0570 8C8DB636 		.word	917933452
 2334 0574 DEDC1636 		.word	907467998
 2335 0578 C1352835 		.word	891827649
 2336 057c 19E16B36 		.word	913039641
 2337 0580 60DAD636 		.word	920050272
 2338 0584 1BE21B37 		.word	924574235
 2339 0588 05574C37 		.word	927749893
 2340 058c EFCB7C37 		.word	930925551
 2341 0590 6CA09637 		.word	932618348
 2342 0594 E1DAAE37 		.word	934206177
 2343 0598 5715C737 		.word	935794007
 2344 059c CC4FDF37 		.word	937381836
 2345 05a0 408AF737 		.word	938969664
 2346 05a4 5BE20738 		.word	940040795
 2347 05a8 95FF1338 		.word	940834709
 2348 05ac D01C2038 		.word	941628624
 2349 05b0 0A3A2C38 		.word	942422538
ARM GAS  /var/folders/n6/c271nzx11xl4r4_m7sqjlt0m0000gn/T//ccGo3Vqh.s 			page 153


 2350 05b4 45573838 		.word	943216453
 2351 05b8 7F744438 		.word	944010367
 2352 05bc BA915038 		.word	944804282
 2353 05c0 A7DB5538 		.word	945150887
 2354 05c4 84E64A38 		.word	944432772
 2355 05c8 60F13F38 		.word	943714656
 2356 05cc 3EFC3438 		.word	942996542
 2357 05d0 1A072A38 		.word	942278426
 2358 05d4 F7111F38 		.word	941560311
 2359 05d8 D41C1438 		.word	940842196
 2360 05dc B0270938 		.word	940124080
 2361 05e0 1B65FC37 		.word	939287835
 2362 05e4 D47AE637 		.word	937851604
 2363 05e8 8E90D037 		.word	936415374
 2364 05ec 47A6BA37 		.word	934979143
 2365 05f0 00BCA437 		.word	933542912
 2366 05f4 BAD18E37 		.word	932106682
 2367 05f8 E8CE7137 		.word	930205416
 2368 05fc 5AFA4537 		.word	927332954
 2369 0600 CD251A37 		.word	924460493
 2370 0604 81A2DC36 		.word	920429185
 2371 0608 67F98436 		.word	914684263
 2372 060c 3441B535 		.word	901071156
 2373 0610 8DAA3B35 		.word	893102733
 2374 0614 EF814D36 		.word	911049199
 2375 0618 9D0CB636 		.word	917900445
 2376 061c 22AC0237 		.word	922922018
 2377 0620 F5512A37 		.word	925520373
 2378 0624 C7F75137 		.word	928118727
 2379 0628 9B9D7937 		.word	930717083
 2380 062c B7A19037 		.word	932225463
 2381 0630 A074A437 		.word	933524640
 2382 0634 8A47B837 		.word	934823818
 2383 0638 741ACC37 		.word	936122996
 2384 063c 5CEDDF37 		.word	937422172
 2385 0640 46C0F337 		.word	938721350
 2386 0644 98C90338 		.word	939772312
 2387 0648 0CB30D38 		.word	940421900
 2388 064c 819C1738 		.word	941071489
 2389 0650 F6852138 		.word	941721078
 2390 0654 6B6F2B38 		.word	942370667
 2391 0658 E0583538 		.word	943020256
 2392 065c 54423F38 		.word	943669844
 2393 0660 3E0D4038 		.word	943721790
 2394 0664 0D163738 		.word	943134221
 2395 0668 DB1E2E38 		.word	942546651
 2396 066c AA272538 		.word	941959082
 2397 0670 79301C38 		.word	941371513
 2398 0674 48391338 		.word	940783944
 2399 0678 18420A38 		.word	940196376
 2400 067c E74A0138 		.word	939608807
 2401 0680 6BA7F037 		.word	938518379
 2402 0684 08B9DE37 		.word	937343240
 2403 0688 A6CACC37 		.word	936168102
 2404 068c 45DCBA37 		.word	934992965
 2405 0690 E3EDA837 		.word	933817827
 2406 0694 81FF9637 		.word	932642689
ARM GAS  /var/folders/n6/c271nzx11xl4r4_m7sqjlt0m0000gn/T//ccGo3Vqh.s 			page 154


 2407 0698 1E118537 		.word	931467550
 2408 069c 79456637 		.word	929449337
 2409 06a0 B5684237 		.word	927099061
 2410 06a4 F18B1E37 		.word	924748785
 2411 06a8 5A5EF536 		.word	922050138
 2412 06ac D2A4AD36 		.word	917349586
 2413 06b0 93D64B36 		.word	910939795
 2414 06b4 0C8E7135 		.word	896634380
 2415 06b8 24B67A35 		.word	897234468
 2416 06bc BF6C4036 		.word	910191807
 2417 06c0 FA15A136 		.word	916526586
 2418 06c4 96F5E136 		.word	920778134
 2419 06c8 986A1137 		.word	923888280
 2420 06cc 66DA3137 		.word	926014054
 2421 06d0 334A5237 		.word	928139827
 2422 06d4 02BA7237 		.word	930265602
 2423 06d8 E7948937 		.word	931763431
 2424 06dc CECC9937 		.word	932826318
 2425 06e0 B504AA37 		.word	933889205
 2426 06e4 9C3CBA37 		.word	934952092
 2427 06e8 8274CA37 		.word	936014978
 2428 06ec 69ACDA37 		.word	937077865
 2429 06f0 50E4EA37 		.word	938140752
 2430 06f4 381CFB37 		.word	939203640
 2431 06f8 0FAA0538 		.word	939895311
 2432 06fc 02C60D38 		.word	940426754
 2433 0700 F6E11538 		.word	940958198
 2434 0704 E9FD1D38 		.word	941489641
 2435 0708 DC192638 		.word	942021084
 2436 070c CF352E38 		.word	942552527
 2437 0710 7A602D38 		.word	942497914
 2438 0714 BA0A2638 		.word	942017210
 2439 0718 FAB41E38 		.word	941536506
 2440 071c 3B5F1738 		.word	941055803
 2441 0720 7B091038 		.word	940575099
 2442 0724 BBB30838 		.word	940094395
 2443 0728 FC5D0138 		.word	939613692
 2444 072c 7810F437 		.word	938741880
 2445 0730 F864E537 		.word	937780472
 2446 0734 79B9D637 		.word	936819065
 2447 0738 FA0DC837 		.word	935857658
 2448 073c 7B62B937 		.word	934896251
 2449 0740 FCB6AA37 		.word	933934844
 2450 0744 7C0B9C37 		.word	932973436
 2451 0748 FD5F8D37 		.word	932012029
 2452 074c FB687D37 		.word	930965755
 2453 0750 FD116037 		.word	929042941
 2454 0754 FDBA4237 		.word	927120125
 2455 0758 FF632537 		.word	925197311
 2456 075c 010D0837 		.word	923274497
 2457 0760 046CD536 		.word	919956484
 2458 0764 08BE9A36 		.word	916110856
 2459 0768 15204036 		.word	910172181
 2460 076c 36889535 		.word	898992182
 2461 0770 B1DB7535 		.word	896916401
 2462 0774 D09D2736 		.word	908565968
 2463 0778 59E28836 		.word	914940505
ARM GAS  /var/folders/n6/c271nzx11xl4r4_m7sqjlt0m0000gn/T//ccGo3Vqh.s 			page 155


 2464 077c CAF5BD36 		.word	918418890
 2465 0780 3C09F336 		.word	921897276
 2466 0784 570E1437 		.word	924061271
 2467 0788 10982E37 		.word	925800464
 2468 078c C8214937 		.word	927539656
 2469 0790 81AB6337 		.word	929278849
 2470 0794 39357E37 		.word	931018041
 2471 0798 795F8C37 		.word	931946361
 2472 079c 56A49937 		.word	932815958
 2473 07a0 32E9A637 		.word	933685554
 2474 07a4 0F2EB437 		.word	934555151
 2475 07a8 EA72C137 		.word	935424746
 2476 07ac C7B7CE37 		.word	936294343
 2477 07b0 A4FCDB37 		.word	937163940
 2478 07b4 7F41E937 		.word	938033535
 2479 07b8 5C86F637 		.word	938903132
 2480 07bc 9CE50138 		.word	939648412
 2481 07c0 0A880838 		.word	940083210
 2482 07c4 792A0F38 		.word	940518009
 2483 07c8 E6CC1538 		.word	940952806
 2484 07cc 556F1C38 		.word	941387605
 2485 07d0 CA7B1E38 		.word	941521866
 2486 07d4 857B1838 		.word	941128581
 2487 07d8 3F7B1238 		.word	940735295
 2488 07dc FA7A0C38 		.word	940342010
 2489 07e0 B47A0638 		.word	939948724
 2490 07e4 6E7A0038 		.word	939555438
 2491 07e8 50F4F437 		.word	938800208
 2492 07ec C5F3E837 		.word	938013637
 2493 07f0 3AF3DC37 		.word	937227066
 2494 07f4 AFF2D037 		.word	936440495
 2495 07f8 23F2C437 		.word	935653923
 2496 07fc 98F1B837 		.word	934867352
 2497 0800 0DF1AC37 		.word	934080781
 2498 0804 82F0A037 		.word	933294210
 2499 0808 F6EF9437 		.word	932507638
 2500 080c 6BEF8837 		.word	931721067
 2501 0810 BFDD7937 		.word	930733503
 2502 0814 A9DC6137 		.word	929160361
 2503 0818 91DB4937 		.word	927587217
 2504 081c 7BDA3137 		.word	926014075
 2505 0820 64D91937 		.word	924440932
 2506 0824 4ED80137 		.word	922867790
 2507 0828 6EAED336 		.word	919842414
 2508 082c 41ACA336 		.word	916696129
 2509 0830 27546736 		.word	912741415
 2510 0834 CD4F0736 		.word	906448845
 2511 0838 CA2D1D35 		.word	891104714
 2512 083c 7934FC34 		.word	888943737
 2513 0840 8DC7EC35 		.word	904710029
 2514 0844 FD404D36 		.word	911032573
 2515 0848 1A0F9236 		.word	915541786
 2516 084c B57DBD36 		.word	918388149
 2517 0850 50ECE836 		.word	921234512
 2518 0854 762D0A37 		.word	923413878
 2519 0858 C4E41F37 		.word	924837060
 2520 085c 129C3537 		.word	926260242
ARM GAS  /var/folders/n6/c271nzx11xl4r4_m7sqjlt0m0000gn/T//ccGo3Vqh.s 			page 156


 2521 0860 5F534B37 		.word	927683423
 2522 0864 AD0A6137 		.word	929106605
 2523 0868 FAC17637 		.word	930529786
 2524 086c A43C8637 		.word	931544228
 2525 0870 4B189137 		.word	932255819
 2526 0874 F1F39B37 		.word	932967409
 2527 0878 98CFA637 		.word	933679000
 2528 087c 40ABB137 		.word	934390592
 2529 0880 E786BC37 		.word	935102183
 2530 0884 8D62C737 		.word	935813773
 2531 0888 343ED237 		.word	936525364
 2532 088c DB19DD37 		.word	937236955
 2533 0890 82F5E737 		.word	937948546
 2534 0894 28D1F237 		.word	938660136
 2535 0898 CFACFD37 		.word	939371727
 2536 089c 3B440438 		.word	939803707
 2537 08a0 0EB20938 		.word	940159502
 2538 08a4 E21F0F38 		.word	940515298
 2539 08a8 03720E38 		.word	940470787
 2540 08ac E1880938 		.word	940148961
 2541 08b0 C09F0438 		.word	939827136
 2542 08b4 3C6DFF37 		.word	939486524
 2543 08b8 F89AF537 		.word	938842872
 2544 08bc B4C8EB37 		.word	938199220
 2545 08c0 71F6E137 		.word	937555569
 2546 08c4 2D24D837 		.word	936911917
 2547 08c8 EB51CE37 		.word	936268267
 2548 08cc A77FC437 		.word	935624615
 2549 08d0 64ADBA37 		.word	934980964
 2550 08d4 20DBB037 		.word	934337312
 2551 08d8 DD08A737 		.word	933693661
 2552 08dc 99369D37 		.word	933050009
 2553 08e0 56649337 		.word	932406358
 2554 08e4 12928937 		.word	931762706
 2555 08e8 9E7F7F37 		.word	931102622
 2556 08ec 17DB6B37 		.word	929815319
 2557 08f0 90365837 		.word	928528016
 2558 08f4 09924437 		.word	927240713
 2559 08f8 82ED3037 		.word	925953410
 2560 08fc FB481D37 		.word	924666107
 2561 0900 74A40937 		.word	923378804
 2562 0904 DAFFEB36 		.word	921436122
 2563 0908 CDB6C436 		.word	918861517
 2564 090c BF6D9D36 		.word	916286911
 2565 0910 63496C36 		.word	913066339
 2566 0914 48B71D36 		.word	907917128
 2567 0918 584A9E35 		.word	899566168
 2568 091c 5C101332 		.word	840110172
 2569 0920 19E02735 		.word	891805721
 2570 0924 1406E235 		.word	904005140
 2571 0928 0E0E3836 		.word	909643278
 2572 092c 11197F36 		.word	914299153
 2573 0930 0A12A336 		.word	916656650
 2574 0934 8C97C636 		.word	918984588
 2575 0938 0F1DEA36 		.word	921312527
 2576 093c 48D10637 		.word	923193672
 2577 0940 09941837 		.word	924357641
ARM GAS  /var/folders/n6/c271nzx11xl4r4_m7sqjlt0m0000gn/T//ccGo3Vqh.s 			page 157


 2578 0944 CA562A37 		.word	925521610
 2579 0948 8B193C37 		.word	926685579
 2580 094c 4BDC4D37 		.word	927849547
 2581 0950 0C9F5F37 		.word	929013516
 2582 0954 CD617137 		.word	930177485
 2583 0958 47928137 		.word	931238471
 2584 095c A8738A37 		.word	931820456
 2585 0960 08559337 		.word	932402440
 2586 0964 69369C37 		.word	932984425
 2587 0968 C917A537 		.word	933566409
 2588 096c 29F9AD37 		.word	934148393
 2589 0970 89DAB637 		.word	934730377
 2590 0974 EABBBF37 		.word	935312362
 2591 0978 4B9DC837 		.word	935894347
 2592 097c AB7ED137 		.word	936476331
 2593 0980 0C60DA37 		.word	937058316
 2594 0984 6C41E337 		.word	937640300
 2595 0988 CD22EC37 		.word	938222285
 2596 098c 2D04F537 		.word	938804269
 2597 0990 8EE5FD37 		.word	939386254
 2598 0994 77630338 		.word	939746167
 2599 0998 43DEFE37 		.word	939449923
 2600 099c EFD5F637 		.word	938923503
 2601 09a0 9CCDEE37 		.word	938397084
 2602 09a4 49C5E637 		.word	937870665
 2603 09a8 F6BCDE37 		.word	937344246
 2604 09ac A2B4D637 		.word	936817826
 2605 09b0 4FACCE37 		.word	936291407
 2606 09b4 FCA3C637 		.word	935764988
 2607 09b8 A89BBE37 		.word	935238568
 2608 09bc 5593B637 		.word	934712149
 2609 09c0 028BAE37 		.word	934185730
 2610 09c4 AF82A637 		.word	933659311
 2611 09c8 5C7A9E37 		.word	933132892
 2612 09cc 08729637 		.word	932606472
 2613 09d0 B5698E37 		.word	932080053
 2614 09d4 62618637 		.word	931553634
 2615 09d8 1DB27C37 		.word	930918941
 2616 09dc 77A16C37 		.word	929866103
 2617 09e0 D0905C37 		.word	928813264
 2618 09e4 29804C37 		.word	927760425
 2619 09e8 836F3C37 		.word	926707587
 2620 09ec DC5E2C37 		.word	925654748
 2621 09f0 354E1C37 		.word	924601909
 2622 09f4 8F3D0C37 		.word	923549071
 2623 09f8 D159F836 		.word	922245585
 2624 09fc 8438D836 		.word	920139908
 2625 0a00 3717B836 		.word	918034231
 2626 0a04 EAF59736 		.word	915928554
 2627 0a08 39A96F36 		.word	913287481
 2628 0a0c 9F662F36 		.word	909076127
 2629 0a10 0A48DE35 		.word	903759882
 2630 0a14 AC853B35 		.word	893093292
 2631 0a18 60E16635 		.word	895934816
 2632 0a1c 0ABBE735 		.word	904379146
 2633 0a20 B3022E36 		.word	908985011
 2634 0a24 E0276836 		.word	912795616
ARM GAS  /var/folders/n6/c271nzx11xl4r4_m7sqjlt0m0000gn/T//ccGo3Vqh.s 			page 158


 2635 0a28 86269136 		.word	915482246
 2636 0a2c 1D39AE36 		.word	917387549
 2637 0a30 B44BCB36 		.word	919292852
 2638 0a34 4B5EE836 		.word	921198155
 2639 0a38 70B80237 		.word	922925168
 2640 0a3c BB411137 		.word	923877819
 2641 0a40 07CB1F37 		.word	924830471
 2642 0a44 52542E37 		.word	925783122
 2643 0a48 9DDD3C37 		.word	926735773
 2644 0a4c E8664B37 		.word	927688424
 2645 0a50 34F05937 		.word	928641076
 2646 0a54 7F796837 		.word	929593727
 2647 0a58 CB027737 		.word	930546379
 2648 0a5c 0BC68237 		.word	931317259
 2649 0a60 B10A8A37 		.word	931793585
 2650 0a64 564F9137 		.word	932269910
 2651 0a68 FC939837 		.word	932746236
 2652 0a6c A1D89F37 		.word	933222561
 2653 0a70 471DA737 		.word	933698887
 2654 0a74 ED61AE37 		.word	934175213
 2655 0a78 93A6B537 		.word	934651539
 2656 0a7c 38EBBC37 		.word	935127864
 2657 0a80 DE2FC437 		.word	935604190
 2658 0a84 8374CB37 		.word	936080515
 2659 0a88 29B9D237 		.word	936556841
 2660 0a8c CEFDD937 		.word	937033166
 2661 0a90 7542E137 		.word	937509493
 2662 0a94 1A87E837 		.word	937985818
 2663 0a98 580DEC37 		.word	938216792
 2664 0a9c 577AE537 		.word	937785943
 2665 0aa0 58E7DE37 		.word	937355096
 2666 0aa4 5754D837 		.word	936924247
 2667 0aa8 57C1D137 		.word	936493399
 2668 0aac 572ECB37 		.word	936062551
 2669 0ab0 569BC437 		.word	935631702
 2670 0ab4 5608BE37 		.word	935200854
 2671 0ab8 5675B737 		.word	934770006
 2672 0abc 55E2B037 		.word	934339157
 2673 0ac0 554FAA37 		.word	933908309
 2674 0ac4 54BCA337 		.word	933477460
 2675 0ac8 54299D37 		.word	933046612
 2676 0acc 55969637 		.word	932615765
 2677 0ad0 54039037 		.word	932184916
 2678 0ad4 54708937 		.word	931754068
 2679 0ad8 54DD8237 		.word	931323220
 2680 0adc A6947837 		.word	930649254
 2681 0ae0 A66E6B37 		.word	929787558
 2682 0ae4 A5485E37 		.word	928925861
 2683 0ae8 A5225137 		.word	928064165
 2684 0aec A5FC4337 		.word	927202469
 2685 0af0 A4D63637 		.word	926340772
 2686 0af4 A3B02937 		.word	925479075
 2687 0af8 A28A1C37 		.word	924617378
 2688 0afc A2640F37 		.word	923755682
 2689 0b00 A23E0237 		.word	922893986
 2690 0b04 4231EA36 		.word	921317698
 2691 0b08 41E5CF36 		.word	919594305
ARM GAS  /var/folders/n6/c271nzx11xl4r4_m7sqjlt0m0000gn/T//ccGo3Vqh.s 			page 159


 2692 0b0c 3F99B536 		.word	917870911
 2693 0b10 3F4D9B36 		.word	916147519
 2694 0b14 3D018136 		.word	914424125
 2695 0b18 796A4D36 		.word	911043193
 2696 0b1c 77D21836 		.word	907596407
 2697 0b20 E874C835 		.word	902329576
 2698 0b24 C7893E35 		.word	893290951
 2699 0b28 4FD34D34 		.word	877515599
 2700 0b2c 99B67135 		.word	896644761
 2701 0b30 2EFCD735 		.word	903347246
 2702 0b34 888E1B36 		.word	907775624
 2703 0b38 FA1E4B36 		.word	910892794
 2704 0b3c 6BAF7A36 		.word	914009963
 2705 0b40 EE1F9536 		.word	915742702
 2706 0b44 27E8AC36 		.word	917301287
 2707 0b48 60B0C436 		.word	918859872
 2708 0b4c 9978DC36 		.word	920418457
 2709 0b50 D040F436 		.word	921977040
 2710 0b54 85040637 		.word	923141253
 2711 0b58 A1E81137 		.word	923920545
 2712 0b5c BECC1D37 		.word	924699838
 2713 0b60 D9B02937 		.word	925479129
 2714 0b64 F6943537 		.word	926258422
 2715 0b68 12794137 		.word	927037714
 2716 0b6c 2E5D4D37 		.word	927817006
 2717 0b70 4B415937 		.word	928596299
 2718 0b74 66256537 		.word	929375590
 2719 0b78 84097137 		.word	930154884
 2720 0b7c 9FED7C37 		.word	930934175
 2721 0b80 DE688437 		.word	931424478
 2722 0b84 EC5A8A37 		.word	931814124
 2723 0b88 FA4C9037 		.word	932203770
 2724 0b8c 093F9637 		.word	932593417
 2725 0b90 17319C37 		.word	932983063
 2726 0b94 2423A237 		.word	933372708
 2727 0b98 3315A837 		.word	933762355
 2728 0b9c 4107AE37 		.word	934152001
 2729 0ba0 50F9B337 		.word	934541648
 2730 0ba4 5DEBB937 		.word	934931293
 2731 0ba8 6BDDBF37 		.word	935320939
 2732 0bac 7ACFC537 		.word	935710586
 2733 0bb0 88C1CB37 		.word	936100232
 2734 0bb4 96B3D137 		.word	936489878
 2735 0bb8 4E94D637 		.word	936809550
 2736 0bbc 9233D137 		.word	936457106
 2737 0bc0 D5D2CB37 		.word	936104661
 2738 0bc4 1872C637 		.word	935752216
 2739 0bc8 5C11C137 		.word	935399772
 2740 0bcc A0B0BB37 		.word	935047328
 2741 0bd0 E34FB637 		.word	934694883
 2742 0bd4 26EFB037 		.word	934342438
 2743 0bd8 6A8EAB37 		.word	933989994
 2744 0bdc AD2DA637 		.word	933637549
 2745 0be0 F0CCA037 		.word	933285104
 2746 0be4 346C9B37 		.word	932932660
 2747 0be8 780B9637 		.word	932580216
 2748 0bec BBAA9037 		.word	932227771
ARM GAS  /var/folders/n6/c271nzx11xl4r4_m7sqjlt0m0000gn/T//ccGo3Vqh.s 			page 160


 2749 0bf0 FE498B37 		.word	931875326
 2750 0bf4 42E98537 		.word	931522882
 2751 0bf8 86888037 		.word	931170438
 2752 0bfc 914F7637 		.word	930500497
 2753 0c00 198E6B37 		.word	929795609
 2754 0c04 A0CC6037 		.word	929090720
 2755 0c08 270B5637 		.word	928385831
 2756 0c0c AD494B37 		.word	927680941
 2757 0c10 35884037 		.word	926976053
 2758 0c14 BBC63537 		.word	926271163
 2759 0c18 43052B37 		.word	925566275
 2760 0c1c C9432037 		.word	924861385
 2761 0c20 50821537 		.word	924156496
 2762 0c24 D7C00A37 		.word	923451607
 2763 0c28 BBFEFF36 		.word	922746555
 2764 0c2c CA7BEA36 		.word	921336778
 2765 0c30 D7F8D436 		.word	919926999
 2766 0c34 E575BF36 		.word	918517221
 2767 0c38 F3F2A936 		.word	917107443
 2768 0c3c 01709436 		.word	915697665
 2769 0c40 1DDA7D36 		.word	914217501
 2770 0c44 39D45236 		.word	911397945
 2771 0c48 55CE2736 		.word	908578389
 2772 0c4c E090F935 		.word	905548000
 2773 0c50 1885A335 		.word	899908888
 2774 0c54 A0F21A35 		.word	890958496
 2775 0c58 B3DA6A33 		.word	862640819
 2776 0c5c 99582A35 		.word	891967641
 2777 0c60 C301A335 		.word	899875267
 2778 0c64 39D7F035 		.word	904976185
 2779 0c68 59561F36 		.word	908023385
 2780 0c6c 15414636 		.word	910573845
 2781 0c70 D02B6D36 		.word	913124304
 2782 0c74 450B8A36 		.word	915016517
 2783 0c78 A3809D36 		.word	916291747
 2784 0c7c 01F6B036 		.word	917566977
 2785 0c80 5E6BC436 		.word	918842206
 2786 0c84 BDE0D736 		.word	920117437
 2787 0c88 1956EB36 		.word	921392665
 2788 0c8c 78CBFE36 		.word	922667896
 2789 0c90 6B200937 		.word	923345003
 2790 0c94 19DB1237 		.word	923982617
 2791 0c98 C9951C37 		.word	924620233
 2792 0c9c 77502637 		.word	925257847
 2793 0ca0 260B3037 		.word	925895462
 2794 0ca4 D5C53937 		.word	926533077
 2795 0ca8 85804337 		.word	927170693
 2796 0cac 333B4D37 		.word	927808307
 2797 0cb0 E1F55637 		.word	928445921
 2798 0cb4 90B06037 		.word	929083536
 2799 0cb8 406B6A37 		.word	929721152
 2800 0cbc EE257437 		.word	930358766
 2801 0cc0 9DE07D37 		.word	930996381
 2802 0cc4 A6CD8337 		.word	931384742
 2803 0cc8 FDAA8837 		.word	931703549
 2804 0ccc 55888D37 		.word	932022357
 2805 0cd0 AD659237 		.word	932341165
ARM GAS  /var/folders/n6/c271nzx11xl4r4_m7sqjlt0m0000gn/T//ccGo3Vqh.s 			page 161


 2806 0cd4 04439737 		.word	932659972
 2807 0cd8 5B209C37 		.word	932978779
 2808 0cdc B2FDA037 		.word	933297586
 2809 0ce0 0ADBA537 		.word	933616394
 2810 0ce4 61B8AA37 		.word	933935201
 2811 0ce8 B995AF37 		.word	934254009
 2812 0cec 1173B437 		.word	934572817
 2813 0cf0 6850B937 		.word	934891624
 2814 0cf4 BF2DBE37 		.word	935210431
 2815 0cf8 CE1EC237 		.word	935468750
 2816 0cfc 5DB8BD37 		.word	935180381
 2817 0d00 EB51B937 		.word	934892011
 2818 0d04 7AEBB437 		.word	934603642
 2819 0d08 0985B037 		.word	934315273
 2820 0d0c 981EAC37 		.word	934026904
 2821 0d10 26B8A737 		.word	933738534
 2822 0d14 B651A337 		.word	933450166
 2823 0d18 44EB9E37 		.word	933161796
 2824 0d1c D3849A37 		.word	932873427
 2825 0d20 621E9637 		.word	932585058
 2826 0d24 F1B79137 		.word	932296689
 2827 0d28 80518D37 		.word	932008320
 2828 0d2c 0FEB8837 		.word	931719951
 2829 0d30 9D848437 		.word	931431581
 2830 0d34 2C1E8037 		.word	931143212
 2831 0d38 776F7737 		.word	930574199
 2832 0d3c 94A26E37 		.word	929997460
 2833 0d40 B1D56537 		.word	929420721
 2834 0d44 D0085D37 		.word	928843984
 2835 0d48 ED3B5437 		.word	928267245
 2836 0d4c 0A6F4B37 		.word	927690506
 2837 0d50 27A24237 		.word	927113767
 2838 0d54 46D53937 		.word	926537030
 2839 0d58 63083137 		.word	925960291
 2840 0d5c 813B2837 		.word	925383553
 2841 0d60 9E6E1F37 		.word	924806814
 2842 0d64 BCA11637 		.word	924230076
 2843 0d68 DAD40D37 		.word	923653338
 2844 0d6c F7070537 		.word	923076599
 2845 0d70 2B76F836 		.word	922252843
 2846 0d74 67DCE636 		.word	921099367
 2847 0d78 A142D536 		.word	919945889
 2848 0d7c DDA8C336 		.word	918792413
 2849 0d80 180FB236 		.word	917638936
 2850 0d84 5375A036 		.word	916485459
 2851 0d88 8FDB8E36 		.word	915331983
 2852 0d8c 94837A36 		.word	913998740
 2853 0d90 0A505736 		.word	911691786
 2854 0d94 811C3436 		.word	909384833
 2855 0d98 F8E81036 		.word	907077880
 2856 0d9c DD6ADB35 		.word	903572189
 2857 0da0 CA039535 		.word	898958282
 2858 0da4 6F391D35 		.word	891107695
 2859 0da8 4B5A8333 		.word	864246347
 2860 0dac 2B044B33 		.word	860554283
 2861 0db0 CE0D0C35 		.word	889982414
 2862 0db4 ADB58535 		.word	897955245
ARM GAS  /var/folders/n6/c271nzx11xl4r4_m7sqjlt0m0000gn/T//ccGo3Vqh.s 			page 162


 2863 0db8 7264C535 		.word	902128754
 2864 0dbc 9C890236 		.word	906135964
 2865 0dc0 FF602236 		.word	908222719
 2866 0dc4 62384236 		.word	910309474
 2867 0dc8 C50F6236 		.word	912396229
 2868 0dcc 94F38036 		.word	914420628
 2869 0dd0 46DF9036 		.word	915464006
 2870 0dd4 F7CAA036 		.word	916507383
 2871 0dd8 A8B6B036 		.word	917550760
 2872 0ddc 59A2C036 		.word	918594137
 2873 0de0 0C8ED036 		.word	919637516
 2874 0de4 BD79E036 		.word	920680893
 2875 0de8 6F65F036 		.word	921724271
 2876 0dec 90280037 		.word	922757264
 2877 0df0 681E0837 		.word	923278952
 2878 0df4 42141037 		.word	923800642
 2879 0df8 1A0A1837 		.word	924322330
 2880 0dfc F3FF1F37 		.word	924844019
 2881 0e00 CCF52737 		.word	925365708
 2882 0e04 A4EB2F37 		.word	925887396
 2883 0e08 7DE13737 		.word	926409085
 2884 0e0c 56D73F37 		.word	926930774
 2885 0e10 2FCD4737 		.word	927452463
 2886 0e14 07C34F37 		.word	927974151
 2887 0e18 E0B85737 		.word	928495840
 2888 0e1c B9AE5F37 		.word	929017529
 2889 0e20 91A46737 		.word	929539217
 2890 0e24 6A9A6F37 		.word	930060906
 2891 0e28 43907737 		.word	930582595
 2892 0e2c 1B867F37 		.word	931104283
 2893 0e30 FABD8337 		.word	931380730
 2894 0e34 E7B88737 		.word	931641575
 2895 0e38 D3B38B37 		.word	931902419
 2896 0e3c BFAE8F37 		.word	932163263
 2897 0e40 ACA99337 		.word	932424108
 2898 0e44 98A49737 		.word	932684952
 2899 0e48 849F9B37 		.word	932945796
 2900 0e4c 719A9F37 		.word	933206641
 2901 0e50 5D95A337 		.word	933467485
 2902 0e54 4990A737 		.word	933728329
 2903 0e58 368BAB37 		.word	933989174
 2904 0e5c 2286AF37 		.word	934250018
 2905 0e60 C7CEAC37 		.word	934072007
 2906 0e64 2335A937 		.word	933836067
 2907 0e68 7F9BA537 		.word	933600127
 2908 0e6c DB01A237 		.word	933364187
 2909 0e70 36689E37 		.word	933128246
 2910 0e74 93CE9A37 		.word	932892307
 2911 0e78 EF349737 		.word	932656367
 2912 0e7c 4A9B9337 		.word	932420426
 2913 0e80 A6019037 		.word	932184486
 2914 0e84 02688C37 		.word	931948546
 2915 0e88 5ECE8837 		.word	931712606
 2916 0e8c BA348537 		.word	931476666
 2917 0e90 159B8137 		.word	931240725
 2918 0e94 E2027C37 		.word	930874082
 2919 0e98 9ACF7437 		.word	930402202
ARM GAS  /var/folders/n6/c271nzx11xl4r4_m7sqjlt0m0000gn/T//ccGo3Vqh.s 			page 163


 2920 0e9c 519C6D37 		.word	929930321
 2921 0ea0 09696637 		.word	929458441
 2922 0ea4 C2355F37 		.word	928986562
 2923 0ea8 7A025837 		.word	928514682
 2924 0eac 31CF5037 		.word	928042801
 2925 0eb0 E99B4937 		.word	927570921
 2926 0eb4 A0684237 		.word	927099040
 2927 0eb8 58353B37 		.word	926627160
 2928 0ebc 10023437 		.word	926155280
 2929 0ec0 C7CE2C37 		.word	925683399
 2930 0ec4 7F9B2537 		.word	925211519
 2931 0ec8 36681E37 		.word	924739638
 2932 0ecc EF341737 		.word	924267759
 2933 0ed0 A6011037 		.word	923795878
 2934 0ed4 5ECE0837 		.word	923323998
 2935 0ed8 159B0137 		.word	922852117
 2936 0edc 9ACFF436 		.word	922013594
 2937 0ee0 0969E636 		.word	921069833
 2938 0ee4 7A02D836 		.word	920126074
 2939 0ee8 E99BC936 		.word	919182313
 2940 0eec 5835BB36 		.word	918238552
 2941 0ef0 C7CEAC36 		.word	917294791
 2942 0ef4 36689E36 		.word	916351030
 2943 0ef8 A6019036 		.word	915407270
 2944 0efc 159B8136 		.word	914463509
 2945 0f00 09696636 		.word	912681225
 2946 0f04 E99B4936 		.word	910793705
 2947 0f08 C7CE2C36 		.word	908906183
 2948 0f0c A6011036 		.word	907018662
 2949 0f10 0969E635 		.word	904292617
 2950 0f14 C7CEAC35 		.word	900517575
 2951 0f18 09696635 		.word	895904009
 2952 0f1c 0969E634 		.word	887515401
 2953              		.global	hanningWindow
 2954              		.section	.data.hanningWindow,"aw"
 2955              		.align	2
 2958              	hanningWindow:
 2959 0000 00000000 		.word	0
 2960 0004 B5FE1637 		.word	924253877
 2961 0008 30621F38 		.word	941580848
 2962 000c 0742B238 		.word	951206407
 2963 0010 C1551E39 		.word	958289345
 2964 0014 C5767739 		.word	964130501
 2965 0018 CFBBB139 		.word	967949263
 2966 001c 9738F239 		.word	972175511
 2967 0020 A5121E3A 		.word	975049381
 2968 0024 2C47483A 		.word	977815340
 2969 0028 A933773A 		.word	980890537
 2970 002c 9B8D953A 		.word	982879643
 2971 0030 5DDDB13A 		.word	984735069
 2972 0034 36CCD03A 		.word	986762294
 2973 0038 0917F23A 		.word	988944137
 2974 003c B3EF0A3B 		.word	990572467
 2975 0040 A5121E3B 		.word	991826597
 2976 0044 5C74323B 		.word	993162332
 2977 0048 1004483B 		.word	994575376
 2978 004c 50E35E3B 		.word	996074320
ARM GAS  /var/folders/n6/c271nzx11xl4r4_m7sqjlt0m0000gn/T//ccGo3Vqh.s 			page 164


 2979 0050 8DF0763B 		.word	997650573
 2980 0054 E415883B 		.word	998774244
 2981 0058 465B953B 		.word	999643974
 2982 005c A837A33B 		.word	1000552360
 2983 0060 08ABB13B 		.word	1001499400
 2984 0064 2EC6C03B 		.word	1002489390
 2985 0068 5378D03B 		.word	1003518035
 2986 006c 76C1E03B 		.word	1004585334
 2987 0070 5FB2F13B 		.word	1005695583
 2988 0074 F298013C 		.word	1006737650
 2989 0078 97AC0A3C 		.word	1007332503
 2990 007c BB0B143C 		.word	1007946683
 2991 0080 5FB61D3C 		.word	1008580191
 2992 0084 B4B0273C 		.word	1009234100
 2993 0088 88F6313C 		.word	1009907336
 2994 008c 0D8C3C3C 		.word	1010600973
 2995 0090 4371473C 		.word	1011315011
 2996 0094 C79D523C 		.word	1012047303
 2997 0098 FC195E3C 		.word	1012799996
 2998 009c E2E5693C 		.word	1013573090
 2999 00a0 48FD753C 		.word	1014365512
 3000 00a4 1630813C 		.word	1015099414
 3001 00a8 4887873C 		.word	1015514952
 3002 00ac 3A048E3C 		.word	1015940154
 3003 00b0 04A9943C 		.word	1016375556
 3004 00b4 8E739B3C 		.word	1016820622
 3005 00b8 D863A23C 		.word	1017275352
 3006 00bc E179A93C 		.word	1017739745
 3007 00c0 C3B7B03C 		.word	1018214339
 3008 00c4 4C19B83C 		.word	1018698060
 3009 00c8 94A0BF3C 		.word	1019191444
 3010 00cc B54FC73C 		.word	1019695029
 3011 00d0 7D22CF3C 		.word	1020207741
 3012 00d4 041BD73C 		.word	1020730116
 3013 00d8 4B39DF3C 		.word	1021262155
 3014 00dc 527DE73C 		.word	1021803858
 3015 00e0 19E7EF3C 		.word	1022355225
 3016 00e4 8674F83C 		.word	1022915718
 3017 00e8 D993003D 		.word	1023448025
 3018 00ec 5000053D 		.word	1023737936
 3019 00f0 997E093D 		.word	1024032409
 3020 00f4 C30F0E3D 		.word	1024331715
 3021 00f8 CCB3123D 		.word	1024635852
 3022 00fc A969173D 		.word	1024944553
 3023 0100 66321C3D 		.word	1025258086
 3024 0104 F60C213D 		.word	1025576182
 3025 0108 59F9253D 		.word	1025898841
 3026 010c 9CF82A3D 		.word	1026226332
 3027 0110 B309303D 		.word	1026558387
 3028 0114 9D2C353D 		.word	1026895005
 3029 0118 5B613A3D 		.word	1027236187
 3030 011c F8A83F3D 		.word	1027582200
 3031 0120 6902453D 		.word	1027932777
 3032 0124 A06C4A3D 		.word	1028287648
 3033 0128 B8E94F3D 		.word	1028647352
 3034 012c A378553D 		.word	1029011619
 3035 0130 55185B3D 		.word	1029380181
ARM GAS  /var/folders/n6/c271nzx11xl4r4_m7sqjlt0m0000gn/T//ccGo3Vqh.s 			page 165


 3036 0134 E6CA603D 		.word	1029753574
 3037 0138 3F8E663D 		.word	1030131263
 3038 013c 6B636C3D 		.word	1030513515
 3039 0140 6B4A723D 		.word	1030900331
 3040 0144 3142783D 		.word	1031291441
 3041 0148 CB4B7E3D 		.word	1031687115
 3042 014c 1633823D 		.word	1031942934
 3043 0150 3049853D 		.word	1032145200
 3044 0154 AE67883D 		.word	1032349614
 3045 0158 8F8E8B3D 		.word	1032556175
 3046 015c 59BE8E3D 		.word	1032765017
 3047 0160 88F6913D 		.word	1032976008
 3048 0164 A037953D 		.word	1033189280
 3049 0168 9580983D 		.word	1033404565
 3050 016c EED19B3D 		.word	1033621998
 3051 0170 302C9F3D 		.word	1033841712
 3052 0174 508EA23D 		.word	1034063440
 3053 0178 D3F8A53D 		.word	1034287315
 3054 017c BA6BA93D 		.word	1034513338
 3055 0180 04E7AC3D 		.word	1034741508
 3056 0184 B16AB03D 		.word	1034971825
 3057 0188 3CF6B33D 		.word	1035204156
 3058 018c A489B73D 		.word	1035438500
 3059 0190 7025BB3D 		.word	1035674992
 3060 0194 9FC9BE3D 		.word	1035913631
 3061 0198 AB75C23D 		.word	1036154283
 3062 019c 9529C63D 		.word	1036396949
 3063 01a0 5CE5C93D 		.word	1036641628
 3064 01a4 86A9CD3D 		.word	1036888454
 3065 01a8 0875D13D 		.word	1037137160
 3066 01ac ED48D53D 		.word	1037388013
 3067 01b0 2924D93D 		.word	1037640745
 3068 01b4 4207DD3D 		.word	1037895490
 3069 01b8 BFF2E03D 		.word	1038152383
 3070 01bc 0CE5E43D 		.word	1038411020
 3071 01c0 BDDFE83D 		.word	1038671805
 3072 01c4 C6E1EC3D 		.word	1038934470
 3073 01c8 ABEBF03D 		.word	1039199147
 3074 01cc E7FCF43D 		.word	1039465703
 3075 01d0 7B15F93D 		.word	1039734139
 3076 01d4 EB35FD3D 		.word	1040004587
 3077 01d8 97AE003E 		.word	1040232087
 3078 01dc 26C6023E 		.word	1040369190
 3079 01e0 61E1043E 		.word	1040507233
 3080 01e4 4700073E 		.word	1040646215
 3081 01e8 D922093E 		.word	1040786137
 3082 01ec 17490B3E 		.word	1040926999
 3083 01f0 BD720D3E 		.word	1041068733
 3084 01f4 0EA00F3E 		.word	1041211406
 3085 01f8 0BD1113E 		.word	1041355019
 3086 01fc 7105143E 		.word	1041499505
 3087 0200 3E3D163E 		.word	1041644862
 3088 0204 B878183E 		.word	1041791160
 3089 0208 99B71A3E 		.word	1041938329
 3090 020c E4F91C3E 		.word	1042086372
 3091 0210 D93F1F3E 		.word	1042235353
 3092 0214 F488213E 		.word	1042385140
ARM GAS  /var/folders/n6/c271nzx11xl4r4_m7sqjlt0m0000gn/T//ccGo3Vqh.s 			page 166


 3093 0218 78D5233E 		.word	1042535800
 3094 021c 6325263E 		.word	1042687331
 3095 0220 B878283E 		.word	1042839736
 3096 0224 31CF2A3E 		.word	1042992945
 3097 0228 13292D3E 		.word	1043147027
 3098 022c 5D862F3E 		.word	1043301981
 3099 0230 CDE6313E 		.word	1043457741
 3100 0234 624A343E 		.word	1043614306
 3101 0238 1CB1363E 		.word	1043771676
 3102 023c 3F1B393E 		.word	1043929919
 3103 0240 44883B3E 		.word	1044088900
 3104 0244 B1F83D3E 		.word	1044248753
 3105 0248 016C403E 		.word	1044409345
 3106 024c 76E2423E 		.word	1044570742
 3107 0250 105C453E 		.word	1044732944
 3108 0254 CFD8473E 		.word	1044895951
 3109 0258 71584A3E 		.word	1045059697
 3110 025c F5DA4C3E 		.word	1045224181
 3111 0260 9E604F3E 		.word	1045389470
 3112 0264 E6E8513E 		.word	1045555430
 3113 0268 9774543E 		.word	1045722263
 3114 026c E602573E 		.word	1045889766
 3115 0270 1894593E 		.word	1046058008
 3116 0274 E9275C3E 		.word	1046226921
 3117 0278 E0BE5E3E 		.word	1046396640
 3118 027c 7558613E 		.word	1046567029
 3119 0280 EDF4633E 		.word	1046738157
 3120 0284 0394663E 		.word	1046909955
 3121 0288 FC35693E 		.word	1047082492
 3122 028c 94DA6B3E 		.word	1047255700
 3123 0290 CB816E3E 		.word	1047429579
 3124 0294 A12B713E 		.word	1047604129
 3125 0298 17D8733E 		.word	1047779351
 3126 029c 2B87763E 		.word	1047955243
 3127 02a0 DE38793E 		.word	1048131806
 3128 02a4 EEEC7B3E 		.word	1048308974
 3129 02a8 9CA37E3E 		.word	1048486812
 3130 02ac 75AE803E 		.word	1048620661
 3131 02b0 4A0C823E 		.word	1048710218
 3132 02b4 4C6B833E 		.word	1048800076
 3133 02b8 7DCB843E 		.word	1048890237
 3134 02bc FE2C863E 		.word	1048980734
 3135 02c0 8A8F873E 		.word	1049071498
 3136 02c4 67F3883E 		.word	1049162599
 3137 02c8 4F588A3E 		.word	1049253967
 3138 02cc 44BE8B3E 		.word	1049345604
 3139 02d0 89258D3E 		.word	1049437577
 3140 02d4 B98D8E3E 		.word	1049529785
 3141 02d8 38F78F3E 		.word	1049622328
 3142 02dc A261913E 		.word	1049715106
 3143 02e0 18CD923E 		.word	1049808152
 3144 02e4 BD39943E 		.word	1049901501
 3145 02e8 4CA7953E 		.word	1049995084
 3146 02ec 0916973E 		.word	1050088969
 3147 02f0 B285983E 		.word	1050183090
 3148 02f4 66F6993E 		.word	1050277478
 3149 02f8 06689B3E 		.word	1050372102
ARM GAS  /var/folders/n6/c271nzx11xl4r4_m7sqjlt0m0000gn/T//ccGo3Vqh.s 			page 167


 3150 02fc 90DA9C3E 		.word	1050466960
 3151 0300 274E9E3E 		.word	1050562087
 3152 0304 CAC29F3E 		.word	1050657482
 3153 0308 3738A13E 		.word	1050753079
 3154 030c 8EAEA23E 		.word	1050848910
 3155 0310 D025A43E 		.word	1050944976
 3156 0314 FE9DA53E 		.word	1051041278
 3157 0318 F416A73E 		.word	1051137780
 3158 031c D690A83E 		.word	1051234518
 3159 0320 A20BAA3E 		.word	1051331490
 3160 0324 3887AB3E 		.word	1051428664
 3161 0328 9703AD3E 		.word	1051526039
 3162 032c BF80AE3E 		.word	1051623615
 3163 0330 B0FEAF3E 		.word	1051721392
 3164 0334 6B7DB13E 		.word	1051819371
 3165 0338 F0FCB23E 		.word	1051917552
 3166 033c 3D7DB43E 		.word	1052015933
 3167 0340 33FEB53E 		.word	1052114483
 3168 0344 D07FB73E 		.word	1052213200
 3169 0348 3602B93E 		.word	1052312118
 3170 034c 4485BA3E 		.word	1052411204
 3171 0350 FA08BC3E 		.word	1052510458
 3172 0354 7A8DBD3E 		.word	1052609914
 3173 0358 7F12BF3E 		.word	1052709503
 3174 035c 2D98C03E 		.word	1052809261
 3175 0360 601EC23E 		.word	1052909152
 3176 0364 5DA5C33E 		.word	1053009245
 3177 0368 BF2CC53E 		.word	1053109439
 3178 036c C8B4C63E 		.word	1053209800
 3179 0370 573DC83E 		.word	1053310295
 3180 0374 6DC6C93E 		.word	1053410925
 3181 0378 2B50CB3E 		.word	1053511723
 3182 037c 4DDACC3E 		.word	1053612621
 3183 0380 F564CE3E 		.word	1053713653
 3184 0384 02F0CF3E 		.word	1053814786
 3185 0388 967BD13E 		.word	1053916054
 3186 038c AF07D33E 		.word	1054017455
 3187 0390 2D94D43E 		.word	1054118957
 3188 0394 1021D63E 		.word	1054220560
 3189 0398 58AED73E 		.word	1054322264
 3190 039c 043CD93E 		.word	1054424068
 3191 03a0 15CADA3E 		.word	1054525973
 3192 03a4 8A58DC3E 		.word	1054627978
 3193 03a8 43E7DD3E 		.word	1054730051
 3194 03ac 6076DF3E 		.word	1054832224
 3195 03b0 C005E13E 		.word	1054934464
 3196 03b4 8595E23E 		.word	1055036805
 3197 03b8 6C25E43E 		.word	1055139180
 3198 03bc B7B5E53E 		.word	1055241655
 3199 03c0 4546E73E 		.word	1055344197
 3200 03c4 F5D6E83E 		.word	1055446773
 3201 03c8 E867EA3E 		.word	1055549416
 3202 03cc 1EF9EB3E 		.word	1055652126
 3203 03d0 988AED3E 		.word	1055754904
 3204 03d4 111CEF3E 		.word	1055857681
 3205 03d8 CDADF03E 		.word	1055960525
 3206 03dc AB3FF23E 		.word	1056063403
ARM GAS  /var/folders/n6/c271nzx11xl4r4_m7sqjlt0m0000gn/T//ccGo3Vqh.s 			page 168


 3207 03e0 ABD1F33E 		.word	1056166315
 3208 03e4 CC63F53E 		.word	1056269260
 3209 03e8 0EF6F63E 		.word	1056372238
 3210 03ec 5188F83E 		.word	1056475217
 3211 03f0 B51AFA3E 		.word	1056578229
 3212 03f4 19ADFB3E 		.word	1056681241
 3213 03f8 9E3FFD3E 		.word	1056784286
 3214 03fc 24D2FE3E 		.word	1056887332
 3215 0400 5532003F 		.word	1056977493
 3216 0404 98FB003F 		.word	1057029016
 3217 0408 CAC4013F 		.word	1057080522
 3218 040c 0D8E023F 		.word	1057132045
 3219 0410 3F57033F 		.word	1057183551
 3220 0414 7120043F 		.word	1057235057
 3221 0418 92E9043F 		.word	1057286546
 3222 041c A2B2053F 		.word	1057338018
 3223 0420 B37B063F 		.word	1057389491
 3224 0424 A244073F 		.word	1057440930
 3225 0428 910D083F 		.word	1057492369
 3226 042c 5ED6083F 		.word	1057543774
 3227 0430 1B9F093F 		.word	1057595163
 3228 0434 B6670A3F 		.word	1057646518
 3229 0438 40300B3F 		.word	1057697856
 3230 043c BAF80B3F 		.word	1057749178
 3231 0440 01C10C3F 		.word	1057800449
 3232 0444 37890D3F 		.word	1057851703
 3233 0448 4C510E3F 		.word	1057902924
 3234 044c 2F190F3F 		.word	1057954095
 3235 0450 00E10F3F 		.word	1058005248
 3236 0454 A0A8103F 		.word	1058056352
 3237 0458 0D70113F 		.word	1058107405
 3238 045c 5837123F 		.word	1058158424
 3239 0460 82FE123F 		.word	1058209410
 3240 0464 69C5133F 		.word	1058260329
 3241 0468 2E8C143F 		.word	1058311214
 3242 046c C152153F 		.word	1058362049
 3243 0470 1119163F 		.word	1058412817
 3244 0474 2FDF163F 		.word	1058463535
 3245 0478 1AA5173F 		.word	1058514202
 3246 047c C26A183F 		.word	1058564802
 3247 0480 3830193F 		.word	1058615352
 3248 0484 6AF5193F 		.word	1058665834
 3249 0488 5ABA1A3F 		.word	1058716250
 3250 048c 177F1B3F 		.word	1058766615
 3251 0490 81431C3F 		.word	1058816897
 3252 0494 A7071D3F 		.word	1058867111
 3253 0498 8ACB1D3F 		.word	1058917258
 3254 049c 198F1E3F 		.word	1058967321
 3255 04a0 65521F3F 		.word	1059017317
 3256 04a4 5D15203F 		.word	1059067229
 3257 04a8 12D8203F 		.word	1059117074
 3258 04ac 749A213F 		.word	1059166836
 3259 04b0 705C223F 		.word	1059216496
 3260 04b4 2A1E233F 		.word	1059266090
 3261 04b8 7FDF233F 		.word	1059315583
 3262 04bc 90A0243F 		.word	1059365008
 3263 04c0 3D61253F 		.word	1059414333
ARM GAS  /var/folders/n6/c271nzx11xl4r4_m7sqjlt0m0000gn/T//ccGo3Vqh.s 			page 169


 3264 04c4 8621263F 		.word	1059463558
 3265 04c8 7AE1263F 		.word	1059512698
 3266 04cc 0AA1273F 		.word	1059561738
 3267 04d0 3560283F 		.word	1059610677
 3268 04d4 FB1E293F 		.word	1059659515
 3269 04d8 5DDD293F 		.word	1059708253
 3270 04dc 5A9B2A3F 		.word	1059756890
 3271 04e0 F3582B3F 		.word	1059805427
 3272 04e4 16162C3F 		.word	1059853846
 3273 04e8 D4D22C3F 		.word	1059902164
 3274 04ec 1D8F2D3F 		.word	1059950365
 3275 04f0 F14A2E3F 		.word	1059998449
 3276 04f4 60062F3F 		.word	1060046432
 3277 04f8 59C12F3F 		.word	1060094297
 3278 04fc CC7B303F 		.word	1060142028
 3279 0500 DB35313F 		.word	1060189659
 3280 0504 63EF313F 		.word	1060237155
 3281 0508 76A8323F 		.word	1060284534
 3282 050c 1361333F 		.word	1060331795
 3283 0510 2A19343F 		.word	1060378922
 3284 0514 BBD0343F 		.word	1060425915
 3285 0518 C687353F 		.word	1060472774
 3286 051c 5C3E363F 		.word	1060519516
 3287 0520 5AF4363F 		.word	1060566106
 3288 0524 E3A9373F 		.word	1060612579
 3289 0528 D55E383F 		.word	1060658901
 3290 052c 4013393F 		.word	1060705088
 3291 0530 26C7393F 		.word	1060751142
 3292 0534 747A3A3F 		.word	1060797044
 3293 0538 2C2D3B3F 		.word	1060842796
 3294 053c 5DDF3B3F 		.word	1060888413
 3295 0540 F7903C3F 		.word	1060933879
 3296 0544 FA413D3F 		.word	1060979194
 3297 0548 56F23D3F 		.word	1061024342
 3298 054c 2BA23E3F 		.word	1061069355
 3299 0550 69513F3F 		.word	1061114217
 3300 0554 0000403F 		.word	1061158912
 3301 0558 00AE403F 		.word	1061203456
 3302 055c 575B413F 		.word	1061247831
 3303 0560 1808423F 		.word	1061292056
 3304 0564 31B4423F 		.word	1061336113
 3305 0568 A25F433F 		.word	1061380002
 3306 056c 6C0A443F 		.word	1061423724
 3307 0570 8DB4443F 		.word	1061467277
 3308 0574 075E453F 		.word	1061510663
 3309 0578 D906463F 		.word	1061553881
 3310 057c F3AE463F 		.word	1061596915
 3311 0580 6556473F 		.word	1061639781
 3312 0584 2FFD473F 		.word	1061682479
 3313 0588 40A3483F 		.word	1061724992
 3314 058c 9948493F 		.word	1061767321
 3315 0590 39ED493F 		.word	1061809465
 3316 0594 32914A3F 		.word	1061851442
 3317 0598 61344B3F 		.word	1061893217
 3318 059c E9D64B3F 		.word	1061934825
 3319 05a0 A7784C3F 		.word	1061976231
 3320 05a4 AC194D3F 		.word	1062017452
ARM GAS  /var/folders/n6/c271nzx11xl4r4_m7sqjlt0m0000gn/T//ccGo3Vqh.s 			page 170


 3321 05a8 FAB94D3F 		.word	1062058490
 3322 05ac 7D594E3F 		.word	1062099325
 3323 05b0 48F84E3F 		.word	1062139976
 3324 05b4 4A964F3F 		.word	1062180426
 3325 05b8 8333503F 		.word	1062220675
 3326 05bc F2CF503F 		.word	1062260722
 3327 05c0 A96B513F 		.word	1062300585
 3328 05c4 9606523F 		.word	1062340246
 3329 05c8 A9A0523F 		.word	1062379689
 3330 05cc F339533F 		.word	1062418931
 3331 05d0 74D2533F 		.word	1062457972
 3332 05d4 2B6A543F 		.word	1062496811
 3333 05d8 0801553F 		.word	1062535432
 3334 05dc 1C97553F 		.word	1062573852
 3335 05e0 562C563F 		.word	1062612054
 3336 05e4 C6C0563F 		.word	1062650054
 3337 05e8 4C54573F 		.word	1062687820
 3338 05ec 08E7573F 		.word	1062725384
 3339 05f0 EA78583F 		.word	1062762730
 3340 05f4 F209593F 		.word	1062799858
 3341 05f8 0F9A593F 		.word	1062836751
 3342 05fc 63295A3F 		.word	1062873443
 3343 0600 CCB75A3F 		.word	1062909900
 3344 0604 5A455B3F 		.word	1062946138
 3345 0608 FED15B3F 		.word	1062982142
 3346 060c C85D5C3F 		.word	1063017928
 3347 0610 A7E85C3F 		.word	1063053479
 3348 0614 9B725D3F 		.word	1063088795
 3349 0618 B5FB5D3F 		.word	1063123893
 3350 061c E4835E3F 		.word	1063158756
 3351 0620 280B5F3F 		.word	1063193384
 3352 0624 82915F3F 		.word	1063227778
 3353 0628 F016603F 		.word	1063261936
 3354 062c 749B603F 		.word	1063295860
 3355 0630 FB1E613F 		.word	1063329531
 3356 0634 98A1613F 		.word	1063362968
 3357 0638 4B23623F 		.word	1063396171
 3358 063c 01A4623F 		.word	1063429121
 3359 0640 CD23633F 		.word	1063461837
 3360 0644 9CA2633F 		.word	1063494300
 3361 0648 8120643F 		.word	1063526529
 3362 064c 6B9D643F 		.word	1063558507
 3363 0650 4819653F 		.word	1063590216
 3364 0654 3A94653F 		.word	1063621690
 3365 0658 410E663F 		.word	1063652929
 3366 065c 3C87663F 		.word	1063683900
 3367 0660 2AFF663F 		.word	1063714602
 3368 0664 2E76673F 		.word	1063745070
 3369 0668 35EC673F 		.word	1063775285
 3370 066c 3161683F 		.word	1063805233
 3371 0670 30D5683F 		.word	1063834928
 3372 0674 2448693F 		.word	1063864356
 3373 0678 1BBA693F 		.word	1063893531
 3374 067c 062B6A3F 		.word	1063922438
 3375 0680 F69A6A3F 		.word	1063951094
 3376 0684 D9096B3F 		.word	1063979481
 3377 0688 AF776B3F 		.word	1064007599
ARM GAS  /var/folders/n6/c271nzx11xl4r4_m7sqjlt0m0000gn/T//ccGo3Vqh.s 			page 171


 3378 068c 7AE46B3F 		.word	1064035450
 3379 0690 37506C3F 		.word	1064063031
 3380 0694 F9BA6C3F 		.word	1064090361
 3381 0698 9E246D3F 		.word	1064117406
 3382 069c 378D6D3F 		.word	1064144183
 3383 06a0 D3F46D3F 		.word	1064170707
 3384 06a4 535B6E3F 		.word	1064196947
 3385 06a8 B5C06E3F 		.word	1064222901
 3386 06ac 1C256F3F 		.word	1064248604
 3387 06b0 66886F3F 		.word	1064274022
 3388 06b4 92EA6F3F 		.word	1064299154
 3389 06b8 B24B703F 		.word	1064324018
 3390 06bc C5AB703F 		.word	1064348613
 3391 06c0 BB0A713F 		.word	1064372923
 3392 06c4 9468713F 		.word	1064396948
 3393 06c8 61C5713F 		.word	1064420705
 3394 06cc 1021723F 		.word	1064444176
 3395 06d0 A27B723F 		.word	1064467362
 3396 06d4 17D5723F 		.word	1064490263
 3397 06d8 6F2D733F 		.word	1064512879
 3398 06dc A984733F 		.word	1064535209
 3399 06e0 C7DA733F 		.word	1064557255
 3400 06e4 C72F743F 		.word	1064579015
 3401 06e8 A983743F 		.word	1064600489
 3402 06ec 6FD6743F 		.word	1064621679
 3403 06f0 1728753F 		.word	1064642583
 3404 06f4 9278753F 		.word	1064663186
 3405 06f8 EFC7753F 		.word	1064683503
 3406 06fc 2F16763F 		.word	1064703535
 3407 0700 4163763F 		.word	1064723265
 3408 0704 36AF763F 		.word	1064742710
 3409 0708 FDF9763F 		.word	1064761853
 3410 070c A643773F 		.word	1064780710
 3411 0710 338C773F 		.word	1064799283
 3412 0714 80D3773F 		.word	1064817536
 3413 0718 B119783F 		.word	1064835505
 3414 071c B35E783F 		.word	1064853171
 3415 0720 98A2783F 		.word	1064870552
 3416 0724 4FE5783F 		.word	1064887631
 3417 0728 D926793F 		.word	1064904409
 3418 072c 3467793F 		.word	1064920884
 3419 0730 61A6793F 		.word	1064937057
 3420 0734 60E4793F 		.word	1064952928
 3421 0738 42217A3F 		.word	1064968514
 3422 073c E65C7A3F 		.word	1064983782
 3423 0740 5B977A3F 		.word	1064998747
 3424 0744 A2D07A3F 		.word	1065013410
 3425 0748 CC087B3F 		.word	1065027788
 3426 074c B83F7B3F 		.word	1065041848
 3427 0750 64757B3F 		.word	1065055588
 3428 0754 F4A97B3F 		.word	1065069044
 3429 0758 55DD7B3F 		.word	1065082197
 3430 075c 770F7C3F 		.word	1065095031
 3431 0760 6C407C3F 		.word	1065107564
 3432 0764 22707C3F 		.word	1065119778
 3433 0768 AA9E7C3F 		.word	1065131690
 3434 076c 03CC7C3F 		.word	1065143299
ARM GAS  /var/folders/n6/c271nzx11xl4r4_m7sqjlt0m0000gn/T//ccGo3Vqh.s 			page 172


 3435 0770 2FF87C3F 		.word	1065154607
 3436 0774 1C237D3F 		.word	1065165596
 3437 0778 DB4C7D3F 		.word	1065176283
 3438 077c 5C757D3F 		.word	1065186652
 3439 0780 9D9C7D3F 		.word	1065196701
 3440 0784 C2C27D3F 		.word	1065206466
 3441 0788 96E77D3F 		.word	1065215894
 3442 078c 3D0B7E3F 		.word	1065225021
 3443 0790 B62D7E3F 		.word	1065233846
 3444 0794 F04E7E3F 		.word	1065242352
 3445 0798 EB6E7E3F 		.word	1065250539
 3446 079c B98D7E3F 		.word	1065258425
 3447 07a0 47AB7E3F 		.word	1065265991
 3448 07a4 97C77E3F 		.word	1065273239
 3449 07a8 B9E27E3F 		.word	1065280185
 3450 07ac 9CFC7E3F 		.word	1065286812
 3451 07b0 40157F3F 		.word	1065293120
 3452 07b4 B62C7F3F 		.word	1065299126
 3453 07b8 EE427F3F 		.word	1065304814
 3454 07bc E6577F3F 		.word	1065310182
 3455 07c0 A06B7F3F 		.word	1065315232
 3456 07c4 1C7E7F3F 		.word	1065319964
 3457 07c8 698F7F3F 		.word	1065324393
 3458 07cc 779F7F3F 		.word	1065328503
 3459 07d0 47AE7F3F 		.word	1065332295
 3460 07d4 E8BB7F3F 		.word	1065335784
 3461 07d8 3BC87F3F 		.word	1065338939
 3462 07dc 5FD37F3F 		.word	1065341791
 3463 07e0 44DD7F3F 		.word	1065344324
 3464 07e4 EBE57F3F 		.word	1065346539
 3465 07e8 52ED7F3F 		.word	1065348434
 3466 07ec 7CF37F3F 		.word	1065350012
 3467 07f0 66F87F3F 		.word	1065351270
 3468 07f4 22FC7F3F 		.word	1065352226
 3469 07f8 A0FE7F3F 		.word	1065352864
 3470 07fc DEFF7F3F 		.word	1065353182
 3471 0800 DEFF7F3F 		.word	1065353182
 3472 0804 A0FE7F3F 		.word	1065352864
 3473 0808 22FC7F3F 		.word	1065352226
 3474 080c 66F87F3F 		.word	1065351270
 3475 0810 7CF37F3F 		.word	1065350012
 3476 0814 52ED7F3F 		.word	1065348434
 3477 0818 EBE57F3F 		.word	1065346539
 3478 081c 44DD7F3F 		.word	1065344324
 3479 0820 5FD37F3F 		.word	1065341791
 3480 0824 3BC87F3F 		.word	1065338939
 3481 0828 E8BB7F3F 		.word	1065335784
 3482 082c 47AE7F3F 		.word	1065332295
 3483 0830 779F7F3F 		.word	1065328503
 3484 0834 698F7F3F 		.word	1065324393
 3485 0838 1C7E7F3F 		.word	1065319964
 3486 083c A06B7F3F 		.word	1065315232
 3487 0840 E6577F3F 		.word	1065310182
 3488 0844 EE427F3F 		.word	1065304814
 3489 0848 B62C7F3F 		.word	1065299126
 3490 084c 40157F3F 		.word	1065293120
 3491 0850 9CFC7E3F 		.word	1065286812
ARM GAS  /var/folders/n6/c271nzx11xl4r4_m7sqjlt0m0000gn/T//ccGo3Vqh.s 			page 173


 3492 0854 B9E27E3F 		.word	1065280185
 3493 0858 97C77E3F 		.word	1065273239
 3494 085c 47AB7E3F 		.word	1065265991
 3495 0860 B98D7E3F 		.word	1065258425
 3496 0864 EB6E7E3F 		.word	1065250539
 3497 0868 F04E7E3F 		.word	1065242352
 3498 086c B62D7E3F 		.word	1065233846
 3499 0870 3D0B7E3F 		.word	1065225021
 3500 0874 96E77D3F 		.word	1065215894
 3501 0878 C2C27D3F 		.word	1065206466
 3502 087c 9D9C7D3F 		.word	1065196701
 3503 0880 5C757D3F 		.word	1065186652
 3504 0884 DB4C7D3F 		.word	1065176283
 3505 0888 1C237D3F 		.word	1065165596
 3506 088c 2FF87C3F 		.word	1065154607
 3507 0890 03CC7C3F 		.word	1065143299
 3508 0894 AA9E7C3F 		.word	1065131690
 3509 0898 22707C3F 		.word	1065119778
 3510 089c 6C407C3F 		.word	1065107564
 3511 08a0 770F7C3F 		.word	1065095031
 3512 08a4 55DD7B3F 		.word	1065082197
 3513 08a8 F4A97B3F 		.word	1065069044
 3514 08ac 64757B3F 		.word	1065055588
 3515 08b0 B83F7B3F 		.word	1065041848
 3516 08b4 CC087B3F 		.word	1065027788
 3517 08b8 A2D07A3F 		.word	1065013410
 3518 08bc 5B977A3F 		.word	1064998747
 3519 08c0 E65C7A3F 		.word	1064983782
 3520 08c4 42217A3F 		.word	1064968514
 3521 08c8 60E4793F 		.word	1064952928
 3522 08cc 61A6793F 		.word	1064937057
 3523 08d0 3467793F 		.word	1064920884
 3524 08d4 D926793F 		.word	1064904409
 3525 08d8 4FE5783F 		.word	1064887631
 3526 08dc 98A2783F 		.word	1064870552
 3527 08e0 B35E783F 		.word	1064853171
 3528 08e4 B119783F 		.word	1064835505
 3529 08e8 80D3773F 		.word	1064817536
 3530 08ec 338C773F 		.word	1064799283
 3531 08f0 A643773F 		.word	1064780710
 3532 08f4 FDF9763F 		.word	1064761853
 3533 08f8 36AF763F 		.word	1064742710
 3534 08fc 4163763F 		.word	1064723265
 3535 0900 2F16763F 		.word	1064703535
 3536 0904 EFC7753F 		.word	1064683503
 3537 0908 9278753F 		.word	1064663186
 3538 090c 1728753F 		.word	1064642583
 3539 0910 6FD6743F 		.word	1064621679
 3540 0914 A983743F 		.word	1064600489
 3541 0918 C72F743F 		.word	1064579015
 3542 091c C7DA733F 		.word	1064557255
 3543 0920 A984733F 		.word	1064535209
 3544 0924 6F2D733F 		.word	1064512879
 3545 0928 17D5723F 		.word	1064490263
 3546 092c A27B723F 		.word	1064467362
 3547 0930 1021723F 		.word	1064444176
 3548 0934 61C5713F 		.word	1064420705
ARM GAS  /var/folders/n6/c271nzx11xl4r4_m7sqjlt0m0000gn/T//ccGo3Vqh.s 			page 174


 3549 0938 9468713F 		.word	1064396948
 3550 093c BB0A713F 		.word	1064372923
 3551 0940 C5AB703F 		.word	1064348613
 3552 0944 B24B703F 		.word	1064324018
 3553 0948 92EA6F3F 		.word	1064299154
 3554 094c 66886F3F 		.word	1064274022
 3555 0950 1C256F3F 		.word	1064248604
 3556 0954 B5C06E3F 		.word	1064222901
 3557 0958 535B6E3F 		.word	1064196947
 3558 095c D3F46D3F 		.word	1064170707
 3559 0960 378D6D3F 		.word	1064144183
 3560 0964 9E246D3F 		.word	1064117406
 3561 0968 F9BA6C3F 		.word	1064090361
 3562 096c 37506C3F 		.word	1064063031
 3563 0970 7AE46B3F 		.word	1064035450
 3564 0974 AF776B3F 		.word	1064007599
 3565 0978 D9096B3F 		.word	1063979481
 3566 097c F69A6A3F 		.word	1063951094
 3567 0980 062B6A3F 		.word	1063922438
 3568 0984 1BBA693F 		.word	1063893531
 3569 0988 2448693F 		.word	1063864356
 3570 098c 30D5683F 		.word	1063834928
 3571 0990 3161683F 		.word	1063805233
 3572 0994 35EC673F 		.word	1063775285
 3573 0998 2E76673F 		.word	1063745070
 3574 099c 2AFF663F 		.word	1063714602
 3575 09a0 3C87663F 		.word	1063683900
 3576 09a4 410E663F 		.word	1063652929
 3577 09a8 3A94653F 		.word	1063621690
 3578 09ac 4819653F 		.word	1063590216
 3579 09b0 6B9D643F 		.word	1063558507
 3580 09b4 8120643F 		.word	1063526529
 3581 09b8 9CA2633F 		.word	1063494300
 3582 09bc CD23633F 		.word	1063461837
 3583 09c0 01A4623F 		.word	1063429121
 3584 09c4 4B23623F 		.word	1063396171
 3585 09c8 98A1613F 		.word	1063362968
 3586 09cc FB1E613F 		.word	1063329531
 3587 09d0 749B603F 		.word	1063295860
 3588 09d4 F016603F 		.word	1063261936
 3589 09d8 82915F3F 		.word	1063227778
 3590 09dc 280B5F3F 		.word	1063193384
 3591 09e0 E4835E3F 		.word	1063158756
 3592 09e4 B5FB5D3F 		.word	1063123893
 3593 09e8 9B725D3F 		.word	1063088795
 3594 09ec A7E85C3F 		.word	1063053479
 3595 09f0 C85D5C3F 		.word	1063017928
 3596 09f4 FED15B3F 		.word	1062982142
 3597 09f8 5A455B3F 		.word	1062946138
 3598 09fc CCB75A3F 		.word	1062909900
 3599 0a00 63295A3F 		.word	1062873443
 3600 0a04 0F9A593F 		.word	1062836751
 3601 0a08 F209593F 		.word	1062799858
 3602 0a0c EA78583F 		.word	1062762730
 3603 0a10 08E7573F 		.word	1062725384
 3604 0a14 4C54573F 		.word	1062687820
 3605 0a18 C6C0563F 		.word	1062650054
ARM GAS  /var/folders/n6/c271nzx11xl4r4_m7sqjlt0m0000gn/T//ccGo3Vqh.s 			page 175


 3606 0a1c 562C563F 		.word	1062612054
 3607 0a20 1C97553F 		.word	1062573852
 3608 0a24 0801553F 		.word	1062535432
 3609 0a28 2B6A543F 		.word	1062496811
 3610 0a2c 74D2533F 		.word	1062457972
 3611 0a30 F339533F 		.word	1062418931
 3612 0a34 A9A0523F 		.word	1062379689
 3613 0a38 9606523F 		.word	1062340246
 3614 0a3c A96B513F 		.word	1062300585
 3615 0a40 F2CF503F 		.word	1062260722
 3616 0a44 8333503F 		.word	1062220675
 3617 0a48 4A964F3F 		.word	1062180426
 3618 0a4c 48F84E3F 		.word	1062139976
 3619 0a50 7D594E3F 		.word	1062099325
 3620 0a54 FAB94D3F 		.word	1062058490
 3621 0a58 AC194D3F 		.word	1062017452
 3622 0a5c A7784C3F 		.word	1061976231
 3623 0a60 E9D64B3F 		.word	1061934825
 3624 0a64 61344B3F 		.word	1061893217
 3625 0a68 32914A3F 		.word	1061851442
 3626 0a6c 39ED493F 		.word	1061809465
 3627 0a70 9948493F 		.word	1061767321
 3628 0a74 40A3483F 		.word	1061724992
 3629 0a78 2FFD473F 		.word	1061682479
 3630 0a7c 6556473F 		.word	1061639781
 3631 0a80 F3AE463F 		.word	1061596915
 3632 0a84 D906463F 		.word	1061553881
 3633 0a88 075E453F 		.word	1061510663
 3634 0a8c 8DB4443F 		.word	1061467277
 3635 0a90 6C0A443F 		.word	1061423724
 3636 0a94 A25F433F 		.word	1061380002
 3637 0a98 31B4423F 		.word	1061336113
 3638 0a9c 1808423F 		.word	1061292056
 3639 0aa0 575B413F 		.word	1061247831
 3640 0aa4 00AE403F 		.word	1061203456
 3641 0aa8 0000403F 		.word	1061158912
 3642 0aac 69513F3F 		.word	1061114217
 3643 0ab0 2BA23E3F 		.word	1061069355
 3644 0ab4 56F23D3F 		.word	1061024342
 3645 0ab8 FA413D3F 		.word	1060979194
 3646 0abc F7903C3F 		.word	1060933879
 3647 0ac0 5DDF3B3F 		.word	1060888413
 3648 0ac4 2C2D3B3F 		.word	1060842796
 3649 0ac8 747A3A3F 		.word	1060797044
 3650 0acc 26C7393F 		.word	1060751142
 3651 0ad0 4013393F 		.word	1060705088
 3652 0ad4 D55E383F 		.word	1060658901
 3653 0ad8 E3A9373F 		.word	1060612579
 3654 0adc 5AF4363F 		.word	1060566106
 3655 0ae0 5C3E363F 		.word	1060519516
 3656 0ae4 C687353F 		.word	1060472774
 3657 0ae8 BBD0343F 		.word	1060425915
 3658 0aec 2A19343F 		.word	1060378922
 3659 0af0 1361333F 		.word	1060331795
 3660 0af4 76A8323F 		.word	1060284534
 3661 0af8 63EF313F 		.word	1060237155
 3662 0afc DB35313F 		.word	1060189659
ARM GAS  /var/folders/n6/c271nzx11xl4r4_m7sqjlt0m0000gn/T//ccGo3Vqh.s 			page 176


 3663 0b00 CC7B303F 		.word	1060142028
 3664 0b04 59C12F3F 		.word	1060094297
 3665 0b08 60062F3F 		.word	1060046432
 3666 0b0c F14A2E3F 		.word	1059998449
 3667 0b10 1D8F2D3F 		.word	1059950365
 3668 0b14 D4D22C3F 		.word	1059902164
 3669 0b18 16162C3F 		.word	1059853846
 3670 0b1c F3582B3F 		.word	1059805427
 3671 0b20 5A9B2A3F 		.word	1059756890
 3672 0b24 5DDD293F 		.word	1059708253
 3673 0b28 FB1E293F 		.word	1059659515
 3674 0b2c 3560283F 		.word	1059610677
 3675 0b30 0AA1273F 		.word	1059561738
 3676 0b34 7AE1263F 		.word	1059512698
 3677 0b38 8621263F 		.word	1059463558
 3678 0b3c 3D61253F 		.word	1059414333
 3679 0b40 90A0243F 		.word	1059365008
 3680 0b44 7FDF233F 		.word	1059315583
 3681 0b48 2A1E233F 		.word	1059266090
 3682 0b4c 705C223F 		.word	1059216496
 3683 0b50 749A213F 		.word	1059166836
 3684 0b54 12D8203F 		.word	1059117074
 3685 0b58 5D15203F 		.word	1059067229
 3686 0b5c 65521F3F 		.word	1059017317
 3687 0b60 198F1E3F 		.word	1058967321
 3688 0b64 8ACB1D3F 		.word	1058917258
 3689 0b68 A7071D3F 		.word	1058867111
 3690 0b6c 81431C3F 		.word	1058816897
 3691 0b70 177F1B3F 		.word	1058766615
 3692 0b74 5ABA1A3F 		.word	1058716250
 3693 0b78 6AF5193F 		.word	1058665834
 3694 0b7c 3830193F 		.word	1058615352
 3695 0b80 C26A183F 		.word	1058564802
 3696 0b84 1AA5173F 		.word	1058514202
 3697 0b88 2FDF163F 		.word	1058463535
 3698 0b8c 1119163F 		.word	1058412817
 3699 0b90 C152153F 		.word	1058362049
 3700 0b94 2E8C143F 		.word	1058311214
 3701 0b98 69C5133F 		.word	1058260329
 3702 0b9c 82FE123F 		.word	1058209410
 3703 0ba0 5837123F 		.word	1058158424
 3704 0ba4 0D70113F 		.word	1058107405
 3705 0ba8 A0A8103F 		.word	1058056352
 3706 0bac 00E10F3F 		.word	1058005248
 3707 0bb0 2F190F3F 		.word	1057954095
 3708 0bb4 4C510E3F 		.word	1057902924
 3709 0bb8 37890D3F 		.word	1057851703
 3710 0bbc 01C10C3F 		.word	1057800449
 3711 0bc0 BAF80B3F 		.word	1057749178
 3712 0bc4 40300B3F 		.word	1057697856
 3713 0bc8 B6670A3F 		.word	1057646518
 3714 0bcc 1B9F093F 		.word	1057595163
 3715 0bd0 5ED6083F 		.word	1057543774
 3716 0bd4 910D083F 		.word	1057492369
 3717 0bd8 A244073F 		.word	1057440930
 3718 0bdc B37B063F 		.word	1057389491
 3719 0be0 A2B2053F 		.word	1057338018
ARM GAS  /var/folders/n6/c271nzx11xl4r4_m7sqjlt0m0000gn/T//ccGo3Vqh.s 			page 177


 3720 0be4 92E9043F 		.word	1057286546
 3721 0be8 7120043F 		.word	1057235057
 3722 0bec 3F57033F 		.word	1057183551
 3723 0bf0 0D8E023F 		.word	1057132045
 3724 0bf4 CAC4013F 		.word	1057080522
 3725 0bf8 98FB003F 		.word	1057029016
 3726 0bfc 5532003F 		.word	1056977493
 3727 0c00 24D2FE3E 		.word	1056887332
 3728 0c04 9E3FFD3E 		.word	1056784286
 3729 0c08 19ADFB3E 		.word	1056681241
 3730 0c0c B51AFA3E 		.word	1056578229
 3731 0c10 5188F83E 		.word	1056475217
 3732 0c14 0EF6F63E 		.word	1056372238
 3733 0c18 CC63F53E 		.word	1056269260
 3734 0c1c ABD1F33E 		.word	1056166315
 3735 0c20 AB3FF23E 		.word	1056063403
 3736 0c24 CDADF03E 		.word	1055960525
 3737 0c28 111CEF3E 		.word	1055857681
 3738 0c2c 988AED3E 		.word	1055754904
 3739 0c30 1EF9EB3E 		.word	1055652126
 3740 0c34 E867EA3E 		.word	1055549416
 3741 0c38 F5D6E83E 		.word	1055446773
 3742 0c3c 4546E73E 		.word	1055344197
 3743 0c40 B7B5E53E 		.word	1055241655
 3744 0c44 6C25E43E 		.word	1055139180
 3745 0c48 8595E23E 		.word	1055036805
 3746 0c4c C005E13E 		.word	1054934464
 3747 0c50 6076DF3E 		.word	1054832224
 3748 0c54 43E7DD3E 		.word	1054730051
 3749 0c58 8A58DC3E 		.word	1054627978
 3750 0c5c 15CADA3E 		.word	1054525973
 3751 0c60 043CD93E 		.word	1054424068
 3752 0c64 58AED73E 		.word	1054322264
 3753 0c68 1021D63E 		.word	1054220560
 3754 0c6c 2D94D43E 		.word	1054118957
 3755 0c70 AF07D33E 		.word	1054017455
 3756 0c74 967BD13E 		.word	1053916054
 3757 0c78 02F0CF3E 		.word	1053814786
 3758 0c7c F564CE3E 		.word	1053713653
 3759 0c80 4DDACC3E 		.word	1053612621
 3760 0c84 2B50CB3E 		.word	1053511723
 3761 0c88 6DC6C93E 		.word	1053410925
 3762 0c8c 573DC83E 		.word	1053310295
 3763 0c90 C8B4C63E 		.word	1053209800
 3764 0c94 BF2CC53E 		.word	1053109439
 3765 0c98 5DA5C33E 		.word	1053009245
 3766 0c9c 601EC23E 		.word	1052909152
 3767 0ca0 2D98C03E 		.word	1052809261
 3768 0ca4 7F12BF3E 		.word	1052709503
 3769 0ca8 7A8DBD3E 		.word	1052609914
 3770 0cac FA08BC3E 		.word	1052510458
 3771 0cb0 4485BA3E 		.word	1052411204
 3772 0cb4 3602B93E 		.word	1052312118
 3773 0cb8 D07FB73E 		.word	1052213200
 3774 0cbc 33FEB53E 		.word	1052114483
 3775 0cc0 3D7DB43E 		.word	1052015933
 3776 0cc4 F0FCB23E 		.word	1051917552
ARM GAS  /var/folders/n6/c271nzx11xl4r4_m7sqjlt0m0000gn/T//ccGo3Vqh.s 			page 178


 3777 0cc8 6B7DB13E 		.word	1051819371
 3778 0ccc B0FEAF3E 		.word	1051721392
 3779 0cd0 BF80AE3E 		.word	1051623615
 3780 0cd4 9703AD3E 		.word	1051526039
 3781 0cd8 3887AB3E 		.word	1051428664
 3782 0cdc A20BAA3E 		.word	1051331490
 3783 0ce0 D690A83E 		.word	1051234518
 3784 0ce4 F416A73E 		.word	1051137780
 3785 0ce8 FE9DA53E 		.word	1051041278
 3786 0cec D025A43E 		.word	1050944976
 3787 0cf0 8EAEA23E 		.word	1050848910
 3788 0cf4 3738A13E 		.word	1050753079
 3789 0cf8 CAC29F3E 		.word	1050657482
 3790 0cfc 274E9E3E 		.word	1050562087
 3791 0d00 90DA9C3E 		.word	1050466960
 3792 0d04 06689B3E 		.word	1050372102
 3793 0d08 66F6993E 		.word	1050277478
 3794 0d0c B285983E 		.word	1050183090
 3795 0d10 0916973E 		.word	1050088969
 3796 0d14 4CA7953E 		.word	1049995084
 3797 0d18 BD39943E 		.word	1049901501
 3798 0d1c 18CD923E 		.word	1049808152
 3799 0d20 A261913E 		.word	1049715106
 3800 0d24 38F78F3E 		.word	1049622328
 3801 0d28 B98D8E3E 		.word	1049529785
 3802 0d2c 89258D3E 		.word	1049437577
 3803 0d30 44BE8B3E 		.word	1049345604
 3804 0d34 4F588A3E 		.word	1049253967
 3805 0d38 67F3883E 		.word	1049162599
 3806 0d3c 8A8F873E 		.word	1049071498
 3807 0d40 FE2C863E 		.word	1048980734
 3808 0d44 7DCB843E 		.word	1048890237
 3809 0d48 4C6B833E 		.word	1048800076
 3810 0d4c 4A0C823E 		.word	1048710218
 3811 0d50 75AE803E 		.word	1048620661
 3812 0d54 9CA37E3E 		.word	1048486812
 3813 0d58 EEEC7B3E 		.word	1048308974
 3814 0d5c DE38793E 		.word	1048131806
 3815 0d60 2B87763E 		.word	1047955243
 3816 0d64 17D8733E 		.word	1047779351
 3817 0d68 A12B713E 		.word	1047604129
 3818 0d6c CB816E3E 		.word	1047429579
 3819 0d70 94DA6B3E 		.word	1047255700
 3820 0d74 FC35693E 		.word	1047082492
 3821 0d78 0394663E 		.word	1046909955
 3822 0d7c EDF4633E 		.word	1046738157
 3823 0d80 7558613E 		.word	1046567029
 3824 0d84 E0BE5E3E 		.word	1046396640
 3825 0d88 E9275C3E 		.word	1046226921
 3826 0d8c 1894593E 		.word	1046058008
 3827 0d90 E602573E 		.word	1045889766
 3828 0d94 9774543E 		.word	1045722263
 3829 0d98 E6E8513E 		.word	1045555430
 3830 0d9c 9E604F3E 		.word	1045389470
 3831 0da0 F5DA4C3E 		.word	1045224181
 3832 0da4 71584A3E 		.word	1045059697
 3833 0da8 CFD8473E 		.word	1044895951
ARM GAS  /var/folders/n6/c271nzx11xl4r4_m7sqjlt0m0000gn/T//ccGo3Vqh.s 			page 179


 3834 0dac 105C453E 		.word	1044732944
 3835 0db0 76E2423E 		.word	1044570742
 3836 0db4 016C403E 		.word	1044409345
 3837 0db8 B1F83D3E 		.word	1044248753
 3838 0dbc 44883B3E 		.word	1044088900
 3839 0dc0 3F1B393E 		.word	1043929919
 3840 0dc4 1CB1363E 		.word	1043771676
 3841 0dc8 624A343E 		.word	1043614306
 3842 0dcc CDE6313E 		.word	1043457741
 3843 0dd0 5D862F3E 		.word	1043301981
 3844 0dd4 13292D3E 		.word	1043147027
 3845 0dd8 31CF2A3E 		.word	1042992945
 3846 0ddc B878283E 		.word	1042839736
 3847 0de0 6325263E 		.word	1042687331
 3848 0de4 78D5233E 		.word	1042535800
 3849 0de8 F488213E 		.word	1042385140
 3850 0dec D93F1F3E 		.word	1042235353
 3851 0df0 E4F91C3E 		.word	1042086372
 3852 0df4 99B71A3E 		.word	1041938329
 3853 0df8 B878183E 		.word	1041791160
 3854 0dfc 3E3D163E 		.word	1041644862
 3855 0e00 7105143E 		.word	1041499505
 3856 0e04 0BD1113E 		.word	1041355019
 3857 0e08 0EA00F3E 		.word	1041211406
 3858 0e0c BD720D3E 		.word	1041068733
 3859 0e10 17490B3E 		.word	1040926999
 3860 0e14 D922093E 		.word	1040786137
 3861 0e18 4700073E 		.word	1040646215
 3862 0e1c 61E1043E 		.word	1040507233
 3863 0e20 26C6023E 		.word	1040369190
 3864 0e24 97AE003E 		.word	1040232087
 3865 0e28 EB35FD3D 		.word	1040004587
 3866 0e2c 7B15F93D 		.word	1039734139
 3867 0e30 E7FCF43D 		.word	1039465703
 3868 0e34 ABEBF03D 		.word	1039199147
 3869 0e38 C6E1EC3D 		.word	1038934470
 3870 0e3c BDDFE83D 		.word	1038671805
 3871 0e40 0CE5E43D 		.word	1038411020
 3872 0e44 BFF2E03D 		.word	1038152383
 3873 0e48 4207DD3D 		.word	1037895490
 3874 0e4c 2924D93D 		.word	1037640745
 3875 0e50 ED48D53D 		.word	1037388013
 3876 0e54 0875D13D 		.word	1037137160
 3877 0e58 86A9CD3D 		.word	1036888454
 3878 0e5c 5CE5C93D 		.word	1036641628
 3879 0e60 9529C63D 		.word	1036396949
 3880 0e64 AB75C23D 		.word	1036154283
 3881 0e68 9FC9BE3D 		.word	1035913631
 3882 0e6c 7025BB3D 		.word	1035674992
 3883 0e70 A489B73D 		.word	1035438500
 3884 0e74 3CF6B33D 		.word	1035204156
 3885 0e78 B16AB03D 		.word	1034971825
 3886 0e7c 04E7AC3D 		.word	1034741508
 3887 0e80 BA6BA93D 		.word	1034513338
 3888 0e84 D3F8A53D 		.word	1034287315
 3889 0e88 508EA23D 		.word	1034063440
 3890 0e8c 302C9F3D 		.word	1033841712
ARM GAS  /var/folders/n6/c271nzx11xl4r4_m7sqjlt0m0000gn/T//ccGo3Vqh.s 			page 180


 3891 0e90 EED19B3D 		.word	1033621998
 3892 0e94 9580983D 		.word	1033404565
 3893 0e98 A037953D 		.word	1033189280
 3894 0e9c 88F6913D 		.word	1032976008
 3895 0ea0 59BE8E3D 		.word	1032765017
 3896 0ea4 8F8E8B3D 		.word	1032556175
 3897 0ea8 AE67883D 		.word	1032349614
 3898 0eac 3049853D 		.word	1032145200
 3899 0eb0 1633823D 		.word	1031942934
 3900 0eb4 CB4B7E3D 		.word	1031687115
 3901 0eb8 3142783D 		.word	1031291441
 3902 0ebc 6B4A723D 		.word	1030900331
 3903 0ec0 6B636C3D 		.word	1030513515
 3904 0ec4 3F8E663D 		.word	1030131263
 3905 0ec8 E6CA603D 		.word	1029753574
 3906 0ecc 55185B3D 		.word	1029380181
 3907 0ed0 A378553D 		.word	1029011619
 3908 0ed4 B8E94F3D 		.word	1028647352
 3909 0ed8 A06C4A3D 		.word	1028287648
 3910 0edc 6902453D 		.word	1027932777
 3911 0ee0 F8A83F3D 		.word	1027582200
 3912 0ee4 5B613A3D 		.word	1027236187
 3913 0ee8 9D2C353D 		.word	1026895005
 3914 0eec B309303D 		.word	1026558387
 3915 0ef0 9CF82A3D 		.word	1026226332
 3916 0ef4 59F9253D 		.word	1025898841
 3917 0ef8 F60C213D 		.word	1025576182
 3918 0efc 66321C3D 		.word	1025258086
 3919 0f00 A969173D 		.word	1024944553
 3920 0f04 CCB3123D 		.word	1024635852
 3921 0f08 C30F0E3D 		.word	1024331715
 3922 0f0c 997E093D 		.word	1024032409
 3923 0f10 5000053D 		.word	1023737936
 3924 0f14 D993003D 		.word	1023448025
 3925 0f18 8674F83C 		.word	1022915718
 3926 0f1c 19E7EF3C 		.word	1022355225
 3927 0f20 527DE73C 		.word	1021803858
 3928 0f24 4B39DF3C 		.word	1021262155
 3929 0f28 041BD73C 		.word	1020730116
 3930 0f2c 7D22CF3C 		.word	1020207741
 3931 0f30 B54FC73C 		.word	1019695029
 3932 0f34 94A0BF3C 		.word	1019191444
 3933 0f38 4C19B83C 		.word	1018698060
 3934 0f3c C3B7B03C 		.word	1018214339
 3935 0f40 E179A93C 		.word	1017739745
 3936 0f44 D863A23C 		.word	1017275352
 3937 0f48 8E739B3C 		.word	1016820622
 3938 0f4c 04A9943C 		.word	1016375556
 3939 0f50 3A048E3C 		.word	1015940154
 3940 0f54 4887873C 		.word	1015514952
 3941 0f58 1630813C 		.word	1015099414
 3942 0f5c 48FD753C 		.word	1014365512
 3943 0f60 E2E5693C 		.word	1013573090
 3944 0f64 FC195E3C 		.word	1012799996
 3945 0f68 C79D523C 		.word	1012047303
 3946 0f6c 4371473C 		.word	1011315011
 3947 0f70 0D8C3C3C 		.word	1010600973
ARM GAS  /var/folders/n6/c271nzx11xl4r4_m7sqjlt0m0000gn/T//ccGo3Vqh.s 			page 181


 3948 0f74 88F6313C 		.word	1009907336
 3949 0f78 B4B0273C 		.word	1009234100
 3950 0f7c 5FB61D3C 		.word	1008580191
 3951 0f80 BB0B143C 		.word	1007946683
 3952 0f84 97AC0A3C 		.word	1007332503
 3953 0f88 F298013C 		.word	1006737650
 3954 0f8c 5FB2F13B 		.word	1005695583
 3955 0f90 76C1E03B 		.word	1004585334
 3956 0f94 5378D03B 		.word	1003518035
 3957 0f98 2EC6C03B 		.word	1002489390
 3958 0f9c 08ABB13B 		.word	1001499400
 3959 0fa0 A837A33B 		.word	1000552360
 3960 0fa4 465B953B 		.word	999643974
 3961 0fa8 E415883B 		.word	998774244
 3962 0fac 8DF0763B 		.word	997650573
 3963 0fb0 50E35E3B 		.word	996074320
 3964 0fb4 1004483B 		.word	994575376
 3965 0fb8 5C74323B 		.word	993162332
 3966 0fbc A5121E3B 		.word	991826597
 3967 0fc0 B3EF0A3B 		.word	990572467
 3968 0fc4 0917F23A 		.word	988944137
 3969 0fc8 36CCD03A 		.word	986762294
 3970 0fcc 5DDDB13A 		.word	984735069
 3971 0fd0 9B8D953A 		.word	982879643
 3972 0fd4 A933773A 		.word	980890537
 3973 0fd8 2C47483A 		.word	977815340
 3974 0fdc A5121E3A 		.word	975049381
 3975 0fe0 9738F239 		.word	972175511
 3976 0fe4 CFBBB139 		.word	967949263
 3977 0fe8 C5767739 		.word	964130501
 3978 0fec C1551E39 		.word	958289345
 3979 0ff0 0742B238 		.word	951206407
 3980 0ff4 30621F38 		.word	941580848
 3981 0ff8 B5FE1637 		.word	924253877
 3982 0ffc 00000000 		.word	0
 3983              		.global	hammingWindow
 3984              		.section	.rodata.hammingWindow,"a"
 3985              		.align	2
 3988              	hammingWindow:
 3989 0000 0AD7A33D 		.word	1034147594
 3990 0004 C2DBA33D 		.word	1034148802
 3991 0008 64E9A33D 		.word	1034152292
 3992 000c EFFFA33D 		.word	1034158063
 3993 0010 EB1FA43D 		.word	1034166251
 3994 0014 CF48A43D 		.word	1034176719
 3995 0018 9E7AA43D 		.word	1034189470
 3996 001c DDB5A43D 		.word	1034204637
 3997 0020 05FAA43D 		.word	1034222085
 3998 0024 9D47A53D 		.word	1034241949
 3999 0028 999DA53D 		.word	1034263961
 4000 002c 05FDA53D 		.word	1034288389
 4001 0030 E065A63D 		.word	1034315232
 4002 0034 A5D7A63D 		.word	1034344357
 4003 0038 5452A73D 		.word	1034375764
 4004 003c EDD5A73D 		.word	1034409453
 4005 0040 6F62A83D 		.word	1034445423
 4006 0044 62F8A83D 		.word	1034483810
ARM GAS  /var/folders/n6/c271nzx11xl4r4_m7sqjlt0m0000gn/T//ccGo3Vqh.s 			page 182


 4007 0048 3E97A93D 		.word	1034524478
 4008 004c 8A3FAA3D 		.word	1034567562
 4009 0050 39F0AA3D 		.word	1034612793
 4010 0054 58AAAB3D 		.word	1034660440
 4011 0058 616DAC3D 		.word	1034710369
 4012 005c 5439AD3D 		.word	1034762580
 4013 0060 B60EAE3D 		.word	1034817206
 4014 0064 7DECAE3D 		.word	1034873981
 4015 0068 B3D3AF3D 		.word	1034933171
 4016 006c D2C3B03D 		.word	1034994642
 4017 0070 56BCB13D 		.word	1035058262
 4018 0074 CFBEB23D 		.word	1035124431
 4019 0078 ACC9B33D 		.word	1035192748
 4020 007c 72DDB43D 		.word	1035263346
 4021 0080 22FAB53D 		.word	1035336226
 4022 0084 BC1FB73D 		.word	1035411388
 4023 0088 404EB83D 		.word	1035488832
 4024 008c 3486B93D 		.word	1035568692
 4025 0090 8BC6BA3D 		.word	1035650699
 4026 0094 CB0FBC3D 		.word	1035734987
 4027 0098 F661BD3D 		.word	1035821558
 4028 009c 0ABDBE3D 		.word	1035910410
 4029 00a0 8120C03D 		.word	1036001409
 4030 00a4 698DC13D 		.word	1036094825
 4031 00a8 B402C33D 		.word	1036190388
 4032 00ac 6F81C43D 		.word	1036288367
 4033 00b0 0708C63D 		.word	1036388359
 4034 00b4 0F98C73D 		.word	1036490767
 4035 00b8 7B30C93D 		.word	1036595323
 4036 00bc D0D1CA3D 		.word	1036702160
 4037 00c0 0F7CCC3D 		.word	1036811279
 4038 00c4 B22ECE3D 		.word	1036922546
 4039 00c8 3EEACF3D 		.word	1037036094
 4040 00cc 2EAED13D 		.word	1037151790
 4041 00d0 077BD33D 		.word	1037269767
 4042 00d4 4450D53D 		.word	1037389892
 4043 00d8 6A2ED73D 		.word	1037512298
 4044 00dc F514D93D 		.word	1037636853
 4045 00e0 6804DB3D 		.word	1037763688
 4046 00e4 40FCDC3D 		.word	1037892672
 4047 00e8 7AFCDE3D 		.word	1038023802
 4048 00ec 1805E13D 		.word	1038157080
 4049 00f0 A016E33D 		.word	1038292640
 4050 00f4 8C30E53D 		.word	1038430348
 4051 00f8 DB52E73D 		.word	1038570203
 4052 00fc 8D7DE93D 		.word	1038712205
 4053 0100 A3B0EB3D 		.word	1038856355
 4054 0104 1CECED3D 		.word	1039002652
 4055 0108 F92FF03D 		.word	1039151097
 4056 010c BF7CF23D 		.word	1039301823
 4057 0110 63D1F43D 		.word	1039454563
 4058 0114 E42DF73D 		.word	1039609316
 4059 0118 4F93F93D 		.word	1039766351
 4060 011c 1D01FC3D 		.word	1039925533
 4061 0120 C976FE3D 		.word	1040086729
 4062 0124 6C7A003E 		.word	1040218732
 4063 0128 62BD013E 		.word	1040301410
ARM GAS  /var/folders/n6/c271nzx11xl4r4_m7sqjlt0m0000gn/T//ccGo3Vqh.s 			page 183


 4064 012c 8A04033E 		.word	1040385162
 4065 0130 E34F043E 		.word	1040469987
 4066 0134 2C9F053E 		.word	1040555820
 4067 0138 A6F2063E 		.word	1040642726
 4068 013c 0E4A083E 		.word	1040730638
 4069 0140 65A5093E 		.word	1040819557
 4070 0144 EE040B3E 		.word	1040909550
 4071 0148 66680C3E 		.word	1041000550
 4072 014c CCCF0D3E 		.word	1041092556
 4073 0150 213B0F3E 		.word	1041185569
 4074 0154 A8AA103E 		.word	1041279656
 4075 0158 DA1D123E 		.word	1041374682
 4076 015c FB94133E 		.word	1041470715
 4077 0160 4D10153E 		.word	1041567821
 4078 0164 4B8F163E 		.word	1041665867
 4079 0168 3812183E 		.word	1041764920
 4080 016c 1399193E 		.word	1041864979
 4081 0170 9A231B3E 		.word	1041965978
 4082 0174 10B21C3E 		.word	1042067984
 4083 0178 74441E3E 		.word	1042170996
 4084 017c 83DA1F3E 		.word	1042274947
 4085 0180 8274213E 		.word	1042379906
 4086 0184 2B12233E 		.word	1042485803
 4087 0188 C4B3243E 		.word	1042592708
 4088 018c 0859263E 		.word	1042700552
 4089 0190 F701283E 		.word	1042809335
 4090 0194 92AE293E 		.word	1042919058
 4091 0198 1C5F2B3E 		.word	1043029788
 4092 019c 0E132D3E 		.word	1043141390
 4093 01a0 EFCA2E3E 		.word	1043253999
 4094 01a4 3886303E 		.word	1043367480
 4095 01a8 2C45323E 		.word	1043481900
 4096 01ac CC07343E 		.word	1043597260
 4097 01b0 18CE353E 		.word	1043713560
 4098 01b4 0F98373E 		.word	1043830799
 4099 01b8 6F65393E 		.word	1043948911
 4100 01bc 37363B3E 		.word	1044067895
 4101 01c0 AA0A3D3E 		.word	1044187818
 4102 01c4 CAE23E3E 		.word	1044308682
 4103 01c8 51BE403E 		.word	1044430417
 4104 01cc 419D423E 		.word	1044553025
 4105 01d0 997F443E 		.word	1044676505
 4106 01d4 9D65463E 		.word	1044800925
 4107 01d8 C64E483E 		.word	1044926150
 4108 01dc 9B3B4A3E 		.word	1045052315
 4109 01e0 952B4C3E 		.word	1045179285
 4110 01e4 F71E4E3E 		.word	1045307127
 4111 01e8 C215503E 		.word	1045435842
 4112 01ec F50F523E 		.word	1045565429
 4113 01f0 4E0D543E 		.word	1045695822
 4114 01f4 0F0E563E 		.word	1045827087
 4115 01f8 3812583E 		.word	1045959224
 4116 01fc 87195A3E 		.word	1046092167
 4117 0200 FB235C3E 		.word	1046225915
 4118 0204 94315E3E 		.word	1046360468
 4119 0208 9642603E 		.word	1046495894
 4120 020c 7A56623E 		.word	1046632058
ARM GAS  /var/folders/n6/c271nzx11xl4r4_m7sqjlt0m0000gn/T//ccGo3Vqh.s 			page 184


 4121 0210 C66D643E 		.word	1046769094
 4122 0214 3788663E 		.word	1046906935
 4123 0218 CEA5683E 		.word	1047045582
 4124 021c 47C66A3E 		.word	1047184967
 4125 0220 E6E96C3E 		.word	1047325158
 4126 0224 AA106F3E 		.word	1047466154
 4127 0228 503A713E 		.word	1047607888
 4128 022c 1B67733E 		.word	1047750427
 4129 0230 C896753E 		.word	1047893704
 4130 0234 9BC9773E 		.word	1048037787
 4131 0238 0DFF793E 		.word	1048182541
 4132 023c A4377C3E 		.word	1048328100
 4133 0240 1D737E3E 		.word	1048474397
 4134 0244 BC58803E 		.word	1048598716
 4135 0248 5B79813E 		.word	1048672603
 4136 024c 6B9B823E 		.word	1048746859
 4137 0250 CBBE833E 		.word	1048821451
 4138 0254 BDE3843E 		.word	1048896445
 4139 0258 DD09863E 		.word	1048971741
 4140 025c 9031873E 		.word	1049047440
 4141 0260 715A883E 		.word	1049123441
 4142 0264 C284893E 		.word	1049199810
 4143 0268 64B08A3E 		.word	1049276516
 4144 026c 76DD8B3E 		.word	1049353590
 4145 0270 B70B8D3E 		.word	1049430967
 4146 0274 693B8E3E 		.word	1049508713
 4147 0278 486C8F3E 		.word	1049586760
 4148 027c 779E903E 		.word	1049665143
 4149 0280 F6D1913E 		.word	1049743862
 4150 0284 A306933E 		.word	1049822883
 4151 0288 9F3C943E 		.word	1049902239
 4152 028c EB73953E 		.word	1049981931
 4153 0290 43AC963E 		.word	1050061891
 4154 0294 0CE6973E 		.word	1050142220
 4155 0298 E220993E 		.word	1050222818
 4156 029c E65C9A3E 		.word	1050303718
 4157 02a0 179A9B3E 		.word	1050384919
 4158 02a4 99D89C3E 		.word	1050466457
 4159 02a8 26189E3E 		.word	1050548262
 4160 02ac C1589F3E 		.word	1050630337
 4161 02b0 AA9AA03E 		.word	1050712746
 4162 02b4 A0DDA13E 		.word	1050795424
 4163 02b8 A321A33E 		.word	1050878371
 4164 02bc D366A43E 		.word	1050961619
 4165 02c0 10ADA53E 		.word	1051045136
 4166 02c4 5AF4A63E 		.word	1051128922
 4167 02c8 B03CA83E 		.word	1051212976
 4168 02cc 1286A93E 		.word	1051297298
 4169 02d0 A2D0AA3E 		.word	1051381922
 4170 02d4 FC1BAC3E 		.word	1051466748
 4171 02d8 8368AD3E 		.word	1051551875
 4172 02dc F6B5AE3E 		.word	1051637238
 4173 02e0 7504B03E 		.word	1051722869
 4174 02e4 DF53B13E 		.word	1051808735
 4175 02e8 33A4B23E 		.word	1051894835
 4176 02ec 94F5B33E 		.word	1051981204
 4177 02f0 BF47B53E 		.word	1052067775
ARM GAS  /var/folders/n6/c271nzx11xl4r4_m7sqjlt0m0000gn/T//ccGo3Vqh.s 			page 185


 4178 02f4 F69AB63E 		.word	1052154614
 4179 02f8 17EFB73E 		.word	1052241687
 4180 02fc 0344B93E 		.word	1052328963
 4181 0300 D999BA3E 		.word	1052416473
 4182 0304 99F0BB3E 		.word	1052504217
 4183 0308 2448BD3E 		.word	1052592164
 4184 030c 99A0BE3E 		.word	1052680345
 4185 0310 D7F9BF3E 		.word	1052768727
 4186 0314 DF53C13E 		.word	1052857311
 4187 0318 D1AEC23E 		.word	1052946129
 4188 031c 6C0AC43E 		.word	1053035116
 4189 0320 CF66C53E 		.word	1053124303
 4190 0324 1EC4C63E 		.word	1053213726
 4191 0328 F321C83E 		.word	1053303283
 4192 032c B280C93E 		.word	1053393074
 4193 0330 1AE0CA3E 		.word	1053483034
 4194 0334 2940CC3E 		.word	1053573161
 4195 0338 01A1CD3E 		.word	1053663489
 4196 033c 8202CF3E 		.word	1053753986
 4197 0340 AA64D03E 		.word	1053844650
 4198 0344 7AC7D13E 		.word	1053935482
 4199 0348 132BD33E 		.word	1054026515
 4200 034c 118FD43E 		.word	1054117649
 4201 0350 D8F3D53E 		.word	1054208984
 4202 0354 2559D73E 		.word	1054300453
 4203 0358 1ABFD83E 		.word	1054392090
 4204 035c 9625DA3E 		.word	1054483862
 4205 0360 978CDB3E 		.word	1054575767
 4206 0364 41F4DC3E 		.word	1054667841
 4207 0368 705CDE3E 		.word	1054760048
 4208 036c 05C5DF3E 		.word	1054852357
 4209 0370 412EE13E 		.word	1054944833
 4210 0374 E197E23E 		.word	1055037409
 4211 0378 0802E43E 		.word	1055130120
 4212 037c B56CE53E 		.word	1055222965
 4213 0380 C7D7E63E 		.word	1055315911
 4214 0384 3D43E83E 		.word	1055408957
 4215 0388 3AAFE93E 		.word	1055502138
 4216 038c 9B1BEB3E 		.word	1055595419
 4217 0390 4088EC3E 		.word	1055688768
 4218 0394 6AF5ED3E 		.word	1055782250
 4219 0398 FA62EF3E 		.word	1055875834
 4220 039c CCD0F03E 		.word	1055969484
 4221 03a0 033FF23E 		.word	1056063235
 4222 03a4 9FADF33E 		.word	1056157087
 4223 03a8 7E1CF53E 		.word	1056251006
 4224 03ac A08BF63E 		.word	1056344992
 4225 03b0 05FBF73E 		.word	1056439045
 4226 03b4 CF6AF93E 		.word	1056533199
 4227 03b8 BADAFA3E 		.word	1056627386
 4228 03bc 0A4BFC3E 		.word	1056721674
 4229 03c0 7BBBFD3E 		.word	1056815995
 4230 03c4 302CFF3E 		.word	1056910384
 4231 03c8 944E003F 		.word	1056984724
 4232 03cc 1007013F 		.word	1057031952
 4233 03d0 BEBF013F 		.word	1057079230
 4234 03d4 6C78023F 		.word	1057126508
ARM GAS  /var/folders/n6/c271nzx11xl4r4_m7sqjlt0m0000gn/T//ccGo3Vqh.s 			page 186


 4235 03d8 3C31033F 		.word	1057173820
 4236 03dc 1CEA033F 		.word	1057221148
 4237 03e0 FDA2043F 		.word	1057268477
 4238 03e4 FF5B053F 		.word	1057315839
 4239 03e8 0115063F 		.word	1057363201
 4240 03ec 14CE063F 		.word	1057410580
 4241 03f0 2787073F 		.word	1057457959
 4242 03f4 4A40083F 		.word	1057505354
 4243 03f8 6EF9083F 		.word	1057552750
 4244 03fc 92B2093F 		.word	1057600146
 4245 0400 B56B0A3F 		.word	1057647541
 4246 0404 EA240B3F 		.word	1057694954
 4247 0408 0DDE0B3F 		.word	1057742349
 4248 040c 31970C3F 		.word	1057789745
 4249 0410 44500D3F 		.word	1057837124
 4250 0414 57090E3F 		.word	1057884503
 4251 0418 6AC20E3F 		.word	1057931882
 4252 041c 6C7B0F3F 		.word	1057979244
 4253 0420 5D34103F 		.word	1058026589
 4254 0424 3EED103F 		.word	1058073918
 4255 0428 0DA6113F 		.word	1058121229
 4256 042c CC5E123F 		.word	1058168524
 4257 0430 7A17133F 		.word	1058215802
 4258 0434 18D0133F 		.word	1058263064
 4259 0438 9488143F 		.word	1058310292
 4260 043c FF40153F 		.word	1058357503
 4261 0440 48F9153F 		.word	1058404680
 4262 0444 70B1163F 		.word	1058451824
 4263 0448 8869173F 		.word	1058498952
 4264 044c 6C21183F 		.word	1058546028
 4265 0450 40D9183F 		.word	1058593088
 4266 0454 E290193F 		.word	1058640098
 4267 0458 62481A3F 		.word	1058687074
 4268 045c C1FF1A3F 		.word	1058734017
 4269 0460 EDB61B3F 		.word	1058780909
 4270 0464 F86D1C3F 		.word	1058827768
 4271 0468 D1241D3F 		.word	1058874577
 4272 046c 77DB1D3F 		.word	1058921335
 4273 0470 EA911E3F 		.word	1058968042
 4274 0474 3D481F3F 		.word	1059014717
 4275 0478 4CFE1F3F 		.word	1059061324
 4276 047c 29B4203F 		.word	1059107881
 4277 0480 D369213F 		.word	1059154387
 4278 0484 3A1F223F 		.word	1059200826
 4279 0488 6FD4223F 		.word	1059247215
 4280 048c 6189233F 		.word	1059293537
 4281 0490 103E243F 		.word	1059339792
 4282 0494 8CF2243F 		.word	1059385996
 4283 0498 C6A6253F 		.word	1059432134
 4284 049c AB5A263F 		.word	1059478187
 4285 04a0 5E0E273F 		.word	1059524190
 4286 04a4 BEC1273F 		.word	1059570110
 4287 04a8 DA74283F 		.word	1059615962
 4288 04ac B327293F 		.word	1059661747
 4289 04b0 27DA293F 		.word	1059707431
 4290 04b4 698C2A3F 		.word	1059753065
 4291 04b8 473E2B3F 		.word	1059798599
ARM GAS  /var/folders/n6/c271nzx11xl4r4_m7sqjlt0m0000gn/T//ccGo3Vqh.s 			page 187


 4292 04bc E1EF2B3F 		.word	1059844065
 4293 04c0 16A12C3F 		.word	1059889430
 4294 04c4 09522D3F 		.word	1059934729
 4295 04c8 97022E3F 		.word	1059979927
 4296 04cc D1B22E3F 		.word	1060025041
 4297 04d0 B7622F3F 		.word	1060070071
 4298 04d4 4912303F 		.word	1060115017
 4299 04d8 66C1303F 		.word	1060159846
 4300 04dc 2E70313F 		.word	1060204590
 4301 04e0 A31E323F 		.word	1060249251
 4302 04e4 A3CC323F 		.word	1060293795
 4303 04e8 3E7A333F 		.word	1060338238
 4304 04ec 8527343F 		.word	1060382597
 4305 04f0 56D4343F 		.word	1060426838
 4306 04f4 C380353F 		.word	1060470979
 4307 04f8 BA2C363F 		.word	1060515002
 4308 04fc 4DD8363F 		.word	1060558925
 4309 0500 7B83373F 		.word	1060602747
 4310 0504 342E383F 		.word	1060646452
 4311 0508 77D8383F 		.word	1060690039
 4312 050c 4582393F 		.word	1060733509
 4313 0510 9D2B3A3F 		.word	1060776861
 4314 0514 80D43A3F 		.word	1060820096
 4315 0518 EE7C3B3F 		.word	1060863214
 4316 051c E6243C3F 		.word	1060906214
 4317 0520 57CC3C3F 		.word	1060949079
 4318 0524 54733D3F 		.word	1060991828
 4319 0528 CA193E3F 		.word	1061034442
 4320 052c CBBF3E3F 		.word	1061076939
 4321 0530 45653F3F 		.word	1061119301
 4322 0534 390A403F 		.word	1061161529
 4323 0538 A7AE403F 		.word	1061203623
 4324 053c A052413F 		.word	1061245600
 4325 0540 01F6413F 		.word	1061287425
 4326 0544 DD98423F 		.word	1061329117
 4327 0548 213B433F 		.word	1061370657
 4328 054c DFDC433F 		.word	1061412063
 4329 0550 177E443F 		.word	1061453335
 4330 0554 B81E453F 		.word	1061494456
 4331 0558 C2BE453F 		.word	1061535426
 4332 055c 465E463F 		.word	1061576262
 4333 0560 33FD463F 		.word	1061616947
 4334 0564 899B473F 		.word	1061657481
 4335 0568 3739483F 		.word	1061697847
 4336 056c 5ED6483F 		.word	1061738078
 4337 0570 EF72493F 		.word	1061778159
 4338 0574 D80E4A3F 		.word	1061818072
 4339 0578 19AA4A3F 		.word	1061857817
 4340 057c D4444B3F 		.word	1061897428
 4341 0580 D7DE4B3F 		.word	1061936855
 4342 0584 42784C3F 		.word	1061976130
 4343 0588 06114D3F 		.word	1062015238
 4344 058c 33A94D3F 		.word	1062054195
 4345 0590 A7404E3F 		.word	1062092967
 4346 0594 84D74E3F 		.word	1062131588
 4347 0598 A86D4F3F 		.word	1062170024
 4348 059c 2503503F 		.word	1062208293
ARM GAS  /var/folders/n6/c271nzx11xl4r4_m7sqjlt0m0000gn/T//ccGo3Vqh.s 			page 188


 4349 05a0 FA97503F 		.word	1062246394
 4350 05a4 172C513F 		.word	1062284311
 4351 05a8 8CBF513F 		.word	1062322060
 4352 05ac 5952523F 		.word	1062359641
 4353 05b0 6DE4523F 		.word	1062397037
 4354 05b4 C975533F 		.word	1062434249
 4355 05b8 6C06543F 		.word	1062471276
 4356 05bc 6896543F 		.word	1062508136
 4357 05c0 9A25553F 		.word	1062544794
 4358 05c4 24B4553F 		.word	1062581284
 4359 05c8 E541563F 		.word	1062617573
 4360 05cc EECE563F 		.word	1062653678
 4361 05d0 3E5B573F 		.word	1062689598
 4362 05d4 C5E6573F 		.word	1062725317
 4363 05d8 A471583F 		.word	1062760868
 4364 05dc A9FB583F 		.word	1062796201
 4365 05e0 F584593F 		.word	1062831349
 4366 05e4 780D5A3F 		.word	1062866296
 4367 05e8 42955A3F 		.word	1062901058
 4368 05ec 321C5B3F 		.word	1062935602
 4369 05f0 6AA25B3F 		.word	1062969962
 4370 05f4 D9275C3F 		.word	1063004121
 4371 05f8 7EAC5C3F 		.word	1063038078
 4372 05fc 49305D3F 		.word	1063071817
 4373 0600 4AB35D3F 		.word	1063105354
 4374 0604 83355E3F 		.word	1063138691
 4375 0608 F2B65E3F 		.word	1063171826
 4376 060c 86375F3F 		.word	1063204742
 4377 0610 52B75F3F 		.word	1063237458
 4378 0614 4436603F 		.word	1063269956
 4379 0618 5BB4603F 		.word	1063302235
 4380 061c A931613F 		.word	1063334313
 4381 0620 1DAE613F 		.word	1063366173
 4382 0624 B729623F 		.word	1063397815
 4383 0628 76A4623F 		.word	1063429238
 4384 062c 5C1E633F 		.word	1063460444
 4385 0630 6897633F 		.word	1063491432
 4386 0634 880F643F 		.word	1063522184
 4387 0638 E086643F 		.word	1063552736
 4388 063c 4CFD643F 		.word	1063583052
 4389 0640 DE72653F 		.word	1063613150
 4390 0644 86E7653F 		.word	1063643014
 4391 0648 535B663F 		.word	1063672659
 4392 064c 36CE663F 		.word	1063702070
 4393 0650 3E40673F 		.word	1063731262
 4394 0654 5BB1673F 		.word	1063760219
 4395 0658 8E21683F 		.word	1063788942
 4396 065c E690683F 		.word	1063817446
 4397 0660 43FF683F 		.word	1063845699
 4398 0664 B56C693F 		.word	1063873717
 4399 0668 4DD9693F 		.word	1063901517
 4400 066c E9446A3F 		.word	1063929065
 4401 0670 9BAF6A3F 		.word	1063956379
 4402 0674 61196B3F 		.word	1063983457
 4403 0678 3D826B3F 		.word	1064010301
 4404 067c 2DEA6B3F 		.word	1064036909
 4405 0680 11516C3F 		.word	1064063249
ARM GAS  /var/folders/n6/c271nzx11xl4r4_m7sqjlt0m0000gn/T//ccGo3Vqh.s 			page 189


 4406 0684 1CB76C3F 		.word	1064089372
 4407 0688 2A1C6D3F 		.word	1064115242
 4408 068c 4E806D3F 		.word	1064140878
 4409 0690 65E36D3F 		.word	1064166245
 4410 0694 A2456E3F 		.word	1064191394
 4411 0698 D2A66E3F 		.word	1064216274
 4412 069c 18076F3F 		.word	1064240920
 4413 06a0 51666F3F 		.word	1064265297
 4414 06a4 A0C46F3F 		.word	1064289440
 4415 06a8 F321703F 		.word	1064313331
 4416 06ac 4A7E703F 		.word	1064336970
 4417 06b0 A5D9703F 		.word	1064360357
 4418 06b4 F433713F 		.word	1064383476
 4419 06b8 588D713F 		.word	1064406360
 4420 06bc B0E5713F 		.word	1064428976
 4421 06c0 0C3D723F 		.word	1064451340
 4422 06c4 6C93723F 		.word	1064473452
 4423 06c8 C0E8723F 		.word	1064495296
 4424 06cc 193D733F 		.word	1064516889
 4425 06d0 7590733F 		.word	1064538229
 4426 06d4 C5E2733F 		.word	1064559301
 4427 06d8 0934743F 		.word	1064580105
 4428 06dc 5184743F 		.word	1064600657
 4429 06e0 8DD3743F 		.word	1064620941
 4430 06e4 BC21753F 		.word	1064640956
 4431 06e8 F06E753F 		.word	1064660720
 4432 06ec 06BB753F 		.word	1064680198
 4433 06f0 2106763F 		.word	1064699425
 4434 06f4 4050763F 		.word	1064718400
 4435 06f8 4299763F 		.word	1064737090
 4436 06fc 37E1763F 		.word	1064755511
 4437 0700 2028773F 		.word	1064773664
 4438 0704 FC6D773F 		.word	1064791548
 4439 0708 CCB2773F 		.word	1064809164
 4440 070c 90F6773F 		.word	1064826512
 4441 0710 4739783F 		.word	1064843591
 4442 0714 E17A783F 		.word	1064860385
 4443 0718 80BB783F 		.word	1064876928
 4444 071c 01FB783F 		.word	1064893185
 4445 0720 7539793F 		.word	1064909173
 4446 0724 CD76793F 		.word	1064924877
 4447 0728 18B3793F 		.word	1064940312
 4448 072c 46EE793F 		.word	1064955462
 4449 0730 67287A3F 		.word	1064970343
 4450 0734 7C617A3F 		.word	1064984956
 4451 0738 74997A3F 		.word	1064999284
 4452 073c 5FD07A3F 		.word	1065013343
 4453 0740 1C067B3F 		.word	1065027100
 4454 0744 DE3A7B3F 		.word	1065040606
 4455 0748 726E7B3F 		.word	1065053810
 4456 074c F9A07B3F 		.word	1065066745
 4457 0750 74D27B3F 		.word	1065079412
 4458 0754 C1027C3F 		.word	1065091777
 4459 0758 01327C3F 		.word	1065103873
 4460 075c 24607C3F 		.word	1065115684
 4461 0760 2A8D7C3F 		.word	1065127210
 4462 0764 13B97C3F 		.word	1065138451
ARM GAS  /var/folders/n6/c271nzx11xl4r4_m7sqjlt0m0000gn/T//ccGo3Vqh.s 			page 190


 4463 0768 EFE37C3F 		.word	1065149423
 4464 076c 9D0D7D3F 		.word	1065160093
 4465 0770 3F367D3F 		.word	1065170495
 4466 0774 C45D7D3F 		.word	1065180612
 4467 0778 1B847D3F 		.word	1065190427
 4468 077c 65A97D3F 		.word	1065199973
 4469 0780 92CD7D3F 		.word	1065209234
 4470 0784 91F07D3F 		.word	1065218193
 4471 0788 84127E3F 		.word	1065226884
 4472 078c 59337E3F 		.word	1065235289
 4473 0790 00537E3F 		.word	1065243392
 4474 0794 8B717E3F 		.word	1065251211
 4475 0798 088F7E3F 		.word	1065258760
 4476 079c 58AB7E3F 		.word	1065266008
 4477 07a0 8BC67E3F 		.word	1065272971
 4478 07a4 A0E07E3F 		.word	1065279648
 4479 07a8 87F97E3F 		.word	1065286023
 4480 07ac 62117F3F 		.word	1065292130
 4481 07b0 0F287F3F 		.word	1065297935
 4482 07b4 9F3D7F3F 		.word	1065303455
 4483 07b8 00527F3F 		.word	1065308672
 4484 07bc 56657F3F 		.word	1065313622
 4485 07c0 7D777F3F 		.word	1065318269
 4486 07c4 87887F3F 		.word	1065322631
 4487 07c8 74987F3F 		.word	1065326708
 4488 07cc 33A77F3F 		.word	1065330483
 4489 07d0 D5B47F3F 		.word	1065333973
 4490 07d4 59C17F3F 		.word	1065337177
 4491 07d8 AFCC7F3F 		.word	1065340079
 4492 07dc E9D67F3F 		.word	1065342697
 4493 07e0 05E07F3F 		.word	1065345029
 4494 07e4 F3E77F3F 		.word	1065347059
 4495 07e8 D4EE7F3F 		.word	1065348820
 4496 07ec 77F47F3F 		.word	1065350263
 4497 07f0 0EF97F3F 		.word	1065351438
 4498 07f4 76FC7F3F 		.word	1065352310
 4499 07f8 B0FE7F3F 		.word	1065352880
 4500 07fc DEFF7F3F 		.word	1065353182
 4501 0800 DEFF7F3F 		.word	1065353182
 4502 0804 B0FE7F3F 		.word	1065352880
 4503 0808 76FC7F3F 		.word	1065352310
 4504 080c 0EF97F3F 		.word	1065351438
 4505 0810 77F47F3F 		.word	1065350263
 4506 0814 D4EE7F3F 		.word	1065348820
 4507 0818 F3E77F3F 		.word	1065347059
 4508 081c 05E07F3F 		.word	1065345029
 4509 0820 E9D67F3F 		.word	1065342697
 4510 0824 AFCC7F3F 		.word	1065340079
 4511 0828 59C17F3F 		.word	1065337177
 4512 082c D5B47F3F 		.word	1065333973
 4513 0830 33A77F3F 		.word	1065330483
 4514 0834 74987F3F 		.word	1065326708
 4515 0838 87887F3F 		.word	1065322631
 4516 083c 7D777F3F 		.word	1065318269
 4517 0840 56657F3F 		.word	1065313622
 4518 0844 00527F3F 		.word	1065308672
 4519 0848 9F3D7F3F 		.word	1065303455
ARM GAS  /var/folders/n6/c271nzx11xl4r4_m7sqjlt0m0000gn/T//ccGo3Vqh.s 			page 191


 4520 084c 0F287F3F 		.word	1065297935
 4521 0850 62117F3F 		.word	1065292130
 4522 0854 87F97E3F 		.word	1065286023
 4523 0858 A0E07E3F 		.word	1065279648
 4524 085c 8BC67E3F 		.word	1065272971
 4525 0860 58AB7E3F 		.word	1065266008
 4526 0864 088F7E3F 		.word	1065258760
 4527 0868 8B717E3F 		.word	1065251211
 4528 086c 00537E3F 		.word	1065243392
 4529 0870 59337E3F 		.word	1065235289
 4530 0874 84127E3F 		.word	1065226884
 4531 0878 91F07D3F 		.word	1065218193
 4532 087c 92CD7D3F 		.word	1065209234
 4533 0880 65A97D3F 		.word	1065199973
 4534 0884 1B847D3F 		.word	1065190427
 4535 0888 C45D7D3F 		.word	1065180612
 4536 088c 3F367D3F 		.word	1065170495
 4537 0890 9D0D7D3F 		.word	1065160093
 4538 0894 EFE37C3F 		.word	1065149423
 4539 0898 13B97C3F 		.word	1065138451
 4540 089c 2A8D7C3F 		.word	1065127210
 4541 08a0 24607C3F 		.word	1065115684
 4542 08a4 01327C3F 		.word	1065103873
 4543 08a8 C1027C3F 		.word	1065091777
 4544 08ac 74D27B3F 		.word	1065079412
 4545 08b0 F9A07B3F 		.word	1065066745
 4546 08b4 726E7B3F 		.word	1065053810
 4547 08b8 DE3A7B3F 		.word	1065040606
 4548 08bc 1C067B3F 		.word	1065027100
 4549 08c0 5FD07A3F 		.word	1065013343
 4550 08c4 74997A3F 		.word	1064999284
 4551 08c8 7C617A3F 		.word	1064984956
 4552 08cc 67287A3F 		.word	1064970343
 4553 08d0 46EE793F 		.word	1064955462
 4554 08d4 18B3793F 		.word	1064940312
 4555 08d8 CD76793F 		.word	1064924877
 4556 08dc 7539793F 		.word	1064909173
 4557 08e0 01FB783F 		.word	1064893185
 4558 08e4 80BB783F 		.word	1064876928
 4559 08e8 E17A783F 		.word	1064860385
 4560 08ec 4739783F 		.word	1064843591
 4561 08f0 90F6773F 		.word	1064826512
 4562 08f4 CCB2773F 		.word	1064809164
 4563 08f8 FC6D773F 		.word	1064791548
 4564 08fc 2028773F 		.word	1064773664
 4565 0900 37E1763F 		.word	1064755511
 4566 0904 4299763F 		.word	1064737090
 4567 0908 4050763F 		.word	1064718400
 4568 090c 2106763F 		.word	1064699425
 4569 0910 06BB753F 		.word	1064680198
 4570 0914 F06E753F 		.word	1064660720
 4571 0918 BC21753F 		.word	1064640956
 4572 091c 8DD3743F 		.word	1064620941
 4573 0920 5184743F 		.word	1064600657
 4574 0924 0934743F 		.word	1064580105
 4575 0928 C5E2733F 		.word	1064559301
 4576 092c 7590733F 		.word	1064538229
ARM GAS  /var/folders/n6/c271nzx11xl4r4_m7sqjlt0m0000gn/T//ccGo3Vqh.s 			page 192


 4577 0930 193D733F 		.word	1064516889
 4578 0934 C0E8723F 		.word	1064495296
 4579 0938 6C93723F 		.word	1064473452
 4580 093c 0C3D723F 		.word	1064451340
 4581 0940 B0E5713F 		.word	1064428976
 4582 0944 588D713F 		.word	1064406360
 4583 0948 F433713F 		.word	1064383476
 4584 094c A5D9703F 		.word	1064360357
 4585 0950 4A7E703F 		.word	1064336970
 4586 0954 F321703F 		.word	1064313331
 4587 0958 A0C46F3F 		.word	1064289440
 4588 095c 51666F3F 		.word	1064265297
 4589 0960 18076F3F 		.word	1064240920
 4590 0964 D2A66E3F 		.word	1064216274
 4591 0968 A2456E3F 		.word	1064191394
 4592 096c 65E36D3F 		.word	1064166245
 4593 0970 4E806D3F 		.word	1064140878
 4594 0974 2A1C6D3F 		.word	1064115242
 4595 0978 1CB76C3F 		.word	1064089372
 4596 097c 11516C3F 		.word	1064063249
 4597 0980 2DEA6B3F 		.word	1064036909
 4598 0984 3D826B3F 		.word	1064010301
 4599 0988 61196B3F 		.word	1063983457
 4600 098c 9BAF6A3F 		.word	1063956379
 4601 0990 E9446A3F 		.word	1063929065
 4602 0994 4DD9693F 		.word	1063901517
 4603 0998 B56C693F 		.word	1063873717
 4604 099c 43FF683F 		.word	1063845699
 4605 09a0 E690683F 		.word	1063817446
 4606 09a4 8E21683F 		.word	1063788942
 4607 09a8 5BB1673F 		.word	1063760219
 4608 09ac 3E40673F 		.word	1063731262
 4609 09b0 36CE663F 		.word	1063702070
 4610 09b4 535B663F 		.word	1063672659
 4611 09b8 86E7653F 		.word	1063643014
 4612 09bc DE72653F 		.word	1063613150
 4613 09c0 4CFD643F 		.word	1063583052
 4614 09c4 E086643F 		.word	1063552736
 4615 09c8 880F643F 		.word	1063522184
 4616 09cc 6897633F 		.word	1063491432
 4617 09d0 5C1E633F 		.word	1063460444
 4618 09d4 76A4623F 		.word	1063429238
 4619 09d8 B729623F 		.word	1063397815
 4620 09dc 1DAE613F 		.word	1063366173
 4621 09e0 A931613F 		.word	1063334313
 4622 09e4 5BB4603F 		.word	1063302235
 4623 09e8 4436603F 		.word	1063269956
 4624 09ec 52B75F3F 		.word	1063237458
 4625 09f0 86375F3F 		.word	1063204742
 4626 09f4 F2B65E3F 		.word	1063171826
 4627 09f8 83355E3F 		.word	1063138691
 4628 09fc 4AB35D3F 		.word	1063105354
 4629 0a00 49305D3F 		.word	1063071817
 4630 0a04 7EAC5C3F 		.word	1063038078
 4631 0a08 D9275C3F 		.word	1063004121
 4632 0a0c 6AA25B3F 		.word	1062969962
 4633 0a10 321C5B3F 		.word	1062935602
ARM GAS  /var/folders/n6/c271nzx11xl4r4_m7sqjlt0m0000gn/T//ccGo3Vqh.s 			page 193


 4634 0a14 42955A3F 		.word	1062901058
 4635 0a18 780D5A3F 		.word	1062866296
 4636 0a1c F584593F 		.word	1062831349
 4637 0a20 A9FB583F 		.word	1062796201
 4638 0a24 A471583F 		.word	1062760868
 4639 0a28 C5E6573F 		.word	1062725317
 4640 0a2c 3E5B573F 		.word	1062689598
 4641 0a30 EECE563F 		.word	1062653678
 4642 0a34 E541563F 		.word	1062617573
 4643 0a38 24B4553F 		.word	1062581284
 4644 0a3c 9A25553F 		.word	1062544794
 4645 0a40 6896543F 		.word	1062508136
 4646 0a44 6C06543F 		.word	1062471276
 4647 0a48 C975533F 		.word	1062434249
 4648 0a4c 6DE4523F 		.word	1062397037
 4649 0a50 5952523F 		.word	1062359641
 4650 0a54 8CBF513F 		.word	1062322060
 4651 0a58 172C513F 		.word	1062284311
 4652 0a5c FA97503F 		.word	1062246394
 4653 0a60 2503503F 		.word	1062208293
 4654 0a64 A86D4F3F 		.word	1062170024
 4655 0a68 84D74E3F 		.word	1062131588
 4656 0a6c A7404E3F 		.word	1062092967
 4657 0a70 33A94D3F 		.word	1062054195
 4658 0a74 06114D3F 		.word	1062015238
 4659 0a78 42784C3F 		.word	1061976130
 4660 0a7c D7DE4B3F 		.word	1061936855
 4661 0a80 D4444B3F 		.word	1061897428
 4662 0a84 19AA4A3F 		.word	1061857817
 4663 0a88 D80E4A3F 		.word	1061818072
 4664 0a8c EF72493F 		.word	1061778159
 4665 0a90 5ED6483F 		.word	1061738078
 4666 0a94 3739483F 		.word	1061697847
 4667 0a98 899B473F 		.word	1061657481
 4668 0a9c 33FD463F 		.word	1061616947
 4669 0aa0 465E463F 		.word	1061576262
 4670 0aa4 C2BE453F 		.word	1061535426
 4671 0aa8 B81E453F 		.word	1061494456
 4672 0aac 177E443F 		.word	1061453335
 4673 0ab0 DFDC433F 		.word	1061412063
 4674 0ab4 213B433F 		.word	1061370657
 4675 0ab8 DD98423F 		.word	1061329117
 4676 0abc 01F6413F 		.word	1061287425
 4677 0ac0 A052413F 		.word	1061245600
 4678 0ac4 A7AE403F 		.word	1061203623
 4679 0ac8 390A403F 		.word	1061161529
 4680 0acc 45653F3F 		.word	1061119301
 4681 0ad0 CBBF3E3F 		.word	1061076939
 4682 0ad4 CA193E3F 		.word	1061034442
 4683 0ad8 54733D3F 		.word	1060991828
 4684 0adc 57CC3C3F 		.word	1060949079
 4685 0ae0 E6243C3F 		.word	1060906214
 4686 0ae4 EE7C3B3F 		.word	1060863214
 4687 0ae8 80D43A3F 		.word	1060820096
 4688 0aec 9D2B3A3F 		.word	1060776861
 4689 0af0 4582393F 		.word	1060733509
 4690 0af4 77D8383F 		.word	1060690039
ARM GAS  /var/folders/n6/c271nzx11xl4r4_m7sqjlt0m0000gn/T//ccGo3Vqh.s 			page 194


 4691 0af8 342E383F 		.word	1060646452
 4692 0afc 7B83373F 		.word	1060602747
 4693 0b00 4DD8363F 		.word	1060558925
 4694 0b04 BA2C363F 		.word	1060515002
 4695 0b08 C380353F 		.word	1060470979
 4696 0b0c 56D4343F 		.word	1060426838
 4697 0b10 8527343F 		.word	1060382597
 4698 0b14 3E7A333F 		.word	1060338238
 4699 0b18 A3CC323F 		.word	1060293795
 4700 0b1c A31E323F 		.word	1060249251
 4701 0b20 2E70313F 		.word	1060204590
 4702 0b24 66C1303F 		.word	1060159846
 4703 0b28 4912303F 		.word	1060115017
 4704 0b2c B7622F3F 		.word	1060070071
 4705 0b30 D1B22E3F 		.word	1060025041
 4706 0b34 97022E3F 		.word	1059979927
 4707 0b38 09522D3F 		.word	1059934729
 4708 0b3c 16A12C3F 		.word	1059889430
 4709 0b40 E1EF2B3F 		.word	1059844065
 4710 0b44 473E2B3F 		.word	1059798599
 4711 0b48 698C2A3F 		.word	1059753065
 4712 0b4c 27DA293F 		.word	1059707431
 4713 0b50 B327293F 		.word	1059661747
 4714 0b54 DA74283F 		.word	1059615962
 4715 0b58 BEC1273F 		.word	1059570110
 4716 0b5c 5E0E273F 		.word	1059524190
 4717 0b60 AB5A263F 		.word	1059478187
 4718 0b64 C6A6253F 		.word	1059432134
 4719 0b68 8CF2243F 		.word	1059385996
 4720 0b6c 103E243F 		.word	1059339792
 4721 0b70 6189233F 		.word	1059293537
 4722 0b74 6FD4223F 		.word	1059247215
 4723 0b78 3A1F223F 		.word	1059200826
 4724 0b7c D369213F 		.word	1059154387
 4725 0b80 29B4203F 		.word	1059107881
 4726 0b84 4CFE1F3F 		.word	1059061324
 4727 0b88 3D481F3F 		.word	1059014717
 4728 0b8c EA911E3F 		.word	1058968042
 4729 0b90 77DB1D3F 		.word	1058921335
 4730 0b94 D1241D3F 		.word	1058874577
 4731 0b98 F86D1C3F 		.word	1058827768
 4732 0b9c EDB61B3F 		.word	1058780909
 4733 0ba0 C1FF1A3F 		.word	1058734017
 4734 0ba4 62481A3F 		.word	1058687074
 4735 0ba8 E290193F 		.word	1058640098
 4736 0bac 40D9183F 		.word	1058593088
 4737 0bb0 6C21183F 		.word	1058546028
 4738 0bb4 8869173F 		.word	1058498952
 4739 0bb8 70B1163F 		.word	1058451824
 4740 0bbc 48F9153F 		.word	1058404680
 4741 0bc0 FF40153F 		.word	1058357503
 4742 0bc4 9488143F 		.word	1058310292
 4743 0bc8 18D0133F 		.word	1058263064
 4744 0bcc 7A17133F 		.word	1058215802
 4745 0bd0 CC5E123F 		.word	1058168524
 4746 0bd4 0DA6113F 		.word	1058121229
 4747 0bd8 3EED103F 		.word	1058073918
ARM GAS  /var/folders/n6/c271nzx11xl4r4_m7sqjlt0m0000gn/T//ccGo3Vqh.s 			page 195


 4748 0bdc 5D34103F 		.word	1058026589
 4749 0be0 6C7B0F3F 		.word	1057979244
 4750 0be4 6AC20E3F 		.word	1057931882
 4751 0be8 57090E3F 		.word	1057884503
 4752 0bec 44500D3F 		.word	1057837124
 4753 0bf0 31970C3F 		.word	1057789745
 4754 0bf4 0DDE0B3F 		.word	1057742349
 4755 0bf8 EA240B3F 		.word	1057694954
 4756 0bfc B56B0A3F 		.word	1057647541
 4757 0c00 92B2093F 		.word	1057600146
 4758 0c04 6EF9083F 		.word	1057552750
 4759 0c08 4A40083F 		.word	1057505354
 4760 0c0c 2787073F 		.word	1057457959
 4761 0c10 14CE063F 		.word	1057410580
 4762 0c14 0115063F 		.word	1057363201
 4763 0c18 FF5B053F 		.word	1057315839
 4764 0c1c FDA2043F 		.word	1057268477
 4765 0c20 1CEA033F 		.word	1057221148
 4766 0c24 3C31033F 		.word	1057173820
 4767 0c28 6C78023F 		.word	1057126508
 4768 0c2c BEBF013F 		.word	1057079230
 4769 0c30 1007013F 		.word	1057031952
 4770 0c34 944E003F 		.word	1056984724
 4771 0c38 302CFF3E 		.word	1056910384
 4772 0c3c 7BBBFD3E 		.word	1056815995
 4773 0c40 0A4BFC3E 		.word	1056721674
 4774 0c44 BADAFA3E 		.word	1056627386
 4775 0c48 CF6AF93E 		.word	1056533199
 4776 0c4c 05FBF73E 		.word	1056439045
 4777 0c50 A08BF63E 		.word	1056344992
 4778 0c54 7E1CF53E 		.word	1056251006
 4779 0c58 9FADF33E 		.word	1056157087
 4780 0c5c 033FF23E 		.word	1056063235
 4781 0c60 CCD0F03E 		.word	1055969484
 4782 0c64 FA62EF3E 		.word	1055875834
 4783 0c68 6AF5ED3E 		.word	1055782250
 4784 0c6c 4088EC3E 		.word	1055688768
 4785 0c70 9B1BEB3E 		.word	1055595419
 4786 0c74 3AAFE93E 		.word	1055502138
 4787 0c78 3D43E83E 		.word	1055408957
 4788 0c7c C7D7E63E 		.word	1055315911
 4789 0c80 B56CE53E 		.word	1055222965
 4790 0c84 0802E43E 		.word	1055130120
 4791 0c88 E197E23E 		.word	1055037409
 4792 0c8c 412EE13E 		.word	1054944833
 4793 0c90 05C5DF3E 		.word	1054852357
 4794 0c94 705CDE3E 		.word	1054760048
 4795 0c98 41F4DC3E 		.word	1054667841
 4796 0c9c 978CDB3E 		.word	1054575767
 4797 0ca0 9625DA3E 		.word	1054483862
 4798 0ca4 1ABFD83E 		.word	1054392090
 4799 0ca8 2559D73E 		.word	1054300453
 4800 0cac D8F3D53E 		.word	1054208984
 4801 0cb0 118FD43E 		.word	1054117649
 4802 0cb4 132BD33E 		.word	1054026515
 4803 0cb8 7AC7D13E 		.word	1053935482
 4804 0cbc AA64D03E 		.word	1053844650
ARM GAS  /var/folders/n6/c271nzx11xl4r4_m7sqjlt0m0000gn/T//ccGo3Vqh.s 			page 196


 4805 0cc0 8202CF3E 		.word	1053753986
 4806 0cc4 01A1CD3E 		.word	1053663489
 4807 0cc8 2940CC3E 		.word	1053573161
 4808 0ccc 1AE0CA3E 		.word	1053483034
 4809 0cd0 B280C93E 		.word	1053393074
 4810 0cd4 F321C83E 		.word	1053303283
 4811 0cd8 1EC4C63E 		.word	1053213726
 4812 0cdc CF66C53E 		.word	1053124303
 4813 0ce0 6C0AC43E 		.word	1053035116
 4814 0ce4 D1AEC23E 		.word	1052946129
 4815 0ce8 DF53C13E 		.word	1052857311
 4816 0cec D7F9BF3E 		.word	1052768727
 4817 0cf0 99A0BE3E 		.word	1052680345
 4818 0cf4 2448BD3E 		.word	1052592164
 4819 0cf8 99F0BB3E 		.word	1052504217
 4820 0cfc D999BA3E 		.word	1052416473
 4821 0d00 0344B93E 		.word	1052328963
 4822 0d04 17EFB73E 		.word	1052241687
 4823 0d08 F69AB63E 		.word	1052154614
 4824 0d0c BF47B53E 		.word	1052067775
 4825 0d10 94F5B33E 		.word	1051981204
 4826 0d14 33A4B23E 		.word	1051894835
 4827 0d18 DF53B13E 		.word	1051808735
 4828 0d1c 7504B03E 		.word	1051722869
 4829 0d20 F6B5AE3E 		.word	1051637238
 4830 0d24 8368AD3E 		.word	1051551875
 4831 0d28 FC1BAC3E 		.word	1051466748
 4832 0d2c A2D0AA3E 		.word	1051381922
 4833 0d30 1286A93E 		.word	1051297298
 4834 0d34 B03CA83E 		.word	1051212976
 4835 0d38 5AF4A63E 		.word	1051128922
 4836 0d3c 10ADA53E 		.word	1051045136
 4837 0d40 D366A43E 		.word	1050961619
 4838 0d44 A321A33E 		.word	1050878371
 4839 0d48 A0DDA13E 		.word	1050795424
 4840 0d4c AA9AA03E 		.word	1050712746
 4841 0d50 C1589F3E 		.word	1050630337
 4842 0d54 26189E3E 		.word	1050548262
 4843 0d58 99D89C3E 		.word	1050466457
 4844 0d5c 179A9B3E 		.word	1050384919
 4845 0d60 E65C9A3E 		.word	1050303718
 4846 0d64 E220993E 		.word	1050222818
 4847 0d68 0CE6973E 		.word	1050142220
 4848 0d6c 43AC963E 		.word	1050061891
 4849 0d70 EB73953E 		.word	1049981931
 4850 0d74 9F3C943E 		.word	1049902239
 4851 0d78 A306933E 		.word	1049822883
 4852 0d7c F6D1913E 		.word	1049743862
 4853 0d80 779E903E 		.word	1049665143
 4854 0d84 486C8F3E 		.word	1049586760
 4855 0d88 693B8E3E 		.word	1049508713
 4856 0d8c B70B8D3E 		.word	1049430967
 4857 0d90 76DD8B3E 		.word	1049353590
 4858 0d94 64B08A3E 		.word	1049276516
 4859 0d98 C284893E 		.word	1049199810
 4860 0d9c 715A883E 		.word	1049123441
 4861 0da0 9031873E 		.word	1049047440
ARM GAS  /var/folders/n6/c271nzx11xl4r4_m7sqjlt0m0000gn/T//ccGo3Vqh.s 			page 197


 4862 0da4 DD09863E 		.word	1048971741
 4863 0da8 BDE3843E 		.word	1048896445
 4864 0dac CBBE833E 		.word	1048821451
 4865 0db0 6B9B823E 		.word	1048746859
 4866 0db4 5B79813E 		.word	1048672603
 4867 0db8 BC58803E 		.word	1048598716
 4868 0dbc 1D737E3E 		.word	1048474397
 4869 0dc0 A4377C3E 		.word	1048328100
 4870 0dc4 0DFF793E 		.word	1048182541
 4871 0dc8 9BC9773E 		.word	1048037787
 4872 0dcc C896753E 		.word	1047893704
 4873 0dd0 1B67733E 		.word	1047750427
 4874 0dd4 503A713E 		.word	1047607888
 4875 0dd8 AA106F3E 		.word	1047466154
 4876 0ddc E6E96C3E 		.word	1047325158
 4877 0de0 47C66A3E 		.word	1047184967
 4878 0de4 CEA5683E 		.word	1047045582
 4879 0de8 3788663E 		.word	1046906935
 4880 0dec C66D643E 		.word	1046769094
 4881 0df0 7A56623E 		.word	1046632058
 4882 0df4 9642603E 		.word	1046495894
 4883 0df8 94315E3E 		.word	1046360468
 4884 0dfc FB235C3E 		.word	1046225915
 4885 0e00 87195A3E 		.word	1046092167
 4886 0e04 3812583E 		.word	1045959224
 4887 0e08 0F0E563E 		.word	1045827087
 4888 0e0c 4E0D543E 		.word	1045695822
 4889 0e10 F50F523E 		.word	1045565429
 4890 0e14 C215503E 		.word	1045435842
 4891 0e18 F71E4E3E 		.word	1045307127
 4892 0e1c 952B4C3E 		.word	1045179285
 4893 0e20 9B3B4A3E 		.word	1045052315
 4894 0e24 C64E483E 		.word	1044926150
 4895 0e28 9D65463E 		.word	1044800925
 4896 0e2c 997F443E 		.word	1044676505
 4897 0e30 419D423E 		.word	1044553025
 4898 0e34 51BE403E 		.word	1044430417
 4899 0e38 CAE23E3E 		.word	1044308682
 4900 0e3c AA0A3D3E 		.word	1044187818
 4901 0e40 37363B3E 		.word	1044067895
 4902 0e44 6F65393E 		.word	1043948911
 4903 0e48 0F98373E 		.word	1043830799
 4904 0e4c 18CE353E 		.word	1043713560
 4905 0e50 CC07343E 		.word	1043597260
 4906 0e54 2C45323E 		.word	1043481900
 4907 0e58 3886303E 		.word	1043367480
 4908 0e5c EFCA2E3E 		.word	1043253999
 4909 0e60 0E132D3E 		.word	1043141390
 4910 0e64 1C5F2B3E 		.word	1043029788
 4911 0e68 92AE293E 		.word	1042919058
 4912 0e6c F701283E 		.word	1042809335
 4913 0e70 0859263E 		.word	1042700552
 4914 0e74 C4B3243E 		.word	1042592708
 4915 0e78 2B12233E 		.word	1042485803
 4916 0e7c 8274213E 		.word	1042379906
 4917 0e80 83DA1F3E 		.word	1042274947
 4918 0e84 74441E3E 		.word	1042170996
ARM GAS  /var/folders/n6/c271nzx11xl4r4_m7sqjlt0m0000gn/T//ccGo3Vqh.s 			page 198


 4919 0e88 10B21C3E 		.word	1042067984
 4920 0e8c 9A231B3E 		.word	1041965978
 4921 0e90 1399193E 		.word	1041864979
 4922 0e94 3812183E 		.word	1041764920
 4923 0e98 4B8F163E 		.word	1041665867
 4924 0e9c 4D10153E 		.word	1041567821
 4925 0ea0 FB94133E 		.word	1041470715
 4926 0ea4 DA1D123E 		.word	1041374682
 4927 0ea8 A8AA103E 		.word	1041279656
 4928 0eac 213B0F3E 		.word	1041185569
 4929 0eb0 CCCF0D3E 		.word	1041092556
 4930 0eb4 66680C3E 		.word	1041000550
 4931 0eb8 EE040B3E 		.word	1040909550
 4932 0ebc 65A5093E 		.word	1040819557
 4933 0ec0 0E4A083E 		.word	1040730638
 4934 0ec4 A6F2063E 		.word	1040642726
 4935 0ec8 2C9F053E 		.word	1040555820
 4936 0ecc E34F043E 		.word	1040469987
 4937 0ed0 8A04033E 		.word	1040385162
 4938 0ed4 62BD013E 		.word	1040301410
 4939 0ed8 6C7A003E 		.word	1040218732
 4940 0edc C976FE3D 		.word	1040086729
 4941 0ee0 1D01FC3D 		.word	1039925533
 4942 0ee4 4F93F93D 		.word	1039766351
 4943 0ee8 E42DF73D 		.word	1039609316
 4944 0eec 63D1F43D 		.word	1039454563
 4945 0ef0 BF7CF23D 		.word	1039301823
 4946 0ef4 F92FF03D 		.word	1039151097
 4947 0ef8 1CECED3D 		.word	1039002652
 4948 0efc A3B0EB3D 		.word	1038856355
 4949 0f00 8D7DE93D 		.word	1038712205
 4950 0f04 DB52E73D 		.word	1038570203
 4951 0f08 8C30E53D 		.word	1038430348
 4952 0f0c A016E33D 		.word	1038292640
 4953 0f10 1805E13D 		.word	1038157080
 4954 0f14 7AFCDE3D 		.word	1038023802
 4955 0f18 40FCDC3D 		.word	1037892672
 4956 0f1c 6804DB3D 		.word	1037763688
 4957 0f20 F514D93D 		.word	1037636853
 4958 0f24 6A2ED73D 		.word	1037512298
 4959 0f28 4450D53D 		.word	1037389892
 4960 0f2c 077BD33D 		.word	1037269767
 4961 0f30 2EAED13D 		.word	1037151790
 4962 0f34 3EEACF3D 		.word	1037036094
 4963 0f38 B22ECE3D 		.word	1036922546
 4964 0f3c 0F7CCC3D 		.word	1036811279
 4965 0f40 D0D1CA3D 		.word	1036702160
 4966 0f44 7B30C93D 		.word	1036595323
 4967 0f48 0F98C73D 		.word	1036490767
 4968 0f4c 0708C63D 		.word	1036388359
 4969 0f50 6F81C43D 		.word	1036288367
 4970 0f54 B402C33D 		.word	1036190388
 4971 0f58 698DC13D 		.word	1036094825
 4972 0f5c 8120C03D 		.word	1036001409
 4973 0f60 0ABDBE3D 		.word	1035910410
 4974 0f64 F661BD3D 		.word	1035821558
 4975 0f68 CB0FBC3D 		.word	1035734987
ARM GAS  /var/folders/n6/c271nzx11xl4r4_m7sqjlt0m0000gn/T//ccGo3Vqh.s 			page 199


 4976 0f6c 8BC6BA3D 		.word	1035650699
 4977 0f70 3486B93D 		.word	1035568692
 4978 0f74 404EB83D 		.word	1035488832
 4979 0f78 BC1FB73D 		.word	1035411388
 4980 0f7c 22FAB53D 		.word	1035336226
 4981 0f80 72DDB43D 		.word	1035263346
 4982 0f84 ACC9B33D 		.word	1035192748
 4983 0f88 CFBEB23D 		.word	1035124431
 4984 0f8c 56BCB13D 		.word	1035058262
 4985 0f90 D2C3B03D 		.word	1034994642
 4986 0f94 B3D3AF3D 		.word	1034933171
 4987 0f98 7DECAE3D 		.word	1034873981
 4988 0f9c B60EAE3D 		.word	1034817206
 4989 0fa0 5439AD3D 		.word	1034762580
 4990 0fa4 616DAC3D 		.word	1034710369
 4991 0fa8 58AAAB3D 		.word	1034660440
 4992 0fac 39F0AA3D 		.word	1034612793
 4993 0fb0 8A3FAA3D 		.word	1034567562
 4994 0fb4 3E97A93D 		.word	1034524478
 4995 0fb8 62F8A83D 		.word	1034483810
 4996 0fbc 6F62A83D 		.word	1034445423
 4997 0fc0 EDD5A73D 		.word	1034409453
 4998 0fc4 5452A73D 		.word	1034375764
 4999 0fc8 A5D7A63D 		.word	1034344357
 5000 0fcc E065A63D 		.word	1034315232
 5001 0fd0 05FDA53D 		.word	1034288389
 5002 0fd4 999DA53D 		.word	1034263961
 5003 0fd8 9D47A53D 		.word	1034241949
 5004 0fdc 05FAA43D 		.word	1034222085
 5005 0fe0 DDB5A43D 		.word	1034204637
 5006 0fe4 9E7AA43D 		.word	1034189470
 5007 0fe8 CF48A43D 		.word	1034176719
 5008 0fec EB1FA43D 		.word	1034166251
 5009 0ff0 EFFFA33D 		.word	1034158063
 5010 0ff4 64E9A33D 		.word	1034152292
 5011 0ff8 C2DBA33D 		.word	1034148802
 5012 0ffc 0AD7A33D 		.word	1034147594
 5013              		.text
 5014              	.Letext0:
 5015              		.file 3 "/Users/killian/Library/Application Support/Code/User/globalStorage/bmd.stm32-for-vscode/@
 5016              		.file 4 "/Users/killian/Library/Application Support/Code/User/globalStorage/bmd.stm32-for-vscode/@
 5017              		.file 5 "Drivers/CMSIS/Device/ST/STM32F7xx/Include/stm32f769xx.h"
 5018              		.file 6 "Drivers/STM32F7xx_HAL_Driver/Inc/stm32f7xx_hal_def.h"
 5019              		.file 7 "Drivers/STM32F7xx_HAL_Driver/Inc/stm32f7xx_hal_dma.h"
 5020              		.file 8 "Core/Inc/hammingWindow.h"
 5021              		.file 9 "Core/Inc/hanningWindow.h"
 5022              		.file 10 "Core/Inc/mel_filters.h"
 5023              		.file 11 "Middlewares/Third_Party/FatFs/src/ff.h"
 5024              		.file 12 "FATFS/App/fatfs.h"
 5025              		.file 13 "/Users/killian/Library/Application Support/Code/User/globalStorage/bmd.stm32-for-vscode/
 5026              		.file 14 "/Users/killian/Library/Application Support/Code/User/globalStorage/bmd.stm32-for-vscode/
ARM GAS  /var/folders/n6/c271nzx11xl4r4_m7sqjlt0m0000gn/T//ccGo3Vqh.s 			page 200


DEFINED SYMBOLS
                            *ABS*:00000000 filtrage.c
/var/folders/n6/c271nzx11xl4r4_m7sqjlt0m0000gn/T//ccGo3Vqh.s:20     .text.StereoToMono:00000000 $t
/var/folders/n6/c271nzx11xl4r4_m7sqjlt0m0000gn/T//ccGo3Vqh.s:26     .text.StereoToMono:00000000 StereoToMono
/var/folders/n6/c271nzx11xl4r4_m7sqjlt0m0000gn/T//ccGo3Vqh.s:95     .text.Hamming_window:00000000 $t
/var/folders/n6/c271nzx11xl4r4_m7sqjlt0m0000gn/T//ccGo3Vqh.s:101    .text.Hamming_window:00000000 Hamming_window
/var/folders/n6/c271nzx11xl4r4_m7sqjlt0m0000gn/T//ccGo3Vqh.s:228    .text.Hamming_window:0000006c $d
/var/folders/n6/c271nzx11xl4r4_m7sqjlt0m0000gn/T//ccGo3Vqh.s:3988   .rodata.hammingWindow:00000000 hammingWindow
/var/folders/n6/c271nzx11xl4r4_m7sqjlt0m0000gn/T//ccGo3Vqh.s:233    .text.Hanning_window:00000000 $t
/var/folders/n6/c271nzx11xl4r4_m7sqjlt0m0000gn/T//ccGo3Vqh.s:239    .text.Hanning_window:00000000 Hanning_window
/var/folders/n6/c271nzx11xl4r4_m7sqjlt0m0000gn/T//ccGo3Vqh.s:366    .text.Hanning_window:0000006c $d
/var/folders/n6/c271nzx11xl4r4_m7sqjlt0m0000gn/T//ccGo3Vqh.s:2958   .data.hanningWindow:00000000 hanningWindow
/var/folders/n6/c271nzx11xl4r4_m7sqjlt0m0000gn/T//ccGo3Vqh.s:371    .text.FFT_init:00000000 $t
/var/folders/n6/c271nzx11xl4r4_m7sqjlt0m0000gn/T//ccGo3Vqh.s:377    .text.FFT_init:00000000 FFT_init
/var/folders/n6/c271nzx11xl4r4_m7sqjlt0m0000gn/T//ccGo3Vqh.s:416    .text.FFT_init:0000001c $d
/var/folders/n6/c271nzx11xl4r4_m7sqjlt0m0000gn/T//ccGo3Vqh.s:1926   .bss.FFT_struct:00000000 FFT_struct
/var/folders/n6/c271nzx11xl4r4_m7sqjlt0m0000gn/T//ccGo3Vqh.s:421    .text.FFT_Calculation:00000000 $t
/var/folders/n6/c271nzx11xl4r4_m7sqjlt0m0000gn/T//ccGo3Vqh.s:427    .text.FFT_Calculation:00000000 FFT_Calculation
/var/folders/n6/c271nzx11xl4r4_m7sqjlt0m0000gn/T//ccGo3Vqh.s:468    .text.FFT_Calculation:0000001c $d
/var/folders/n6/c271nzx11xl4r4_m7sqjlt0m0000gn/T//ccGo3Vqh.s:473    .text.DSE_Calculation:00000000 $t
/var/folders/n6/c271nzx11xl4r4_m7sqjlt0m0000gn/T//ccGo3Vqh.s:479    .text.DSE_Calculation:00000000 DSE_Calculation
/var/folders/n6/c271nzx11xl4r4_m7sqjlt0m0000gn/T//ccGo3Vqh.s:552    .text.DSE_Calculation:00000044 $d
/var/folders/n6/c271nzx11xl4r4_m7sqjlt0m0000gn/T//ccGo3Vqh.s:557    .text.MEL_Calculation:00000000 $t
/var/folders/n6/c271nzx11xl4r4_m7sqjlt0m0000gn/T//ccGo3Vqh.s:563    .text.MEL_Calculation:00000000 MEL_Calculation
/var/folders/n6/c271nzx11xl4r4_m7sqjlt0m0000gn/T//ccGo3Vqh.s:708    .text.MEL_Calculation:00000078 $d
/var/folders/n6/c271nzx11xl4r4_m7sqjlt0m0000gn/T//ccGo3Vqh.s:1984   .rodata.mel_filters_non_zero_data:00000000 mel_filters_non_zero_data
/var/folders/n6/c271nzx11xl4r4_m7sqjlt0m0000gn/T//ccGo3Vqh.s:1940   .rodata.mel_filters_num_non_zero:00000000 mel_filters_num_non_zero
/var/folders/n6/c271nzx11xl4r4_m7sqjlt0m0000gn/T//ccGo3Vqh.s:1948   .rodata.mel_filters_zeros_before:00000000 mel_filters_zeros_before
/var/folders/n6/c271nzx11xl4r4_m7sqjlt0m0000gn/T//ccGo3Vqh.s:718    .rodata.print_mel_filters.str1.4:00000000 $d
/var/folders/n6/c271nzx11xl4r4_m7sqjlt0m0000gn/T//ccGo3Vqh.s:725    .text.print_mel_filters:00000000 $t
/var/folders/n6/c271nzx11xl4r4_m7sqjlt0m0000gn/T//ccGo3Vqh.s:731    .text.print_mel_filters:00000000 print_mel_filters
/var/folders/n6/c271nzx11xl4r4_m7sqjlt0m0000gn/T//ccGo3Vqh.s:909    .text.print_mel_filters:00000094 $d
/var/folders/n6/c271nzx11xl4r4_m7sqjlt0m0000gn/T//ccGo3Vqh.s:918    .text.ZScore_Calculation:00000000 $t
/var/folders/n6/c271nzx11xl4r4_m7sqjlt0m0000gn/T//ccGo3Vqh.s:924    .text.ZScore_Calculation:00000000 ZScore_Calculation
/var/folders/n6/c271nzx11xl4r4_m7sqjlt0m0000gn/T//ccGo3Vqh.s:1007   .text.DMA_Config:00000000 $t
/var/folders/n6/c271nzx11xl4r4_m7sqjlt0m0000gn/T//ccGo3Vqh.s:1013   .text.DMA_Config:00000000 DMA_Config
/var/folders/n6/c271nzx11xl4r4_m7sqjlt0m0000gn/T//ccGo3Vqh.s:1102   .text.DMA_Config:0000005c $d
/var/folders/n6/c271nzx11xl4r4_m7sqjlt0m0000gn/T//ccGo3Vqh.s:1933   .bss.hdma_memtomem_dma2_stream2:00000000 hdma_memtomem_dma2_stream2
/var/folders/n6/c271nzx11xl4r4_m7sqjlt0m0000gn/T//ccGo3Vqh.s:1109   .text.Feature_Export:00000000 $t
/var/folders/n6/c271nzx11xl4r4_m7sqjlt0m0000gn/T//ccGo3Vqh.s:1115   .text.Feature_Export:00000000 Feature_Export
/var/folders/n6/c271nzx11xl4r4_m7sqjlt0m0000gn/T//ccGo3Vqh.s:1805   .text.Feature_Export:000002e0 $d
/var/folders/n6/c271nzx11xl4r4_m7sqjlt0m0000gn/T//ccGo3Vqh.s:1877   .data.buffer_run:00000000 buffer_run
/var/folders/n6/c271nzx11xl4r4_m7sqjlt0m0000gn/T//ccGo3Vqh.s:1919   .data.cReadIndex:00000000 cReadIndex
/var/folders/n6/c271nzx11xl4r4_m7sqjlt0m0000gn/T//ccGo3Vqh.s:1905   .bss.rawPCMdata:00000000 rawPCMdata
/var/folders/n6/c271nzx11xl4r4_m7sqjlt0m0000gn/T//ccGo3Vqh.s:1912   .bss.distIndex:00000000 distIndex
/var/folders/n6/c271nzx11xl4r4_m7sqjlt0m0000gn/T//ccGo3Vqh.s:1891   .bss.tmp_buf_1:00000000 tmp_buf_1
/var/folders/n6/c271nzx11xl4r4_m7sqjlt0m0000gn/T//ccGo3Vqh.s:1884   .bss.tmp_buf_2:00000000 tmp_buf_2
/var/folders/n6/c271nzx11xl4r4_m7sqjlt0m0000gn/T//ccGo3Vqh.s:1871   .bss.mel_indice:00000000 mel_indice
/var/folders/n6/c271nzx11xl4r4_m7sqjlt0m0000gn/T//ccGo3Vqh.s:1865   .bss.wav_indice:00000000 wav_indice
/var/folders/n6/c271nzx11xl4r4_m7sqjlt0m0000gn/T//ccGo3Vqh.s:1898   .bss.sd_wav_cache:00000000 sd_wav_cache
/var/folders/n6/c271nzx11xl4r4_m7sqjlt0m0000gn/T//ccGo3Vqh.s:1819   .text.Feature_Export_Init:00000000 $t
/var/folders/n6/c271nzx11xl4r4_m7sqjlt0m0000gn/T//ccGo3Vqh.s:1825   .text.Feature_Export_Init:00000000 Feature_Export_Init
/var/folders/n6/c271nzx11xl4r4_m7sqjlt0m0000gn/T//ccGo3Vqh.s:1862   .bss.wav_indice:00000000 $d
/var/folders/n6/c271nzx11xl4r4_m7sqjlt0m0000gn/T//ccGo3Vqh.s:1872   .bss.mel_indice:00000000 $d
/var/folders/n6/c271nzx11xl4r4_m7sqjlt0m0000gn/T//ccGo3Vqh.s:1881   .bss.tmp_buf_2:00000000 $d
/var/folders/n6/c271nzx11xl4r4_m7sqjlt0m0000gn/T//ccGo3Vqh.s:1888   .bss.tmp_buf_1:00000000 $d
/var/folders/n6/c271nzx11xl4r4_m7sqjlt0m0000gn/T//ccGo3Vqh.s:1895   .bss.sd_wav_cache:00000000 $d
ARM GAS  /var/folders/n6/c271nzx11xl4r4_m7sqjlt0m0000gn/T//ccGo3Vqh.s 			page 201


/var/folders/n6/c271nzx11xl4r4_m7sqjlt0m0000gn/T//ccGo3Vqh.s:1902   .bss.rawPCMdata:00000000 $d
/var/folders/n6/c271nzx11xl4r4_m7sqjlt0m0000gn/T//ccGo3Vqh.s:1909   .bss.distIndex:00000000 $d
/var/folders/n6/c271nzx11xl4r4_m7sqjlt0m0000gn/T//ccGo3Vqh.s:1916   .data.cReadIndex:00000000 $d
/var/folders/n6/c271nzx11xl4r4_m7sqjlt0m0000gn/T//ccGo3Vqh.s:1923   .bss.FFT_struct:00000000 $d
/var/folders/n6/c271nzx11xl4r4_m7sqjlt0m0000gn/T//ccGo3Vqh.s:1930   .bss.hdma_memtomem_dma2_stream2:00000000 $d
/var/folders/n6/c271nzx11xl4r4_m7sqjlt0m0000gn/T//ccGo3Vqh.s:1937   .rodata.mel_filters_num_non_zero:00000000 $d
/var/folders/n6/c271nzx11xl4r4_m7sqjlt0m0000gn/T//ccGo3Vqh.s:1945   .rodata.mel_filters_zeros_before:00000000 $d
/var/folders/n6/c271nzx11xl4r4_m7sqjlt0m0000gn/T//ccGo3Vqh.s:1981   .rodata.mel_filters_non_zero_data:00000000 $d
/var/folders/n6/c271nzx11xl4r4_m7sqjlt0m0000gn/T//ccGo3Vqh.s:2955   .data.hanningWindow:00000000 $d
/var/folders/n6/c271nzx11xl4r4_m7sqjlt0m0000gn/T//ccGo3Vqh.s:3985   .rodata.hammingWindow:00000000 $d

UNDEFINED SYMBOLS
arm_rfft_fast_init_f32
OpenWavFile
arm_rfft_fast_f32
arm_cmplx_mag_squared_f32
logf
printf
arm_mean_f32
arm_std_f32
HAL_DMA_Init
arm_copy_q15
WriteWAVFile
