ARM GAS  /var/folders/n6/c271nzx11xl4r4_m7sqjlt0m0000gn/T//cc8PHvwW.s 			page 1


   1              		.cpu cortex-m7
   2              		.arch armv7e-m
   3              		.fpu fpv5-d16
   4              		.eabi_attribute 28, 1
   5              		.eabi_attribute 20, 1
   6              		.eabi_attribute 21, 1
   7              		.eabi_attribute 23, 3
   8              		.eabi_attribute 24, 1
   9              		.eabi_attribute 25, 1
  10              		.eabi_attribute 26, 1
  11              		.eabi_attribute 30, 1
  12              		.eabi_attribute 34, 1
  13              		.eabi_attribute 18, 4
  14              		.file	"ov5640.c"
  15              		.text
  16              	.Ltext0:
  17              		.cfi_sections	.debug_frame
  18              		.file 1 "Drivers/BSP/Components/ov5640/ov5640.c"
  19              		.section	.text.ov5640_ConvertValue,"ax",%progbits
  20              		.align	1
  21              		.syntax unified
  22              		.thumb
  23              		.thumb_func
  25              	ov5640_ConvertValue:
  26              	.LVL0:
  27              	.LFB12:
   1:Drivers/BSP/Components/ov5640/ov5640.c **** /**
   2:Drivers/BSP/Components/ov5640/ov5640.c ****   ******************************************************************************
   3:Drivers/BSP/Components/ov5640/ov5640.c ****   * @file    ov5640.c
   4:Drivers/BSP/Components/ov5640/ov5640.c ****   * @author  MCD Application Team
   5:Drivers/BSP/Components/ov5640/ov5640.c ****   * @brief   This file provides the OV5640 camera driver
   6:Drivers/BSP/Components/ov5640/ov5640.c ****   ******************************************************************************
   7:Drivers/BSP/Components/ov5640/ov5640.c ****   * @attention
   8:Drivers/BSP/Components/ov5640/ov5640.c ****   *
   9:Drivers/BSP/Components/ov5640/ov5640.c ****   * <h2><center>&copy; Copyright (c) 2019 STMicroelectronics.
  10:Drivers/BSP/Components/ov5640/ov5640.c ****   * All rights reserved.</center></h2>
  11:Drivers/BSP/Components/ov5640/ov5640.c ****   *
  12:Drivers/BSP/Components/ov5640/ov5640.c ****   * This software component is licensed by ST under BSD 3-Clause license,
  13:Drivers/BSP/Components/ov5640/ov5640.c ****   * the "License"; You may not use this file except in compliance with the
  14:Drivers/BSP/Components/ov5640/ov5640.c ****   * License. You may obtain a copy of the License at:
  15:Drivers/BSP/Components/ov5640/ov5640.c ****   *                        opensource.org/licenses/BSD-3-Clause
  16:Drivers/BSP/Components/ov5640/ov5640.c ****   *
  17:Drivers/BSP/Components/ov5640/ov5640.c ****   ******************************************************************************
  18:Drivers/BSP/Components/ov5640/ov5640.c ****   */
  19:Drivers/BSP/Components/ov5640/ov5640.c **** 
  20:Drivers/BSP/Components/ov5640/ov5640.c **** /* Includes ------------------------------------------------------------------*/
  21:Drivers/BSP/Components/ov5640/ov5640.c **** #include "ov5640.h"
  22:Drivers/BSP/Components/ov5640/ov5640.c **** 
  23:Drivers/BSP/Components/ov5640/ov5640.c **** /** @addtogroup BSP
  24:Drivers/BSP/Components/ov5640/ov5640.c ****   * @{
  25:Drivers/BSP/Components/ov5640/ov5640.c ****   */
  26:Drivers/BSP/Components/ov5640/ov5640.c **** 
  27:Drivers/BSP/Components/ov5640/ov5640.c **** /** @addtogroup Components
  28:Drivers/BSP/Components/ov5640/ov5640.c ****   * @{
  29:Drivers/BSP/Components/ov5640/ov5640.c ****   */
  30:Drivers/BSP/Components/ov5640/ov5640.c **** 
  31:Drivers/BSP/Components/ov5640/ov5640.c **** /** @addtogroup OV5640
ARM GAS  /var/folders/n6/c271nzx11xl4r4_m7sqjlt0m0000gn/T//cc8PHvwW.s 			page 2


  32:Drivers/BSP/Components/ov5640/ov5640.c ****   * @brief     This file provides a set of functions needed to drive the
  33:Drivers/BSP/Components/ov5640/ov5640.c ****   *            OV5640 Camera module.
  34:Drivers/BSP/Components/ov5640/ov5640.c ****   * @{
  35:Drivers/BSP/Components/ov5640/ov5640.c ****   */
  36:Drivers/BSP/Components/ov5640/ov5640.c **** 
  37:Drivers/BSP/Components/ov5640/ov5640.c **** /** @defgroup OV5640_Private_TypesDefinitions
  38:Drivers/BSP/Components/ov5640/ov5640.c ****   * @{
  39:Drivers/BSP/Components/ov5640/ov5640.c ****   */
  40:Drivers/BSP/Components/ov5640/ov5640.c **** 
  41:Drivers/BSP/Components/ov5640/ov5640.c **** /**
  42:Drivers/BSP/Components/ov5640/ov5640.c ****   * @}
  43:Drivers/BSP/Components/ov5640/ov5640.c ****   */
  44:Drivers/BSP/Components/ov5640/ov5640.c **** 
  45:Drivers/BSP/Components/ov5640/ov5640.c **** /** @defgroup OV5640_Private_Defines
  46:Drivers/BSP/Components/ov5640/ov5640.c ****   * @{
  47:Drivers/BSP/Components/ov5640/ov5640.c ****   */
  48:Drivers/BSP/Components/ov5640/ov5640.c **** 
  49:Drivers/BSP/Components/ov5640/ov5640.c **** /**
  50:Drivers/BSP/Components/ov5640/ov5640.c ****   * @}
  51:Drivers/BSP/Components/ov5640/ov5640.c ****   */
  52:Drivers/BSP/Components/ov5640/ov5640.c **** 
  53:Drivers/BSP/Components/ov5640/ov5640.c **** /** @defgroup OV5640_Private_Macros
  54:Drivers/BSP/Components/ov5640/ov5640.c ****   * @{
  55:Drivers/BSP/Components/ov5640/ov5640.c ****   */
  56:Drivers/BSP/Components/ov5640/ov5640.c **** 
  57:Drivers/BSP/Components/ov5640/ov5640.c **** /**
  58:Drivers/BSP/Components/ov5640/ov5640.c ****   * @}
  59:Drivers/BSP/Components/ov5640/ov5640.c ****   */
  60:Drivers/BSP/Components/ov5640/ov5640.c **** 
  61:Drivers/BSP/Components/ov5640/ov5640.c **** /** @defgroup OV5640_Private_FunctionPrototypes
  62:Drivers/BSP/Components/ov5640/ov5640.c ****   * @{
  63:Drivers/BSP/Components/ov5640/ov5640.c ****   */
  64:Drivers/BSP/Components/ov5640/ov5640.c **** static uint32_t ov5640_ConvertValue(uint32_t feature, uint32_t value);
  65:Drivers/BSP/Components/ov5640/ov5640.c **** /**
  66:Drivers/BSP/Components/ov5640/ov5640.c ****   * @}
  67:Drivers/BSP/Components/ov5640/ov5640.c ****   */
  68:Drivers/BSP/Components/ov5640/ov5640.c **** 
  69:Drivers/BSP/Components/ov5640/ov5640.c **** /** @defgroup OV5640_Private_Variables
  70:Drivers/BSP/Components/ov5640/ov5640.c ****   * @{
  71:Drivers/BSP/Components/ov5640/ov5640.c ****   */
  72:Drivers/BSP/Components/ov5640/ov5640.c **** 
  73:Drivers/BSP/Components/ov5640/ov5640.c **** CAMERA_DrvTypeDef   ov5640_drv =
  74:Drivers/BSP/Components/ov5640/ov5640.c **** {
  75:Drivers/BSP/Components/ov5640/ov5640.c ****   ov5640_Init,
  76:Drivers/BSP/Components/ov5640/ov5640.c ****   ov5640_ReadID,
  77:Drivers/BSP/Components/ov5640/ov5640.c ****   ov5640_Config,
  78:Drivers/BSP/Components/ov5640/ov5640.c **** };
  79:Drivers/BSP/Components/ov5640/ov5640.c **** 
  80:Drivers/BSP/Components/ov5640/ov5640.c **** const uint16_t OV5640_Init[][2] =
  81:Drivers/BSP/Components/ov5640/ov5640.c **** {
  82:Drivers/BSP/Components/ov5640/ov5640.c ****   {0x3103, 0x11},
  83:Drivers/BSP/Components/ov5640/ov5640.c ****   {0x3008, 0x82},
  84:Drivers/BSP/Components/ov5640/ov5640.c ****   {0x3103, 0x03},
  85:Drivers/BSP/Components/ov5640/ov5640.c ****   {0x3017, 0xFF},
  86:Drivers/BSP/Components/ov5640/ov5640.c ****   {0x3018, 0xf3},
  87:Drivers/BSP/Components/ov5640/ov5640.c ****   {0x3034, 0x18},
  88:Drivers/BSP/Components/ov5640/ov5640.c ****   {0x3008, 0x02},
ARM GAS  /var/folders/n6/c271nzx11xl4r4_m7sqjlt0m0000gn/T//cc8PHvwW.s 			page 3


  89:Drivers/BSP/Components/ov5640/ov5640.c ****   {0x3035, 0x41},
  90:Drivers/BSP/Components/ov5640/ov5640.c ****   {0x3036, 0x60},
  91:Drivers/BSP/Components/ov5640/ov5640.c ****   {0x3037, 0x13},
  92:Drivers/BSP/Components/ov5640/ov5640.c ****   {0x3108, 0x01},
  93:Drivers/BSP/Components/ov5640/ov5640.c ****   {0x3630, 0x36},
  94:Drivers/BSP/Components/ov5640/ov5640.c ****   {0x3631, 0x0e},
  95:Drivers/BSP/Components/ov5640/ov5640.c ****   {0x3632, 0xe2},
  96:Drivers/BSP/Components/ov5640/ov5640.c ****   {0x3633, 0x12},
  97:Drivers/BSP/Components/ov5640/ov5640.c ****   {0x3621, 0xe0},
  98:Drivers/BSP/Components/ov5640/ov5640.c ****   {0x3704, 0xa0},
  99:Drivers/BSP/Components/ov5640/ov5640.c ****   {0x3703, 0x5a},
 100:Drivers/BSP/Components/ov5640/ov5640.c ****   {0x3715, 0x78},
 101:Drivers/BSP/Components/ov5640/ov5640.c ****   {0x3717, 0x01},
 102:Drivers/BSP/Components/ov5640/ov5640.c ****   {0x370b, 0x60},
 103:Drivers/BSP/Components/ov5640/ov5640.c ****   {0x3705, 0x1a},
 104:Drivers/BSP/Components/ov5640/ov5640.c ****   {0x3905, 0x02},
 105:Drivers/BSP/Components/ov5640/ov5640.c ****   {0x3906, 0x10},
 106:Drivers/BSP/Components/ov5640/ov5640.c ****   {0x3901, 0x0a},
 107:Drivers/BSP/Components/ov5640/ov5640.c ****   {0x3731, 0x12},
 108:Drivers/BSP/Components/ov5640/ov5640.c ****   {0x3600, 0x08},
 109:Drivers/BSP/Components/ov5640/ov5640.c ****   {0x3601, 0x33},
 110:Drivers/BSP/Components/ov5640/ov5640.c ****   {0x302d, 0x60},
 111:Drivers/BSP/Components/ov5640/ov5640.c ****   {0x3620, 0x52},
 112:Drivers/BSP/Components/ov5640/ov5640.c ****   {0x371b, 0x20},
 113:Drivers/BSP/Components/ov5640/ov5640.c ****   {0x471c, 0x50},
 114:Drivers/BSP/Components/ov5640/ov5640.c ****   {0x3a13, 0x43},
 115:Drivers/BSP/Components/ov5640/ov5640.c ****   {0x3a18, 0x00},
 116:Drivers/BSP/Components/ov5640/ov5640.c ****   {0x3a19, 0xf8},
 117:Drivers/BSP/Components/ov5640/ov5640.c ****   {0x3635, 0x13},
 118:Drivers/BSP/Components/ov5640/ov5640.c ****   {0x3636, 0x03},
 119:Drivers/BSP/Components/ov5640/ov5640.c ****   {0x3634, 0x40},
 120:Drivers/BSP/Components/ov5640/ov5640.c ****   {0x3622, 0x01},
 121:Drivers/BSP/Components/ov5640/ov5640.c ****   {0x3c01, 0x34},
 122:Drivers/BSP/Components/ov5640/ov5640.c ****   {0x3c04, 0x28},
 123:Drivers/BSP/Components/ov5640/ov5640.c ****   {0x3c05, 0x98},
 124:Drivers/BSP/Components/ov5640/ov5640.c ****   {0x3c06, 0x00},
 125:Drivers/BSP/Components/ov5640/ov5640.c ****   {0x3c07, 0x00},
 126:Drivers/BSP/Components/ov5640/ov5640.c ****   {0x3c08, 0x01},
 127:Drivers/BSP/Components/ov5640/ov5640.c ****   {0x3c09, 0x2c},
 128:Drivers/BSP/Components/ov5640/ov5640.c ****   {0x3c0a, 0x9c},
 129:Drivers/BSP/Components/ov5640/ov5640.c ****   {0x3c0b, 0x40},
 130:Drivers/BSP/Components/ov5640/ov5640.c ****   {0x3820, 0x00},
 131:Drivers/BSP/Components/ov5640/ov5640.c ****   {0x3821, 0x06},
 132:Drivers/BSP/Components/ov5640/ov5640.c ****   {0x3814, 0x31},
 133:Drivers/BSP/Components/ov5640/ov5640.c ****   {0x3815, 0x31},
 134:Drivers/BSP/Components/ov5640/ov5640.c ****   {0x3800, 0x00},
 135:Drivers/BSP/Components/ov5640/ov5640.c ****   {0x3801, 0x00},
 136:Drivers/BSP/Components/ov5640/ov5640.c ****   {0x3802, 0x00},
 137:Drivers/BSP/Components/ov5640/ov5640.c ****   {0x3803, 0x04},
 138:Drivers/BSP/Components/ov5640/ov5640.c ****   {0x3804, 0x0a},
 139:Drivers/BSP/Components/ov5640/ov5640.c ****   {0x3805, 0x3f},
 140:Drivers/BSP/Components/ov5640/ov5640.c ****   {0x3806, 0x07},
 141:Drivers/BSP/Components/ov5640/ov5640.c ****   {0x3807, 0x9b},
 142:Drivers/BSP/Components/ov5640/ov5640.c ****   {0x3808, 0x03},
 143:Drivers/BSP/Components/ov5640/ov5640.c ****   {0x3809, 0x20},
 144:Drivers/BSP/Components/ov5640/ov5640.c ****   {0x380a, 0x02},
 145:Drivers/BSP/Components/ov5640/ov5640.c ****   {0x380b, 0x58},
ARM GAS  /var/folders/n6/c271nzx11xl4r4_m7sqjlt0m0000gn/T//cc8PHvwW.s 			page 4


 146:Drivers/BSP/Components/ov5640/ov5640.c ****   {0x380c, 0x07},
 147:Drivers/BSP/Components/ov5640/ov5640.c ****   {0x380d, 0x68},
 148:Drivers/BSP/Components/ov5640/ov5640.c ****   {0x380e, 0x03},
 149:Drivers/BSP/Components/ov5640/ov5640.c ****   {0x380f, 0xd8},
 150:Drivers/BSP/Components/ov5640/ov5640.c ****   {0x3810, 0x00},
 151:Drivers/BSP/Components/ov5640/ov5640.c ****   {0x3811, 0x10},
 152:Drivers/BSP/Components/ov5640/ov5640.c ****   {0x3812, 0x00},
 153:Drivers/BSP/Components/ov5640/ov5640.c ****   {0x3813, 0x06},
 154:Drivers/BSP/Components/ov5640/ov5640.c ****   {0x3618, 0x00},
 155:Drivers/BSP/Components/ov5640/ov5640.c ****   {0x3612, 0x29},
 156:Drivers/BSP/Components/ov5640/ov5640.c ****   {0x3708, 0x64},
 157:Drivers/BSP/Components/ov5640/ov5640.c ****   {0x3709, 0x52},
 158:Drivers/BSP/Components/ov5640/ov5640.c ****   {0x370c, 0x03},
 159:Drivers/BSP/Components/ov5640/ov5640.c ****   {0x3a02, 0x03},
 160:Drivers/BSP/Components/ov5640/ov5640.c ****   {0x3a03, 0xd8},
 161:Drivers/BSP/Components/ov5640/ov5640.c ****   {0x3a08, 0x01},
 162:Drivers/BSP/Components/ov5640/ov5640.c ****   {0x3a09, 0x27},
 163:Drivers/BSP/Components/ov5640/ov5640.c ****   {0x3a0a, 0x00},
 164:Drivers/BSP/Components/ov5640/ov5640.c ****   {0x3a0b, 0xf6},
 165:Drivers/BSP/Components/ov5640/ov5640.c ****   {0x3a0e, 0x03},
 166:Drivers/BSP/Components/ov5640/ov5640.c ****   {0x3a0d, 0x04},
 167:Drivers/BSP/Components/ov5640/ov5640.c ****   {0x3a14, 0x03},
 168:Drivers/BSP/Components/ov5640/ov5640.c ****   {0x3a15, 0xd8},
 169:Drivers/BSP/Components/ov5640/ov5640.c ****   {0x4001, 0x02},
 170:Drivers/BSP/Components/ov5640/ov5640.c ****   {0x4004, 0x02},
 171:Drivers/BSP/Components/ov5640/ov5640.c ****   {0x3000, 0x00},
 172:Drivers/BSP/Components/ov5640/ov5640.c ****   {0x3002, 0x1c},
 173:Drivers/BSP/Components/ov5640/ov5640.c ****   {0x3004, 0xff},
 174:Drivers/BSP/Components/ov5640/ov5640.c ****   {0x3006, 0xc3},
 175:Drivers/BSP/Components/ov5640/ov5640.c ****   {0x300e, 0x58},
 176:Drivers/BSP/Components/ov5640/ov5640.c ****   {0x302e, 0x00},
 177:Drivers/BSP/Components/ov5640/ov5640.c ****   {0x4740, 0x20},
 178:Drivers/BSP/Components/ov5640/ov5640.c ****   {0x4300, 0x30},
 179:Drivers/BSP/Components/ov5640/ov5640.c ****   {0x501f, 0x00},
 180:Drivers/BSP/Components/ov5640/ov5640.c ****   {0x4713, 0x03},
 181:Drivers/BSP/Components/ov5640/ov5640.c ****   {0x4407, 0x04},
 182:Drivers/BSP/Components/ov5640/ov5640.c ****   {0x440e, 0x00},
 183:Drivers/BSP/Components/ov5640/ov5640.c ****   {0x460b, 0x35},
 184:Drivers/BSP/Components/ov5640/ov5640.c ****   {0x460c, 0x23},
 185:Drivers/BSP/Components/ov5640/ov5640.c ****   {0x4837, 0x22},
 186:Drivers/BSP/Components/ov5640/ov5640.c ****   {0x3824, 0x02},
 187:Drivers/BSP/Components/ov5640/ov5640.c ****   {0x5000, 0xa7},
 188:Drivers/BSP/Components/ov5640/ov5640.c ****   {0x5001, 0xa3},
 189:Drivers/BSP/Components/ov5640/ov5640.c ****   {0x5180, 0xff},
 190:Drivers/BSP/Components/ov5640/ov5640.c ****   {0x5181, 0xf2},
 191:Drivers/BSP/Components/ov5640/ov5640.c ****   {0x5182, 0x00},
 192:Drivers/BSP/Components/ov5640/ov5640.c ****   {0x5183, 0x14},
 193:Drivers/BSP/Components/ov5640/ov5640.c ****   {0x5184, 0x25},
 194:Drivers/BSP/Components/ov5640/ov5640.c ****   {0x5185, 0x24},
 195:Drivers/BSP/Components/ov5640/ov5640.c ****   {0x5186, 0x09},
 196:Drivers/BSP/Components/ov5640/ov5640.c ****   {0x5187, 0x09},
 197:Drivers/BSP/Components/ov5640/ov5640.c ****   {0x5188, 0x09},
 198:Drivers/BSP/Components/ov5640/ov5640.c ****   {0x5189, 0x75},
 199:Drivers/BSP/Components/ov5640/ov5640.c ****   {0x518a, 0x54},
 200:Drivers/BSP/Components/ov5640/ov5640.c ****   {0x518b, 0xe0},
 201:Drivers/BSP/Components/ov5640/ov5640.c ****   {0x518c, 0xb2},
 202:Drivers/BSP/Components/ov5640/ov5640.c ****   {0x518d, 0x42},
ARM GAS  /var/folders/n6/c271nzx11xl4r4_m7sqjlt0m0000gn/T//cc8PHvwW.s 			page 5


 203:Drivers/BSP/Components/ov5640/ov5640.c ****   {0x518e, 0x3d},
 204:Drivers/BSP/Components/ov5640/ov5640.c ****   {0x518f, 0x56},
 205:Drivers/BSP/Components/ov5640/ov5640.c ****   {0x5190, 0x46},
 206:Drivers/BSP/Components/ov5640/ov5640.c ****   {0x5191, 0xf8},
 207:Drivers/BSP/Components/ov5640/ov5640.c ****   {0x5192, 0x04},
 208:Drivers/BSP/Components/ov5640/ov5640.c ****   {0x5193, 0x70},
 209:Drivers/BSP/Components/ov5640/ov5640.c ****   {0x5194, 0xf0},
 210:Drivers/BSP/Components/ov5640/ov5640.c ****   {0x5195, 0xf0},
 211:Drivers/BSP/Components/ov5640/ov5640.c ****   {0x5196, 0x03},
 212:Drivers/BSP/Components/ov5640/ov5640.c ****   {0x5197, 0x01},
 213:Drivers/BSP/Components/ov5640/ov5640.c ****   {0x5198, 0x04},
 214:Drivers/BSP/Components/ov5640/ov5640.c ****   {0x5199, 0x12},
 215:Drivers/BSP/Components/ov5640/ov5640.c ****   {0x519a, 0x04},
 216:Drivers/BSP/Components/ov5640/ov5640.c ****   {0x519b, 0x00},
 217:Drivers/BSP/Components/ov5640/ov5640.c ****   {0x519c, 0x06},
 218:Drivers/BSP/Components/ov5640/ov5640.c ****   {0x519d, 0x82},
 219:Drivers/BSP/Components/ov5640/ov5640.c ****   {0x519e, 0x38},
 220:Drivers/BSP/Components/ov5640/ov5640.c ****   {0x5381, 0x1e},
 221:Drivers/BSP/Components/ov5640/ov5640.c ****   {0x5382, 0x5b},
 222:Drivers/BSP/Components/ov5640/ov5640.c ****   {0x5383, 0x08},
 223:Drivers/BSP/Components/ov5640/ov5640.c ****   {0x5384, 0x0a},
 224:Drivers/BSP/Components/ov5640/ov5640.c ****   {0x5385, 0x7e},
 225:Drivers/BSP/Components/ov5640/ov5640.c ****   {0x5386, 0x88},
 226:Drivers/BSP/Components/ov5640/ov5640.c ****   {0x5387, 0x7c},
 227:Drivers/BSP/Components/ov5640/ov5640.c ****   {0x5388, 0x6c},
 228:Drivers/BSP/Components/ov5640/ov5640.c ****   {0x5389, 0x10},
 229:Drivers/BSP/Components/ov5640/ov5640.c ****   {0x538a, 0x01},
 230:Drivers/BSP/Components/ov5640/ov5640.c ****   {0x538b, 0x98},
 231:Drivers/BSP/Components/ov5640/ov5640.c ****   {0x5300, 0x08},
 232:Drivers/BSP/Components/ov5640/ov5640.c ****   {0x5301, 0x30},
 233:Drivers/BSP/Components/ov5640/ov5640.c ****   {0x5302, 0x10},
 234:Drivers/BSP/Components/ov5640/ov5640.c ****   {0x5303, 0x00},
 235:Drivers/BSP/Components/ov5640/ov5640.c ****   {0x5304, 0x08},
 236:Drivers/BSP/Components/ov5640/ov5640.c ****   {0x5305, 0x30},
 237:Drivers/BSP/Components/ov5640/ov5640.c ****   {0x5306, 0x08},
 238:Drivers/BSP/Components/ov5640/ov5640.c ****   {0x5307, 0x16},
 239:Drivers/BSP/Components/ov5640/ov5640.c ****   {0x5309, 0x08},
 240:Drivers/BSP/Components/ov5640/ov5640.c ****   {0x530a, 0x30},
 241:Drivers/BSP/Components/ov5640/ov5640.c ****   {0x530b, 0x04},
 242:Drivers/BSP/Components/ov5640/ov5640.c ****   {0x530c, 0x06},
 243:Drivers/BSP/Components/ov5640/ov5640.c ****   {0x5480, 0x01},
 244:Drivers/BSP/Components/ov5640/ov5640.c ****   {0x5481, 0x08},
 245:Drivers/BSP/Components/ov5640/ov5640.c ****   {0x5482, 0x14},
 246:Drivers/BSP/Components/ov5640/ov5640.c ****   {0x5483, 0x28},
 247:Drivers/BSP/Components/ov5640/ov5640.c ****   {0x5484, 0x51},
 248:Drivers/BSP/Components/ov5640/ov5640.c ****   {0x5485, 0x65},
 249:Drivers/BSP/Components/ov5640/ov5640.c ****   {0x5486, 0x71},
 250:Drivers/BSP/Components/ov5640/ov5640.c ****   {0x5487, 0x7d},
 251:Drivers/BSP/Components/ov5640/ov5640.c ****   {0x5488, 0x87},
 252:Drivers/BSP/Components/ov5640/ov5640.c ****   {0x5489, 0x91},
 253:Drivers/BSP/Components/ov5640/ov5640.c ****   {0x548a, 0x9a},
 254:Drivers/BSP/Components/ov5640/ov5640.c ****   {0x548b, 0xaa},
 255:Drivers/BSP/Components/ov5640/ov5640.c ****   {0x548c, 0xb8},
 256:Drivers/BSP/Components/ov5640/ov5640.c ****   {0x548d, 0xcd},
 257:Drivers/BSP/Components/ov5640/ov5640.c ****   {0x548e, 0xdd},
 258:Drivers/BSP/Components/ov5640/ov5640.c ****   {0x548f, 0xea},
 259:Drivers/BSP/Components/ov5640/ov5640.c ****   {0x5490, 0x1d},
ARM GAS  /var/folders/n6/c271nzx11xl4r4_m7sqjlt0m0000gn/T//cc8PHvwW.s 			page 6


 260:Drivers/BSP/Components/ov5640/ov5640.c ****   {0x5580, 0x02},
 261:Drivers/BSP/Components/ov5640/ov5640.c ****   {0x5583, 0x40},
 262:Drivers/BSP/Components/ov5640/ov5640.c ****   {0x5584, 0x10},
 263:Drivers/BSP/Components/ov5640/ov5640.c ****   {0x5589, 0x10},
 264:Drivers/BSP/Components/ov5640/ov5640.c ****   {0x558a, 0x00},
 265:Drivers/BSP/Components/ov5640/ov5640.c ****   {0x558b, 0xf8},
 266:Drivers/BSP/Components/ov5640/ov5640.c ****   {0x5800, 0x23},
 267:Drivers/BSP/Components/ov5640/ov5640.c ****   {0x5801, 0x14},
 268:Drivers/BSP/Components/ov5640/ov5640.c ****   {0x5802, 0x0f},
 269:Drivers/BSP/Components/ov5640/ov5640.c ****   {0x5803, 0x0f},
 270:Drivers/BSP/Components/ov5640/ov5640.c ****   {0x5804, 0x12},
 271:Drivers/BSP/Components/ov5640/ov5640.c ****   {0x5805, 0x26},
 272:Drivers/BSP/Components/ov5640/ov5640.c ****   {0x5806, 0x0c},
 273:Drivers/BSP/Components/ov5640/ov5640.c ****   {0x5807, 0x08},
 274:Drivers/BSP/Components/ov5640/ov5640.c ****   {0x5808, 0x05},
 275:Drivers/BSP/Components/ov5640/ov5640.c ****   {0x5809, 0x05},
 276:Drivers/BSP/Components/ov5640/ov5640.c ****   {0x580a, 0x08},
 277:Drivers/BSP/Components/ov5640/ov5640.c ****   {0x580b, 0x0d},
 278:Drivers/BSP/Components/ov5640/ov5640.c ****   {0x580c, 0x08},
 279:Drivers/BSP/Components/ov5640/ov5640.c ****   {0x580d, 0x03},
 280:Drivers/BSP/Components/ov5640/ov5640.c ****   {0x580e, 0x00},
 281:Drivers/BSP/Components/ov5640/ov5640.c ****   {0x580f, 0x00},
 282:Drivers/BSP/Components/ov5640/ov5640.c ****   {0x5810, 0x03},
 283:Drivers/BSP/Components/ov5640/ov5640.c ****   {0x5811, 0x09},
 284:Drivers/BSP/Components/ov5640/ov5640.c ****   {0x5812, 0x07},
 285:Drivers/BSP/Components/ov5640/ov5640.c ****   {0x5813, 0x03},
 286:Drivers/BSP/Components/ov5640/ov5640.c ****   {0x5814, 0x00},
 287:Drivers/BSP/Components/ov5640/ov5640.c ****   {0x5815, 0x01},
 288:Drivers/BSP/Components/ov5640/ov5640.c ****   {0x5816, 0x03},
 289:Drivers/BSP/Components/ov5640/ov5640.c ****   {0x5817, 0x08},
 290:Drivers/BSP/Components/ov5640/ov5640.c ****   {0x5818, 0x0d},
 291:Drivers/BSP/Components/ov5640/ov5640.c ****   {0x5819, 0x08},
 292:Drivers/BSP/Components/ov5640/ov5640.c ****   {0x581a, 0x05},
 293:Drivers/BSP/Components/ov5640/ov5640.c ****   {0x581b, 0x06},
 294:Drivers/BSP/Components/ov5640/ov5640.c ****   {0x581c, 0x08},
 295:Drivers/BSP/Components/ov5640/ov5640.c ****   {0x581d, 0x0e},
 296:Drivers/BSP/Components/ov5640/ov5640.c ****   {0x581e, 0x29},
 297:Drivers/BSP/Components/ov5640/ov5640.c ****   {0x581f, 0x17},
 298:Drivers/BSP/Components/ov5640/ov5640.c ****   {0x5820, 0x11},
 299:Drivers/BSP/Components/ov5640/ov5640.c ****   {0x5821, 0x11},
 300:Drivers/BSP/Components/ov5640/ov5640.c ****   {0x5822, 0x15},
 301:Drivers/BSP/Components/ov5640/ov5640.c ****   {0x5823, 0x28},
 302:Drivers/BSP/Components/ov5640/ov5640.c ****   {0x5824, 0x46},
 303:Drivers/BSP/Components/ov5640/ov5640.c ****   {0x5825, 0x26},
 304:Drivers/BSP/Components/ov5640/ov5640.c ****   {0x5826, 0x08},
 305:Drivers/BSP/Components/ov5640/ov5640.c ****   {0x5827, 0x26},
 306:Drivers/BSP/Components/ov5640/ov5640.c ****   {0x5828, 0x64},
 307:Drivers/BSP/Components/ov5640/ov5640.c ****   {0x5829, 0x26},
 308:Drivers/BSP/Components/ov5640/ov5640.c ****   {0x582a, 0x24},
 309:Drivers/BSP/Components/ov5640/ov5640.c ****   {0x582b, 0x22},
 310:Drivers/BSP/Components/ov5640/ov5640.c ****   {0x582c, 0x24},
 311:Drivers/BSP/Components/ov5640/ov5640.c ****   {0x582d, 0x24},
 312:Drivers/BSP/Components/ov5640/ov5640.c ****   {0x582e, 0x06},
 313:Drivers/BSP/Components/ov5640/ov5640.c ****   {0x582f, 0x22},
 314:Drivers/BSP/Components/ov5640/ov5640.c ****   {0x5830, 0x40},
 315:Drivers/BSP/Components/ov5640/ov5640.c ****   {0x5831, 0x42},
 316:Drivers/BSP/Components/ov5640/ov5640.c ****   {0x5832, 0x24},
ARM GAS  /var/folders/n6/c271nzx11xl4r4_m7sqjlt0m0000gn/T//cc8PHvwW.s 			page 7


 317:Drivers/BSP/Components/ov5640/ov5640.c ****   {0x5833, 0x26},
 318:Drivers/BSP/Components/ov5640/ov5640.c ****   {0x5834, 0x24},
 319:Drivers/BSP/Components/ov5640/ov5640.c ****   {0x5835, 0x22},
 320:Drivers/BSP/Components/ov5640/ov5640.c ****   {0x5836, 0x22},
 321:Drivers/BSP/Components/ov5640/ov5640.c ****   {0x5837, 0x26},
 322:Drivers/BSP/Components/ov5640/ov5640.c ****   {0x5838, 0x44},
 323:Drivers/BSP/Components/ov5640/ov5640.c ****   {0x5839, 0x24},
 324:Drivers/BSP/Components/ov5640/ov5640.c ****   {0x583a, 0x26},
 325:Drivers/BSP/Components/ov5640/ov5640.c ****   {0x583b, 0x28},
 326:Drivers/BSP/Components/ov5640/ov5640.c ****   {0x583c, 0x42},
 327:Drivers/BSP/Components/ov5640/ov5640.c ****   {0x583d, 0xce},
 328:Drivers/BSP/Components/ov5640/ov5640.c ****   {0x5025, 0x00},
 329:Drivers/BSP/Components/ov5640/ov5640.c ****   {0x3a0f, 0x30},
 330:Drivers/BSP/Components/ov5640/ov5640.c ****   {0x3a10, 0x28},
 331:Drivers/BSP/Components/ov5640/ov5640.c ****   {0x3a1b, 0x30},
 332:Drivers/BSP/Components/ov5640/ov5640.c ****   {0x3a1e, 0x26},
 333:Drivers/BSP/Components/ov5640/ov5640.c ****   {0x3a11, 0x60},
 334:Drivers/BSP/Components/ov5640/ov5640.c ****   {0x3a1f, 0x14},
 335:Drivers/BSP/Components/ov5640/ov5640.c ****   {0x3008, 0x02},
 336:Drivers/BSP/Components/ov5640/ov5640.c **** };
 337:Drivers/BSP/Components/ov5640/ov5640.c **** 
 338:Drivers/BSP/Components/ov5640/ov5640.c **** /* Initialization sequence for WVGA resolution (800x480)*/
 339:Drivers/BSP/Components/ov5640/ov5640.c **** const uint16_t OV5640_WVGA[][2]=
 340:Drivers/BSP/Components/ov5640/ov5640.c **** {
 341:Drivers/BSP/Components/ov5640/ov5640.c ****   {0x3808, 0x03},
 342:Drivers/BSP/Components/ov5640/ov5640.c ****   {0x3809, 0x20},
 343:Drivers/BSP/Components/ov5640/ov5640.c ****   {0x380a, 0x01},
 344:Drivers/BSP/Components/ov5640/ov5640.c ****   {0x380b, 0xE0},
 345:Drivers/BSP/Components/ov5640/ov5640.c ****   {0x4300, 0x6F},
 346:Drivers/BSP/Components/ov5640/ov5640.c ****   {0x4740, 0x22},
 347:Drivers/BSP/Components/ov5640/ov5640.c ****   {0x501F, 0x01},
 348:Drivers/BSP/Components/ov5640/ov5640.c **** };
 349:Drivers/BSP/Components/ov5640/ov5640.c **** 
 350:Drivers/BSP/Components/ov5640/ov5640.c **** /* Initialization sequence for VGA resolution (640x480)*/
 351:Drivers/BSP/Components/ov5640/ov5640.c **** const uint16_t OV5640_VGA[][2]=
 352:Drivers/BSP/Components/ov5640/ov5640.c **** {
 353:Drivers/BSP/Components/ov5640/ov5640.c ****   {0x3808, 0x02},
 354:Drivers/BSP/Components/ov5640/ov5640.c ****   {0x3809, 0x80},
 355:Drivers/BSP/Components/ov5640/ov5640.c ****   {0x380a, 0x01},
 356:Drivers/BSP/Components/ov5640/ov5640.c ****   {0x380b, 0xE0},
 357:Drivers/BSP/Components/ov5640/ov5640.c ****   {0x4300, 0x6F},
 358:Drivers/BSP/Components/ov5640/ov5640.c ****   {0x4740, 0x22},
 359:Drivers/BSP/Components/ov5640/ov5640.c ****   {0x501F, 0x01},
 360:Drivers/BSP/Components/ov5640/ov5640.c **** };
 361:Drivers/BSP/Components/ov5640/ov5640.c **** 
 362:Drivers/BSP/Components/ov5640/ov5640.c **** /* Initialization sequence for 480x272 resolution */
 363:Drivers/BSP/Components/ov5640/ov5640.c **** const uint16_t OV5640_480x272[][2]=
 364:Drivers/BSP/Components/ov5640/ov5640.c **** {
 365:Drivers/BSP/Components/ov5640/ov5640.c ****   {0x3808, 0x01},
 366:Drivers/BSP/Components/ov5640/ov5640.c ****   {0x3809, 0xE0},
 367:Drivers/BSP/Components/ov5640/ov5640.c ****   {0x380a, 0x01},
 368:Drivers/BSP/Components/ov5640/ov5640.c ****   {0x380b, 0x10},
 369:Drivers/BSP/Components/ov5640/ov5640.c ****   {0x4300, 0x6F},
 370:Drivers/BSP/Components/ov5640/ov5640.c ****   {0x4740, 0x22},
 371:Drivers/BSP/Components/ov5640/ov5640.c ****   {0x501f, 0x01},
 372:Drivers/BSP/Components/ov5640/ov5640.c **** };
 373:Drivers/BSP/Components/ov5640/ov5640.c **** 
ARM GAS  /var/folders/n6/c271nzx11xl4r4_m7sqjlt0m0000gn/T//cc8PHvwW.s 			page 8


 374:Drivers/BSP/Components/ov5640/ov5640.c **** const uint16_t OV5640_QVGA[][2] =
 375:Drivers/BSP/Components/ov5640/ov5640.c **** {
 376:Drivers/BSP/Components/ov5640/ov5640.c ****   {0x3808, 0x01},
 377:Drivers/BSP/Components/ov5640/ov5640.c ****   {0x3809, 0x40},
 378:Drivers/BSP/Components/ov5640/ov5640.c ****   {0x380a, 0x00},
 379:Drivers/BSP/Components/ov5640/ov5640.c ****   {0x380b, 0xF0},
 380:Drivers/BSP/Components/ov5640/ov5640.c ****   {0x4300, 0x6F},
 381:Drivers/BSP/Components/ov5640/ov5640.c ****   {0x4740, 0x22},
 382:Drivers/BSP/Components/ov5640/ov5640.c ****   {0x501f, 0x01},
 383:Drivers/BSP/Components/ov5640/ov5640.c **** };
 384:Drivers/BSP/Components/ov5640/ov5640.c **** 
 385:Drivers/BSP/Components/ov5640/ov5640.c **** /* Initialization sequence for QQVGA resolution (160x120) */
 386:Drivers/BSP/Components/ov5640/ov5640.c **** const uint16_t OV5640_QQVGA[][2]=
 387:Drivers/BSP/Components/ov5640/ov5640.c **** {
 388:Drivers/BSP/Components/ov5640/ov5640.c ****   {0x3808, 0x00},
 389:Drivers/BSP/Components/ov5640/ov5640.c ****   {0x3809, 0xA0},
 390:Drivers/BSP/Components/ov5640/ov5640.c ****   {0x380a, 0x00},
 391:Drivers/BSP/Components/ov5640/ov5640.c ****   {0x380b, 0x78},
 392:Drivers/BSP/Components/ov5640/ov5640.c ****   {0x4300, 0x6F},
 393:Drivers/BSP/Components/ov5640/ov5640.c ****   {0x4740, 0x22},
 394:Drivers/BSP/Components/ov5640/ov5640.c ****   {0x501f, 0x01},
 395:Drivers/BSP/Components/ov5640/ov5640.c **** };
 396:Drivers/BSP/Components/ov5640/ov5640.c **** 
 397:Drivers/BSP/Components/ov5640/ov5640.c **** /* OV5640 Light Mode setting */
 398:Drivers/BSP/Components/ov5640/ov5640.c **** const uint16_t OV5640_LightModeAuto[][2]=
 399:Drivers/BSP/Components/ov5640/ov5640.c **** {
 400:Drivers/BSP/Components/ov5640/ov5640.c ****   {0x3406, 0x00},
 401:Drivers/BSP/Components/ov5640/ov5640.c ****   {0x3400, 0x04},
 402:Drivers/BSP/Components/ov5640/ov5640.c ****   {0x3401, 0x00},
 403:Drivers/BSP/Components/ov5640/ov5640.c ****   {0x3402, 0x04},
 404:Drivers/BSP/Components/ov5640/ov5640.c ****   {0x3403, 0x00},
 405:Drivers/BSP/Components/ov5640/ov5640.c ****   {0x3404, 0x04},
 406:Drivers/BSP/Components/ov5640/ov5640.c ****   {0x3405, 0x00},
 407:Drivers/BSP/Components/ov5640/ov5640.c **** };
 408:Drivers/BSP/Components/ov5640/ov5640.c **** 
 409:Drivers/BSP/Components/ov5640/ov5640.c **** const uint16_t OV5640_LightModeCloudy[][2]=
 410:Drivers/BSP/Components/ov5640/ov5640.c **** {
 411:Drivers/BSP/Components/ov5640/ov5640.c ****   {0x3406, 0x01},
 412:Drivers/BSP/Components/ov5640/ov5640.c ****   {0x3400, 0x06},
 413:Drivers/BSP/Components/ov5640/ov5640.c ****   {0x3401, 0x48},
 414:Drivers/BSP/Components/ov5640/ov5640.c ****   {0x3402, 0x04},
 415:Drivers/BSP/Components/ov5640/ov5640.c ****   {0x3403, 0x00},
 416:Drivers/BSP/Components/ov5640/ov5640.c ****   {0x3404, 0x04},
 417:Drivers/BSP/Components/ov5640/ov5640.c ****   {0x3405, 0xd3},
 418:Drivers/BSP/Components/ov5640/ov5640.c **** };
 419:Drivers/BSP/Components/ov5640/ov5640.c **** 
 420:Drivers/BSP/Components/ov5640/ov5640.c **** const uint16_t OV5640_LightModeOffice[][2]=
 421:Drivers/BSP/Components/ov5640/ov5640.c **** {
 422:Drivers/BSP/Components/ov5640/ov5640.c ****   {0x3406, 0x01},
 423:Drivers/BSP/Components/ov5640/ov5640.c ****   {0x3400, 0x05},
 424:Drivers/BSP/Components/ov5640/ov5640.c ****   {0x3401, 0x48},
 425:Drivers/BSP/Components/ov5640/ov5640.c ****   {0x3402, 0x04},
 426:Drivers/BSP/Components/ov5640/ov5640.c ****   {0x3403, 0x00},
 427:Drivers/BSP/Components/ov5640/ov5640.c ****   {0x3404, 0x07},
 428:Drivers/BSP/Components/ov5640/ov5640.c ****   {0x3405, 0xcf},
 429:Drivers/BSP/Components/ov5640/ov5640.c **** };
 430:Drivers/BSP/Components/ov5640/ov5640.c **** 
ARM GAS  /var/folders/n6/c271nzx11xl4r4_m7sqjlt0m0000gn/T//cc8PHvwW.s 			page 9


 431:Drivers/BSP/Components/ov5640/ov5640.c **** const uint16_t OV5640_LightModeHome[][2]=
 432:Drivers/BSP/Components/ov5640/ov5640.c **** {
 433:Drivers/BSP/Components/ov5640/ov5640.c ****   {0x3406, 0x01},
 434:Drivers/BSP/Components/ov5640/ov5640.c ****   {0x3400, 0x04},
 435:Drivers/BSP/Components/ov5640/ov5640.c ****   {0x3401, 0x10},
 436:Drivers/BSP/Components/ov5640/ov5640.c ****   {0x3402, 0x04},
 437:Drivers/BSP/Components/ov5640/ov5640.c ****   {0x3403, 0x00},
 438:Drivers/BSP/Components/ov5640/ov5640.c ****   {0x3404, 0x08},
 439:Drivers/BSP/Components/ov5640/ov5640.c ****   {0x3405, 0xB6},
 440:Drivers/BSP/Components/ov5640/ov5640.c **** };
 441:Drivers/BSP/Components/ov5640/ov5640.c **** 
 442:Drivers/BSP/Components/ov5640/ov5640.c **** const uint16_t OV5640_LightModeSunny[][2]=
 443:Drivers/BSP/Components/ov5640/ov5640.c **** {
 444:Drivers/BSP/Components/ov5640/ov5640.c ****   {0x3406, 0x01},
 445:Drivers/BSP/Components/ov5640/ov5640.c ****   {0x3400, 0x06},
 446:Drivers/BSP/Components/ov5640/ov5640.c ****   {0x3401, 0x1c},
 447:Drivers/BSP/Components/ov5640/ov5640.c ****   {0x3402, 0x04},
 448:Drivers/BSP/Components/ov5640/ov5640.c ****   {0x3403, 0x00},
 449:Drivers/BSP/Components/ov5640/ov5640.c ****   {0x3404, 0x04},
 450:Drivers/BSP/Components/ov5640/ov5640.c ****   {0x3405, 0xf3},
 451:Drivers/BSP/Components/ov5640/ov5640.c **** };
 452:Drivers/BSP/Components/ov5640/ov5640.c **** 
 453:Drivers/BSP/Components/ov5640/ov5640.c **** /**
 454:Drivers/BSP/Components/ov5640/ov5640.c ****   * @}
 455:Drivers/BSP/Components/ov5640/ov5640.c ****   */
 456:Drivers/BSP/Components/ov5640/ov5640.c **** 
 457:Drivers/BSP/Components/ov5640/ov5640.c **** 
 458:Drivers/BSP/Components/ov5640/ov5640.c **** /**
 459:Drivers/BSP/Components/ov5640/ov5640.c ****   * @brief  Initializes the OV5640 CAMERA component.
 460:Drivers/BSP/Components/ov5640/ov5640.c ****   * @param  DeviceAddr: Device address on communication Bus.
 461:Drivers/BSP/Components/ov5640/ov5640.c ****   * @param  resolution: Camera resolution
 462:Drivers/BSP/Components/ov5640/ov5640.c ****   * @retval None
 463:Drivers/BSP/Components/ov5640/ov5640.c ****   */
 464:Drivers/BSP/Components/ov5640/ov5640.c **** void ov5640_Init(uint16_t DeviceAddr, uint32_t resolution)
 465:Drivers/BSP/Components/ov5640/ov5640.c **** {
 466:Drivers/BSP/Components/ov5640/ov5640.c ****   uint32_t index = 0;
 467:Drivers/BSP/Components/ov5640/ov5640.c **** 
 468:Drivers/BSP/Components/ov5640/ov5640.c ****   for(index=0; index< (sizeof(OV5640_Init)/4) ; index++)
 469:Drivers/BSP/Components/ov5640/ov5640.c ****   {
 470:Drivers/BSP/Components/ov5640/ov5640.c ****     CAMERA_IO_Write(DeviceAddr, OV5640_Init[index][0], OV5640_Init[index][1]);
 471:Drivers/BSP/Components/ov5640/ov5640.c ****   }
 472:Drivers/BSP/Components/ov5640/ov5640.c **** 
 473:Drivers/BSP/Components/ov5640/ov5640.c ****   /* Initialize OV5640 */
 474:Drivers/BSP/Components/ov5640/ov5640.c ****   switch (resolution)
 475:Drivers/BSP/Components/ov5640/ov5640.c ****   {
 476:Drivers/BSP/Components/ov5640/ov5640.c ****   case CAMERA_R160x120:
 477:Drivers/BSP/Components/ov5640/ov5640.c ****     {
 478:Drivers/BSP/Components/ov5640/ov5640.c ****       for(index=0; index<(sizeof(OV5640_QQVGA)/4); index++)
 479:Drivers/BSP/Components/ov5640/ov5640.c ****       {
 480:Drivers/BSP/Components/ov5640/ov5640.c ****         CAMERA_IO_Write(DeviceAddr, OV5640_QQVGA[index][0], OV5640_QQVGA[index][1]);
 481:Drivers/BSP/Components/ov5640/ov5640.c ****       }
 482:Drivers/BSP/Components/ov5640/ov5640.c ****       break;
 483:Drivers/BSP/Components/ov5640/ov5640.c ****     }
 484:Drivers/BSP/Components/ov5640/ov5640.c ****   case CAMERA_R320x240:
 485:Drivers/BSP/Components/ov5640/ov5640.c ****     {
 486:Drivers/BSP/Components/ov5640/ov5640.c ****       for(index=0; index< (sizeof(OV5640_QVGA)/4); index++)
 487:Drivers/BSP/Components/ov5640/ov5640.c ****       {
ARM GAS  /var/folders/n6/c271nzx11xl4r4_m7sqjlt0m0000gn/T//cc8PHvwW.s 			page 10


 488:Drivers/BSP/Components/ov5640/ov5640.c ****         CAMERA_IO_Write(DeviceAddr, OV5640_QVGA[index][0], OV5640_QVGA[index][1]);
 489:Drivers/BSP/Components/ov5640/ov5640.c ****       }
 490:Drivers/BSP/Components/ov5640/ov5640.c **** 
 491:Drivers/BSP/Components/ov5640/ov5640.c ****       break;
 492:Drivers/BSP/Components/ov5640/ov5640.c ****     }
 493:Drivers/BSP/Components/ov5640/ov5640.c ****   case CAMERA_R480x272:
 494:Drivers/BSP/Components/ov5640/ov5640.c ****     {
 495:Drivers/BSP/Components/ov5640/ov5640.c ****       for(index=0; index<(sizeof(OV5640_480x272)/4); index++)
 496:Drivers/BSP/Components/ov5640/ov5640.c ****       {
 497:Drivers/BSP/Components/ov5640/ov5640.c ****         CAMERA_IO_Write(DeviceAddr, OV5640_480x272[index][0], OV5640_480x272[index][1]);
 498:Drivers/BSP/Components/ov5640/ov5640.c ****       }
 499:Drivers/BSP/Components/ov5640/ov5640.c ****       break;
 500:Drivers/BSP/Components/ov5640/ov5640.c ****     }
 501:Drivers/BSP/Components/ov5640/ov5640.c ****   case CAMERA_R640x480:
 502:Drivers/BSP/Components/ov5640/ov5640.c ****     {
 503:Drivers/BSP/Components/ov5640/ov5640.c ****       for(index=0; index<(sizeof(OV5640_VGA)/4); index++)
 504:Drivers/BSP/Components/ov5640/ov5640.c ****       {
 505:Drivers/BSP/Components/ov5640/ov5640.c ****         CAMERA_IO_Write(DeviceAddr, OV5640_VGA[index][0], OV5640_VGA[index][1]);
 506:Drivers/BSP/Components/ov5640/ov5640.c ****       }
 507:Drivers/BSP/Components/ov5640/ov5640.c ****       break;
 508:Drivers/BSP/Components/ov5640/ov5640.c ****     }
 509:Drivers/BSP/Components/ov5640/ov5640.c ****   default:
 510:Drivers/BSP/Components/ov5640/ov5640.c ****     {
 511:Drivers/BSP/Components/ov5640/ov5640.c ****       break;
 512:Drivers/BSP/Components/ov5640/ov5640.c ****     }
 513:Drivers/BSP/Components/ov5640/ov5640.c ****   }
 514:Drivers/BSP/Components/ov5640/ov5640.c **** }
 515:Drivers/BSP/Components/ov5640/ov5640.c **** 
 516:Drivers/BSP/Components/ov5640/ov5640.c **** /**
 517:Drivers/BSP/Components/ov5640/ov5640.c ****   * @brief  Set the OV5640 camera Light Mode.
 518:Drivers/BSP/Components/ov5640/ov5640.c ****   * @param  DeviceAddr : Device address on communication Bus.
 519:Drivers/BSP/Components/ov5640/ov5640.c ****   * @param  Effect : Effect to be configured
 520:Drivers/BSP/Components/ov5640/ov5640.c ****   * @retval None
 521:Drivers/BSP/Components/ov5640/ov5640.c ****   */
 522:Drivers/BSP/Components/ov5640/ov5640.c **** void OV5640_SetLightMode(uint16_t DeviceAddr, uint8_t LightMode)
 523:Drivers/BSP/Components/ov5640/ov5640.c **** {
 524:Drivers/BSP/Components/ov5640/ov5640.c ****   uint32_t index = 0;
 525:Drivers/BSP/Components/ov5640/ov5640.c **** 
 526:Drivers/BSP/Components/ov5640/ov5640.c ****   CAMERA_IO_Write(DeviceAddr, 0x3406, 0x00);
 527:Drivers/BSP/Components/ov5640/ov5640.c ****   CAMERA_IO_Write(DeviceAddr, 0x5190, 0x46);
 528:Drivers/BSP/Components/ov5640/ov5640.c ****   CAMERA_IO_Write(DeviceAddr, 0x5191, 0xf8);
 529:Drivers/BSP/Components/ov5640/ov5640.c ****   CAMERA_IO_Write(DeviceAddr, 0x5192, 0x04);
 530:Drivers/BSP/Components/ov5640/ov5640.c **** 
 531:Drivers/BSP/Components/ov5640/ov5640.c ****   switch(LightMode)
 532:Drivers/BSP/Components/ov5640/ov5640.c ****   {
 533:Drivers/BSP/Components/ov5640/ov5640.c ****   case OV5640_LIGHT_AUTO:
 534:Drivers/BSP/Components/ov5640/ov5640.c ****     for(index=0; index< (sizeof(OV5640_LightModeAuto)/4) ; index++)
 535:Drivers/BSP/Components/ov5640/ov5640.c ****     {
 536:Drivers/BSP/Components/ov5640/ov5640.c ****       CAMERA_IO_Write(DeviceAddr, OV5640_LightModeAuto[index][0], OV5640_LightModeAuto[index][1]);
 537:Drivers/BSP/Components/ov5640/ov5640.c ****     }
 538:Drivers/BSP/Components/ov5640/ov5640.c ****     break;
 539:Drivers/BSP/Components/ov5640/ov5640.c ****   case OV5640_LIGHT_SUNNY:
 540:Drivers/BSP/Components/ov5640/ov5640.c ****     for(index=0; index< (sizeof(OV5640_LightModeSunny)/4) ; index++)
 541:Drivers/BSP/Components/ov5640/ov5640.c ****     {
 542:Drivers/BSP/Components/ov5640/ov5640.c ****       CAMERA_IO_Write(DeviceAddr, OV5640_LightModeSunny[index][0], OV5640_LightModeSunny[index][1])
 543:Drivers/BSP/Components/ov5640/ov5640.c ****     }
 544:Drivers/BSP/Components/ov5640/ov5640.c ****     break;
ARM GAS  /var/folders/n6/c271nzx11xl4r4_m7sqjlt0m0000gn/T//cc8PHvwW.s 			page 11


 545:Drivers/BSP/Components/ov5640/ov5640.c ****   case OV5640_LIGHT_OFFICE:
 546:Drivers/BSP/Components/ov5640/ov5640.c ****     for(index=0; index< (sizeof(OV5640_LightModeOffice)/4) ; index++)
 547:Drivers/BSP/Components/ov5640/ov5640.c ****     {
 548:Drivers/BSP/Components/ov5640/ov5640.c ****       CAMERA_IO_Write(DeviceAddr, OV5640_LightModeOffice[index][0], OV5640_LightModeOffice[index][1
 549:Drivers/BSP/Components/ov5640/ov5640.c ****     }
 550:Drivers/BSP/Components/ov5640/ov5640.c ****     break;
 551:Drivers/BSP/Components/ov5640/ov5640.c ****   case OV5640_LIGHT_CLOUDY:
 552:Drivers/BSP/Components/ov5640/ov5640.c ****     for(index=0; index< (sizeof(OV5640_LightModeCloudy)/4) ; index++)
 553:Drivers/BSP/Components/ov5640/ov5640.c ****     {
 554:Drivers/BSP/Components/ov5640/ov5640.c ****       CAMERA_IO_Write(DeviceAddr, OV5640_LightModeCloudy[index][0], OV5640_LightModeCloudy[index][1
 555:Drivers/BSP/Components/ov5640/ov5640.c ****     }
 556:Drivers/BSP/Components/ov5640/ov5640.c ****     break;
 557:Drivers/BSP/Components/ov5640/ov5640.c ****   case OV5640_LIGHT_HOME:
 558:Drivers/BSP/Components/ov5640/ov5640.c ****     for(index=0; index< (sizeof(OV5640_LightModeHome)/4) ; index++)
 559:Drivers/BSP/Components/ov5640/ov5640.c ****     {
 560:Drivers/BSP/Components/ov5640/ov5640.c ****       CAMERA_IO_Write(DeviceAddr, OV5640_LightModeHome[index][0], OV5640_LightModeHome[index][1]);
 561:Drivers/BSP/Components/ov5640/ov5640.c ****     }
 562:Drivers/BSP/Components/ov5640/ov5640.c ****     break;
 563:Drivers/BSP/Components/ov5640/ov5640.c ****   default :
 564:Drivers/BSP/Components/ov5640/ov5640.c ****     /* Auto light mode used */
 565:Drivers/BSP/Components/ov5640/ov5640.c ****     for(index=0; index< (sizeof(OV5640_LightModeAuto)/4) ; index++)
 566:Drivers/BSP/Components/ov5640/ov5640.c ****     {
 567:Drivers/BSP/Components/ov5640/ov5640.c ****       CAMERA_IO_Write(DeviceAddr, OV5640_LightModeAuto[index][0], OV5640_LightModeAuto[index][1]);
 568:Drivers/BSP/Components/ov5640/ov5640.c ****     }
 569:Drivers/BSP/Components/ov5640/ov5640.c ****     break;
 570:Drivers/BSP/Components/ov5640/ov5640.c ****   }
 571:Drivers/BSP/Components/ov5640/ov5640.c **** }
 572:Drivers/BSP/Components/ov5640/ov5640.c **** 
 573:Drivers/BSP/Components/ov5640/ov5640.c **** /**
 574:Drivers/BSP/Components/ov5640/ov5640.c ****   * @brief  Set the OV5640 camera Special Effect.
 575:Drivers/BSP/Components/ov5640/ov5640.c ****   * @param  DeviceAddr: Device address on communication Bus.
 576:Drivers/BSP/Components/ov5640/ov5640.c ****   * @param  Effect: Effect to be configured
 577:Drivers/BSP/Components/ov5640/ov5640.c ****   * @retval None
 578:Drivers/BSP/Components/ov5640/ov5640.c ****   */
 579:Drivers/BSP/Components/ov5640/ov5640.c **** void OV5640_SetEffect(uint16_t DeviceAddr, uint32_t Effect)
 580:Drivers/BSP/Components/ov5640/ov5640.c **** {
 581:Drivers/BSP/Components/ov5640/ov5640.c ****   switch(Effect)
 582:Drivers/BSP/Components/ov5640/ov5640.c ****   {
 583:Drivers/BSP/Components/ov5640/ov5640.c ****   case OV5640_COLOR_EFFECT_NONE:
 584:Drivers/BSP/Components/ov5640/ov5640.c ****     CAMERA_IO_Write(DeviceAddr, 0x5001, 0x7F);
 585:Drivers/BSP/Components/ov5640/ov5640.c ****     CAMERA_IO_Write(DeviceAddr, 0x5580, 0x00);
 586:Drivers/BSP/Components/ov5640/ov5640.c ****     break;
 587:Drivers/BSP/Components/ov5640/ov5640.c **** 
 588:Drivers/BSP/Components/ov5640/ov5640.c ****   case OV5640_COLOR_EFFECT_BLUE:
 589:Drivers/BSP/Components/ov5640/ov5640.c ****     CAMERA_IO_Write(DeviceAddr, 0x5001, 0xFF);
 590:Drivers/BSP/Components/ov5640/ov5640.c ****     CAMERA_IO_Write(DeviceAddr, 0x5580, 0x18);
 591:Drivers/BSP/Components/ov5640/ov5640.c ****     CAMERA_IO_Write(DeviceAddr, 0x5583, 0xA0);
 592:Drivers/BSP/Components/ov5640/ov5640.c ****     CAMERA_IO_Write(DeviceAddr, 0x5584, 0x40);
 593:Drivers/BSP/Components/ov5640/ov5640.c ****     break;
 594:Drivers/BSP/Components/ov5640/ov5640.c **** 
 595:Drivers/BSP/Components/ov5640/ov5640.c ****   case OV5640_COLOR_EFFECT_RED:
 596:Drivers/BSP/Components/ov5640/ov5640.c ****     CAMERA_IO_Write(DeviceAddr, 0x5001, 0xFF);
 597:Drivers/BSP/Components/ov5640/ov5640.c ****     CAMERA_IO_Write(DeviceAddr, 0x5580, 0x18);
 598:Drivers/BSP/Components/ov5640/ov5640.c ****     CAMERA_IO_Write(DeviceAddr, 0x5583, 0x80);
 599:Drivers/BSP/Components/ov5640/ov5640.c ****     CAMERA_IO_Write(DeviceAddr, 0x5584, 0xC0);
 600:Drivers/BSP/Components/ov5640/ov5640.c ****     break;
 601:Drivers/BSP/Components/ov5640/ov5640.c **** 
ARM GAS  /var/folders/n6/c271nzx11xl4r4_m7sqjlt0m0000gn/T//cc8PHvwW.s 			page 12


 602:Drivers/BSP/Components/ov5640/ov5640.c ****   case OV5640_COLOR_EFFECT_GREEN:
 603:Drivers/BSP/Components/ov5640/ov5640.c ****     CAMERA_IO_Write(DeviceAddr, 0x5001, 0xFF);
 604:Drivers/BSP/Components/ov5640/ov5640.c ****     CAMERA_IO_Write(DeviceAddr, 0x5580, 0x18);
 605:Drivers/BSP/Components/ov5640/ov5640.c ****     CAMERA_IO_Write(DeviceAddr, 0x5583, 0x60);
 606:Drivers/BSP/Components/ov5640/ov5640.c ****     CAMERA_IO_Write(DeviceAddr, 0x5584, 0x60);
 607:Drivers/BSP/Components/ov5640/ov5640.c ****     break;
 608:Drivers/BSP/Components/ov5640/ov5640.c **** 
 609:Drivers/BSP/Components/ov5640/ov5640.c ****   case OV5640_COLOR_EFFECT_BW:
 610:Drivers/BSP/Components/ov5640/ov5640.c ****     CAMERA_IO_Write(DeviceAddr, 0x5001, 0xFF);
 611:Drivers/BSP/Components/ov5640/ov5640.c ****     CAMERA_IO_Write(DeviceAddr, 0x5580, 0x18);
 612:Drivers/BSP/Components/ov5640/ov5640.c ****     CAMERA_IO_Write(DeviceAddr, 0x5583, 0x80);
 613:Drivers/BSP/Components/ov5640/ov5640.c ****     CAMERA_IO_Write(DeviceAddr, 0x5584, 0x80);
 614:Drivers/BSP/Components/ov5640/ov5640.c ****     break;
 615:Drivers/BSP/Components/ov5640/ov5640.c **** 
 616:Drivers/BSP/Components/ov5640/ov5640.c ****   case OV5640_COLOR_EFFECT_SEPIA:
 617:Drivers/BSP/Components/ov5640/ov5640.c ****     CAMERA_IO_Write(DeviceAddr, 0x5001, 0xFF);
 618:Drivers/BSP/Components/ov5640/ov5640.c ****     CAMERA_IO_Write(DeviceAddr, 0x5580, 0x18);
 619:Drivers/BSP/Components/ov5640/ov5640.c ****     CAMERA_IO_Write(DeviceAddr, 0x5583, 0x40);
 620:Drivers/BSP/Components/ov5640/ov5640.c ****     CAMERA_IO_Write(DeviceAddr, 0x5584, 0xA0);
 621:Drivers/BSP/Components/ov5640/ov5640.c ****     break;
 622:Drivers/BSP/Components/ov5640/ov5640.c **** 
 623:Drivers/BSP/Components/ov5640/ov5640.c ****   case OV5640_COLOR_EFFECT_NEGATIVE:
 624:Drivers/BSP/Components/ov5640/ov5640.c ****     CAMERA_IO_Write(DeviceAddr, 0x5001, 0xFF);
 625:Drivers/BSP/Components/ov5640/ov5640.c ****     CAMERA_IO_Write(DeviceAddr, 0x5580, 0x40);
 626:Drivers/BSP/Components/ov5640/ov5640.c ****     break;
 627:Drivers/BSP/Components/ov5640/ov5640.c **** 
 628:Drivers/BSP/Components/ov5640/ov5640.c ****   case OV5640_COLOR_EFFECT_BW_NEGATIVE:
 629:Drivers/BSP/Components/ov5640/ov5640.c ****     CAMERA_IO_Write(DeviceAddr, 0x5001, 0xFF);
 630:Drivers/BSP/Components/ov5640/ov5640.c ****     CAMERA_IO_Write(DeviceAddr, 0x5580, 0x58);
 631:Drivers/BSP/Components/ov5640/ov5640.c ****     CAMERA_IO_Write(DeviceAddr, 0x5583, 0x40);
 632:Drivers/BSP/Components/ov5640/ov5640.c ****     CAMERA_IO_Write(DeviceAddr, 0x5584, 0x40);
 633:Drivers/BSP/Components/ov5640/ov5640.c ****     break;
 634:Drivers/BSP/Components/ov5640/ov5640.c **** 
 635:Drivers/BSP/Components/ov5640/ov5640.c ****   case OV5640_COLOR_EFFECT_OVEREXPOSURE:
 636:Drivers/BSP/Components/ov5640/ov5640.c ****     CAMERA_IO_Write(DeviceAddr, 0x5001, 0xFF);
 637:Drivers/BSP/Components/ov5640/ov5640.c ****     CAMERA_IO_Write(DeviceAddr, 0x5580, 0x18);
 638:Drivers/BSP/Components/ov5640/ov5640.c ****     CAMERA_IO_Write(DeviceAddr, 0x5583, 0xF0);
 639:Drivers/BSP/Components/ov5640/ov5640.c ****     CAMERA_IO_Write(DeviceAddr, 0x5584, 0xF0);
 640:Drivers/BSP/Components/ov5640/ov5640.c ****     break;
 641:Drivers/BSP/Components/ov5640/ov5640.c **** 
 642:Drivers/BSP/Components/ov5640/ov5640.c ****   case OV5640_COLOR_EFFECT_SOLARIZE:
 643:Drivers/BSP/Components/ov5640/ov5640.c ****     CAMERA_IO_Write(DeviceAddr, 0x5001, 0xFF);
 644:Drivers/BSP/Components/ov5640/ov5640.c ****     CAMERA_IO_Write(DeviceAddr, 0x5580, 0x06);
 645:Drivers/BSP/Components/ov5640/ov5640.c ****     CAMERA_IO_Write(DeviceAddr, 0x5583, 0x40);
 646:Drivers/BSP/Components/ov5640/ov5640.c ****     CAMERA_IO_Write(DeviceAddr, 0x5584, 0x10);
 647:Drivers/BSP/Components/ov5640/ov5640.c ****     CAMERA_IO_Write(DeviceAddr, 0x5003, 0x09);
 648:Drivers/BSP/Components/ov5640/ov5640.c ****     break;
 649:Drivers/BSP/Components/ov5640/ov5640.c **** 
 650:Drivers/BSP/Components/ov5640/ov5640.c ****   default :
 651:Drivers/BSP/Components/ov5640/ov5640.c ****     /* No effect */
 652:Drivers/BSP/Components/ov5640/ov5640.c ****     CAMERA_IO_Write(DeviceAddr, 0x5001, 0x7F);
 653:Drivers/BSP/Components/ov5640/ov5640.c ****     CAMERA_IO_Write(DeviceAddr, 0x5580, 0x00);
 654:Drivers/BSP/Components/ov5640/ov5640.c ****     break;
 655:Drivers/BSP/Components/ov5640/ov5640.c ****   }
 656:Drivers/BSP/Components/ov5640/ov5640.c **** }
 657:Drivers/BSP/Components/ov5640/ov5640.c **** 
 658:Drivers/BSP/Components/ov5640/ov5640.c **** /**
ARM GAS  /var/folders/n6/c271nzx11xl4r4_m7sqjlt0m0000gn/T//cc8PHvwW.s 			page 13


 659:Drivers/BSP/Components/ov5640/ov5640.c ****   * @brief  Set the OV5640 camera Brightness Level.
 660:Drivers/BSP/Components/ov5640/ov5640.c ****   * @note   The brightness of OV5640 could be adjusted. Higher brightness will
 661:Drivers/BSP/Components/ov5640/ov5640.c ****   *         make the picture more bright. The side effect of higher brightness
 662:Drivers/BSP/Components/ov5640/ov5640.c ****   *         is the picture looks foggy.
 663:Drivers/BSP/Components/ov5640/ov5640.c ****   * @param  DeviceAddr: Device address on communication Bus.
 664:Drivers/BSP/Components/ov5640/ov5640.c ****   * @param  Level: Value to be configured
 665:Drivers/BSP/Components/ov5640/ov5640.c ****   * @retval None
 666:Drivers/BSP/Components/ov5640/ov5640.c ****   */
 667:Drivers/BSP/Components/ov5640/ov5640.c **** void OV5640_SetBrightness(uint16_t DeviceAddr, uint8_t Level)
 668:Drivers/BSP/Components/ov5640/ov5640.c **** {
 669:Drivers/BSP/Components/ov5640/ov5640.c ****   CAMERA_IO_Write(DeviceAddr, 0x5001, 0xFF);
 670:Drivers/BSP/Components/ov5640/ov5640.c **** 
 671:Drivers/BSP/Components/ov5640/ov5640.c ****   switch(Level)
 672:Drivers/BSP/Components/ov5640/ov5640.c ****   {
 673:Drivers/BSP/Components/ov5640/ov5640.c ****   case OV5640_BRIGHTNESS_LEVEL4P:
 674:Drivers/BSP/Components/ov5640/ov5640.c ****     CAMERA_IO_Write(DeviceAddr, 0x5587, 0x40);
 675:Drivers/BSP/Components/ov5640/ov5640.c ****     break;
 676:Drivers/BSP/Components/ov5640/ov5640.c **** 
 677:Drivers/BSP/Components/ov5640/ov5640.c ****   case OV5640_BRIGHTNESS_LEVEL3P:
 678:Drivers/BSP/Components/ov5640/ov5640.c ****     CAMERA_IO_Write(DeviceAddr, 0x5587, 0x30);
 679:Drivers/BSP/Components/ov5640/ov5640.c ****     break;
 680:Drivers/BSP/Components/ov5640/ov5640.c **** 
 681:Drivers/BSP/Components/ov5640/ov5640.c ****   case OV5640_BRIGHTNESS_LEVEL2P:
 682:Drivers/BSP/Components/ov5640/ov5640.c ****     CAMERA_IO_Write(DeviceAddr, 0x5587, 0x20);
 683:Drivers/BSP/Components/ov5640/ov5640.c ****     break;
 684:Drivers/BSP/Components/ov5640/ov5640.c **** 
 685:Drivers/BSP/Components/ov5640/ov5640.c ****   case OV5640_BRIGHTNESS_LEVEL1P:
 686:Drivers/BSP/Components/ov5640/ov5640.c ****     CAMERA_IO_Write(DeviceAddr, 0x5587, 0x10);
 687:Drivers/BSP/Components/ov5640/ov5640.c ****     break;
 688:Drivers/BSP/Components/ov5640/ov5640.c **** 
 689:Drivers/BSP/Components/ov5640/ov5640.c ****   case OV5640_BRIGHTNESS_LEVEL0:
 690:Drivers/BSP/Components/ov5640/ov5640.c ****     CAMERA_IO_Write(DeviceAddr, 0x5587, 0x00);
 691:Drivers/BSP/Components/ov5640/ov5640.c ****     break;
 692:Drivers/BSP/Components/ov5640/ov5640.c **** 
 693:Drivers/BSP/Components/ov5640/ov5640.c ****   case OV5640_BRIGHTNESS_LEVEL1N:
 694:Drivers/BSP/Components/ov5640/ov5640.c ****     CAMERA_IO_Write(DeviceAddr, 0x5587, 0x10);
 695:Drivers/BSP/Components/ov5640/ov5640.c ****     break;
 696:Drivers/BSP/Components/ov5640/ov5640.c **** 
 697:Drivers/BSP/Components/ov5640/ov5640.c ****   case OV5640_BRIGHTNESS_LEVEL2N:
 698:Drivers/BSP/Components/ov5640/ov5640.c ****     CAMERA_IO_Write(DeviceAddr, 0x5587, 0x20);
 699:Drivers/BSP/Components/ov5640/ov5640.c ****     break;
 700:Drivers/BSP/Components/ov5640/ov5640.c **** 
 701:Drivers/BSP/Components/ov5640/ov5640.c ****   case OV5640_BRIGHTNESS_LEVEL3N:
 702:Drivers/BSP/Components/ov5640/ov5640.c ****     CAMERA_IO_Write(DeviceAddr, 0x5587, 0x30);
 703:Drivers/BSP/Components/ov5640/ov5640.c ****     break;
 704:Drivers/BSP/Components/ov5640/ov5640.c **** 
 705:Drivers/BSP/Components/ov5640/ov5640.c ****   case OV5640_BRIGHTNESS_LEVEL4N:
 706:Drivers/BSP/Components/ov5640/ov5640.c ****     CAMERA_IO_Write(DeviceAddr, 0x5587, 0x40);
 707:Drivers/BSP/Components/ov5640/ov5640.c ****     break;
 708:Drivers/BSP/Components/ov5640/ov5640.c **** 
 709:Drivers/BSP/Components/ov5640/ov5640.c ****   default:
 710:Drivers/BSP/Components/ov5640/ov5640.c ****     /* Level 0 as default */
 711:Drivers/BSP/Components/ov5640/ov5640.c ****     Level = OV5640_BRIGHTNESS_LEVEL0;
 712:Drivers/BSP/Components/ov5640/ov5640.c ****     CAMERA_IO_Write(DeviceAddr, 0x5587, 0x00);
 713:Drivers/BSP/Components/ov5640/ov5640.c ****     break;
 714:Drivers/BSP/Components/ov5640/ov5640.c ****   }
 715:Drivers/BSP/Components/ov5640/ov5640.c **** 
ARM GAS  /var/folders/n6/c271nzx11xl4r4_m7sqjlt0m0000gn/T//cc8PHvwW.s 			page 14


 716:Drivers/BSP/Components/ov5640/ov5640.c ****   CAMERA_IO_Write(DeviceAddr, 0x5580, 0x04);
 717:Drivers/BSP/Components/ov5640/ov5640.c **** 
 718:Drivers/BSP/Components/ov5640/ov5640.c ****   if(Level < OV5640_SATURATION_LEVEL1N)
 719:Drivers/BSP/Components/ov5640/ov5640.c ****   {
 720:Drivers/BSP/Components/ov5640/ov5640.c ****     CAMERA_IO_Write(DeviceAddr, 0x5588, 0x01);
 721:Drivers/BSP/Components/ov5640/ov5640.c ****   }
 722:Drivers/BSP/Components/ov5640/ov5640.c ****   else
 723:Drivers/BSP/Components/ov5640/ov5640.c ****   {
 724:Drivers/BSP/Components/ov5640/ov5640.c ****     CAMERA_IO_Write(DeviceAddr, 0x5588, 0x09);
 725:Drivers/BSP/Components/ov5640/ov5640.c ****   }
 726:Drivers/BSP/Components/ov5640/ov5640.c **** }
 727:Drivers/BSP/Components/ov5640/ov5640.c **** 
 728:Drivers/BSP/Components/ov5640/ov5640.c **** /**
 729:Drivers/BSP/Components/ov5640/ov5640.c ****   * @brief  Set the OV5640 camera Saturation Level.
 730:Drivers/BSP/Components/ov5640/ov5640.c ****   * @note   The color saturation of OV5640 could be adjusted. High color saturation
 731:Drivers/BSP/Components/ov5640/ov5640.c ****   *         would make the picture looks more vivid, but the side effect is the
 732:Drivers/BSP/Components/ov5640/ov5640.c ****   *         bigger noise and not accurate skin color.
 733:Drivers/BSP/Components/ov5640/ov5640.c ****   * @param  DeviceAddr: Device address on communication Bus.
 734:Drivers/BSP/Components/ov5640/ov5640.c ****   * @param  Level: Value to be configured
 735:Drivers/BSP/Components/ov5640/ov5640.c ****   * @retval None
 736:Drivers/BSP/Components/ov5640/ov5640.c ****   */
 737:Drivers/BSP/Components/ov5640/ov5640.c **** void OV5640_SetSaturation(uint16_t DeviceAddr, uint8_t Level)
 738:Drivers/BSP/Components/ov5640/ov5640.c **** {
 739:Drivers/BSP/Components/ov5640/ov5640.c ****   CAMERA_IO_Write(DeviceAddr, 0x5001, 0xFF);
 740:Drivers/BSP/Components/ov5640/ov5640.c **** 
 741:Drivers/BSP/Components/ov5640/ov5640.c ****   switch(Level)
 742:Drivers/BSP/Components/ov5640/ov5640.c ****   {
 743:Drivers/BSP/Components/ov5640/ov5640.c ****   case OV5640_SATURATION_LEVEL4P:
 744:Drivers/BSP/Components/ov5640/ov5640.c ****     CAMERA_IO_Write(DeviceAddr, 0x5583, 0x40);
 745:Drivers/BSP/Components/ov5640/ov5640.c ****     CAMERA_IO_Write(DeviceAddr, 0x5584, 0x40);
 746:Drivers/BSP/Components/ov5640/ov5640.c ****     break;
 747:Drivers/BSP/Components/ov5640/ov5640.c **** 
 748:Drivers/BSP/Components/ov5640/ov5640.c ****   case OV5640_SATURATION_LEVEL3P:
 749:Drivers/BSP/Components/ov5640/ov5640.c ****     CAMERA_IO_Write(DeviceAddr, 0x5583, 0x50);
 750:Drivers/BSP/Components/ov5640/ov5640.c ****     CAMERA_IO_Write(DeviceAddr, 0x5584, 0x50);
 751:Drivers/BSP/Components/ov5640/ov5640.c ****     break;
 752:Drivers/BSP/Components/ov5640/ov5640.c **** 
 753:Drivers/BSP/Components/ov5640/ov5640.c ****   case OV5640_SATURATION_LEVEL2P:
 754:Drivers/BSP/Components/ov5640/ov5640.c ****     CAMERA_IO_Write(DeviceAddr, 0x5583, 0x60);
 755:Drivers/BSP/Components/ov5640/ov5640.c ****     CAMERA_IO_Write(DeviceAddr, 0x5584, 0x60);
 756:Drivers/BSP/Components/ov5640/ov5640.c ****     break;
 757:Drivers/BSP/Components/ov5640/ov5640.c **** 
 758:Drivers/BSP/Components/ov5640/ov5640.c ****   case OV5640_SATURATION_LEVEL1P:
 759:Drivers/BSP/Components/ov5640/ov5640.c ****     CAMERA_IO_Write(DeviceAddr, 0x5583, 0x70);
 760:Drivers/BSP/Components/ov5640/ov5640.c ****     CAMERA_IO_Write(DeviceAddr, 0x5584, 0x70);
 761:Drivers/BSP/Components/ov5640/ov5640.c ****     break;
 762:Drivers/BSP/Components/ov5640/ov5640.c **** 
 763:Drivers/BSP/Components/ov5640/ov5640.c ****   case OV5640_SATURATION_LEVEL0:
 764:Drivers/BSP/Components/ov5640/ov5640.c ****     CAMERA_IO_Write(DeviceAddr, 0x5583, 0x80);
 765:Drivers/BSP/Components/ov5640/ov5640.c ****     CAMERA_IO_Write(DeviceAddr, 0x5584, 0x80);
 766:Drivers/BSP/Components/ov5640/ov5640.c ****     break;
 767:Drivers/BSP/Components/ov5640/ov5640.c **** 
 768:Drivers/BSP/Components/ov5640/ov5640.c ****   case OV5640_SATURATION_LEVEL1N:
 769:Drivers/BSP/Components/ov5640/ov5640.c ****     CAMERA_IO_Write(DeviceAddr, 0x5583, 0x30);
 770:Drivers/BSP/Components/ov5640/ov5640.c ****     CAMERA_IO_Write(DeviceAddr, 0x5584, 0x30);
 771:Drivers/BSP/Components/ov5640/ov5640.c ****     break;
 772:Drivers/BSP/Components/ov5640/ov5640.c **** 
ARM GAS  /var/folders/n6/c271nzx11xl4r4_m7sqjlt0m0000gn/T//cc8PHvwW.s 			page 15


 773:Drivers/BSP/Components/ov5640/ov5640.c ****   case OV5640_SATURATION_LEVEL2N:
 774:Drivers/BSP/Components/ov5640/ov5640.c ****     CAMERA_IO_Write(DeviceAddr, 0x5583, 0x20);
 775:Drivers/BSP/Components/ov5640/ov5640.c ****     CAMERA_IO_Write(DeviceAddr, 0x5584, 0x20);
 776:Drivers/BSP/Components/ov5640/ov5640.c ****     break;
 777:Drivers/BSP/Components/ov5640/ov5640.c **** 
 778:Drivers/BSP/Components/ov5640/ov5640.c ****   case OV5640_SATURATION_LEVEL3N:
 779:Drivers/BSP/Components/ov5640/ov5640.c ****     CAMERA_IO_Write(DeviceAddr, 0x5583, 0x10);
 780:Drivers/BSP/Components/ov5640/ov5640.c ****     CAMERA_IO_Write(DeviceAddr, 0x5584, 0x10);
 781:Drivers/BSP/Components/ov5640/ov5640.c ****     break;
 782:Drivers/BSP/Components/ov5640/ov5640.c **** 
 783:Drivers/BSP/Components/ov5640/ov5640.c ****   case OV5640_SATURATION_LEVEL4N:
 784:Drivers/BSP/Components/ov5640/ov5640.c ****     CAMERA_IO_Write(DeviceAddr, 0x5583, 0x00);
 785:Drivers/BSP/Components/ov5640/ov5640.c ****     CAMERA_IO_Write(DeviceAddr, 0x5584, 0x00);
 786:Drivers/BSP/Components/ov5640/ov5640.c ****     break;
 787:Drivers/BSP/Components/ov5640/ov5640.c **** 
 788:Drivers/BSP/Components/ov5640/ov5640.c ****   default:
 789:Drivers/BSP/Components/ov5640/ov5640.c ****     /* Level 0 as default */
 790:Drivers/BSP/Components/ov5640/ov5640.c ****     CAMERA_IO_Write(DeviceAddr, 0x5583, 0x40);
 791:Drivers/BSP/Components/ov5640/ov5640.c ****     CAMERA_IO_Write(DeviceAddr, 0x5584, 0x40);
 792:Drivers/BSP/Components/ov5640/ov5640.c ****     break;
 793:Drivers/BSP/Components/ov5640/ov5640.c ****   }
 794:Drivers/BSP/Components/ov5640/ov5640.c **** 
 795:Drivers/BSP/Components/ov5640/ov5640.c ****   CAMERA_IO_Write(DeviceAddr, 0x5580, 0x02);
 796:Drivers/BSP/Components/ov5640/ov5640.c ****   CAMERA_IO_Write(DeviceAddr, 0x5588, 0x41);
 797:Drivers/BSP/Components/ov5640/ov5640.c **** }
 798:Drivers/BSP/Components/ov5640/ov5640.c **** 
 799:Drivers/BSP/Components/ov5640/ov5640.c **** /**
 800:Drivers/BSP/Components/ov5640/ov5640.c ****   * @brief  Set the OV5640 camera Contrast Level.
 801:Drivers/BSP/Components/ov5640/ov5640.c ****   * @note   The contrast of OV5640 could be adjusted. Higher contrast will make
 802:Drivers/BSP/Components/ov5640/ov5640.c ****   *         the picture sharp. But the side effect is loosing dynamic range.
 803:Drivers/BSP/Components/ov5640/ov5640.c ****   * @param  DeviceAddr: Device address on communication Bus.
 804:Drivers/BSP/Components/ov5640/ov5640.c ****   * @param  Level: Value to be configured
 805:Drivers/BSP/Components/ov5640/ov5640.c ****   * @retval None
 806:Drivers/BSP/Components/ov5640/ov5640.c ****   */
 807:Drivers/BSP/Components/ov5640/ov5640.c **** void OV5640_SetContrast(uint16_t DeviceAddr, uint8_t Level)
 808:Drivers/BSP/Components/ov5640/ov5640.c **** {
 809:Drivers/BSP/Components/ov5640/ov5640.c ****   CAMERA_IO_Write(DeviceAddr, 0x5001, 0xFF);
 810:Drivers/BSP/Components/ov5640/ov5640.c ****   CAMERA_IO_Write(DeviceAddr, 0x5580, 0x04);
 811:Drivers/BSP/Components/ov5640/ov5640.c **** 
 812:Drivers/BSP/Components/ov5640/ov5640.c ****   switch(Level)
 813:Drivers/BSP/Components/ov5640/ov5640.c ****   {
 814:Drivers/BSP/Components/ov5640/ov5640.c ****   case OV5640_CONTRAST_LEVEL4P:
 815:Drivers/BSP/Components/ov5640/ov5640.c ****     CAMERA_IO_Write(DeviceAddr, 0x5586, 0x30);
 816:Drivers/BSP/Components/ov5640/ov5640.c ****     CAMERA_IO_Write(DeviceAddr, 0x5585, 0x30);
 817:Drivers/BSP/Components/ov5640/ov5640.c ****     break;
 818:Drivers/BSP/Components/ov5640/ov5640.c **** 
 819:Drivers/BSP/Components/ov5640/ov5640.c ****   case OV5640_CONTRAST_LEVEL3P:
 820:Drivers/BSP/Components/ov5640/ov5640.c ****     CAMERA_IO_Write(DeviceAddr, 0x5586, 0x2C);
 821:Drivers/BSP/Components/ov5640/ov5640.c ****     CAMERA_IO_Write(DeviceAddr, 0x5585, 0x2C);
 822:Drivers/BSP/Components/ov5640/ov5640.c ****     break;
 823:Drivers/BSP/Components/ov5640/ov5640.c **** 
 824:Drivers/BSP/Components/ov5640/ov5640.c ****   case OV5640_CONTRAST_LEVEL2P:
 825:Drivers/BSP/Components/ov5640/ov5640.c ****     CAMERA_IO_Write(DeviceAddr, 0x5586, 0x28);
 826:Drivers/BSP/Components/ov5640/ov5640.c ****     CAMERA_IO_Write(DeviceAddr, 0x5585, 0x28);
 827:Drivers/BSP/Components/ov5640/ov5640.c ****     break;
 828:Drivers/BSP/Components/ov5640/ov5640.c **** 
 829:Drivers/BSP/Components/ov5640/ov5640.c ****   case OV5640_CONTRAST_LEVEL1P:
ARM GAS  /var/folders/n6/c271nzx11xl4r4_m7sqjlt0m0000gn/T//cc8PHvwW.s 			page 16


 830:Drivers/BSP/Components/ov5640/ov5640.c ****     CAMERA_IO_Write(DeviceAddr, 0x5586, 0x24);
 831:Drivers/BSP/Components/ov5640/ov5640.c ****     CAMERA_IO_Write(DeviceAddr, 0x5585, 0x24);
 832:Drivers/BSP/Components/ov5640/ov5640.c ****     break;
 833:Drivers/BSP/Components/ov5640/ov5640.c **** 
 834:Drivers/BSP/Components/ov5640/ov5640.c ****   case OV5640_CONTRAST_LEVEL0:
 835:Drivers/BSP/Components/ov5640/ov5640.c ****     CAMERA_IO_Write(DeviceAddr, 0x5586, 0x20);
 836:Drivers/BSP/Components/ov5640/ov5640.c ****     CAMERA_IO_Write(DeviceAddr, 0x5585, 0x20);
 837:Drivers/BSP/Components/ov5640/ov5640.c ****     break;
 838:Drivers/BSP/Components/ov5640/ov5640.c **** 
 839:Drivers/BSP/Components/ov5640/ov5640.c ****   case OV5640_CONTRAST_LEVEL1N:
 840:Drivers/BSP/Components/ov5640/ov5640.c ****     CAMERA_IO_Write(DeviceAddr, 0x5586, 0x1C);
 841:Drivers/BSP/Components/ov5640/ov5640.c ****     CAMERA_IO_Write(DeviceAddr, 0x5585, 0x1C);
 842:Drivers/BSP/Components/ov5640/ov5640.c ****     break;
 843:Drivers/BSP/Components/ov5640/ov5640.c **** 
 844:Drivers/BSP/Components/ov5640/ov5640.c ****   case OV5640_CONTRAST_LEVEL2N:
 845:Drivers/BSP/Components/ov5640/ov5640.c ****     CAMERA_IO_Write(DeviceAddr, 0x5586, 0x18);
 846:Drivers/BSP/Components/ov5640/ov5640.c ****     CAMERA_IO_Write(DeviceAddr, 0x5585, 0x18);
 847:Drivers/BSP/Components/ov5640/ov5640.c ****     break;
 848:Drivers/BSP/Components/ov5640/ov5640.c **** 
 849:Drivers/BSP/Components/ov5640/ov5640.c ****   case OV5640_CONTRAST_LEVEL3N:
 850:Drivers/BSP/Components/ov5640/ov5640.c ****     CAMERA_IO_Write(DeviceAddr, 0x5586, 0x14);
 851:Drivers/BSP/Components/ov5640/ov5640.c ****     CAMERA_IO_Write(DeviceAddr, 0x5585, 0x14);
 852:Drivers/BSP/Components/ov5640/ov5640.c ****     break;
 853:Drivers/BSP/Components/ov5640/ov5640.c **** 
 854:Drivers/BSP/Components/ov5640/ov5640.c ****   case OV5640_CONTRAST_LEVEL4N:
 855:Drivers/BSP/Components/ov5640/ov5640.c ****     CAMERA_IO_Write(DeviceAddr, 0x5586, 0x10);
 856:Drivers/BSP/Components/ov5640/ov5640.c ****     CAMERA_IO_Write(DeviceAddr, 0x5585, 0x10);
 857:Drivers/BSP/Components/ov5640/ov5640.c ****     break;
 858:Drivers/BSP/Components/ov5640/ov5640.c **** 
 859:Drivers/BSP/Components/ov5640/ov5640.c ****   default:
 860:Drivers/BSP/Components/ov5640/ov5640.c ****     /* Level 0 as default */
 861:Drivers/BSP/Components/ov5640/ov5640.c ****     CAMERA_IO_Write(DeviceAddr, 0x5586, 0x20);
 862:Drivers/BSP/Components/ov5640/ov5640.c ****     CAMERA_IO_Write(DeviceAddr, 0x5585, 0x20);
 863:Drivers/BSP/Components/ov5640/ov5640.c ****     break;
 864:Drivers/BSP/Components/ov5640/ov5640.c ****   }
 865:Drivers/BSP/Components/ov5640/ov5640.c **** 
 866:Drivers/BSP/Components/ov5640/ov5640.c ****   CAMERA_IO_Write(DeviceAddr, 0x5588, 0x41);
 867:Drivers/BSP/Components/ov5640/ov5640.c **** }
 868:Drivers/BSP/Components/ov5640/ov5640.c **** 
 869:Drivers/BSP/Components/ov5640/ov5640.c **** /**
 870:Drivers/BSP/Components/ov5640/ov5640.c ****   * @brief  Set the OV5640 camera Hue degree.
 871:Drivers/BSP/Components/ov5640/ov5640.c ****   * @param  DeviceAddr: Device address on communication Bus.
 872:Drivers/BSP/Components/ov5640/ov5640.c ****   * @param  Level: Value to be configured
 873:Drivers/BSP/Components/ov5640/ov5640.c ****   * @retval None
 874:Drivers/BSP/Components/ov5640/ov5640.c ****   */
 875:Drivers/BSP/Components/ov5640/ov5640.c **** void OV5640_SetHueDegree(uint16_t DeviceAddr, uint16_t Degree)
 876:Drivers/BSP/Components/ov5640/ov5640.c **** {
 877:Drivers/BSP/Components/ov5640/ov5640.c ****   CAMERA_IO_Write(DeviceAddr, 0x5001, 0xFF);
 878:Drivers/BSP/Components/ov5640/ov5640.c ****   CAMERA_IO_Write(DeviceAddr, 0x5580, 0x01);
 879:Drivers/BSP/Components/ov5640/ov5640.c **** 
 880:Drivers/BSP/Components/ov5640/ov5640.c ****   switch(Degree)
 881:Drivers/BSP/Components/ov5640/ov5640.c ****   {
 882:Drivers/BSP/Components/ov5640/ov5640.c ****   case OV5640_HUE_150P:
 883:Drivers/BSP/Components/ov5640/ov5640.c ****     CAMERA_IO_Write(DeviceAddr, 0x5581, 0x6F);
 884:Drivers/BSP/Components/ov5640/ov5640.c ****     CAMERA_IO_Write(DeviceAddr, 0x5582, 0x40);
 885:Drivers/BSP/Components/ov5640/ov5640.c ****     CAMERA_IO_Write(DeviceAddr, 0x5588, 0x31);
 886:Drivers/BSP/Components/ov5640/ov5640.c ****     break;
ARM GAS  /var/folders/n6/c271nzx11xl4r4_m7sqjlt0m0000gn/T//cc8PHvwW.s 			page 17


 887:Drivers/BSP/Components/ov5640/ov5640.c **** 
 888:Drivers/BSP/Components/ov5640/ov5640.c ****   case OV5640_HUE_120P:
 889:Drivers/BSP/Components/ov5640/ov5640.c ****     CAMERA_IO_Write(DeviceAddr, 0x5581, 0x40);
 890:Drivers/BSP/Components/ov5640/ov5640.c ****     CAMERA_IO_Write(DeviceAddr, 0x5582, 0x6F);
 891:Drivers/BSP/Components/ov5640/ov5640.c ****     CAMERA_IO_Write(DeviceAddr, 0x5588, 0x31);
 892:Drivers/BSP/Components/ov5640/ov5640.c ****     break;
 893:Drivers/BSP/Components/ov5640/ov5640.c **** 
 894:Drivers/BSP/Components/ov5640/ov5640.c ****   case OV5640_HUE_90P:
 895:Drivers/BSP/Components/ov5640/ov5640.c ****     CAMERA_IO_Write(DeviceAddr, 0x5581, 0x00);
 896:Drivers/BSP/Components/ov5640/ov5640.c ****     CAMERA_IO_Write(DeviceAddr, 0x5582, 0x80);
 897:Drivers/BSP/Components/ov5640/ov5640.c ****     CAMERA_IO_Write(DeviceAddr, 0x5588, 0x31);
 898:Drivers/BSP/Components/ov5640/ov5640.c ****     break;
 899:Drivers/BSP/Components/ov5640/ov5640.c **** 
 900:Drivers/BSP/Components/ov5640/ov5640.c ****   case OV5640_HUE_60P:
 901:Drivers/BSP/Components/ov5640/ov5640.c ****     CAMERA_IO_Write(DeviceAddr, 0x5581, 0x40);
 902:Drivers/BSP/Components/ov5640/ov5640.c ****     CAMERA_IO_Write(DeviceAddr, 0x5582, 0x6F);
 903:Drivers/BSP/Components/ov5640/ov5640.c ****     CAMERA_IO_Write(DeviceAddr, 0x5588, 0x01);
 904:Drivers/BSP/Components/ov5640/ov5640.c ****     break;
 905:Drivers/BSP/Components/ov5640/ov5640.c **** 
 906:Drivers/BSP/Components/ov5640/ov5640.c ****   case OV5640_HUE_30P:
 907:Drivers/BSP/Components/ov5640/ov5640.c ****     CAMERA_IO_Write(DeviceAddr, 0x5581, 0x6F);
 908:Drivers/BSP/Components/ov5640/ov5640.c ****     CAMERA_IO_Write(DeviceAddr, 0x5582, 0x40);
 909:Drivers/BSP/Components/ov5640/ov5640.c ****     CAMERA_IO_Write(DeviceAddr, 0x5588, 0x01);
 910:Drivers/BSP/Components/ov5640/ov5640.c ****     break;
 911:Drivers/BSP/Components/ov5640/ov5640.c **** 
 912:Drivers/BSP/Components/ov5640/ov5640.c ****   case OV5640_HUE_0:
 913:Drivers/BSP/Components/ov5640/ov5640.c ****     CAMERA_IO_Write(DeviceAddr, 0x5581, 0x80);
 914:Drivers/BSP/Components/ov5640/ov5640.c ****     CAMERA_IO_Write(DeviceAddr, 0x5582, 0x00);
 915:Drivers/BSP/Components/ov5640/ov5640.c ****     CAMERA_IO_Write(DeviceAddr, 0x5588, 0x01);
 916:Drivers/BSP/Components/ov5640/ov5640.c ****     break;
 917:Drivers/BSP/Components/ov5640/ov5640.c **** 
 918:Drivers/BSP/Components/ov5640/ov5640.c ****   case OV5640_HUE_30N:
 919:Drivers/BSP/Components/ov5640/ov5640.c ****     CAMERA_IO_Write(DeviceAddr, 0x5581, 0x6F);
 920:Drivers/BSP/Components/ov5640/ov5640.c ****     CAMERA_IO_Write(DeviceAddr, 0x5582, 0x40);
 921:Drivers/BSP/Components/ov5640/ov5640.c ****     CAMERA_IO_Write(DeviceAddr, 0x5588, 0x02);
 922:Drivers/BSP/Components/ov5640/ov5640.c ****     break;
 923:Drivers/BSP/Components/ov5640/ov5640.c **** 
 924:Drivers/BSP/Components/ov5640/ov5640.c ****   case OV5640_HUE_60N:
 925:Drivers/BSP/Components/ov5640/ov5640.c ****     CAMERA_IO_Write(DeviceAddr, 0x5581, 0x40);
 926:Drivers/BSP/Components/ov5640/ov5640.c ****     CAMERA_IO_Write(DeviceAddr, 0x5582, 0x6F);
 927:Drivers/BSP/Components/ov5640/ov5640.c ****     CAMERA_IO_Write(DeviceAddr, 0x5588, 0x02);
 928:Drivers/BSP/Components/ov5640/ov5640.c ****     break;
 929:Drivers/BSP/Components/ov5640/ov5640.c **** 
 930:Drivers/BSP/Components/ov5640/ov5640.c ****   case OV5640_HUE_90N:
 931:Drivers/BSP/Components/ov5640/ov5640.c ****     CAMERA_IO_Write(DeviceAddr, 0x5581, 0x00);
 932:Drivers/BSP/Components/ov5640/ov5640.c ****     CAMERA_IO_Write(DeviceAddr, 0x5582, 0x80);
 933:Drivers/BSP/Components/ov5640/ov5640.c ****     CAMERA_IO_Write(DeviceAddr, 0x5588, 0x02);
 934:Drivers/BSP/Components/ov5640/ov5640.c ****     break;
 935:Drivers/BSP/Components/ov5640/ov5640.c **** 
 936:Drivers/BSP/Components/ov5640/ov5640.c ****   case OV5640_HUE_120N:
 937:Drivers/BSP/Components/ov5640/ov5640.c ****     CAMERA_IO_Write(DeviceAddr, 0x5581, 0x40);
 938:Drivers/BSP/Components/ov5640/ov5640.c ****     CAMERA_IO_Write(DeviceAddr, 0x5582, 0x6F);
 939:Drivers/BSP/Components/ov5640/ov5640.c ****     CAMERA_IO_Write(DeviceAddr, 0x5588, 0x32);
 940:Drivers/BSP/Components/ov5640/ov5640.c ****     break;
 941:Drivers/BSP/Components/ov5640/ov5640.c **** 
 942:Drivers/BSP/Components/ov5640/ov5640.c ****   case OV5640_HUE_150N:
 943:Drivers/BSP/Components/ov5640/ov5640.c ****     CAMERA_IO_Write(DeviceAddr, 0x5581, 0x6F);
ARM GAS  /var/folders/n6/c271nzx11xl4r4_m7sqjlt0m0000gn/T//cc8PHvwW.s 			page 18


 944:Drivers/BSP/Components/ov5640/ov5640.c ****     CAMERA_IO_Write(DeviceAddr, 0x5582, 0x40);
 945:Drivers/BSP/Components/ov5640/ov5640.c ****     CAMERA_IO_Write(DeviceAddr, 0x5588, 0x32);
 946:Drivers/BSP/Components/ov5640/ov5640.c ****     break;
 947:Drivers/BSP/Components/ov5640/ov5640.c **** 
 948:Drivers/BSP/Components/ov5640/ov5640.c ****   case OV5640_HUE_180N:
 949:Drivers/BSP/Components/ov5640/ov5640.c ****     CAMERA_IO_Write(DeviceAddr, 0x5581, 0x80);
 950:Drivers/BSP/Components/ov5640/ov5640.c ****     CAMERA_IO_Write(DeviceAddr, 0x5582, 0x00);
 951:Drivers/BSP/Components/ov5640/ov5640.c ****     CAMERA_IO_Write(DeviceAddr, 0x5588, 0x32);
 952:Drivers/BSP/Components/ov5640/ov5640.c ****     break;
 953:Drivers/BSP/Components/ov5640/ov5640.c **** 
 954:Drivers/BSP/Components/ov5640/ov5640.c ****   default:
 955:Drivers/BSP/Components/ov5640/ov5640.c ****     /* Hue degree 0 as default */
 956:Drivers/BSP/Components/ov5640/ov5640.c ****     CAMERA_IO_Write(DeviceAddr, 0x5581, 0x80);
 957:Drivers/BSP/Components/ov5640/ov5640.c ****     CAMERA_IO_Write(DeviceAddr, 0x5582, 0x00);
 958:Drivers/BSP/Components/ov5640/ov5640.c ****     CAMERA_IO_Write(DeviceAddr, 0x5588, 0x01);
 959:Drivers/BSP/Components/ov5640/ov5640.c ****     break;
 960:Drivers/BSP/Components/ov5640/ov5640.c ****   }
 961:Drivers/BSP/Components/ov5640/ov5640.c **** }
 962:Drivers/BSP/Components/ov5640/ov5640.c **** 
 963:Drivers/BSP/Components/ov5640/ov5640.c **** /**
 964:Drivers/BSP/Components/ov5640/ov5640.c ****   * @brief  Control OV5640 camera mirror/vflip.
 965:Drivers/BSP/Components/ov5640/ov5640.c ****   * @param  DeviceAddr: Device address on communication Bus.
 966:Drivers/BSP/Components/ov5640/ov5640.c ****   * @param  Config: To configure mirror, flip, both or nothing
 967:Drivers/BSP/Components/ov5640/ov5640.c ****   * @retval None
 968:Drivers/BSP/Components/ov5640/ov5640.c ****   */
 969:Drivers/BSP/Components/ov5640/ov5640.c **** void OV5640_MirrorFlipConfig(uint16_t DeviceAddr, uint8_t Config)
 970:Drivers/BSP/Components/ov5640/ov5640.c **** {
 971:Drivers/BSP/Components/ov5640/ov5640.c ****   uint8_t tmp3820 = 0, tmp3821;
 972:Drivers/BSP/Components/ov5640/ov5640.c **** 
 973:Drivers/BSP/Components/ov5640/ov5640.c ****   tmp3820 = CAMERA_IO_Read(DeviceAddr, 0x3820);
 974:Drivers/BSP/Components/ov5640/ov5640.c ****   tmp3820 &= 0xF9;
 975:Drivers/BSP/Components/ov5640/ov5640.c ****   tmp3821 = CAMERA_IO_Read(DeviceAddr, 0x3821);
 976:Drivers/BSP/Components/ov5640/ov5640.c ****   tmp3821 &= 0xF9;
 977:Drivers/BSP/Components/ov5640/ov5640.c **** 
 978:Drivers/BSP/Components/ov5640/ov5640.c ****   switch (Config)
 979:Drivers/BSP/Components/ov5640/ov5640.c ****   {
 980:Drivers/BSP/Components/ov5640/ov5640.c ****   case OV5640_MIRROR:
 981:Drivers/BSP/Components/ov5640/ov5640.c ****     CAMERA_IO_Write(DeviceAddr, 0x3820, tmp3820 | 0x00);
 982:Drivers/BSP/Components/ov5640/ov5640.c ****     CAMERA_IO_Write(DeviceAddr, 0x3821, tmp3821 | 0x06);
 983:Drivers/BSP/Components/ov5640/ov5640.c ****     break;
 984:Drivers/BSP/Components/ov5640/ov5640.c **** 
 985:Drivers/BSP/Components/ov5640/ov5640.c ****   case OV5640_FLIP:
 986:Drivers/BSP/Components/ov5640/ov5640.c ****     CAMERA_IO_Write(DeviceAddr, 0x3820, tmp3820 | 0x06);
 987:Drivers/BSP/Components/ov5640/ov5640.c ****     CAMERA_IO_Write(DeviceAddr, 0x3821, tmp3821 | 0x00);
 988:Drivers/BSP/Components/ov5640/ov5640.c ****     break;
 989:Drivers/BSP/Components/ov5640/ov5640.c ****   case OV5640_MIRROR_FLIP:
 990:Drivers/BSP/Components/ov5640/ov5640.c ****     CAMERA_IO_Write(DeviceAddr, 0x3820, tmp3820 | 0x06);
 991:Drivers/BSP/Components/ov5640/ov5640.c ****     CAMERA_IO_Write(DeviceAddr, 0x3821, tmp3821 | 0x06);
 992:Drivers/BSP/Components/ov5640/ov5640.c ****     break;
 993:Drivers/BSP/Components/ov5640/ov5640.c **** 
 994:Drivers/BSP/Components/ov5640/ov5640.c ****   case OV5640_MIRROR_FLIP_NORMAL:
 995:Drivers/BSP/Components/ov5640/ov5640.c ****     CAMERA_IO_Write(DeviceAddr, 0x3820, tmp3820 | 0x00);
 996:Drivers/BSP/Components/ov5640/ov5640.c ****     CAMERA_IO_Write(DeviceAddr, 0x3821, tmp3821 | 0x06);
 997:Drivers/BSP/Components/ov5640/ov5640.c ****     break;
 998:Drivers/BSP/Components/ov5640/ov5640.c **** 
 999:Drivers/BSP/Components/ov5640/ov5640.c ****   default:
1000:Drivers/BSP/Components/ov5640/ov5640.c ****     CAMERA_IO_Write(DeviceAddr, 0x3820, tmp3820 | 0x00);
ARM GAS  /var/folders/n6/c271nzx11xl4r4_m7sqjlt0m0000gn/T//cc8PHvwW.s 			page 19


1001:Drivers/BSP/Components/ov5640/ov5640.c ****     CAMERA_IO_Write(DeviceAddr, 0x3821, tmp3821 | 0x00);
1002:Drivers/BSP/Components/ov5640/ov5640.c ****     break;
1003:Drivers/BSP/Components/ov5640/ov5640.c ****   }
1004:Drivers/BSP/Components/ov5640/ov5640.c **** }
1005:Drivers/BSP/Components/ov5640/ov5640.c **** 
1006:Drivers/BSP/Components/ov5640/ov5640.c **** /**
1007:Drivers/BSP/Components/ov5640/ov5640.c ****   * @brief  Control OV5640 camera mirror/vflip.
1008:Drivers/BSP/Components/ov5640/ov5640.c ****   * @param  DeviceAddr: Device address on communication Bus.
1009:Drivers/BSP/Components/ov5640/ov5640.c ****   * @param  Zoom: Zoom to be configured
1010:Drivers/BSP/Components/ov5640/ov5640.c ****   * @retval None
1011:Drivers/BSP/Components/ov5640/ov5640.c ****   */
1012:Drivers/BSP/Components/ov5640/ov5640.c **** void OV5640_ZoomConfig(uint16_t DeviceAddr, uint8_t Zoom)
1013:Drivers/BSP/Components/ov5640/ov5640.c **** {
1014:Drivers/BSP/Components/ov5640/ov5640.c ****   int32_t res = 0;
1015:Drivers/BSP/Components/ov5640/ov5640.c **** 
1016:Drivers/BSP/Components/ov5640/ov5640.c ****   /* Get camera resolution */
1017:Drivers/BSP/Components/ov5640/ov5640.c ****   res = OV5640_GetResolution(DeviceAddr);
1018:Drivers/BSP/Components/ov5640/ov5640.c **** 
1019:Drivers/BSP/Components/ov5640/ov5640.c ****   if(Zoom == OV5640_ZOOM_x1)
1020:Drivers/BSP/Components/ov5640/ov5640.c ****   {
1021:Drivers/BSP/Components/ov5640/ov5640.c ****     CAMERA_IO_Write(DeviceAddr, 0x5600, 0x10);
1022:Drivers/BSP/Components/ov5640/ov5640.c ****   }
1023:Drivers/BSP/Components/ov5640/ov5640.c ****   else
1024:Drivers/BSP/Components/ov5640/ov5640.c ****   {
1025:Drivers/BSP/Components/ov5640/ov5640.c ****     switch (res)
1026:Drivers/BSP/Components/ov5640/ov5640.c ****     {
1027:Drivers/BSP/Components/ov5640/ov5640.c ****     case CAMERA_R320x240:
1028:Drivers/BSP/Components/ov5640/ov5640.c ****     case CAMERA_R480x272:
1029:Drivers/BSP/Components/ov5640/ov5640.c ****       Zoom = Zoom >> 1;
1030:Drivers/BSP/Components/ov5640/ov5640.c ****       break;
1031:Drivers/BSP/Components/ov5640/ov5640.c ****     case CAMERA_R640x480:
1032:Drivers/BSP/Components/ov5640/ov5640.c ****       Zoom = Zoom >> 2;
1033:Drivers/BSP/Components/ov5640/ov5640.c ****       break;
1034:Drivers/BSP/Components/ov5640/ov5640.c ****     default:
1035:Drivers/BSP/Components/ov5640/ov5640.c ****       break;
1036:Drivers/BSP/Components/ov5640/ov5640.c ****     }
1037:Drivers/BSP/Components/ov5640/ov5640.c **** 
1038:Drivers/BSP/Components/ov5640/ov5640.c ****     CAMERA_IO_Write(DeviceAddr, 0x5600, 0x00);
1039:Drivers/BSP/Components/ov5640/ov5640.c ****     CAMERA_IO_Write(DeviceAddr, 0x5601, Zoom);
1040:Drivers/BSP/Components/ov5640/ov5640.c ****   }
1041:Drivers/BSP/Components/ov5640/ov5640.c **** }
1042:Drivers/BSP/Components/ov5640/ov5640.c **** 
1043:Drivers/BSP/Components/ov5640/ov5640.c **** /**
1044:Drivers/BSP/Components/ov5640/ov5640.c ****   * @brief  Get OV5640 camera resolution.
1045:Drivers/BSP/Components/ov5640/ov5640.c ****   * @param  DeviceAddr: Device address on communication Bus.
1046:Drivers/BSP/Components/ov5640/ov5640.c ****   * @retval Camera resolution else 0xFF
1047:Drivers/BSP/Components/ov5640/ov5640.c ****   */
1048:Drivers/BSP/Components/ov5640/ov5640.c **** int32_t OV5640_GetResolution(uint16_t DeviceAddr)
1049:Drivers/BSP/Components/ov5640/ov5640.c **** {
1050:Drivers/BSP/Components/ov5640/ov5640.c ****   uint16_t x_size = 0, y_size = 0;
1051:Drivers/BSP/Components/ov5640/ov5640.c ****   int32_t res = CAMERA_R640x480;
1052:Drivers/BSP/Components/ov5640/ov5640.c **** 
1053:Drivers/BSP/Components/ov5640/ov5640.c ****   x_size = CAMERA_IO_Read(DeviceAddr, 0x3808) << 8;
1054:Drivers/BSP/Components/ov5640/ov5640.c ****   x_size |= CAMERA_IO_Read(DeviceAddr, 0x3809);
1055:Drivers/BSP/Components/ov5640/ov5640.c ****   y_size = CAMERA_IO_Read(DeviceAddr, 0x380A) << 8;
1056:Drivers/BSP/Components/ov5640/ov5640.c ****   y_size |= CAMERA_IO_Read(DeviceAddr, 0x380B);
1057:Drivers/BSP/Components/ov5640/ov5640.c **** 
ARM GAS  /var/folders/n6/c271nzx11xl4r4_m7sqjlt0m0000gn/T//cc8PHvwW.s 			page 20


1058:Drivers/BSP/Components/ov5640/ov5640.c ****   if((x_size == 640) && (y_size == 480))
1059:Drivers/BSP/Components/ov5640/ov5640.c ****   {
1060:Drivers/BSP/Components/ov5640/ov5640.c ****     res = CAMERA_R640x480;
1061:Drivers/BSP/Components/ov5640/ov5640.c ****   }
1062:Drivers/BSP/Components/ov5640/ov5640.c ****   else if((x_size == 480) && (y_size == 272))
1063:Drivers/BSP/Components/ov5640/ov5640.c ****   {
1064:Drivers/BSP/Components/ov5640/ov5640.c ****     res = CAMERA_R480x272;
1065:Drivers/BSP/Components/ov5640/ov5640.c ****   }
1066:Drivers/BSP/Components/ov5640/ov5640.c ****   else if((x_size == 320) && (y_size == 240))
1067:Drivers/BSP/Components/ov5640/ov5640.c ****   {
1068:Drivers/BSP/Components/ov5640/ov5640.c ****     res = CAMERA_R320x240;
1069:Drivers/BSP/Components/ov5640/ov5640.c ****   }
1070:Drivers/BSP/Components/ov5640/ov5640.c ****   else if((x_size == 160) && (y_size == 120))
1071:Drivers/BSP/Components/ov5640/ov5640.c ****   {
1072:Drivers/BSP/Components/ov5640/ov5640.c ****     res = CAMERA_R160x120;
1073:Drivers/BSP/Components/ov5640/ov5640.c ****   }
1074:Drivers/BSP/Components/ov5640/ov5640.c ****   else
1075:Drivers/BSP/Components/ov5640/ov5640.c ****   {
1076:Drivers/BSP/Components/ov5640/ov5640.c ****     res = 0xFF;
1077:Drivers/BSP/Components/ov5640/ov5640.c ****   }
1078:Drivers/BSP/Components/ov5640/ov5640.c ****   return res;
1079:Drivers/BSP/Components/ov5640/ov5640.c **** }
1080:Drivers/BSP/Components/ov5640/ov5640.c **** 
1081:Drivers/BSP/Components/ov5640/ov5640.c **** /**
1082:Drivers/BSP/Components/ov5640/ov5640.c ****   * @brief  Configures the OV5640 camera feature.
1083:Drivers/BSP/Components/ov5640/ov5640.c ****   * @param  DeviceAddr: Device address on communication Bus.
1084:Drivers/BSP/Components/ov5640/ov5640.c ****   * @param  feature: Camera feature to be configured
1085:Drivers/BSP/Components/ov5640/ov5640.c ****   * @param  value: Value to be configured
1086:Drivers/BSP/Components/ov5640/ov5640.c ****   * @param  brightness_value: Brightness value to be configured
1087:Drivers/BSP/Components/ov5640/ov5640.c ****   * @retval None
1088:Drivers/BSP/Components/ov5640/ov5640.c ****   */
1089:Drivers/BSP/Components/ov5640/ov5640.c **** void ov5640_Config(uint16_t DeviceAddr, uint32_t feature, uint32_t value, uint32_t brightness_value
1090:Drivers/BSP/Components/ov5640/ov5640.c **** {
1091:Drivers/BSP/Components/ov5640/ov5640.c ****   uint32_t value_tmp;
1092:Drivers/BSP/Components/ov5640/ov5640.c ****   uint32_t br_value;
1093:Drivers/BSP/Components/ov5640/ov5640.c **** 
1094:Drivers/BSP/Components/ov5640/ov5640.c ****   /* Convert the input value into ov5640 parameters */
1095:Drivers/BSP/Components/ov5640/ov5640.c ****   value_tmp = ov5640_ConvertValue(feature, value);
1096:Drivers/BSP/Components/ov5640/ov5640.c ****   br_value = ov5640_ConvertValue(CAMERA_CONTRAST_BRIGHTNESS, brightness_value);
1097:Drivers/BSP/Components/ov5640/ov5640.c **** 
1098:Drivers/BSP/Components/ov5640/ov5640.c ****   switch(feature)
1099:Drivers/BSP/Components/ov5640/ov5640.c ****   {
1100:Drivers/BSP/Components/ov5640/ov5640.c ****   case CAMERA_CONTRAST_BRIGHTNESS:
1101:Drivers/BSP/Components/ov5640/ov5640.c ****     {      
1102:Drivers/BSP/Components/ov5640/ov5640.c ****       OV5640_SetContrast(DeviceAddr, value_tmp);
1103:Drivers/BSP/Components/ov5640/ov5640.c ****       OV5640_SetBrightness(DeviceAddr, br_value);   
1104:Drivers/BSP/Components/ov5640/ov5640.c ****       break;
1105:Drivers/BSP/Components/ov5640/ov5640.c ****     }
1106:Drivers/BSP/Components/ov5640/ov5640.c ****   case CAMERA_BLACK_WHITE:  
1107:Drivers/BSP/Components/ov5640/ov5640.c ****   case CAMERA_COLOR_EFFECT:
1108:Drivers/BSP/Components/ov5640/ov5640.c ****     {
1109:Drivers/BSP/Components/ov5640/ov5640.c ****       OV5640_SetEffect(DeviceAddr, value_tmp);
1110:Drivers/BSP/Components/ov5640/ov5640.c ****       break;
1111:Drivers/BSP/Components/ov5640/ov5640.c ****     }
1112:Drivers/BSP/Components/ov5640/ov5640.c ****   default:
1113:Drivers/BSP/Components/ov5640/ov5640.c ****     {
1114:Drivers/BSP/Components/ov5640/ov5640.c ****       break;
ARM GAS  /var/folders/n6/c271nzx11xl4r4_m7sqjlt0m0000gn/T//cc8PHvwW.s 			page 21


1115:Drivers/BSP/Components/ov5640/ov5640.c ****     }
1116:Drivers/BSP/Components/ov5640/ov5640.c ****   }
1117:Drivers/BSP/Components/ov5640/ov5640.c **** }
1118:Drivers/BSP/Components/ov5640/ov5640.c **** 
1119:Drivers/BSP/Components/ov5640/ov5640.c **** /**
1120:Drivers/BSP/Components/ov5640/ov5640.c ****   * @brief  Read the OV5640 Camera identity.
1121:Drivers/BSP/Components/ov5640/ov5640.c ****   * @param  DeviceAddr: Device address on communication Bus.
1122:Drivers/BSP/Components/ov5640/ov5640.c ****   * @retval the OV5640 ID
1123:Drivers/BSP/Components/ov5640/ov5640.c ****   */
1124:Drivers/BSP/Components/ov5640/ov5640.c **** uint16_t ov5640_ReadID(uint16_t DeviceAddr)
1125:Drivers/BSP/Components/ov5640/ov5640.c **** {
1126:Drivers/BSP/Components/ov5640/ov5640.c ****   uint16_t read_val = 0;
1127:Drivers/BSP/Components/ov5640/ov5640.c **** 
1128:Drivers/BSP/Components/ov5640/ov5640.c ****   /* Initialize I2C */
1129:Drivers/BSP/Components/ov5640/ov5640.c ****   CAMERA_IO_Init();
1130:Drivers/BSP/Components/ov5640/ov5640.c **** 
1131:Drivers/BSP/Components/ov5640/ov5640.c ****   /* Prepare the camera to be configured */
1132:Drivers/BSP/Components/ov5640/ov5640.c ****   CAMERA_IO_Write(DeviceAddr, 0x3008, 0x80);
1133:Drivers/BSP/Components/ov5640/ov5640.c ****   CAMERA_Delay(500);
1134:Drivers/BSP/Components/ov5640/ov5640.c **** 
1135:Drivers/BSP/Components/ov5640/ov5640.c ****   read_val = CAMERA_IO_Read(DeviceAddr, 0x300A);
1136:Drivers/BSP/Components/ov5640/ov5640.c ****   read_val = read_val << 8;
1137:Drivers/BSP/Components/ov5640/ov5640.c ****   read_val |= CAMERA_IO_Read(DeviceAddr, 0x300B);
1138:Drivers/BSP/Components/ov5640/ov5640.c ****   /* Get the camera ID */
1139:Drivers/BSP/Components/ov5640/ov5640.c ****   return read_val;
1140:Drivers/BSP/Components/ov5640/ov5640.c **** }
1141:Drivers/BSP/Components/ov5640/ov5640.c **** 
1142:Drivers/BSP/Components/ov5640/ov5640.c **** /******************************************************************************
1143:Drivers/BSP/Components/ov5640/ov5640.c ****                             Static Functions
1144:Drivers/BSP/Components/ov5640/ov5640.c **** *******************************************************************************/
1145:Drivers/BSP/Components/ov5640/ov5640.c **** /**
1146:Drivers/BSP/Components/ov5640/ov5640.c ****   * @brief  Convert input values into ov5640 parameters.
1147:Drivers/BSP/Components/ov5640/ov5640.c ****   * @param  feature: Camera feature to be configured
1148:Drivers/BSP/Components/ov5640/ov5640.c ****   * @param  value: Value to be configured
1149:Drivers/BSP/Components/ov5640/ov5640.c ****   * @retval The converted value
1150:Drivers/BSP/Components/ov5640/ov5640.c ****   */
1151:Drivers/BSP/Components/ov5640/ov5640.c **** static uint32_t ov5640_ConvertValue(uint32_t feature, uint32_t value)
1152:Drivers/BSP/Components/ov5640/ov5640.c **** {
  28              		.loc 1 1152 1 view -0
  29              		.cfi_startproc
  30              		@ args = 0, pretend = 0, frame = 0
  31              		@ frame_needed = 0, uses_anonymous_args = 0
  32              		@ link register save eliminated.
1153:Drivers/BSP/Components/ov5640/ov5640.c ****   uint32_t ret = 0;
  33              		.loc 1 1153 3 view .LVU1
1154:Drivers/BSP/Components/ov5640/ov5640.c **** 
1155:Drivers/BSP/Components/ov5640/ov5640.c ****   switch(feature)
  34              		.loc 1 1155 3 view .LVU2
  35 0000 0128     		cmp	r0, #1
  36 0002 04D0     		beq	.L2
  37 0004 0328     		cmp	r0, #3
  38 0006 1FD0     		beq	.L3
  39 0008 48B1     		cbz	r0, .L4
  40 000a 0020     		movs	r0, #0
  41              	.LVL1:
  42              		.loc 1 1155 3 is_stmt 0 view .LVU3
  43 000c 7047     		bx	lr
ARM GAS  /var/folders/n6/c271nzx11xl4r4_m7sqjlt0m0000gn/T//cc8PHvwW.s 			page 22


  44              	.LVL2:
  45              	.L2:
1156:Drivers/BSP/Components/ov5640/ov5640.c ****   {
1157:Drivers/BSP/Components/ov5640/ov5640.c ****   case CAMERA_BLACK_WHITE:
1158:Drivers/BSP/Components/ov5640/ov5640.c ****     {
1159:Drivers/BSP/Components/ov5640/ov5640.c ****       switch(value)
  46              		.loc 1 1159 7 is_stmt 1 view .LVU4
  47 000e 0129     		cmp	r1, #1
  48 0010 29D0     		beq	.L20
  49 0012 0229     		cmp	r1, #2
  50 0014 29D0     		beq	.L21
  51 0016 0029     		cmp	r1, #0
  52 0018 29D1     		bne	.L22
  53 001a 0820     		movs	r0, #8
  54              	.LVL3:
  55              		.loc 1 1159 7 is_stmt 0 view .LVU5
  56 001c 7047     		bx	lr
  57              	.LVL4:
  58              	.L4:
1160:Drivers/BSP/Components/ov5640/ov5640.c ****       {
1161:Drivers/BSP/Components/ov5640/ov5640.c ****       case CAMERA_BLACK_WHITE_BW:
1162:Drivers/BSP/Components/ov5640/ov5640.c ****         {
1163:Drivers/BSP/Components/ov5640/ov5640.c ****           ret =  OV5640_COLOR_EFFECT_BW;
1164:Drivers/BSP/Components/ov5640/ov5640.c ****           break;
1165:Drivers/BSP/Components/ov5640/ov5640.c ****         }
1166:Drivers/BSP/Components/ov5640/ov5640.c ****       case CAMERA_BLACK_WHITE_NEGATIVE:
1167:Drivers/BSP/Components/ov5640/ov5640.c ****         {
1168:Drivers/BSP/Components/ov5640/ov5640.c ****           ret =  OV5640_COLOR_EFFECT_NEGATIVE;
1169:Drivers/BSP/Components/ov5640/ov5640.c ****           break;
1170:Drivers/BSP/Components/ov5640/ov5640.c ****         }
1171:Drivers/BSP/Components/ov5640/ov5640.c ****       case CAMERA_BLACK_WHITE_BW_NEGATIVE:
1172:Drivers/BSP/Components/ov5640/ov5640.c ****         {
1173:Drivers/BSP/Components/ov5640/ov5640.c ****           ret =  OV5640_COLOR_EFFECT_BW_NEGATIVE;
1174:Drivers/BSP/Components/ov5640/ov5640.c ****           break;
1175:Drivers/BSP/Components/ov5640/ov5640.c ****         }
1176:Drivers/BSP/Components/ov5640/ov5640.c ****       case CAMERA_BLACK_WHITE_NORMAL:
1177:Drivers/BSP/Components/ov5640/ov5640.c ****       default:
1178:Drivers/BSP/Components/ov5640/ov5640.c ****         {
1179:Drivers/BSP/Components/ov5640/ov5640.c ****           ret =  OV5640_COLOR_EFFECT_NONE;
1180:Drivers/BSP/Components/ov5640/ov5640.c ****           break;
1181:Drivers/BSP/Components/ov5640/ov5640.c ****         }
1182:Drivers/BSP/Components/ov5640/ov5640.c ****       }
1183:Drivers/BSP/Components/ov5640/ov5640.c ****       break;
1184:Drivers/BSP/Components/ov5640/ov5640.c ****     }
1185:Drivers/BSP/Components/ov5640/ov5640.c ****   case CAMERA_CONTRAST_BRIGHTNESS:
1186:Drivers/BSP/Components/ov5640/ov5640.c ****     {
1187:Drivers/BSP/Components/ov5640/ov5640.c ****       switch(value)
  59              		.loc 1 1187 7 is_stmt 1 view .LVU6
  60 001e 0929     		cmp	r1, #9
  61 0020 10D8     		bhi	.L6
  62 0022 DFE801F0 		tbb	[pc, r1]
  63              	.L8:
  64 0026 05       		.byte	(.L11-.L8)/2
  65 0027 26       		.byte	(.L23-.L8)/2
  66 0028 07       		.byte	(.L14-.L8)/2
  67 0029 09       		.byte	(.L13-.L8)/2
  68 002a 29       		.byte	(.L1-.L8)/2
ARM GAS  /var/folders/n6/c271nzx11xl4r4_m7sqjlt0m0000gn/T//cc8PHvwW.s 			page 23


  69 002b 05       		.byte	(.L11-.L8)/2
  70 002c 26       		.byte	(.L23-.L8)/2
  71 002d 0B       		.byte	(.L10-.L8)/2
  72 002e 0D       		.byte	(.L9-.L8)/2
  73 002f 29       		.byte	(.L1-.L8)/2
  74              		.p2align 1
  75              	.L11:
  76 0030 8020     		movs	r0, #128
  77              	.LVL5:
  78              		.loc 1 1187 7 is_stmt 0 view .LVU7
  79 0032 7047     		bx	lr
  80              	.LVL6:
  81              	.L14:
1188:Drivers/BSP/Components/ov5640/ov5640.c ****       {
1189:Drivers/BSP/Components/ov5640/ov5640.c ****       case CAMERA_BRIGHTNESS_LEVEL0:
1190:Drivers/BSP/Components/ov5640/ov5640.c ****         {
1191:Drivers/BSP/Components/ov5640/ov5640.c ****           ret =  OV5640_BRIGHTNESS_LEVEL4N;
1192:Drivers/BSP/Components/ov5640/ov5640.c ****           break;
1193:Drivers/BSP/Components/ov5640/ov5640.c ****         }
1194:Drivers/BSP/Components/ov5640/ov5640.c ****       case CAMERA_BRIGHTNESS_LEVEL1:
1195:Drivers/BSP/Components/ov5640/ov5640.c ****         {
1196:Drivers/BSP/Components/ov5640/ov5640.c ****           ret =  OV5640_BRIGHTNESS_LEVEL2N;
1197:Drivers/BSP/Components/ov5640/ov5640.c ****           break;
1198:Drivers/BSP/Components/ov5640/ov5640.c ****         }
1199:Drivers/BSP/Components/ov5640/ov5640.c ****       case CAMERA_BRIGHTNESS_LEVEL2:
1200:Drivers/BSP/Components/ov5640/ov5640.c ****         {
1201:Drivers/BSP/Components/ov5640/ov5640.c ****           ret =  OV5640_BRIGHTNESS_LEVEL0;
  82              		.loc 1 1201 11 is_stmt 1 view .LVU8
1202:Drivers/BSP/Components/ov5640/ov5640.c ****           break;
  83              		.loc 1 1202 11 view .LVU9
1201:Drivers/BSP/Components/ov5640/ov5640.c ****           break;
  84              		.loc 1 1201 15 is_stmt 0 view .LVU10
  85 0034 0820     		movs	r0, #8
  86              	.LVL7:
  87              		.loc 1 1202 11 view .LVU11
  88 0036 7047     		bx	lr
  89              	.LVL8:
  90              	.L13:
1203:Drivers/BSP/Components/ov5640/ov5640.c ****         }
1204:Drivers/BSP/Components/ov5640/ov5640.c ****       case CAMERA_BRIGHTNESS_LEVEL3:
1205:Drivers/BSP/Components/ov5640/ov5640.c ****         {
1206:Drivers/BSP/Components/ov5640/ov5640.c ****           ret =  OV5640_BRIGHTNESS_LEVEL2P;
  91              		.loc 1 1206 11 is_stmt 1 view .LVU12
1207:Drivers/BSP/Components/ov5640/ov5640.c ****           break;
  92              		.loc 1 1207 11 view .LVU13
1206:Drivers/BSP/Components/ov5640/ov5640.c ****           break;
  93              		.loc 1 1206 15 is_stmt 0 view .LVU14
  94 0038 0220     		movs	r0, #2
  95              	.LVL9:
  96              		.loc 1 1207 11 view .LVU15
  97 003a 7047     		bx	lr
  98              	.LVL10:
  99              	.L10:
1208:Drivers/BSP/Components/ov5640/ov5640.c ****         }
1209:Drivers/BSP/Components/ov5640/ov5640.c ****       case CAMERA_BRIGHTNESS_LEVEL4:
1210:Drivers/BSP/Components/ov5640/ov5640.c ****         {
1211:Drivers/BSP/Components/ov5640/ov5640.c ****           ret =  OV5640_BRIGHTNESS_LEVEL4P;
ARM GAS  /var/folders/n6/c271nzx11xl4r4_m7sqjlt0m0000gn/T//cc8PHvwW.s 			page 24


1212:Drivers/BSP/Components/ov5640/ov5640.c ****           break;
1213:Drivers/BSP/Components/ov5640/ov5640.c ****         }
1214:Drivers/BSP/Components/ov5640/ov5640.c ****       case CAMERA_CONTRAST_LEVEL0:
1215:Drivers/BSP/Components/ov5640/ov5640.c ****         {
1216:Drivers/BSP/Components/ov5640/ov5640.c ****           ret =  OV5640_CONTRAST_LEVEL4N;
1217:Drivers/BSP/Components/ov5640/ov5640.c ****           break;
1218:Drivers/BSP/Components/ov5640/ov5640.c ****         }
1219:Drivers/BSP/Components/ov5640/ov5640.c ****       case CAMERA_CONTRAST_LEVEL1:
1220:Drivers/BSP/Components/ov5640/ov5640.c ****         {
1221:Drivers/BSP/Components/ov5640/ov5640.c ****           ret =  OV5640_CONTRAST_LEVEL2N;
1222:Drivers/BSP/Components/ov5640/ov5640.c ****           break;
1223:Drivers/BSP/Components/ov5640/ov5640.c ****         }
1224:Drivers/BSP/Components/ov5640/ov5640.c ****       case CAMERA_CONTRAST_LEVEL2:
1225:Drivers/BSP/Components/ov5640/ov5640.c ****         {
1226:Drivers/BSP/Components/ov5640/ov5640.c ****           ret =  OV5640_CONTRAST_LEVEL0;
 100              		.loc 1 1226 11 is_stmt 1 view .LVU16
1227:Drivers/BSP/Components/ov5640/ov5640.c ****           break;
 101              		.loc 1 1227 11 view .LVU17
1226:Drivers/BSP/Components/ov5640/ov5640.c ****           break;
 102              		.loc 1 1226 15 is_stmt 0 view .LVU18
 103 003c 0820     		movs	r0, #8
 104              	.LVL11:
 105              		.loc 1 1227 11 view .LVU19
 106 003e 7047     		bx	lr
 107              	.LVL12:
 108              	.L9:
1228:Drivers/BSP/Components/ov5640/ov5640.c ****         }
1229:Drivers/BSP/Components/ov5640/ov5640.c ****       case CAMERA_CONTRAST_LEVEL3:
1230:Drivers/BSP/Components/ov5640/ov5640.c ****         {
1231:Drivers/BSP/Components/ov5640/ov5640.c ****           ret =  OV5640_CONTRAST_LEVEL2P;
 109              		.loc 1 1231 11 is_stmt 1 view .LVU20
1232:Drivers/BSP/Components/ov5640/ov5640.c ****           break;
 110              		.loc 1 1232 11 view .LVU21
1231:Drivers/BSP/Components/ov5640/ov5640.c ****           break;
 111              		.loc 1 1231 15 is_stmt 0 view .LVU22
 112 0040 0220     		movs	r0, #2
 113              	.LVL13:
 114              		.loc 1 1232 11 view .LVU23
 115 0042 7047     		bx	lr
 116              	.LVL14:
 117              	.L6:
1233:Drivers/BSP/Components/ov5640/ov5640.c ****         }
1234:Drivers/BSP/Components/ov5640/ov5640.c ****       case CAMERA_CONTRAST_LEVEL4:
1235:Drivers/BSP/Components/ov5640/ov5640.c ****         {
1236:Drivers/BSP/Components/ov5640/ov5640.c ****           ret =  OV5640_CONTRAST_LEVEL4P;
1237:Drivers/BSP/Components/ov5640/ov5640.c ****           break;
1238:Drivers/BSP/Components/ov5640/ov5640.c ****         }
1239:Drivers/BSP/Components/ov5640/ov5640.c ****       default:
1240:Drivers/BSP/Components/ov5640/ov5640.c ****         {
1241:Drivers/BSP/Components/ov5640/ov5640.c ****           ret =  OV5640_CONTRAST_LEVEL0;
 118              		.loc 1 1241 11 is_stmt 1 view .LVU24
1242:Drivers/BSP/Components/ov5640/ov5640.c ****           break;
 119              		.loc 1 1242 11 view .LVU25
1241:Drivers/BSP/Components/ov5640/ov5640.c ****           break;
 120              		.loc 1 1241 15 is_stmt 0 view .LVU26
 121 0044 0820     		movs	r0, #8
 122              	.LVL15:
ARM GAS  /var/folders/n6/c271nzx11xl4r4_m7sqjlt0m0000gn/T//cc8PHvwW.s 			page 25


 123              		.loc 1 1242 11 view .LVU27
 124 0046 7047     		bx	lr
 125              	.LVL16:
 126              	.L3:
1243:Drivers/BSP/Components/ov5640/ov5640.c ****         }        
1244:Drivers/BSP/Components/ov5640/ov5640.c ****       }
1245:Drivers/BSP/Components/ov5640/ov5640.c ****       break;
1246:Drivers/BSP/Components/ov5640/ov5640.c ****     }
1247:Drivers/BSP/Components/ov5640/ov5640.c ****   case CAMERA_COLOR_EFFECT:
1248:Drivers/BSP/Components/ov5640/ov5640.c ****     {
1249:Drivers/BSP/Components/ov5640/ov5640.c ****       switch(value)
 127              		.loc 1 1249 7 is_stmt 1 view .LVU28
 128 0048 4B1E     		subs	r3, r1, #1
 129 004a 032B     		cmp	r3, #3
 130 004c 09D8     		bhi	.L15
 131 004e DFE803F0 		tbb	[pc, r3]
 132              	.L17:
 133 0052 12       		.byte	(.L24-.L17)/2
 134 0053 04       		.byte	(.L19-.L17)/2
 135 0054 06       		.byte	(.L18-.L17)/2
 136 0055 02       		.byte	(.L16-.L17)/2
 137              		.p2align 1
 138              	.L16:
 139 0056 1020     		movs	r0, #16
 140              	.LVL17:
 141              		.loc 1 1249 7 is_stmt 0 view .LVU29
 142 0058 7047     		bx	lr
 143              	.LVL18:
 144              	.L19:
1250:Drivers/BSP/Components/ov5640/ov5640.c ****       {
1251:Drivers/BSP/Components/ov5640/ov5640.c ****       case CAMERA_COLOR_EFFECT_ANTIQUE:
1252:Drivers/BSP/Components/ov5640/ov5640.c ****         {
1253:Drivers/BSP/Components/ov5640/ov5640.c ****           ret =  OV5640_COLOR_EFFECT_SEPIA;
1254:Drivers/BSP/Components/ov5640/ov5640.c ****           break;
1255:Drivers/BSP/Components/ov5640/ov5640.c ****         }
1256:Drivers/BSP/Components/ov5640/ov5640.c ****       case CAMERA_COLOR_EFFECT_BLUE:
1257:Drivers/BSP/Components/ov5640/ov5640.c ****         {
1258:Drivers/BSP/Components/ov5640/ov5640.c ****           ret =  OV5640_COLOR_EFFECT_BLUE;
1259:Drivers/BSP/Components/ov5640/ov5640.c ****           break;
1260:Drivers/BSP/Components/ov5640/ov5640.c ****         }
1261:Drivers/BSP/Components/ov5640/ov5640.c ****       case CAMERA_COLOR_EFFECT_GREEN:
1262:Drivers/BSP/Components/ov5640/ov5640.c ****         {
1263:Drivers/BSP/Components/ov5640/ov5640.c ****           ret =  OV5640_COLOR_EFFECT_GREEN;
 145              		.loc 1 1263 11 is_stmt 1 view .LVU30
1264:Drivers/BSP/Components/ov5640/ov5640.c ****           break;
 146              		.loc 1 1264 11 view .LVU31
1263:Drivers/BSP/Components/ov5640/ov5640.c ****           break;
 147              		.loc 1 1263 15 is_stmt 0 view .LVU32
 148 005a 0420     		movs	r0, #4
 149              	.LVL19:
 150              		.loc 1 1264 11 view .LVU33
 151 005c 7047     		bx	lr
 152              	.LVL20:
 153              	.L18:
1265:Drivers/BSP/Components/ov5640/ov5640.c ****         }
1266:Drivers/BSP/Components/ov5640/ov5640.c ****       case CAMERA_COLOR_EFFECT_RED:
1267:Drivers/BSP/Components/ov5640/ov5640.c ****         {
ARM GAS  /var/folders/n6/c271nzx11xl4r4_m7sqjlt0m0000gn/T//cc8PHvwW.s 			page 26


1268:Drivers/BSP/Components/ov5640/ov5640.c ****           ret =  OV5640_COLOR_EFFECT_RED;
 154              		.loc 1 1268 11 is_stmt 1 view .LVU34
1269:Drivers/BSP/Components/ov5640/ov5640.c ****           break;
 155              		.loc 1 1269 11 view .LVU35
1268:Drivers/BSP/Components/ov5640/ov5640.c ****           break;
 156              		.loc 1 1268 15 is_stmt 0 view .LVU36
 157 005e 0220     		movs	r0, #2
 158              	.LVL21:
 159              		.loc 1 1269 11 view .LVU37
 160 0060 7047     		bx	lr
 161              	.LVL22:
 162              	.L15:
1270:Drivers/BSP/Components/ov5640/ov5640.c ****         }        
1271:Drivers/BSP/Components/ov5640/ov5640.c ****       case CAMERA_COLOR_EFFECT_NONE:  
1272:Drivers/BSP/Components/ov5640/ov5640.c ****       default:
1273:Drivers/BSP/Components/ov5640/ov5640.c ****         {
1274:Drivers/BSP/Components/ov5640/ov5640.c ****           ret =  OV5640_COLOR_EFFECT_NONE;
 163              		.loc 1 1274 11 is_stmt 1 view .LVU38
1275:Drivers/BSP/Components/ov5640/ov5640.c ****           break;
 164              		.loc 1 1275 11 view .LVU39
1274:Drivers/BSP/Components/ov5640/ov5640.c ****           break;
 165              		.loc 1 1274 15 is_stmt 0 view .LVU40
 166 0062 0020     		movs	r0, #0
 167              	.LVL23:
 168              		.loc 1 1275 11 view .LVU41
 169 0064 7047     		bx	lr
 170              	.LVL24:
 171              	.L20:
1168:Drivers/BSP/Components/ov5640/ov5640.c ****           break;
 172              		.loc 1 1168 15 view .LVU42
 173 0066 2020     		movs	r0, #32
 174              	.LVL25:
1168:Drivers/BSP/Components/ov5640/ov5640.c ****           break;
 175              		.loc 1 1168 15 view .LVU43
 176 0068 7047     		bx	lr
 177              	.LVL26:
 178              	.L21:
1173:Drivers/BSP/Components/ov5640/ov5640.c ****           break;
 179              		.loc 1 1173 15 view .LVU44
 180 006a 4020     		movs	r0, #64
 181              	.LVL27:
1173:Drivers/BSP/Components/ov5640/ov5640.c ****           break;
 182              		.loc 1 1173 15 view .LVU45
 183 006c 7047     		bx	lr
 184              	.LVL28:
 185              	.L22:
1179:Drivers/BSP/Components/ov5640/ov5640.c ****           break;
 186              		.loc 1 1179 15 view .LVU46
 187 006e 0020     		movs	r0, #0
 188              	.LVL29:
1179:Drivers/BSP/Components/ov5640/ov5640.c ****           break;
 189              		.loc 1 1179 15 view .LVU47
 190 0070 7047     		bx	lr
 191              	.LVL30:
 192              	.L23:
1196:Drivers/BSP/Components/ov5640/ov5640.c ****           break;
 193              		.loc 1 1196 15 view .LVU48
ARM GAS  /var/folders/n6/c271nzx11xl4r4_m7sqjlt0m0000gn/T//cc8PHvwW.s 			page 27


 194 0072 2020     		movs	r0, #32
 195              	.LVL31:
1196:Drivers/BSP/Components/ov5640/ov5640.c ****           break;
 196              		.loc 1 1196 15 view .LVU49
 197 0074 7047     		bx	lr
 198              	.LVL32:
 199              	.L24:
1258:Drivers/BSP/Components/ov5640/ov5640.c ****           break;
 200              		.loc 1 1258 15 view .LVU50
 201 0076 0846     		mov	r0, r1
 202              	.LVL33:
1276:Drivers/BSP/Components/ov5640/ov5640.c ****         }
1277:Drivers/BSP/Components/ov5640/ov5640.c ****       }
1278:Drivers/BSP/Components/ov5640/ov5640.c ****       break;
1279:Drivers/BSP/Components/ov5640/ov5640.c ****     default:
1280:Drivers/BSP/Components/ov5640/ov5640.c ****       {
1281:Drivers/BSP/Components/ov5640/ov5640.c ****         ret = 0;
1282:Drivers/BSP/Components/ov5640/ov5640.c ****         break;
1283:Drivers/BSP/Components/ov5640/ov5640.c ****       }
1284:Drivers/BSP/Components/ov5640/ov5640.c ****     }
1285:Drivers/BSP/Components/ov5640/ov5640.c ****   }
1286:Drivers/BSP/Components/ov5640/ov5640.c **** 
1287:Drivers/BSP/Components/ov5640/ov5640.c ****   return ret;
 203              		.loc 1 1287 3 is_stmt 1 view .LVU51
 204              	.L1:
1288:Drivers/BSP/Components/ov5640/ov5640.c **** }
 205              		.loc 1 1288 1 is_stmt 0 view .LVU52
 206 0078 7047     		bx	lr
 207              		.cfi_endproc
 208              	.LFE12:
 210              		.section	.text.ov5640_Init,"ax",%progbits
 211              		.align	1
 212              		.global	ov5640_Init
 213              		.syntax unified
 214              		.thumb
 215              		.thumb_func
 217              	ov5640_Init:
 218              	.LVL34:
 219              	.LFB0:
 465:Drivers/BSP/Components/ov5640/ov5640.c ****   uint32_t index = 0;
 220              		.loc 1 465 1 is_stmt 1 view -0
 221              		.cfi_startproc
 222              		@ args = 0, pretend = 0, frame = 0
 223              		@ frame_needed = 0, uses_anonymous_args = 0
 465:Drivers/BSP/Components/ov5640/ov5640.c ****   uint32_t index = 0;
 224              		.loc 1 465 1 is_stmt 0 view .LVU54
 225 0000 70B5     		push	{r4, r5, r6, lr}
 226              		.cfi_def_cfa_offset 16
 227              		.cfi_offset 4, -16
 228              		.cfi_offset 5, -12
 229              		.cfi_offset 6, -8
 230              		.cfi_offset 14, -4
 231 0002 0546     		mov	r5, r0
 232 0004 0E46     		mov	r6, r1
 466:Drivers/BSP/Components/ov5640/ov5640.c **** 
 233              		.loc 1 466 3 is_stmt 1 view .LVU55
 234              	.LVL35:
ARM GAS  /var/folders/n6/c271nzx11xl4r4_m7sqjlt0m0000gn/T//cc8PHvwW.s 			page 28


 468:Drivers/BSP/Components/ov5640/ov5640.c ****   {
 235              		.loc 1 468 3 view .LVU56
 468:Drivers/BSP/Components/ov5640/ov5640.c ****   {
 236              		.loc 1 468 12 is_stmt 0 view .LVU57
 237 0006 0024     		movs	r4, #0
 468:Drivers/BSP/Components/ov5640/ov5640.c ****   {
 238              		.loc 1 468 3 view .LVU58
 239 0008 09E0     		b	.L26
 240              	.LVL36:
 241              	.L27:
 470:Drivers/BSP/Components/ov5640/ov5640.c ****   }
 242              		.loc 1 470 5 is_stmt 1 view .LVU59
 470:Drivers/BSP/Components/ov5640/ov5640.c ****   }
 243              		.loc 1 470 51 is_stmt 0 view .LVU60
 244 000a 264B     		ldr	r3, .L44
 470:Drivers/BSP/Components/ov5640/ov5640.c ****   }
 245              		.loc 1 470 74 view .LVU61
 246 000c 03EB8402 		add	r2, r3, r4, lsl #2
 470:Drivers/BSP/Components/ov5640/ov5640.c ****   }
 247              		.loc 1 470 5 view .LVU62
 248 0010 5288     		ldrh	r2, [r2, #2]
 249 0012 33F82410 		ldrh	r1, [r3, r4, lsl #2]
 250 0016 E8B2     		uxtb	r0, r5
 251 0018 FFF7FEFF 		bl	CAMERA_IO_Write
 252              	.LVL37:
 468:Drivers/BSP/Components/ov5640/ov5640.c ****   {
 253              		.loc 1 468 54 is_stmt 1 discriminator 3 view .LVU63
 254 001c 0134     		adds	r4, r4, #1
 255              	.LVL38:
 256              	.L26:
 468:Drivers/BSP/Components/ov5640/ov5640.c ****   {
 257              		.loc 1 468 21 discriminator 1 view .LVU64
 258 001e FD2C     		cmp	r4, #253
 259 0020 F3D9     		bls	.L27
 474:Drivers/BSP/Components/ov5640/ov5640.c ****   {
 260              		.loc 1 474 3 view .LVU65
 261 0022 032E     		cmp	r6, #3
 262 0024 0FD8     		bhi	.L25
 263 0026 DFE806F0 		tbb	[pc, r6]
 264              	.L30:
 265 002a 0C       		.byte	(.L33-.L30)/2
 266 002b 1C       		.byte	(.L38-.L30)/2
 267 002c 2B       		.byte	(.L39-.L30)/2
 268 002d 3A       		.byte	(.L40-.L30)/2
 269              	.LVL39:
 270              		.p2align 1
 271              	.L34:
 480:Drivers/BSP/Components/ov5640/ov5640.c ****       }
 272              		.loc 1 480 9 view .LVU66
 480:Drivers/BSP/Components/ov5640/ov5640.c ****       }
 273              		.loc 1 480 56 is_stmt 0 view .LVU67
 274 002e 1E4B     		ldr	r3, .L44+4
 480:Drivers/BSP/Components/ov5640/ov5640.c ****       }
 275              		.loc 1 480 80 view .LVU68
 276 0030 03EB8602 		add	r2, r3, r6, lsl #2
 480:Drivers/BSP/Components/ov5640/ov5640.c ****       }
 277              		.loc 1 480 9 view .LVU69
ARM GAS  /var/folders/n6/c271nzx11xl4r4_m7sqjlt0m0000gn/T//cc8PHvwW.s 			page 29


 278 0034 5288     		ldrh	r2, [r2, #2]
 279 0036 33F82610 		ldrh	r1, [r3, r6, lsl #2]
 280 003a E8B2     		uxtb	r0, r5
 281 003c FFF7FEFF 		bl	CAMERA_IO_Write
 282              	.LVL40:
 478:Drivers/BSP/Components/ov5640/ov5640.c ****       {
 283              		.loc 1 478 57 is_stmt 1 discriminator 3 view .LVU70
 284 0040 0136     		adds	r6, r6, #1
 285              	.LVL41:
 286              	.L33:
 478:Drivers/BSP/Components/ov5640/ov5640.c ****       {
 287              		.loc 1 478 25 discriminator 1 view .LVU71
 288 0042 062E     		cmp	r6, #6
 289 0044 F3D9     		bls	.L34
 290              	.LVL42:
 291              	.L25:
 514:Drivers/BSP/Components/ov5640/ov5640.c **** 
 292              		.loc 1 514 1 is_stmt 0 view .LVU72
 293 0046 70BD     		pop	{r4, r5, r6, pc}
 294              	.LVL43:
 295              	.L35:
 488:Drivers/BSP/Components/ov5640/ov5640.c ****       }
 296              		.loc 1 488 9 is_stmt 1 view .LVU73
 488:Drivers/BSP/Components/ov5640/ov5640.c ****       }
 297              		.loc 1 488 55 is_stmt 0 view .LVU74
 298 0048 184B     		ldr	r3, .L44+8
 488:Drivers/BSP/Components/ov5640/ov5640.c ****       }
 299              		.loc 1 488 78 view .LVU75
 300 004a 03EB8402 		add	r2, r3, r4, lsl #2
 488:Drivers/BSP/Components/ov5640/ov5640.c ****       }
 301              		.loc 1 488 9 view .LVU76
 302 004e 5288     		ldrh	r2, [r2, #2]
 303 0050 33F82410 		ldrh	r1, [r3, r4, lsl #2]
 304 0054 E8B2     		uxtb	r0, r5
 305 0056 FFF7FEFF 		bl	CAMERA_IO_Write
 306              	.LVL44:
 486:Drivers/BSP/Components/ov5640/ov5640.c ****       {
 307              		.loc 1 486 57 is_stmt 1 discriminator 3 view .LVU77
 308 005a 0134     		adds	r4, r4, #1
 309              	.LVL45:
 310              	.L32:
 486:Drivers/BSP/Components/ov5640/ov5640.c ****       {
 311              		.loc 1 486 25 discriminator 1 view .LVU78
 312 005c 062C     		cmp	r4, #6
 313 005e F3D9     		bls	.L35
 314 0060 F1E7     		b	.L25
 315              	.L38:
 474:Drivers/BSP/Components/ov5640/ov5640.c ****   {
 316              		.loc 1 474 3 is_stmt 0 view .LVU79
 317 0062 0024     		movs	r4, #0
 318              	.LVL46:
 474:Drivers/BSP/Components/ov5640/ov5640.c ****   {
 319              		.loc 1 474 3 view .LVU80
 320 0064 FAE7     		b	.L32
 321              	.LVL47:
 322              	.L36:
 497:Drivers/BSP/Components/ov5640/ov5640.c ****       }
ARM GAS  /var/folders/n6/c271nzx11xl4r4_m7sqjlt0m0000gn/T//cc8PHvwW.s 			page 30


 323              		.loc 1 497 9 is_stmt 1 view .LVU81
 497:Drivers/BSP/Components/ov5640/ov5640.c ****       }
 324              		.loc 1 497 58 is_stmt 0 view .LVU82
 325 0066 124B     		ldr	r3, .L44+12
 497:Drivers/BSP/Components/ov5640/ov5640.c ****       }
 326              		.loc 1 497 84 view .LVU83
 327 0068 03EB8402 		add	r2, r3, r4, lsl #2
 497:Drivers/BSP/Components/ov5640/ov5640.c ****       }
 328              		.loc 1 497 9 view .LVU84
 329 006c 5288     		ldrh	r2, [r2, #2]
 330 006e 33F82410 		ldrh	r1, [r3, r4, lsl #2]
 331 0072 E8B2     		uxtb	r0, r5
 332 0074 FFF7FEFF 		bl	CAMERA_IO_Write
 333              	.LVL48:
 495:Drivers/BSP/Components/ov5640/ov5640.c ****       {
 334              		.loc 1 495 59 is_stmt 1 discriminator 3 view .LVU85
 335 0078 0134     		adds	r4, r4, #1
 336              	.LVL49:
 337              	.L31:
 495:Drivers/BSP/Components/ov5640/ov5640.c ****       {
 338              		.loc 1 495 25 discriminator 1 view .LVU86
 339 007a 062C     		cmp	r4, #6
 340 007c F3D9     		bls	.L36
 341 007e E2E7     		b	.L25
 342              	.L39:
 474:Drivers/BSP/Components/ov5640/ov5640.c ****   {
 343              		.loc 1 474 3 is_stmt 0 view .LVU87
 344 0080 0024     		movs	r4, #0
 345              	.LVL50:
 474:Drivers/BSP/Components/ov5640/ov5640.c ****   {
 346              		.loc 1 474 3 view .LVU88
 347 0082 FAE7     		b	.L31
 348              	.LVL51:
 349              	.L37:
 505:Drivers/BSP/Components/ov5640/ov5640.c ****       }
 350              		.loc 1 505 9 is_stmt 1 view .LVU89
 505:Drivers/BSP/Components/ov5640/ov5640.c ****       }
 351              		.loc 1 505 54 is_stmt 0 view .LVU90
 352 0084 0B4B     		ldr	r3, .L44+16
 505:Drivers/BSP/Components/ov5640/ov5640.c ****       }
 353              		.loc 1 505 76 view .LVU91
 354 0086 03EB8402 		add	r2, r3, r4, lsl #2
 505:Drivers/BSP/Components/ov5640/ov5640.c ****       }
 355              		.loc 1 505 9 view .LVU92
 356 008a 5288     		ldrh	r2, [r2, #2]
 357 008c 33F82410 		ldrh	r1, [r3, r4, lsl #2]
 358 0090 E8B2     		uxtb	r0, r5
 359 0092 FFF7FEFF 		bl	CAMERA_IO_Write
 360              	.LVL52:
 503:Drivers/BSP/Components/ov5640/ov5640.c ****       {
 361              		.loc 1 503 55 is_stmt 1 discriminator 3 view .LVU93
 362 0096 0134     		adds	r4, r4, #1
 363              	.LVL53:
 364              	.L29:
 503:Drivers/BSP/Components/ov5640/ov5640.c ****       {
 365              		.loc 1 503 25 discriminator 1 view .LVU94
 366 0098 062C     		cmp	r4, #6
ARM GAS  /var/folders/n6/c271nzx11xl4r4_m7sqjlt0m0000gn/T//cc8PHvwW.s 			page 31


 367 009a F3D9     		bls	.L37
 368 009c D3E7     		b	.L25
 369              	.L40:
 474:Drivers/BSP/Components/ov5640/ov5640.c ****   {
 370              		.loc 1 474 3 is_stmt 0 view .LVU95
 371 009e 0024     		movs	r4, #0
 372              	.LVL54:
 474:Drivers/BSP/Components/ov5640/ov5640.c ****   {
 373              		.loc 1 474 3 view .LVU96
 374 00a0 FAE7     		b	.L29
 375              	.L45:
 376 00a2 00BF     		.align	2
 377              	.L44:
 378 00a4 00000000 		.word	OV5640_Init
 379 00a8 00000000 		.word	OV5640_QQVGA
 380 00ac 00000000 		.word	OV5640_QVGA
 381 00b0 00000000 		.word	OV5640_480x272
 382 00b4 00000000 		.word	OV5640_VGA
 383              		.cfi_endproc
 384              	.LFE0:
 386              		.section	.text.ov5640_ReadID,"ax",%progbits
 387              		.align	1
 388              		.global	ov5640_ReadID
 389              		.syntax unified
 390              		.thumb
 391              		.thumb_func
 393              	ov5640_ReadID:
 394              	.LVL55:
 395              	.LFB11:
1125:Drivers/BSP/Components/ov5640/ov5640.c ****   uint16_t read_val = 0;
 396              		.loc 1 1125 1 is_stmt 1 view -0
 397              		.cfi_startproc
 398              		@ args = 0, pretend = 0, frame = 0
 399              		@ frame_needed = 0, uses_anonymous_args = 0
1125:Drivers/BSP/Components/ov5640/ov5640.c ****   uint16_t read_val = 0;
 400              		.loc 1 1125 1 is_stmt 0 view .LVU98
 401 0000 38B5     		push	{r3, r4, r5, lr}
 402              		.cfi_def_cfa_offset 16
 403              		.cfi_offset 3, -16
 404              		.cfi_offset 4, -12
 405              		.cfi_offset 5, -8
 406              		.cfi_offset 14, -4
 407 0002 0546     		mov	r5, r0
1126:Drivers/BSP/Components/ov5640/ov5640.c **** 
 408              		.loc 1 1126 3 is_stmt 1 view .LVU99
 409              	.LVL56:
1129:Drivers/BSP/Components/ov5640/ov5640.c **** 
 410              		.loc 1 1129 3 view .LVU100
 411 0004 FFF7FEFF 		bl	CAMERA_IO_Init
 412              	.LVL57:
1132:Drivers/BSP/Components/ov5640/ov5640.c ****   CAMERA_Delay(500);
 413              		.loc 1 1132 3 view .LVU101
 414 0008 EDB2     		uxtb	r5, r5
 415              	.LVL58:
1132:Drivers/BSP/Components/ov5640/ov5640.c ****   CAMERA_Delay(500);
 416              		.loc 1 1132 3 is_stmt 0 view .LVU102
 417 000a 8022     		movs	r2, #128
ARM GAS  /var/folders/n6/c271nzx11xl4r4_m7sqjlt0m0000gn/T//cc8PHvwW.s 			page 32


 418 000c 43F20801 		movw	r1, #12296
 419 0010 2846     		mov	r0, r5
 420 0012 FFF7FEFF 		bl	CAMERA_IO_Write
 421              	.LVL59:
1133:Drivers/BSP/Components/ov5640/ov5640.c **** 
 422              		.loc 1 1133 3 is_stmt 1 view .LVU103
 423 0016 4FF4FA70 		mov	r0, #500
 424 001a FFF7FEFF 		bl	CAMERA_Delay
 425              	.LVL60:
1135:Drivers/BSP/Components/ov5640/ov5640.c ****   read_val = read_val << 8;
 426              		.loc 1 1135 3 view .LVU104
1135:Drivers/BSP/Components/ov5640/ov5640.c ****   read_val = read_val << 8;
 427              		.loc 1 1135 14 is_stmt 0 view .LVU105
 428 001e 43F20A01 		movw	r1, #12298
 429 0022 2846     		mov	r0, r5
 430 0024 FFF7FEFF 		bl	CAMERA_IO_Read
 431              	.LVL61:
1136:Drivers/BSP/Components/ov5640/ov5640.c ****   read_val |= CAMERA_IO_Read(DeviceAddr, 0x300B);
 432              		.loc 1 1136 3 is_stmt 1 view .LVU106
1136:Drivers/BSP/Components/ov5640/ov5640.c ****   read_val |= CAMERA_IO_Read(DeviceAddr, 0x300B);
 433              		.loc 1 1136 12 is_stmt 0 view .LVU107
 434 0028 0402     		lsls	r4, r0, #8
 435 002a A4B2     		uxth	r4, r4
 436              	.LVL62:
1137:Drivers/BSP/Components/ov5640/ov5640.c ****   /* Get the camera ID */
 437              		.loc 1 1137 3 is_stmt 1 view .LVU108
1137:Drivers/BSP/Components/ov5640/ov5640.c ****   /* Get the camera ID */
 438              		.loc 1 1137 15 is_stmt 0 view .LVU109
 439 002c 43F20B01 		movw	r1, #12299
 440 0030 2846     		mov	r0, r5
 441 0032 FFF7FEFF 		bl	CAMERA_IO_Read
 442              	.LVL63:
1137:Drivers/BSP/Components/ov5640/ov5640.c ****   /* Get the camera ID */
 443              		.loc 1 1137 12 discriminator 1 view .LVU110
 444 0036 2043     		orrs	r0, r0, r4
 445              	.LVL64:
1139:Drivers/BSP/Components/ov5640/ov5640.c **** }
 446              		.loc 1 1139 3 is_stmt 1 view .LVU111
1140:Drivers/BSP/Components/ov5640/ov5640.c **** 
 447              		.loc 1 1140 1 is_stmt 0 view .LVU112
 448 0038 80B2     		uxth	r0, r0
1140:Drivers/BSP/Components/ov5640/ov5640.c **** 
 449              		.loc 1 1140 1 view .LVU113
 450 003a 38BD     		pop	{r3, r4, r5, pc}
 451              		.cfi_endproc
 452              	.LFE11:
 454              		.section	.text.OV5640_SetLightMode,"ax",%progbits
 455              		.align	1
 456              		.global	OV5640_SetLightMode
 457              		.syntax unified
 458              		.thumb
 459              		.thumb_func
 461              	OV5640_SetLightMode:
 462              	.LVL65:
 463              	.LFB1:
 523:Drivers/BSP/Components/ov5640/ov5640.c ****   uint32_t index = 0;
 464              		.loc 1 523 1 is_stmt 1 view -0
ARM GAS  /var/folders/n6/c271nzx11xl4r4_m7sqjlt0m0000gn/T//cc8PHvwW.s 			page 33


 465              		.cfi_startproc
 466              		@ args = 0, pretend = 0, frame = 0
 467              		@ frame_needed = 0, uses_anonymous_args = 0
 523:Drivers/BSP/Components/ov5640/ov5640.c ****   uint32_t index = 0;
 468              		.loc 1 523 1 is_stmt 0 view .LVU115
 469 0000 38B5     		push	{r3, r4, r5, lr}
 470              		.cfi_def_cfa_offset 16
 471              		.cfi_offset 3, -16
 472              		.cfi_offset 4, -12
 473              		.cfi_offset 5, -8
 474              		.cfi_offset 14, -4
 475 0002 0D46     		mov	r5, r1
 524:Drivers/BSP/Components/ov5640/ov5640.c **** 
 476              		.loc 1 524 3 is_stmt 1 view .LVU116
 477              	.LVL66:
 526:Drivers/BSP/Components/ov5640/ov5640.c ****   CAMERA_IO_Write(DeviceAddr, 0x5190, 0x46);
 478              		.loc 1 526 3 view .LVU117
 479 0004 C4B2     		uxtb	r4, r0
 480 0006 0022     		movs	r2, #0
 481 0008 43F20641 		movw	r1, #13318
 482              	.LVL67:
 526:Drivers/BSP/Components/ov5640/ov5640.c ****   CAMERA_IO_Write(DeviceAddr, 0x5190, 0x46);
 483              		.loc 1 526 3 is_stmt 0 view .LVU118
 484 000c 2046     		mov	r0, r4
 485              	.LVL68:
 526:Drivers/BSP/Components/ov5640/ov5640.c ****   CAMERA_IO_Write(DeviceAddr, 0x5190, 0x46);
 486              		.loc 1 526 3 view .LVU119
 487 000e FFF7FEFF 		bl	CAMERA_IO_Write
 488              	.LVL69:
 527:Drivers/BSP/Components/ov5640/ov5640.c ****   CAMERA_IO_Write(DeviceAddr, 0x5191, 0xf8);
 489              		.loc 1 527 3 is_stmt 1 view .LVU120
 490 0012 4622     		movs	r2, #70
 491 0014 45F29011 		movw	r1, #20880
 492 0018 2046     		mov	r0, r4
 493 001a FFF7FEFF 		bl	CAMERA_IO_Write
 494              	.LVL70:
 528:Drivers/BSP/Components/ov5640/ov5640.c ****   CAMERA_IO_Write(DeviceAddr, 0x5192, 0x04);
 495              		.loc 1 528 3 view .LVU121
 496 001e F822     		movs	r2, #248
 497 0020 45F29111 		movw	r1, #20881
 498 0024 2046     		mov	r0, r4
 499 0026 FFF7FEFF 		bl	CAMERA_IO_Write
 500              	.LVL71:
 529:Drivers/BSP/Components/ov5640/ov5640.c **** 
 501              		.loc 1 529 3 view .LVU122
 502 002a 0422     		movs	r2, #4
 503 002c 45F29211 		movw	r1, #20882
 504 0030 2046     		mov	r0, r4
 505 0032 FFF7FEFF 		bl	CAMERA_IO_Write
 506              	.LVL72:
 531:Drivers/BSP/Components/ov5640/ov5640.c ****   {
 507              		.loc 1 531 3 view .LVU123
 508 0036 082D     		cmp	r5, #8
 509 0038 5ED8     		bhi	.L63
 510 003a DFE805F0 		tbb	[pc, r5]
 511              	.L51:
 512 003e 12       		.byte	(.L64-.L51)/2
ARM GAS  /var/folders/n6/c271nzx11xl4r4_m7sqjlt0m0000gn/T//cc8PHvwW.s 			page 34


 513 003f 21       		.byte	(.L65-.L51)/2
 514 0040 30       		.byte	(.L66-.L51)/2
 515 0041 5D       		.byte	(.L63-.L51)/2
 516 0042 4E       		.byte	(.L67-.L51)/2
 517 0043 5D       		.byte	(.L63-.L51)/2
 518 0044 5D       		.byte	(.L63-.L51)/2
 519 0045 5D       		.byte	(.L63-.L51)/2
 520 0046 3F       		.byte	(.L68-.L51)/2
 521              	.LVL73:
 522 0047 00       		.p2align 1
 523              	.L56:
 536:Drivers/BSP/Components/ov5640/ov5640.c ****     }
 524              		.loc 1 536 7 view .LVU124
 536:Drivers/BSP/Components/ov5640/ov5640.c ****     }
 525              		.loc 1 536 62 is_stmt 0 view .LVU125
 526 0048 2C4B     		ldr	r3, .L70
 536:Drivers/BSP/Components/ov5640/ov5640.c ****     }
 527              		.loc 1 536 94 view .LVU126
 528 004a 03EB8502 		add	r2, r3, r5, lsl #2
 536:Drivers/BSP/Components/ov5640/ov5640.c ****     }
 529              		.loc 1 536 7 view .LVU127
 530 004e 5288     		ldrh	r2, [r2, #2]
 531 0050 33F82510 		ldrh	r1, [r3, r5, lsl #2]
 532 0054 2046     		mov	r0, r4
 533 0056 FFF7FEFF 		bl	CAMERA_IO_Write
 534              	.LVL74:
 534:Drivers/BSP/Components/ov5640/ov5640.c ****     {
 535              		.loc 1 534 65 is_stmt 1 discriminator 3 view .LVU128
 536 005a 0135     		adds	r5, r5, #1
 537              	.LVL75:
 538              	.L55:
 534:Drivers/BSP/Components/ov5640/ov5640.c ****     {
 539              		.loc 1 534 23 discriminator 1 view .LVU129
 540 005c 062D     		cmp	r5, #6
 541 005e F3D9     		bls	.L56
 542              	.L48:
 571:Drivers/BSP/Components/ov5640/ov5640.c **** 
 543              		.loc 1 571 1 is_stmt 0 view .LVU130
 544 0060 38BD     		pop	{r3, r4, r5, pc}
 545              	.LVL76:
 546              	.L64:
 531:Drivers/BSP/Components/ov5640/ov5640.c ****   {
 547              		.loc 1 531 3 view .LVU131
 548 0062 0025     		movs	r5, #0
 549 0064 FAE7     		b	.L55
 550              	.LVL77:
 551              	.L58:
 542:Drivers/BSP/Components/ov5640/ov5640.c ****     }
 552              		.loc 1 542 7 is_stmt 1 view .LVU132
 542:Drivers/BSP/Components/ov5640/ov5640.c ****     }
 553              		.loc 1 542 63 is_stmt 0 view .LVU133
 554 0066 264B     		ldr	r3, .L70+4
 542:Drivers/BSP/Components/ov5640/ov5640.c ****     }
 555              		.loc 1 542 96 view .LVU134
 556 0068 03EB8502 		add	r2, r3, r5, lsl #2
 542:Drivers/BSP/Components/ov5640/ov5640.c ****     }
 557              		.loc 1 542 7 view .LVU135
ARM GAS  /var/folders/n6/c271nzx11xl4r4_m7sqjlt0m0000gn/T//cc8PHvwW.s 			page 35


 558 006c 5288     		ldrh	r2, [r2, #2]
 559 006e 33F82510 		ldrh	r1, [r3, r5, lsl #2]
 560 0072 2046     		mov	r0, r4
 561 0074 FFF7FEFF 		bl	CAMERA_IO_Write
 562              	.LVL78:
 540:Drivers/BSP/Components/ov5640/ov5640.c ****     {
 563              		.loc 1 540 66 is_stmt 1 discriminator 3 view .LVU136
 564 0078 0135     		adds	r5, r5, #1
 565              	.LVL79:
 566              	.L54:
 540:Drivers/BSP/Components/ov5640/ov5640.c ****     {
 567              		.loc 1 540 23 discriminator 1 view .LVU137
 568 007a 062D     		cmp	r5, #6
 569 007c F3D9     		bls	.L58
 570 007e EFE7     		b	.L48
 571              	.LVL80:
 572              	.L65:
 531:Drivers/BSP/Components/ov5640/ov5640.c ****   {
 573              		.loc 1 531 3 is_stmt 0 view .LVU138
 574 0080 0025     		movs	r5, #0
 575 0082 FAE7     		b	.L54
 576              	.LVL81:
 577              	.L59:
 548:Drivers/BSP/Components/ov5640/ov5640.c ****     }
 578              		.loc 1 548 7 is_stmt 1 view .LVU139
 548:Drivers/BSP/Components/ov5640/ov5640.c ****     }
 579              		.loc 1 548 64 is_stmt 0 view .LVU140
 580 0084 1F4B     		ldr	r3, .L70+8
 548:Drivers/BSP/Components/ov5640/ov5640.c ****     }
 581              		.loc 1 548 98 view .LVU141
 582 0086 03EB8502 		add	r2, r3, r5, lsl #2
 548:Drivers/BSP/Components/ov5640/ov5640.c ****     }
 583              		.loc 1 548 7 view .LVU142
 584 008a 5288     		ldrh	r2, [r2, #2]
 585 008c 33F82510 		ldrh	r1, [r3, r5, lsl #2]
 586 0090 2046     		mov	r0, r4
 587 0092 FFF7FEFF 		bl	CAMERA_IO_Write
 588              	.LVL82:
 546:Drivers/BSP/Components/ov5640/ov5640.c ****     {
 589              		.loc 1 546 67 is_stmt 1 discriminator 3 view .LVU143
 590 0096 0135     		adds	r5, r5, #1
 591              	.LVL83:
 592              	.L53:
 546:Drivers/BSP/Components/ov5640/ov5640.c ****     {
 593              		.loc 1 546 23 discriminator 1 view .LVU144
 594 0098 062D     		cmp	r5, #6
 595 009a F3D9     		bls	.L59
 596 009c E0E7     		b	.L48
 597              	.LVL84:
 598              	.L66:
 531:Drivers/BSP/Components/ov5640/ov5640.c ****   {
 599              		.loc 1 531 3 is_stmt 0 view .LVU145
 600 009e 0025     		movs	r5, #0
 601 00a0 FAE7     		b	.L53
 602              	.LVL85:
 603              	.L60:
 554:Drivers/BSP/Components/ov5640/ov5640.c ****     }
ARM GAS  /var/folders/n6/c271nzx11xl4r4_m7sqjlt0m0000gn/T//cc8PHvwW.s 			page 36


 604              		.loc 1 554 7 is_stmt 1 view .LVU146
 554:Drivers/BSP/Components/ov5640/ov5640.c ****     }
 605              		.loc 1 554 64 is_stmt 0 view .LVU147
 606 00a2 194B     		ldr	r3, .L70+12
 554:Drivers/BSP/Components/ov5640/ov5640.c ****     }
 607              		.loc 1 554 98 view .LVU148
 608 00a4 03EB8502 		add	r2, r3, r5, lsl #2
 554:Drivers/BSP/Components/ov5640/ov5640.c ****     }
 609              		.loc 1 554 7 view .LVU149
 610 00a8 5288     		ldrh	r2, [r2, #2]
 611 00aa 33F82510 		ldrh	r1, [r3, r5, lsl #2]
 612 00ae 2046     		mov	r0, r4
 613 00b0 FFF7FEFF 		bl	CAMERA_IO_Write
 614              	.LVL86:
 552:Drivers/BSP/Components/ov5640/ov5640.c ****     {
 615              		.loc 1 552 67 is_stmt 1 discriminator 3 view .LVU150
 616 00b4 0135     		adds	r5, r5, #1
 617              	.LVL87:
 618              	.L50:
 552:Drivers/BSP/Components/ov5640/ov5640.c ****     {
 619              		.loc 1 552 23 discriminator 1 view .LVU151
 620 00b6 062D     		cmp	r5, #6
 621 00b8 F3D9     		bls	.L60
 622 00ba D1E7     		b	.L48
 623              	.LVL88:
 624              	.L68:
 531:Drivers/BSP/Components/ov5640/ov5640.c ****   {
 625              		.loc 1 531 3 is_stmt 0 view .LVU152
 626 00bc 0025     		movs	r5, #0
 627 00be FAE7     		b	.L50
 628              	.LVL89:
 629              	.L61:
 560:Drivers/BSP/Components/ov5640/ov5640.c ****     }
 630              		.loc 1 560 7 is_stmt 1 view .LVU153
 560:Drivers/BSP/Components/ov5640/ov5640.c ****     }
 631              		.loc 1 560 62 is_stmt 0 view .LVU154
 632 00c0 124B     		ldr	r3, .L70+16
 560:Drivers/BSP/Components/ov5640/ov5640.c ****     }
 633              		.loc 1 560 94 view .LVU155
 634 00c2 03EB8502 		add	r2, r3, r5, lsl #2
 560:Drivers/BSP/Components/ov5640/ov5640.c ****     }
 635              		.loc 1 560 7 view .LVU156
 636 00c6 5288     		ldrh	r2, [r2, #2]
 637 00c8 33F82510 		ldrh	r1, [r3, r5, lsl #2]
 638 00cc 2046     		mov	r0, r4
 639 00ce FFF7FEFF 		bl	CAMERA_IO_Write
 640              	.LVL90:
 558:Drivers/BSP/Components/ov5640/ov5640.c ****     {
 641              		.loc 1 558 65 is_stmt 1 discriminator 3 view .LVU157
 642 00d2 0135     		adds	r5, r5, #1
 643              	.LVL91:
 644              	.L52:
 558:Drivers/BSP/Components/ov5640/ov5640.c ****     {
 645              		.loc 1 558 23 discriminator 1 view .LVU158
 646 00d4 062D     		cmp	r5, #6
 647 00d6 F3D9     		bls	.L61
 648 00d8 C2E7     		b	.L48
ARM GAS  /var/folders/n6/c271nzx11xl4r4_m7sqjlt0m0000gn/T//cc8PHvwW.s 			page 37


 649              	.LVL92:
 650              	.L67:
 531:Drivers/BSP/Components/ov5640/ov5640.c ****   {
 651              		.loc 1 531 3 is_stmt 0 view .LVU159
 652 00da 0025     		movs	r5, #0
 653 00dc FAE7     		b	.L52
 654              	.LVL93:
 655              	.L62:
 567:Drivers/BSP/Components/ov5640/ov5640.c ****     }
 656              		.loc 1 567 7 is_stmt 1 view .LVU160
 567:Drivers/BSP/Components/ov5640/ov5640.c ****     }
 657              		.loc 1 567 62 is_stmt 0 view .LVU161
 658 00de 074B     		ldr	r3, .L70
 567:Drivers/BSP/Components/ov5640/ov5640.c ****     }
 659              		.loc 1 567 94 view .LVU162
 660 00e0 03EB8502 		add	r2, r3, r5, lsl #2
 567:Drivers/BSP/Components/ov5640/ov5640.c ****     }
 661              		.loc 1 567 7 view .LVU163
 662 00e4 5288     		ldrh	r2, [r2, #2]
 663 00e6 33F82510 		ldrh	r1, [r3, r5, lsl #2]
 664 00ea 2046     		mov	r0, r4
 665 00ec FFF7FEFF 		bl	CAMERA_IO_Write
 666              	.LVL94:
 565:Drivers/BSP/Components/ov5640/ov5640.c ****     {
 667              		.loc 1 565 65 is_stmt 1 discriminator 3 view .LVU164
 668 00f0 0135     		adds	r5, r5, #1
 669              	.LVL95:
 670              	.L49:
 565:Drivers/BSP/Components/ov5640/ov5640.c ****     {
 671              		.loc 1 565 23 discriminator 1 view .LVU165
 672 00f2 062D     		cmp	r5, #6
 673 00f4 F3D9     		bls	.L62
 674 00f6 B3E7     		b	.L48
 675              	.LVL96:
 676              	.L63:
 531:Drivers/BSP/Components/ov5640/ov5640.c ****   {
 677              		.loc 1 531 3 is_stmt 0 view .LVU166
 678 00f8 0025     		movs	r5, #0
 679 00fa FAE7     		b	.L49
 680              	.L71:
 681              		.align	2
 682              	.L70:
 683 00fc 00000000 		.word	OV5640_LightModeAuto
 684 0100 00000000 		.word	OV5640_LightModeSunny
 685 0104 00000000 		.word	OV5640_LightModeOffice
 686 0108 00000000 		.word	OV5640_LightModeCloudy
 687 010c 00000000 		.word	OV5640_LightModeHome
 688              		.cfi_endproc
 689              	.LFE1:
 691              		.section	.text.OV5640_SetEffect,"ax",%progbits
 692              		.align	1
 693              		.global	OV5640_SetEffect
 694              		.syntax unified
 695              		.thumb
 696              		.thumb_func
 698              	OV5640_SetEffect:
 699              	.LVL97:
ARM GAS  /var/folders/n6/c271nzx11xl4r4_m7sqjlt0m0000gn/T//cc8PHvwW.s 			page 38


 700              	.LFB2:
 580:Drivers/BSP/Components/ov5640/ov5640.c ****   switch(Effect)
 701              		.loc 1 580 1 is_stmt 1 view -0
 702              		.cfi_startproc
 703              		@ args = 0, pretend = 0, frame = 0
 704              		@ frame_needed = 0, uses_anonymous_args = 0
 580:Drivers/BSP/Components/ov5640/ov5640.c ****   switch(Effect)
 705              		.loc 1 580 1 is_stmt 0 view .LVU168
 706 0000 10B5     		push	{r4, lr}
 707              		.cfi_def_cfa_offset 8
 708              		.cfi_offset 4, -8
 709              		.cfi_offset 14, -4
 581:Drivers/BSP/Components/ov5640/ov5640.c ****   {
 710              		.loc 1 581 3 is_stmt 1 view .LVU169
 711 0002 2029     		cmp	r1, #32
 712 0004 25D8     		bhi	.L73
 713 0006 2029     		cmp	r1, #32
 714 0008 00F21F81 		bhi	.L74
 715 000c DFE811F0 		tbh	[pc, r1, lsl #1]
 716              	.L76:
 717 0010 4500     		.2byte	(.L82-.L76)/2
 718 0012 5300     		.2byte	(.L81-.L76)/2
 719 0014 6D00     		.2byte	(.L80-.L76)/2
 720 0016 1D01     		.2byte	(.L74-.L76)/2
 721 0018 8700     		.2byte	(.L79-.L76)/2
 722 001a 1D01     		.2byte	(.L74-.L76)/2
 723 001c 1D01     		.2byte	(.L74-.L76)/2
 724 001e 1D01     		.2byte	(.L74-.L76)/2
 725 0020 A100     		.2byte	(.L78-.L76)/2
 726 0022 1D01     		.2byte	(.L74-.L76)/2
 727 0024 1D01     		.2byte	(.L74-.L76)/2
 728 0026 1D01     		.2byte	(.L74-.L76)/2
 729 0028 1D01     		.2byte	(.L74-.L76)/2
 730 002a 1D01     		.2byte	(.L74-.L76)/2
 731 002c 1D01     		.2byte	(.L74-.L76)/2
 732 002e 1D01     		.2byte	(.L74-.L76)/2
 733 0030 BB00     		.2byte	(.L77-.L76)/2
 734 0032 1D01     		.2byte	(.L74-.L76)/2
 735 0034 1D01     		.2byte	(.L74-.L76)/2
 736 0036 1D01     		.2byte	(.L74-.L76)/2
 737 0038 1D01     		.2byte	(.L74-.L76)/2
 738 003a 1D01     		.2byte	(.L74-.L76)/2
 739 003c 1D01     		.2byte	(.L74-.L76)/2
 740 003e 1D01     		.2byte	(.L74-.L76)/2
 741 0040 1D01     		.2byte	(.L74-.L76)/2
 742 0042 1D01     		.2byte	(.L74-.L76)/2
 743 0044 1D01     		.2byte	(.L74-.L76)/2
 744 0046 1D01     		.2byte	(.L74-.L76)/2
 745 0048 1D01     		.2byte	(.L74-.L76)/2
 746 004a 1D01     		.2byte	(.L74-.L76)/2
 747 004c 1D01     		.2byte	(.L74-.L76)/2
 748 004e 1D01     		.2byte	(.L74-.L76)/2
 749 0050 D500     		.2byte	(.L75-.L76)/2
 750              		.p2align 1
 751              	.L73:
 752 0052 8029     		cmp	r1, #128
 753 0054 00F0BF80 		beq	.L83
ARM GAS  /var/folders/n6/c271nzx11xl4r4_m7sqjlt0m0000gn/T//cc8PHvwW.s 			page 39


 754 0058 B1F5807F 		cmp	r1, #256
 755 005c 00F0D580 		beq	.L84
 756 0060 4029     		cmp	r1, #64
 757 0062 40F0F280 		bne	.L74
 629:Drivers/BSP/Components/ov5640/ov5640.c ****     CAMERA_IO_Write(DeviceAddr, 0x5580, 0x58);
 758              		.loc 1 629 5 view .LVU170
 759 0066 C4B2     		uxtb	r4, r0
 760 0068 FF22     		movs	r2, #255
 761 006a 45F20101 		movw	r1, #20481
 762              	.LVL98:
 629:Drivers/BSP/Components/ov5640/ov5640.c ****     CAMERA_IO_Write(DeviceAddr, 0x5580, 0x58);
 763              		.loc 1 629 5 is_stmt 0 view .LVU171
 764 006e 2046     		mov	r0, r4
 765              	.LVL99:
 629:Drivers/BSP/Components/ov5640/ov5640.c ****     CAMERA_IO_Write(DeviceAddr, 0x5580, 0x58);
 766              		.loc 1 629 5 view .LVU172
 767 0070 FFF7FEFF 		bl	CAMERA_IO_Write
 768              	.LVL100:
 630:Drivers/BSP/Components/ov5640/ov5640.c ****     CAMERA_IO_Write(DeviceAddr, 0x5583, 0x40);
 769              		.loc 1 630 5 is_stmt 1 view .LVU173
 770 0074 5822     		movs	r2, #88
 771 0076 4FF4AB41 		mov	r1, #21888
 772 007a 2046     		mov	r0, r4
 773 007c FFF7FEFF 		bl	CAMERA_IO_Write
 774              	.LVL101:
 631:Drivers/BSP/Components/ov5640/ov5640.c ****     CAMERA_IO_Write(DeviceAddr, 0x5584, 0x40);
 775              		.loc 1 631 5 view .LVU174
 776 0080 4022     		movs	r2, #64
 777 0082 45F28351 		movw	r1, #21891
 778 0086 2046     		mov	r0, r4
 779 0088 FFF7FEFF 		bl	CAMERA_IO_Write
 780              	.LVL102:
 632:Drivers/BSP/Components/ov5640/ov5640.c ****     break;
 781              		.loc 1 632 5 view .LVU175
 782 008c 4022     		movs	r2, #64
 783 008e 45F28451 		movw	r1, #21892
 784 0092 2046     		mov	r0, r4
 785 0094 FFF7FEFF 		bl	CAMERA_IO_Write
 786              	.LVL103:
 633:Drivers/BSP/Components/ov5640/ov5640.c **** 
 787              		.loc 1 633 5 view .LVU176
 788 0098 0CE0     		b	.L72
 789              	.LVL104:
 790              	.L82:
 584:Drivers/BSP/Components/ov5640/ov5640.c ****     CAMERA_IO_Write(DeviceAddr, 0x5580, 0x00);
 791              		.loc 1 584 5 view .LVU177
 792 009a C4B2     		uxtb	r4, r0
 793 009c 7F22     		movs	r2, #127
 794 009e 45F20101 		movw	r1, #20481
 795              	.LVL105:
 584:Drivers/BSP/Components/ov5640/ov5640.c ****     CAMERA_IO_Write(DeviceAddr, 0x5580, 0x00);
 796              		.loc 1 584 5 is_stmt 0 view .LVU178
 797 00a2 2046     		mov	r0, r4
 798              	.LVL106:
 584:Drivers/BSP/Components/ov5640/ov5640.c ****     CAMERA_IO_Write(DeviceAddr, 0x5580, 0x00);
 799              		.loc 1 584 5 view .LVU179
 800 00a4 FFF7FEFF 		bl	CAMERA_IO_Write
ARM GAS  /var/folders/n6/c271nzx11xl4r4_m7sqjlt0m0000gn/T//cc8PHvwW.s 			page 40


 801              	.LVL107:
 585:Drivers/BSP/Components/ov5640/ov5640.c ****     break;
 802              		.loc 1 585 5 is_stmt 1 view .LVU180
 803 00a8 0022     		movs	r2, #0
 804 00aa 4FF4AB41 		mov	r1, #21888
 805 00ae 2046     		mov	r0, r4
 806 00b0 FFF7FEFF 		bl	CAMERA_IO_Write
 807              	.LVL108:
 586:Drivers/BSP/Components/ov5640/ov5640.c **** 
 808              		.loc 1 586 5 view .LVU181
 809              	.L72:
 656:Drivers/BSP/Components/ov5640/ov5640.c **** 
 810              		.loc 1 656 1 is_stmt 0 view .LVU182
 811 00b4 10BD     		pop	{r4, pc}
 812              	.LVL109:
 813              	.L81:
 589:Drivers/BSP/Components/ov5640/ov5640.c ****     CAMERA_IO_Write(DeviceAddr, 0x5580, 0x18);
 814              		.loc 1 589 5 is_stmt 1 view .LVU183
 815 00b6 C4B2     		uxtb	r4, r0
 816 00b8 FF22     		movs	r2, #255
 817 00ba 45F20101 		movw	r1, #20481
 818              	.LVL110:
 589:Drivers/BSP/Components/ov5640/ov5640.c ****     CAMERA_IO_Write(DeviceAddr, 0x5580, 0x18);
 819              		.loc 1 589 5 is_stmt 0 view .LVU184
 820 00be 2046     		mov	r0, r4
 821              	.LVL111:
 589:Drivers/BSP/Components/ov5640/ov5640.c ****     CAMERA_IO_Write(DeviceAddr, 0x5580, 0x18);
 822              		.loc 1 589 5 view .LVU185
 823 00c0 FFF7FEFF 		bl	CAMERA_IO_Write
 824              	.LVL112:
 590:Drivers/BSP/Components/ov5640/ov5640.c ****     CAMERA_IO_Write(DeviceAddr, 0x5583, 0xA0);
 825              		.loc 1 590 5 is_stmt 1 view .LVU186
 826 00c4 1822     		movs	r2, #24
 827 00c6 4FF4AB41 		mov	r1, #21888
 828 00ca 2046     		mov	r0, r4
 829 00cc FFF7FEFF 		bl	CAMERA_IO_Write
 830              	.LVL113:
 591:Drivers/BSP/Components/ov5640/ov5640.c ****     CAMERA_IO_Write(DeviceAddr, 0x5584, 0x40);
 831              		.loc 1 591 5 view .LVU187
 832 00d0 A022     		movs	r2, #160
 833 00d2 45F28351 		movw	r1, #21891
 834 00d6 2046     		mov	r0, r4
 835 00d8 FFF7FEFF 		bl	CAMERA_IO_Write
 836              	.LVL114:
 592:Drivers/BSP/Components/ov5640/ov5640.c ****     break;
 837              		.loc 1 592 5 view .LVU188
 838 00dc 4022     		movs	r2, #64
 839 00de 45F28451 		movw	r1, #21892
 840 00e2 2046     		mov	r0, r4
 841 00e4 FFF7FEFF 		bl	CAMERA_IO_Write
 842              	.LVL115:
 593:Drivers/BSP/Components/ov5640/ov5640.c **** 
 843              		.loc 1 593 5 view .LVU189
 844 00e8 E4E7     		b	.L72
 845              	.LVL116:
 846              	.L80:
 596:Drivers/BSP/Components/ov5640/ov5640.c ****     CAMERA_IO_Write(DeviceAddr, 0x5580, 0x18);
ARM GAS  /var/folders/n6/c271nzx11xl4r4_m7sqjlt0m0000gn/T//cc8PHvwW.s 			page 41


 847              		.loc 1 596 5 view .LVU190
 848 00ea C4B2     		uxtb	r4, r0
 849 00ec FF22     		movs	r2, #255
 850 00ee 45F20101 		movw	r1, #20481
 851              	.LVL117:
 596:Drivers/BSP/Components/ov5640/ov5640.c ****     CAMERA_IO_Write(DeviceAddr, 0x5580, 0x18);
 852              		.loc 1 596 5 is_stmt 0 view .LVU191
 853 00f2 2046     		mov	r0, r4
 854              	.LVL118:
 596:Drivers/BSP/Components/ov5640/ov5640.c ****     CAMERA_IO_Write(DeviceAddr, 0x5580, 0x18);
 855              		.loc 1 596 5 view .LVU192
 856 00f4 FFF7FEFF 		bl	CAMERA_IO_Write
 857              	.LVL119:
 597:Drivers/BSP/Components/ov5640/ov5640.c ****     CAMERA_IO_Write(DeviceAddr, 0x5583, 0x80);
 858              		.loc 1 597 5 is_stmt 1 view .LVU193
 859 00f8 1822     		movs	r2, #24
 860 00fa 4FF4AB41 		mov	r1, #21888
 861 00fe 2046     		mov	r0, r4
 862 0100 FFF7FEFF 		bl	CAMERA_IO_Write
 863              	.LVL120:
 598:Drivers/BSP/Components/ov5640/ov5640.c ****     CAMERA_IO_Write(DeviceAddr, 0x5584, 0xC0);
 864              		.loc 1 598 5 view .LVU194
 865 0104 8022     		movs	r2, #128
 866 0106 45F28351 		movw	r1, #21891
 867 010a 2046     		mov	r0, r4
 868 010c FFF7FEFF 		bl	CAMERA_IO_Write
 869              	.LVL121:
 599:Drivers/BSP/Components/ov5640/ov5640.c ****     break;
 870              		.loc 1 599 5 view .LVU195
 871 0110 C022     		movs	r2, #192
 872 0112 45F28451 		movw	r1, #21892
 873 0116 2046     		mov	r0, r4
 874 0118 FFF7FEFF 		bl	CAMERA_IO_Write
 875              	.LVL122:
 600:Drivers/BSP/Components/ov5640/ov5640.c **** 
 876              		.loc 1 600 5 view .LVU196
 877 011c CAE7     		b	.L72
 878              	.LVL123:
 879              	.L79:
 603:Drivers/BSP/Components/ov5640/ov5640.c ****     CAMERA_IO_Write(DeviceAddr, 0x5580, 0x18);
 880              		.loc 1 603 5 view .LVU197
 881 011e C4B2     		uxtb	r4, r0
 882 0120 FF22     		movs	r2, #255
 883 0122 45F20101 		movw	r1, #20481
 884              	.LVL124:
 603:Drivers/BSP/Components/ov5640/ov5640.c ****     CAMERA_IO_Write(DeviceAddr, 0x5580, 0x18);
 885              		.loc 1 603 5 is_stmt 0 view .LVU198
 886 0126 2046     		mov	r0, r4
 887              	.LVL125:
 603:Drivers/BSP/Components/ov5640/ov5640.c ****     CAMERA_IO_Write(DeviceAddr, 0x5580, 0x18);
 888              		.loc 1 603 5 view .LVU199
 889 0128 FFF7FEFF 		bl	CAMERA_IO_Write
 890              	.LVL126:
 604:Drivers/BSP/Components/ov5640/ov5640.c ****     CAMERA_IO_Write(DeviceAddr, 0x5583, 0x60);
 891              		.loc 1 604 5 is_stmt 1 view .LVU200
 892 012c 1822     		movs	r2, #24
 893 012e 4FF4AB41 		mov	r1, #21888
ARM GAS  /var/folders/n6/c271nzx11xl4r4_m7sqjlt0m0000gn/T//cc8PHvwW.s 			page 42


 894 0132 2046     		mov	r0, r4
 895 0134 FFF7FEFF 		bl	CAMERA_IO_Write
 896              	.LVL127:
 605:Drivers/BSP/Components/ov5640/ov5640.c ****     CAMERA_IO_Write(DeviceAddr, 0x5584, 0x60);
 897              		.loc 1 605 5 view .LVU201
 898 0138 6022     		movs	r2, #96
 899 013a 45F28351 		movw	r1, #21891
 900 013e 2046     		mov	r0, r4
 901 0140 FFF7FEFF 		bl	CAMERA_IO_Write
 902              	.LVL128:
 606:Drivers/BSP/Components/ov5640/ov5640.c ****     break;
 903              		.loc 1 606 5 view .LVU202
 904 0144 6022     		movs	r2, #96
 905 0146 45F28451 		movw	r1, #21892
 906 014a 2046     		mov	r0, r4
 907 014c FFF7FEFF 		bl	CAMERA_IO_Write
 908              	.LVL129:
 607:Drivers/BSP/Components/ov5640/ov5640.c **** 
 909              		.loc 1 607 5 view .LVU203
 910 0150 B0E7     		b	.L72
 911              	.LVL130:
 912              	.L78:
 610:Drivers/BSP/Components/ov5640/ov5640.c ****     CAMERA_IO_Write(DeviceAddr, 0x5580, 0x18);
 913              		.loc 1 610 5 view .LVU204
 914 0152 C4B2     		uxtb	r4, r0
 915 0154 FF22     		movs	r2, #255
 916 0156 45F20101 		movw	r1, #20481
 917              	.LVL131:
 610:Drivers/BSP/Components/ov5640/ov5640.c ****     CAMERA_IO_Write(DeviceAddr, 0x5580, 0x18);
 918              		.loc 1 610 5 is_stmt 0 view .LVU205
 919 015a 2046     		mov	r0, r4
 920              	.LVL132:
 610:Drivers/BSP/Components/ov5640/ov5640.c ****     CAMERA_IO_Write(DeviceAddr, 0x5580, 0x18);
 921              		.loc 1 610 5 view .LVU206
 922 015c FFF7FEFF 		bl	CAMERA_IO_Write
 923              	.LVL133:
 611:Drivers/BSP/Components/ov5640/ov5640.c ****     CAMERA_IO_Write(DeviceAddr, 0x5583, 0x80);
 924              		.loc 1 611 5 is_stmt 1 view .LVU207
 925 0160 1822     		movs	r2, #24
 926 0162 4FF4AB41 		mov	r1, #21888
 927 0166 2046     		mov	r0, r4
 928 0168 FFF7FEFF 		bl	CAMERA_IO_Write
 929              	.LVL134:
 612:Drivers/BSP/Components/ov5640/ov5640.c ****     CAMERA_IO_Write(DeviceAddr, 0x5584, 0x80);
 930              		.loc 1 612 5 view .LVU208
 931 016c 8022     		movs	r2, #128
 932 016e 45F28351 		movw	r1, #21891
 933 0172 2046     		mov	r0, r4
 934 0174 FFF7FEFF 		bl	CAMERA_IO_Write
 935              	.LVL135:
 613:Drivers/BSP/Components/ov5640/ov5640.c ****     break;
 936              		.loc 1 613 5 view .LVU209
 937 0178 8022     		movs	r2, #128
 938 017a 45F28451 		movw	r1, #21892
 939 017e 2046     		mov	r0, r4
 940 0180 FFF7FEFF 		bl	CAMERA_IO_Write
 941              	.LVL136:
ARM GAS  /var/folders/n6/c271nzx11xl4r4_m7sqjlt0m0000gn/T//cc8PHvwW.s 			page 43


 614:Drivers/BSP/Components/ov5640/ov5640.c **** 
 942              		.loc 1 614 5 view .LVU210
 943 0184 96E7     		b	.L72
 944              	.LVL137:
 945              	.L77:
 617:Drivers/BSP/Components/ov5640/ov5640.c ****     CAMERA_IO_Write(DeviceAddr, 0x5580, 0x18);
 946              		.loc 1 617 5 view .LVU211
 947 0186 C4B2     		uxtb	r4, r0
 948 0188 FF22     		movs	r2, #255
 949 018a 45F20101 		movw	r1, #20481
 950              	.LVL138:
 617:Drivers/BSP/Components/ov5640/ov5640.c ****     CAMERA_IO_Write(DeviceAddr, 0x5580, 0x18);
 951              		.loc 1 617 5 is_stmt 0 view .LVU212
 952 018e 2046     		mov	r0, r4
 953              	.LVL139:
 617:Drivers/BSP/Components/ov5640/ov5640.c ****     CAMERA_IO_Write(DeviceAddr, 0x5580, 0x18);
 954              		.loc 1 617 5 view .LVU213
 955 0190 FFF7FEFF 		bl	CAMERA_IO_Write
 956              	.LVL140:
 618:Drivers/BSP/Components/ov5640/ov5640.c ****     CAMERA_IO_Write(DeviceAddr, 0x5583, 0x40);
 957              		.loc 1 618 5 is_stmt 1 view .LVU214
 958 0194 1822     		movs	r2, #24
 959 0196 4FF4AB41 		mov	r1, #21888
 960 019a 2046     		mov	r0, r4
 961 019c FFF7FEFF 		bl	CAMERA_IO_Write
 962              	.LVL141:
 619:Drivers/BSP/Components/ov5640/ov5640.c ****     CAMERA_IO_Write(DeviceAddr, 0x5584, 0xA0);
 963              		.loc 1 619 5 view .LVU215
 964 01a0 4022     		movs	r2, #64
 965 01a2 45F28351 		movw	r1, #21891
 966 01a6 2046     		mov	r0, r4
 967 01a8 FFF7FEFF 		bl	CAMERA_IO_Write
 968              	.LVL142:
 620:Drivers/BSP/Components/ov5640/ov5640.c ****     break;
 969              		.loc 1 620 5 view .LVU216
 970 01ac A022     		movs	r2, #160
 971 01ae 45F28451 		movw	r1, #21892
 972 01b2 2046     		mov	r0, r4
 973 01b4 FFF7FEFF 		bl	CAMERA_IO_Write
 974              	.LVL143:
 621:Drivers/BSP/Components/ov5640/ov5640.c **** 
 975              		.loc 1 621 5 view .LVU217
 976 01b8 7CE7     		b	.L72
 977              	.LVL144:
 978              	.L75:
 624:Drivers/BSP/Components/ov5640/ov5640.c ****     CAMERA_IO_Write(DeviceAddr, 0x5580, 0x40);
 979              		.loc 1 624 5 view .LVU218
 980 01ba C4B2     		uxtb	r4, r0
 981 01bc FF22     		movs	r2, #255
 982 01be 45F20101 		movw	r1, #20481
 983              	.LVL145:
 624:Drivers/BSP/Components/ov5640/ov5640.c ****     CAMERA_IO_Write(DeviceAddr, 0x5580, 0x40);
 984              		.loc 1 624 5 is_stmt 0 view .LVU219
 985 01c2 2046     		mov	r0, r4
 986              	.LVL146:
 624:Drivers/BSP/Components/ov5640/ov5640.c ****     CAMERA_IO_Write(DeviceAddr, 0x5580, 0x40);
 987              		.loc 1 624 5 view .LVU220
ARM GAS  /var/folders/n6/c271nzx11xl4r4_m7sqjlt0m0000gn/T//cc8PHvwW.s 			page 44


 988 01c4 FFF7FEFF 		bl	CAMERA_IO_Write
 989              	.LVL147:
 625:Drivers/BSP/Components/ov5640/ov5640.c ****     break;
 990              		.loc 1 625 5 is_stmt 1 view .LVU221
 991 01c8 4022     		movs	r2, #64
 992 01ca 4FF4AB41 		mov	r1, #21888
 993 01ce 2046     		mov	r0, r4
 994 01d0 FFF7FEFF 		bl	CAMERA_IO_Write
 995              	.LVL148:
 626:Drivers/BSP/Components/ov5640/ov5640.c **** 
 996              		.loc 1 626 5 view .LVU222
 997 01d4 6EE7     		b	.L72
 998              	.LVL149:
 999              	.L83:
 636:Drivers/BSP/Components/ov5640/ov5640.c ****     CAMERA_IO_Write(DeviceAddr, 0x5580, 0x18);
 1000              		.loc 1 636 5 view .LVU223
 1001 01d6 C4B2     		uxtb	r4, r0
 1002 01d8 FF22     		movs	r2, #255
 1003 01da 45F20101 		movw	r1, #20481
 1004              	.LVL150:
 636:Drivers/BSP/Components/ov5640/ov5640.c ****     CAMERA_IO_Write(DeviceAddr, 0x5580, 0x18);
 1005              		.loc 1 636 5 is_stmt 0 view .LVU224
 1006 01de 2046     		mov	r0, r4
 1007              	.LVL151:
 636:Drivers/BSP/Components/ov5640/ov5640.c ****     CAMERA_IO_Write(DeviceAddr, 0x5580, 0x18);
 1008              		.loc 1 636 5 view .LVU225
 1009 01e0 FFF7FEFF 		bl	CAMERA_IO_Write
 1010              	.LVL152:
 637:Drivers/BSP/Components/ov5640/ov5640.c ****     CAMERA_IO_Write(DeviceAddr, 0x5583, 0xF0);
 1011              		.loc 1 637 5 is_stmt 1 view .LVU226
 1012 01e4 1822     		movs	r2, #24
 1013 01e6 4FF4AB41 		mov	r1, #21888
 1014 01ea 2046     		mov	r0, r4
 1015 01ec FFF7FEFF 		bl	CAMERA_IO_Write
 1016              	.LVL153:
 638:Drivers/BSP/Components/ov5640/ov5640.c ****     CAMERA_IO_Write(DeviceAddr, 0x5584, 0xF0);
 1017              		.loc 1 638 5 view .LVU227
 1018 01f0 F022     		movs	r2, #240
 1019 01f2 45F28351 		movw	r1, #21891
 1020 01f6 2046     		mov	r0, r4
 1021 01f8 FFF7FEFF 		bl	CAMERA_IO_Write
 1022              	.LVL154:
 639:Drivers/BSP/Components/ov5640/ov5640.c ****     break;
 1023              		.loc 1 639 5 view .LVU228
 1024 01fc F022     		movs	r2, #240
 1025 01fe 45F28451 		movw	r1, #21892
 1026 0202 2046     		mov	r0, r4
 1027 0204 FFF7FEFF 		bl	CAMERA_IO_Write
 1028              	.LVL155:
 640:Drivers/BSP/Components/ov5640/ov5640.c **** 
 1029              		.loc 1 640 5 view .LVU229
 1030 0208 54E7     		b	.L72
 1031              	.LVL156:
 1032              	.L84:
 643:Drivers/BSP/Components/ov5640/ov5640.c ****     CAMERA_IO_Write(DeviceAddr, 0x5580, 0x06);
 1033              		.loc 1 643 5 view .LVU230
 1034 020a C4B2     		uxtb	r4, r0
ARM GAS  /var/folders/n6/c271nzx11xl4r4_m7sqjlt0m0000gn/T//cc8PHvwW.s 			page 45


 1035 020c FF22     		movs	r2, #255
 1036 020e 45F20101 		movw	r1, #20481
 1037              	.LVL157:
 643:Drivers/BSP/Components/ov5640/ov5640.c ****     CAMERA_IO_Write(DeviceAddr, 0x5580, 0x06);
 1038              		.loc 1 643 5 is_stmt 0 view .LVU231
 1039 0212 2046     		mov	r0, r4
 1040              	.LVL158:
 643:Drivers/BSP/Components/ov5640/ov5640.c ****     CAMERA_IO_Write(DeviceAddr, 0x5580, 0x06);
 1041              		.loc 1 643 5 view .LVU232
 1042 0214 FFF7FEFF 		bl	CAMERA_IO_Write
 1043              	.LVL159:
 644:Drivers/BSP/Components/ov5640/ov5640.c ****     CAMERA_IO_Write(DeviceAddr, 0x5583, 0x40);
 1044              		.loc 1 644 5 is_stmt 1 view .LVU233
 1045 0218 0622     		movs	r2, #6
 1046 021a 4FF4AB41 		mov	r1, #21888
 1047 021e 2046     		mov	r0, r4
 1048 0220 FFF7FEFF 		bl	CAMERA_IO_Write
 1049              	.LVL160:
 645:Drivers/BSP/Components/ov5640/ov5640.c ****     CAMERA_IO_Write(DeviceAddr, 0x5584, 0x10);
 1050              		.loc 1 645 5 view .LVU234
 1051 0224 4022     		movs	r2, #64
 1052 0226 45F28351 		movw	r1, #21891
 1053 022a 2046     		mov	r0, r4
 1054 022c FFF7FEFF 		bl	CAMERA_IO_Write
 1055              	.LVL161:
 646:Drivers/BSP/Components/ov5640/ov5640.c ****     CAMERA_IO_Write(DeviceAddr, 0x5003, 0x09);
 1056              		.loc 1 646 5 view .LVU235
 1057 0230 1022     		movs	r2, #16
 1058 0232 45F28451 		movw	r1, #21892
 1059 0236 2046     		mov	r0, r4
 1060 0238 FFF7FEFF 		bl	CAMERA_IO_Write
 1061              	.LVL162:
 647:Drivers/BSP/Components/ov5640/ov5640.c ****     break;
 1062              		.loc 1 647 5 view .LVU236
 1063 023c 0922     		movs	r2, #9
 1064 023e 45F20301 		movw	r1, #20483
 1065 0242 2046     		mov	r0, r4
 1066 0244 FFF7FEFF 		bl	CAMERA_IO_Write
 1067              	.LVL163:
 648:Drivers/BSP/Components/ov5640/ov5640.c **** 
 1068              		.loc 1 648 5 view .LVU237
 1069 0248 34E7     		b	.L72
 1070              	.LVL164:
 1071              	.L74:
 652:Drivers/BSP/Components/ov5640/ov5640.c ****     CAMERA_IO_Write(DeviceAddr, 0x5580, 0x00);
 1072              		.loc 1 652 5 view .LVU238
 1073 024a C4B2     		uxtb	r4, r0
 1074 024c 7F22     		movs	r2, #127
 1075 024e 45F20101 		movw	r1, #20481
 1076              	.LVL165:
 652:Drivers/BSP/Components/ov5640/ov5640.c ****     CAMERA_IO_Write(DeviceAddr, 0x5580, 0x00);
 1077              		.loc 1 652 5 is_stmt 0 view .LVU239
 1078 0252 2046     		mov	r0, r4
 1079              	.LVL166:
 652:Drivers/BSP/Components/ov5640/ov5640.c ****     CAMERA_IO_Write(DeviceAddr, 0x5580, 0x00);
 1080              		.loc 1 652 5 view .LVU240
 1081 0254 FFF7FEFF 		bl	CAMERA_IO_Write
ARM GAS  /var/folders/n6/c271nzx11xl4r4_m7sqjlt0m0000gn/T//cc8PHvwW.s 			page 46


 1082              	.LVL167:
 653:Drivers/BSP/Components/ov5640/ov5640.c ****     break;
 1083              		.loc 1 653 5 is_stmt 1 view .LVU241
 1084 0258 0022     		movs	r2, #0
 1085 025a 4FF4AB41 		mov	r1, #21888
 1086 025e 2046     		mov	r0, r4
 1087 0260 FFF7FEFF 		bl	CAMERA_IO_Write
 1088              	.LVL168:
 654:Drivers/BSP/Components/ov5640/ov5640.c ****   }
 1089              		.loc 1 654 5 view .LVU242
 656:Drivers/BSP/Components/ov5640/ov5640.c **** 
 1090              		.loc 1 656 1 is_stmt 0 view .LVU243
 1091 0264 26E7     		b	.L72
 1092              		.cfi_endproc
 1093              	.LFE2:
 1095              		.section	.text.OV5640_SetBrightness,"ax",%progbits
 1096              		.align	1
 1097              		.global	OV5640_SetBrightness
 1098              		.syntax unified
 1099              		.thumb
 1100              		.thumb_func
 1102              	OV5640_SetBrightness:
 1103              	.LVL169:
 1104              	.LFB3:
 668:Drivers/BSP/Components/ov5640/ov5640.c ****   CAMERA_IO_Write(DeviceAddr, 0x5001, 0xFF);
 1105              		.loc 1 668 1 is_stmt 1 view -0
 1106              		.cfi_startproc
 1107              		@ args = 0, pretend = 0, frame = 0
 1108              		@ frame_needed = 0, uses_anonymous_args = 0
 668:Drivers/BSP/Components/ov5640/ov5640.c ****   CAMERA_IO_Write(DeviceAddr, 0x5001, 0xFF);
 1109              		.loc 1 668 1 is_stmt 0 view .LVU245
 1110 0000 38B5     		push	{r3, r4, r5, lr}
 1111              		.cfi_def_cfa_offset 16
 1112              		.cfi_offset 3, -16
 1113              		.cfi_offset 4, -12
 1114              		.cfi_offset 5, -8
 1115              		.cfi_offset 14, -4
 1116 0002 0D46     		mov	r5, r1
 669:Drivers/BSP/Components/ov5640/ov5640.c **** 
 1117              		.loc 1 669 3 is_stmt 1 view .LVU246
 1118 0004 C4B2     		uxtb	r4, r0
 1119 0006 FF22     		movs	r2, #255
 1120 0008 45F20101 		movw	r1, #20481
 1121              	.LVL170:
 669:Drivers/BSP/Components/ov5640/ov5640.c **** 
 1122              		.loc 1 669 3 is_stmt 0 view .LVU247
 1123 000c 2046     		mov	r0, r4
 1124              	.LVL171:
 669:Drivers/BSP/Components/ov5640/ov5640.c **** 
 1125              		.loc 1 669 3 view .LVU248
 1126 000e FFF7FEFF 		bl	CAMERA_IO_Write
 1127              	.LVL172:
 671:Drivers/BSP/Components/ov5640/ov5640.c ****   {
 1128              		.loc 1 671 3 is_stmt 1 view .LVU249
 1129 0012 202D     		cmp	r5, #32
 1130 0014 14D8     		bhi	.L90
 1131 0016 202D     		cmp	r5, #32
ARM GAS  /var/folders/n6/c271nzx11xl4r4_m7sqjlt0m0000gn/T//cc8PHvwW.s 			page 47


 1132 0018 63D8     		bhi	.L91
 1133 001a DFE805F0 		tbb	[pc, r5]
 1134              	.L93:
 1135 001e 1C       		.byte	(.L99-.L93)/2
 1136 001f 31       		.byte	(.L98-.L93)/2
 1137 0020 38       		.byte	(.L97-.L93)/2
 1138 0021 62       		.byte	(.L91-.L93)/2
 1139 0022 3F       		.byte	(.L96-.L93)/2
 1140 0023 62       		.byte	(.L91-.L93)/2
 1141 0024 62       		.byte	(.L91-.L93)/2
 1142 0025 62       		.byte	(.L91-.L93)/2
 1143 0026 46       		.byte	(.L95-.L93)/2
 1144 0027 62       		.byte	(.L91-.L93)/2
 1145 0028 62       		.byte	(.L91-.L93)/2
 1146 0029 62       		.byte	(.L91-.L93)/2
 1147 002a 62       		.byte	(.L91-.L93)/2
 1148 002b 62       		.byte	(.L91-.L93)/2
 1149 002c 62       		.byte	(.L91-.L93)/2
 1150 002d 62       		.byte	(.L91-.L93)/2
 1151 002e 4D       		.byte	(.L94-.L93)/2
 1152 002f 62       		.byte	(.L91-.L93)/2
 1153 0030 62       		.byte	(.L91-.L93)/2
 1154 0031 62       		.byte	(.L91-.L93)/2
 1155 0032 62       		.byte	(.L91-.L93)/2
 1156 0033 62       		.byte	(.L91-.L93)/2
 1157 0034 62       		.byte	(.L91-.L93)/2
 1158 0035 62       		.byte	(.L91-.L93)/2
 1159 0036 62       		.byte	(.L91-.L93)/2
 1160 0037 62       		.byte	(.L91-.L93)/2
 1161 0038 62       		.byte	(.L91-.L93)/2
 1162 0039 62       		.byte	(.L91-.L93)/2
 1163 003a 62       		.byte	(.L91-.L93)/2
 1164 003b 62       		.byte	(.L91-.L93)/2
 1165 003c 62       		.byte	(.L91-.L93)/2
 1166 003d 62       		.byte	(.L91-.L93)/2
 1167 003e 54       		.byte	(.L92-.L93)/2
 1168 003f 00       		.p2align 1
 1169              	.L90:
 1170 0040 402D     		cmp	r5, #64
 1171 0042 47D0     		beq	.L100
 1172 0044 802D     		cmp	r5, #128
 1173 0046 4CD1     		bne	.L91
 706:Drivers/BSP/Components/ov5640/ov5640.c ****     break;
 1174              		.loc 1 706 5 view .LVU250
 1175 0048 4022     		movs	r2, #64
 1176 004a 45F28751 		movw	r1, #21895
 1177 004e 2046     		mov	r0, r4
 1178 0050 FFF7FEFF 		bl	CAMERA_IO_Write
 1179              	.LVL173:
 707:Drivers/BSP/Components/ov5640/ov5640.c **** 
 1180              		.loc 1 707 5 view .LVU251
 1181 0054 05E0     		b	.L102
 1182              	.L99:
 674:Drivers/BSP/Components/ov5640/ov5640.c ****     break;
 1183              		.loc 1 674 5 view .LVU252
 1184 0056 4022     		movs	r2, #64
 1185 0058 45F28751 		movw	r1, #21895
ARM GAS  /var/folders/n6/c271nzx11xl4r4_m7sqjlt0m0000gn/T//cc8PHvwW.s 			page 48


 1186 005c 2046     		mov	r0, r4
 1187 005e FFF7FEFF 		bl	CAMERA_IO_Write
 1188              	.LVL174:
 675:Drivers/BSP/Components/ov5640/ov5640.c **** 
 1189              		.loc 1 675 5 view .LVU253
 1190              	.L102:
 716:Drivers/BSP/Components/ov5640/ov5640.c **** 
 1191              		.loc 1 716 3 view .LVU254
 1192 0062 0422     		movs	r2, #4
 1193 0064 4FF4AB41 		mov	r1, #21888
 1194 0068 2046     		mov	r0, r4
 1195 006a FFF7FEFF 		bl	CAMERA_IO_Write
 1196              	.LVL175:
 718:Drivers/BSP/Components/ov5640/ov5640.c ****   {
 1197              		.loc 1 718 3 view .LVU255
 718:Drivers/BSP/Components/ov5640/ov5640.c ****   {
 1198              		.loc 1 718 5 is_stmt 0 view .LVU256
 1199 006e 0F2D     		cmp	r5, #15
 1200 0070 3FD8     		bhi	.L103
 720:Drivers/BSP/Components/ov5640/ov5640.c ****   }
 1201              		.loc 1 720 5 is_stmt 1 view .LVU257
 1202 0072 0122     		movs	r2, #1
 1203 0074 45F28851 		movw	r1, #21896
 1204 0078 2046     		mov	r0, r4
 1205 007a FFF7FEFF 		bl	CAMERA_IO_Write
 1206              	.LVL176:
 1207              	.L89:
 726:Drivers/BSP/Components/ov5640/ov5640.c **** 
 1208              		.loc 1 726 1 is_stmt 0 view .LVU258
 1209 007e 38BD     		pop	{r3, r4, r5, pc}
 1210              	.LVL177:
 1211              	.L98:
 678:Drivers/BSP/Components/ov5640/ov5640.c ****     break;
 1212              		.loc 1 678 5 is_stmt 1 view .LVU259
 1213 0080 3022     		movs	r2, #48
 1214 0082 45F28751 		movw	r1, #21895
 1215 0086 2046     		mov	r0, r4
 1216 0088 FFF7FEFF 		bl	CAMERA_IO_Write
 1217              	.LVL178:
 679:Drivers/BSP/Components/ov5640/ov5640.c **** 
 1218              		.loc 1 679 5 view .LVU260
 1219 008c E9E7     		b	.L102
 1220              	.L97:
 682:Drivers/BSP/Components/ov5640/ov5640.c ****     break;
 1221              		.loc 1 682 5 view .LVU261
 1222 008e 2022     		movs	r2, #32
 1223 0090 45F28751 		movw	r1, #21895
 1224 0094 2046     		mov	r0, r4
 1225 0096 FFF7FEFF 		bl	CAMERA_IO_Write
 1226              	.LVL179:
 683:Drivers/BSP/Components/ov5640/ov5640.c **** 
 1227              		.loc 1 683 5 view .LVU262
 1228 009a E2E7     		b	.L102
 1229              	.L96:
 686:Drivers/BSP/Components/ov5640/ov5640.c ****     break;
 1230              		.loc 1 686 5 view .LVU263
 1231 009c 1022     		movs	r2, #16
ARM GAS  /var/folders/n6/c271nzx11xl4r4_m7sqjlt0m0000gn/T//cc8PHvwW.s 			page 49


 1232 009e 45F28751 		movw	r1, #21895
 1233 00a2 2046     		mov	r0, r4
 1234 00a4 FFF7FEFF 		bl	CAMERA_IO_Write
 1235              	.LVL180:
 687:Drivers/BSP/Components/ov5640/ov5640.c **** 
 1236              		.loc 1 687 5 view .LVU264
 1237 00a8 DBE7     		b	.L102
 1238              	.L95:
 690:Drivers/BSP/Components/ov5640/ov5640.c ****     break;
 1239              		.loc 1 690 5 view .LVU265
 1240 00aa 0022     		movs	r2, #0
 1241 00ac 45F28751 		movw	r1, #21895
 1242 00b0 2046     		mov	r0, r4
 1243 00b2 FFF7FEFF 		bl	CAMERA_IO_Write
 1244              	.LVL181:
 691:Drivers/BSP/Components/ov5640/ov5640.c **** 
 1245              		.loc 1 691 5 view .LVU266
 1246 00b6 D4E7     		b	.L102
 1247              	.L94:
 694:Drivers/BSP/Components/ov5640/ov5640.c ****     break;
 1248              		.loc 1 694 5 view .LVU267
 1249 00b8 1022     		movs	r2, #16
 1250 00ba 45F28751 		movw	r1, #21895
 1251 00be 2046     		mov	r0, r4
 1252 00c0 FFF7FEFF 		bl	CAMERA_IO_Write
 1253              	.LVL182:
 695:Drivers/BSP/Components/ov5640/ov5640.c **** 
 1254              		.loc 1 695 5 view .LVU268
 1255 00c4 CDE7     		b	.L102
 1256              	.L92:
 698:Drivers/BSP/Components/ov5640/ov5640.c ****     break;
 1257              		.loc 1 698 5 view .LVU269
 1258 00c6 2022     		movs	r2, #32
 1259 00c8 45F28751 		movw	r1, #21895
 1260 00cc 2046     		mov	r0, r4
 1261 00ce FFF7FEFF 		bl	CAMERA_IO_Write
 1262              	.LVL183:
 699:Drivers/BSP/Components/ov5640/ov5640.c **** 
 1263              		.loc 1 699 5 view .LVU270
 1264 00d2 C6E7     		b	.L102
 1265              	.L100:
 702:Drivers/BSP/Components/ov5640/ov5640.c ****     break;
 1266              		.loc 1 702 5 view .LVU271
 1267 00d4 3022     		movs	r2, #48
 1268 00d6 45F28751 		movw	r1, #21895
 1269 00da 2046     		mov	r0, r4
 1270 00dc FFF7FEFF 		bl	CAMERA_IO_Write
 1271              	.LVL184:
 703:Drivers/BSP/Components/ov5640/ov5640.c **** 
 1272              		.loc 1 703 5 view .LVU272
 1273 00e0 BFE7     		b	.L102
 1274              	.L91:
 711:Drivers/BSP/Components/ov5640/ov5640.c ****     CAMERA_IO_Write(DeviceAddr, 0x5587, 0x00);
 1275              		.loc 1 711 5 view .LVU273
 1276              	.LVL185:
 712:Drivers/BSP/Components/ov5640/ov5640.c ****     break;
 1277              		.loc 1 712 5 view .LVU274
ARM GAS  /var/folders/n6/c271nzx11xl4r4_m7sqjlt0m0000gn/T//cc8PHvwW.s 			page 50


 1278 00e2 0022     		movs	r2, #0
 1279 00e4 45F28751 		movw	r1, #21895
 1280 00e8 2046     		mov	r0, r4
 1281 00ea FFF7FEFF 		bl	CAMERA_IO_Write
 1282              	.LVL186:
 713:Drivers/BSP/Components/ov5640/ov5640.c ****   }
 1283              		.loc 1 713 5 view .LVU275
 711:Drivers/BSP/Components/ov5640/ov5640.c ****     CAMERA_IO_Write(DeviceAddr, 0x5587, 0x00);
 1284              		.loc 1 711 11 is_stmt 0 view .LVU276
 1285 00ee 0825     		movs	r5, #8
 713:Drivers/BSP/Components/ov5640/ov5640.c ****   }
 1286              		.loc 1 713 5 view .LVU277
 1287 00f0 B7E7     		b	.L102
 1288              	.LVL187:
 1289              	.L103:
 724:Drivers/BSP/Components/ov5640/ov5640.c ****   }
 1290              		.loc 1 724 5 is_stmt 1 view .LVU278
 1291 00f2 0922     		movs	r2, #9
 1292 00f4 45F28851 		movw	r1, #21896
 1293 00f8 2046     		mov	r0, r4
 1294 00fa FFF7FEFF 		bl	CAMERA_IO_Write
 1295              	.LVL188:
 726:Drivers/BSP/Components/ov5640/ov5640.c **** 
 1296              		.loc 1 726 1 is_stmt 0 view .LVU279
 1297 00fe BEE7     		b	.L89
 1298              		.cfi_endproc
 1299              	.LFE3:
 1301              		.section	.text.OV5640_SetSaturation,"ax",%progbits
 1302              		.align	1
 1303              		.global	OV5640_SetSaturation
 1304              		.syntax unified
 1305              		.thumb
 1306              		.thumb_func
 1308              	OV5640_SetSaturation:
 1309              	.LVL189:
 1310              	.LFB4:
 738:Drivers/BSP/Components/ov5640/ov5640.c ****   CAMERA_IO_Write(DeviceAddr, 0x5001, 0xFF);
 1311              		.loc 1 738 1 is_stmt 1 view -0
 1312              		.cfi_startproc
 1313              		@ args = 0, pretend = 0, frame = 0
 1314              		@ frame_needed = 0, uses_anonymous_args = 0
 738:Drivers/BSP/Components/ov5640/ov5640.c ****   CAMERA_IO_Write(DeviceAddr, 0x5001, 0xFF);
 1315              		.loc 1 738 1 is_stmt 0 view .LVU281
 1316 0000 38B5     		push	{r3, r4, r5, lr}
 1317              		.cfi_def_cfa_offset 16
 1318              		.cfi_offset 3, -16
 1319              		.cfi_offset 4, -12
 1320              		.cfi_offset 5, -8
 1321              		.cfi_offset 14, -4
 1322 0002 0D46     		mov	r5, r1
 739:Drivers/BSP/Components/ov5640/ov5640.c **** 
 1323              		.loc 1 739 3 is_stmt 1 view .LVU282
 1324 0004 C4B2     		uxtb	r4, r0
 1325 0006 FF22     		movs	r2, #255
 1326 0008 45F20101 		movw	r1, #20481
 1327              	.LVL190:
 739:Drivers/BSP/Components/ov5640/ov5640.c **** 
ARM GAS  /var/folders/n6/c271nzx11xl4r4_m7sqjlt0m0000gn/T//cc8PHvwW.s 			page 51


 1328              		.loc 1 739 3 is_stmt 0 view .LVU283
 1329 000c 2046     		mov	r0, r4
 1330              	.LVL191:
 739:Drivers/BSP/Components/ov5640/ov5640.c **** 
 1331              		.loc 1 739 3 view .LVU284
 1332 000e FFF7FEFF 		bl	CAMERA_IO_Write
 1333              	.LVL192:
 741:Drivers/BSP/Components/ov5640/ov5640.c ****   {
 1334              		.loc 1 741 3 is_stmt 1 view .LVU285
 1335 0012 202D     		cmp	r5, #32
 1336 0014 15D8     		bhi	.L108
 1337 0016 202D     		cmp	r5, #32
 1338 0018 00F29980 		bhi	.L109
 1339 001c DFE805F0 		tbb	[pc, r5]
 1340              	.L111:
 1341 0020 23       		.byte	(.L117-.L111)/2
 1342 0021 3C       		.byte	(.L116-.L111)/2
 1343 0022 49       		.byte	(.L115-.L111)/2
 1344 0023 97       		.byte	(.L109-.L111)/2
 1345 0024 56       		.byte	(.L114-.L111)/2
 1346 0025 97       		.byte	(.L109-.L111)/2
 1347 0026 97       		.byte	(.L109-.L111)/2
 1348 0027 97       		.byte	(.L109-.L111)/2
 1349 0028 63       		.byte	(.L113-.L111)/2
 1350 0029 97       		.byte	(.L109-.L111)/2
 1351 002a 97       		.byte	(.L109-.L111)/2
 1352 002b 97       		.byte	(.L109-.L111)/2
 1353 002c 97       		.byte	(.L109-.L111)/2
 1354 002d 97       		.byte	(.L109-.L111)/2
 1355 002e 97       		.byte	(.L109-.L111)/2
 1356 002f 97       		.byte	(.L109-.L111)/2
 1357 0030 70       		.byte	(.L112-.L111)/2
 1358 0031 97       		.byte	(.L109-.L111)/2
 1359 0032 97       		.byte	(.L109-.L111)/2
 1360 0033 97       		.byte	(.L109-.L111)/2
 1361 0034 97       		.byte	(.L109-.L111)/2
 1362 0035 97       		.byte	(.L109-.L111)/2
 1363 0036 97       		.byte	(.L109-.L111)/2
 1364 0037 97       		.byte	(.L109-.L111)/2
 1365 0038 97       		.byte	(.L109-.L111)/2
 1366 0039 97       		.byte	(.L109-.L111)/2
 1367 003a 97       		.byte	(.L109-.L111)/2
 1368 003b 97       		.byte	(.L109-.L111)/2
 1369 003c 97       		.byte	(.L109-.L111)/2
 1370 003d 97       		.byte	(.L109-.L111)/2
 1371 003e 97       		.byte	(.L109-.L111)/2
 1372 003f 97       		.byte	(.L109-.L111)/2
 1373 0040 7D       		.byte	(.L110-.L111)/2
 1374 0041 00       		.p2align 1
 1375              	.L108:
 1376 0042 402D     		cmp	r5, #64
 1377 0044 76D0     		beq	.L118
 1378 0046 802D     		cmp	r5, #128
 1379 0048 40F08180 		bne	.L109
 784:Drivers/BSP/Components/ov5640/ov5640.c ****     CAMERA_IO_Write(DeviceAddr, 0x5584, 0x00);
 1380              		.loc 1 784 5 view .LVU286
 1381 004c 0022     		movs	r2, #0
ARM GAS  /var/folders/n6/c271nzx11xl4r4_m7sqjlt0m0000gn/T//cc8PHvwW.s 			page 52


 1382 004e 45F28351 		movw	r1, #21891
 1383 0052 2046     		mov	r0, r4
 1384 0054 FFF7FEFF 		bl	CAMERA_IO_Write
 1385              	.LVL193:
 785:Drivers/BSP/Components/ov5640/ov5640.c ****     break;
 1386              		.loc 1 785 5 view .LVU287
 1387 0058 0022     		movs	r2, #0
 1388 005a 45F28451 		movw	r1, #21892
 1389 005e 2046     		mov	r0, r4
 1390 0060 FFF7FEFF 		bl	CAMERA_IO_Write
 1391              	.LVL194:
 786:Drivers/BSP/Components/ov5640/ov5640.c **** 
 1392              		.loc 1 786 5 view .LVU288
 1393 0064 0BE0     		b	.L120
 1394              	.L117:
 744:Drivers/BSP/Components/ov5640/ov5640.c ****     CAMERA_IO_Write(DeviceAddr, 0x5584, 0x40);
 1395              		.loc 1 744 5 view .LVU289
 1396 0066 4022     		movs	r2, #64
 1397 0068 45F28351 		movw	r1, #21891
 1398 006c 2046     		mov	r0, r4
 1399 006e FFF7FEFF 		bl	CAMERA_IO_Write
 1400              	.LVL195:
 745:Drivers/BSP/Components/ov5640/ov5640.c ****     break;
 1401              		.loc 1 745 5 view .LVU290
 1402 0072 4022     		movs	r2, #64
 1403 0074 45F28451 		movw	r1, #21892
 1404 0078 2046     		mov	r0, r4
 1405 007a FFF7FEFF 		bl	CAMERA_IO_Write
 1406              	.LVL196:
 746:Drivers/BSP/Components/ov5640/ov5640.c **** 
 1407              		.loc 1 746 5 view .LVU291
 1408              	.L120:
 795:Drivers/BSP/Components/ov5640/ov5640.c ****   CAMERA_IO_Write(DeviceAddr, 0x5588, 0x41);
 1409              		.loc 1 795 3 view .LVU292
 1410 007e 0222     		movs	r2, #2
 1411 0080 4FF4AB41 		mov	r1, #21888
 1412 0084 2046     		mov	r0, r4
 1413 0086 FFF7FEFF 		bl	CAMERA_IO_Write
 1414              	.LVL197:
 796:Drivers/BSP/Components/ov5640/ov5640.c **** }
 1415              		.loc 1 796 3 view .LVU293
 1416 008a 4122     		movs	r2, #65
 1417 008c 45F28851 		movw	r1, #21896
 1418 0090 2046     		mov	r0, r4
 1419 0092 FFF7FEFF 		bl	CAMERA_IO_Write
 1420              	.LVL198:
 797:Drivers/BSP/Components/ov5640/ov5640.c **** 
 1421              		.loc 1 797 1 is_stmt 0 view .LVU294
 1422 0096 38BD     		pop	{r3, r4, r5, pc}
 1423              	.LVL199:
 1424              	.L116:
 749:Drivers/BSP/Components/ov5640/ov5640.c ****     CAMERA_IO_Write(DeviceAddr, 0x5584, 0x50);
 1425              		.loc 1 749 5 is_stmt 1 view .LVU295
 1426 0098 5022     		movs	r2, #80
 1427 009a 45F28351 		movw	r1, #21891
 1428 009e 2046     		mov	r0, r4
 1429 00a0 FFF7FEFF 		bl	CAMERA_IO_Write
ARM GAS  /var/folders/n6/c271nzx11xl4r4_m7sqjlt0m0000gn/T//cc8PHvwW.s 			page 53


 1430              	.LVL200:
 750:Drivers/BSP/Components/ov5640/ov5640.c ****     break;
 1431              		.loc 1 750 5 view .LVU296
 1432 00a4 5022     		movs	r2, #80
 1433 00a6 45F28451 		movw	r1, #21892
 1434 00aa 2046     		mov	r0, r4
 1435 00ac FFF7FEFF 		bl	CAMERA_IO_Write
 1436              	.LVL201:
 751:Drivers/BSP/Components/ov5640/ov5640.c **** 
 1437              		.loc 1 751 5 view .LVU297
 1438 00b0 E5E7     		b	.L120
 1439              	.L115:
 754:Drivers/BSP/Components/ov5640/ov5640.c ****     CAMERA_IO_Write(DeviceAddr, 0x5584, 0x60);
 1440              		.loc 1 754 5 view .LVU298
 1441 00b2 6022     		movs	r2, #96
 1442 00b4 45F28351 		movw	r1, #21891
 1443 00b8 2046     		mov	r0, r4
 1444 00ba FFF7FEFF 		bl	CAMERA_IO_Write
 1445              	.LVL202:
 755:Drivers/BSP/Components/ov5640/ov5640.c ****     break;
 1446              		.loc 1 755 5 view .LVU299
 1447 00be 6022     		movs	r2, #96
 1448 00c0 45F28451 		movw	r1, #21892
 1449 00c4 2046     		mov	r0, r4
 1450 00c6 FFF7FEFF 		bl	CAMERA_IO_Write
 1451              	.LVL203:
 756:Drivers/BSP/Components/ov5640/ov5640.c **** 
 1452              		.loc 1 756 5 view .LVU300
 1453 00ca D8E7     		b	.L120
 1454              	.L114:
 759:Drivers/BSP/Components/ov5640/ov5640.c ****     CAMERA_IO_Write(DeviceAddr, 0x5584, 0x70);
 1455              		.loc 1 759 5 view .LVU301
 1456 00cc 7022     		movs	r2, #112
 1457 00ce 45F28351 		movw	r1, #21891
 1458 00d2 2046     		mov	r0, r4
 1459 00d4 FFF7FEFF 		bl	CAMERA_IO_Write
 1460              	.LVL204:
 760:Drivers/BSP/Components/ov5640/ov5640.c ****     break;
 1461              		.loc 1 760 5 view .LVU302
 1462 00d8 7022     		movs	r2, #112
 1463 00da 45F28451 		movw	r1, #21892
 1464 00de 2046     		mov	r0, r4
 1465 00e0 FFF7FEFF 		bl	CAMERA_IO_Write
 1466              	.LVL205:
 761:Drivers/BSP/Components/ov5640/ov5640.c **** 
 1467              		.loc 1 761 5 view .LVU303
 1468 00e4 CBE7     		b	.L120
 1469              	.L113:
 764:Drivers/BSP/Components/ov5640/ov5640.c ****     CAMERA_IO_Write(DeviceAddr, 0x5584, 0x80);
 1470              		.loc 1 764 5 view .LVU304
 1471 00e6 8022     		movs	r2, #128
 1472 00e8 45F28351 		movw	r1, #21891
 1473 00ec 2046     		mov	r0, r4
 1474 00ee FFF7FEFF 		bl	CAMERA_IO_Write
 1475              	.LVL206:
 765:Drivers/BSP/Components/ov5640/ov5640.c ****     break;
 1476              		.loc 1 765 5 view .LVU305
ARM GAS  /var/folders/n6/c271nzx11xl4r4_m7sqjlt0m0000gn/T//cc8PHvwW.s 			page 54


 1477 00f2 8022     		movs	r2, #128
 1478 00f4 45F28451 		movw	r1, #21892
 1479 00f8 2046     		mov	r0, r4
 1480 00fa FFF7FEFF 		bl	CAMERA_IO_Write
 1481              	.LVL207:
 766:Drivers/BSP/Components/ov5640/ov5640.c **** 
 1482              		.loc 1 766 5 view .LVU306
 1483 00fe BEE7     		b	.L120
 1484              	.L112:
 769:Drivers/BSP/Components/ov5640/ov5640.c ****     CAMERA_IO_Write(DeviceAddr, 0x5584, 0x30);
 1485              		.loc 1 769 5 view .LVU307
 1486 0100 3022     		movs	r2, #48
 1487 0102 45F28351 		movw	r1, #21891
 1488 0106 2046     		mov	r0, r4
 1489 0108 FFF7FEFF 		bl	CAMERA_IO_Write
 1490              	.LVL208:
 770:Drivers/BSP/Components/ov5640/ov5640.c ****     break;
 1491              		.loc 1 770 5 view .LVU308
 1492 010c 3022     		movs	r2, #48
 1493 010e 45F28451 		movw	r1, #21892
 1494 0112 2046     		mov	r0, r4
 1495 0114 FFF7FEFF 		bl	CAMERA_IO_Write
 1496              	.LVL209:
 771:Drivers/BSP/Components/ov5640/ov5640.c **** 
 1497              		.loc 1 771 5 view .LVU309
 1498 0118 B1E7     		b	.L120
 1499              	.L110:
 774:Drivers/BSP/Components/ov5640/ov5640.c ****     CAMERA_IO_Write(DeviceAddr, 0x5584, 0x20);
 1500              		.loc 1 774 5 view .LVU310
 1501 011a 2022     		movs	r2, #32
 1502 011c 45F28351 		movw	r1, #21891
 1503 0120 2046     		mov	r0, r4
 1504 0122 FFF7FEFF 		bl	CAMERA_IO_Write
 1505              	.LVL210:
 775:Drivers/BSP/Components/ov5640/ov5640.c ****     break;
 1506              		.loc 1 775 5 view .LVU311
 1507 0126 2022     		movs	r2, #32
 1508 0128 45F28451 		movw	r1, #21892
 1509 012c 2046     		mov	r0, r4
 1510 012e FFF7FEFF 		bl	CAMERA_IO_Write
 1511              	.LVL211:
 776:Drivers/BSP/Components/ov5640/ov5640.c **** 
 1512              		.loc 1 776 5 view .LVU312
 1513 0132 A4E7     		b	.L120
 1514              	.L118:
 779:Drivers/BSP/Components/ov5640/ov5640.c ****     CAMERA_IO_Write(DeviceAddr, 0x5584, 0x10);
 1515              		.loc 1 779 5 view .LVU313
 1516 0134 1022     		movs	r2, #16
 1517 0136 45F28351 		movw	r1, #21891
 1518 013a 2046     		mov	r0, r4
 1519 013c FFF7FEFF 		bl	CAMERA_IO_Write
 1520              	.LVL212:
 780:Drivers/BSP/Components/ov5640/ov5640.c ****     break;
 1521              		.loc 1 780 5 view .LVU314
 1522 0140 1022     		movs	r2, #16
 1523 0142 45F28451 		movw	r1, #21892
 1524 0146 2046     		mov	r0, r4
ARM GAS  /var/folders/n6/c271nzx11xl4r4_m7sqjlt0m0000gn/T//cc8PHvwW.s 			page 55


 1525 0148 FFF7FEFF 		bl	CAMERA_IO_Write
 1526              	.LVL213:
 781:Drivers/BSP/Components/ov5640/ov5640.c **** 
 1527              		.loc 1 781 5 view .LVU315
 1528 014c 97E7     		b	.L120
 1529              	.L109:
 790:Drivers/BSP/Components/ov5640/ov5640.c ****     CAMERA_IO_Write(DeviceAddr, 0x5584, 0x40);
 1530              		.loc 1 790 5 view .LVU316
 1531 014e 4022     		movs	r2, #64
 1532 0150 45F28351 		movw	r1, #21891
 1533 0154 2046     		mov	r0, r4
 1534 0156 FFF7FEFF 		bl	CAMERA_IO_Write
 1535              	.LVL214:
 791:Drivers/BSP/Components/ov5640/ov5640.c ****     break;
 1536              		.loc 1 791 5 view .LVU317
 1537 015a 4022     		movs	r2, #64
 1538 015c 45F28451 		movw	r1, #21892
 1539 0160 2046     		mov	r0, r4
 1540 0162 FFF7FEFF 		bl	CAMERA_IO_Write
 1541              	.LVL215:
 792:Drivers/BSP/Components/ov5640/ov5640.c ****   }
 1542              		.loc 1 792 5 view .LVU318
 1543 0166 8AE7     		b	.L120
 1544              		.cfi_endproc
 1545              	.LFE4:
 1547              		.section	.text.OV5640_SetContrast,"ax",%progbits
 1548              		.align	1
 1549              		.global	OV5640_SetContrast
 1550              		.syntax unified
 1551              		.thumb
 1552              		.thumb_func
 1554              	OV5640_SetContrast:
 1555              	.LVL216:
 1556              	.LFB5:
 808:Drivers/BSP/Components/ov5640/ov5640.c ****   CAMERA_IO_Write(DeviceAddr, 0x5001, 0xFF);
 1557              		.loc 1 808 1 view -0
 1558              		.cfi_startproc
 1559              		@ args = 0, pretend = 0, frame = 0
 1560              		@ frame_needed = 0, uses_anonymous_args = 0
 808:Drivers/BSP/Components/ov5640/ov5640.c ****   CAMERA_IO_Write(DeviceAddr, 0x5001, 0xFF);
 1561              		.loc 1 808 1 is_stmt 0 view .LVU320
 1562 0000 38B5     		push	{r3, r4, r5, lr}
 1563              		.cfi_def_cfa_offset 16
 1564              		.cfi_offset 3, -16
 1565              		.cfi_offset 4, -12
 1566              		.cfi_offset 5, -8
 1567              		.cfi_offset 14, -4
 1568 0002 0D46     		mov	r5, r1
 809:Drivers/BSP/Components/ov5640/ov5640.c ****   CAMERA_IO_Write(DeviceAddr, 0x5580, 0x04);
 1569              		.loc 1 809 3 is_stmt 1 view .LVU321
 1570 0004 C4B2     		uxtb	r4, r0
 1571 0006 FF22     		movs	r2, #255
 1572 0008 45F20101 		movw	r1, #20481
 1573              	.LVL217:
 809:Drivers/BSP/Components/ov5640/ov5640.c ****   CAMERA_IO_Write(DeviceAddr, 0x5580, 0x04);
 1574              		.loc 1 809 3 is_stmt 0 view .LVU322
 1575 000c 2046     		mov	r0, r4
ARM GAS  /var/folders/n6/c271nzx11xl4r4_m7sqjlt0m0000gn/T//cc8PHvwW.s 			page 56


 1576              	.LVL218:
 809:Drivers/BSP/Components/ov5640/ov5640.c ****   CAMERA_IO_Write(DeviceAddr, 0x5580, 0x04);
 1577              		.loc 1 809 3 view .LVU323
 1578 000e FFF7FEFF 		bl	CAMERA_IO_Write
 1579              	.LVL219:
 810:Drivers/BSP/Components/ov5640/ov5640.c **** 
 1580              		.loc 1 810 3 is_stmt 1 view .LVU324
 1581 0012 0422     		movs	r2, #4
 1582 0014 4FF4AB41 		mov	r1, #21888
 1583 0018 2046     		mov	r0, r4
 1584 001a FFF7FEFF 		bl	CAMERA_IO_Write
 1585              	.LVL220:
 812:Drivers/BSP/Components/ov5640/ov5640.c ****   {
 1586              		.loc 1 812 3 view .LVU325
 1587 001e 202D     		cmp	r5, #32
 1588 0020 15D8     		bhi	.L124
 1589 0022 202D     		cmp	r5, #32
 1590 0024 00F29280 		bhi	.L125
 1591 0028 DFE805F0 		tbb	[pc, r5]
 1592              	.L127:
 1593 002c 22       		.byte	(.L133-.L127)/2
 1594 002d 35       		.byte	(.L132-.L127)/2
 1595 002e 42       		.byte	(.L131-.L127)/2
 1596 002f 90       		.byte	(.L125-.L127)/2
 1597 0030 4F       		.byte	(.L130-.L127)/2
 1598 0031 90       		.byte	(.L125-.L127)/2
 1599 0032 90       		.byte	(.L125-.L127)/2
 1600 0033 90       		.byte	(.L125-.L127)/2
 1601 0034 5C       		.byte	(.L129-.L127)/2
 1602 0035 90       		.byte	(.L125-.L127)/2
 1603 0036 90       		.byte	(.L125-.L127)/2
 1604 0037 90       		.byte	(.L125-.L127)/2
 1605 0038 90       		.byte	(.L125-.L127)/2
 1606 0039 90       		.byte	(.L125-.L127)/2
 1607 003a 90       		.byte	(.L125-.L127)/2
 1608 003b 90       		.byte	(.L125-.L127)/2
 1609 003c 69       		.byte	(.L128-.L127)/2
 1610 003d 90       		.byte	(.L125-.L127)/2
 1611 003e 90       		.byte	(.L125-.L127)/2
 1612 003f 90       		.byte	(.L125-.L127)/2
 1613 0040 90       		.byte	(.L125-.L127)/2
 1614 0041 90       		.byte	(.L125-.L127)/2
 1615 0042 90       		.byte	(.L125-.L127)/2
 1616 0043 90       		.byte	(.L125-.L127)/2
 1617 0044 90       		.byte	(.L125-.L127)/2
 1618 0045 90       		.byte	(.L125-.L127)/2
 1619 0046 90       		.byte	(.L125-.L127)/2
 1620 0047 90       		.byte	(.L125-.L127)/2
 1621 0048 90       		.byte	(.L125-.L127)/2
 1622 0049 90       		.byte	(.L125-.L127)/2
 1623 004a 90       		.byte	(.L125-.L127)/2
 1624 004b 90       		.byte	(.L125-.L127)/2
 1625 004c 76       		.byte	(.L126-.L127)/2
 1626 004d 00       		.p2align 1
 1627              	.L124:
 1628 004e 402D     		cmp	r5, #64
 1629 0050 6FD0     		beq	.L134
ARM GAS  /var/folders/n6/c271nzx11xl4r4_m7sqjlt0m0000gn/T//cc8PHvwW.s 			page 57


 1630 0052 802D     		cmp	r5, #128
 1631 0054 7AD1     		bne	.L125
 855:Drivers/BSP/Components/ov5640/ov5640.c ****     CAMERA_IO_Write(DeviceAddr, 0x5585, 0x10);
 1632              		.loc 1 855 5 view .LVU326
 1633 0056 1022     		movs	r2, #16
 1634 0058 45F28651 		movw	r1, #21894
 1635 005c 2046     		mov	r0, r4
 1636 005e FFF7FEFF 		bl	CAMERA_IO_Write
 1637              	.LVL221:
 856:Drivers/BSP/Components/ov5640/ov5640.c ****     break;
 1638              		.loc 1 856 5 view .LVU327
 1639 0062 1022     		movs	r2, #16
 1640 0064 45F28551 		movw	r1, #21893
 1641 0068 2046     		mov	r0, r4
 1642 006a FFF7FEFF 		bl	CAMERA_IO_Write
 1643              	.LVL222:
 857:Drivers/BSP/Components/ov5640/ov5640.c **** 
 1644              		.loc 1 857 5 view .LVU328
 1645 006e 0BE0     		b	.L136
 1646              	.L133:
 815:Drivers/BSP/Components/ov5640/ov5640.c ****     CAMERA_IO_Write(DeviceAddr, 0x5585, 0x30);
 1647              		.loc 1 815 5 view .LVU329
 1648 0070 3022     		movs	r2, #48
 1649 0072 45F28651 		movw	r1, #21894
 1650 0076 2046     		mov	r0, r4
 1651 0078 FFF7FEFF 		bl	CAMERA_IO_Write
 1652              	.LVL223:
 816:Drivers/BSP/Components/ov5640/ov5640.c ****     break;
 1653              		.loc 1 816 5 view .LVU330
 1654 007c 3022     		movs	r2, #48
 1655 007e 45F28551 		movw	r1, #21893
 1656 0082 2046     		mov	r0, r4
 1657 0084 FFF7FEFF 		bl	CAMERA_IO_Write
 1658              	.LVL224:
 817:Drivers/BSP/Components/ov5640/ov5640.c **** 
 1659              		.loc 1 817 5 view .LVU331
 1660              	.L136:
 866:Drivers/BSP/Components/ov5640/ov5640.c **** }
 1661              		.loc 1 866 3 view .LVU332
 1662 0088 4122     		movs	r2, #65
 1663 008a 45F28851 		movw	r1, #21896
 1664 008e 2046     		mov	r0, r4
 1665 0090 FFF7FEFF 		bl	CAMERA_IO_Write
 1666              	.LVL225:
 867:Drivers/BSP/Components/ov5640/ov5640.c **** 
 1667              		.loc 1 867 1 is_stmt 0 view .LVU333
 1668 0094 38BD     		pop	{r3, r4, r5, pc}
 1669              	.LVL226:
 1670              	.L132:
 820:Drivers/BSP/Components/ov5640/ov5640.c ****     CAMERA_IO_Write(DeviceAddr, 0x5585, 0x2C);
 1671              		.loc 1 820 5 is_stmt 1 view .LVU334
 1672 0096 2C22     		movs	r2, #44
 1673 0098 45F28651 		movw	r1, #21894
 1674 009c 2046     		mov	r0, r4
 1675 009e FFF7FEFF 		bl	CAMERA_IO_Write
 1676              	.LVL227:
 821:Drivers/BSP/Components/ov5640/ov5640.c ****     break;
ARM GAS  /var/folders/n6/c271nzx11xl4r4_m7sqjlt0m0000gn/T//cc8PHvwW.s 			page 58


 1677              		.loc 1 821 5 view .LVU335
 1678 00a2 2C22     		movs	r2, #44
 1679 00a4 45F28551 		movw	r1, #21893
 1680 00a8 2046     		mov	r0, r4
 1681 00aa FFF7FEFF 		bl	CAMERA_IO_Write
 1682              	.LVL228:
 822:Drivers/BSP/Components/ov5640/ov5640.c **** 
 1683              		.loc 1 822 5 view .LVU336
 1684 00ae EBE7     		b	.L136
 1685              	.L131:
 825:Drivers/BSP/Components/ov5640/ov5640.c ****     CAMERA_IO_Write(DeviceAddr, 0x5585, 0x28);
 1686              		.loc 1 825 5 view .LVU337
 1687 00b0 2822     		movs	r2, #40
 1688 00b2 45F28651 		movw	r1, #21894
 1689 00b6 2046     		mov	r0, r4
 1690 00b8 FFF7FEFF 		bl	CAMERA_IO_Write
 1691              	.LVL229:
 826:Drivers/BSP/Components/ov5640/ov5640.c ****     break;
 1692              		.loc 1 826 5 view .LVU338
 1693 00bc 2822     		movs	r2, #40
 1694 00be 45F28551 		movw	r1, #21893
 1695 00c2 2046     		mov	r0, r4
 1696 00c4 FFF7FEFF 		bl	CAMERA_IO_Write
 1697              	.LVL230:
 827:Drivers/BSP/Components/ov5640/ov5640.c **** 
 1698              		.loc 1 827 5 view .LVU339
 1699 00c8 DEE7     		b	.L136
 1700              	.L130:
 830:Drivers/BSP/Components/ov5640/ov5640.c ****     CAMERA_IO_Write(DeviceAddr, 0x5585, 0x24);
 1701              		.loc 1 830 5 view .LVU340
 1702 00ca 2422     		movs	r2, #36
 1703 00cc 45F28651 		movw	r1, #21894
 1704 00d0 2046     		mov	r0, r4
 1705 00d2 FFF7FEFF 		bl	CAMERA_IO_Write
 1706              	.LVL231:
 831:Drivers/BSP/Components/ov5640/ov5640.c ****     break;
 1707              		.loc 1 831 5 view .LVU341
 1708 00d6 2422     		movs	r2, #36
 1709 00d8 45F28551 		movw	r1, #21893
 1710 00dc 2046     		mov	r0, r4
 1711 00de FFF7FEFF 		bl	CAMERA_IO_Write
 1712              	.LVL232:
 832:Drivers/BSP/Components/ov5640/ov5640.c **** 
 1713              		.loc 1 832 5 view .LVU342
 1714 00e2 D1E7     		b	.L136
 1715              	.L129:
 835:Drivers/BSP/Components/ov5640/ov5640.c ****     CAMERA_IO_Write(DeviceAddr, 0x5585, 0x20);
 1716              		.loc 1 835 5 view .LVU343
 1717 00e4 2022     		movs	r2, #32
 1718 00e6 45F28651 		movw	r1, #21894
 1719 00ea 2046     		mov	r0, r4
 1720 00ec FFF7FEFF 		bl	CAMERA_IO_Write
 1721              	.LVL233:
 836:Drivers/BSP/Components/ov5640/ov5640.c ****     break;
 1722              		.loc 1 836 5 view .LVU344
 1723 00f0 2022     		movs	r2, #32
 1724 00f2 45F28551 		movw	r1, #21893
ARM GAS  /var/folders/n6/c271nzx11xl4r4_m7sqjlt0m0000gn/T//cc8PHvwW.s 			page 59


 1725 00f6 2046     		mov	r0, r4
 1726 00f8 FFF7FEFF 		bl	CAMERA_IO_Write
 1727              	.LVL234:
 837:Drivers/BSP/Components/ov5640/ov5640.c **** 
 1728              		.loc 1 837 5 view .LVU345
 1729 00fc C4E7     		b	.L136
 1730              	.L128:
 840:Drivers/BSP/Components/ov5640/ov5640.c ****     CAMERA_IO_Write(DeviceAddr, 0x5585, 0x1C);
 1731              		.loc 1 840 5 view .LVU346
 1732 00fe 1C22     		movs	r2, #28
 1733 0100 45F28651 		movw	r1, #21894
 1734 0104 2046     		mov	r0, r4
 1735 0106 FFF7FEFF 		bl	CAMERA_IO_Write
 1736              	.LVL235:
 841:Drivers/BSP/Components/ov5640/ov5640.c ****     break;
 1737              		.loc 1 841 5 view .LVU347
 1738 010a 1C22     		movs	r2, #28
 1739 010c 45F28551 		movw	r1, #21893
 1740 0110 2046     		mov	r0, r4
 1741 0112 FFF7FEFF 		bl	CAMERA_IO_Write
 1742              	.LVL236:
 842:Drivers/BSP/Components/ov5640/ov5640.c **** 
 1743              		.loc 1 842 5 view .LVU348
 1744 0116 B7E7     		b	.L136
 1745              	.L126:
 845:Drivers/BSP/Components/ov5640/ov5640.c ****     CAMERA_IO_Write(DeviceAddr, 0x5585, 0x18);
 1746              		.loc 1 845 5 view .LVU349
 1747 0118 1822     		movs	r2, #24
 1748 011a 45F28651 		movw	r1, #21894
 1749 011e 2046     		mov	r0, r4
 1750 0120 FFF7FEFF 		bl	CAMERA_IO_Write
 1751              	.LVL237:
 846:Drivers/BSP/Components/ov5640/ov5640.c ****     break;
 1752              		.loc 1 846 5 view .LVU350
 1753 0124 1822     		movs	r2, #24
 1754 0126 45F28551 		movw	r1, #21893
 1755 012a 2046     		mov	r0, r4
 1756 012c FFF7FEFF 		bl	CAMERA_IO_Write
 1757              	.LVL238:
 847:Drivers/BSP/Components/ov5640/ov5640.c **** 
 1758              		.loc 1 847 5 view .LVU351
 1759 0130 AAE7     		b	.L136
 1760              	.L134:
 850:Drivers/BSP/Components/ov5640/ov5640.c ****     CAMERA_IO_Write(DeviceAddr, 0x5585, 0x14);
 1761              		.loc 1 850 5 view .LVU352
 1762 0132 1422     		movs	r2, #20
 1763 0134 45F28651 		movw	r1, #21894
 1764 0138 2046     		mov	r0, r4
 1765 013a FFF7FEFF 		bl	CAMERA_IO_Write
 1766              	.LVL239:
 851:Drivers/BSP/Components/ov5640/ov5640.c ****     break;
 1767              		.loc 1 851 5 view .LVU353
 1768 013e 1422     		movs	r2, #20
 1769 0140 45F28551 		movw	r1, #21893
 1770 0144 2046     		mov	r0, r4
 1771 0146 FFF7FEFF 		bl	CAMERA_IO_Write
 1772              	.LVL240:
ARM GAS  /var/folders/n6/c271nzx11xl4r4_m7sqjlt0m0000gn/T//cc8PHvwW.s 			page 60


 852:Drivers/BSP/Components/ov5640/ov5640.c **** 
 1773              		.loc 1 852 5 view .LVU354
 1774 014a 9DE7     		b	.L136
 1775              	.L125:
 861:Drivers/BSP/Components/ov5640/ov5640.c ****     CAMERA_IO_Write(DeviceAddr, 0x5585, 0x20);
 1776              		.loc 1 861 5 view .LVU355
 1777 014c 2022     		movs	r2, #32
 1778 014e 45F28651 		movw	r1, #21894
 1779 0152 2046     		mov	r0, r4
 1780 0154 FFF7FEFF 		bl	CAMERA_IO_Write
 1781              	.LVL241:
 862:Drivers/BSP/Components/ov5640/ov5640.c ****     break;
 1782              		.loc 1 862 5 view .LVU356
 1783 0158 2022     		movs	r2, #32
 1784 015a 45F28551 		movw	r1, #21893
 1785 015e 2046     		mov	r0, r4
 1786 0160 FFF7FEFF 		bl	CAMERA_IO_Write
 1787              	.LVL242:
 863:Drivers/BSP/Components/ov5640/ov5640.c ****   }
 1788              		.loc 1 863 5 view .LVU357
 1789 0164 90E7     		b	.L136
 1790              		.cfi_endproc
 1791              	.LFE5:
 1793              		.section	.text.ov5640_Config,"ax",%progbits
 1794              		.align	1
 1795              		.global	ov5640_Config
 1796              		.syntax unified
 1797              		.thumb
 1798              		.thumb_func
 1800              	ov5640_Config:
 1801              	.LVL243:
 1802              	.LFB10:
1090:Drivers/BSP/Components/ov5640/ov5640.c ****   uint32_t value_tmp;
 1803              		.loc 1 1090 1 view -0
 1804              		.cfi_startproc
 1805              		@ args = 0, pretend = 0, frame = 0
 1806              		@ frame_needed = 0, uses_anonymous_args = 0
1090:Drivers/BSP/Components/ov5640/ov5640.c ****   uint32_t value_tmp;
 1807              		.loc 1 1090 1 is_stmt 0 view .LVU359
 1808 0000 F8B5     		push	{r3, r4, r5, r6, r7, lr}
 1809              		.cfi_def_cfa_offset 24
 1810              		.cfi_offset 3, -24
 1811              		.cfi_offset 4, -20
 1812              		.cfi_offset 5, -16
 1813              		.cfi_offset 6, -12
 1814              		.cfi_offset 7, -8
 1815              		.cfi_offset 14, -4
 1816 0002 0646     		mov	r6, r0
 1817 0004 0C46     		mov	r4, r1
 1818 0006 1D46     		mov	r5, r3
1091:Drivers/BSP/Components/ov5640/ov5640.c ****   uint32_t br_value;
 1819              		.loc 1 1091 3 is_stmt 1 view .LVU360
1092:Drivers/BSP/Components/ov5640/ov5640.c **** 
 1820              		.loc 1 1092 3 view .LVU361
1095:Drivers/BSP/Components/ov5640/ov5640.c ****   br_value = ov5640_ConvertValue(CAMERA_CONTRAST_BRIGHTNESS, brightness_value);
 1821              		.loc 1 1095 3 view .LVU362
1095:Drivers/BSP/Components/ov5640/ov5640.c ****   br_value = ov5640_ConvertValue(CAMERA_CONTRAST_BRIGHTNESS, brightness_value);
ARM GAS  /var/folders/n6/c271nzx11xl4r4_m7sqjlt0m0000gn/T//cc8PHvwW.s 			page 61


 1822              		.loc 1 1095 15 is_stmt 0 view .LVU363
 1823 0008 1146     		mov	r1, r2
 1824              	.LVL244:
1095:Drivers/BSP/Components/ov5640/ov5640.c ****   br_value = ov5640_ConvertValue(CAMERA_CONTRAST_BRIGHTNESS, brightness_value);
 1825              		.loc 1 1095 15 view .LVU364
 1826 000a 2046     		mov	r0, r4
 1827              	.LVL245:
1095:Drivers/BSP/Components/ov5640/ov5640.c ****   br_value = ov5640_ConvertValue(CAMERA_CONTRAST_BRIGHTNESS, brightness_value);
 1828              		.loc 1 1095 15 view .LVU365
 1829 000c FFF7FEFF 		bl	ov5640_ConvertValue
 1830              	.LVL246:
1095:Drivers/BSP/Components/ov5640/ov5640.c ****   br_value = ov5640_ConvertValue(CAMERA_CONTRAST_BRIGHTNESS, brightness_value);
 1831              		.loc 1 1095 15 view .LVU366
 1832 0010 0746     		mov	r7, r0
 1833              	.LVL247:
1096:Drivers/BSP/Components/ov5640/ov5640.c **** 
 1834              		.loc 1 1096 3 is_stmt 1 view .LVU367
1096:Drivers/BSP/Components/ov5640/ov5640.c **** 
 1835              		.loc 1 1096 14 is_stmt 0 view .LVU368
 1836 0012 2946     		mov	r1, r5
 1837 0014 0020     		movs	r0, #0
 1838              	.LVL248:
1096:Drivers/BSP/Components/ov5640/ov5640.c **** 
 1839              		.loc 1 1096 14 view .LVU369
 1840 0016 FFF7FEFF 		bl	ov5640_ConvertValue
 1841              	.LVL249:
1098:Drivers/BSP/Components/ov5640/ov5640.c ****   {
 1842              		.loc 1 1098 3 is_stmt 1 view .LVU370
 1843 001a 012C     		cmp	r4, #1
 1844 001c 0CD0     		beq	.L140
 1845 001e 0546     		mov	r5, r0
 1846              	.LVL250:
1098:Drivers/BSP/Components/ov5640/ov5640.c ****   {
 1847              		.loc 1 1098 3 is_stmt 0 view .LVU371
 1848 0020 032C     		cmp	r4, #3
 1849 0022 09D0     		beq	.L140
 1850 0024 3CB9     		cbnz	r4, .L139
1102:Drivers/BSP/Components/ov5640/ov5640.c ****       OV5640_SetBrightness(DeviceAddr, br_value);   
 1851              		.loc 1 1102 7 is_stmt 1 view .LVU372
 1852 0026 F9B2     		uxtb	r1, r7
 1853 0028 3046     		mov	r0, r6
 1854              	.LVL251:
1102:Drivers/BSP/Components/ov5640/ov5640.c ****       OV5640_SetBrightness(DeviceAddr, br_value);   
 1855              		.loc 1 1102 7 is_stmt 0 view .LVU373
 1856 002a FFF7FEFF 		bl	OV5640_SetContrast
 1857              	.LVL252:
1103:Drivers/BSP/Components/ov5640/ov5640.c ****       break;
 1858              		.loc 1 1103 7 is_stmt 1 view .LVU374
 1859 002e E9B2     		uxtb	r1, r5
 1860 0030 3046     		mov	r0, r6
 1861 0032 FFF7FEFF 		bl	OV5640_SetBrightness
 1862              	.LVL253:
1104:Drivers/BSP/Components/ov5640/ov5640.c ****     }
 1863              		.loc 1 1104 7 view .LVU375
 1864              	.L139:
1117:Drivers/BSP/Components/ov5640/ov5640.c **** 
 1865              		.loc 1 1117 1 is_stmt 0 view .LVU376
ARM GAS  /var/folders/n6/c271nzx11xl4r4_m7sqjlt0m0000gn/T//cc8PHvwW.s 			page 62


 1866 0036 F8BD     		pop	{r3, r4, r5, r6, r7, pc}
 1867              	.LVL254:
 1868              	.L140:
1109:Drivers/BSP/Components/ov5640/ov5640.c ****       break;
 1869              		.loc 1 1109 7 is_stmt 1 view .LVU377
 1870 0038 3946     		mov	r1, r7
 1871 003a 3046     		mov	r0, r6
 1872              	.LVL255:
1109:Drivers/BSP/Components/ov5640/ov5640.c ****       break;
 1873              		.loc 1 1109 7 is_stmt 0 view .LVU378
 1874 003c FFF7FEFF 		bl	OV5640_SetEffect
 1875              	.LVL256:
1110:Drivers/BSP/Components/ov5640/ov5640.c ****     }
 1876              		.loc 1 1110 7 is_stmt 1 view .LVU379
1117:Drivers/BSP/Components/ov5640/ov5640.c **** 
 1877              		.loc 1 1117 1 is_stmt 0 view .LVU380
 1878 0040 F9E7     		b	.L139
 1879              		.cfi_endproc
 1880              	.LFE10:
 1882              		.section	.text.OV5640_SetHueDegree,"ax",%progbits
 1883              		.align	1
 1884              		.global	OV5640_SetHueDegree
 1885              		.syntax unified
 1886              		.thumb
 1887              		.thumb_func
 1889              	OV5640_SetHueDegree:
 1890              	.LVL257:
 1891              	.LFB6:
 876:Drivers/BSP/Components/ov5640/ov5640.c ****   CAMERA_IO_Write(DeviceAddr, 0x5001, 0xFF);
 1892              		.loc 1 876 1 is_stmt 1 view -0
 1893              		.cfi_startproc
 1894              		@ args = 0, pretend = 0, frame = 0
 1895              		@ frame_needed = 0, uses_anonymous_args = 0
 876:Drivers/BSP/Components/ov5640/ov5640.c ****   CAMERA_IO_Write(DeviceAddr, 0x5001, 0xFF);
 1896              		.loc 1 876 1 is_stmt 0 view .LVU382
 1897 0000 38B5     		push	{r3, r4, r5, lr}
 1898              		.cfi_def_cfa_offset 16
 1899              		.cfi_offset 3, -16
 1900              		.cfi_offset 4, -12
 1901              		.cfi_offset 5, -8
 1902              		.cfi_offset 14, -4
 1903 0002 0C46     		mov	r4, r1
 877:Drivers/BSP/Components/ov5640/ov5640.c ****   CAMERA_IO_Write(DeviceAddr, 0x5580, 0x01);
 1904              		.loc 1 877 3 is_stmt 1 view .LVU383
 1905 0004 C5B2     		uxtb	r5, r0
 1906 0006 FF22     		movs	r2, #255
 1907 0008 45F20101 		movw	r1, #20481
 1908              	.LVL258:
 877:Drivers/BSP/Components/ov5640/ov5640.c ****   CAMERA_IO_Write(DeviceAddr, 0x5580, 0x01);
 1909              		.loc 1 877 3 is_stmt 0 view .LVU384
 1910 000c 2846     		mov	r0, r5
 1911              	.LVL259:
 877:Drivers/BSP/Components/ov5640/ov5640.c ****   CAMERA_IO_Write(DeviceAddr, 0x5580, 0x01);
 1912              		.loc 1 877 3 view .LVU385
 1913 000e FFF7FEFF 		bl	CAMERA_IO_Write
 1914              	.LVL260:
 878:Drivers/BSP/Components/ov5640/ov5640.c **** 
ARM GAS  /var/folders/n6/c271nzx11xl4r4_m7sqjlt0m0000gn/T//cc8PHvwW.s 			page 63


 1915              		.loc 1 878 3 is_stmt 1 view .LVU386
 1916 0012 0122     		movs	r2, #1
 1917 0014 4FF4AB41 		mov	r1, #21888
 1918 0018 2846     		mov	r0, r5
 1919 001a FFF7FEFF 		bl	CAMERA_IO_Write
 1920              	.LVL261:
 880:Drivers/BSP/Components/ov5640/ov5640.c ****   {
 1921              		.loc 1 880 3 view .LVU387
 1922 001e 402C     		cmp	r4, #64
 1923 0020 00F0DA80 		beq	.L144
 1924 0024 2CD8     		bhi	.L145
 1925 0026 202C     		cmp	r4, #32
 1926 0028 00F22281 		bhi	.L146
 1927 002c 23B2     		sxth	r3, r4
 1928 002e 002B     		cmp	r3, #0
 1929 0030 00F01E81 		beq	.L146
 1930 0034 013C     		subs	r4, r4, #1
 1931              	.LVL262:
 880:Drivers/BSP/Components/ov5640/ov5640.c ****   {
 1932              		.loc 1 880 3 is_stmt 0 view .LVU388
 1933 0036 1F2C     		cmp	r4, #31
 1934 0038 00F21A81 		bhi	.L146
 1935 003c DFE814F0 		tbh	[pc, r4, lsl #1]
 1936              	.L148:
 1937 0040 5A00     		.2byte	(.L153-.L148)/2
 1938 0042 6D00     		.2byte	(.L152-.L148)/2
 1939 0044 1801     		.2byte	(.L146-.L148)/2
 1940 0046 8000     		.2byte	(.L151-.L148)/2
 1941 0048 1801     		.2byte	(.L146-.L148)/2
 1942 004a 1801     		.2byte	(.L146-.L148)/2
 1943 004c 1801     		.2byte	(.L146-.L148)/2
 1944 004e 9300     		.2byte	(.L150-.L148)/2
 1945 0050 1801     		.2byte	(.L146-.L148)/2
 1946 0052 1801     		.2byte	(.L146-.L148)/2
 1947 0054 1801     		.2byte	(.L146-.L148)/2
 1948 0056 1801     		.2byte	(.L146-.L148)/2
 1949 0058 1801     		.2byte	(.L146-.L148)/2
 1950 005a 1801     		.2byte	(.L146-.L148)/2
 1951 005c 1801     		.2byte	(.L146-.L148)/2
 1952 005e A600     		.2byte	(.L149-.L148)/2
 1953 0060 1801     		.2byte	(.L146-.L148)/2
 1954 0062 1801     		.2byte	(.L146-.L148)/2
 1955 0064 1801     		.2byte	(.L146-.L148)/2
 1956 0066 1801     		.2byte	(.L146-.L148)/2
 1957 0068 1801     		.2byte	(.L146-.L148)/2
 1958 006a 1801     		.2byte	(.L146-.L148)/2
 1959 006c 1801     		.2byte	(.L146-.L148)/2
 1960 006e 1801     		.2byte	(.L146-.L148)/2
 1961 0070 1801     		.2byte	(.L146-.L148)/2
 1962 0072 1801     		.2byte	(.L146-.L148)/2
 1963 0074 1801     		.2byte	(.L146-.L148)/2
 1964 0076 1801     		.2byte	(.L146-.L148)/2
 1965 0078 1801     		.2byte	(.L146-.L148)/2
 1966 007a 1801     		.2byte	(.L146-.L148)/2
 1967 007c 1801     		.2byte	(.L146-.L148)/2
 1968 007e B900     		.2byte	(.L147-.L148)/2
 1969              	.LVL263:
ARM GAS  /var/folders/n6/c271nzx11xl4r4_m7sqjlt0m0000gn/T//cc8PHvwW.s 			page 64


 1970              		.p2align 1
 1971              	.L145:
 880:Drivers/BSP/Components/ov5640/ov5640.c ****   {
 1972              		.loc 1 880 3 view .LVU389
 1973 0080 B4F5007F 		cmp	r4, #512
 1974 0084 00F0CE80 		beq	.L154
 1975 0088 1AD9     		bls	.L163
 1976 008a B4F5806F 		cmp	r4, #1024
 1977 008e 00F0DC80 		beq	.L158
 1978 0092 B4F5006F 		cmp	r4, #2048
 1979 0096 40F0EB80 		bne	.L146
 949:Drivers/BSP/Components/ov5640/ov5640.c ****     CAMERA_IO_Write(DeviceAddr, 0x5582, 0x00);
 1980              		.loc 1 949 5 is_stmt 1 view .LVU390
 1981 009a 8022     		movs	r2, #128
 1982 009c 45F28151 		movw	r1, #21889
 1983 00a0 2846     		mov	r0, r5
 1984 00a2 FFF7FEFF 		bl	CAMERA_IO_Write
 1985              	.LVL264:
 950:Drivers/BSP/Components/ov5640/ov5640.c ****     CAMERA_IO_Write(DeviceAddr, 0x5588, 0x32);
 1986              		.loc 1 950 5 view .LVU391
 1987 00a6 0022     		movs	r2, #0
 1988 00a8 45F28251 		movw	r1, #21890
 1989 00ac 2846     		mov	r0, r5
 1990 00ae FFF7FEFF 		bl	CAMERA_IO_Write
 1991              	.LVL265:
 951:Drivers/BSP/Components/ov5640/ov5640.c ****     break;
 1992              		.loc 1 951 5 view .LVU392
 1993 00b2 3222     		movs	r2, #50
 1994 00b4 45F28851 		movw	r1, #21896
 1995 00b8 2846     		mov	r0, r5
 1996 00ba FFF7FEFF 		bl	CAMERA_IO_Write
 1997              	.LVL266:
 952:Drivers/BSP/Components/ov5640/ov5640.c **** 
 1998              		.loc 1 952 5 view .LVU393
 1999 00be 2BE0     		b	.L143
 2000              	.L163:
 880:Drivers/BSP/Components/ov5640/ov5640.c ****   {
 2001              		.loc 1 880 3 is_stmt 0 view .LVU394
 2002 00c0 802C     		cmp	r4, #128
 2003 00c2 00F09C80 		beq	.L156
 2004 00c6 B4F5807F 		cmp	r4, #256
 2005 00ca 40F0D180 		bne	.L146
 931:Drivers/BSP/Components/ov5640/ov5640.c ****     CAMERA_IO_Write(DeviceAddr, 0x5582, 0x80);
 2006              		.loc 1 931 5 is_stmt 1 view .LVU395
 2007 00ce 0022     		movs	r2, #0
 2008 00d0 45F28151 		movw	r1, #21889
 2009 00d4 2846     		mov	r0, r5
 2010 00d6 FFF7FEFF 		bl	CAMERA_IO_Write
 2011              	.LVL267:
 932:Drivers/BSP/Components/ov5640/ov5640.c ****     CAMERA_IO_Write(DeviceAddr, 0x5588, 0x02);
 2012              		.loc 1 932 5 view .LVU396
 2013 00da 8022     		movs	r2, #128
 2014 00dc 45F28251 		movw	r1, #21890
 2015 00e0 2846     		mov	r0, r5
 2016 00e2 FFF7FEFF 		bl	CAMERA_IO_Write
 2017              	.LVL268:
 933:Drivers/BSP/Components/ov5640/ov5640.c ****     break;
ARM GAS  /var/folders/n6/c271nzx11xl4r4_m7sqjlt0m0000gn/T//cc8PHvwW.s 			page 65


 2018              		.loc 1 933 5 view .LVU397
 2019 00e6 0222     		movs	r2, #2
 2020 00e8 45F28851 		movw	r1, #21896
 2021 00ec 2846     		mov	r0, r5
 2022 00ee FFF7FEFF 		bl	CAMERA_IO_Write
 2023              	.LVL269:
 934:Drivers/BSP/Components/ov5640/ov5640.c **** 
 2024              		.loc 1 934 5 view .LVU398
 2025 00f2 11E0     		b	.L143
 2026              	.LVL270:
 2027              	.L153:
 883:Drivers/BSP/Components/ov5640/ov5640.c ****     CAMERA_IO_Write(DeviceAddr, 0x5582, 0x40);
 2028              		.loc 1 883 5 view .LVU399
 2029 00f4 6F22     		movs	r2, #111
 2030 00f6 45F28151 		movw	r1, #21889
 2031 00fa 2846     		mov	r0, r5
 2032 00fc FFF7FEFF 		bl	CAMERA_IO_Write
 2033              	.LVL271:
 884:Drivers/BSP/Components/ov5640/ov5640.c ****     CAMERA_IO_Write(DeviceAddr, 0x5588, 0x31);
 2034              		.loc 1 884 5 view .LVU400
 2035 0100 4022     		movs	r2, #64
 2036 0102 45F28251 		movw	r1, #21890
 2037 0106 2846     		mov	r0, r5
 2038 0108 FFF7FEFF 		bl	CAMERA_IO_Write
 2039              	.LVL272:
 885:Drivers/BSP/Components/ov5640/ov5640.c ****     break;
 2040              		.loc 1 885 5 view .LVU401
 2041 010c 3122     		movs	r2, #49
 2042 010e 45F28851 		movw	r1, #21896
 2043 0112 2846     		mov	r0, r5
 2044 0114 FFF7FEFF 		bl	CAMERA_IO_Write
 2045              	.LVL273:
 886:Drivers/BSP/Components/ov5640/ov5640.c **** 
 2046              		.loc 1 886 5 view .LVU402
 2047              	.L143:
 961:Drivers/BSP/Components/ov5640/ov5640.c **** 
 2048              		.loc 1 961 1 is_stmt 0 view .LVU403
 2049 0118 38BD     		pop	{r3, r4, r5, pc}
 2050              	.L152:
 889:Drivers/BSP/Components/ov5640/ov5640.c ****     CAMERA_IO_Write(DeviceAddr, 0x5582, 0x6F);
 2051              		.loc 1 889 5 is_stmt 1 view .LVU404
 2052 011a 4022     		movs	r2, #64
 2053 011c 45F28151 		movw	r1, #21889
 2054 0120 2846     		mov	r0, r5
 2055 0122 FFF7FEFF 		bl	CAMERA_IO_Write
 2056              	.LVL274:
 890:Drivers/BSP/Components/ov5640/ov5640.c ****     CAMERA_IO_Write(DeviceAddr, 0x5588, 0x31);
 2057              		.loc 1 890 5 view .LVU405
 2058 0126 6F22     		movs	r2, #111
 2059 0128 45F28251 		movw	r1, #21890
 2060 012c 2846     		mov	r0, r5
 2061 012e FFF7FEFF 		bl	CAMERA_IO_Write
 2062              	.LVL275:
 891:Drivers/BSP/Components/ov5640/ov5640.c ****     break;
 2063              		.loc 1 891 5 view .LVU406
 2064 0132 3122     		movs	r2, #49
 2065 0134 45F28851 		movw	r1, #21896
ARM GAS  /var/folders/n6/c271nzx11xl4r4_m7sqjlt0m0000gn/T//cc8PHvwW.s 			page 66


 2066 0138 2846     		mov	r0, r5
 2067 013a FFF7FEFF 		bl	CAMERA_IO_Write
 2068              	.LVL276:
 892:Drivers/BSP/Components/ov5640/ov5640.c **** 
 2069              		.loc 1 892 5 view .LVU407
 2070 013e EBE7     		b	.L143
 2071              	.L151:
 895:Drivers/BSP/Components/ov5640/ov5640.c ****     CAMERA_IO_Write(DeviceAddr, 0x5582, 0x80);
 2072              		.loc 1 895 5 view .LVU408
 2073 0140 0022     		movs	r2, #0
 2074 0142 45F28151 		movw	r1, #21889
 2075 0146 2846     		mov	r0, r5
 2076 0148 FFF7FEFF 		bl	CAMERA_IO_Write
 2077              	.LVL277:
 896:Drivers/BSP/Components/ov5640/ov5640.c ****     CAMERA_IO_Write(DeviceAddr, 0x5588, 0x31);
 2078              		.loc 1 896 5 view .LVU409
 2079 014c 8022     		movs	r2, #128
 2080 014e 45F28251 		movw	r1, #21890
 2081 0152 2846     		mov	r0, r5
 2082 0154 FFF7FEFF 		bl	CAMERA_IO_Write
 2083              	.LVL278:
 897:Drivers/BSP/Components/ov5640/ov5640.c ****     break;
 2084              		.loc 1 897 5 view .LVU410
 2085 0158 3122     		movs	r2, #49
 2086 015a 45F28851 		movw	r1, #21896
 2087 015e 2846     		mov	r0, r5
 2088 0160 FFF7FEFF 		bl	CAMERA_IO_Write
 2089              	.LVL279:
 898:Drivers/BSP/Components/ov5640/ov5640.c **** 
 2090              		.loc 1 898 5 view .LVU411
 2091 0164 D8E7     		b	.L143
 2092              	.L150:
 901:Drivers/BSP/Components/ov5640/ov5640.c ****     CAMERA_IO_Write(DeviceAddr, 0x5582, 0x6F);
 2093              		.loc 1 901 5 view .LVU412
 2094 0166 4022     		movs	r2, #64
 2095 0168 45F28151 		movw	r1, #21889
 2096 016c 2846     		mov	r0, r5
 2097 016e FFF7FEFF 		bl	CAMERA_IO_Write
 2098              	.LVL280:
 902:Drivers/BSP/Components/ov5640/ov5640.c ****     CAMERA_IO_Write(DeviceAddr, 0x5588, 0x01);
 2099              		.loc 1 902 5 view .LVU413
 2100 0172 6F22     		movs	r2, #111
 2101 0174 45F28251 		movw	r1, #21890
 2102 0178 2846     		mov	r0, r5
 2103 017a FFF7FEFF 		bl	CAMERA_IO_Write
 2104              	.LVL281:
 903:Drivers/BSP/Components/ov5640/ov5640.c ****     break;
 2105              		.loc 1 903 5 view .LVU414
 2106 017e 0122     		movs	r2, #1
 2107 0180 45F28851 		movw	r1, #21896
 2108 0184 2846     		mov	r0, r5
 2109 0186 FFF7FEFF 		bl	CAMERA_IO_Write
 2110              	.LVL282:
 904:Drivers/BSP/Components/ov5640/ov5640.c **** 
 2111              		.loc 1 904 5 view .LVU415
 2112 018a C5E7     		b	.L143
 2113              	.L149:
ARM GAS  /var/folders/n6/c271nzx11xl4r4_m7sqjlt0m0000gn/T//cc8PHvwW.s 			page 67


 907:Drivers/BSP/Components/ov5640/ov5640.c ****     CAMERA_IO_Write(DeviceAddr, 0x5582, 0x40);
 2114              		.loc 1 907 5 view .LVU416
 2115 018c 6F22     		movs	r2, #111
 2116 018e 45F28151 		movw	r1, #21889
 2117 0192 2846     		mov	r0, r5
 2118 0194 FFF7FEFF 		bl	CAMERA_IO_Write
 2119              	.LVL283:
 908:Drivers/BSP/Components/ov5640/ov5640.c ****     CAMERA_IO_Write(DeviceAddr, 0x5588, 0x01);
 2120              		.loc 1 908 5 view .LVU417
 2121 0198 4022     		movs	r2, #64
 2122 019a 45F28251 		movw	r1, #21890
 2123 019e 2846     		mov	r0, r5
 2124 01a0 FFF7FEFF 		bl	CAMERA_IO_Write
 2125              	.LVL284:
 909:Drivers/BSP/Components/ov5640/ov5640.c ****     break;
 2126              		.loc 1 909 5 view .LVU418
 2127 01a4 0122     		movs	r2, #1
 2128 01a6 45F28851 		movw	r1, #21896
 2129 01aa 2846     		mov	r0, r5
 2130 01ac FFF7FEFF 		bl	CAMERA_IO_Write
 2131              	.LVL285:
 910:Drivers/BSP/Components/ov5640/ov5640.c **** 
 2132              		.loc 1 910 5 view .LVU419
 2133 01b0 B2E7     		b	.L143
 2134              	.L147:
 913:Drivers/BSP/Components/ov5640/ov5640.c ****     CAMERA_IO_Write(DeviceAddr, 0x5582, 0x00);
 2135              		.loc 1 913 5 view .LVU420
 2136 01b2 8022     		movs	r2, #128
 2137 01b4 45F28151 		movw	r1, #21889
 2138 01b8 2846     		mov	r0, r5
 2139 01ba FFF7FEFF 		bl	CAMERA_IO_Write
 2140              	.LVL286:
 914:Drivers/BSP/Components/ov5640/ov5640.c ****     CAMERA_IO_Write(DeviceAddr, 0x5588, 0x01);
 2141              		.loc 1 914 5 view .LVU421
 2142 01be 0022     		movs	r2, #0
 2143 01c0 45F28251 		movw	r1, #21890
 2144 01c4 2846     		mov	r0, r5
 2145 01c6 FFF7FEFF 		bl	CAMERA_IO_Write
 2146              	.LVL287:
 915:Drivers/BSP/Components/ov5640/ov5640.c ****     break;
 2147              		.loc 1 915 5 view .LVU422
 2148 01ca 0122     		movs	r2, #1
 2149 01cc 45F28851 		movw	r1, #21896
 2150 01d0 2846     		mov	r0, r5
 2151 01d2 FFF7FEFF 		bl	CAMERA_IO_Write
 2152              	.LVL288:
 916:Drivers/BSP/Components/ov5640/ov5640.c **** 
 2153              		.loc 1 916 5 view .LVU423
 2154 01d6 9FE7     		b	.L143
 2155              	.L144:
 919:Drivers/BSP/Components/ov5640/ov5640.c ****     CAMERA_IO_Write(DeviceAddr, 0x5582, 0x40);
 2156              		.loc 1 919 5 view .LVU424
 2157 01d8 6F22     		movs	r2, #111
 2158 01da 45F28151 		movw	r1, #21889
 2159 01de 2846     		mov	r0, r5
 2160 01e0 FFF7FEFF 		bl	CAMERA_IO_Write
 2161              	.LVL289:
ARM GAS  /var/folders/n6/c271nzx11xl4r4_m7sqjlt0m0000gn/T//cc8PHvwW.s 			page 68


 920:Drivers/BSP/Components/ov5640/ov5640.c ****     CAMERA_IO_Write(DeviceAddr, 0x5588, 0x02);
 2162              		.loc 1 920 5 view .LVU425
 2163 01e4 4022     		movs	r2, #64
 2164 01e6 45F28251 		movw	r1, #21890
 2165 01ea 2846     		mov	r0, r5
 2166 01ec FFF7FEFF 		bl	CAMERA_IO_Write
 2167              	.LVL290:
 921:Drivers/BSP/Components/ov5640/ov5640.c ****     break;
 2168              		.loc 1 921 5 view .LVU426
 2169 01f0 0222     		movs	r2, #2
 2170 01f2 45F28851 		movw	r1, #21896
 2171 01f6 2846     		mov	r0, r5
 2172 01f8 FFF7FEFF 		bl	CAMERA_IO_Write
 2173              	.LVL291:
 922:Drivers/BSP/Components/ov5640/ov5640.c **** 
 2174              		.loc 1 922 5 view .LVU427
 2175 01fc 8CE7     		b	.L143
 2176              	.L156:
 925:Drivers/BSP/Components/ov5640/ov5640.c ****     CAMERA_IO_Write(DeviceAddr, 0x5582, 0x6F);
 2177              		.loc 1 925 5 view .LVU428
 2178 01fe 4022     		movs	r2, #64
 2179 0200 45F28151 		movw	r1, #21889
 2180 0204 2846     		mov	r0, r5
 2181 0206 FFF7FEFF 		bl	CAMERA_IO_Write
 2182              	.LVL292:
 926:Drivers/BSP/Components/ov5640/ov5640.c ****     CAMERA_IO_Write(DeviceAddr, 0x5588, 0x02);
 2183              		.loc 1 926 5 view .LVU429
 2184 020a 6F22     		movs	r2, #111
 2185 020c 45F28251 		movw	r1, #21890
 2186 0210 2846     		mov	r0, r5
 2187 0212 FFF7FEFF 		bl	CAMERA_IO_Write
 2188              	.LVL293:
 927:Drivers/BSP/Components/ov5640/ov5640.c ****     break;
 2189              		.loc 1 927 5 view .LVU430
 2190 0216 0222     		movs	r2, #2
 2191 0218 45F28851 		movw	r1, #21896
 2192 021c 2846     		mov	r0, r5
 2193 021e FFF7FEFF 		bl	CAMERA_IO_Write
 2194              	.LVL294:
 928:Drivers/BSP/Components/ov5640/ov5640.c **** 
 2195              		.loc 1 928 5 view .LVU431
 2196 0222 79E7     		b	.L143
 2197              	.L154:
 937:Drivers/BSP/Components/ov5640/ov5640.c ****     CAMERA_IO_Write(DeviceAddr, 0x5582, 0x6F);
 2198              		.loc 1 937 5 view .LVU432
 2199 0224 4022     		movs	r2, #64
 2200 0226 45F28151 		movw	r1, #21889
 2201 022a 2846     		mov	r0, r5
 2202 022c FFF7FEFF 		bl	CAMERA_IO_Write
 2203              	.LVL295:
 938:Drivers/BSP/Components/ov5640/ov5640.c ****     CAMERA_IO_Write(DeviceAddr, 0x5588, 0x32);
 2204              		.loc 1 938 5 view .LVU433
 2205 0230 6F22     		movs	r2, #111
 2206 0232 45F28251 		movw	r1, #21890
 2207 0236 2846     		mov	r0, r5
 2208 0238 FFF7FEFF 		bl	CAMERA_IO_Write
 2209              	.LVL296:
ARM GAS  /var/folders/n6/c271nzx11xl4r4_m7sqjlt0m0000gn/T//cc8PHvwW.s 			page 69


 939:Drivers/BSP/Components/ov5640/ov5640.c ****     break;
 2210              		.loc 1 939 5 view .LVU434
 2211 023c 3222     		movs	r2, #50
 2212 023e 45F28851 		movw	r1, #21896
 2213 0242 2846     		mov	r0, r5
 2214 0244 FFF7FEFF 		bl	CAMERA_IO_Write
 2215              	.LVL297:
 940:Drivers/BSP/Components/ov5640/ov5640.c **** 
 2216              		.loc 1 940 5 view .LVU435
 2217 0248 66E7     		b	.L143
 2218              	.L158:
 943:Drivers/BSP/Components/ov5640/ov5640.c ****     CAMERA_IO_Write(DeviceAddr, 0x5582, 0x40);
 2219              		.loc 1 943 5 view .LVU436
 2220 024a 6F22     		movs	r2, #111
 2221 024c 45F28151 		movw	r1, #21889
 2222 0250 2846     		mov	r0, r5
 2223 0252 FFF7FEFF 		bl	CAMERA_IO_Write
 2224              	.LVL298:
 944:Drivers/BSP/Components/ov5640/ov5640.c ****     CAMERA_IO_Write(DeviceAddr, 0x5588, 0x32);
 2225              		.loc 1 944 5 view .LVU437
 2226 0256 4022     		movs	r2, #64
 2227 0258 45F28251 		movw	r1, #21890
 2228 025c 2846     		mov	r0, r5
 2229 025e FFF7FEFF 		bl	CAMERA_IO_Write
 2230              	.LVL299:
 945:Drivers/BSP/Components/ov5640/ov5640.c ****     break;
 2231              		.loc 1 945 5 view .LVU438
 2232 0262 3222     		movs	r2, #50
 2233 0264 45F28851 		movw	r1, #21896
 2234 0268 2846     		mov	r0, r5
 2235 026a FFF7FEFF 		bl	CAMERA_IO_Write
 2236              	.LVL300:
 946:Drivers/BSP/Components/ov5640/ov5640.c **** 
 2237              		.loc 1 946 5 view .LVU439
 2238 026e 53E7     		b	.L143
 2239              	.L146:
 956:Drivers/BSP/Components/ov5640/ov5640.c ****     CAMERA_IO_Write(DeviceAddr, 0x5582, 0x00);
 2240              		.loc 1 956 5 view .LVU440
 2241 0270 8022     		movs	r2, #128
 2242 0272 45F28151 		movw	r1, #21889
 2243 0276 2846     		mov	r0, r5
 2244 0278 FFF7FEFF 		bl	CAMERA_IO_Write
 2245              	.LVL301:
 957:Drivers/BSP/Components/ov5640/ov5640.c ****     CAMERA_IO_Write(DeviceAddr, 0x5588, 0x01);
 2246              		.loc 1 957 5 view .LVU441
 2247 027c 0022     		movs	r2, #0
 2248 027e 45F28251 		movw	r1, #21890
 2249 0282 2846     		mov	r0, r5
 2250 0284 FFF7FEFF 		bl	CAMERA_IO_Write
 2251              	.LVL302:
 958:Drivers/BSP/Components/ov5640/ov5640.c ****     break;
 2252              		.loc 1 958 5 view .LVU442
 2253 0288 0122     		movs	r2, #1
 2254 028a 45F28851 		movw	r1, #21896
 2255 028e 2846     		mov	r0, r5
 2256 0290 FFF7FEFF 		bl	CAMERA_IO_Write
 2257              	.LVL303:
ARM GAS  /var/folders/n6/c271nzx11xl4r4_m7sqjlt0m0000gn/T//cc8PHvwW.s 			page 70


 959:Drivers/BSP/Components/ov5640/ov5640.c ****   }
 2258              		.loc 1 959 5 view .LVU443
 961:Drivers/BSP/Components/ov5640/ov5640.c **** 
 2259              		.loc 1 961 1 is_stmt 0 view .LVU444
 2260 0294 40E7     		b	.L143
 2261              		.cfi_endproc
 2262              	.LFE6:
 2264              		.section	.text.OV5640_MirrorFlipConfig,"ax",%progbits
 2265              		.align	1
 2266              		.global	OV5640_MirrorFlipConfig
 2267              		.syntax unified
 2268              		.thumb
 2269              		.thumb_func
 2271              	OV5640_MirrorFlipConfig:
 2272              	.LVL304:
 2273              	.LFB7:
 970:Drivers/BSP/Components/ov5640/ov5640.c ****   uint8_t tmp3820 = 0, tmp3821;
 2274              		.loc 1 970 1 is_stmt 1 view -0
 2275              		.cfi_startproc
 2276              		@ args = 0, pretend = 0, frame = 0
 2277              		@ frame_needed = 0, uses_anonymous_args = 0
 970:Drivers/BSP/Components/ov5640/ov5640.c ****   uint8_t tmp3820 = 0, tmp3821;
 2278              		.loc 1 970 1 is_stmt 0 view .LVU446
 2279 0000 F8B5     		push	{r3, r4, r5, r6, r7, lr}
 2280              		.cfi_def_cfa_offset 24
 2281              		.cfi_offset 3, -24
 2282              		.cfi_offset 4, -20
 2283              		.cfi_offset 5, -16
 2284              		.cfi_offset 6, -12
 2285              		.cfi_offset 7, -8
 2286              		.cfi_offset 14, -4
 2287 0002 0D46     		mov	r5, r1
 971:Drivers/BSP/Components/ov5640/ov5640.c **** 
 2288              		.loc 1 971 3 is_stmt 1 view .LVU447
 2289              	.LVL305:
 973:Drivers/BSP/Components/ov5640/ov5640.c ****   tmp3820 &= 0xF9;
 2290              		.loc 1 973 3 view .LVU448
 973:Drivers/BSP/Components/ov5640/ov5640.c ****   tmp3820 &= 0xF9;
 2291              		.loc 1 973 13 is_stmt 0 view .LVU449
 2292 0004 C4B2     		uxtb	r4, r0
 2293 0006 43F62001 		movw	r1, #14368
 2294              	.LVL306:
 973:Drivers/BSP/Components/ov5640/ov5640.c ****   tmp3820 &= 0xF9;
 2295              		.loc 1 973 13 view .LVU450
 2296 000a 2046     		mov	r0, r4
 2297              	.LVL307:
 973:Drivers/BSP/Components/ov5640/ov5640.c ****   tmp3820 &= 0xF9;
 2298              		.loc 1 973 13 view .LVU451
 2299 000c FFF7FEFF 		bl	CAMERA_IO_Read
 2300              	.LVL308:
 974:Drivers/BSP/Components/ov5640/ov5640.c ****   tmp3821 = CAMERA_IO_Read(DeviceAddr, 0x3821);
 2301              		.loc 1 974 3 is_stmt 1 view .LVU452
 974:Drivers/BSP/Components/ov5640/ov5640.c ****   tmp3821 = CAMERA_IO_Read(DeviceAddr, 0x3821);
 2302              		.loc 1 974 11 is_stmt 0 view .LVU453
 2303 0010 00F0F907 		and	r7, r0, #249
 2304              	.LVL309:
 975:Drivers/BSP/Components/ov5640/ov5640.c ****   tmp3821 &= 0xF9;
ARM GAS  /var/folders/n6/c271nzx11xl4r4_m7sqjlt0m0000gn/T//cc8PHvwW.s 			page 71


 2305              		.loc 1 975 3 is_stmt 1 view .LVU454
 975:Drivers/BSP/Components/ov5640/ov5640.c ****   tmp3821 &= 0xF9;
 2306              		.loc 1 975 13 is_stmt 0 view .LVU455
 2307 0014 43F62101 		movw	r1, #14369
 2308 0018 2046     		mov	r0, r4
 2309 001a FFF7FEFF 		bl	CAMERA_IO_Read
 2310              	.LVL310:
 976:Drivers/BSP/Components/ov5640/ov5640.c **** 
 2311              		.loc 1 976 3 is_stmt 1 view .LVU456
 976:Drivers/BSP/Components/ov5640/ov5640.c **** 
 2312              		.loc 1 976 11 is_stmt 0 view .LVU457
 2313 001e 00F0F906 		and	r6, r0, #249
 2314              	.LVL311:
 978:Drivers/BSP/Components/ov5640/ov5640.c ****   {
 2315              		.loc 1 978 3 is_stmt 1 view .LVU458
 2316 0022 042D     		cmp	r5, #4
 2317 0024 3DD8     		bhi	.L165
 2318 0026 DFE805F0 		tbb	[pc, r5]
 2319              	.L167:
 2320 002a 03       		.byte	(.L170-.L167)/2
 2321 002b 11       		.byte	(.L169-.L167)/2
 2322 002c 1F       		.byte	(.L168-.L167)/2
 2323 002d 3C       		.byte	(.L165-.L167)/2
 2324 002e 2E       		.byte	(.L166-.L167)/2
 2325 002f 00       		.p2align 1
 2326              	.L170:
 981:Drivers/BSP/Components/ov5640/ov5640.c ****     CAMERA_IO_Write(DeviceAddr, 0x3821, tmp3821 | 0x06);
 2327              		.loc 1 981 5 view .LVU459
 2328 0030 3A46     		mov	r2, r7
 2329 0032 43F62001 		movw	r1, #14368
 2330 0036 2046     		mov	r0, r4
 2331 0038 FFF7FEFF 		bl	CAMERA_IO_Write
 2332              	.LVL312:
 982:Drivers/BSP/Components/ov5640/ov5640.c ****     break;
 2333              		.loc 1 982 5 view .LVU460
 2334 003c 46F00602 		orr	r2, r6, #6
 2335 0040 43F62101 		movw	r1, #14369
 2336 0044 2046     		mov	r0, r4
 2337 0046 FFF7FEFF 		bl	CAMERA_IO_Write
 2338              	.LVL313:
 983:Drivers/BSP/Components/ov5640/ov5640.c **** 
 2339              		.loc 1 983 5 view .LVU461
 2340              	.L164:
1004:Drivers/BSP/Components/ov5640/ov5640.c **** 
 2341              		.loc 1 1004 1 is_stmt 0 view .LVU462
 2342 004a F8BD     		pop	{r3, r4, r5, r6, r7, pc}
 2343              	.LVL314:
 2344              	.L169:
 986:Drivers/BSP/Components/ov5640/ov5640.c ****     CAMERA_IO_Write(DeviceAddr, 0x3821, tmp3821 | 0x00);
 2345              		.loc 1 986 5 is_stmt 1 view .LVU463
 2346 004c 47F00602 		orr	r2, r7, #6
 2347 0050 43F62001 		movw	r1, #14368
 2348 0054 2046     		mov	r0, r4
 2349 0056 FFF7FEFF 		bl	CAMERA_IO_Write
 2350              	.LVL315:
 987:Drivers/BSP/Components/ov5640/ov5640.c ****     break;
 2351              		.loc 1 987 5 view .LVU464
ARM GAS  /var/folders/n6/c271nzx11xl4r4_m7sqjlt0m0000gn/T//cc8PHvwW.s 			page 72


 2352 005a 3246     		mov	r2, r6
 2353 005c 43F62101 		movw	r1, #14369
 2354 0060 2046     		mov	r0, r4
 2355 0062 FFF7FEFF 		bl	CAMERA_IO_Write
 2356              	.LVL316:
 988:Drivers/BSP/Components/ov5640/ov5640.c ****   case OV5640_MIRROR_FLIP:
 2357              		.loc 1 988 5 view .LVU465
 2358 0066 F0E7     		b	.L164
 2359              	.L168:
 990:Drivers/BSP/Components/ov5640/ov5640.c ****     CAMERA_IO_Write(DeviceAddr, 0x3821, tmp3821 | 0x06);
 2360              		.loc 1 990 5 view .LVU466
 2361 0068 47F00602 		orr	r2, r7, #6
 2362 006c 43F62001 		movw	r1, #14368
 2363 0070 2046     		mov	r0, r4
 2364 0072 FFF7FEFF 		bl	CAMERA_IO_Write
 2365              	.LVL317:
 991:Drivers/BSP/Components/ov5640/ov5640.c ****     break;
 2366              		.loc 1 991 5 view .LVU467
 2367 0076 46F00602 		orr	r2, r6, #6
 2368 007a 43F62101 		movw	r1, #14369
 2369 007e 2046     		mov	r0, r4
 2370 0080 FFF7FEFF 		bl	CAMERA_IO_Write
 2371              	.LVL318:
 992:Drivers/BSP/Components/ov5640/ov5640.c **** 
 2372              		.loc 1 992 5 view .LVU468
 2373 0084 E1E7     		b	.L164
 2374              	.L166:
 995:Drivers/BSP/Components/ov5640/ov5640.c ****     CAMERA_IO_Write(DeviceAddr, 0x3821, tmp3821 | 0x06);
 2375              		.loc 1 995 5 view .LVU469
 2376 0086 3A46     		mov	r2, r7
 2377 0088 43F62001 		movw	r1, #14368
 2378 008c 2046     		mov	r0, r4
 2379 008e FFF7FEFF 		bl	CAMERA_IO_Write
 2380              	.LVL319:
 996:Drivers/BSP/Components/ov5640/ov5640.c ****     break;
 2381              		.loc 1 996 5 view .LVU470
 2382 0092 46F00602 		orr	r2, r6, #6
 2383 0096 43F62101 		movw	r1, #14369
 2384 009a 2046     		mov	r0, r4
 2385 009c FFF7FEFF 		bl	CAMERA_IO_Write
 2386              	.LVL320:
 997:Drivers/BSP/Components/ov5640/ov5640.c **** 
 2387              		.loc 1 997 5 view .LVU471
 2388 00a0 D3E7     		b	.L164
 2389              	.L165:
1000:Drivers/BSP/Components/ov5640/ov5640.c ****     CAMERA_IO_Write(DeviceAddr, 0x3821, tmp3821 | 0x00);
 2390              		.loc 1 1000 5 view .LVU472
 2391 00a2 3A46     		mov	r2, r7
 2392 00a4 43F62001 		movw	r1, #14368
 2393 00a8 2046     		mov	r0, r4
 2394 00aa FFF7FEFF 		bl	CAMERA_IO_Write
 2395              	.LVL321:
1001:Drivers/BSP/Components/ov5640/ov5640.c ****     break;
 2396              		.loc 1 1001 5 view .LVU473
 2397 00ae 3246     		mov	r2, r6
 2398 00b0 43F62101 		movw	r1, #14369
 2399 00b4 2046     		mov	r0, r4
ARM GAS  /var/folders/n6/c271nzx11xl4r4_m7sqjlt0m0000gn/T//cc8PHvwW.s 			page 73


 2400 00b6 FFF7FEFF 		bl	CAMERA_IO_Write
 2401              	.LVL322:
1002:Drivers/BSP/Components/ov5640/ov5640.c ****   }
 2402              		.loc 1 1002 5 view .LVU474
1004:Drivers/BSP/Components/ov5640/ov5640.c **** 
 2403              		.loc 1 1004 1 is_stmt 0 view .LVU475
 2404 00ba C6E7     		b	.L164
 2405              		.cfi_endproc
 2406              	.LFE7:
 2408              		.section	.text.OV5640_GetResolution,"ax",%progbits
 2409              		.align	1
 2410              		.global	OV5640_GetResolution
 2411              		.syntax unified
 2412              		.thumb
 2413              		.thumb_func
 2415              	OV5640_GetResolution:
 2416              	.LVL323:
 2417              	.LFB9:
1049:Drivers/BSP/Components/ov5640/ov5640.c ****   uint16_t x_size = 0, y_size = 0;
 2418              		.loc 1 1049 1 is_stmt 1 view -0
 2419              		.cfi_startproc
 2420              		@ args = 0, pretend = 0, frame = 0
 2421              		@ frame_needed = 0, uses_anonymous_args = 0
1049:Drivers/BSP/Components/ov5640/ov5640.c ****   uint16_t x_size = 0, y_size = 0;
 2422              		.loc 1 1049 1 is_stmt 0 view .LVU477
 2423 0000 70B5     		push	{r4, r5, r6, lr}
 2424              		.cfi_def_cfa_offset 16
 2425              		.cfi_offset 4, -16
 2426              		.cfi_offset 5, -12
 2427              		.cfi_offset 6, -8
 2428              		.cfi_offset 14, -4
1050:Drivers/BSP/Components/ov5640/ov5640.c ****   int32_t res = CAMERA_R640x480;
 2429              		.loc 1 1050 3 is_stmt 1 view .LVU478
 2430              	.LVL324:
1051:Drivers/BSP/Components/ov5640/ov5640.c **** 
 2431              		.loc 1 1051 3 view .LVU479
1053:Drivers/BSP/Components/ov5640/ov5640.c ****   x_size |= CAMERA_IO_Read(DeviceAddr, 0x3809);
 2432              		.loc 1 1053 3 view .LVU480
1053:Drivers/BSP/Components/ov5640/ov5640.c ****   x_size |= CAMERA_IO_Read(DeviceAddr, 0x3809);
 2433              		.loc 1 1053 12 is_stmt 0 view .LVU481
 2434 0002 C6B2     		uxtb	r6, r0
 2435 0004 43F60801 		movw	r1, #14344
 2436 0008 3046     		mov	r0, r6
 2437              	.LVL325:
1053:Drivers/BSP/Components/ov5640/ov5640.c ****   x_size |= CAMERA_IO_Read(DeviceAddr, 0x3809);
 2438              		.loc 1 1053 12 view .LVU482
 2439 000a FFF7FEFF 		bl	CAMERA_IO_Read
 2440              	.LVL326:
1053:Drivers/BSP/Components/ov5640/ov5640.c ****   x_size |= CAMERA_IO_Read(DeviceAddr, 0x3809);
 2441              		.loc 1 1053 10 discriminator 1 view .LVU483
 2442 000e 0502     		lsls	r5, r0, #8
 2443 0010 ADB2     		uxth	r5, r5
 2444              	.LVL327:
1054:Drivers/BSP/Components/ov5640/ov5640.c ****   y_size = CAMERA_IO_Read(DeviceAddr, 0x380A) << 8;
 2445              		.loc 1 1054 3 is_stmt 1 view .LVU484
1054:Drivers/BSP/Components/ov5640/ov5640.c ****   y_size = CAMERA_IO_Read(DeviceAddr, 0x380A) << 8;
 2446              		.loc 1 1054 13 is_stmt 0 view .LVU485
ARM GAS  /var/folders/n6/c271nzx11xl4r4_m7sqjlt0m0000gn/T//cc8PHvwW.s 			page 74


 2447 0012 43F60901 		movw	r1, #14345
 2448 0016 3046     		mov	r0, r6
 2449 0018 FFF7FEFF 		bl	CAMERA_IO_Read
 2450              	.LVL328:
1054:Drivers/BSP/Components/ov5640/ov5640.c ****   y_size = CAMERA_IO_Read(DeviceAddr, 0x380A) << 8;
 2451              		.loc 1 1054 10 discriminator 1 view .LVU486
 2452 001c 0543     		orrs	r5, r5, r0
 2453              	.LVL329:
1054:Drivers/BSP/Components/ov5640/ov5640.c ****   y_size = CAMERA_IO_Read(DeviceAddr, 0x380A) << 8;
 2454              		.loc 1 1054 10 discriminator 1 view .LVU487
 2455 001e ADB2     		uxth	r5, r5
 2456              	.LVL330:
1055:Drivers/BSP/Components/ov5640/ov5640.c ****   y_size |= CAMERA_IO_Read(DeviceAddr, 0x380B);
 2457              		.loc 1 1055 3 is_stmt 1 view .LVU488
1055:Drivers/BSP/Components/ov5640/ov5640.c ****   y_size |= CAMERA_IO_Read(DeviceAddr, 0x380B);
 2458              		.loc 1 1055 12 is_stmt 0 view .LVU489
 2459 0020 43F60A01 		movw	r1, #14346
 2460 0024 3046     		mov	r0, r6
 2461 0026 FFF7FEFF 		bl	CAMERA_IO_Read
 2462              	.LVL331:
1055:Drivers/BSP/Components/ov5640/ov5640.c ****   y_size |= CAMERA_IO_Read(DeviceAddr, 0x380B);
 2463              		.loc 1 1055 10 discriminator 1 view .LVU490
 2464 002a 0402     		lsls	r4, r0, #8
 2465 002c A4B2     		uxth	r4, r4
 2466              	.LVL332:
1056:Drivers/BSP/Components/ov5640/ov5640.c **** 
 2467              		.loc 1 1056 3 is_stmt 1 view .LVU491
1056:Drivers/BSP/Components/ov5640/ov5640.c **** 
 2468              		.loc 1 1056 13 is_stmt 0 view .LVU492
 2469 002e 43F60B01 		movw	r1, #14347
 2470 0032 3046     		mov	r0, r6
 2471 0034 FFF7FEFF 		bl	CAMERA_IO_Read
 2472              	.LVL333:
1056:Drivers/BSP/Components/ov5640/ov5640.c **** 
 2473              		.loc 1 1056 10 discriminator 1 view .LVU493
 2474 0038 44EA0003 		orr	r3, r4, r0
 2475 003c 9BB2     		uxth	r3, r3
 2476              	.LVL334:
1058:Drivers/BSP/Components/ov5640/ov5640.c ****   {
 2477              		.loc 1 1058 3 is_stmt 1 view .LVU494
1058:Drivers/BSP/Components/ov5640/ov5640.c ****   {
 2478              		.loc 1 1058 5 is_stmt 0 view .LVU495
 2479 003e B5F5207F 		cmp	r5, #640
 2480 0042 08BF     		it	eq
 2481 0044 B3F5F07F 		cmpeq	r3, #480
 2482 0048 10D0     		beq	.L175
1062:Drivers/BSP/Components/ov5640/ov5640.c ****   {
 2483              		.loc 1 1062 8 is_stmt 1 view .LVU496
1062:Drivers/BSP/Components/ov5640/ov5640.c ****   {
 2484              		.loc 1 1062 10 is_stmt 0 view .LVU497
 2485 004a B5F5F07F 		cmp	r5, #480
 2486 004e 08BF     		it	eq
 2487 0050 B3F5887F 		cmpeq	r3, #272
 2488 0054 0CD0     		beq	.L176
1066:Drivers/BSP/Components/ov5640/ov5640.c ****   {
 2489              		.loc 1 1066 8 is_stmt 1 view .LVU498
1066:Drivers/BSP/Components/ov5640/ov5640.c ****   {
ARM GAS  /var/folders/n6/c271nzx11xl4r4_m7sqjlt0m0000gn/T//cc8PHvwW.s 			page 75


 2490              		.loc 1 1066 10 is_stmt 0 view .LVU499
 2491 0056 B5F5A07F 		cmp	r5, #320
 2492 005a 08BF     		it	eq
 2493 005c F02B     		cmpeq	r3, #240
 2494 005e 09D0     		beq	.L177
1070:Drivers/BSP/Components/ov5640/ov5640.c ****   {
 2495              		.loc 1 1070 8 is_stmt 1 view .LVU500
1070:Drivers/BSP/Components/ov5640/ov5640.c ****   {
 2496              		.loc 1 1070 10 is_stmt 0 view .LVU501
 2497 0060 A02D     		cmp	r5, #160
 2498 0062 08BF     		it	eq
 2499 0064 782B     		cmpeq	r3, #120
 2500 0066 07D1     		bne	.L178
1072:Drivers/BSP/Components/ov5640/ov5640.c ****   }
 2501              		.loc 1 1072 9 view .LVU502
 2502 0068 0020     		movs	r0, #0
 2503 006a 00E0     		b	.L173
 2504              	.L175:
1060:Drivers/BSP/Components/ov5640/ov5640.c ****   }
 2505              		.loc 1 1060 9 view .LVU503
 2506 006c 0320     		movs	r0, #3
 2507              	.LVL335:
 2508              	.L173:
1079:Drivers/BSP/Components/ov5640/ov5640.c **** 
 2509              		.loc 1 1079 1 view .LVU504
 2510 006e 70BD     		pop	{r4, r5, r6, pc}
 2511              	.LVL336:
 2512              	.L176:
1064:Drivers/BSP/Components/ov5640/ov5640.c ****   }
 2513              		.loc 1 1064 9 view .LVU505
 2514 0070 0220     		movs	r0, #2
 2515 0072 FCE7     		b	.L173
 2516              	.L177:
1068:Drivers/BSP/Components/ov5640/ov5640.c ****   }
 2517              		.loc 1 1068 9 view .LVU506
 2518 0074 0120     		movs	r0, #1
 2519 0076 FAE7     		b	.L173
 2520              	.L178:
1076:Drivers/BSP/Components/ov5640/ov5640.c ****   }
 2521              		.loc 1 1076 9 view .LVU507
 2522 0078 FF20     		movs	r0, #255
 2523              	.LVL337:
1078:Drivers/BSP/Components/ov5640/ov5640.c **** }
 2524              		.loc 1 1078 3 is_stmt 1 view .LVU508
1078:Drivers/BSP/Components/ov5640/ov5640.c **** }
 2525              		.loc 1 1078 10 is_stmt 0 view .LVU509
 2526 007a F8E7     		b	.L173
 2527              		.cfi_endproc
 2528              	.LFE9:
 2530              		.section	.text.OV5640_ZoomConfig,"ax",%progbits
 2531              		.align	1
 2532              		.global	OV5640_ZoomConfig
 2533              		.syntax unified
 2534              		.thumb
 2535              		.thumb_func
 2537              	OV5640_ZoomConfig:
 2538              	.LVL338:
ARM GAS  /var/folders/n6/c271nzx11xl4r4_m7sqjlt0m0000gn/T//cc8PHvwW.s 			page 76


 2539              	.LFB8:
1013:Drivers/BSP/Components/ov5640/ov5640.c ****   int32_t res = 0;
 2540              		.loc 1 1013 1 is_stmt 1 view -0
 2541              		.cfi_startproc
 2542              		@ args = 0, pretend = 0, frame = 0
 2543              		@ frame_needed = 0, uses_anonymous_args = 0
1013:Drivers/BSP/Components/ov5640/ov5640.c ****   int32_t res = 0;
 2544              		.loc 1 1013 1 is_stmt 0 view .LVU511
 2545 0000 38B5     		push	{r3, r4, r5, lr}
 2546              		.cfi_def_cfa_offset 16
 2547              		.cfi_offset 3, -16
 2548              		.cfi_offset 4, -12
 2549              		.cfi_offset 5, -8
 2550              		.cfi_offset 14, -4
 2551 0002 0446     		mov	r4, r0
 2552 0004 0D46     		mov	r5, r1
1014:Drivers/BSP/Components/ov5640/ov5640.c **** 
 2553              		.loc 1 1014 3 is_stmt 1 view .LVU512
 2554              	.LVL339:
1017:Drivers/BSP/Components/ov5640/ov5640.c **** 
 2555              		.loc 1 1017 3 view .LVU513
1017:Drivers/BSP/Components/ov5640/ov5640.c **** 
 2556              		.loc 1 1017 9 is_stmt 0 view .LVU514
 2557 0006 FFF7FEFF 		bl	OV5640_GetResolution
 2558              	.LVL340:
1019:Drivers/BSP/Components/ov5640/ov5640.c ****   {
 2559              		.loc 1 1019 3 is_stmt 1 view .LVU515
1019:Drivers/BSP/Components/ov5640/ov5640.c ****   {
 2560              		.loc 1 1019 5 is_stmt 0 view .LVU516
 2561 000a 442D     		cmp	r5, #68
 2562 000c 05D0     		beq	.L188
1025:Drivers/BSP/Components/ov5640/ov5640.c ****     {
 2563              		.loc 1 1025 5 is_stmt 1 view .LVU517
 2564 000e 0228     		cmp	r0, #2
 2565 0010 0ADD     		ble	.L189
 2566 0012 0328     		cmp	r0, #3
 2567 0014 0BD1     		bne	.L185
1032:Drivers/BSP/Components/ov5640/ov5640.c ****       break;
 2568              		.loc 1 1032 7 view .LVU518
1032:Drivers/BSP/Components/ov5640/ov5640.c ****       break;
 2569              		.loc 1 1032 12 is_stmt 0 view .LVU519
 2570 0016 AD08     		lsrs	r5, r5, #2
 2571              	.LVL341:
1033:Drivers/BSP/Components/ov5640/ov5640.c ****     default:
 2572              		.loc 1 1033 7 is_stmt 1 view .LVU520
 2573 0018 09E0     		b	.L185
 2574              	.LVL342:
 2575              	.L188:
1021:Drivers/BSP/Components/ov5640/ov5640.c ****   }
 2576              		.loc 1 1021 5 view .LVU521
 2577 001a 1022     		movs	r2, #16
 2578 001c 4FF4AC41 		mov	r1, #22016
 2579 0020 E0B2     		uxtb	r0, r4
 2580              	.LVL343:
1021:Drivers/BSP/Components/ov5640/ov5640.c ****   }
 2581              		.loc 1 1021 5 is_stmt 0 view .LVU522
 2582 0022 FFF7FEFF 		bl	CAMERA_IO_Write
ARM GAS  /var/folders/n6/c271nzx11xl4r4_m7sqjlt0m0000gn/T//cc8PHvwW.s 			page 77


 2583              	.LVL344:
 2584 0026 0FE0     		b	.L180
 2585              	.LVL345:
 2586              	.L189:
1025:Drivers/BSP/Components/ov5640/ov5640.c ****     {
 2587              		.loc 1 1025 5 view .LVU523
 2588 0028 0028     		cmp	r0, #0
 2589 002a 00DD     		ble	.L185
1029:Drivers/BSP/Components/ov5640/ov5640.c ****       break;
 2590              		.loc 1 1029 7 is_stmt 1 view .LVU524
1029:Drivers/BSP/Components/ov5640/ov5640.c ****       break;
 2591              		.loc 1 1029 12 is_stmt 0 view .LVU525
 2592 002c 6D08     		lsrs	r5, r5, #1
 2593              	.LVL346:
1030:Drivers/BSP/Components/ov5640/ov5640.c ****     case CAMERA_R640x480:
 2594              		.loc 1 1030 7 is_stmt 1 view .LVU526
 2595              	.L185:
1038:Drivers/BSP/Components/ov5640/ov5640.c ****     CAMERA_IO_Write(DeviceAddr, 0x5601, Zoom);
 2596              		.loc 1 1038 5 view .LVU527
 2597 002e E4B2     		uxtb	r4, r4
 2598              	.LVL347:
1038:Drivers/BSP/Components/ov5640/ov5640.c ****     CAMERA_IO_Write(DeviceAddr, 0x5601, Zoom);
 2599              		.loc 1 1038 5 is_stmt 0 view .LVU528
 2600 0030 0022     		movs	r2, #0
 2601 0032 4FF4AC41 		mov	r1, #22016
 2602 0036 2046     		mov	r0, r4
 2603              	.LVL348:
1038:Drivers/BSP/Components/ov5640/ov5640.c ****     CAMERA_IO_Write(DeviceAddr, 0x5601, Zoom);
 2604              		.loc 1 1038 5 view .LVU529
 2605 0038 FFF7FEFF 		bl	CAMERA_IO_Write
 2606              	.LVL349:
1039:Drivers/BSP/Components/ov5640/ov5640.c ****   }
 2607              		.loc 1 1039 5 is_stmt 1 view .LVU530
 2608 003c 2A46     		mov	r2, r5
 2609 003e 45F20161 		movw	r1, #22017
 2610 0042 2046     		mov	r0, r4
 2611 0044 FFF7FEFF 		bl	CAMERA_IO_Write
 2612              	.LVL350:
 2613              	.L180:
1041:Drivers/BSP/Components/ov5640/ov5640.c **** 
 2614              		.loc 1 1041 1 is_stmt 0 view .LVU531
 2615 0048 38BD     		pop	{r3, r4, r5, pc}
 2616              		.cfi_endproc
 2617              	.LFE8:
 2619              		.global	OV5640_LightModeSunny
 2620              		.section	.rodata.OV5640_LightModeSunny,"a"
 2621              		.align	2
 2624              	OV5640_LightModeSunny:
 2625 0000 0634     		.short	13318
 2626 0002 0100     		.short	1
 2627 0004 0034     		.short	13312
 2628 0006 0600     		.short	6
 2629 0008 0134     		.short	13313
 2630 000a 1C00     		.short	28
 2631 000c 0234     		.short	13314
 2632 000e 0400     		.short	4
 2633 0010 0334     		.short	13315
ARM GAS  /var/folders/n6/c271nzx11xl4r4_m7sqjlt0m0000gn/T//cc8PHvwW.s 			page 78


 2634 0012 0000     		.short	0
 2635 0014 0434     		.short	13316
 2636 0016 0400     		.short	4
 2637 0018 0534     		.short	13317
 2638 001a F300     		.short	243
 2639              		.global	OV5640_LightModeHome
 2640              		.section	.rodata.OV5640_LightModeHome,"a"
 2641              		.align	2
 2644              	OV5640_LightModeHome:
 2645 0000 0634     		.short	13318
 2646 0002 0100     		.short	1
 2647 0004 0034     		.short	13312
 2648 0006 0400     		.short	4
 2649 0008 0134     		.short	13313
 2650 000a 1000     		.short	16
 2651 000c 0234     		.short	13314
 2652 000e 0400     		.short	4
 2653 0010 0334     		.short	13315
 2654 0012 0000     		.short	0
 2655 0014 0434     		.short	13316
 2656 0016 0800     		.short	8
 2657 0018 0534     		.short	13317
 2658 001a B600     		.short	182
 2659              		.global	OV5640_LightModeOffice
 2660              		.section	.rodata.OV5640_LightModeOffice,"a"
 2661              		.align	2
 2664              	OV5640_LightModeOffice:
 2665 0000 0634     		.short	13318
 2666 0002 0100     		.short	1
 2667 0004 0034     		.short	13312
 2668 0006 0500     		.short	5
 2669 0008 0134     		.short	13313
 2670 000a 4800     		.short	72
 2671 000c 0234     		.short	13314
 2672 000e 0400     		.short	4
 2673 0010 0334     		.short	13315
 2674 0012 0000     		.short	0
 2675 0014 0434     		.short	13316
 2676 0016 0700     		.short	7
 2677 0018 0534     		.short	13317
 2678 001a CF00     		.short	207
 2679              		.global	OV5640_LightModeCloudy
 2680              		.section	.rodata.OV5640_LightModeCloudy,"a"
 2681              		.align	2
 2684              	OV5640_LightModeCloudy:
 2685 0000 0634     		.short	13318
 2686 0002 0100     		.short	1
 2687 0004 0034     		.short	13312
 2688 0006 0600     		.short	6
 2689 0008 0134     		.short	13313
 2690 000a 4800     		.short	72
 2691 000c 0234     		.short	13314
 2692 000e 0400     		.short	4
 2693 0010 0334     		.short	13315
 2694 0012 0000     		.short	0
 2695 0014 0434     		.short	13316
 2696 0016 0400     		.short	4
ARM GAS  /var/folders/n6/c271nzx11xl4r4_m7sqjlt0m0000gn/T//cc8PHvwW.s 			page 79


 2697 0018 0534     		.short	13317
 2698 001a D300     		.short	211
 2699              		.global	OV5640_LightModeAuto
 2700              		.section	.rodata.OV5640_LightModeAuto,"a"
 2701              		.align	2
 2704              	OV5640_LightModeAuto:
 2705 0000 0634     		.short	13318
 2706 0002 0000     		.short	0
 2707 0004 0034     		.short	13312
 2708 0006 0400     		.short	4
 2709 0008 0134     		.short	13313
 2710 000a 0000     		.short	0
 2711 000c 0234     		.short	13314
 2712 000e 0400     		.short	4
 2713 0010 0334     		.short	13315
 2714 0012 0000     		.short	0
 2715 0014 0434     		.short	13316
 2716 0016 0400     		.short	4
 2717 0018 0534     		.short	13317
 2718 001a 0000     		.short	0
 2719              		.global	OV5640_QQVGA
 2720              		.section	.rodata.OV5640_QQVGA,"a"
 2721              		.align	2
 2724              	OV5640_QQVGA:
 2725 0000 0838     		.short	14344
 2726 0002 0000     		.short	0
 2727 0004 0938     		.short	14345
 2728 0006 A000     		.short	160
 2729 0008 0A38     		.short	14346
 2730 000a 0000     		.short	0
 2731 000c 0B38     		.short	14347
 2732 000e 7800     		.short	120
 2733 0010 0043     		.short	17152
 2734 0012 6F00     		.short	111
 2735 0014 4047     		.short	18240
 2736 0016 2200     		.short	34
 2737 0018 1F50     		.short	20511
 2738 001a 0100     		.short	1
 2739              		.global	OV5640_QVGA
 2740              		.section	.rodata.OV5640_QVGA,"a"
 2741              		.align	2
 2744              	OV5640_QVGA:
 2745 0000 0838     		.short	14344
 2746 0002 0100     		.short	1
 2747 0004 0938     		.short	14345
 2748 0006 4000     		.short	64
 2749 0008 0A38     		.short	14346
 2750 000a 0000     		.short	0
 2751 000c 0B38     		.short	14347
 2752 000e F000     		.short	240
 2753 0010 0043     		.short	17152
 2754 0012 6F00     		.short	111
 2755 0014 4047     		.short	18240
 2756 0016 2200     		.short	34
 2757 0018 1F50     		.short	20511
 2758 001a 0100     		.short	1
 2759              		.global	OV5640_480x272
ARM GAS  /var/folders/n6/c271nzx11xl4r4_m7sqjlt0m0000gn/T//cc8PHvwW.s 			page 80


 2760              		.section	.rodata.OV5640_480x272,"a"
 2761              		.align	2
 2764              	OV5640_480x272:
 2765 0000 0838     		.short	14344
 2766 0002 0100     		.short	1
 2767 0004 0938     		.short	14345
 2768 0006 E000     		.short	224
 2769 0008 0A38     		.short	14346
 2770 000a 0100     		.short	1
 2771 000c 0B38     		.short	14347
 2772 000e 1000     		.short	16
 2773 0010 0043     		.short	17152
 2774 0012 6F00     		.short	111
 2775 0014 4047     		.short	18240
 2776 0016 2200     		.short	34
 2777 0018 1F50     		.short	20511
 2778 001a 0100     		.short	1
 2779              		.global	OV5640_VGA
 2780              		.section	.rodata.OV5640_VGA,"a"
 2781              		.align	2
 2784              	OV5640_VGA:
 2785 0000 0838     		.short	14344
 2786 0002 0200     		.short	2
 2787 0004 0938     		.short	14345
 2788 0006 8000     		.short	128
 2789 0008 0A38     		.short	14346
 2790 000a 0100     		.short	1
 2791 000c 0B38     		.short	14347
 2792 000e E000     		.short	224
 2793 0010 0043     		.short	17152
 2794 0012 6F00     		.short	111
 2795 0014 4047     		.short	18240
 2796 0016 2200     		.short	34
 2797 0018 1F50     		.short	20511
 2798 001a 0100     		.short	1
 2799              		.global	OV5640_WVGA
 2800              		.section	.rodata.OV5640_WVGA,"a"
 2801              		.align	2
 2804              	OV5640_WVGA:
 2805 0000 0838     		.short	14344
 2806 0002 0300     		.short	3
 2807 0004 0938     		.short	14345
 2808 0006 2000     		.short	32
 2809 0008 0A38     		.short	14346
 2810 000a 0100     		.short	1
 2811 000c 0B38     		.short	14347
 2812 000e E000     		.short	224
 2813 0010 0043     		.short	17152
 2814 0012 6F00     		.short	111
 2815 0014 4047     		.short	18240
 2816 0016 2200     		.short	34
 2817 0018 1F50     		.short	20511
 2818 001a 0100     		.short	1
 2819              		.global	OV5640_Init
 2820              		.section	.rodata.OV5640_Init,"a"
 2821              		.align	2
 2824              	OV5640_Init:
ARM GAS  /var/folders/n6/c271nzx11xl4r4_m7sqjlt0m0000gn/T//cc8PHvwW.s 			page 81


 2825 0000 0331     		.short	12547
 2826 0002 1100     		.short	17
 2827 0004 0830     		.short	12296
 2828 0006 8200     		.short	130
 2829 0008 0331     		.short	12547
 2830 000a 0300     		.short	3
 2831 000c 1730     		.short	12311
 2832 000e FF00     		.short	255
 2833 0010 1830     		.short	12312
 2834 0012 F300     		.short	243
 2835 0014 3430     		.short	12340
 2836 0016 1800     		.short	24
 2837 0018 0830     		.short	12296
 2838 001a 0200     		.short	2
 2839 001c 3530     		.short	12341
 2840 001e 4100     		.short	65
 2841 0020 3630     		.short	12342
 2842 0022 6000     		.short	96
 2843 0024 3730     		.short	12343
 2844 0026 1300     		.short	19
 2845 0028 0831     		.short	12552
 2846 002a 0100     		.short	1
 2847 002c 3036     		.short	13872
 2848 002e 3600     		.short	54
 2849 0030 3136     		.short	13873
 2850 0032 0E00     		.short	14
 2851 0034 3236     		.short	13874
 2852 0036 E200     		.short	226
 2853 0038 3336     		.short	13875
 2854 003a 1200     		.short	18
 2855 003c 2136     		.short	13857
 2856 003e E000     		.short	224
 2857 0040 0437     		.short	14084
 2858 0042 A000     		.short	160
 2859 0044 0337     		.short	14083
 2860 0046 5A00     		.short	90
 2861 0048 1537     		.short	14101
 2862 004a 7800     		.short	120
 2863 004c 1737     		.short	14103
 2864 004e 0100     		.short	1
 2865 0050 0B37     		.short	14091
 2866 0052 6000     		.short	96
 2867 0054 0537     		.short	14085
 2868 0056 1A00     		.short	26
 2869 0058 0539     		.short	14597
 2870 005a 0200     		.short	2
 2871 005c 0639     		.short	14598
 2872 005e 1000     		.short	16
 2873 0060 0139     		.short	14593
 2874 0062 0A00     		.short	10
 2875 0064 3137     		.short	14129
 2876 0066 1200     		.short	18
 2877 0068 0036     		.short	13824
 2878 006a 0800     		.short	8
 2879 006c 0136     		.short	13825
 2880 006e 3300     		.short	51
 2881 0070 2D30     		.short	12333
ARM GAS  /var/folders/n6/c271nzx11xl4r4_m7sqjlt0m0000gn/T//cc8PHvwW.s 			page 82


 2882 0072 6000     		.short	96
 2883 0074 2036     		.short	13856
 2884 0076 5200     		.short	82
 2885 0078 1B37     		.short	14107
 2886 007a 2000     		.short	32
 2887 007c 1C47     		.short	18204
 2888 007e 5000     		.short	80
 2889 0080 133A     		.short	14867
 2890 0082 4300     		.short	67
 2891 0084 183A     		.short	14872
 2892 0086 0000     		.short	0
 2893 0088 193A     		.short	14873
 2894 008a F800     		.short	248
 2895 008c 3536     		.short	13877
 2896 008e 1300     		.short	19
 2897 0090 3636     		.short	13878
 2898 0092 0300     		.short	3
 2899 0094 3436     		.short	13876
 2900 0096 4000     		.short	64
 2901 0098 2236     		.short	13858
 2902 009a 0100     		.short	1
 2903 009c 013C     		.short	15361
 2904 009e 3400     		.short	52
 2905 00a0 043C     		.short	15364
 2906 00a2 2800     		.short	40
 2907 00a4 053C     		.short	15365
 2908 00a6 9800     		.short	152
 2909 00a8 063C     		.short	15366
 2910 00aa 0000     		.short	0
 2911 00ac 073C     		.short	15367
 2912 00ae 0000     		.short	0
 2913 00b0 083C     		.short	15368
 2914 00b2 0100     		.short	1
 2915 00b4 093C     		.short	15369
 2916 00b6 2C00     		.short	44
 2917 00b8 0A3C     		.short	15370
 2918 00ba 9C00     		.short	156
 2919 00bc 0B3C     		.short	15371
 2920 00be 4000     		.short	64
 2921 00c0 2038     		.short	14368
 2922 00c2 0000     		.short	0
 2923 00c4 2138     		.short	14369
 2924 00c6 0600     		.short	6
 2925 00c8 1438     		.short	14356
 2926 00ca 3100     		.short	49
 2927 00cc 1538     		.short	14357
 2928 00ce 3100     		.short	49
 2929 00d0 0038     		.short	14336
 2930 00d2 0000     		.short	0
 2931 00d4 0138     		.short	14337
 2932 00d6 0000     		.short	0
 2933 00d8 0238     		.short	14338
 2934 00da 0000     		.short	0
 2935 00dc 0338     		.short	14339
 2936 00de 0400     		.short	4
 2937 00e0 0438     		.short	14340
 2938 00e2 0A00     		.short	10
ARM GAS  /var/folders/n6/c271nzx11xl4r4_m7sqjlt0m0000gn/T//cc8PHvwW.s 			page 83


 2939 00e4 0538     		.short	14341
 2940 00e6 3F00     		.short	63
 2941 00e8 0638     		.short	14342
 2942 00ea 0700     		.short	7
 2943 00ec 0738     		.short	14343
 2944 00ee 9B00     		.short	155
 2945 00f0 0838     		.short	14344
 2946 00f2 0300     		.short	3
 2947 00f4 0938     		.short	14345
 2948 00f6 2000     		.short	32
 2949 00f8 0A38     		.short	14346
 2950 00fa 0200     		.short	2
 2951 00fc 0B38     		.short	14347
 2952 00fe 5800     		.short	88
 2953 0100 0C38     		.short	14348
 2954 0102 0700     		.short	7
 2955 0104 0D38     		.short	14349
 2956 0106 6800     		.short	104
 2957 0108 0E38     		.short	14350
 2958 010a 0300     		.short	3
 2959 010c 0F38     		.short	14351
 2960 010e D800     		.short	216
 2961 0110 1038     		.short	14352
 2962 0112 0000     		.short	0
 2963 0114 1138     		.short	14353
 2964 0116 1000     		.short	16
 2965 0118 1238     		.short	14354
 2966 011a 0000     		.short	0
 2967 011c 1338     		.short	14355
 2968 011e 0600     		.short	6
 2969 0120 1836     		.short	13848
 2970 0122 0000     		.short	0
 2971 0124 1236     		.short	13842
 2972 0126 2900     		.short	41
 2973 0128 0837     		.short	14088
 2974 012a 6400     		.short	100
 2975 012c 0937     		.short	14089
 2976 012e 5200     		.short	82
 2977 0130 0C37     		.short	14092
 2978 0132 0300     		.short	3
 2979 0134 023A     		.short	14850
 2980 0136 0300     		.short	3
 2981 0138 033A     		.short	14851
 2982 013a D800     		.short	216
 2983 013c 083A     		.short	14856
 2984 013e 0100     		.short	1
 2985 0140 093A     		.short	14857
 2986 0142 2700     		.short	39
 2987 0144 0A3A     		.short	14858
 2988 0146 0000     		.short	0
 2989 0148 0B3A     		.short	14859
 2990 014a F600     		.short	246
 2991 014c 0E3A     		.short	14862
 2992 014e 0300     		.short	3
 2993 0150 0D3A     		.short	14861
 2994 0152 0400     		.short	4
 2995 0154 143A     		.short	14868
ARM GAS  /var/folders/n6/c271nzx11xl4r4_m7sqjlt0m0000gn/T//cc8PHvwW.s 			page 84


 2996 0156 0300     		.short	3
 2997 0158 153A     		.short	14869
 2998 015a D800     		.short	216
 2999 015c 0140     		.short	16385
 3000 015e 0200     		.short	2
 3001 0160 0440     		.short	16388
 3002 0162 0200     		.short	2
 3003 0164 0030     		.short	12288
 3004 0166 0000     		.short	0
 3005 0168 0230     		.short	12290
 3006 016a 1C00     		.short	28
 3007 016c 0430     		.short	12292
 3008 016e FF00     		.short	255
 3009 0170 0630     		.short	12294
 3010 0172 C300     		.short	195
 3011 0174 0E30     		.short	12302
 3012 0176 5800     		.short	88
 3013 0178 2E30     		.short	12334
 3014 017a 0000     		.short	0
 3015 017c 4047     		.short	18240
 3016 017e 2000     		.short	32
 3017 0180 0043     		.short	17152
 3018 0182 3000     		.short	48
 3019 0184 1F50     		.short	20511
 3020 0186 0000     		.short	0
 3021 0188 1347     		.short	18195
 3022 018a 0300     		.short	3
 3023 018c 0744     		.short	17415
 3024 018e 0400     		.short	4
 3025 0190 0E44     		.short	17422
 3026 0192 0000     		.short	0
 3027 0194 0B46     		.short	17931
 3028 0196 3500     		.short	53
 3029 0198 0C46     		.short	17932
 3030 019a 2300     		.short	35
 3031 019c 3748     		.short	18487
 3032 019e 2200     		.short	34
 3033 01a0 2438     		.short	14372
 3034 01a2 0200     		.short	2
 3035 01a4 0050     		.short	20480
 3036 01a6 A700     		.short	167
 3037 01a8 0150     		.short	20481
 3038 01aa A300     		.short	163
 3039 01ac 8051     		.short	20864
 3040 01ae FF00     		.short	255
 3041 01b0 8151     		.short	20865
 3042 01b2 F200     		.short	242
 3043 01b4 8251     		.short	20866
 3044 01b6 0000     		.short	0
 3045 01b8 8351     		.short	20867
 3046 01ba 1400     		.short	20
 3047 01bc 8451     		.short	20868
 3048 01be 2500     		.short	37
 3049 01c0 8551     		.short	20869
 3050 01c2 2400     		.short	36
 3051 01c4 8651     		.short	20870
 3052 01c6 0900     		.short	9
ARM GAS  /var/folders/n6/c271nzx11xl4r4_m7sqjlt0m0000gn/T//cc8PHvwW.s 			page 85


 3053 01c8 8751     		.short	20871
 3054 01ca 0900     		.short	9
 3055 01cc 8851     		.short	20872
 3056 01ce 0900     		.short	9
 3057 01d0 8951     		.short	20873
 3058 01d2 7500     		.short	117
 3059 01d4 8A51     		.short	20874
 3060 01d6 5400     		.short	84
 3061 01d8 8B51     		.short	20875
 3062 01da E000     		.short	224
 3063 01dc 8C51     		.short	20876
 3064 01de B200     		.short	178
 3065 01e0 8D51     		.short	20877
 3066 01e2 4200     		.short	66
 3067 01e4 8E51     		.short	20878
 3068 01e6 3D00     		.short	61
 3069 01e8 8F51     		.short	20879
 3070 01ea 5600     		.short	86
 3071 01ec 9051     		.short	20880
 3072 01ee 4600     		.short	70
 3073 01f0 9151     		.short	20881
 3074 01f2 F800     		.short	248
 3075 01f4 9251     		.short	20882
 3076 01f6 0400     		.short	4
 3077 01f8 9351     		.short	20883
 3078 01fa 7000     		.short	112
 3079 01fc 9451     		.short	20884
 3080 01fe F000     		.short	240
 3081 0200 9551     		.short	20885
 3082 0202 F000     		.short	240
 3083 0204 9651     		.short	20886
 3084 0206 0300     		.short	3
 3085 0208 9751     		.short	20887
 3086 020a 0100     		.short	1
 3087 020c 9851     		.short	20888
 3088 020e 0400     		.short	4
 3089 0210 9951     		.short	20889
 3090 0212 1200     		.short	18
 3091 0214 9A51     		.short	20890
 3092 0216 0400     		.short	4
 3093 0218 9B51     		.short	20891
 3094 021a 0000     		.short	0
 3095 021c 9C51     		.short	20892
 3096 021e 0600     		.short	6
 3097 0220 9D51     		.short	20893
 3098 0222 8200     		.short	130
 3099 0224 9E51     		.short	20894
 3100 0226 3800     		.short	56
 3101 0228 8153     		.short	21377
 3102 022a 1E00     		.short	30
 3103 022c 8253     		.short	21378
 3104 022e 5B00     		.short	91
 3105 0230 8353     		.short	21379
 3106 0232 0800     		.short	8
 3107 0234 8453     		.short	21380
 3108 0236 0A00     		.short	10
 3109 0238 8553     		.short	21381
ARM GAS  /var/folders/n6/c271nzx11xl4r4_m7sqjlt0m0000gn/T//cc8PHvwW.s 			page 86


 3110 023a 7E00     		.short	126
 3111 023c 8653     		.short	21382
 3112 023e 8800     		.short	136
 3113 0240 8753     		.short	21383
 3114 0242 7C00     		.short	124
 3115 0244 8853     		.short	21384
 3116 0246 6C00     		.short	108
 3117 0248 8953     		.short	21385
 3118 024a 1000     		.short	16
 3119 024c 8A53     		.short	21386
 3120 024e 0100     		.short	1
 3121 0250 8B53     		.short	21387
 3122 0252 9800     		.short	152
 3123 0254 0053     		.short	21248
 3124 0256 0800     		.short	8
 3125 0258 0153     		.short	21249
 3126 025a 3000     		.short	48
 3127 025c 0253     		.short	21250
 3128 025e 1000     		.short	16
 3129 0260 0353     		.short	21251
 3130 0262 0000     		.short	0
 3131 0264 0453     		.short	21252
 3132 0266 0800     		.short	8
 3133 0268 0553     		.short	21253
 3134 026a 3000     		.short	48
 3135 026c 0653     		.short	21254
 3136 026e 0800     		.short	8
 3137 0270 0753     		.short	21255
 3138 0272 1600     		.short	22
 3139 0274 0953     		.short	21257
 3140 0276 0800     		.short	8
 3141 0278 0A53     		.short	21258
 3142 027a 3000     		.short	48
 3143 027c 0B53     		.short	21259
 3144 027e 0400     		.short	4
 3145 0280 0C53     		.short	21260
 3146 0282 0600     		.short	6
 3147 0284 8054     		.short	21632
 3148 0286 0100     		.short	1
 3149 0288 8154     		.short	21633
 3150 028a 0800     		.short	8
 3151 028c 8254     		.short	21634
 3152 028e 1400     		.short	20
 3153 0290 8354     		.short	21635
 3154 0292 2800     		.short	40
 3155 0294 8454     		.short	21636
 3156 0296 5100     		.short	81
 3157 0298 8554     		.short	21637
 3158 029a 6500     		.short	101
 3159 029c 8654     		.short	21638
 3160 029e 7100     		.short	113
 3161 02a0 8754     		.short	21639
 3162 02a2 7D00     		.short	125
 3163 02a4 8854     		.short	21640
 3164 02a6 8700     		.short	135
 3165 02a8 8954     		.short	21641
 3166 02aa 9100     		.short	145
ARM GAS  /var/folders/n6/c271nzx11xl4r4_m7sqjlt0m0000gn/T//cc8PHvwW.s 			page 87


 3167 02ac 8A54     		.short	21642
 3168 02ae 9A00     		.short	154
 3169 02b0 8B54     		.short	21643
 3170 02b2 AA00     		.short	170
 3171 02b4 8C54     		.short	21644
 3172 02b6 B800     		.short	184
 3173 02b8 8D54     		.short	21645
 3174 02ba CD00     		.short	205
 3175 02bc 8E54     		.short	21646
 3176 02be DD00     		.short	221
 3177 02c0 8F54     		.short	21647
 3178 02c2 EA00     		.short	234
 3179 02c4 9054     		.short	21648
 3180 02c6 1D00     		.short	29
 3181 02c8 8055     		.short	21888
 3182 02ca 0200     		.short	2
 3183 02cc 8355     		.short	21891
 3184 02ce 4000     		.short	64
 3185 02d0 8455     		.short	21892
 3186 02d2 1000     		.short	16
 3187 02d4 8955     		.short	21897
 3188 02d6 1000     		.short	16
 3189 02d8 8A55     		.short	21898
 3190 02da 0000     		.short	0
 3191 02dc 8B55     		.short	21899
 3192 02de F800     		.short	248
 3193 02e0 0058     		.short	22528
 3194 02e2 2300     		.short	35
 3195 02e4 0158     		.short	22529
 3196 02e6 1400     		.short	20
 3197 02e8 0258     		.short	22530
 3198 02ea 0F00     		.short	15
 3199 02ec 0358     		.short	22531
 3200 02ee 0F00     		.short	15
 3201 02f0 0458     		.short	22532
 3202 02f2 1200     		.short	18
 3203 02f4 0558     		.short	22533
 3204 02f6 2600     		.short	38
 3205 02f8 0658     		.short	22534
 3206 02fa 0C00     		.short	12
 3207 02fc 0758     		.short	22535
 3208 02fe 0800     		.short	8
 3209 0300 0858     		.short	22536
 3210 0302 0500     		.short	5
 3211 0304 0958     		.short	22537
 3212 0306 0500     		.short	5
 3213 0308 0A58     		.short	22538
 3214 030a 0800     		.short	8
 3215 030c 0B58     		.short	22539
 3216 030e 0D00     		.short	13
 3217 0310 0C58     		.short	22540
 3218 0312 0800     		.short	8
 3219 0314 0D58     		.short	22541
 3220 0316 0300     		.short	3
 3221 0318 0E58     		.short	22542
 3222 031a 0000     		.short	0
 3223 031c 0F58     		.short	22543
ARM GAS  /var/folders/n6/c271nzx11xl4r4_m7sqjlt0m0000gn/T//cc8PHvwW.s 			page 88


 3224 031e 0000     		.short	0
 3225 0320 1058     		.short	22544
 3226 0322 0300     		.short	3
 3227 0324 1158     		.short	22545
 3228 0326 0900     		.short	9
 3229 0328 1258     		.short	22546
 3230 032a 0700     		.short	7
 3231 032c 1358     		.short	22547
 3232 032e 0300     		.short	3
 3233 0330 1458     		.short	22548
 3234 0332 0000     		.short	0
 3235 0334 1558     		.short	22549
 3236 0336 0100     		.short	1
 3237 0338 1658     		.short	22550
 3238 033a 0300     		.short	3
 3239 033c 1758     		.short	22551
 3240 033e 0800     		.short	8
 3241 0340 1858     		.short	22552
 3242 0342 0D00     		.short	13
 3243 0344 1958     		.short	22553
 3244 0346 0800     		.short	8
 3245 0348 1A58     		.short	22554
 3246 034a 0500     		.short	5
 3247 034c 1B58     		.short	22555
 3248 034e 0600     		.short	6
 3249 0350 1C58     		.short	22556
 3250 0352 0800     		.short	8
 3251 0354 1D58     		.short	22557
 3252 0356 0E00     		.short	14
 3253 0358 1E58     		.short	22558
 3254 035a 2900     		.short	41
 3255 035c 1F58     		.short	22559
 3256 035e 1700     		.short	23
 3257 0360 2058     		.short	22560
 3258 0362 1100     		.short	17
 3259 0364 2158     		.short	22561
 3260 0366 1100     		.short	17
 3261 0368 2258     		.short	22562
 3262 036a 1500     		.short	21
 3263 036c 2358     		.short	22563
 3264 036e 2800     		.short	40
 3265 0370 2458     		.short	22564
 3266 0372 4600     		.short	70
 3267 0374 2558     		.short	22565
 3268 0376 2600     		.short	38
 3269 0378 2658     		.short	22566
 3270 037a 0800     		.short	8
 3271 037c 2758     		.short	22567
 3272 037e 2600     		.short	38
 3273 0380 2858     		.short	22568
 3274 0382 6400     		.short	100
 3275 0384 2958     		.short	22569
 3276 0386 2600     		.short	38
 3277 0388 2A58     		.short	22570
 3278 038a 2400     		.short	36
 3279 038c 2B58     		.short	22571
 3280 038e 2200     		.short	34
ARM GAS  /var/folders/n6/c271nzx11xl4r4_m7sqjlt0m0000gn/T//cc8PHvwW.s 			page 89


 3281 0390 2C58     		.short	22572
 3282 0392 2400     		.short	36
 3283 0394 2D58     		.short	22573
 3284 0396 2400     		.short	36
 3285 0398 2E58     		.short	22574
 3286 039a 0600     		.short	6
 3287 039c 2F58     		.short	22575
 3288 039e 2200     		.short	34
 3289 03a0 3058     		.short	22576
 3290 03a2 4000     		.short	64
 3291 03a4 3158     		.short	22577
 3292 03a6 4200     		.short	66
 3293 03a8 3258     		.short	22578
 3294 03aa 2400     		.short	36
 3295 03ac 3358     		.short	22579
 3296 03ae 2600     		.short	38
 3297 03b0 3458     		.short	22580
 3298 03b2 2400     		.short	36
 3299 03b4 3558     		.short	22581
 3300 03b6 2200     		.short	34
 3301 03b8 3658     		.short	22582
 3302 03ba 2200     		.short	34
 3303 03bc 3758     		.short	22583
 3304 03be 2600     		.short	38
 3305 03c0 3858     		.short	22584
 3306 03c2 4400     		.short	68
 3307 03c4 3958     		.short	22585
 3308 03c6 2400     		.short	36
 3309 03c8 3A58     		.short	22586
 3310 03ca 2600     		.short	38
 3311 03cc 3B58     		.short	22587
 3312 03ce 2800     		.short	40
 3313 03d0 3C58     		.short	22588
 3314 03d2 4200     		.short	66
 3315 03d4 3D58     		.short	22589
 3316 03d6 CE00     		.short	206
 3317 03d8 2550     		.short	20517
 3318 03da 0000     		.short	0
 3319 03dc 0F3A     		.short	14863
 3320 03de 3000     		.short	48
 3321 03e0 103A     		.short	14864
 3322 03e2 2800     		.short	40
 3323 03e4 1B3A     		.short	14875
 3324 03e6 3000     		.short	48
 3325 03e8 1E3A     		.short	14878
 3326 03ea 2600     		.short	38
 3327 03ec 113A     		.short	14865
 3328 03ee 6000     		.short	96
 3329 03f0 1F3A     		.short	14879
 3330 03f2 1400     		.short	20
 3331 03f4 0830     		.short	12296
 3332 03f6 0200     		.short	2
 3333              		.global	ov5640_drv
 3334              		.section	.data.ov5640_drv,"aw"
 3335              		.align	2
 3338              	ov5640_drv:
 3339 0000 00000000 		.word	ov5640_Init
ARM GAS  /var/folders/n6/c271nzx11xl4r4_m7sqjlt0m0000gn/T//cc8PHvwW.s 			page 90


 3340 0004 00000000 		.word	ov5640_ReadID
 3341 0008 00000000 		.word	ov5640_Config
 3342              		.text
 3343              	.Letext0:
 3344              		.file 2 "/Users/killian/Library/Application Support/Code/User/globalStorage/bmd.stm32-for-vscode/@
 3345              		.file 3 "/Users/killian/Library/Application Support/Code/User/globalStorage/bmd.stm32-for-vscode/@
 3346              		.file 4 "Drivers/BSP/Components/ov5640/../Common/camera.h"
 3347              		.file 5 "Drivers/BSP/Components/ov5640/ov5640.h"
ARM GAS  /var/folders/n6/c271nzx11xl4r4_m7sqjlt0m0000gn/T//cc8PHvwW.s 			page 91


DEFINED SYMBOLS
                            *ABS*:00000000 ov5640.c
/var/folders/n6/c271nzx11xl4r4_m7sqjlt0m0000gn/T//cc8PHvwW.s:20     .text.ov5640_ConvertValue:00000000 $t
/var/folders/n6/c271nzx11xl4r4_m7sqjlt0m0000gn/T//cc8PHvwW.s:25     .text.ov5640_ConvertValue:00000000 ov5640_ConvertValue
/var/folders/n6/c271nzx11xl4r4_m7sqjlt0m0000gn/T//cc8PHvwW.s:64     .text.ov5640_ConvertValue:00000026 $d
/var/folders/n6/c271nzx11xl4r4_m7sqjlt0m0000gn/T//cc8PHvwW.s:74     .text.ov5640_ConvertValue:00000030 $t
/var/folders/n6/c271nzx11xl4r4_m7sqjlt0m0000gn/T//cc8PHvwW.s:133    .text.ov5640_ConvertValue:00000052 $d
/var/folders/n6/c271nzx11xl4r4_m7sqjlt0m0000gn/T//cc8PHvwW.s:137    .text.ov5640_ConvertValue:00000056 $t
/var/folders/n6/c271nzx11xl4r4_m7sqjlt0m0000gn/T//cc8PHvwW.s:211    .text.ov5640_Init:00000000 $t
/var/folders/n6/c271nzx11xl4r4_m7sqjlt0m0000gn/T//cc8PHvwW.s:217    .text.ov5640_Init:00000000 ov5640_Init
/var/folders/n6/c271nzx11xl4r4_m7sqjlt0m0000gn/T//cc8PHvwW.s:265    .text.ov5640_Init:0000002a $d
/var/folders/n6/c271nzx11xl4r4_m7sqjlt0m0000gn/T//cc8PHvwW.s:270    .text.ov5640_Init:0000002e $t
/var/folders/n6/c271nzx11xl4r4_m7sqjlt0m0000gn/T//cc8PHvwW.s:378    .text.ov5640_Init:000000a4 $d
/var/folders/n6/c271nzx11xl4r4_m7sqjlt0m0000gn/T//cc8PHvwW.s:2824   .rodata.OV5640_Init:00000000 OV5640_Init
/var/folders/n6/c271nzx11xl4r4_m7sqjlt0m0000gn/T//cc8PHvwW.s:2724   .rodata.OV5640_QQVGA:00000000 OV5640_QQVGA
/var/folders/n6/c271nzx11xl4r4_m7sqjlt0m0000gn/T//cc8PHvwW.s:2744   .rodata.OV5640_QVGA:00000000 OV5640_QVGA
/var/folders/n6/c271nzx11xl4r4_m7sqjlt0m0000gn/T//cc8PHvwW.s:2764   .rodata.OV5640_480x272:00000000 OV5640_480x272
/var/folders/n6/c271nzx11xl4r4_m7sqjlt0m0000gn/T//cc8PHvwW.s:2784   .rodata.OV5640_VGA:00000000 OV5640_VGA
/var/folders/n6/c271nzx11xl4r4_m7sqjlt0m0000gn/T//cc8PHvwW.s:387    .text.ov5640_ReadID:00000000 $t
/var/folders/n6/c271nzx11xl4r4_m7sqjlt0m0000gn/T//cc8PHvwW.s:393    .text.ov5640_ReadID:00000000 ov5640_ReadID
/var/folders/n6/c271nzx11xl4r4_m7sqjlt0m0000gn/T//cc8PHvwW.s:455    .text.OV5640_SetLightMode:00000000 $t
/var/folders/n6/c271nzx11xl4r4_m7sqjlt0m0000gn/T//cc8PHvwW.s:461    .text.OV5640_SetLightMode:00000000 OV5640_SetLightMode
/var/folders/n6/c271nzx11xl4r4_m7sqjlt0m0000gn/T//cc8PHvwW.s:512    .text.OV5640_SetLightMode:0000003e $d
/var/folders/n6/c271nzx11xl4r4_m7sqjlt0m0000gn/T//cc8PHvwW.s:683    .text.OV5640_SetLightMode:000000fc $d
/var/folders/n6/c271nzx11xl4r4_m7sqjlt0m0000gn/T//cc8PHvwW.s:2704   .rodata.OV5640_LightModeAuto:00000000 OV5640_LightModeAuto
/var/folders/n6/c271nzx11xl4r4_m7sqjlt0m0000gn/T//cc8PHvwW.s:2624   .rodata.OV5640_LightModeSunny:00000000 OV5640_LightModeSunny
/var/folders/n6/c271nzx11xl4r4_m7sqjlt0m0000gn/T//cc8PHvwW.s:2664   .rodata.OV5640_LightModeOffice:00000000 OV5640_LightModeOffice
/var/folders/n6/c271nzx11xl4r4_m7sqjlt0m0000gn/T//cc8PHvwW.s:2684   .rodata.OV5640_LightModeCloudy:00000000 OV5640_LightModeCloudy
/var/folders/n6/c271nzx11xl4r4_m7sqjlt0m0000gn/T//cc8PHvwW.s:2644   .rodata.OV5640_LightModeHome:00000000 OV5640_LightModeHome
/var/folders/n6/c271nzx11xl4r4_m7sqjlt0m0000gn/T//cc8PHvwW.s:692    .text.OV5640_SetEffect:00000000 $t
/var/folders/n6/c271nzx11xl4r4_m7sqjlt0m0000gn/T//cc8PHvwW.s:698    .text.OV5640_SetEffect:00000000 OV5640_SetEffect
/var/folders/n6/c271nzx11xl4r4_m7sqjlt0m0000gn/T//cc8PHvwW.s:717    .text.OV5640_SetEffect:00000010 $d
/var/folders/n6/c271nzx11xl4r4_m7sqjlt0m0000gn/T//cc8PHvwW.s:750    .text.OV5640_SetEffect:00000052 $t
/var/folders/n6/c271nzx11xl4r4_m7sqjlt0m0000gn/T//cc8PHvwW.s:1096   .text.OV5640_SetBrightness:00000000 $t
/var/folders/n6/c271nzx11xl4r4_m7sqjlt0m0000gn/T//cc8PHvwW.s:1102   .text.OV5640_SetBrightness:00000000 OV5640_SetBrightness
/var/folders/n6/c271nzx11xl4r4_m7sqjlt0m0000gn/T//cc8PHvwW.s:1135   .text.OV5640_SetBrightness:0000001e $d
/var/folders/n6/c271nzx11xl4r4_m7sqjlt0m0000gn/T//cc8PHvwW.s:1302   .text.OV5640_SetSaturation:00000000 $t
/var/folders/n6/c271nzx11xl4r4_m7sqjlt0m0000gn/T//cc8PHvwW.s:1308   .text.OV5640_SetSaturation:00000000 OV5640_SetSaturation
/var/folders/n6/c271nzx11xl4r4_m7sqjlt0m0000gn/T//cc8PHvwW.s:1341   .text.OV5640_SetSaturation:00000020 $d
/var/folders/n6/c271nzx11xl4r4_m7sqjlt0m0000gn/T//cc8PHvwW.s:1548   .text.OV5640_SetContrast:00000000 $t
/var/folders/n6/c271nzx11xl4r4_m7sqjlt0m0000gn/T//cc8PHvwW.s:1554   .text.OV5640_SetContrast:00000000 OV5640_SetContrast
/var/folders/n6/c271nzx11xl4r4_m7sqjlt0m0000gn/T//cc8PHvwW.s:1593   .text.OV5640_SetContrast:0000002c $d
/var/folders/n6/c271nzx11xl4r4_m7sqjlt0m0000gn/T//cc8PHvwW.s:1794   .text.ov5640_Config:00000000 $t
/var/folders/n6/c271nzx11xl4r4_m7sqjlt0m0000gn/T//cc8PHvwW.s:1800   .text.ov5640_Config:00000000 ov5640_Config
/var/folders/n6/c271nzx11xl4r4_m7sqjlt0m0000gn/T//cc8PHvwW.s:1883   .text.OV5640_SetHueDegree:00000000 $t
/var/folders/n6/c271nzx11xl4r4_m7sqjlt0m0000gn/T//cc8PHvwW.s:1889   .text.OV5640_SetHueDegree:00000000 OV5640_SetHueDegree
/var/folders/n6/c271nzx11xl4r4_m7sqjlt0m0000gn/T//cc8PHvwW.s:1937   .text.OV5640_SetHueDegree:00000040 $d
/var/folders/n6/c271nzx11xl4r4_m7sqjlt0m0000gn/T//cc8PHvwW.s:1970   .text.OV5640_SetHueDegree:00000080 $t
/var/folders/n6/c271nzx11xl4r4_m7sqjlt0m0000gn/T//cc8PHvwW.s:2265   .text.OV5640_MirrorFlipConfig:00000000 $t
/var/folders/n6/c271nzx11xl4r4_m7sqjlt0m0000gn/T//cc8PHvwW.s:2271   .text.OV5640_MirrorFlipConfig:00000000 OV5640_MirrorFlipConfig
/var/folders/n6/c271nzx11xl4r4_m7sqjlt0m0000gn/T//cc8PHvwW.s:2320   .text.OV5640_MirrorFlipConfig:0000002a $d
/var/folders/n6/c271nzx11xl4r4_m7sqjlt0m0000gn/T//cc8PHvwW.s:2409   .text.OV5640_GetResolution:00000000 $t
/var/folders/n6/c271nzx11xl4r4_m7sqjlt0m0000gn/T//cc8PHvwW.s:2415   .text.OV5640_GetResolution:00000000 OV5640_GetResolution
/var/folders/n6/c271nzx11xl4r4_m7sqjlt0m0000gn/T//cc8PHvwW.s:2531   .text.OV5640_ZoomConfig:00000000 $t
/var/folders/n6/c271nzx11xl4r4_m7sqjlt0m0000gn/T//cc8PHvwW.s:2537   .text.OV5640_ZoomConfig:00000000 OV5640_ZoomConfig
/var/folders/n6/c271nzx11xl4r4_m7sqjlt0m0000gn/T//cc8PHvwW.s:2621   .rodata.OV5640_LightModeSunny:00000000 $d
/var/folders/n6/c271nzx11xl4r4_m7sqjlt0m0000gn/T//cc8PHvwW.s:2641   .rodata.OV5640_LightModeHome:00000000 $d
ARM GAS  /var/folders/n6/c271nzx11xl4r4_m7sqjlt0m0000gn/T//cc8PHvwW.s 			page 92


/var/folders/n6/c271nzx11xl4r4_m7sqjlt0m0000gn/T//cc8PHvwW.s:2661   .rodata.OV5640_LightModeOffice:00000000 $d
/var/folders/n6/c271nzx11xl4r4_m7sqjlt0m0000gn/T//cc8PHvwW.s:2681   .rodata.OV5640_LightModeCloudy:00000000 $d
/var/folders/n6/c271nzx11xl4r4_m7sqjlt0m0000gn/T//cc8PHvwW.s:2701   .rodata.OV5640_LightModeAuto:00000000 $d
/var/folders/n6/c271nzx11xl4r4_m7sqjlt0m0000gn/T//cc8PHvwW.s:2721   .rodata.OV5640_QQVGA:00000000 $d
/var/folders/n6/c271nzx11xl4r4_m7sqjlt0m0000gn/T//cc8PHvwW.s:2741   .rodata.OV5640_QVGA:00000000 $d
/var/folders/n6/c271nzx11xl4r4_m7sqjlt0m0000gn/T//cc8PHvwW.s:2761   .rodata.OV5640_480x272:00000000 $d
/var/folders/n6/c271nzx11xl4r4_m7sqjlt0m0000gn/T//cc8PHvwW.s:2781   .rodata.OV5640_VGA:00000000 $d
/var/folders/n6/c271nzx11xl4r4_m7sqjlt0m0000gn/T//cc8PHvwW.s:2804   .rodata.OV5640_WVGA:00000000 OV5640_WVGA
/var/folders/n6/c271nzx11xl4r4_m7sqjlt0m0000gn/T//cc8PHvwW.s:2801   .rodata.OV5640_WVGA:00000000 $d
/var/folders/n6/c271nzx11xl4r4_m7sqjlt0m0000gn/T//cc8PHvwW.s:2821   .rodata.OV5640_Init:00000000 $d
/var/folders/n6/c271nzx11xl4r4_m7sqjlt0m0000gn/T//cc8PHvwW.s:3338   .data.ov5640_drv:00000000 ov5640_drv
/var/folders/n6/c271nzx11xl4r4_m7sqjlt0m0000gn/T//cc8PHvwW.s:3335   .data.ov5640_drv:00000000 $d
/var/folders/n6/c271nzx11xl4r4_m7sqjlt0m0000gn/T//cc8PHvwW.s:522    .text.OV5640_SetLightMode:00000047 $d
/var/folders/n6/c271nzx11xl4r4_m7sqjlt0m0000gn/T//cc8PHvwW.s:522    .text.OV5640_SetLightMode:00000048 $t
/var/folders/n6/c271nzx11xl4r4_m7sqjlt0m0000gn/T//cc8PHvwW.s:1168   .text.OV5640_SetBrightness:0000003f $d
/var/folders/n6/c271nzx11xl4r4_m7sqjlt0m0000gn/T//cc8PHvwW.s:1168   .text.OV5640_SetBrightness:00000040 $t
/var/folders/n6/c271nzx11xl4r4_m7sqjlt0m0000gn/T//cc8PHvwW.s:1374   .text.OV5640_SetSaturation:00000041 $d
/var/folders/n6/c271nzx11xl4r4_m7sqjlt0m0000gn/T//cc8PHvwW.s:1374   .text.OV5640_SetSaturation:00000042 $t
/var/folders/n6/c271nzx11xl4r4_m7sqjlt0m0000gn/T//cc8PHvwW.s:1626   .text.OV5640_SetContrast:0000004d $d
/var/folders/n6/c271nzx11xl4r4_m7sqjlt0m0000gn/T//cc8PHvwW.s:1626   .text.OV5640_SetContrast:0000004e $t
/var/folders/n6/c271nzx11xl4r4_m7sqjlt0m0000gn/T//cc8PHvwW.s:2325   .text.OV5640_MirrorFlipConfig:0000002f $d
/var/folders/n6/c271nzx11xl4r4_m7sqjlt0m0000gn/T//cc8PHvwW.s:2325   .text.OV5640_MirrorFlipConfig:00000030 $t

UNDEFINED SYMBOLS
CAMERA_IO_Write
CAMERA_IO_Init
CAMERA_Delay
CAMERA_IO_Read
