ARM GAS  /var/folders/n6/c271nzx11xl4r4_m7sqjlt0m0000gn/T//cchL8bna.s 			page 1


   1              		.cpu cortex-m7
   2              		.arch armv7e-m
   3              		.fpu fpv5-d16
   4              		.eabi_attribute 28, 1
   5              		.eabi_attribute 20, 1
   6              		.eabi_attribute 21, 1
   7              		.eabi_attribute 23, 3
   8              		.eabi_attribute 24, 1
   9              		.eabi_attribute 25, 1
  10              		.eabi_attribute 26, 1
  11              		.eabi_attribute 30, 1
  12              		.eabi_attribute 34, 1
  13              		.eabi_attribute 18, 4
  14              		.file	"st7789h2.c"
  15              		.text
  16              	.Ltext0:
  17              		.cfi_sections	.debug_frame
  18              		.file 1 "Drivers/BSP/Components/st7789h2/st7789h2.c"
  19              		.section	.text.ST7789H2_GetLcdPixelWidth,"ax",%progbits
  20              		.align	1
  21              		.global	ST7789H2_GetLcdPixelWidth
  22              		.syntax unified
  23              		.thumb
  24              		.thumb_func
  26              	ST7789H2_GetLcdPixelWidth:
  27              	.LFB7:
   1:Drivers/BSP/Components/st7789h2/st7789h2.c **** /**
   2:Drivers/BSP/Components/st7789h2/st7789h2.c ****   ******************************************************************************
   3:Drivers/BSP/Components/st7789h2/st7789h2.c ****   * @file    st7789h2.c
   4:Drivers/BSP/Components/st7789h2/st7789h2.c ****   * @author  MCD Application Team
   5:Drivers/BSP/Components/st7789h2/st7789h2.c ****   * @brief   This file includes the LCD driver for st7789h2 LCD.
   6:Drivers/BSP/Components/st7789h2/st7789h2.c ****   ******************************************************************************
   7:Drivers/BSP/Components/st7789h2/st7789h2.c ****   * @attention
   8:Drivers/BSP/Components/st7789h2/st7789h2.c ****   *
   9:Drivers/BSP/Components/st7789h2/st7789h2.c ****   * <h2><center>&copy; COPYRIGHT(c) 2016 STMicroelectronics</center></h2>
  10:Drivers/BSP/Components/st7789h2/st7789h2.c ****   *
  11:Drivers/BSP/Components/st7789h2/st7789h2.c ****   * Redistribution and use in source and binary forms, with or without modification,
  12:Drivers/BSP/Components/st7789h2/st7789h2.c ****   * are permitted provided that the following conditions are met:
  13:Drivers/BSP/Components/st7789h2/st7789h2.c ****   *   1. Redistributions of source code must retain the above copyright notice,
  14:Drivers/BSP/Components/st7789h2/st7789h2.c ****   *      this list of conditions and the following disclaimer.
  15:Drivers/BSP/Components/st7789h2/st7789h2.c ****   *   2. Redistributions in binary form must reproduce the above copyright notice,
  16:Drivers/BSP/Components/st7789h2/st7789h2.c ****   *      this list of conditions and the following disclaimer in the documentation
  17:Drivers/BSP/Components/st7789h2/st7789h2.c ****   *      and/or other materials provided with the distribution.
  18:Drivers/BSP/Components/st7789h2/st7789h2.c ****   *   3. Neither the name of STMicroelectronics nor the names of its contributors
  19:Drivers/BSP/Components/st7789h2/st7789h2.c ****   *      may be used to endorse or promote products derived from this software
  20:Drivers/BSP/Components/st7789h2/st7789h2.c ****   *      without specific prior written permission.
  21:Drivers/BSP/Components/st7789h2/st7789h2.c ****   *
  22:Drivers/BSP/Components/st7789h2/st7789h2.c ****   * THIS SOFTWARE IS PROVIDED BY THE COPYRIGHT HOLDERS AND CONTRIBUTORS "AS IS"
  23:Drivers/BSP/Components/st7789h2/st7789h2.c ****   * AND ANY EXPRESS OR IMPLIED WARRANTIES, INCLUDING, BUT NOT LIMITED TO, THE
  24:Drivers/BSP/Components/st7789h2/st7789h2.c ****   * IMPLIED WARRANTIES OF MERCHANTABILITY AND FITNESS FOR A PARTICULAR PURPOSE ARE
  25:Drivers/BSP/Components/st7789h2/st7789h2.c ****   * DISCLAIMED. IN NO EVENT SHALL THE COPYRIGHT HOLDER OR CONTRIBUTORS BE LIABLE
  26:Drivers/BSP/Components/st7789h2/st7789h2.c ****   * FOR ANY DIRECT, INDIRECT, INCIDENTAL, SPECIAL, EXEMPLARY, OR CONSEQUENTIAL
  27:Drivers/BSP/Components/st7789h2/st7789h2.c ****   * DAMAGES (INCLUDING, BUT NOT LIMITED TO, PROCUREMENT OF SUBSTITUTE GOODS OR
  28:Drivers/BSP/Components/st7789h2/st7789h2.c ****   * SERVICES; LOSS OF USE, DATA, OR PROFITS; OR BUSINESS INTERRUPTION) HOWEVER
  29:Drivers/BSP/Components/st7789h2/st7789h2.c ****   * CAUSED AND ON ANY THEORY OF LIABILITY, WHETHER IN CONTRACT, STRICT LIABILITY,
  30:Drivers/BSP/Components/st7789h2/st7789h2.c ****   * OR TORT (INCLUDING NEGLIGENCE OR OTHERWISE) ARISING IN ANY WAY OUT OF THE USE
  31:Drivers/BSP/Components/st7789h2/st7789h2.c ****   * OF THIS SOFTWARE, EVEN IF ADVISED OF THE POSSIBILITY OF SUCH DAMAGE.
ARM GAS  /var/folders/n6/c271nzx11xl4r4_m7sqjlt0m0000gn/T//cchL8bna.s 			page 2


  32:Drivers/BSP/Components/st7789h2/st7789h2.c ****   *
  33:Drivers/BSP/Components/st7789h2/st7789h2.c ****   ******************************************************************************
  34:Drivers/BSP/Components/st7789h2/st7789h2.c ****   */ 
  35:Drivers/BSP/Components/st7789h2/st7789h2.c **** 
  36:Drivers/BSP/Components/st7789h2/st7789h2.c **** /* Includes ------------------------------------------------------------------*/
  37:Drivers/BSP/Components/st7789h2/st7789h2.c **** #include "st7789h2.h"
  38:Drivers/BSP/Components/st7789h2/st7789h2.c **** 
  39:Drivers/BSP/Components/st7789h2/st7789h2.c **** /** @addtogroup BSP
  40:Drivers/BSP/Components/st7789h2/st7789h2.c ****   * @{
  41:Drivers/BSP/Components/st7789h2/st7789h2.c ****   */ 
  42:Drivers/BSP/Components/st7789h2/st7789h2.c **** 
  43:Drivers/BSP/Components/st7789h2/st7789h2.c **** /** @addtogroup Components
  44:Drivers/BSP/Components/st7789h2/st7789h2.c ****   * @{
  45:Drivers/BSP/Components/st7789h2/st7789h2.c ****   */ 
  46:Drivers/BSP/Components/st7789h2/st7789h2.c ****   
  47:Drivers/BSP/Components/st7789h2/st7789h2.c **** /** @defgroup ST7789H2
  48:Drivers/BSP/Components/st7789h2/st7789h2.c ****   * @brief     This file provides a set of functions needed to drive the 
  49:Drivers/BSP/Components/st7789h2/st7789h2.c ****   *            FRIDA FRD154BP2901 LCD.
  50:Drivers/BSP/Components/st7789h2/st7789h2.c ****   * @{
  51:Drivers/BSP/Components/st7789h2/st7789h2.c ****   */
  52:Drivers/BSP/Components/st7789h2/st7789h2.c **** 
  53:Drivers/BSP/Components/st7789h2/st7789h2.c **** /** @defgroup ST7789H2_Private_TypesDefinitions ST7789H2 Private TypesDefinitions
  54:Drivers/BSP/Components/st7789h2/st7789h2.c ****   * @{
  55:Drivers/BSP/Components/st7789h2/st7789h2.c ****   */ 
  56:Drivers/BSP/Components/st7789h2/st7789h2.c **** typedef struct  {
  57:Drivers/BSP/Components/st7789h2/st7789h2.c ****   uint8_t red;
  58:Drivers/BSP/Components/st7789h2/st7789h2.c ****   uint8_t green;
  59:Drivers/BSP/Components/st7789h2/st7789h2.c ****   uint8_t blue;
  60:Drivers/BSP/Components/st7789h2/st7789h2.c **** } ST7789H2_Rgb888;
  61:Drivers/BSP/Components/st7789h2/st7789h2.c **** 
  62:Drivers/BSP/Components/st7789h2/st7789h2.c **** /**
  63:Drivers/BSP/Components/st7789h2/st7789h2.c ****   * @}
  64:Drivers/BSP/Components/st7789h2/st7789h2.c ****   */ 
  65:Drivers/BSP/Components/st7789h2/st7789h2.c **** 
  66:Drivers/BSP/Components/st7789h2/st7789h2.c **** /** @defgroup ST7789H2_Private_Defines ST7789H2 Private Defines
  67:Drivers/BSP/Components/st7789h2/st7789h2.c ****   * @{
  68:Drivers/BSP/Components/st7789h2/st7789h2.c ****   */
  69:Drivers/BSP/Components/st7789h2/st7789h2.c **** 
  70:Drivers/BSP/Components/st7789h2/st7789h2.c **** /**
  71:Drivers/BSP/Components/st7789h2/st7789h2.c ****   * @}
  72:Drivers/BSP/Components/st7789h2/st7789h2.c ****   */ 
  73:Drivers/BSP/Components/st7789h2/st7789h2.c ****   
  74:Drivers/BSP/Components/st7789h2/st7789h2.c **** /** @defgroup ST7789H2_Private_Macros ST7789H2 Private Macros
  75:Drivers/BSP/Components/st7789h2/st7789h2.c ****   * @{
  76:Drivers/BSP/Components/st7789h2/st7789h2.c ****   */
  77:Drivers/BSP/Components/st7789h2/st7789h2.c ****      
  78:Drivers/BSP/Components/st7789h2/st7789h2.c **** /**
  79:Drivers/BSP/Components/st7789h2/st7789h2.c ****   * @}
  80:Drivers/BSP/Components/st7789h2/st7789h2.c ****   */  
  81:Drivers/BSP/Components/st7789h2/st7789h2.c **** 
  82:Drivers/BSP/Components/st7789h2/st7789h2.c **** /** @defgroup ST7789H2_Private_Variables ST7789H2 Private Variables
  83:Drivers/BSP/Components/st7789h2/st7789h2.c ****   * @{
  84:Drivers/BSP/Components/st7789h2/st7789h2.c ****   */ 
  85:Drivers/BSP/Components/st7789h2/st7789h2.c **** LCD_DrvTypeDef   ST7789H2_drv = 
  86:Drivers/BSP/Components/st7789h2/st7789h2.c **** {
  87:Drivers/BSP/Components/st7789h2/st7789h2.c ****   ST7789H2_Init,
  88:Drivers/BSP/Components/st7789h2/st7789h2.c ****   ST7789H2_ReadID,
ARM GAS  /var/folders/n6/c271nzx11xl4r4_m7sqjlt0m0000gn/T//cchL8bna.s 			page 3


  89:Drivers/BSP/Components/st7789h2/st7789h2.c ****   ST7789H2_DisplayOn,
  90:Drivers/BSP/Components/st7789h2/st7789h2.c ****   ST7789H2_DisplayOff,
  91:Drivers/BSP/Components/st7789h2/st7789h2.c ****   ST7789H2_SetCursor,
  92:Drivers/BSP/Components/st7789h2/st7789h2.c ****   ST7789H2_WritePixel,
  93:Drivers/BSP/Components/st7789h2/st7789h2.c ****   ST7789H2_ReadPixel,
  94:Drivers/BSP/Components/st7789h2/st7789h2.c ****   ST7789H2_SetDisplayWindow,
  95:Drivers/BSP/Components/st7789h2/st7789h2.c ****   ST7789H2_DrawHLine,
  96:Drivers/BSP/Components/st7789h2/st7789h2.c ****   ST7789H2_DrawVLine,
  97:Drivers/BSP/Components/st7789h2/st7789h2.c ****   ST7789H2_GetLcdPixelWidth,
  98:Drivers/BSP/Components/st7789h2/st7789h2.c ****   ST7789H2_GetLcdPixelHeight,
  99:Drivers/BSP/Components/st7789h2/st7789h2.c ****   ST7789H2_DrawBitmap,
 100:Drivers/BSP/Components/st7789h2/st7789h2.c ****   ST7789H2_DrawRGBImage,  
 101:Drivers/BSP/Components/st7789h2/st7789h2.c **** };
 102:Drivers/BSP/Components/st7789h2/st7789h2.c **** 
 103:Drivers/BSP/Components/st7789h2/st7789h2.c **** static uint16_t WindowsXstart = 0;
 104:Drivers/BSP/Components/st7789h2/st7789h2.c **** static uint16_t WindowsYstart = 0;
 105:Drivers/BSP/Components/st7789h2/st7789h2.c **** static uint16_t WindowsXend = ST7789H2_LCD_PIXEL_WIDTH-1;
 106:Drivers/BSP/Components/st7789h2/st7789h2.c **** static uint16_t WindowsYend = ST7789H2_LCD_PIXEL_HEIGHT-1;
 107:Drivers/BSP/Components/st7789h2/st7789h2.c **** /**
 108:Drivers/BSP/Components/st7789h2/st7789h2.c ****   * @}
 109:Drivers/BSP/Components/st7789h2/st7789h2.c ****   */ 
 110:Drivers/BSP/Components/st7789h2/st7789h2.c ****   
 111:Drivers/BSP/Components/st7789h2/st7789h2.c **** /** @defgroup ST7789H2_Private_FunctionPrototypes ST7789H2 Private FunctionPrototypes
 112:Drivers/BSP/Components/st7789h2/st7789h2.c ****   * @{
 113:Drivers/BSP/Components/st7789h2/st7789h2.c ****   */
 114:Drivers/BSP/Components/st7789h2/st7789h2.c **** static ST7789H2_Rgb888 ST7789H2_ReadPixel_rgb888(uint16_t Xpos, uint16_t Ypos);
 115:Drivers/BSP/Components/st7789h2/st7789h2.c **** static void ST7789H2_DrawRGBHLine(uint16_t Xpos, uint16_t Ypos, uint16_t Xsize, uint8_t *pdata);
 116:Drivers/BSP/Components/st7789h2/st7789h2.c **** 
 117:Drivers/BSP/Components/st7789h2/st7789h2.c **** /**
 118:Drivers/BSP/Components/st7789h2/st7789h2.c ****   * @}
 119:Drivers/BSP/Components/st7789h2/st7789h2.c ****   */ 
 120:Drivers/BSP/Components/st7789h2/st7789h2.c ****   
 121:Drivers/BSP/Components/st7789h2/st7789h2.c **** /** @defgroup ST7789H2_Private_Functions ST7789H2 Private Functions
 122:Drivers/BSP/Components/st7789h2/st7789h2.c ****   * @{
 123:Drivers/BSP/Components/st7789h2/st7789h2.c ****   */   
 124:Drivers/BSP/Components/st7789h2/st7789h2.c **** 
 125:Drivers/BSP/Components/st7789h2/st7789h2.c **** /**
 126:Drivers/BSP/Components/st7789h2/st7789h2.c ****   * @brief  Initialize the st7789h2 LCD Component.
 127:Drivers/BSP/Components/st7789h2/st7789h2.c ****   * @param  None
 128:Drivers/BSP/Components/st7789h2/st7789h2.c ****   * @retval None
 129:Drivers/BSP/Components/st7789h2/st7789h2.c ****   */
 130:Drivers/BSP/Components/st7789h2/st7789h2.c **** void ST7789H2_Init(void)
 131:Drivers/BSP/Components/st7789h2/st7789h2.c **** {
 132:Drivers/BSP/Components/st7789h2/st7789h2.c ****   uint8_t   parameter[14];
 133:Drivers/BSP/Components/st7789h2/st7789h2.c ****   
 134:Drivers/BSP/Components/st7789h2/st7789h2.c ****   /* Initialize st7789h2 low level bus layer ----------------------------------*/
 135:Drivers/BSP/Components/st7789h2/st7789h2.c ****   LCD_IO_Init();
 136:Drivers/BSP/Components/st7789h2/st7789h2.c ****   /* Sleep In Command */ 
 137:Drivers/BSP/Components/st7789h2/st7789h2.c ****   ST7789H2_WriteReg(ST7789H2_SLEEP_IN, (uint8_t*)NULL, 0); 
 138:Drivers/BSP/Components/st7789h2/st7789h2.c ****   /* Wait for 10ms */
 139:Drivers/BSP/Components/st7789h2/st7789h2.c ****   LCD_IO_Delay(10);  
 140:Drivers/BSP/Components/st7789h2/st7789h2.c ****   
 141:Drivers/BSP/Components/st7789h2/st7789h2.c ****   /* SW Reset Command */
 142:Drivers/BSP/Components/st7789h2/st7789h2.c ****   ST7789H2_WriteReg(0x01, (uint8_t*)NULL, 0); 
 143:Drivers/BSP/Components/st7789h2/st7789h2.c ****   /* Wait for 200ms */
 144:Drivers/BSP/Components/st7789h2/st7789h2.c ****   LCD_IO_Delay(200);
 145:Drivers/BSP/Components/st7789h2/st7789h2.c ****   
ARM GAS  /var/folders/n6/c271nzx11xl4r4_m7sqjlt0m0000gn/T//cchL8bna.s 			page 4


 146:Drivers/BSP/Components/st7789h2/st7789h2.c ****   /* Sleep Out Command */
 147:Drivers/BSP/Components/st7789h2/st7789h2.c ****   ST7789H2_WriteReg(ST7789H2_SLEEP_OUT, (uint8_t*)NULL, 0); 
 148:Drivers/BSP/Components/st7789h2/st7789h2.c ****   /* Wait for 120ms */
 149:Drivers/BSP/Components/st7789h2/st7789h2.c ****   LCD_IO_Delay(120); 
 150:Drivers/BSP/Components/st7789h2/st7789h2.c **** 
 151:Drivers/BSP/Components/st7789h2/st7789h2.c ****   /* Normal display for Driver Down side */
 152:Drivers/BSP/Components/st7789h2/st7789h2.c ****   parameter[0] = 0x00;     
 153:Drivers/BSP/Components/st7789h2/st7789h2.c ****   ST7789H2_WriteReg(ST7789H2_NORMAL_DISPLAY, parameter, 1);
 154:Drivers/BSP/Components/st7789h2/st7789h2.c ****  
 155:Drivers/BSP/Components/st7789h2/st7789h2.c ****   /* Color mode 16bits/pixel */
 156:Drivers/BSP/Components/st7789h2/st7789h2.c ****   parameter[0] = 0x05;     
 157:Drivers/BSP/Components/st7789h2/st7789h2.c ****   ST7789H2_WriteReg(ST7789H2_COLOR_MODE, parameter, 1);
 158:Drivers/BSP/Components/st7789h2/st7789h2.c ****   
 159:Drivers/BSP/Components/st7789h2/st7789h2.c ****   /* Display inversion On */
 160:Drivers/BSP/Components/st7789h2/st7789h2.c ****   ST7789H2_WriteReg(ST7789H2_DISPLAY_INVERSION, (uint8_t*)NULL, 0);     
 161:Drivers/BSP/Components/st7789h2/st7789h2.c ****   
 162:Drivers/BSP/Components/st7789h2/st7789h2.c ****   /* Set Column address CASET */  
 163:Drivers/BSP/Components/st7789h2/st7789h2.c ****   parameter[0] = 0x00;
 164:Drivers/BSP/Components/st7789h2/st7789h2.c ****   parameter[1] = 0x00;
 165:Drivers/BSP/Components/st7789h2/st7789h2.c ****   parameter[2] = 0x00;
 166:Drivers/BSP/Components/st7789h2/st7789h2.c ****   parameter[3] = 0xEF;
 167:Drivers/BSP/Components/st7789h2/st7789h2.c ****   ST7789H2_WriteReg(ST7789H2_CASET, parameter, 4);
 168:Drivers/BSP/Components/st7789h2/st7789h2.c ****   /* Set Row address RASET */  
 169:Drivers/BSP/Components/st7789h2/st7789h2.c ****   parameter[0] = 0x00;
 170:Drivers/BSP/Components/st7789h2/st7789h2.c ****   parameter[1] = 0x00;
 171:Drivers/BSP/Components/st7789h2/st7789h2.c ****   parameter[2] = 0x00;
 172:Drivers/BSP/Components/st7789h2/st7789h2.c ****   parameter[3] = 0xEF;
 173:Drivers/BSP/Components/st7789h2/st7789h2.c ****   ST7789H2_WriteReg(ST7789H2_RASET, parameter, 4);
 174:Drivers/BSP/Components/st7789h2/st7789h2.c **** 
 175:Drivers/BSP/Components/st7789h2/st7789h2.c ****   /*--------------- ST7789H2 Frame rate setting -------------------------------*/
 176:Drivers/BSP/Components/st7789h2/st7789h2.c ****   /* PORCH control setting */      
 177:Drivers/BSP/Components/st7789h2/st7789h2.c ****   parameter[0] = 0x0C;
 178:Drivers/BSP/Components/st7789h2/st7789h2.c ****   parameter[1] = 0x0C;
 179:Drivers/BSP/Components/st7789h2/st7789h2.c ****   parameter[2] = 0x00;
 180:Drivers/BSP/Components/st7789h2/st7789h2.c ****   parameter[3] = 0x33;
 181:Drivers/BSP/Components/st7789h2/st7789h2.c ****   parameter[4] = 0x33; 
 182:Drivers/BSP/Components/st7789h2/st7789h2.c ****   ST7789H2_WriteReg(ST7789H2_PORCH_CTRL, parameter, 5);
 183:Drivers/BSP/Components/st7789h2/st7789h2.c ****   
 184:Drivers/BSP/Components/st7789h2/st7789h2.c ****   /* GATE control setting */
 185:Drivers/BSP/Components/st7789h2/st7789h2.c ****   parameter[0] = 0x35; 
 186:Drivers/BSP/Components/st7789h2/st7789h2.c ****   ST7789H2_WriteReg(ST7789H2_GATE_CTRL, parameter, 1);
 187:Drivers/BSP/Components/st7789h2/st7789h2.c ****   
 188:Drivers/BSP/Components/st7789h2/st7789h2.c ****   /*--------------- ST7789H2 Power setting ------------------------------------*/
 189:Drivers/BSP/Components/st7789h2/st7789h2.c ****   /* VCOM setting */ 
 190:Drivers/BSP/Components/st7789h2/st7789h2.c ****   parameter[0] = 0x1F; 
 191:Drivers/BSP/Components/st7789h2/st7789h2.c ****   ST7789H2_WriteReg(ST7789H2_VCOM_SET, parameter, 1); 
 192:Drivers/BSP/Components/st7789h2/st7789h2.c ****   
 193:Drivers/BSP/Components/st7789h2/st7789h2.c ****   /* LCM Control setting */ 
 194:Drivers/BSP/Components/st7789h2/st7789h2.c ****   parameter[0] = 0x2C; 
 195:Drivers/BSP/Components/st7789h2/st7789h2.c ****   ST7789H2_WriteReg(ST7789H2_LCM_CTRL, parameter, 1);
 196:Drivers/BSP/Components/st7789h2/st7789h2.c ****   
 197:Drivers/BSP/Components/st7789h2/st7789h2.c ****   /* VDV and VRH Command Enable */ 
 198:Drivers/BSP/Components/st7789h2/st7789h2.c ****   parameter[0] = 0x01;
 199:Drivers/BSP/Components/st7789h2/st7789h2.c ****   parameter[1] = 0xC3;
 200:Drivers/BSP/Components/st7789h2/st7789h2.c ****   ST7789H2_WriteReg(ST7789H2_VDV_VRH_EN, parameter, 2);
 201:Drivers/BSP/Components/st7789h2/st7789h2.c ****   
 202:Drivers/BSP/Components/st7789h2/st7789h2.c ****   /* VDV Set */ 
ARM GAS  /var/folders/n6/c271nzx11xl4r4_m7sqjlt0m0000gn/T//cchL8bna.s 			page 5


 203:Drivers/BSP/Components/st7789h2/st7789h2.c ****   parameter[0] = 0x20; 
 204:Drivers/BSP/Components/st7789h2/st7789h2.c ****   ST7789H2_WriteReg(ST7789H2_VDV_SET, parameter, 1); 
 205:Drivers/BSP/Components/st7789h2/st7789h2.c ****   
 206:Drivers/BSP/Components/st7789h2/st7789h2.c ****   /* Frame Rate Control in normal mode */ 
 207:Drivers/BSP/Components/st7789h2/st7789h2.c ****   parameter[0] = 0x0F; 
 208:Drivers/BSP/Components/st7789h2/st7789h2.c ****   ST7789H2_WriteReg(ST7789H2_FR_CTRL, parameter, 1); 
 209:Drivers/BSP/Components/st7789h2/st7789h2.c ****   
 210:Drivers/BSP/Components/st7789h2/st7789h2.c ****   /* Power Control */     
 211:Drivers/BSP/Components/st7789h2/st7789h2.c ****   parameter[0] = 0xA4;
 212:Drivers/BSP/Components/st7789h2/st7789h2.c ****   parameter[1] = 0xA1;
 213:Drivers/BSP/Components/st7789h2/st7789h2.c ****   ST7789H2_WriteReg(ST7789H2_POWER_CTRL, parameter, 1); 
 214:Drivers/BSP/Components/st7789h2/st7789h2.c ****   
 215:Drivers/BSP/Components/st7789h2/st7789h2.c ****   /*--------------- ST7789H2 Gamma setting ------------------------------------*/
 216:Drivers/BSP/Components/st7789h2/st7789h2.c ****   /* Positive Voltage Gamma Control */ 
 217:Drivers/BSP/Components/st7789h2/st7789h2.c ****   parameter[0] = 0xD0;
 218:Drivers/BSP/Components/st7789h2/st7789h2.c ****   parameter[1] = 0x08;
 219:Drivers/BSP/Components/st7789h2/st7789h2.c ****   parameter[2] = 0x11;
 220:Drivers/BSP/Components/st7789h2/st7789h2.c ****   parameter[3] = 0x08;
 221:Drivers/BSP/Components/st7789h2/st7789h2.c ****   parameter[4] = 0x0C;
 222:Drivers/BSP/Components/st7789h2/st7789h2.c ****   parameter[5] = 0x15;
 223:Drivers/BSP/Components/st7789h2/st7789h2.c ****   parameter[6] = 0x39;
 224:Drivers/BSP/Components/st7789h2/st7789h2.c ****   parameter[7] = 0x33;
 225:Drivers/BSP/Components/st7789h2/st7789h2.c ****   parameter[8] = 0x50;
 226:Drivers/BSP/Components/st7789h2/st7789h2.c ****   parameter[9] = 0x36;
 227:Drivers/BSP/Components/st7789h2/st7789h2.c ****   parameter[10] = 0x13;
 228:Drivers/BSP/Components/st7789h2/st7789h2.c ****   parameter[11] = 0x14;
 229:Drivers/BSP/Components/st7789h2/st7789h2.c ****   parameter[12] = 0x29;
 230:Drivers/BSP/Components/st7789h2/st7789h2.c ****   parameter[13] = 0x2D;
 231:Drivers/BSP/Components/st7789h2/st7789h2.c ****   ST7789H2_WriteReg(ST7789H2_PV_GAMMA_CTRL, parameter, 14); 
 232:Drivers/BSP/Components/st7789h2/st7789h2.c ****   
 233:Drivers/BSP/Components/st7789h2/st7789h2.c ****   /* Negative Voltage Gamma Control */     
 234:Drivers/BSP/Components/st7789h2/st7789h2.c ****   parameter[0] = 0xD0;
 235:Drivers/BSP/Components/st7789h2/st7789h2.c ****   parameter[1] = 0x08;
 236:Drivers/BSP/Components/st7789h2/st7789h2.c ****   parameter[2] = 0x10;
 237:Drivers/BSP/Components/st7789h2/st7789h2.c ****   parameter[3] = 0x08;
 238:Drivers/BSP/Components/st7789h2/st7789h2.c ****   parameter[4] = 0x06;
 239:Drivers/BSP/Components/st7789h2/st7789h2.c ****   parameter[5] = 0x06;
 240:Drivers/BSP/Components/st7789h2/st7789h2.c ****   parameter[6] = 0x39;
 241:Drivers/BSP/Components/st7789h2/st7789h2.c ****   parameter[7] = 0x44;
 242:Drivers/BSP/Components/st7789h2/st7789h2.c ****   parameter[8] = 0x51;
 243:Drivers/BSP/Components/st7789h2/st7789h2.c ****   parameter[9] = 0x0B;
 244:Drivers/BSP/Components/st7789h2/st7789h2.c ****   parameter[10] = 0x16;
 245:Drivers/BSP/Components/st7789h2/st7789h2.c ****   parameter[11] = 0x14;
 246:Drivers/BSP/Components/st7789h2/st7789h2.c ****   parameter[12] = 0x2F;
 247:Drivers/BSP/Components/st7789h2/st7789h2.c ****   parameter[13] = 0x31;
 248:Drivers/BSP/Components/st7789h2/st7789h2.c ****   ST7789H2_WriteReg(ST7789H2_NV_GAMMA_CTRL, parameter, 14); 
 249:Drivers/BSP/Components/st7789h2/st7789h2.c ****   
 250:Drivers/BSP/Components/st7789h2/st7789h2.c ****   /* Display ON command */
 251:Drivers/BSP/Components/st7789h2/st7789h2.c ****   ST7789H2_DisplayOn();  
 252:Drivers/BSP/Components/st7789h2/st7789h2.c ****   
 253:Drivers/BSP/Components/st7789h2/st7789h2.c ****   /* Tearing Effect Line On: Option (00h:VSYNC Interface OFF, 01h:VSYNC Interface ON) */
 254:Drivers/BSP/Components/st7789h2/st7789h2.c ****   parameter[0] = 0x00;     
 255:Drivers/BSP/Components/st7789h2/st7789h2.c ****   ST7789H2_WriteReg(ST7789H2_TEARING_EFFECT, parameter, 1);
 256:Drivers/BSP/Components/st7789h2/st7789h2.c **** 
 257:Drivers/BSP/Components/st7789h2/st7789h2.c **** }
 258:Drivers/BSP/Components/st7789h2/st7789h2.c **** 
 259:Drivers/BSP/Components/st7789h2/st7789h2.c **** /**
ARM GAS  /var/folders/n6/c271nzx11xl4r4_m7sqjlt0m0000gn/T//cchL8bna.s 			page 6


 260:Drivers/BSP/Components/st7789h2/st7789h2.c ****   * @brief  Set the Display Orientation.
 261:Drivers/BSP/Components/st7789h2/st7789h2.c ****   * @param  orientation: ST7789H2_ORIENTATION_PORTRAIT, ST7789H2_ORIENTATION_LANDSCAPE
 262:Drivers/BSP/Components/st7789h2/st7789h2.c ****   *                      or ST7789H2_ORIENTATION_LANDSCAPE_ROT180  
 263:Drivers/BSP/Components/st7789h2/st7789h2.c ****   * @retval None
 264:Drivers/BSP/Components/st7789h2/st7789h2.c ****   */
 265:Drivers/BSP/Components/st7789h2/st7789h2.c **** void ST7789H2_SetOrientation(uint32_t orientation)
 266:Drivers/BSP/Components/st7789h2/st7789h2.c **** {
 267:Drivers/BSP/Components/st7789h2/st7789h2.c ****   uint8_t   parameter[6];
 268:Drivers/BSP/Components/st7789h2/st7789h2.c **** 
 269:Drivers/BSP/Components/st7789h2/st7789h2.c ****   if(orientation == ST7789H2_ORIENTATION_LANDSCAPE)
 270:Drivers/BSP/Components/st7789h2/st7789h2.c ****   {
 271:Drivers/BSP/Components/st7789h2/st7789h2.c ****     parameter[0] = 0x00;     
 272:Drivers/BSP/Components/st7789h2/st7789h2.c ****   }
 273:Drivers/BSP/Components/st7789h2/st7789h2.c ****   else if(orientation == ST7789H2_ORIENTATION_LANDSCAPE_ROT180)
 274:Drivers/BSP/Components/st7789h2/st7789h2.c ****   {
 275:Drivers/BSP/Components/st7789h2/st7789h2.c ****     /* Vertical Scrolling Definition */
 276:Drivers/BSP/Components/st7789h2/st7789h2.c ****     /* TFA describes the Top Fixed Area */
 277:Drivers/BSP/Components/st7789h2/st7789h2.c ****     parameter[0] = 0x00;
 278:Drivers/BSP/Components/st7789h2/st7789h2.c ****     parameter[1] = 0x00;
 279:Drivers/BSP/Components/st7789h2/st7789h2.c ****     /* VSA describes the height of the Vertical Scrolling Area */
 280:Drivers/BSP/Components/st7789h2/st7789h2.c ****     parameter[2] = 0x01;
 281:Drivers/BSP/Components/st7789h2/st7789h2.c ****     parameter[3] = 0xF0;
 282:Drivers/BSP/Components/st7789h2/st7789h2.c ****     /* BFA describes the Bottom Fixed Area */
 283:Drivers/BSP/Components/st7789h2/st7789h2.c ****     parameter[4] = 0x00;
 284:Drivers/BSP/Components/st7789h2/st7789h2.c ****     parameter[5] = 0x00; 
 285:Drivers/BSP/Components/st7789h2/st7789h2.c ****     ST7789H2_WriteReg(ST7789H2_VSCRDEF, parameter, 6);
 286:Drivers/BSP/Components/st7789h2/st7789h2.c **** 
 287:Drivers/BSP/Components/st7789h2/st7789h2.c ****     /* Vertical Scroll Start Address of RAM */
 288:Drivers/BSP/Components/st7789h2/st7789h2.c ****     /* GRAM row nbr (320) - Display row nbr (240) = 80 = 0x50 */
 289:Drivers/BSP/Components/st7789h2/st7789h2.c ****     parameter[0] = 0x00;
 290:Drivers/BSP/Components/st7789h2/st7789h2.c ****     parameter[1] = 0x50;
 291:Drivers/BSP/Components/st7789h2/st7789h2.c ****     ST7789H2_WriteReg(ST7789H2_VSCSAD, parameter, 2);
 292:Drivers/BSP/Components/st7789h2/st7789h2.c ****     
 293:Drivers/BSP/Components/st7789h2/st7789h2.c ****     parameter[0] = 0xC0; 
 294:Drivers/BSP/Components/st7789h2/st7789h2.c ****   }
 295:Drivers/BSP/Components/st7789h2/st7789h2.c ****   else
 296:Drivers/BSP/Components/st7789h2/st7789h2.c ****   {
 297:Drivers/BSP/Components/st7789h2/st7789h2.c ****     parameter[0] = 0x60;     
 298:Drivers/BSP/Components/st7789h2/st7789h2.c ****   }
 299:Drivers/BSP/Components/st7789h2/st7789h2.c ****   ST7789H2_WriteReg(ST7789H2_NORMAL_DISPLAY, parameter, 1);
 300:Drivers/BSP/Components/st7789h2/st7789h2.c **** }
 301:Drivers/BSP/Components/st7789h2/st7789h2.c **** 
 302:Drivers/BSP/Components/st7789h2/st7789h2.c **** /**
 303:Drivers/BSP/Components/st7789h2/st7789h2.c ****   * @brief  Enables the Display.
 304:Drivers/BSP/Components/st7789h2/st7789h2.c ****   * @param  None
 305:Drivers/BSP/Components/st7789h2/st7789h2.c ****   * @retval None
 306:Drivers/BSP/Components/st7789h2/st7789h2.c ****   */
 307:Drivers/BSP/Components/st7789h2/st7789h2.c **** void ST7789H2_DisplayOn(void)
 308:Drivers/BSP/Components/st7789h2/st7789h2.c **** {
 309:Drivers/BSP/Components/st7789h2/st7789h2.c ****   /* Display ON command */
 310:Drivers/BSP/Components/st7789h2/st7789h2.c ****   ST7789H2_WriteReg(ST7789H2_DISPLAY_ON, (uint8_t*)NULL, 0);
 311:Drivers/BSP/Components/st7789h2/st7789h2.c **** 
 312:Drivers/BSP/Components/st7789h2/st7789h2.c ****   /* Sleep Out command */
 313:Drivers/BSP/Components/st7789h2/st7789h2.c ****   ST7789H2_WriteReg(ST7789H2_SLEEP_OUT, (uint8_t*)NULL, 0);
 314:Drivers/BSP/Components/st7789h2/st7789h2.c **** }
 315:Drivers/BSP/Components/st7789h2/st7789h2.c **** 
 316:Drivers/BSP/Components/st7789h2/st7789h2.c **** /**
ARM GAS  /var/folders/n6/c271nzx11xl4r4_m7sqjlt0m0000gn/T//cchL8bna.s 			page 7


 317:Drivers/BSP/Components/st7789h2/st7789h2.c ****   * @brief  Disables the Display.
 318:Drivers/BSP/Components/st7789h2/st7789h2.c ****   * @param  None
 319:Drivers/BSP/Components/st7789h2/st7789h2.c ****   * @retval None
 320:Drivers/BSP/Components/st7789h2/st7789h2.c ****   */
 321:Drivers/BSP/Components/st7789h2/st7789h2.c **** void ST7789H2_DisplayOff(void)
 322:Drivers/BSP/Components/st7789h2/st7789h2.c **** {
 323:Drivers/BSP/Components/st7789h2/st7789h2.c ****   uint8_t   parameter[1];
 324:Drivers/BSP/Components/st7789h2/st7789h2.c ****   parameter[0] = 0xFE;
 325:Drivers/BSP/Components/st7789h2/st7789h2.c ****   /* Display OFF command */
 326:Drivers/BSP/Components/st7789h2/st7789h2.c ****   ST7789H2_WriteReg(ST7789H2_DISPLAY_OFF, parameter, 1);  
 327:Drivers/BSP/Components/st7789h2/st7789h2.c ****   /* Sleep In Command */
 328:Drivers/BSP/Components/st7789h2/st7789h2.c ****   ST7789H2_WriteReg(ST7789H2_SLEEP_IN, (uint8_t*)NULL, 0); 
 329:Drivers/BSP/Components/st7789h2/st7789h2.c ****   /* Wait for 10ms */
 330:Drivers/BSP/Components/st7789h2/st7789h2.c ****   LCD_IO_Delay(10);  
 331:Drivers/BSP/Components/st7789h2/st7789h2.c **** }
 332:Drivers/BSP/Components/st7789h2/st7789h2.c **** 
 333:Drivers/BSP/Components/st7789h2/st7789h2.c **** /**
 334:Drivers/BSP/Components/st7789h2/st7789h2.c ****   * @brief  Get the LCD pixel Width.
 335:Drivers/BSP/Components/st7789h2/st7789h2.c ****   * @param  None
 336:Drivers/BSP/Components/st7789h2/st7789h2.c ****   * @retval The Lcd Pixel Width
 337:Drivers/BSP/Components/st7789h2/st7789h2.c ****   */
 338:Drivers/BSP/Components/st7789h2/st7789h2.c **** uint16_t ST7789H2_GetLcdPixelWidth(void)
 339:Drivers/BSP/Components/st7789h2/st7789h2.c **** {
  28              		.loc 1 339 1 view -0
  29              		.cfi_startproc
  30              		@ args = 0, pretend = 0, frame = 0
  31              		@ frame_needed = 0, uses_anonymous_args = 0
  32              		@ link register save eliminated.
 340:Drivers/BSP/Components/st7789h2/st7789h2.c ****  return (uint16_t)ST7789H2_LCD_PIXEL_WIDTH;
  33              		.loc 1 340 2 view .LVU1
 341:Drivers/BSP/Components/st7789h2/st7789h2.c **** }
  34              		.loc 1 341 1 is_stmt 0 view .LVU2
  35 0000 F020     		movs	r0, #240
  36 0002 7047     		bx	lr
  37              		.cfi_endproc
  38              	.LFE7:
  40              		.section	.text.ST7789H2_GetLcdPixelHeight,"ax",%progbits
  41              		.align	1
  42              		.global	ST7789H2_GetLcdPixelHeight
  43              		.syntax unified
  44              		.thumb
  45              		.thumb_func
  47              	ST7789H2_GetLcdPixelHeight:
  48              	.LFB8:
 342:Drivers/BSP/Components/st7789h2/st7789h2.c **** 
 343:Drivers/BSP/Components/st7789h2/st7789h2.c **** /**
 344:Drivers/BSP/Components/st7789h2/st7789h2.c ****   * @brief  Get the LCD pixel Height.
 345:Drivers/BSP/Components/st7789h2/st7789h2.c ****   * @param  None
 346:Drivers/BSP/Components/st7789h2/st7789h2.c ****   * @retval The Lcd Pixel Height
 347:Drivers/BSP/Components/st7789h2/st7789h2.c ****   */
 348:Drivers/BSP/Components/st7789h2/st7789h2.c **** uint16_t ST7789H2_GetLcdPixelHeight(void)
 349:Drivers/BSP/Components/st7789h2/st7789h2.c **** {
  49              		.loc 1 349 1 is_stmt 1 view -0
  50              		.cfi_startproc
  51              		@ args = 0, pretend = 0, frame = 0
  52              		@ frame_needed = 0, uses_anonymous_args = 0
  53              		@ link register save eliminated.
ARM GAS  /var/folders/n6/c271nzx11xl4r4_m7sqjlt0m0000gn/T//cchL8bna.s 			page 8


 350:Drivers/BSP/Components/st7789h2/st7789h2.c ****  return (uint16_t)ST7789H2_LCD_PIXEL_HEIGHT;
  54              		.loc 1 350 2 view .LVU4
 351:Drivers/BSP/Components/st7789h2/st7789h2.c **** }
  55              		.loc 1 351 1 is_stmt 0 view .LVU5
  56 0000 F020     		movs	r0, #240
  57 0002 7047     		bx	lr
  58              		.cfi_endproc
  59              	.LFE8:
  61              		.section	.text.ST7789H2_SetDisplayWindow,"ax",%progbits
  62              		.align	1
  63              		.global	ST7789H2_SetDisplayWindow
  64              		.syntax unified
  65              		.thumb
  66              		.thumb_func
  68              	ST7789H2_SetDisplayWindow:
  69              	.LVL0:
  70              	.LFB15:
 352:Drivers/BSP/Components/st7789h2/st7789h2.c **** 
 353:Drivers/BSP/Components/st7789h2/st7789h2.c **** /**
 354:Drivers/BSP/Components/st7789h2/st7789h2.c ****   * @brief  Get the st7789h2 ID.
 355:Drivers/BSP/Components/st7789h2/st7789h2.c ****   * @param  None
 356:Drivers/BSP/Components/st7789h2/st7789h2.c ****   * @retval The st7789h2 ID 
 357:Drivers/BSP/Components/st7789h2/st7789h2.c ****   */
 358:Drivers/BSP/Components/st7789h2/st7789h2.c **** uint16_t ST7789H2_ReadID(void)
 359:Drivers/BSP/Components/st7789h2/st7789h2.c **** {
 360:Drivers/BSP/Components/st7789h2/st7789h2.c ****   LCD_IO_Init();
 361:Drivers/BSP/Components/st7789h2/st7789h2.c ****   
 362:Drivers/BSP/Components/st7789h2/st7789h2.c ****   return ST7789H2_ReadReg(ST7789H2_LCD_ID);
 363:Drivers/BSP/Components/st7789h2/st7789h2.c **** }
 364:Drivers/BSP/Components/st7789h2/st7789h2.c **** 
 365:Drivers/BSP/Components/st7789h2/st7789h2.c **** /**
 366:Drivers/BSP/Components/st7789h2/st7789h2.c ****   * @brief  Set Cursor position.
 367:Drivers/BSP/Components/st7789h2/st7789h2.c ****   * @param  Xpos: specifies the X position.
 368:Drivers/BSP/Components/st7789h2/st7789h2.c ****   * @param  Ypos: specifies the Y position.
 369:Drivers/BSP/Components/st7789h2/st7789h2.c ****   * @retval None
 370:Drivers/BSP/Components/st7789h2/st7789h2.c ****   */
 371:Drivers/BSP/Components/st7789h2/st7789h2.c **** void ST7789H2_SetCursor(uint16_t Xpos, uint16_t Ypos)
 372:Drivers/BSP/Components/st7789h2/st7789h2.c **** {
 373:Drivers/BSP/Components/st7789h2/st7789h2.c ****   uint8_t   parameter[4];
 374:Drivers/BSP/Components/st7789h2/st7789h2.c ****   /* CASET: Comumn Addrses Set */
 375:Drivers/BSP/Components/st7789h2/st7789h2.c ****   parameter[0] = 0x00;     
 376:Drivers/BSP/Components/st7789h2/st7789h2.c ****   parameter[1] = 0x00 + Xpos;
 377:Drivers/BSP/Components/st7789h2/st7789h2.c ****   parameter[2] = 0x00;
 378:Drivers/BSP/Components/st7789h2/st7789h2.c ****   parameter[3] = 0xEF + Xpos;
 379:Drivers/BSP/Components/st7789h2/st7789h2.c ****   ST7789H2_WriteReg(ST7789H2_CASET, parameter, 4);
 380:Drivers/BSP/Components/st7789h2/st7789h2.c ****   /* RASET: Row Addrses Set */  
 381:Drivers/BSP/Components/st7789h2/st7789h2.c ****   parameter[0] = 0x00;
 382:Drivers/BSP/Components/st7789h2/st7789h2.c ****   parameter[1] = 0x00 + Ypos;
 383:Drivers/BSP/Components/st7789h2/st7789h2.c ****   parameter[2] = 0x00;
 384:Drivers/BSP/Components/st7789h2/st7789h2.c ****   parameter[3] = 0xEF + Ypos;
 385:Drivers/BSP/Components/st7789h2/st7789h2.c ****   ST7789H2_WriteReg(ST7789H2_RASET, parameter, 4);
 386:Drivers/BSP/Components/st7789h2/st7789h2.c **** }
 387:Drivers/BSP/Components/st7789h2/st7789h2.c **** 
 388:Drivers/BSP/Components/st7789h2/st7789h2.c **** /**
 389:Drivers/BSP/Components/st7789h2/st7789h2.c ****   * @brief  Write pixel.   
 390:Drivers/BSP/Components/st7789h2/st7789h2.c ****   * @param  Xpos: specifies the X position.
 391:Drivers/BSP/Components/st7789h2/st7789h2.c ****   * @param  Ypos: specifies the Y position.
ARM GAS  /var/folders/n6/c271nzx11xl4r4_m7sqjlt0m0000gn/T//cchL8bna.s 			page 9


 392:Drivers/BSP/Components/st7789h2/st7789h2.c ****   * @param  RGBCode: the RGB pixel color in RGB565 format
 393:Drivers/BSP/Components/st7789h2/st7789h2.c ****   * @retval None
 394:Drivers/BSP/Components/st7789h2/st7789h2.c ****   */
 395:Drivers/BSP/Components/st7789h2/st7789h2.c **** void ST7789H2_WritePixel(uint16_t Xpos, uint16_t Ypos, uint16_t RGBCode)
 396:Drivers/BSP/Components/st7789h2/st7789h2.c **** {
 397:Drivers/BSP/Components/st7789h2/st7789h2.c ****   /* Set Cursor */
 398:Drivers/BSP/Components/st7789h2/st7789h2.c ****   ST7789H2_SetCursor(Xpos, Ypos);
 399:Drivers/BSP/Components/st7789h2/st7789h2.c **** 
 400:Drivers/BSP/Components/st7789h2/st7789h2.c ****   /* Prepare to write to LCD RAM */
 401:Drivers/BSP/Components/st7789h2/st7789h2.c ****   ST7789H2_WriteReg(ST7789H2_WRITE_RAM, (uint8_t*)NULL, 0);   /* RAM write data command */
 402:Drivers/BSP/Components/st7789h2/st7789h2.c **** 
 403:Drivers/BSP/Components/st7789h2/st7789h2.c ****   /* Write RAM data */
 404:Drivers/BSP/Components/st7789h2/st7789h2.c ****   LCD_IO_WriteData(RGBCode);
 405:Drivers/BSP/Components/st7789h2/st7789h2.c **** }
 406:Drivers/BSP/Components/st7789h2/st7789h2.c **** 
 407:Drivers/BSP/Components/st7789h2/st7789h2.c **** /**
 408:Drivers/BSP/Components/st7789h2/st7789h2.c ****   * @brief  Read pixel.
 409:Drivers/BSP/Components/st7789h2/st7789h2.c ****   * @param  Xpos: specifies the X position.
 410:Drivers/BSP/Components/st7789h2/st7789h2.c ****   * @param  Ypos: specifies the Y position.
 411:Drivers/BSP/Components/st7789h2/st7789h2.c ****   * @retval The RGB pixel color in RGB565 format
 412:Drivers/BSP/Components/st7789h2/st7789h2.c ****   */
 413:Drivers/BSP/Components/st7789h2/st7789h2.c **** uint16_t ST7789H2_ReadPixel(uint16_t Xpos, uint16_t Ypos)
 414:Drivers/BSP/Components/st7789h2/st7789h2.c **** {
 415:Drivers/BSP/Components/st7789h2/st7789h2.c ****   ST7789H2_Rgb888 rgb888;
 416:Drivers/BSP/Components/st7789h2/st7789h2.c ****   uint8_t          r, g, b;
 417:Drivers/BSP/Components/st7789h2/st7789h2.c ****   uint16_t         rgb565;
 418:Drivers/BSP/Components/st7789h2/st7789h2.c **** 
 419:Drivers/BSP/Components/st7789h2/st7789h2.c ****   /* Set Cursor */
 420:Drivers/BSP/Components/st7789h2/st7789h2.c ****   ST7789H2_SetCursor(Xpos, Ypos);
 421:Drivers/BSP/Components/st7789h2/st7789h2.c ****   
 422:Drivers/BSP/Components/st7789h2/st7789h2.c ****   /* Read RGB888 data from LCD RAM */
 423:Drivers/BSP/Components/st7789h2/st7789h2.c ****   rgb888 = ST7789H2_ReadPixel_rgb888(Xpos, Ypos);
 424:Drivers/BSP/Components/st7789h2/st7789h2.c ****   
 425:Drivers/BSP/Components/st7789h2/st7789h2.c ****   /* Convert RGB888 to RGB565 */
 426:Drivers/BSP/Components/st7789h2/st7789h2.c ****   r = ((rgb888.red & 0xF8) >> 3);    /* Extract the red component 5 most significant bits */
 427:Drivers/BSP/Components/st7789h2/st7789h2.c ****   g = ((rgb888.green & 0xFC) >> 2);  /* Extract the green component 6 most significant bits */
 428:Drivers/BSP/Components/st7789h2/st7789h2.c ****   b = ((rgb888.blue & 0xF8) >> 3);   /* Extract the blue component 5 most significant bits */
 429:Drivers/BSP/Components/st7789h2/st7789h2.c **** 
 430:Drivers/BSP/Components/st7789h2/st7789h2.c ****   rgb565 = ((uint16_t)(r) << 11) + ((uint16_t)(g) << 5) + ((uint16_t)(b) << 0);
 431:Drivers/BSP/Components/st7789h2/st7789h2.c ****   
 432:Drivers/BSP/Components/st7789h2/st7789h2.c ****   return (rgb565);
 433:Drivers/BSP/Components/st7789h2/st7789h2.c **** }
 434:Drivers/BSP/Components/st7789h2/st7789h2.c **** 
 435:Drivers/BSP/Components/st7789h2/st7789h2.c **** /**
 436:Drivers/BSP/Components/st7789h2/st7789h2.c ****   * @brief  Writes to the selected LCD register.
 437:Drivers/BSP/Components/st7789h2/st7789h2.c ****   * @param  Command: command value (or register address as named in st7789h2 doc).
 438:Drivers/BSP/Components/st7789h2/st7789h2.c ****   * @param  Parameters: pointer on parameters value (if command uses one or several parameters).
 439:Drivers/BSP/Components/st7789h2/st7789h2.c ****   * @param  NbParameters: number of command parameters (0 if no parameter)
 440:Drivers/BSP/Components/st7789h2/st7789h2.c ****   * @retval None
 441:Drivers/BSP/Components/st7789h2/st7789h2.c ****   */
 442:Drivers/BSP/Components/st7789h2/st7789h2.c **** void ST7789H2_WriteReg(uint8_t Command, uint8_t *Parameters, uint8_t NbParameters)
 443:Drivers/BSP/Components/st7789h2/st7789h2.c **** {
 444:Drivers/BSP/Components/st7789h2/st7789h2.c ****   uint8_t   i;
 445:Drivers/BSP/Components/st7789h2/st7789h2.c **** 
 446:Drivers/BSP/Components/st7789h2/st7789h2.c ****   /* Send command */
 447:Drivers/BSP/Components/st7789h2/st7789h2.c ****   LCD_IO_WriteReg(Command);
 448:Drivers/BSP/Components/st7789h2/st7789h2.c ****   
ARM GAS  /var/folders/n6/c271nzx11xl4r4_m7sqjlt0m0000gn/T//cchL8bna.s 			page 10


 449:Drivers/BSP/Components/st7789h2/st7789h2.c ****   /* Send command's parameters if any */
 450:Drivers/BSP/Components/st7789h2/st7789h2.c ****   for (i=0; i<NbParameters; i++)
 451:Drivers/BSP/Components/st7789h2/st7789h2.c ****   {
 452:Drivers/BSP/Components/st7789h2/st7789h2.c ****     LCD_IO_WriteData(Parameters[i]);
 453:Drivers/BSP/Components/st7789h2/st7789h2.c ****   }
 454:Drivers/BSP/Components/st7789h2/st7789h2.c **** }
 455:Drivers/BSP/Components/st7789h2/st7789h2.c **** 
 456:Drivers/BSP/Components/st7789h2/st7789h2.c **** /**
 457:Drivers/BSP/Components/st7789h2/st7789h2.c ****   * @brief  Reads the selected LCD Register.
 458:Drivers/BSP/Components/st7789h2/st7789h2.c ****   * @param  Command: command value (or register address as named in st7789h2 doc).
 459:Drivers/BSP/Components/st7789h2/st7789h2.c ****   * @retval Register Value.
 460:Drivers/BSP/Components/st7789h2/st7789h2.c ****   */
 461:Drivers/BSP/Components/st7789h2/st7789h2.c **** uint8_t ST7789H2_ReadReg(uint8_t Command)
 462:Drivers/BSP/Components/st7789h2/st7789h2.c **** {
 463:Drivers/BSP/Components/st7789h2/st7789h2.c ****   /* Send command */
 464:Drivers/BSP/Components/st7789h2/st7789h2.c ****   LCD_IO_WriteReg(Command);
 465:Drivers/BSP/Components/st7789h2/st7789h2.c **** 
 466:Drivers/BSP/Components/st7789h2/st7789h2.c ****   /* Read dummy data */
 467:Drivers/BSP/Components/st7789h2/st7789h2.c ****   LCD_IO_ReadData();
 468:Drivers/BSP/Components/st7789h2/st7789h2.c ****   
 469:Drivers/BSP/Components/st7789h2/st7789h2.c ****   /* Read register value */
 470:Drivers/BSP/Components/st7789h2/st7789h2.c ****   return (LCD_IO_ReadData());
 471:Drivers/BSP/Components/st7789h2/st7789h2.c **** }
 472:Drivers/BSP/Components/st7789h2/st7789h2.c **** 
 473:Drivers/BSP/Components/st7789h2/st7789h2.c **** /**
 474:Drivers/BSP/Components/st7789h2/st7789h2.c ****   * @brief  Sets a display window
 475:Drivers/BSP/Components/st7789h2/st7789h2.c ****   * @param  Xpos:   specifies the X bottom left position.
 476:Drivers/BSP/Components/st7789h2/st7789h2.c ****   * @param  Ypos:   specifies the Y bottom left position.
 477:Drivers/BSP/Components/st7789h2/st7789h2.c ****   * @param  Height: display window height.
 478:Drivers/BSP/Components/st7789h2/st7789h2.c ****   * @param  Width:  display window width.
 479:Drivers/BSP/Components/st7789h2/st7789h2.c ****   * @retval None
 480:Drivers/BSP/Components/st7789h2/st7789h2.c ****   */
 481:Drivers/BSP/Components/st7789h2/st7789h2.c **** void ST7789H2_SetDisplayWindow(uint16_t Xpos, uint16_t Ypos, uint16_t Width, uint16_t Height)
 482:Drivers/BSP/Components/st7789h2/st7789h2.c **** {
  71              		.loc 1 482 1 is_stmt 1 view -0
  72              		.cfi_startproc
  73              		@ args = 0, pretend = 0, frame = 0
  74              		@ frame_needed = 0, uses_anonymous_args = 0
  75              		@ link register save eliminated.
  76              		.loc 1 482 1 is_stmt 0 view .LVU7
  77 0000 10B4     		push	{r4}
  78              		.cfi_def_cfa_offset 4
  79              		.cfi_offset 4, -4
 483:Drivers/BSP/Components/st7789h2/st7789h2.c ****   if (Xpos < ST7789H2_LCD_PIXEL_WIDTH)
  80              		.loc 1 483 3 is_stmt 1 view .LVU8
  81              		.loc 1 483 6 is_stmt 0 view .LVU9
  82 0002 EF28     		cmp	r0, #239
  83 0004 19D8     		bhi	.L4
 484:Drivers/BSP/Components/st7789h2/st7789h2.c ****   {
 485:Drivers/BSP/Components/st7789h2/st7789h2.c ****     WindowsXstart = Xpos;
  84              		.loc 1 485 5 is_stmt 1 view .LVU10
  85              		.loc 1 485 19 is_stmt 0 view .LVU11
  86 0006 174C     		ldr	r4, .L13
  87 0008 2080     		strh	r0, [r4]	@ movhi
  88              	.L5:
 486:Drivers/BSP/Components/st7789h2/st7789h2.c ****   }
 487:Drivers/BSP/Components/st7789h2/st7789h2.c ****   else
ARM GAS  /var/folders/n6/c271nzx11xl4r4_m7sqjlt0m0000gn/T//cchL8bna.s 			page 11


 488:Drivers/BSP/Components/st7789h2/st7789h2.c ****   {
 489:Drivers/BSP/Components/st7789h2/st7789h2.c ****     WindowsXstart = 0;
 490:Drivers/BSP/Components/st7789h2/st7789h2.c ****   }
 491:Drivers/BSP/Components/st7789h2/st7789h2.c **** 
 492:Drivers/BSP/Components/st7789h2/st7789h2.c ****   if (Ypos < ST7789H2_LCD_PIXEL_HEIGHT)
  89              		.loc 1 492 3 is_stmt 1 view .LVU12
  90              		.loc 1 492 6 is_stmt 0 view .LVU13
  91 000a EF29     		cmp	r1, #239
  92 000c 1BD8     		bhi	.L6
 493:Drivers/BSP/Components/st7789h2/st7789h2.c ****   {
 494:Drivers/BSP/Components/st7789h2/st7789h2.c ****     WindowsYstart = Ypos;
  93              		.loc 1 494 5 is_stmt 1 view .LVU14
  94              		.loc 1 494 19 is_stmt 0 view .LVU15
  95 000e 164C     		ldr	r4, .L13+4
  96 0010 2180     		strh	r1, [r4]	@ movhi
  97              	.L7:
 495:Drivers/BSP/Components/st7789h2/st7789h2.c ****   }
 496:Drivers/BSP/Components/st7789h2/st7789h2.c ****   else
 497:Drivers/BSP/Components/st7789h2/st7789h2.c ****   {
 498:Drivers/BSP/Components/st7789h2/st7789h2.c ****     WindowsYstart = 0;
 499:Drivers/BSP/Components/st7789h2/st7789h2.c ****   }
 500:Drivers/BSP/Components/st7789h2/st7789h2.c **** 
 501:Drivers/BSP/Components/st7789h2/st7789h2.c ****   if (Width  + Xpos <= ST7789H2_LCD_PIXEL_WIDTH)
  98              		.loc 1 501 3 is_stmt 1 view .LVU16
  99              		.loc 1 501 14 is_stmt 0 view .LVU17
 100 0012 02EB000C 		add	ip, r2, r0
 101              		.loc 1 501 6 view .LVU18
 102 0016 BCF1F00F 		cmp	ip, #240
 103 001a 1ADC     		bgt	.L8
 502:Drivers/BSP/Components/st7789h2/st7789h2.c ****   {
 503:Drivers/BSP/Components/st7789h2/st7789h2.c ****     WindowsXend = Width  + Xpos - 1;
 104              		.loc 1 503 5 is_stmt 1 view .LVU19
 105              		.loc 1 503 26 is_stmt 0 view .LVU20
 106 001c 1FFA8CF0 		uxth	r0, ip
 107              	.LVL1:
 108              		.loc 1 503 33 view .LVU21
 109 0020 0138     		subs	r0, r0, #1
 110              		.loc 1 503 17 view .LVU22
 111 0022 124A     		ldr	r2, .L13+8
 112              	.LVL2:
 113              		.loc 1 503 17 view .LVU23
 114 0024 1080     		strh	r0, [r2]	@ movhi
 115              	.L9:
 504:Drivers/BSP/Components/st7789h2/st7789h2.c ****   }
 505:Drivers/BSP/Components/st7789h2/st7789h2.c ****   else
 506:Drivers/BSP/Components/st7789h2/st7789h2.c ****   {
 507:Drivers/BSP/Components/st7789h2/st7789h2.c ****     WindowsXend = ST7789H2_LCD_PIXEL_WIDTH - 1;
 508:Drivers/BSP/Components/st7789h2/st7789h2.c ****   }
 509:Drivers/BSP/Components/st7789h2/st7789h2.c **** 
 510:Drivers/BSP/Components/st7789h2/st7789h2.c ****   if (Height + Ypos <= ST7789H2_LCD_PIXEL_HEIGHT)
 116              		.loc 1 510 3 is_stmt 1 view .LVU24
 117              		.loc 1 510 14 is_stmt 0 view .LVU25
 118 0026 5A18     		adds	r2, r3, r1
 119              		.loc 1 510 6 view .LVU26
 120 0028 F02A     		cmp	r2, #240
 121 002a 16DC     		bgt	.L10
 511:Drivers/BSP/Components/st7789h2/st7789h2.c ****   {
ARM GAS  /var/folders/n6/c271nzx11xl4r4_m7sqjlt0m0000gn/T//cchL8bna.s 			page 12


 512:Drivers/BSP/Components/st7789h2/st7789h2.c ****     WindowsYend = Height + Ypos - 1;
 122              		.loc 1 512 5 is_stmt 1 view .LVU27
 123              		.loc 1 512 26 is_stmt 0 view .LVU28
 124 002c 91B2     		uxth	r1, r2
 125              	.LVL3:
 126              		.loc 1 512 33 view .LVU29
 127 002e 0139     		subs	r1, r1, #1
 128              		.loc 1 512 17 view .LVU30
 129 0030 0F4B     		ldr	r3, .L13+12
 130              	.LVL4:
 131              		.loc 1 512 17 view .LVU31
 132 0032 1980     		strh	r1, [r3]	@ movhi
 133              	.L3:
 513:Drivers/BSP/Components/st7789h2/st7789h2.c ****   }
 514:Drivers/BSP/Components/st7789h2/st7789h2.c ****   else
 515:Drivers/BSP/Components/st7789h2/st7789h2.c ****   {
 516:Drivers/BSP/Components/st7789h2/st7789h2.c ****     WindowsYend = ST7789H2_LCD_PIXEL_HEIGHT-1;
 517:Drivers/BSP/Components/st7789h2/st7789h2.c ****   }
 518:Drivers/BSP/Components/st7789h2/st7789h2.c **** }
 134              		.loc 1 518 1 view .LVU32
 135 0034 5DF8044B 		ldr	r4, [sp], #4
 136              		.cfi_remember_state
 137              		.cfi_restore 4
 138              		.cfi_def_cfa_offset 0
 139 0038 7047     		bx	lr
 140              	.LVL5:
 141              	.L4:
 142              		.cfi_restore_state
 489:Drivers/BSP/Components/st7789h2/st7789h2.c ****   }
 143              		.loc 1 489 5 is_stmt 1 view .LVU33
 489:Drivers/BSP/Components/st7789h2/st7789h2.c ****   }
 144              		.loc 1 489 19 is_stmt 0 view .LVU34
 145 003a 0A4C     		ldr	r4, .L13
 146 003c 4FF0000C 		mov	ip, #0
 147 0040 A4F800C0 		strh	ip, [r4]	@ movhi
 148 0044 E1E7     		b	.L5
 149              	.L6:
 498:Drivers/BSP/Components/st7789h2/st7789h2.c ****   }
 150              		.loc 1 498 5 is_stmt 1 view .LVU35
 498:Drivers/BSP/Components/st7789h2/st7789h2.c ****   }
 151              		.loc 1 498 19 is_stmt 0 view .LVU36
 152 0046 084C     		ldr	r4, .L13+4
 153 0048 4FF0000C 		mov	ip, #0
 154 004c A4F800C0 		strh	ip, [r4]	@ movhi
 155 0050 DFE7     		b	.L7
 156              	.L8:
 507:Drivers/BSP/Components/st7789h2/st7789h2.c ****   }
 157              		.loc 1 507 5 is_stmt 1 view .LVU37
 507:Drivers/BSP/Components/st7789h2/st7789h2.c ****   }
 158              		.loc 1 507 17 is_stmt 0 view .LVU38
 159 0052 064A     		ldr	r2, .L13+8
 160              	.LVL6:
 507:Drivers/BSP/Components/st7789h2/st7789h2.c ****   }
 161              		.loc 1 507 17 view .LVU39
 162 0054 EF20     		movs	r0, #239
 163              	.LVL7:
 507:Drivers/BSP/Components/st7789h2/st7789h2.c ****   }
ARM GAS  /var/folders/n6/c271nzx11xl4r4_m7sqjlt0m0000gn/T//cchL8bna.s 			page 13


 164              		.loc 1 507 17 view .LVU40
 165 0056 1080     		strh	r0, [r2]	@ movhi
 166 0058 E5E7     		b	.L9
 167              	.L10:
 516:Drivers/BSP/Components/st7789h2/st7789h2.c ****   }
 168              		.loc 1 516 5 is_stmt 1 view .LVU41
 516:Drivers/BSP/Components/st7789h2/st7789h2.c ****   }
 169              		.loc 1 516 17 is_stmt 0 view .LVU42
 170 005a 054B     		ldr	r3, .L13+12
 171              	.LVL8:
 516:Drivers/BSP/Components/st7789h2/st7789h2.c ****   }
 172              		.loc 1 516 17 view .LVU43
 173 005c EF22     		movs	r2, #239
 174 005e 1A80     		strh	r2, [r3]	@ movhi
 175              		.loc 1 518 1 view .LVU44
 176 0060 E8E7     		b	.L3
 177              	.L14:
 178 0062 00BF     		.align	2
 179              	.L13:
 180 0064 00000000 		.word	WindowsXstart
 181 0068 00000000 		.word	WindowsYstart
 182 006c 00000000 		.word	WindowsXend
 183 0070 00000000 		.word	WindowsYend
 184              		.cfi_endproc
 185              	.LFE15:
 187              		.section	.text.ST7789H2_WriteReg,"ax",%progbits
 188              		.align	1
 189              		.global	ST7789H2_WriteReg
 190              		.syntax unified
 191              		.thumb
 192              		.thumb_func
 194              	ST7789H2_WriteReg:
 195              	.LVL9:
 196              	.LFB13:
 443:Drivers/BSP/Components/st7789h2/st7789h2.c ****   uint8_t   i;
 197              		.loc 1 443 1 is_stmt 1 view -0
 198              		.cfi_startproc
 199              		@ args = 0, pretend = 0, frame = 0
 200              		@ frame_needed = 0, uses_anonymous_args = 0
 443:Drivers/BSP/Components/st7789h2/st7789h2.c ****   uint8_t   i;
 201              		.loc 1 443 1 is_stmt 0 view .LVU46
 202 0000 70B5     		push	{r4, r5, r6, lr}
 203              		.cfi_def_cfa_offset 16
 204              		.cfi_offset 4, -16
 205              		.cfi_offset 5, -12
 206              		.cfi_offset 6, -8
 207              		.cfi_offset 14, -4
 208 0002 0E46     		mov	r6, r1
 209 0004 1546     		mov	r5, r2
 444:Drivers/BSP/Components/st7789h2/st7789h2.c **** 
 210              		.loc 1 444 3 is_stmt 1 view .LVU47
 447:Drivers/BSP/Components/st7789h2/st7789h2.c ****   
 211              		.loc 1 447 3 view .LVU48
 212 0006 FFF7FEFF 		bl	LCD_IO_WriteReg
 213              	.LVL10:
 450:Drivers/BSP/Components/st7789h2/st7789h2.c ****   {
 214              		.loc 1 450 3 view .LVU49
ARM GAS  /var/folders/n6/c271nzx11xl4r4_m7sqjlt0m0000gn/T//cchL8bna.s 			page 14


 450:Drivers/BSP/Components/st7789h2/st7789h2.c ****   {
 215              		.loc 1 450 9 is_stmt 0 view .LVU50
 216 000a 0024     		movs	r4, #0
 450:Drivers/BSP/Components/st7789h2/st7789h2.c ****   {
 217              		.loc 1 450 3 view .LVU51
 218 000c 04E0     		b	.L16
 219              	.LVL11:
 220              	.L17:
 452:Drivers/BSP/Components/st7789h2/st7789h2.c ****   }
 221              		.loc 1 452 5 is_stmt 1 view .LVU52
 222 000e 305D     		ldrb	r0, [r6, r4]	@ zero_extendqisi2
 223 0010 FFF7FEFF 		bl	LCD_IO_WriteData
 224              	.LVL12:
 450:Drivers/BSP/Components/st7789h2/st7789h2.c ****   {
 225              		.loc 1 450 30 discriminator 3 view .LVU53
 226 0014 0134     		adds	r4, r4, #1
 227              	.LVL13:
 450:Drivers/BSP/Components/st7789h2/st7789h2.c ****   {
 228              		.loc 1 450 30 is_stmt 0 discriminator 3 view .LVU54
 229 0016 E4B2     		uxtb	r4, r4
 230              	.LVL14:
 231              	.L16:
 450:Drivers/BSP/Components/st7789h2/st7789h2.c ****   {
 232              		.loc 1 450 14 is_stmt 1 discriminator 1 view .LVU55
 233 0018 AC42     		cmp	r4, r5
 234 001a F8D3     		bcc	.L17
 454:Drivers/BSP/Components/st7789h2/st7789h2.c **** 
 235              		.loc 1 454 1 is_stmt 0 view .LVU56
 236 001c 70BD     		pop	{r4, r5, r6, pc}
 454:Drivers/BSP/Components/st7789h2/st7789h2.c **** 
 237              		.loc 1 454 1 view .LVU57
 238              		.cfi_endproc
 239              	.LFE13:
 241              		.section	.text.ST7789H2_SetOrientation,"ax",%progbits
 242              		.align	1
 243              		.global	ST7789H2_SetOrientation
 244              		.syntax unified
 245              		.thumb
 246              		.thumb_func
 248              	ST7789H2_SetOrientation:
 249              	.LVL15:
 250              	.LFB4:
 266:Drivers/BSP/Components/st7789h2/st7789h2.c ****   uint8_t   parameter[6];
 251              		.loc 1 266 1 is_stmt 1 view -0
 252              		.cfi_startproc
 253              		@ args = 0, pretend = 0, frame = 8
 254              		@ frame_needed = 0, uses_anonymous_args = 0
 266:Drivers/BSP/Components/st7789h2/st7789h2.c ****   uint8_t   parameter[6];
 255              		.loc 1 266 1 is_stmt 0 view .LVU59
 256 0000 10B5     		push	{r4, lr}
 257              		.cfi_def_cfa_offset 8
 258              		.cfi_offset 4, -8
 259              		.cfi_offset 14, -4
 260 0002 82B0     		sub	sp, sp, #8
 261              		.cfi_def_cfa_offset 16
 267:Drivers/BSP/Components/st7789h2/st7789h2.c **** 
 262              		.loc 1 267 3 is_stmt 1 view .LVU60
ARM GAS  /var/folders/n6/c271nzx11xl4r4_m7sqjlt0m0000gn/T//cchL8bna.s 			page 15


 269:Drivers/BSP/Components/st7789h2/st7789h2.c ****   {
 263              		.loc 1 269 3 view .LVU61
 269:Drivers/BSP/Components/st7789h2/st7789h2.c ****   {
 264              		.loc 1 269 5 is_stmt 0 view .LVU62
 265 0004 0128     		cmp	r0, #1
 266 0006 0BD0     		beq	.L24
 273:Drivers/BSP/Components/st7789h2/st7789h2.c ****   {
 267              		.loc 1 273 8 is_stmt 1 view .LVU63
 273:Drivers/BSP/Components/st7789h2/st7789h2.c ****   {
 268              		.loc 1 273 10 is_stmt 0 view .LVU64
 269 0008 0228     		cmp	r0, #2
 270 000a 0DD0     		beq	.L25
 297:Drivers/BSP/Components/st7789h2/st7789h2.c ****   }
 271              		.loc 1 297 5 is_stmt 1 view .LVU65
 297:Drivers/BSP/Components/st7789h2/st7789h2.c ****   }
 272              		.loc 1 297 18 is_stmt 0 view .LVU66
 273 000c 6023     		movs	r3, #96
 274 000e 8DF80030 		strb	r3, [sp]
 275              	.LVL16:
 276              	.L21:
 299:Drivers/BSP/Components/st7789h2/st7789h2.c **** }
 277              		.loc 1 299 3 is_stmt 1 view .LVU67
 278 0012 0122     		movs	r2, #1
 279 0014 6946     		mov	r1, sp
 280 0016 3620     		movs	r0, #54
 281 0018 FFF7FEFF 		bl	ST7789H2_WriteReg
 282              	.LVL17:
 300:Drivers/BSP/Components/st7789h2/st7789h2.c **** 
 283              		.loc 1 300 1 is_stmt 0 view .LVU68
 284 001c 02B0     		add	sp, sp, #8
 285              		.cfi_remember_state
 286              		.cfi_def_cfa_offset 8
 287              		@ sp needed
 288 001e 10BD     		pop	{r4, pc}
 289              	.LVL18:
 290              	.L24:
 291              		.cfi_restore_state
 271:Drivers/BSP/Components/st7789h2/st7789h2.c ****   }
 292              		.loc 1 271 5 is_stmt 1 view .LVU69
 271:Drivers/BSP/Components/st7789h2/st7789h2.c ****   }
 293              		.loc 1 271 18 is_stmt 0 view .LVU70
 294 0020 0023     		movs	r3, #0
 295 0022 8DF80030 		strb	r3, [sp]
 296 0026 F4E7     		b	.L21
 297              	.L25:
 277:Drivers/BSP/Components/st7789h2/st7789h2.c ****     parameter[1] = 0x00;
 298              		.loc 1 277 5 is_stmt 1 view .LVU71
 277:Drivers/BSP/Components/st7789h2/st7789h2.c ****     parameter[1] = 0x00;
 299              		.loc 1 277 18 is_stmt 0 view .LVU72
 300 0028 0024     		movs	r4, #0
 301 002a 8DF80040 		strb	r4, [sp]
 278:Drivers/BSP/Components/st7789h2/st7789h2.c ****     /* VSA describes the height of the Vertical Scrolling Area */
 302              		.loc 1 278 5 is_stmt 1 view .LVU73
 278:Drivers/BSP/Components/st7789h2/st7789h2.c ****     /* VSA describes the height of the Vertical Scrolling Area */
 303              		.loc 1 278 18 is_stmt 0 view .LVU74
 304 002e 8DF80140 		strb	r4, [sp, #1]
 280:Drivers/BSP/Components/st7789h2/st7789h2.c ****     parameter[3] = 0xF0;
ARM GAS  /var/folders/n6/c271nzx11xl4r4_m7sqjlt0m0000gn/T//cchL8bna.s 			page 16


 305              		.loc 1 280 5 is_stmt 1 view .LVU75
 280:Drivers/BSP/Components/st7789h2/st7789h2.c ****     parameter[3] = 0xF0;
 306              		.loc 1 280 18 is_stmt 0 view .LVU76
 307 0032 0123     		movs	r3, #1
 308 0034 8DF80230 		strb	r3, [sp, #2]
 281:Drivers/BSP/Components/st7789h2/st7789h2.c ****     /* BFA describes the Bottom Fixed Area */
 309              		.loc 1 281 5 is_stmt 1 view .LVU77
 281:Drivers/BSP/Components/st7789h2/st7789h2.c ****     /* BFA describes the Bottom Fixed Area */
 310              		.loc 1 281 18 is_stmt 0 view .LVU78
 311 0038 F023     		movs	r3, #240
 312 003a 8DF80330 		strb	r3, [sp, #3]
 283:Drivers/BSP/Components/st7789h2/st7789h2.c ****     parameter[5] = 0x00; 
 313              		.loc 1 283 5 is_stmt 1 view .LVU79
 283:Drivers/BSP/Components/st7789h2/st7789h2.c ****     parameter[5] = 0x00; 
 314              		.loc 1 283 18 is_stmt 0 view .LVU80
 315 003e 8DF80440 		strb	r4, [sp, #4]
 284:Drivers/BSP/Components/st7789h2/st7789h2.c ****     ST7789H2_WriteReg(ST7789H2_VSCRDEF, parameter, 6);
 316              		.loc 1 284 5 is_stmt 1 view .LVU81
 284:Drivers/BSP/Components/st7789h2/st7789h2.c ****     ST7789H2_WriteReg(ST7789H2_VSCRDEF, parameter, 6);
 317              		.loc 1 284 18 is_stmt 0 view .LVU82
 318 0042 8DF80540 		strb	r4, [sp, #5]
 285:Drivers/BSP/Components/st7789h2/st7789h2.c **** 
 319              		.loc 1 285 5 is_stmt 1 view .LVU83
 320 0046 0622     		movs	r2, #6
 321 0048 6946     		mov	r1, sp
 322 004a 3320     		movs	r0, #51
 323              	.LVL19:
 285:Drivers/BSP/Components/st7789h2/st7789h2.c **** 
 324              		.loc 1 285 5 is_stmt 0 view .LVU84
 325 004c FFF7FEFF 		bl	ST7789H2_WriteReg
 326              	.LVL20:
 289:Drivers/BSP/Components/st7789h2/st7789h2.c ****     parameter[1] = 0x50;
 327              		.loc 1 289 5 is_stmt 1 view .LVU85
 289:Drivers/BSP/Components/st7789h2/st7789h2.c ****     parameter[1] = 0x50;
 328              		.loc 1 289 18 is_stmt 0 view .LVU86
 329 0050 8DF80040 		strb	r4, [sp]
 290:Drivers/BSP/Components/st7789h2/st7789h2.c ****     ST7789H2_WriteReg(ST7789H2_VSCSAD, parameter, 2);
 330              		.loc 1 290 5 is_stmt 1 view .LVU87
 290:Drivers/BSP/Components/st7789h2/st7789h2.c ****     ST7789H2_WriteReg(ST7789H2_VSCSAD, parameter, 2);
 331              		.loc 1 290 18 is_stmt 0 view .LVU88
 332 0054 5023     		movs	r3, #80
 333 0056 8DF80130 		strb	r3, [sp, #1]
 291:Drivers/BSP/Components/st7789h2/st7789h2.c ****     
 334              		.loc 1 291 5 is_stmt 1 view .LVU89
 335 005a 0222     		movs	r2, #2
 336 005c 6946     		mov	r1, sp
 337 005e 3720     		movs	r0, #55
 338 0060 FFF7FEFF 		bl	ST7789H2_WriteReg
 339              	.LVL21:
 293:Drivers/BSP/Components/st7789h2/st7789h2.c ****   }
 340              		.loc 1 293 5 view .LVU90
 293:Drivers/BSP/Components/st7789h2/st7789h2.c ****   }
 341              		.loc 1 293 18 is_stmt 0 view .LVU91
 342 0064 C023     		movs	r3, #192
 343 0066 8DF80030 		strb	r3, [sp]
 344 006a D2E7     		b	.L21
 345              		.cfi_endproc
ARM GAS  /var/folders/n6/c271nzx11xl4r4_m7sqjlt0m0000gn/T//cchL8bna.s 			page 17


 346              	.LFE4:
 348              		.section	.text.ST7789H2_DisplayOn,"ax",%progbits
 349              		.align	1
 350              		.global	ST7789H2_DisplayOn
 351              		.syntax unified
 352              		.thumb
 353              		.thumb_func
 355              	ST7789H2_DisplayOn:
 356              	.LFB5:
 308:Drivers/BSP/Components/st7789h2/st7789h2.c ****   /* Display ON command */
 357              		.loc 1 308 1 is_stmt 1 view -0
 358              		.cfi_startproc
 359              		@ args = 0, pretend = 0, frame = 0
 360              		@ frame_needed = 0, uses_anonymous_args = 0
 361 0000 08B5     		push	{r3, lr}
 362              		.cfi_def_cfa_offset 8
 363              		.cfi_offset 3, -8
 364              		.cfi_offset 14, -4
 310:Drivers/BSP/Components/st7789h2/st7789h2.c **** 
 365              		.loc 1 310 3 view .LVU93
 366 0002 0022     		movs	r2, #0
 367 0004 1146     		mov	r1, r2
 368 0006 2920     		movs	r0, #41
 369 0008 FFF7FEFF 		bl	ST7789H2_WriteReg
 370              	.LVL22:
 313:Drivers/BSP/Components/st7789h2/st7789h2.c **** }
 371              		.loc 1 313 3 view .LVU94
 372 000c 0022     		movs	r2, #0
 373 000e 1146     		mov	r1, r2
 374 0010 1120     		movs	r0, #17
 375 0012 FFF7FEFF 		bl	ST7789H2_WriteReg
 376              	.LVL23:
 314:Drivers/BSP/Components/st7789h2/st7789h2.c **** 
 377              		.loc 1 314 1 is_stmt 0 view .LVU95
 378 0016 08BD     		pop	{r3, pc}
 379              		.cfi_endproc
 380              	.LFE5:
 382              		.section	.text.ST7789H2_Init,"ax",%progbits
 383              		.align	1
 384              		.global	ST7789H2_Init
 385              		.syntax unified
 386              		.thumb
 387              		.thumb_func
 389              	ST7789H2_Init:
 390              	.LFB3:
 131:Drivers/BSP/Components/st7789h2/st7789h2.c ****   uint8_t   parameter[14];
 391              		.loc 1 131 1 is_stmt 1 view -0
 392              		.cfi_startproc
 393              		@ args = 0, pretend = 0, frame = 16
 394              		@ frame_needed = 0, uses_anonymous_args = 0
 395 0000 2DE9F047 		push	{r4, r5, r6, r7, r8, r9, r10, lr}
 396              		.cfi_def_cfa_offset 32
 397              		.cfi_offset 4, -32
 398              		.cfi_offset 5, -28
 399              		.cfi_offset 6, -24
 400              		.cfi_offset 7, -20
 401              		.cfi_offset 8, -16
ARM GAS  /var/folders/n6/c271nzx11xl4r4_m7sqjlt0m0000gn/T//cchL8bna.s 			page 18


 402              		.cfi_offset 9, -12
 403              		.cfi_offset 10, -8
 404              		.cfi_offset 14, -4
 405 0004 84B0     		sub	sp, sp, #16
 406              		.cfi_def_cfa_offset 48
 132:Drivers/BSP/Components/st7789h2/st7789h2.c ****   
 407              		.loc 1 132 3 view .LVU97
 135:Drivers/BSP/Components/st7789h2/st7789h2.c ****   /* Sleep In Command */ 
 408              		.loc 1 135 3 view .LVU98
 409 0006 FFF7FEFF 		bl	LCD_IO_Init
 410              	.LVL24:
 137:Drivers/BSP/Components/st7789h2/st7789h2.c ****   /* Wait for 10ms */
 411              		.loc 1 137 3 view .LVU99
 412 000a 0022     		movs	r2, #0
 413 000c 1146     		mov	r1, r2
 414 000e 1020     		movs	r0, #16
 415 0010 FFF7FEFF 		bl	ST7789H2_WriteReg
 416              	.LVL25:
 139:Drivers/BSP/Components/st7789h2/st7789h2.c ****   
 417              		.loc 1 139 3 view .LVU100
 418 0014 0A20     		movs	r0, #10
 419 0016 FFF7FEFF 		bl	LCD_IO_Delay
 420              	.LVL26:
 142:Drivers/BSP/Components/st7789h2/st7789h2.c ****   /* Wait for 200ms */
 421              		.loc 1 142 3 view .LVU101
 422 001a 0022     		movs	r2, #0
 423 001c 1146     		mov	r1, r2
 424 001e 0120     		movs	r0, #1
 425 0020 FFF7FEFF 		bl	ST7789H2_WriteReg
 426              	.LVL27:
 144:Drivers/BSP/Components/st7789h2/st7789h2.c ****   
 427              		.loc 1 144 3 view .LVU102
 428 0024 C820     		movs	r0, #200
 429 0026 FFF7FEFF 		bl	LCD_IO_Delay
 430              	.LVL28:
 147:Drivers/BSP/Components/st7789h2/st7789h2.c ****   /* Wait for 120ms */
 431              		.loc 1 147 3 view .LVU103
 432 002a 0022     		movs	r2, #0
 433 002c 1146     		mov	r1, r2
 434 002e 1120     		movs	r0, #17
 435 0030 FFF7FEFF 		bl	ST7789H2_WriteReg
 436              	.LVL29:
 149:Drivers/BSP/Components/st7789h2/st7789h2.c **** 
 437              		.loc 1 149 3 view .LVU104
 438 0034 7820     		movs	r0, #120
 439 0036 FFF7FEFF 		bl	LCD_IO_Delay
 440              	.LVL30:
 152:Drivers/BSP/Components/st7789h2/st7789h2.c ****   ST7789H2_WriteReg(ST7789H2_NORMAL_DISPLAY, parameter, 1);
 441              		.loc 1 152 3 view .LVU105
 152:Drivers/BSP/Components/st7789h2/st7789h2.c ****   ST7789H2_WriteReg(ST7789H2_NORMAL_DISPLAY, parameter, 1);
 442              		.loc 1 152 16 is_stmt 0 view .LVU106
 443 003a 0024     		movs	r4, #0
 444 003c 8DF80040 		strb	r4, [sp]
 153:Drivers/BSP/Components/st7789h2/st7789h2.c ****  
 445              		.loc 1 153 3 is_stmt 1 view .LVU107
 446 0040 0122     		movs	r2, #1
 447 0042 6946     		mov	r1, sp
ARM GAS  /var/folders/n6/c271nzx11xl4r4_m7sqjlt0m0000gn/T//cchL8bna.s 			page 19


 448 0044 3620     		movs	r0, #54
 449 0046 FFF7FEFF 		bl	ST7789H2_WriteReg
 450              	.LVL31:
 156:Drivers/BSP/Components/st7789h2/st7789h2.c ****   ST7789H2_WriteReg(ST7789H2_COLOR_MODE, parameter, 1);
 451              		.loc 1 156 3 view .LVU108
 156:Drivers/BSP/Components/st7789h2/st7789h2.c ****   ST7789H2_WriteReg(ST7789H2_COLOR_MODE, parameter, 1);
 452              		.loc 1 156 16 is_stmt 0 view .LVU109
 453 004a 0525     		movs	r5, #5
 454 004c 8DF80050 		strb	r5, [sp]
 157:Drivers/BSP/Components/st7789h2/st7789h2.c ****   
 455              		.loc 1 157 3 is_stmt 1 view .LVU110
 456 0050 0122     		movs	r2, #1
 457 0052 6946     		mov	r1, sp
 458 0054 3A20     		movs	r0, #58
 459 0056 FFF7FEFF 		bl	ST7789H2_WriteReg
 460              	.LVL32:
 160:Drivers/BSP/Components/st7789h2/st7789h2.c ****   
 461              		.loc 1 160 3 view .LVU111
 462 005a 2246     		mov	r2, r4
 463 005c 2146     		mov	r1, r4
 464 005e 2120     		movs	r0, #33
 465 0060 FFF7FEFF 		bl	ST7789H2_WriteReg
 466              	.LVL33:
 163:Drivers/BSP/Components/st7789h2/st7789h2.c ****   parameter[1] = 0x00;
 467              		.loc 1 163 3 view .LVU112
 163:Drivers/BSP/Components/st7789h2/st7789h2.c ****   parameter[1] = 0x00;
 468              		.loc 1 163 16 is_stmt 0 view .LVU113
 469 0064 8DF80040 		strb	r4, [sp]
 164:Drivers/BSP/Components/st7789h2/st7789h2.c ****   parameter[2] = 0x00;
 470              		.loc 1 164 3 is_stmt 1 view .LVU114
 164:Drivers/BSP/Components/st7789h2/st7789h2.c ****   parameter[2] = 0x00;
 471              		.loc 1 164 16 is_stmt 0 view .LVU115
 472 0068 8DF80140 		strb	r4, [sp, #1]
 165:Drivers/BSP/Components/st7789h2/st7789h2.c ****   parameter[3] = 0xEF;
 473              		.loc 1 165 3 is_stmt 1 view .LVU116
 165:Drivers/BSP/Components/st7789h2/st7789h2.c ****   parameter[3] = 0xEF;
 474              		.loc 1 165 16 is_stmt 0 view .LVU117
 475 006c 8DF80240 		strb	r4, [sp, #2]
 166:Drivers/BSP/Components/st7789h2/st7789h2.c ****   ST7789H2_WriteReg(ST7789H2_CASET, parameter, 4);
 476              		.loc 1 166 3 is_stmt 1 view .LVU118
 166:Drivers/BSP/Components/st7789h2/st7789h2.c ****   ST7789H2_WriteReg(ST7789H2_CASET, parameter, 4);
 477              		.loc 1 166 16 is_stmt 0 view .LVU119
 478 0070 EF26     		movs	r6, #239
 479 0072 8DF80360 		strb	r6, [sp, #3]
 167:Drivers/BSP/Components/st7789h2/st7789h2.c ****   /* Set Row address RASET */  
 480              		.loc 1 167 3 is_stmt 1 view .LVU120
 481 0076 0422     		movs	r2, #4
 482 0078 6946     		mov	r1, sp
 483 007a 2A20     		movs	r0, #42
 484 007c FFF7FEFF 		bl	ST7789H2_WriteReg
 485              	.LVL34:
 169:Drivers/BSP/Components/st7789h2/st7789h2.c ****   parameter[1] = 0x00;
 486              		.loc 1 169 3 view .LVU121
 169:Drivers/BSP/Components/st7789h2/st7789h2.c ****   parameter[1] = 0x00;
 487              		.loc 1 169 16 is_stmt 0 view .LVU122
 488 0080 8DF80040 		strb	r4, [sp]
 170:Drivers/BSP/Components/st7789h2/st7789h2.c ****   parameter[2] = 0x00;
ARM GAS  /var/folders/n6/c271nzx11xl4r4_m7sqjlt0m0000gn/T//cchL8bna.s 			page 20


 489              		.loc 1 170 3 is_stmt 1 view .LVU123
 170:Drivers/BSP/Components/st7789h2/st7789h2.c ****   parameter[2] = 0x00;
 490              		.loc 1 170 16 is_stmt 0 view .LVU124
 491 0084 8DF80140 		strb	r4, [sp, #1]
 171:Drivers/BSP/Components/st7789h2/st7789h2.c ****   parameter[3] = 0xEF;
 492              		.loc 1 171 3 is_stmt 1 view .LVU125
 171:Drivers/BSP/Components/st7789h2/st7789h2.c ****   parameter[3] = 0xEF;
 493              		.loc 1 171 16 is_stmt 0 view .LVU126
 494 0088 8DF80240 		strb	r4, [sp, #2]
 172:Drivers/BSP/Components/st7789h2/st7789h2.c ****   ST7789H2_WriteReg(ST7789H2_RASET, parameter, 4);
 495              		.loc 1 172 3 is_stmt 1 view .LVU127
 172:Drivers/BSP/Components/st7789h2/st7789h2.c ****   ST7789H2_WriteReg(ST7789H2_RASET, parameter, 4);
 496              		.loc 1 172 16 is_stmt 0 view .LVU128
 497 008c 8DF80360 		strb	r6, [sp, #3]
 173:Drivers/BSP/Components/st7789h2/st7789h2.c **** 
 498              		.loc 1 173 3 is_stmt 1 view .LVU129
 499 0090 0422     		movs	r2, #4
 500 0092 6946     		mov	r1, sp
 501 0094 2B20     		movs	r0, #43
 502 0096 FFF7FEFF 		bl	ST7789H2_WriteReg
 503              	.LVL35:
 177:Drivers/BSP/Components/st7789h2/st7789h2.c ****   parameter[1] = 0x0C;
 504              		.loc 1 177 3 view .LVU130
 177:Drivers/BSP/Components/st7789h2/st7789h2.c ****   parameter[1] = 0x0C;
 505              		.loc 1 177 16 is_stmt 0 view .LVU131
 506 009a 4FF00C08 		mov	r8, #12
 507 009e 8DF80080 		strb	r8, [sp]
 178:Drivers/BSP/Components/st7789h2/st7789h2.c ****   parameter[2] = 0x00;
 508              		.loc 1 178 3 is_stmt 1 view .LVU132
 178:Drivers/BSP/Components/st7789h2/st7789h2.c ****   parameter[2] = 0x00;
 509              		.loc 1 178 16 is_stmt 0 view .LVU133
 510 00a2 8DF80180 		strb	r8, [sp, #1]
 179:Drivers/BSP/Components/st7789h2/st7789h2.c ****   parameter[3] = 0x33;
 511              		.loc 1 179 3 is_stmt 1 view .LVU134
 179:Drivers/BSP/Components/st7789h2/st7789h2.c ****   parameter[3] = 0x33;
 512              		.loc 1 179 16 is_stmt 0 view .LVU135
 513 00a6 8DF80240 		strb	r4, [sp, #2]
 180:Drivers/BSP/Components/st7789h2/st7789h2.c ****   parameter[4] = 0x33; 
 514              		.loc 1 180 3 is_stmt 1 view .LVU136
 180:Drivers/BSP/Components/st7789h2/st7789h2.c ****   parameter[4] = 0x33; 
 515              		.loc 1 180 16 is_stmt 0 view .LVU137
 516 00aa 3327     		movs	r7, #51
 517 00ac 8DF80370 		strb	r7, [sp, #3]
 181:Drivers/BSP/Components/st7789h2/st7789h2.c ****   ST7789H2_WriteReg(ST7789H2_PORCH_CTRL, parameter, 5);
 518              		.loc 1 181 3 is_stmt 1 view .LVU138
 181:Drivers/BSP/Components/st7789h2/st7789h2.c ****   ST7789H2_WriteReg(ST7789H2_PORCH_CTRL, parameter, 5);
 519              		.loc 1 181 16 is_stmt 0 view .LVU139
 520 00b0 8DF80470 		strb	r7, [sp, #4]
 182:Drivers/BSP/Components/st7789h2/st7789h2.c ****   
 521              		.loc 1 182 3 is_stmt 1 view .LVU140
 522 00b4 2A46     		mov	r2, r5
 523 00b6 6946     		mov	r1, sp
 524 00b8 B220     		movs	r0, #178
 525 00ba FFF7FEFF 		bl	ST7789H2_WriteReg
 526              	.LVL36:
 185:Drivers/BSP/Components/st7789h2/st7789h2.c ****   ST7789H2_WriteReg(ST7789H2_GATE_CTRL, parameter, 1);
 527              		.loc 1 185 3 view .LVU141
ARM GAS  /var/folders/n6/c271nzx11xl4r4_m7sqjlt0m0000gn/T//cchL8bna.s 			page 21


 185:Drivers/BSP/Components/st7789h2/st7789h2.c ****   ST7789H2_WriteReg(ST7789H2_GATE_CTRL, parameter, 1);
 528              		.loc 1 185 16 is_stmt 0 view .LVU142
 529 00be 4FF03509 		mov	r9, #53
 530 00c2 8DF80090 		strb	r9, [sp]
 186:Drivers/BSP/Components/st7789h2/st7789h2.c ****   
 531              		.loc 1 186 3 is_stmt 1 view .LVU143
 532 00c6 0122     		movs	r2, #1
 533 00c8 6946     		mov	r1, sp
 534 00ca B720     		movs	r0, #183
 535 00cc FFF7FEFF 		bl	ST7789H2_WriteReg
 536              	.LVL37:
 190:Drivers/BSP/Components/st7789h2/st7789h2.c ****   ST7789H2_WriteReg(ST7789H2_VCOM_SET, parameter, 1); 
 537              		.loc 1 190 3 view .LVU144
 190:Drivers/BSP/Components/st7789h2/st7789h2.c ****   ST7789H2_WriteReg(ST7789H2_VCOM_SET, parameter, 1); 
 538              		.loc 1 190 16 is_stmt 0 view .LVU145
 539 00d0 1F23     		movs	r3, #31
 540 00d2 8DF80030 		strb	r3, [sp]
 191:Drivers/BSP/Components/st7789h2/st7789h2.c ****   
 541              		.loc 1 191 3 is_stmt 1 view .LVU146
 542 00d6 0122     		movs	r2, #1
 543 00d8 6946     		mov	r1, sp
 544 00da BB20     		movs	r0, #187
 545 00dc FFF7FEFF 		bl	ST7789H2_WriteReg
 546              	.LVL38:
 194:Drivers/BSP/Components/st7789h2/st7789h2.c ****   ST7789H2_WriteReg(ST7789H2_LCM_CTRL, parameter, 1);
 547              		.loc 1 194 3 view .LVU147
 194:Drivers/BSP/Components/st7789h2/st7789h2.c ****   ST7789H2_WriteReg(ST7789H2_LCM_CTRL, parameter, 1);
 548              		.loc 1 194 16 is_stmt 0 view .LVU148
 549 00e0 2C23     		movs	r3, #44
 550 00e2 8DF80030 		strb	r3, [sp]
 195:Drivers/BSP/Components/st7789h2/st7789h2.c ****   
 551              		.loc 1 195 3 is_stmt 1 view .LVU149
 552 00e6 0122     		movs	r2, #1
 553 00e8 6946     		mov	r1, sp
 554 00ea C020     		movs	r0, #192
 555 00ec FFF7FEFF 		bl	ST7789H2_WriteReg
 556              	.LVL39:
 198:Drivers/BSP/Components/st7789h2/st7789h2.c ****   parameter[1] = 0xC3;
 557              		.loc 1 198 3 view .LVU150
 198:Drivers/BSP/Components/st7789h2/st7789h2.c ****   parameter[1] = 0xC3;
 558              		.loc 1 198 16 is_stmt 0 view .LVU151
 559 00f0 0125     		movs	r5, #1
 560 00f2 8DF80050 		strb	r5, [sp]
 199:Drivers/BSP/Components/st7789h2/st7789h2.c ****   ST7789H2_WriteReg(ST7789H2_VDV_VRH_EN, parameter, 2);
 561              		.loc 1 199 3 is_stmt 1 view .LVU152
 199:Drivers/BSP/Components/st7789h2/st7789h2.c ****   ST7789H2_WriteReg(ST7789H2_VDV_VRH_EN, parameter, 2);
 562              		.loc 1 199 16 is_stmt 0 view .LVU153
 563 00f6 C323     		movs	r3, #195
 564 00f8 8DF80130 		strb	r3, [sp, #1]
 200:Drivers/BSP/Components/st7789h2/st7789h2.c ****   
 565              		.loc 1 200 3 is_stmt 1 view .LVU154
 566 00fc 0222     		movs	r2, #2
 567 00fe 6946     		mov	r1, sp
 568 0100 C220     		movs	r0, #194
 569 0102 FFF7FEFF 		bl	ST7789H2_WriteReg
 570              	.LVL40:
 203:Drivers/BSP/Components/st7789h2/st7789h2.c ****   ST7789H2_WriteReg(ST7789H2_VDV_SET, parameter, 1); 
ARM GAS  /var/folders/n6/c271nzx11xl4r4_m7sqjlt0m0000gn/T//cchL8bna.s 			page 22


 571              		.loc 1 203 3 view .LVU155
 203:Drivers/BSP/Components/st7789h2/st7789h2.c ****   ST7789H2_WriteReg(ST7789H2_VDV_SET, parameter, 1); 
 572              		.loc 1 203 16 is_stmt 0 view .LVU156
 573 0106 2023     		movs	r3, #32
 574 0108 8DF80030 		strb	r3, [sp]
 204:Drivers/BSP/Components/st7789h2/st7789h2.c ****   
 575              		.loc 1 204 3 is_stmt 1 view .LVU157
 576 010c 2A46     		mov	r2, r5
 577 010e 6946     		mov	r1, sp
 578 0110 C420     		movs	r0, #196
 579 0112 FFF7FEFF 		bl	ST7789H2_WriteReg
 580              	.LVL41:
 207:Drivers/BSP/Components/st7789h2/st7789h2.c ****   ST7789H2_WriteReg(ST7789H2_FR_CTRL, parameter, 1); 
 581              		.loc 1 207 3 view .LVU158
 207:Drivers/BSP/Components/st7789h2/st7789h2.c ****   ST7789H2_WriteReg(ST7789H2_FR_CTRL, parameter, 1); 
 582              		.loc 1 207 16 is_stmt 0 view .LVU159
 583 0116 0F23     		movs	r3, #15
 584 0118 8DF80030 		strb	r3, [sp]
 208:Drivers/BSP/Components/st7789h2/st7789h2.c ****   
 585              		.loc 1 208 3 is_stmt 1 view .LVU160
 586 011c 2A46     		mov	r2, r5
 587 011e 6946     		mov	r1, sp
 588 0120 C620     		movs	r0, #198
 589 0122 FFF7FEFF 		bl	ST7789H2_WriteReg
 590              	.LVL42:
 211:Drivers/BSP/Components/st7789h2/st7789h2.c ****   parameter[1] = 0xA1;
 591              		.loc 1 211 3 view .LVU161
 211:Drivers/BSP/Components/st7789h2/st7789h2.c ****   parameter[1] = 0xA1;
 592              		.loc 1 211 16 is_stmt 0 view .LVU162
 593 0126 A423     		movs	r3, #164
 594 0128 8DF80030 		strb	r3, [sp]
 212:Drivers/BSP/Components/st7789h2/st7789h2.c ****   ST7789H2_WriteReg(ST7789H2_POWER_CTRL, parameter, 1); 
 595              		.loc 1 212 3 is_stmt 1 view .LVU163
 212:Drivers/BSP/Components/st7789h2/st7789h2.c ****   ST7789H2_WriteReg(ST7789H2_POWER_CTRL, parameter, 1); 
 596              		.loc 1 212 16 is_stmt 0 view .LVU164
 597 012c A123     		movs	r3, #161
 598 012e 8DF80130 		strb	r3, [sp, #1]
 213:Drivers/BSP/Components/st7789h2/st7789h2.c ****   
 599              		.loc 1 213 3 is_stmt 1 view .LVU165
 600 0132 2A46     		mov	r2, r5
 601 0134 6946     		mov	r1, sp
 602 0136 D020     		movs	r0, #208
 603 0138 FFF7FEFF 		bl	ST7789H2_WriteReg
 604              	.LVL43:
 217:Drivers/BSP/Components/st7789h2/st7789h2.c ****   parameter[1] = 0x08;
 605              		.loc 1 217 3 view .LVU166
 217:Drivers/BSP/Components/st7789h2/st7789h2.c ****   parameter[1] = 0x08;
 606              		.loc 1 217 16 is_stmt 0 view .LVU167
 607 013c 4FF0D00A 		mov	r10, #208
 608 0140 8DF800A0 		strb	r10, [sp]
 218:Drivers/BSP/Components/st7789h2/st7789h2.c ****   parameter[2] = 0x11;
 609              		.loc 1 218 3 is_stmt 1 view .LVU168
 218:Drivers/BSP/Components/st7789h2/st7789h2.c ****   parameter[2] = 0x11;
 610              		.loc 1 218 16 is_stmt 0 view .LVU169
 611 0144 0826     		movs	r6, #8
 612 0146 8DF80160 		strb	r6, [sp, #1]
 219:Drivers/BSP/Components/st7789h2/st7789h2.c ****   parameter[3] = 0x08;
ARM GAS  /var/folders/n6/c271nzx11xl4r4_m7sqjlt0m0000gn/T//cchL8bna.s 			page 23


 613              		.loc 1 219 3 is_stmt 1 view .LVU170
 219:Drivers/BSP/Components/st7789h2/st7789h2.c ****   parameter[3] = 0x08;
 614              		.loc 1 219 16 is_stmt 0 view .LVU171
 615 014a 1123     		movs	r3, #17
 616 014c 8DF80230 		strb	r3, [sp, #2]
 220:Drivers/BSP/Components/st7789h2/st7789h2.c ****   parameter[4] = 0x0C;
 617              		.loc 1 220 3 is_stmt 1 view .LVU172
 220:Drivers/BSP/Components/st7789h2/st7789h2.c ****   parameter[4] = 0x0C;
 618              		.loc 1 220 16 is_stmt 0 view .LVU173
 619 0150 8DF80360 		strb	r6, [sp, #3]
 221:Drivers/BSP/Components/st7789h2/st7789h2.c ****   parameter[5] = 0x15;
 620              		.loc 1 221 3 is_stmt 1 view .LVU174
 221:Drivers/BSP/Components/st7789h2/st7789h2.c ****   parameter[5] = 0x15;
 621              		.loc 1 221 16 is_stmt 0 view .LVU175
 622 0154 8DF80480 		strb	r8, [sp, #4]
 222:Drivers/BSP/Components/st7789h2/st7789h2.c ****   parameter[6] = 0x39;
 623              		.loc 1 222 3 is_stmt 1 view .LVU176
 222:Drivers/BSP/Components/st7789h2/st7789h2.c ****   parameter[6] = 0x39;
 624              		.loc 1 222 16 is_stmt 0 view .LVU177
 625 0158 1523     		movs	r3, #21
 626 015a 8DF80530 		strb	r3, [sp, #5]
 223:Drivers/BSP/Components/st7789h2/st7789h2.c ****   parameter[7] = 0x33;
 627              		.loc 1 223 3 is_stmt 1 view .LVU178
 223:Drivers/BSP/Components/st7789h2/st7789h2.c ****   parameter[7] = 0x33;
 628              		.loc 1 223 16 is_stmt 0 view .LVU179
 629 015e 4FF03908 		mov	r8, #57
 630 0162 8DF80680 		strb	r8, [sp, #6]
 224:Drivers/BSP/Components/st7789h2/st7789h2.c ****   parameter[8] = 0x50;
 631              		.loc 1 224 3 is_stmt 1 view .LVU180
 224:Drivers/BSP/Components/st7789h2/st7789h2.c ****   parameter[8] = 0x50;
 632              		.loc 1 224 16 is_stmt 0 view .LVU181
 633 0166 8DF80770 		strb	r7, [sp, #7]
 225:Drivers/BSP/Components/st7789h2/st7789h2.c ****   parameter[9] = 0x36;
 634              		.loc 1 225 3 is_stmt 1 view .LVU182
 225:Drivers/BSP/Components/st7789h2/st7789h2.c ****   parameter[9] = 0x36;
 635              		.loc 1 225 16 is_stmt 0 view .LVU183
 636 016a 5023     		movs	r3, #80
 637 016c 8DF80830 		strb	r3, [sp, #8]
 226:Drivers/BSP/Components/st7789h2/st7789h2.c ****   parameter[10] = 0x13;
 638              		.loc 1 226 3 is_stmt 1 view .LVU184
 226:Drivers/BSP/Components/st7789h2/st7789h2.c ****   parameter[10] = 0x13;
 639              		.loc 1 226 16 is_stmt 0 view .LVU185
 640 0170 3623     		movs	r3, #54
 641 0172 8DF80930 		strb	r3, [sp, #9]
 227:Drivers/BSP/Components/st7789h2/st7789h2.c ****   parameter[11] = 0x14;
 642              		.loc 1 227 3 is_stmt 1 view .LVU186
 227:Drivers/BSP/Components/st7789h2/st7789h2.c ****   parameter[11] = 0x14;
 643              		.loc 1 227 17 is_stmt 0 view .LVU187
 644 0176 1323     		movs	r3, #19
 645 0178 8DF80A30 		strb	r3, [sp, #10]
 228:Drivers/BSP/Components/st7789h2/st7789h2.c ****   parameter[12] = 0x29;
 646              		.loc 1 228 3 is_stmt 1 view .LVU188
 228:Drivers/BSP/Components/st7789h2/st7789h2.c ****   parameter[12] = 0x29;
 647              		.loc 1 228 17 is_stmt 0 view .LVU189
 648 017c 1427     		movs	r7, #20
 649 017e 8DF80B70 		strb	r7, [sp, #11]
 229:Drivers/BSP/Components/st7789h2/st7789h2.c ****   parameter[13] = 0x2D;
ARM GAS  /var/folders/n6/c271nzx11xl4r4_m7sqjlt0m0000gn/T//cchL8bna.s 			page 24


 650              		.loc 1 229 3 is_stmt 1 view .LVU190
 229:Drivers/BSP/Components/st7789h2/st7789h2.c ****   parameter[13] = 0x2D;
 651              		.loc 1 229 17 is_stmt 0 view .LVU191
 652 0182 2923     		movs	r3, #41
 653 0184 8DF80C30 		strb	r3, [sp, #12]
 230:Drivers/BSP/Components/st7789h2/st7789h2.c ****   ST7789H2_WriteReg(ST7789H2_PV_GAMMA_CTRL, parameter, 14); 
 654              		.loc 1 230 3 is_stmt 1 view .LVU192
 230:Drivers/BSP/Components/st7789h2/st7789h2.c ****   ST7789H2_WriteReg(ST7789H2_PV_GAMMA_CTRL, parameter, 14); 
 655              		.loc 1 230 17 is_stmt 0 view .LVU193
 656 0188 2D23     		movs	r3, #45
 657 018a 8DF80D30 		strb	r3, [sp, #13]
 231:Drivers/BSP/Components/st7789h2/st7789h2.c ****   
 658              		.loc 1 231 3 is_stmt 1 view .LVU194
 659 018e 0E22     		movs	r2, #14
 660 0190 6946     		mov	r1, sp
 661 0192 E020     		movs	r0, #224
 662 0194 FFF7FEFF 		bl	ST7789H2_WriteReg
 663              	.LVL44:
 234:Drivers/BSP/Components/st7789h2/st7789h2.c ****   parameter[1] = 0x08;
 664              		.loc 1 234 3 view .LVU195
 234:Drivers/BSP/Components/st7789h2/st7789h2.c ****   parameter[1] = 0x08;
 665              		.loc 1 234 16 is_stmt 0 view .LVU196
 666 0198 8DF800A0 		strb	r10, [sp]
 235:Drivers/BSP/Components/st7789h2/st7789h2.c ****   parameter[2] = 0x10;
 667              		.loc 1 235 3 is_stmt 1 view .LVU197
 235:Drivers/BSP/Components/st7789h2/st7789h2.c ****   parameter[2] = 0x10;
 668              		.loc 1 235 16 is_stmt 0 view .LVU198
 669 019c 8DF80160 		strb	r6, [sp, #1]
 236:Drivers/BSP/Components/st7789h2/st7789h2.c ****   parameter[3] = 0x08;
 670              		.loc 1 236 3 is_stmt 1 view .LVU199
 236:Drivers/BSP/Components/st7789h2/st7789h2.c ****   parameter[3] = 0x08;
 671              		.loc 1 236 16 is_stmt 0 view .LVU200
 672 01a0 1023     		movs	r3, #16
 673 01a2 8DF80230 		strb	r3, [sp, #2]
 237:Drivers/BSP/Components/st7789h2/st7789h2.c ****   parameter[4] = 0x06;
 674              		.loc 1 237 3 is_stmt 1 view .LVU201
 237:Drivers/BSP/Components/st7789h2/st7789h2.c ****   parameter[4] = 0x06;
 675              		.loc 1 237 16 is_stmt 0 view .LVU202
 676 01a6 8DF80360 		strb	r6, [sp, #3]
 238:Drivers/BSP/Components/st7789h2/st7789h2.c ****   parameter[5] = 0x06;
 677              		.loc 1 238 3 is_stmt 1 view .LVU203
 238:Drivers/BSP/Components/st7789h2/st7789h2.c ****   parameter[5] = 0x06;
 678              		.loc 1 238 16 is_stmt 0 view .LVU204
 679 01aa 0623     		movs	r3, #6
 680 01ac 8DF80430 		strb	r3, [sp, #4]
 239:Drivers/BSP/Components/st7789h2/st7789h2.c ****   parameter[6] = 0x39;
 681              		.loc 1 239 3 is_stmt 1 view .LVU205
 239:Drivers/BSP/Components/st7789h2/st7789h2.c ****   parameter[6] = 0x39;
 682              		.loc 1 239 16 is_stmt 0 view .LVU206
 683 01b0 8DF80530 		strb	r3, [sp, #5]
 240:Drivers/BSP/Components/st7789h2/st7789h2.c ****   parameter[7] = 0x44;
 684              		.loc 1 240 3 is_stmt 1 view .LVU207
 240:Drivers/BSP/Components/st7789h2/st7789h2.c ****   parameter[7] = 0x44;
 685              		.loc 1 240 16 is_stmt 0 view .LVU208
 686 01b4 8DF80680 		strb	r8, [sp, #6]
 241:Drivers/BSP/Components/st7789h2/st7789h2.c ****   parameter[8] = 0x51;
 687              		.loc 1 241 3 is_stmt 1 view .LVU209
ARM GAS  /var/folders/n6/c271nzx11xl4r4_m7sqjlt0m0000gn/T//cchL8bna.s 			page 25


 241:Drivers/BSP/Components/st7789h2/st7789h2.c ****   parameter[8] = 0x51;
 688              		.loc 1 241 16 is_stmt 0 view .LVU210
 689 01b8 4423     		movs	r3, #68
 690 01ba 8DF80730 		strb	r3, [sp, #7]
 242:Drivers/BSP/Components/st7789h2/st7789h2.c ****   parameter[9] = 0x0B;
 691              		.loc 1 242 3 is_stmt 1 view .LVU211
 242:Drivers/BSP/Components/st7789h2/st7789h2.c ****   parameter[9] = 0x0B;
 692              		.loc 1 242 16 is_stmt 0 view .LVU212
 693 01be 5123     		movs	r3, #81
 694 01c0 8DF80830 		strb	r3, [sp, #8]
 243:Drivers/BSP/Components/st7789h2/st7789h2.c ****   parameter[10] = 0x16;
 695              		.loc 1 243 3 is_stmt 1 view .LVU213
 243:Drivers/BSP/Components/st7789h2/st7789h2.c ****   parameter[10] = 0x16;
 696              		.loc 1 243 16 is_stmt 0 view .LVU214
 697 01c4 0B23     		movs	r3, #11
 698 01c6 8DF80930 		strb	r3, [sp, #9]
 244:Drivers/BSP/Components/st7789h2/st7789h2.c ****   parameter[11] = 0x14;
 699              		.loc 1 244 3 is_stmt 1 view .LVU215
 244:Drivers/BSP/Components/st7789h2/st7789h2.c ****   parameter[11] = 0x14;
 700              		.loc 1 244 17 is_stmt 0 view .LVU216
 701 01ca 1623     		movs	r3, #22
 702 01cc 8DF80A30 		strb	r3, [sp, #10]
 245:Drivers/BSP/Components/st7789h2/st7789h2.c ****   parameter[12] = 0x2F;
 703              		.loc 1 245 3 is_stmt 1 view .LVU217
 245:Drivers/BSP/Components/st7789h2/st7789h2.c ****   parameter[12] = 0x2F;
 704              		.loc 1 245 17 is_stmt 0 view .LVU218
 705 01d0 8DF80B70 		strb	r7, [sp, #11]
 246:Drivers/BSP/Components/st7789h2/st7789h2.c ****   parameter[13] = 0x31;
 706              		.loc 1 246 3 is_stmt 1 view .LVU219
 246:Drivers/BSP/Components/st7789h2/st7789h2.c ****   parameter[13] = 0x31;
 707              		.loc 1 246 17 is_stmt 0 view .LVU220
 708 01d4 2F23     		movs	r3, #47
 709 01d6 8DF80C30 		strb	r3, [sp, #12]
 247:Drivers/BSP/Components/st7789h2/st7789h2.c ****   ST7789H2_WriteReg(ST7789H2_NV_GAMMA_CTRL, parameter, 14); 
 710              		.loc 1 247 3 is_stmt 1 view .LVU221
 247:Drivers/BSP/Components/st7789h2/st7789h2.c ****   ST7789H2_WriteReg(ST7789H2_NV_GAMMA_CTRL, parameter, 14); 
 711              		.loc 1 247 17 is_stmt 0 view .LVU222
 712 01da 3123     		movs	r3, #49
 713 01dc 8DF80D30 		strb	r3, [sp, #13]
 248:Drivers/BSP/Components/st7789h2/st7789h2.c ****   
 714              		.loc 1 248 3 is_stmt 1 view .LVU223
 715 01e0 0E22     		movs	r2, #14
 716 01e2 6946     		mov	r1, sp
 717 01e4 E120     		movs	r0, #225
 718 01e6 FFF7FEFF 		bl	ST7789H2_WriteReg
 719              	.LVL45:
 251:Drivers/BSP/Components/st7789h2/st7789h2.c ****   
 720              		.loc 1 251 3 view .LVU224
 721 01ea FFF7FEFF 		bl	ST7789H2_DisplayOn
 722              	.LVL46:
 254:Drivers/BSP/Components/st7789h2/st7789h2.c ****   ST7789H2_WriteReg(ST7789H2_TEARING_EFFECT, parameter, 1);
 723              		.loc 1 254 3 view .LVU225
 254:Drivers/BSP/Components/st7789h2/st7789h2.c ****   ST7789H2_WriteReg(ST7789H2_TEARING_EFFECT, parameter, 1);
 724              		.loc 1 254 16 is_stmt 0 view .LVU226
 725 01ee 8DF80040 		strb	r4, [sp]
 255:Drivers/BSP/Components/st7789h2/st7789h2.c **** 
 726              		.loc 1 255 3 is_stmt 1 view .LVU227
ARM GAS  /var/folders/n6/c271nzx11xl4r4_m7sqjlt0m0000gn/T//cchL8bna.s 			page 26


 727 01f2 2A46     		mov	r2, r5
 728 01f4 6946     		mov	r1, sp
 729 01f6 4846     		mov	r0, r9
 730 01f8 FFF7FEFF 		bl	ST7789H2_WriteReg
 731              	.LVL47:
 257:Drivers/BSP/Components/st7789h2/st7789h2.c **** 
 732              		.loc 1 257 1 is_stmt 0 view .LVU228
 733 01fc 04B0     		add	sp, sp, #16
 734              		.cfi_def_cfa_offset 32
 735              		@ sp needed
 736 01fe BDE8F087 		pop	{r4, r5, r6, r7, r8, r9, r10, pc}
 737              		.cfi_endproc
 738              	.LFE3:
 740              		.section	.text.ST7789H2_DisplayOff,"ax",%progbits
 741              		.align	1
 742              		.global	ST7789H2_DisplayOff
 743              		.syntax unified
 744              		.thumb
 745              		.thumb_func
 747              	ST7789H2_DisplayOff:
 748              	.LFB6:
 322:Drivers/BSP/Components/st7789h2/st7789h2.c ****   uint8_t   parameter[1];
 749              		.loc 1 322 1 is_stmt 1 view -0
 750              		.cfi_startproc
 751              		@ args = 0, pretend = 0, frame = 8
 752              		@ frame_needed = 0, uses_anonymous_args = 0
 753 0000 00B5     		push	{lr}
 754              		.cfi_def_cfa_offset 4
 755              		.cfi_offset 14, -4
 756 0002 83B0     		sub	sp, sp, #12
 757              		.cfi_def_cfa_offset 16
 323:Drivers/BSP/Components/st7789h2/st7789h2.c ****   parameter[0] = 0xFE;
 758              		.loc 1 323 3 view .LVU230
 324:Drivers/BSP/Components/st7789h2/st7789h2.c ****   /* Display OFF command */
 759              		.loc 1 324 3 view .LVU231
 324:Drivers/BSP/Components/st7789h2/st7789h2.c ****   /* Display OFF command */
 760              		.loc 1 324 16 is_stmt 0 view .LVU232
 761 0004 FE23     		movs	r3, #254
 762 0006 8DF80430 		strb	r3, [sp, #4]
 326:Drivers/BSP/Components/st7789h2/st7789h2.c ****   /* Sleep In Command */
 763              		.loc 1 326 3 is_stmt 1 view .LVU233
 764 000a 0122     		movs	r2, #1
 765 000c 01A9     		add	r1, sp, #4
 766 000e BD20     		movs	r0, #189
 767 0010 FFF7FEFF 		bl	ST7789H2_WriteReg
 768              	.LVL48:
 328:Drivers/BSP/Components/st7789h2/st7789h2.c ****   /* Wait for 10ms */
 769              		.loc 1 328 3 view .LVU234
 770 0014 0022     		movs	r2, #0
 771 0016 1146     		mov	r1, r2
 772 0018 1020     		movs	r0, #16
 773 001a FFF7FEFF 		bl	ST7789H2_WriteReg
 774              	.LVL49:
 330:Drivers/BSP/Components/st7789h2/st7789h2.c **** }
 775              		.loc 1 330 3 view .LVU235
 776 001e 0A20     		movs	r0, #10
 777 0020 FFF7FEFF 		bl	LCD_IO_Delay
ARM GAS  /var/folders/n6/c271nzx11xl4r4_m7sqjlt0m0000gn/T//cchL8bna.s 			page 27


 778              	.LVL50:
 331:Drivers/BSP/Components/st7789h2/st7789h2.c **** 
 779              		.loc 1 331 1 is_stmt 0 view .LVU236
 780 0024 03B0     		add	sp, sp, #12
 781              		.cfi_def_cfa_offset 4
 782              		@ sp needed
 783 0026 5DF804FB 		ldr	pc, [sp], #4
 784              		.cfi_endproc
 785              	.LFE6:
 787              		.section	.text.ST7789H2_SetCursor,"ax",%progbits
 788              		.align	1
 789              		.global	ST7789H2_SetCursor
 790              		.syntax unified
 791              		.thumb
 792              		.thumb_func
 794              	ST7789H2_SetCursor:
 795              	.LVL51:
 796              	.LFB10:
 372:Drivers/BSP/Components/st7789h2/st7789h2.c ****   uint8_t   parameter[4];
 797              		.loc 1 372 1 is_stmt 1 view -0
 798              		.cfi_startproc
 799              		@ args = 0, pretend = 0, frame = 8
 800              		@ frame_needed = 0, uses_anonymous_args = 0
 372:Drivers/BSP/Components/st7789h2/st7789h2.c ****   uint8_t   parameter[4];
 801              		.loc 1 372 1 is_stmt 0 view .LVU238
 802 0000 30B5     		push	{r4, r5, lr}
 803              		.cfi_def_cfa_offset 12
 804              		.cfi_offset 4, -12
 805              		.cfi_offset 5, -8
 806              		.cfi_offset 14, -4
 807 0002 83B0     		sub	sp, sp, #12
 808              		.cfi_def_cfa_offset 24
 809 0004 0C46     		mov	r4, r1
 373:Drivers/BSP/Components/st7789h2/st7789h2.c ****   /* CASET: Comumn Addrses Set */
 810              		.loc 1 373 3 is_stmt 1 view .LVU239
 375:Drivers/BSP/Components/st7789h2/st7789h2.c ****   parameter[1] = 0x00 + Xpos;
 811              		.loc 1 375 3 view .LVU240
 375:Drivers/BSP/Components/st7789h2/st7789h2.c ****   parameter[1] = 0x00 + Xpos;
 812              		.loc 1 375 16 is_stmt 0 view .LVU241
 813 0006 0025     		movs	r5, #0
 814 0008 8DF80450 		strb	r5, [sp, #4]
 376:Drivers/BSP/Components/st7789h2/st7789h2.c ****   parameter[2] = 0x00;
 815              		.loc 1 376 3 is_stmt 1 view .LVU242
 376:Drivers/BSP/Components/st7789h2/st7789h2.c ****   parameter[2] = 0x00;
 816              		.loc 1 376 16 is_stmt 0 view .LVU243
 817 000c C0B2     		uxtb	r0, r0
 818              	.LVL52:
 376:Drivers/BSP/Components/st7789h2/st7789h2.c ****   parameter[2] = 0x00;
 819              		.loc 1 376 16 view .LVU244
 820 000e 8DF80500 		strb	r0, [sp, #5]
 377:Drivers/BSP/Components/st7789h2/st7789h2.c ****   parameter[3] = 0xEF + Xpos;
 821              		.loc 1 377 3 is_stmt 1 view .LVU245
 377:Drivers/BSP/Components/st7789h2/st7789h2.c ****   parameter[3] = 0xEF + Xpos;
 822              		.loc 1 377 16 is_stmt 0 view .LVU246
 823 0012 8DF80650 		strb	r5, [sp, #6]
 378:Drivers/BSP/Components/st7789h2/st7789h2.c ****   ST7789H2_WriteReg(ST7789H2_CASET, parameter, 4);
 824              		.loc 1 378 3 is_stmt 1 view .LVU247
ARM GAS  /var/folders/n6/c271nzx11xl4r4_m7sqjlt0m0000gn/T//cchL8bna.s 			page 28


 378:Drivers/BSP/Components/st7789h2/st7789h2.c ****   ST7789H2_WriteReg(ST7789H2_CASET, parameter, 4);
 825              		.loc 1 378 23 is_stmt 0 view .LVU248
 826 0016 1138     		subs	r0, r0, #17
 378:Drivers/BSP/Components/st7789h2/st7789h2.c ****   ST7789H2_WriteReg(ST7789H2_CASET, parameter, 4);
 827              		.loc 1 378 16 view .LVU249
 828 0018 8DF80700 		strb	r0, [sp, #7]
 379:Drivers/BSP/Components/st7789h2/st7789h2.c ****   /* RASET: Row Addrses Set */  
 829              		.loc 1 379 3 is_stmt 1 view .LVU250
 830 001c 0422     		movs	r2, #4
 831 001e 0DEB0201 		add	r1, sp, r2
 832              	.LVL53:
 379:Drivers/BSP/Components/st7789h2/st7789h2.c ****   /* RASET: Row Addrses Set */  
 833              		.loc 1 379 3 is_stmt 0 view .LVU251
 834 0022 2A20     		movs	r0, #42
 835 0024 FFF7FEFF 		bl	ST7789H2_WriteReg
 836              	.LVL54:
 381:Drivers/BSP/Components/st7789h2/st7789h2.c ****   parameter[1] = 0x00 + Ypos;
 837              		.loc 1 381 3 is_stmt 1 view .LVU252
 381:Drivers/BSP/Components/st7789h2/st7789h2.c ****   parameter[1] = 0x00 + Ypos;
 838              		.loc 1 381 16 is_stmt 0 view .LVU253
 839 0028 8DF80450 		strb	r5, [sp, #4]
 382:Drivers/BSP/Components/st7789h2/st7789h2.c ****   parameter[2] = 0x00;
 840              		.loc 1 382 3 is_stmt 1 view .LVU254
 382:Drivers/BSP/Components/st7789h2/st7789h2.c ****   parameter[2] = 0x00;
 841              		.loc 1 382 16 is_stmt 0 view .LVU255
 842 002c E1B2     		uxtb	r1, r4
 843 002e 8DF80510 		strb	r1, [sp, #5]
 383:Drivers/BSP/Components/st7789h2/st7789h2.c ****   parameter[3] = 0xEF + Ypos;
 844              		.loc 1 383 3 is_stmt 1 view .LVU256
 383:Drivers/BSP/Components/st7789h2/st7789h2.c ****   parameter[3] = 0xEF + Ypos;
 845              		.loc 1 383 16 is_stmt 0 view .LVU257
 846 0032 8DF80650 		strb	r5, [sp, #6]
 384:Drivers/BSP/Components/st7789h2/st7789h2.c ****   ST7789H2_WriteReg(ST7789H2_RASET, parameter, 4);
 847              		.loc 1 384 3 is_stmt 1 view .LVU258
 384:Drivers/BSP/Components/st7789h2/st7789h2.c ****   ST7789H2_WriteReg(ST7789H2_RASET, parameter, 4);
 848              		.loc 1 384 23 is_stmt 0 view .LVU259
 849 0036 1139     		subs	r1, r1, #17
 384:Drivers/BSP/Components/st7789h2/st7789h2.c ****   ST7789H2_WriteReg(ST7789H2_RASET, parameter, 4);
 850              		.loc 1 384 16 view .LVU260
 851 0038 8DF80710 		strb	r1, [sp, #7]
 385:Drivers/BSP/Components/st7789h2/st7789h2.c **** }
 852              		.loc 1 385 3 is_stmt 1 view .LVU261
 853 003c 0422     		movs	r2, #4
 854 003e 0DEB0201 		add	r1, sp, r2
 855 0042 2B20     		movs	r0, #43
 856 0044 FFF7FEFF 		bl	ST7789H2_WriteReg
 857              	.LVL55:
 386:Drivers/BSP/Components/st7789h2/st7789h2.c **** 
 858              		.loc 1 386 1 is_stmt 0 view .LVU262
 859 0048 03B0     		add	sp, sp, #12
 860              		.cfi_def_cfa_offset 12
 861              		@ sp needed
 862 004a 30BD     		pop	{r4, r5, pc}
 386:Drivers/BSP/Components/st7789h2/st7789h2.c **** 
 863              		.loc 1 386 1 view .LVU263
 864              		.cfi_endproc
 865              	.LFE10:
ARM GAS  /var/folders/n6/c271nzx11xl4r4_m7sqjlt0m0000gn/T//cchL8bna.s 			page 29


 867              		.section	.text.ST7789H2_WritePixel,"ax",%progbits
 868              		.align	1
 869              		.global	ST7789H2_WritePixel
 870              		.syntax unified
 871              		.thumb
 872              		.thumb_func
 874              	ST7789H2_WritePixel:
 875              	.LVL56:
 876              	.LFB11:
 396:Drivers/BSP/Components/st7789h2/st7789h2.c ****   /* Set Cursor */
 877              		.loc 1 396 1 is_stmt 1 view -0
 878              		.cfi_startproc
 879              		@ args = 0, pretend = 0, frame = 0
 880              		@ frame_needed = 0, uses_anonymous_args = 0
 396:Drivers/BSP/Components/st7789h2/st7789h2.c ****   /* Set Cursor */
 881              		.loc 1 396 1 is_stmt 0 view .LVU265
 882 0000 10B5     		push	{r4, lr}
 883              		.cfi_def_cfa_offset 8
 884              		.cfi_offset 4, -8
 885              		.cfi_offset 14, -4
 886 0002 1446     		mov	r4, r2
 398:Drivers/BSP/Components/st7789h2/st7789h2.c **** 
 887              		.loc 1 398 3 is_stmt 1 view .LVU266
 888 0004 FFF7FEFF 		bl	ST7789H2_SetCursor
 889              	.LVL57:
 401:Drivers/BSP/Components/st7789h2/st7789h2.c **** 
 890              		.loc 1 401 3 view .LVU267
 891 0008 0022     		movs	r2, #0
 892 000a 1146     		mov	r1, r2
 893 000c 2C20     		movs	r0, #44
 894 000e FFF7FEFF 		bl	ST7789H2_WriteReg
 895              	.LVL58:
 404:Drivers/BSP/Components/st7789h2/st7789h2.c **** }
 896              		.loc 1 404 3 view .LVU268
 897 0012 2046     		mov	r0, r4
 898 0014 FFF7FEFF 		bl	LCD_IO_WriteData
 899              	.LVL59:
 405:Drivers/BSP/Components/st7789h2/st7789h2.c **** 
 900              		.loc 1 405 1 is_stmt 0 view .LVU269
 901 0018 10BD     		pop	{r4, pc}
 405:Drivers/BSP/Components/st7789h2/st7789h2.c **** 
 902              		.loc 1 405 1 view .LVU270
 903              		.cfi_endproc
 904              	.LFE11:
 906              		.section	.text.ST7789H2_ReadPixel_rgb888,"ax",%progbits
 907              		.align	1
 908              		.syntax unified
 909              		.thumb
 910              		.thumb_func
 912              	ST7789H2_ReadPixel_rgb888:
 913              	.LVL60:
 914              	.LFB20:
 519:Drivers/BSP/Components/st7789h2/st7789h2.c **** 
 520:Drivers/BSP/Components/st7789h2/st7789h2.c **** /**
 521:Drivers/BSP/Components/st7789h2/st7789h2.c ****   * @brief  Draw vertical line.
 522:Drivers/BSP/Components/st7789h2/st7789h2.c ****   * @param  RGBCode: Specifies the RGB color in RGB565 format
 523:Drivers/BSP/Components/st7789h2/st7789h2.c ****   * @param  Xpos:     specifies the X position.
ARM GAS  /var/folders/n6/c271nzx11xl4r4_m7sqjlt0m0000gn/T//cchL8bna.s 			page 30


 524:Drivers/BSP/Components/st7789h2/st7789h2.c ****   * @param  Ypos:     specifies the Y position.
 525:Drivers/BSP/Components/st7789h2/st7789h2.c ****   * @param  Length:   specifies the Line length.  
 526:Drivers/BSP/Components/st7789h2/st7789h2.c ****   * @retval None
 527:Drivers/BSP/Components/st7789h2/st7789h2.c ****   */
 528:Drivers/BSP/Components/st7789h2/st7789h2.c **** void ST7789H2_DrawHLine(uint16_t RGBCode, uint16_t Xpos, uint16_t Ypos, uint16_t Length)
 529:Drivers/BSP/Components/st7789h2/st7789h2.c **** {
 530:Drivers/BSP/Components/st7789h2/st7789h2.c ****   uint16_t counter = 0;
 531:Drivers/BSP/Components/st7789h2/st7789h2.c ****   
 532:Drivers/BSP/Components/st7789h2/st7789h2.c ****   /* Set Cursor */
 533:Drivers/BSP/Components/st7789h2/st7789h2.c ****   ST7789H2_SetCursor(Xpos, Ypos); 
 534:Drivers/BSP/Components/st7789h2/st7789h2.c ****   
 535:Drivers/BSP/Components/st7789h2/st7789h2.c ****   /* Prepare to write to LCD RAM */
 536:Drivers/BSP/Components/st7789h2/st7789h2.c ****   ST7789H2_WriteReg(ST7789H2_WRITE_RAM, (uint8_t*)NULL, 0);   /* RAM write data command */
 537:Drivers/BSP/Components/st7789h2/st7789h2.c ****   
 538:Drivers/BSP/Components/st7789h2/st7789h2.c ****   /* Sent a complete line */
 539:Drivers/BSP/Components/st7789h2/st7789h2.c ****   for(counter = 0; counter < Length; counter++)
 540:Drivers/BSP/Components/st7789h2/st7789h2.c ****   {
 541:Drivers/BSP/Components/st7789h2/st7789h2.c ****     LCD_IO_WriteData(RGBCode);
 542:Drivers/BSP/Components/st7789h2/st7789h2.c ****   }  
 543:Drivers/BSP/Components/st7789h2/st7789h2.c **** }
 544:Drivers/BSP/Components/st7789h2/st7789h2.c **** 
 545:Drivers/BSP/Components/st7789h2/st7789h2.c **** /**
 546:Drivers/BSP/Components/st7789h2/st7789h2.c ****   * @brief  Draw vertical line.
 547:Drivers/BSP/Components/st7789h2/st7789h2.c ****   * @param  RGBCode: Specifies the RGB color    
 548:Drivers/BSP/Components/st7789h2/st7789h2.c ****   * @param  Xpos:     specifies the X position.
 549:Drivers/BSP/Components/st7789h2/st7789h2.c ****   * @param  Ypos:     specifies the Y position.
 550:Drivers/BSP/Components/st7789h2/st7789h2.c ****   * @param  Length:   specifies the Line length.  
 551:Drivers/BSP/Components/st7789h2/st7789h2.c ****   * @retval None
 552:Drivers/BSP/Components/st7789h2/st7789h2.c ****   */
 553:Drivers/BSP/Components/st7789h2/st7789h2.c **** void ST7789H2_DrawVLine(uint16_t RGBCode, uint16_t Xpos, uint16_t Ypos, uint16_t Length)
 554:Drivers/BSP/Components/st7789h2/st7789h2.c **** {
 555:Drivers/BSP/Components/st7789h2/st7789h2.c ****   uint16_t counter = 0;
 556:Drivers/BSP/Components/st7789h2/st7789h2.c **** 
 557:Drivers/BSP/Components/st7789h2/st7789h2.c ****   /* Set Cursor */
 558:Drivers/BSP/Components/st7789h2/st7789h2.c ****   ST7789H2_SetCursor(Xpos, Ypos);
 559:Drivers/BSP/Components/st7789h2/st7789h2.c ****   
 560:Drivers/BSP/Components/st7789h2/st7789h2.c ****   /* Prepare to write to LCD RAM */
 561:Drivers/BSP/Components/st7789h2/st7789h2.c ****   ST7789H2_WriteReg(ST7789H2_WRITE_RAM, (uint8_t*)NULL, 0);   /* RAM write data command */
 562:Drivers/BSP/Components/st7789h2/st7789h2.c **** 
 563:Drivers/BSP/Components/st7789h2/st7789h2.c ****   /* Fill a complete vertical line */
 564:Drivers/BSP/Components/st7789h2/st7789h2.c ****   for(counter = 0; counter < Length; counter++)
 565:Drivers/BSP/Components/st7789h2/st7789h2.c ****   {
 566:Drivers/BSP/Components/st7789h2/st7789h2.c ****     ST7789H2_WritePixel(Xpos, Ypos + counter, RGBCode);
 567:Drivers/BSP/Components/st7789h2/st7789h2.c ****   }
 568:Drivers/BSP/Components/st7789h2/st7789h2.c **** }
 569:Drivers/BSP/Components/st7789h2/st7789h2.c **** 
 570:Drivers/BSP/Components/st7789h2/st7789h2.c **** /**
 571:Drivers/BSP/Components/st7789h2/st7789h2.c ****   * @brief  Displays a bitmap picture.
 572:Drivers/BSP/Components/st7789h2/st7789h2.c ****   * @param  BmpAddress: Bmp picture address.
 573:Drivers/BSP/Components/st7789h2/st7789h2.c ****   * @param  Xpos: Bmp X position in the LCD
 574:Drivers/BSP/Components/st7789h2/st7789h2.c ****   * @param  Ypos: Bmp Y position in the LCD    
 575:Drivers/BSP/Components/st7789h2/st7789h2.c ****   * @retval None
 576:Drivers/BSP/Components/st7789h2/st7789h2.c ****   */
 577:Drivers/BSP/Components/st7789h2/st7789h2.c **** void ST7789H2_DrawBitmap(uint16_t Xpos, uint16_t Ypos, uint8_t *pbmp)
 578:Drivers/BSP/Components/st7789h2/st7789h2.c **** {
 579:Drivers/BSP/Components/st7789h2/st7789h2.c ****   uint32_t index = 0, size = 0;
 580:Drivers/BSP/Components/st7789h2/st7789h2.c ****   uint32_t posY;
ARM GAS  /var/folders/n6/c271nzx11xl4r4_m7sqjlt0m0000gn/T//cchL8bna.s 			page 31


 581:Drivers/BSP/Components/st7789h2/st7789h2.c ****   uint32_t nb_line = 0;
 582:Drivers/BSP/Components/st7789h2/st7789h2.c ****   uint16_t Xsize = WindowsXend - WindowsXstart + 1;
 583:Drivers/BSP/Components/st7789h2/st7789h2.c ****   uint16_t Ysize = WindowsYend - WindowsYstart + 1;
 584:Drivers/BSP/Components/st7789h2/st7789h2.c **** 
 585:Drivers/BSP/Components/st7789h2/st7789h2.c ****   /* Read bitmap size */
 586:Drivers/BSP/Components/st7789h2/st7789h2.c ****   size = *(volatile uint16_t *) (pbmp + 2);
 587:Drivers/BSP/Components/st7789h2/st7789h2.c ****   size |= (*(volatile uint16_t *) (pbmp + 4)) << 16;
 588:Drivers/BSP/Components/st7789h2/st7789h2.c ****   /* Get bitmap data address offset */
 589:Drivers/BSP/Components/st7789h2/st7789h2.c ****   index = *(volatile uint16_t *) (pbmp + 10);
 590:Drivers/BSP/Components/st7789h2/st7789h2.c ****   index |= (*(volatile uint16_t *) (pbmp + 12)) << 16;
 591:Drivers/BSP/Components/st7789h2/st7789h2.c ****   size = (size - index)/2;
 592:Drivers/BSP/Components/st7789h2/st7789h2.c ****   pbmp += index;
 593:Drivers/BSP/Components/st7789h2/st7789h2.c **** 
 594:Drivers/BSP/Components/st7789h2/st7789h2.c ****   for (posY = (Ypos + Ysize); posY > Ypos; posY--)  /* In BMP files the line order is inverted */
 595:Drivers/BSP/Components/st7789h2/st7789h2.c ****   {
 596:Drivers/BSP/Components/st7789h2/st7789h2.c ****     /* Set Cursor */
 597:Drivers/BSP/Components/st7789h2/st7789h2.c ****     ST7789H2_SetCursor(Xpos, posY - 1);
 598:Drivers/BSP/Components/st7789h2/st7789h2.c **** 
 599:Drivers/BSP/Components/st7789h2/st7789h2.c ****     /* Draw one line of the picture */
 600:Drivers/BSP/Components/st7789h2/st7789h2.c ****     ST7789H2_DrawRGBHLine(Xpos, posY - 1, Xsize, (pbmp + (nb_line * Xsize * 2)));
 601:Drivers/BSP/Components/st7789h2/st7789h2.c ****     nb_line++;
 602:Drivers/BSP/Components/st7789h2/st7789h2.c ****   }
 603:Drivers/BSP/Components/st7789h2/st7789h2.c **** }
 604:Drivers/BSP/Components/st7789h2/st7789h2.c **** 
 605:Drivers/BSP/Components/st7789h2/st7789h2.c **** /**
 606:Drivers/BSP/Components/st7789h2/st7789h2.c ****   * @brief  Displays picture.
 607:Drivers/BSP/Components/st7789h2/st7789h2.c ****   * @param  pdata: picture address.
 608:Drivers/BSP/Components/st7789h2/st7789h2.c ****   * @param  Xpos: Image X position in the LCD
 609:Drivers/BSP/Components/st7789h2/st7789h2.c ****   * @param  Ypos: Image Y position in the LCD
 610:Drivers/BSP/Components/st7789h2/st7789h2.c ****   * @param  Xsize: Image X size in the LCD
 611:Drivers/BSP/Components/st7789h2/st7789h2.c ****   * @param  Ysize: Image Y size in the LCD
 612:Drivers/BSP/Components/st7789h2/st7789h2.c ****   * @retval None
 613:Drivers/BSP/Components/st7789h2/st7789h2.c ****   */
 614:Drivers/BSP/Components/st7789h2/st7789h2.c **** void ST7789H2_DrawRGBImage(uint16_t Xpos, uint16_t Ypos, uint16_t Xsize, uint16_t Ysize, uint8_t *p
 615:Drivers/BSP/Components/st7789h2/st7789h2.c **** {
 616:Drivers/BSP/Components/st7789h2/st7789h2.c ****   uint32_t posY;
 617:Drivers/BSP/Components/st7789h2/st7789h2.c ****   uint32_t nb_line = 0;
 618:Drivers/BSP/Components/st7789h2/st7789h2.c **** 
 619:Drivers/BSP/Components/st7789h2/st7789h2.c ****   for (posY = Ypos; posY < (Ypos + Ysize); posY ++)
 620:Drivers/BSP/Components/st7789h2/st7789h2.c ****   {
 621:Drivers/BSP/Components/st7789h2/st7789h2.c ****     /* Set Cursor */
 622:Drivers/BSP/Components/st7789h2/st7789h2.c ****     ST7789H2_SetCursor(Xpos, posY);
 623:Drivers/BSP/Components/st7789h2/st7789h2.c **** 
 624:Drivers/BSP/Components/st7789h2/st7789h2.c ****     /* Draw one line of the picture */
 625:Drivers/BSP/Components/st7789h2/st7789h2.c ****     ST7789H2_DrawRGBHLine(Xpos, posY, Xsize, (pdata + (nb_line * Xsize * 2)));
 626:Drivers/BSP/Components/st7789h2/st7789h2.c ****     nb_line++;
 627:Drivers/BSP/Components/st7789h2/st7789h2.c ****   }
 628:Drivers/BSP/Components/st7789h2/st7789h2.c **** }
 629:Drivers/BSP/Components/st7789h2/st7789h2.c **** 
 630:Drivers/BSP/Components/st7789h2/st7789h2.c **** 
 631:Drivers/BSP/Components/st7789h2/st7789h2.c **** /******************************************************************************
 632:Drivers/BSP/Components/st7789h2/st7789h2.c ****                             Static Functions
 633:Drivers/BSP/Components/st7789h2/st7789h2.c **** *******************************************************************************/
 634:Drivers/BSP/Components/st7789h2/st7789h2.c **** 
 635:Drivers/BSP/Components/st7789h2/st7789h2.c **** /**
 636:Drivers/BSP/Components/st7789h2/st7789h2.c ****   * @brief  Read pixel from LCD RAM in RGB888 format
 637:Drivers/BSP/Components/st7789h2/st7789h2.c ****   * @param  Xpos: specifies the X position.
ARM GAS  /var/folders/n6/c271nzx11xl4r4_m7sqjlt0m0000gn/T//cchL8bna.s 			page 32


 638:Drivers/BSP/Components/st7789h2/st7789h2.c ****   * @param  Ypos: specifies the Y position.
 639:Drivers/BSP/Components/st7789h2/st7789h2.c ****   * @retval Each RGB pixel color components in a structure
 640:Drivers/BSP/Components/st7789h2/st7789h2.c ****   */
 641:Drivers/BSP/Components/st7789h2/st7789h2.c **** static ST7789H2_Rgb888 ST7789H2_ReadPixel_rgb888(uint16_t Xpos, uint16_t Ypos)
 642:Drivers/BSP/Components/st7789h2/st7789h2.c **** {
 915              		.loc 1 642 1 is_stmt 1 view -0
 916              		.cfi_startproc
 917              		@ args = 0, pretend = 0, frame = 8
 918              		@ frame_needed = 0, uses_anonymous_args = 0
 919              		.loc 1 642 1 is_stmt 0 view .LVU272
 920 0000 10B5     		push	{r4, lr}
 921              		.cfi_def_cfa_offset 8
 922              		.cfi_offset 4, -8
 923              		.cfi_offset 14, -4
 924 0002 82B0     		sub	sp, sp, #8
 925              		.cfi_def_cfa_offset 16
 643:Drivers/BSP/Components/st7789h2/st7789h2.c ****   ST7789H2_Rgb888 rgb888;
 926              		.loc 1 643 3 is_stmt 1 view .LVU273
 644:Drivers/BSP/Components/st7789h2/st7789h2.c ****   uint16_t         rgb888_part1, rgb888_part2;
 927              		.loc 1 644 3 view .LVU274
 645:Drivers/BSP/Components/st7789h2/st7789h2.c **** 
 646:Drivers/BSP/Components/st7789h2/st7789h2.c ****   /* In LCD RAM, pixels are 24 bits packed and read with 16 bits access
 647:Drivers/BSP/Components/st7789h2/st7789h2.c ****    * Here is the pixels components arrangement in memory :
 648:Drivers/BSP/Components/st7789h2/st7789h2.c ****    *       bits:  15 14 13 12 11 10 09 08 | 07 06 05 04 03 02 01 00
 649:Drivers/BSP/Components/st7789h2/st7789h2.c ****    * address 0 :     red pixel 0    X  X  |   green pixel 0   X  X
 650:Drivers/BSP/Components/st7789h2/st7789h2.c ****    * address 1 :    blue pixel 0    X  X  |     red pixel 1   X  X
 651:Drivers/BSP/Components/st7789h2/st7789h2.c ****    * address 2 :   green pixel 1    X  X  |    blue pixel 1   X  X
 652:Drivers/BSP/Components/st7789h2/st7789h2.c ****    */
 653:Drivers/BSP/Components/st7789h2/st7789h2.c **** 
 654:Drivers/BSP/Components/st7789h2/st7789h2.c ****   /* Set Cursor */
 655:Drivers/BSP/Components/st7789h2/st7789h2.c ****   ST7789H2_SetCursor(Xpos, Ypos);
 928              		.loc 1 655 3 view .LVU275
 929 0004 FFF7FEFF 		bl	ST7789H2_SetCursor
 930              	.LVL61:
 656:Drivers/BSP/Components/st7789h2/st7789h2.c ****   /* Prepare to read LCD RAM */
 657:Drivers/BSP/Components/st7789h2/st7789h2.c ****   ST7789H2_WriteReg(ST7789H2_READ_RAM, (uint8_t*)NULL, 0);   /* RAM read data command */
 931              		.loc 1 657 3 view .LVU276
 932 0008 0022     		movs	r2, #0
 933 000a 1146     		mov	r1, r2
 934 000c 2E20     		movs	r0, #46
 935 000e FFF7FEFF 		bl	ST7789H2_WriteReg
 936              	.LVL62:
 658:Drivers/BSP/Components/st7789h2/st7789h2.c ****   /* Dummy read */
 659:Drivers/BSP/Components/st7789h2/st7789h2.c ****   LCD_IO_ReadData();
 937              		.loc 1 659 3 view .LVU277
 938 0012 FFF7FEFF 		bl	LCD_IO_ReadData
 939              	.LVL63:
 660:Drivers/BSP/Components/st7789h2/st7789h2.c ****   /* Read first part of the RGB888 data */
 661:Drivers/BSP/Components/st7789h2/st7789h2.c ****   rgb888_part1 = LCD_IO_ReadData();
 940              		.loc 1 661 3 view .LVU278
 941              		.loc 1 661 18 is_stmt 0 view .LVU279
 942 0016 FFF7FEFF 		bl	LCD_IO_ReadData
 943              	.LVL64:
 944 001a 0446     		mov	r4, r0
 945              	.LVL65:
 662:Drivers/BSP/Components/st7789h2/st7789h2.c ****   /* Read first part of the RGB888 data */
 663:Drivers/BSP/Components/st7789h2/st7789h2.c ****   rgb888_part2 = LCD_IO_ReadData();
ARM GAS  /var/folders/n6/c271nzx11xl4r4_m7sqjlt0m0000gn/T//cchL8bna.s 			page 33


 946              		.loc 1 663 3 is_stmt 1 view .LVU280
 947              		.loc 1 663 18 is_stmt 0 view .LVU281
 948 001c FFF7FEFF 		bl	LCD_IO_ReadData
 949              	.LVL66:
 664:Drivers/BSP/Components/st7789h2/st7789h2.c **** 
 665:Drivers/BSP/Components/st7789h2/st7789h2.c ****   /* red component */
 666:Drivers/BSP/Components/st7789h2/st7789h2.c ****   rgb888.red   = (rgb888_part1 & 0xFC00) >> 8;
 950              		.loc 1 666 3 is_stmt 1 view .LVU282
 951              		.loc 1 666 42 is_stmt 0 view .LVU283
 952 0020 2312     		asrs	r3, r4, #8
 953 0022 03F0FC03 		and	r3, r3, #252
 954              		.loc 1 666 16 view .LVU284
 955 0026 8DF80030 		strb	r3, [sp]
 667:Drivers/BSP/Components/st7789h2/st7789h2.c ****   /* green component */
 668:Drivers/BSP/Components/st7789h2/st7789h2.c ****   rgb888.green = (rgb888_part1 & 0x00FC) >> 0;
 956              		.loc 1 668 3 is_stmt 1 view .LVU285
 957              		.loc 1 668 42 is_stmt 0 view .LVU286
 958 002a 04F0FC04 		and	r4, r4, #252
 959              	.LVL67:
 960              		.loc 1 668 16 view .LVU287
 961 002e 8DF80140 		strb	r4, [sp, #1]
 669:Drivers/BSP/Components/st7789h2/st7789h2.c ****   /* blue component */
 670:Drivers/BSP/Components/st7789h2/st7789h2.c ****   rgb888.blue  = (rgb888_part2 & 0xFC00) >> 8;
 962              		.loc 1 670 3 is_stmt 1 view .LVU288
 963              		.loc 1 670 42 is_stmt 0 view .LVU289
 964 0032 0012     		asrs	r0, r0, #8
 965              	.LVL68:
 966              		.loc 1 670 42 view .LVU290
 967 0034 00F0FC00 		and	r0, r0, #252
 968              		.loc 1 670 16 view .LVU291
 969 0038 8DF80200 		strb	r0, [sp, #2]
 671:Drivers/BSP/Components/st7789h2/st7789h2.c **** 
 672:Drivers/BSP/Components/st7789h2/st7789h2.c ****   return rgb888;
 970              		.loc 1 672 3 is_stmt 1 view .LVU292
 971              		.loc 1 672 10 is_stmt 0 view .LVU293
 972 003c 009B     		ldr	r3, [sp]
 973 003e ADF80430 		strh	r3, [sp, #4]	@ movhi
 974 0042 1B0C     		lsrs	r3, r3, #16
 975 0044 8DF80630 		strb	r3, [sp, #6]
 976 0048 0020     		movs	r0, #0
 977 004a 9DF80430 		ldrb	r3, [sp, #4]	@ zero_extendqisi2
 978 004e 63F30700 		bfi	r0, r3, #0, #8
 979 0052 9DF80530 		ldrb	r3, [sp, #5]	@ zero_extendqisi2
 980 0056 63F30F20 		bfi	r0, r3, #8, #8
 981 005a 9DF80630 		ldrb	r3, [sp, #6]	@ zero_extendqisi2
 982 005e 63F31740 		bfi	r0, r3, #16, #8
 673:Drivers/BSP/Components/st7789h2/st7789h2.c **** }
 983              		.loc 1 673 1 view .LVU294
 984 0062 02B0     		add	sp, sp, #8
 985              		.cfi_def_cfa_offset 8
 986              		@ sp needed
 987 0064 10BD     		pop	{r4, pc}
 988              		.cfi_endproc
 989              	.LFE20:
 991              		.section	.text.ST7789H2_ReadPixel,"ax",%progbits
 992              		.align	1
 993              		.global	ST7789H2_ReadPixel
ARM GAS  /var/folders/n6/c271nzx11xl4r4_m7sqjlt0m0000gn/T//cchL8bna.s 			page 34


 994              		.syntax unified
 995              		.thumb
 996              		.thumb_func
 998              	ST7789H2_ReadPixel:
 999              	.LVL69:
 1000              	.LFB12:
 414:Drivers/BSP/Components/st7789h2/st7789h2.c ****   ST7789H2_Rgb888 rgb888;
 1001              		.loc 1 414 1 is_stmt 1 view -0
 1002              		.cfi_startproc
 1003              		@ args = 0, pretend = 0, frame = 8
 1004              		@ frame_needed = 0, uses_anonymous_args = 0
 414:Drivers/BSP/Components/st7789h2/st7789h2.c ****   ST7789H2_Rgb888 rgb888;
 1005              		.loc 1 414 1 is_stmt 0 view .LVU296
 1006 0000 30B5     		push	{r4, r5, lr}
 1007              		.cfi_def_cfa_offset 12
 1008              		.cfi_offset 4, -12
 1009              		.cfi_offset 5, -8
 1010              		.cfi_offset 14, -4
 1011 0002 83B0     		sub	sp, sp, #12
 1012              		.cfi_def_cfa_offset 24
 1013 0004 0446     		mov	r4, r0
 1014 0006 0D46     		mov	r5, r1
 415:Drivers/BSP/Components/st7789h2/st7789h2.c ****   uint8_t          r, g, b;
 1015              		.loc 1 415 3 is_stmt 1 view .LVU297
 416:Drivers/BSP/Components/st7789h2/st7789h2.c ****   uint16_t         rgb565;
 1016              		.loc 1 416 3 view .LVU298
 417:Drivers/BSP/Components/st7789h2/st7789h2.c **** 
 1017              		.loc 1 417 3 view .LVU299
 420:Drivers/BSP/Components/st7789h2/st7789h2.c ****   
 1018              		.loc 1 420 3 view .LVU300
 1019 0008 FFF7FEFF 		bl	ST7789H2_SetCursor
 1020              	.LVL70:
 423:Drivers/BSP/Components/st7789h2/st7789h2.c ****   
 1021              		.loc 1 423 3 view .LVU301
 423:Drivers/BSP/Components/st7789h2/st7789h2.c ****   
 1022              		.loc 1 423 12 is_stmt 0 view .LVU302
 1023 000c 2946     		mov	r1, r5
 1024 000e 2046     		mov	r0, r4
 1025 0010 FFF7FEFF 		bl	ST7789H2_ReadPixel_rgb888
 1026              	.LVL71:
 1027 0014 8DF80400 		strb	r0, [sp, #4]
 1028 0018 C0F30723 		ubfx	r3, r0, #8, #8
 1029 001c 8DF80530 		strb	r3, [sp, #5]
 1030 0020 C0F30740 		ubfx	r0, r0, #16, #8
 1031 0024 8DF80600 		strb	r0, [sp, #6]
 426:Drivers/BSP/Components/st7789h2/st7789h2.c ****   g = ((rgb888.green & 0xFC) >> 2);  /* Extract the green component 6 most significant bits */
 1032              		.loc 1 426 3 is_stmt 1 view .LVU303
 426:Drivers/BSP/Components/st7789h2/st7789h2.c ****   g = ((rgb888.green & 0xFC) >> 2);  /* Extract the green component 6 most significant bits */
 1033              		.loc 1 426 15 is_stmt 0 view .LVU304
 1034 0028 9DF80430 		ldrb	r3, [sp, #4]	@ zero_extendqisi2
 426:Drivers/BSP/Components/st7789h2/st7789h2.c ****   g = ((rgb888.green & 0xFC) >> 2);  /* Extract the green component 6 most significant bits */
 1035              		.loc 1 426 5 view .LVU305
 1036 002c DB08     		lsrs	r3, r3, #3
 1037              	.LVL72:
 427:Drivers/BSP/Components/st7789h2/st7789h2.c ****   b = ((rgb888.blue & 0xF8) >> 3);   /* Extract the blue component 5 most significant bits */
 1038              		.loc 1 427 3 is_stmt 1 view .LVU306
 427:Drivers/BSP/Components/st7789h2/st7789h2.c ****   b = ((rgb888.blue & 0xF8) >> 3);   /* Extract the blue component 5 most significant bits */
ARM GAS  /var/folders/n6/c271nzx11xl4r4_m7sqjlt0m0000gn/T//cchL8bna.s 			page 35


 1039              		.loc 1 427 15 is_stmt 0 view .LVU307
 1040 002e 9DF80500 		ldrb	r0, [sp, #5]	@ zero_extendqisi2
 427:Drivers/BSP/Components/st7789h2/st7789h2.c ****   b = ((rgb888.blue & 0xF8) >> 3);   /* Extract the blue component 5 most significant bits */
 1041              		.loc 1 427 5 view .LVU308
 1042 0032 8008     		lsrs	r0, r0, #2
 1043              	.LVL73:
 428:Drivers/BSP/Components/st7789h2/st7789h2.c **** 
 1044              		.loc 1 428 3 is_stmt 1 view .LVU309
 428:Drivers/BSP/Components/st7789h2/st7789h2.c **** 
 1045              		.loc 1 428 15 is_stmt 0 view .LVU310
 1046 0034 9DF80620 		ldrb	r2, [sp, #6]	@ zero_extendqisi2
 1047              	.LVL74:
 430:Drivers/BSP/Components/st7789h2/st7789h2.c ****   
 1048              		.loc 1 430 3 is_stmt 1 view .LVU311
 430:Drivers/BSP/Components/st7789h2/st7789h2.c ****   
 1049              		.loc 1 430 51 is_stmt 0 view .LVU312
 1050 0038 4001     		lsls	r0, r0, #5
 1051              	.LVL75:
 430:Drivers/BSP/Components/st7789h2/st7789h2.c ****   
 1052              		.loc 1 430 34 view .LVU313
 1053 003a 00EBC320 		add	r0, r0, r3, lsl #11
 1054 003e 80B2     		uxth	r0, r0
 430:Drivers/BSP/Components/st7789h2/st7789h2.c ****   
 1055              		.loc 1 430 10 view .LVU314
 1056 0040 00EBD200 		add	r0, r0, r2, lsr #3
 1057              	.LVL76:
 432:Drivers/BSP/Components/st7789h2/st7789h2.c **** }
 1058              		.loc 1 432 3 is_stmt 1 view .LVU315
 433:Drivers/BSP/Components/st7789h2/st7789h2.c **** 
 1059              		.loc 1 433 1 is_stmt 0 view .LVU316
 1060 0044 80B2     		uxth	r0, r0
 433:Drivers/BSP/Components/st7789h2/st7789h2.c **** 
 1061              		.loc 1 433 1 view .LVU317
 1062 0046 03B0     		add	sp, sp, #12
 1063              		.cfi_def_cfa_offset 12
 1064              		@ sp needed
 1065 0048 30BD     		pop	{r4, r5, pc}
 433:Drivers/BSP/Components/st7789h2/st7789h2.c **** 
 1066              		.loc 1 433 1 view .LVU318
 1067              		.cfi_endproc
 1068              	.LFE12:
 1070              		.section	.text.ST7789H2_DrawHLine,"ax",%progbits
 1071              		.align	1
 1072              		.global	ST7789H2_DrawHLine
 1073              		.syntax unified
 1074              		.thumb
 1075              		.thumb_func
 1077              	ST7789H2_DrawHLine:
 1078              	.LVL77:
 1079              	.LFB16:
 529:Drivers/BSP/Components/st7789h2/st7789h2.c ****   uint16_t counter = 0;
 1080              		.loc 1 529 1 is_stmt 1 view -0
 1081              		.cfi_startproc
 1082              		@ args = 0, pretend = 0, frame = 0
 1083              		@ frame_needed = 0, uses_anonymous_args = 0
 529:Drivers/BSP/Components/st7789h2/st7789h2.c ****   uint16_t counter = 0;
 1084              		.loc 1 529 1 is_stmt 0 view .LVU320
ARM GAS  /var/folders/n6/c271nzx11xl4r4_m7sqjlt0m0000gn/T//cchL8bna.s 			page 36


 1085 0000 70B5     		push	{r4, r5, r6, lr}
 1086              		.cfi_def_cfa_offset 16
 1087              		.cfi_offset 4, -16
 1088              		.cfi_offset 5, -12
 1089              		.cfi_offset 6, -8
 1090              		.cfi_offset 14, -4
 1091 0002 0646     		mov	r6, r0
 1092 0004 0846     		mov	r0, r1
 1093              	.LVL78:
 529:Drivers/BSP/Components/st7789h2/st7789h2.c ****   uint16_t counter = 0;
 1094              		.loc 1 529 1 view .LVU321
 1095 0006 1D46     		mov	r5, r3
 530:Drivers/BSP/Components/st7789h2/st7789h2.c ****   
 1096              		.loc 1 530 3 is_stmt 1 view .LVU322
 1097              	.LVL79:
 533:Drivers/BSP/Components/st7789h2/st7789h2.c ****   
 1098              		.loc 1 533 3 view .LVU323
 1099 0008 1146     		mov	r1, r2
 1100              	.LVL80:
 533:Drivers/BSP/Components/st7789h2/st7789h2.c ****   
 1101              		.loc 1 533 3 is_stmt 0 view .LVU324
 1102 000a FFF7FEFF 		bl	ST7789H2_SetCursor
 1103              	.LVL81:
 536:Drivers/BSP/Components/st7789h2/st7789h2.c ****   
 1104              		.loc 1 536 3 is_stmt 1 view .LVU325
 1105 000e 0022     		movs	r2, #0
 1106 0010 1146     		mov	r1, r2
 1107 0012 2C20     		movs	r0, #44
 1108 0014 FFF7FEFF 		bl	ST7789H2_WriteReg
 1109              	.LVL82:
 539:Drivers/BSP/Components/st7789h2/st7789h2.c ****   {
 1110              		.loc 1 539 3 view .LVU326
 539:Drivers/BSP/Components/st7789h2/st7789h2.c ****   {
 1111              		.loc 1 539 15 is_stmt 0 view .LVU327
 1112 0018 0024     		movs	r4, #0
 539:Drivers/BSP/Components/st7789h2/st7789h2.c ****   {
 1113              		.loc 1 539 3 view .LVU328
 1114 001a 04E0     		b	.L41
 1115              	.LVL83:
 1116              	.L42:
 541:Drivers/BSP/Components/st7789h2/st7789h2.c ****   }  
 1117              		.loc 1 541 5 is_stmt 1 view .LVU329
 1118 001c 3046     		mov	r0, r6
 1119 001e FFF7FEFF 		bl	LCD_IO_WriteData
 1120              	.LVL84:
 539:Drivers/BSP/Components/st7789h2/st7789h2.c ****   {
 1121              		.loc 1 539 45 discriminator 3 view .LVU330
 1122 0022 0134     		adds	r4, r4, #1
 1123              	.LVL85:
 539:Drivers/BSP/Components/st7789h2/st7789h2.c ****   {
 1124              		.loc 1 539 45 is_stmt 0 discriminator 3 view .LVU331
 1125 0024 A4B2     		uxth	r4, r4
 1126              	.LVL86:
 1127              	.L41:
 539:Drivers/BSP/Components/st7789h2/st7789h2.c ****   {
 1128              		.loc 1 539 28 is_stmt 1 discriminator 1 view .LVU332
 1129 0026 AC42     		cmp	r4, r5
ARM GAS  /var/folders/n6/c271nzx11xl4r4_m7sqjlt0m0000gn/T//cchL8bna.s 			page 37


 1130 0028 F8D3     		bcc	.L42
 543:Drivers/BSP/Components/st7789h2/st7789h2.c **** 
 1131              		.loc 1 543 1 is_stmt 0 view .LVU333
 1132 002a 70BD     		pop	{r4, r5, r6, pc}
 543:Drivers/BSP/Components/st7789h2/st7789h2.c **** 
 1133              		.loc 1 543 1 view .LVU334
 1134              		.cfi_endproc
 1135              	.LFE16:
 1137              		.section	.text.ST7789H2_DrawVLine,"ax",%progbits
 1138              		.align	1
 1139              		.global	ST7789H2_DrawVLine
 1140              		.syntax unified
 1141              		.thumb
 1142              		.thumb_func
 1144              	ST7789H2_DrawVLine:
 1145              	.LVL87:
 1146              	.LFB17:
 554:Drivers/BSP/Components/st7789h2/st7789h2.c ****   uint16_t counter = 0;
 1147              		.loc 1 554 1 is_stmt 1 view -0
 1148              		.cfi_startproc
 1149              		@ args = 0, pretend = 0, frame = 0
 1150              		@ frame_needed = 0, uses_anonymous_args = 0
 554:Drivers/BSP/Components/st7789h2/st7789h2.c ****   uint16_t counter = 0;
 1151              		.loc 1 554 1 is_stmt 0 view .LVU336
 1152 0000 2DE9F041 		push	{r4, r5, r6, r7, r8, lr}
 1153              		.cfi_def_cfa_offset 24
 1154              		.cfi_offset 4, -24
 1155              		.cfi_offset 5, -20
 1156              		.cfi_offset 6, -16
 1157              		.cfi_offset 7, -12
 1158              		.cfi_offset 8, -8
 1159              		.cfi_offset 14, -4
 1160 0004 8046     		mov	r8, r0
 1161 0006 0D46     		mov	r5, r1
 1162 0008 1646     		mov	r6, r2
 1163 000a 1F46     		mov	r7, r3
 555:Drivers/BSP/Components/st7789h2/st7789h2.c **** 
 1164              		.loc 1 555 3 is_stmt 1 view .LVU337
 1165              	.LVL88:
 558:Drivers/BSP/Components/st7789h2/st7789h2.c ****   
 1166              		.loc 1 558 3 view .LVU338
 1167 000c 1146     		mov	r1, r2
 1168              	.LVL89:
 558:Drivers/BSP/Components/st7789h2/st7789h2.c ****   
 1169              		.loc 1 558 3 is_stmt 0 view .LVU339
 1170 000e 2846     		mov	r0, r5
 1171              	.LVL90:
 558:Drivers/BSP/Components/st7789h2/st7789h2.c ****   
 1172              		.loc 1 558 3 view .LVU340
 1173 0010 FFF7FEFF 		bl	ST7789H2_SetCursor
 1174              	.LVL91:
 561:Drivers/BSP/Components/st7789h2/st7789h2.c **** 
 1175              		.loc 1 561 3 is_stmt 1 view .LVU341
 1176 0014 0022     		movs	r2, #0
 1177 0016 1146     		mov	r1, r2
 1178 0018 2C20     		movs	r0, #44
 1179 001a FFF7FEFF 		bl	ST7789H2_WriteReg
ARM GAS  /var/folders/n6/c271nzx11xl4r4_m7sqjlt0m0000gn/T//cchL8bna.s 			page 38


 1180              	.LVL92:
 564:Drivers/BSP/Components/st7789h2/st7789h2.c ****   {
 1181              		.loc 1 564 3 view .LVU342
 564:Drivers/BSP/Components/st7789h2/st7789h2.c ****   {
 1182              		.loc 1 564 15 is_stmt 0 view .LVU343
 1183 001e 0024     		movs	r4, #0
 564:Drivers/BSP/Components/st7789h2/st7789h2.c ****   {
 1184              		.loc 1 564 3 view .LVU344
 1185 0020 07E0     		b	.L45
 1186              	.LVL93:
 1187              	.L46:
 566:Drivers/BSP/Components/st7789h2/st7789h2.c ****   }
 1188              		.loc 1 566 5 is_stmt 1 view .LVU345
 1189 0022 A119     		adds	r1, r4, r6
 1190 0024 4246     		mov	r2, r8
 1191 0026 89B2     		uxth	r1, r1
 1192 0028 2846     		mov	r0, r5
 1193 002a FFF7FEFF 		bl	ST7789H2_WritePixel
 1194              	.LVL94:
 564:Drivers/BSP/Components/st7789h2/st7789h2.c ****   {
 1195              		.loc 1 564 45 discriminator 3 view .LVU346
 1196 002e 0134     		adds	r4, r4, #1
 1197              	.LVL95:
 564:Drivers/BSP/Components/st7789h2/st7789h2.c ****   {
 1198              		.loc 1 564 45 is_stmt 0 discriminator 3 view .LVU347
 1199 0030 A4B2     		uxth	r4, r4
 1200              	.LVL96:
 1201              	.L45:
 564:Drivers/BSP/Components/st7789h2/st7789h2.c ****   {
 1202              		.loc 1 564 28 is_stmt 1 discriminator 1 view .LVU348
 1203 0032 BC42     		cmp	r4, r7
 1204 0034 F5D3     		bcc	.L46
 568:Drivers/BSP/Components/st7789h2/st7789h2.c **** 
 1205              		.loc 1 568 1 is_stmt 0 view .LVU349
 1206 0036 BDE8F081 		pop	{r4, r5, r6, r7, r8, pc}
 568:Drivers/BSP/Components/st7789h2/st7789h2.c **** 
 1207              		.loc 1 568 1 view .LVU350
 1208              		.cfi_endproc
 1209              	.LFE17:
 1211              		.section	.text.ST7789H2_DrawRGBHLine,"ax",%progbits
 1212              		.align	1
 1213              		.syntax unified
 1214              		.thumb
 1215              		.thumb_func
 1217              	ST7789H2_DrawRGBHLine:
 1218              	.LVL97:
 1219              	.LFB21:
 674:Drivers/BSP/Components/st7789h2/st7789h2.c **** 
 675:Drivers/BSP/Components/st7789h2/st7789h2.c **** 
 676:Drivers/BSP/Components/st7789h2/st7789h2.c **** /**
 677:Drivers/BSP/Components/st7789h2/st7789h2.c ****   * @brief  Displays a single picture line.
 678:Drivers/BSP/Components/st7789h2/st7789h2.c ****   * @param  pdata: picture address.
 679:Drivers/BSP/Components/st7789h2/st7789h2.c ****   * @param  Xpos: Image X position in the LCD
 680:Drivers/BSP/Components/st7789h2/st7789h2.c ****   * @param  Ypos: Image Y position in the LCD
 681:Drivers/BSP/Components/st7789h2/st7789h2.c ****   * @param  Xsize: Image X size in the LCD
 682:Drivers/BSP/Components/st7789h2/st7789h2.c ****   * @retval None
 683:Drivers/BSP/Components/st7789h2/st7789h2.c ****   */
ARM GAS  /var/folders/n6/c271nzx11xl4r4_m7sqjlt0m0000gn/T//cchL8bna.s 			page 39


 684:Drivers/BSP/Components/st7789h2/st7789h2.c **** static void ST7789H2_DrawRGBHLine(uint16_t Xpos, uint16_t Ypos, uint16_t Xsize, uint8_t *pdata)
 685:Drivers/BSP/Components/st7789h2/st7789h2.c **** {
 1220              		.loc 1 685 1 is_stmt 1 view -0
 1221              		.cfi_startproc
 1222              		@ args = 0, pretend = 0, frame = 0
 1223              		@ frame_needed = 0, uses_anonymous_args = 0
 1224              		.loc 1 685 1 is_stmt 0 view .LVU352
 1225 0000 2DE9F843 		push	{r3, r4, r5, r6, r7, r8, r9, lr}
 1226              		.cfi_def_cfa_offset 32
 1227              		.cfi_offset 3, -32
 1228              		.cfi_offset 4, -28
 1229              		.cfi_offset 5, -24
 1230              		.cfi_offset 6, -20
 1231              		.cfi_offset 7, -16
 1232              		.cfi_offset 8, -12
 1233              		.cfi_offset 9, -8
 1234              		.cfi_offset 14, -4
 1235 0004 0546     		mov	r5, r0
 1236 0006 0F46     		mov	r7, r1
 1237 0008 1646     		mov	r6, r2
 1238 000a 9846     		mov	r8, r3
 686:Drivers/BSP/Components/st7789h2/st7789h2.c ****   uint32_t i = 0;
 1239              		.loc 1 686 3 is_stmt 1 view .LVU353
 1240              	.LVL98:
 687:Drivers/BSP/Components/st7789h2/st7789h2.c ****   uint32_t posX;
 1241              		.loc 1 687 3 view .LVU354
 688:Drivers/BSP/Components/st7789h2/st7789h2.c ****   uint16_t *rgb565 = (uint16_t*)pdata;
 1242              		.loc 1 688 3 view .LVU355
 689:Drivers/BSP/Components/st7789h2/st7789h2.c ****   
 690:Drivers/BSP/Components/st7789h2/st7789h2.c ****   /* Prepare to write to LCD RAM */
 691:Drivers/BSP/Components/st7789h2/st7789h2.c ****   ST7789H2_WriteReg(ST7789H2_WRITE_RAM, (uint8_t*)NULL, 0);   /* RAM write data command */
 1243              		.loc 1 691 3 view .LVU356
 1244 000c 0022     		movs	r2, #0
 1245              	.LVL99:
 1246              		.loc 1 691 3 is_stmt 0 view .LVU357
 1247 000e 1146     		mov	r1, r2
 1248              	.LVL100:
 1249              		.loc 1 691 3 view .LVU358
 1250 0010 2C20     		movs	r0, #44
 1251              	.LVL101:
 1252              		.loc 1 691 3 view .LVU359
 1253 0012 FFF7FEFF 		bl	ST7789H2_WriteReg
 1254              	.LVL102:
 692:Drivers/BSP/Components/st7789h2/st7789h2.c ****   
 693:Drivers/BSP/Components/st7789h2/st7789h2.c ****   for (posX = Xpos; posX < (Xsize + Xpos); posX++)
 1255              		.loc 1 693 3 is_stmt 1 view .LVU360
 1256              		.loc 1 693 13 is_stmt 0 view .LVU361
 1257 0016 2C46     		mov	r4, r5
 1258              	.LVL103:
 686:Drivers/BSP/Components/st7789h2/st7789h2.c ****   uint32_t posX;
 1259              		.loc 1 686 12 view .LVU362
 1260 0018 4FF00009 		mov	r9, #0
 1261              		.loc 1 693 3 view .LVU363
 1262 001c 02E0     		b	.L49
 1263              	.LVL104:
 1264              	.L51:
 694:Drivers/BSP/Components/st7789h2/st7789h2.c ****   {
ARM GAS  /var/folders/n6/c271nzx11xl4r4_m7sqjlt0m0000gn/T//cchL8bna.s 			page 40


 695:Drivers/BSP/Components/st7789h2/st7789h2.c ****     if ((posX >= WindowsXstart) && (Ypos >= WindowsYstart) &&     /* Check we are in the defined wi
 696:Drivers/BSP/Components/st7789h2/st7789h2.c ****         (posX <= WindowsXend) && (Ypos <= WindowsYend))
 697:Drivers/BSP/Components/st7789h2/st7789h2.c ****     {
 698:Drivers/BSP/Components/st7789h2/st7789h2.c ****       if (posX != (Xsize + Xpos))     /* When writing last pixel when size is odd, the third part i
 699:Drivers/BSP/Components/st7789h2/st7789h2.c ****       {
 700:Drivers/BSP/Components/st7789h2/st7789h2.c ****         LCD_IO_WriteData(rgb565[i]);        
 701:Drivers/BSP/Components/st7789h2/st7789h2.c ****       }      
 702:Drivers/BSP/Components/st7789h2/st7789h2.c ****       i++;
 1265              		.loc 1 702 7 is_stmt 1 view .LVU364
 1266              		.loc 1 702 8 is_stmt 0 view .LVU365
 1267 001e 09F10109 		add	r9, r9, #1
 1268              	.LVL105:
 1269              	.L50:
 693:Drivers/BSP/Components/st7789h2/st7789h2.c ****   {
 1270              		.loc 1 693 48 is_stmt 1 discriminator 2 view .LVU366
 1271 0022 0134     		adds	r4, r4, #1
 1272              	.LVL106:
 1273              	.L49:
 693:Drivers/BSP/Components/st7789h2/st7789h2.c ****   {
 1274              		.loc 1 693 26 discriminator 1 view .LVU367
 693:Drivers/BSP/Components/st7789h2/st7789h2.c ****   {
 1275              		.loc 1 693 35 is_stmt 0 discriminator 1 view .LVU368
 1276 0024 06EB050C 		add	ip, r6, r5
 693:Drivers/BSP/Components/st7789h2/st7789h2.c ****   {
 1277              		.loc 1 693 26 discriminator 1 view .LVU369
 1278 0028 A445     		cmp	ip, r4
 1279 002a 17D9     		bls	.L54
 695:Drivers/BSP/Components/st7789h2/st7789h2.c ****         (posX <= WindowsXend) && (Ypos <= WindowsYend))
 1280              		.loc 1 695 5 is_stmt 1 view .LVU370
 695:Drivers/BSP/Components/st7789h2/st7789h2.c ****         (posX <= WindowsXend) && (Ypos <= WindowsYend))
 1281              		.loc 1 695 15 is_stmt 0 view .LVU371
 1282 002c 0C4B     		ldr	r3, .L55
 1283 002e B3F800E0 		ldrh	lr, [r3]
 695:Drivers/BSP/Components/st7789h2/st7789h2.c ****         (posX <= WindowsXend) && (Ypos <= WindowsYend))
 1284              		.loc 1 695 8 view .LVU372
 1285 0032 A645     		cmp	lr, r4
 1286 0034 F5D8     		bhi	.L50
 695:Drivers/BSP/Components/st7789h2/st7789h2.c ****         (posX <= WindowsXend) && (Ypos <= WindowsYend))
 1287              		.loc 1 695 42 discriminator 1 view .LVU373
 1288 0036 0B4B     		ldr	r3, .L55+4
 1289 0038 1B88     		ldrh	r3, [r3]
 695:Drivers/BSP/Components/st7789h2/st7789h2.c ****         (posX <= WindowsXend) && (Ypos <= WindowsYend))
 1290              		.loc 1 695 33 discriminator 1 view .LVU374
 1291 003a BB42     		cmp	r3, r7
 1292 003c F1D8     		bhi	.L50
 696:Drivers/BSP/Components/st7789h2/st7789h2.c ****     {
 1293              		.loc 1 696 15 view .LVU375
 1294 003e 0A4B     		ldr	r3, .L55+8
 1295 0040 1B88     		ldrh	r3, [r3]
 695:Drivers/BSP/Components/st7789h2/st7789h2.c ****         (posX <= WindowsXend) && (Ypos <= WindowsYend))
 1296              		.loc 1 695 60 discriminator 2 view .LVU376
 1297 0042 A342     		cmp	r3, r4
 1298 0044 EDD3     		bcc	.L50
 696:Drivers/BSP/Components/st7789h2/st7789h2.c ****     {
 1299              		.loc 1 696 40 view .LVU377
 1300 0046 094B     		ldr	r3, .L55+12
 1301 0048 1B88     		ldrh	r3, [r3]
ARM GAS  /var/folders/n6/c271nzx11xl4r4_m7sqjlt0m0000gn/T//cchL8bna.s 			page 41


 696:Drivers/BSP/Components/st7789h2/st7789h2.c ****     {
 1302              		.loc 1 696 31 view .LVU378
 1303 004a BB42     		cmp	r3, r7
 1304 004c E9D3     		bcc	.L50
 698:Drivers/BSP/Components/st7789h2/st7789h2.c ****       {
 1305              		.loc 1 698 7 is_stmt 1 view .LVU379
 698:Drivers/BSP/Components/st7789h2/st7789h2.c ****       {
 1306              		.loc 1 698 10 is_stmt 0 view .LVU380
 1307 004e 6445     		cmp	r4, ip
 1308 0050 E5D0     		beq	.L51
 700:Drivers/BSP/Components/st7789h2/st7789h2.c ****       }      
 1309              		.loc 1 700 9 is_stmt 1 view .LVU381
 1310 0052 38F81900 		ldrh	r0, [r8, r9, lsl #1]
 1311 0056 FFF7FEFF 		bl	LCD_IO_WriteData
 1312              	.LVL107:
 1313 005a E0E7     		b	.L51
 1314              	.L54:
 703:Drivers/BSP/Components/st7789h2/st7789h2.c ****     }
 704:Drivers/BSP/Components/st7789h2/st7789h2.c ****   }
 705:Drivers/BSP/Components/st7789h2/st7789h2.c **** }
 1315              		.loc 1 705 1 is_stmt 0 view .LVU382
 1316 005c BDE8F883 		pop	{r3, r4, r5, r6, r7, r8, r9, pc}
 1317              	.LVL108:
 1318              	.L56:
 1319              		.loc 1 705 1 view .LVU383
 1320              		.align	2
 1321              	.L55:
 1322 0060 00000000 		.word	WindowsXstart
 1323 0064 00000000 		.word	WindowsYstart
 1324 0068 00000000 		.word	WindowsXend
 1325 006c 00000000 		.word	WindowsYend
 1326              		.cfi_endproc
 1327              	.LFE21:
 1329              		.section	.text.ST7789H2_DrawBitmap,"ax",%progbits
 1330              		.align	1
 1331              		.global	ST7789H2_DrawBitmap
 1332              		.syntax unified
 1333              		.thumb
 1334              		.thumb_func
 1336              	ST7789H2_DrawBitmap:
 1337              	.LVL109:
 1338              	.LFB18:
 578:Drivers/BSP/Components/st7789h2/st7789h2.c ****   uint32_t index = 0, size = 0;
 1339              		.loc 1 578 1 is_stmt 1 view -0
 1340              		.cfi_startproc
 1341              		@ args = 0, pretend = 0, frame = 0
 1342              		@ frame_needed = 0, uses_anonymous_args = 0
 578:Drivers/BSP/Components/st7789h2/st7789h2.c ****   uint32_t index = 0, size = 0;
 1343              		.loc 1 578 1 is_stmt 0 view .LVU385
 1344 0000 2DE9F84F 		push	{r3, r4, r5, r6, r7, r8, r9, r10, fp, lr}
 1345              		.cfi_def_cfa_offset 40
 1346              		.cfi_offset 3, -40
 1347              		.cfi_offset 4, -36
 1348              		.cfi_offset 5, -32
 1349              		.cfi_offset 6, -28
 1350              		.cfi_offset 7, -24
 1351              		.cfi_offset 8, -20
ARM GAS  /var/folders/n6/c271nzx11xl4r4_m7sqjlt0m0000gn/T//cchL8bna.s 			page 42


 1352              		.cfi_offset 9, -16
 1353              		.cfi_offset 10, -12
 1354              		.cfi_offset 11, -8
 1355              		.cfi_offset 14, -4
 1356 0004 8046     		mov	r8, r0
 1357 0006 8A46     		mov	r10, r1
 1358 0008 9146     		mov	r9, r2
 579:Drivers/BSP/Components/st7789h2/st7789h2.c ****   uint32_t posY;
 1359              		.loc 1 579 3 is_stmt 1 view .LVU386
 1360              	.LVL110:
 580:Drivers/BSP/Components/st7789h2/st7789h2.c ****   uint32_t nb_line = 0;
 1361              		.loc 1 580 3 view .LVU387
 581:Drivers/BSP/Components/st7789h2/st7789h2.c ****   uint16_t Xsize = WindowsXend - WindowsXstart + 1;
 1362              		.loc 1 581 3 view .LVU388
 582:Drivers/BSP/Components/st7789h2/st7789h2.c ****   uint16_t Ysize = WindowsYend - WindowsYstart + 1;
 1363              		.loc 1 582 3 view .LVU389
 582:Drivers/BSP/Components/st7789h2/st7789h2.c ****   uint16_t Ysize = WindowsYend - WindowsYstart + 1;
 1364              		.loc 1 582 32 is_stmt 0 view .LVU390
 1365 000a 194B     		ldr	r3, .L61
 1366 000c 1F88     		ldrh	r7, [r3]
 1367 000e 194B     		ldr	r3, .L61+4
 1368 0010 1B88     		ldrh	r3, [r3]
 1369 0012 FF1A     		subs	r7, r7, r3
 1370 0014 BFB2     		uxth	r7, r7
 582:Drivers/BSP/Components/st7789h2/st7789h2.c ****   uint16_t Ysize = WindowsYend - WindowsYstart + 1;
 1371              		.loc 1 582 12 view .LVU391
 1372 0016 0137     		adds	r7, r7, #1
 1373 0018 BFB2     		uxth	r7, r7
 1374              	.LVL111:
 583:Drivers/BSP/Components/st7789h2/st7789h2.c **** 
 1375              		.loc 1 583 3 is_stmt 1 view .LVU392
 583:Drivers/BSP/Components/st7789h2/st7789h2.c **** 
 1376              		.loc 1 583 32 is_stmt 0 view .LVU393
 1377 001a 174B     		ldr	r3, .L61+8
 1378 001c 1C88     		ldrh	r4, [r3]
 1379 001e 174B     		ldr	r3, .L61+12
 1380 0020 1B88     		ldrh	r3, [r3]
 1381 0022 E41A     		subs	r4, r4, r3
 1382 0024 A4B2     		uxth	r4, r4
 583:Drivers/BSP/Components/st7789h2/st7789h2.c **** 
 1383              		.loc 1 583 12 view .LVU394
 1384 0026 0134     		adds	r4, r4, #1
 1385              	.LVL112:
 586:Drivers/BSP/Components/st7789h2/st7789h2.c ****   size |= (*(volatile uint16_t *) (pbmp + 4)) << 16;
 1386              		.loc 1 586 3 is_stmt 1 view .LVU395
 586:Drivers/BSP/Components/st7789h2/st7789h2.c ****   size |= (*(volatile uint16_t *) (pbmp + 4)) << 16;
 1387              		.loc 1 586 10 is_stmt 0 view .LVU396
 1388 0028 5388     		ldrh	r3, [r2, #2]
 1389              	.LVL113:
 587:Drivers/BSP/Components/st7789h2/st7789h2.c ****   /* Get bitmap data address offset */
 1390              		.loc 1 587 3 is_stmt 1 view .LVU397
 587:Drivers/BSP/Components/st7789h2/st7789h2.c ****   /* Get bitmap data address offset */
 1391              		.loc 1 587 12 is_stmt 0 view .LVU398
 1392 002a 9388     		ldrh	r3, [r2, #4]
 589:Drivers/BSP/Components/st7789h2/st7789h2.c ****   index |= (*(volatile uint16_t *) (pbmp + 12)) << 16;
 1393              		.loc 1 589 3 is_stmt 1 view .LVU399
 589:Drivers/BSP/Components/st7789h2/st7789h2.c ****   index |= (*(volatile uint16_t *) (pbmp + 12)) << 16;
ARM GAS  /var/folders/n6/c271nzx11xl4r4_m7sqjlt0m0000gn/T//cchL8bna.s 			page 43


 1394              		.loc 1 589 11 is_stmt 0 view .LVU400
 1395 002c B2F80AB0 		ldrh	fp, [r2, #10]
 1396 0030 1FFA8BFB 		uxth	fp, fp
 1397              	.LVL114:
 590:Drivers/BSP/Components/st7789h2/st7789h2.c ****   size = (size - index)/2;
 1398              		.loc 1 590 3 is_stmt 1 view .LVU401
 590:Drivers/BSP/Components/st7789h2/st7789h2.c ****   size = (size - index)/2;
 1399              		.loc 1 590 13 is_stmt 0 view .LVU402
 1400 0034 9389     		ldrh	r3, [r2, #12]
 590:Drivers/BSP/Components/st7789h2/st7789h2.c ****   size = (size - index)/2;
 1401              		.loc 1 590 9 view .LVU403
 1402 0036 4BEA034B 		orr	fp, fp, r3, lsl #16
 1403              	.LVL115:
 591:Drivers/BSP/Components/st7789h2/st7789h2.c ****   pbmp += index;
 1404              		.loc 1 591 3 is_stmt 1 view .LVU404
 592:Drivers/BSP/Components/st7789h2/st7789h2.c **** 
 1405              		.loc 1 592 3 view .LVU405
 594:Drivers/BSP/Components/st7789h2/st7789h2.c ****   {
 1406              		.loc 1 594 3 view .LVU406
 594:Drivers/BSP/Components/st7789h2/st7789h2.c ****   {
 1407              		.loc 1 594 21 is_stmt 0 view .LVU407
 1408 003a 11FA84F4 		uxtah	r4, r1, r4
 1409              	.LVL116:
 581:Drivers/BSP/Components/st7789h2/st7789h2.c ****   uint16_t Xsize = WindowsXend - WindowsXstart + 1;
 1410              		.loc 1 581 12 view .LVU408
 1411 003e 0026     		movs	r6, #0
 594:Drivers/BSP/Components/st7789h2/st7789h2.c ****   {
 1412              		.loc 1 594 3 view .LVU409
 1413 0040 11E0     		b	.L58
 1414              	.LVL117:
 1415              	.L59:
 597:Drivers/BSP/Components/st7789h2/st7789h2.c **** 
 1416              		.loc 1 597 5 is_stmt 1 view .LVU410
 1417 0042 651E     		subs	r5, r4, #1
 1418 0044 ADB2     		uxth	r5, r5
 1419 0046 2946     		mov	r1, r5
 1420 0048 4046     		mov	r0, r8
 1421 004a FFF7FEFF 		bl	ST7789H2_SetCursor
 1422              	.LVL118:
 600:Drivers/BSP/Components/st7789h2/st7789h2.c ****     nb_line++;
 1423              		.loc 1 600 5 view .LVU411
 600:Drivers/BSP/Components/st7789h2/st7789h2.c ****     nb_line++;
 1424              		.loc 1 600 67 is_stmt 0 view .LVU412
 1425 004e 06FB07F3 		mul	r3, r6, r7
 600:Drivers/BSP/Components/st7789h2/st7789h2.c ****     nb_line++;
 1426              		.loc 1 600 5 view .LVU413
 1427 0052 0BEB4303 		add	r3, fp, r3, lsl #1
 1428 0056 4B44     		add	r3, r3, r9
 1429 0058 3A46     		mov	r2, r7
 1430 005a 2946     		mov	r1, r5
 1431 005c 4046     		mov	r0, r8
 1432 005e FFF7FEFF 		bl	ST7789H2_DrawRGBHLine
 1433              	.LVL119:
 601:Drivers/BSP/Components/st7789h2/st7789h2.c ****   }
 1434              		.loc 1 601 5 is_stmt 1 view .LVU414
 601:Drivers/BSP/Components/st7789h2/st7789h2.c ****   }
 1435              		.loc 1 601 12 is_stmt 0 view .LVU415
ARM GAS  /var/folders/n6/c271nzx11xl4r4_m7sqjlt0m0000gn/T//cchL8bna.s 			page 44


 1436 0062 0136     		adds	r6, r6, #1
 1437              	.LVL120:
 594:Drivers/BSP/Components/st7789h2/st7789h2.c ****   {
 1438              		.loc 1 594 48 is_stmt 1 discriminator 3 view .LVU416
 1439 0064 013C     		subs	r4, r4, #1
 1440              	.LVL121:
 1441              	.L58:
 594:Drivers/BSP/Components/st7789h2/st7789h2.c ****   {
 1442              		.loc 1 594 36 discriminator 1 view .LVU417
 1443 0066 A245     		cmp	r10, r4
 1444 0068 EBD3     		bcc	.L59
 603:Drivers/BSP/Components/st7789h2/st7789h2.c **** 
 1445              		.loc 1 603 1 is_stmt 0 view .LVU418
 1446 006a BDE8F88F 		pop	{r3, r4, r5, r6, r7, r8, r9, r10, fp, pc}
 1447              	.LVL122:
 1448              	.L62:
 603:Drivers/BSP/Components/st7789h2/st7789h2.c **** 
 1449              		.loc 1 603 1 view .LVU419
 1450 006e 00BF     		.align	2
 1451              	.L61:
 1452 0070 00000000 		.word	WindowsXend
 1453 0074 00000000 		.word	WindowsXstart
 1454 0078 00000000 		.word	WindowsYend
 1455 007c 00000000 		.word	WindowsYstart
 1456              		.cfi_endproc
 1457              	.LFE18:
 1459              		.section	.text.ST7789H2_DrawRGBImage,"ax",%progbits
 1460              		.align	1
 1461              		.global	ST7789H2_DrawRGBImage
 1462              		.syntax unified
 1463              		.thumb
 1464              		.thumb_func
 1466              	ST7789H2_DrawRGBImage:
 1467              	.LVL123:
 1468              	.LFB19:
 615:Drivers/BSP/Components/st7789h2/st7789h2.c ****   uint32_t posY;
 1469              		.loc 1 615 1 is_stmt 1 view -0
 1470              		.cfi_startproc
 1471              		@ args = 4, pretend = 0, frame = 0
 1472              		@ frame_needed = 0, uses_anonymous_args = 0
 615:Drivers/BSP/Components/st7789h2/st7789h2.c ****   uint32_t posY;
 1473              		.loc 1 615 1 is_stmt 0 view .LVU421
 1474 0000 2DE9F84F 		push	{r3, r4, r5, r6, r7, r8, r9, r10, fp, lr}
 1475              		.cfi_def_cfa_offset 40
 1476              		.cfi_offset 3, -40
 1477              		.cfi_offset 4, -36
 1478              		.cfi_offset 5, -32
 1479              		.cfi_offset 6, -28
 1480              		.cfi_offset 7, -24
 1481              		.cfi_offset 8, -20
 1482              		.cfi_offset 9, -16
 1483              		.cfi_offset 10, -12
 1484              		.cfi_offset 11, -8
 1485              		.cfi_offset 14, -4
 1486 0004 8046     		mov	r8, r0
 1487 0006 8946     		mov	r9, r1
 1488 0008 1746     		mov	r7, r2
ARM GAS  /var/folders/n6/c271nzx11xl4r4_m7sqjlt0m0000gn/T//cchL8bna.s 			page 45


 1489 000a 9A46     		mov	r10, r3
 1490 000c DDF828B0 		ldr	fp, [sp, #40]
 616:Drivers/BSP/Components/st7789h2/st7789h2.c ****   uint32_t nb_line = 0;
 1491              		.loc 1 616 3 is_stmt 1 view .LVU422
 617:Drivers/BSP/Components/st7789h2/st7789h2.c **** 
 1492              		.loc 1 617 3 view .LVU423
 1493              	.LVL124:
 619:Drivers/BSP/Components/st7789h2/st7789h2.c ****   {
 1494              		.loc 1 619 3 view .LVU424
 619:Drivers/BSP/Components/st7789h2/st7789h2.c ****   {
 1495              		.loc 1 619 13 is_stmt 0 view .LVU425
 1496 0010 0C46     		mov	r4, r1
 1497              	.LVL125:
 617:Drivers/BSP/Components/st7789h2/st7789h2.c **** 
 1498              		.loc 1 617 12 view .LVU426
 1499 0012 0025     		movs	r5, #0
 619:Drivers/BSP/Components/st7789h2/st7789h2.c ****   {
 1500              		.loc 1 619 3 view .LVU427
 1501 0014 0FE0     		b	.L64
 1502              	.LVL126:
 1503              	.L65:
 622:Drivers/BSP/Components/st7789h2/st7789h2.c **** 
 1504              		.loc 1 622 5 is_stmt 1 view .LVU428
 1505 0016 A6B2     		uxth	r6, r4
 1506 0018 3146     		mov	r1, r6
 1507 001a 4046     		mov	r0, r8
 1508 001c FFF7FEFF 		bl	ST7789H2_SetCursor
 1509              	.LVL127:
 625:Drivers/BSP/Components/st7789h2/st7789h2.c ****     nb_line++;
 1510              		.loc 1 625 5 view .LVU429
 625:Drivers/BSP/Components/st7789h2/st7789h2.c ****     nb_line++;
 1511              		.loc 1 625 64 is_stmt 0 view .LVU430
 1512 0020 05FB07F3 		mul	r3, r5, r7
 625:Drivers/BSP/Components/st7789h2/st7789h2.c ****     nb_line++;
 1513              		.loc 1 625 5 view .LVU431
 1514 0024 0BEB4303 		add	r3, fp, r3, lsl #1
 1515 0028 3A46     		mov	r2, r7
 1516 002a 3146     		mov	r1, r6
 1517 002c 4046     		mov	r0, r8
 1518 002e FFF7FEFF 		bl	ST7789H2_DrawRGBHLine
 1519              	.LVL128:
 626:Drivers/BSP/Components/st7789h2/st7789h2.c ****   }
 1520              		.loc 1 626 5 is_stmt 1 view .LVU432
 626:Drivers/BSP/Components/st7789h2/st7789h2.c ****   }
 1521              		.loc 1 626 12 is_stmt 0 view .LVU433
 1522 0032 0135     		adds	r5, r5, #1
 1523              	.LVL129:
 619:Drivers/BSP/Components/st7789h2/st7789h2.c ****   {
 1524              		.loc 1 619 49 is_stmt 1 discriminator 3 view .LVU434
 1525 0034 0134     		adds	r4, r4, #1
 1526              	.LVL130:
 1527              	.L64:
 619:Drivers/BSP/Components/st7789h2/st7789h2.c ****   {
 1528              		.loc 1 619 26 discriminator 1 view .LVU435
 619:Drivers/BSP/Components/st7789h2/st7789h2.c ****   {
 1529              		.loc 1 619 34 is_stmt 0 discriminator 1 view .LVU436
 1530 0036 09EB0A03 		add	r3, r9, r10
ARM GAS  /var/folders/n6/c271nzx11xl4r4_m7sqjlt0m0000gn/T//cchL8bna.s 			page 46


 619:Drivers/BSP/Components/st7789h2/st7789h2.c ****   {
 1531              		.loc 1 619 26 discriminator 1 view .LVU437
 1532 003a A342     		cmp	r3, r4
 1533 003c EBD8     		bhi	.L65
 628:Drivers/BSP/Components/st7789h2/st7789h2.c **** 
 1534              		.loc 1 628 1 view .LVU438
 1535 003e BDE8F88F 		pop	{r3, r4, r5, r6, r7, r8, r9, r10, fp, pc}
 628:Drivers/BSP/Components/st7789h2/st7789h2.c **** 
 1536              		.loc 1 628 1 view .LVU439
 1537              		.cfi_endproc
 1538              	.LFE19:
 1540              		.section	.text.ST7789H2_ReadReg,"ax",%progbits
 1541              		.align	1
 1542              		.global	ST7789H2_ReadReg
 1543              		.syntax unified
 1544              		.thumb
 1545              		.thumb_func
 1547              	ST7789H2_ReadReg:
 1548              	.LVL131:
 1549              	.LFB14:
 462:Drivers/BSP/Components/st7789h2/st7789h2.c ****   /* Send command */
 1550              		.loc 1 462 1 is_stmt 1 view -0
 1551              		.cfi_startproc
 1552              		@ args = 0, pretend = 0, frame = 0
 1553              		@ frame_needed = 0, uses_anonymous_args = 0
 462:Drivers/BSP/Components/st7789h2/st7789h2.c ****   /* Send command */
 1554              		.loc 1 462 1 is_stmt 0 view .LVU441
 1555 0000 08B5     		push	{r3, lr}
 1556              		.cfi_def_cfa_offset 8
 1557              		.cfi_offset 3, -8
 1558              		.cfi_offset 14, -4
 464:Drivers/BSP/Components/st7789h2/st7789h2.c **** 
 1559              		.loc 1 464 3 is_stmt 1 view .LVU442
 1560 0002 FFF7FEFF 		bl	LCD_IO_WriteReg
 1561              	.LVL132:
 467:Drivers/BSP/Components/st7789h2/st7789h2.c ****   
 1562              		.loc 1 467 3 view .LVU443
 1563 0006 FFF7FEFF 		bl	LCD_IO_ReadData
 1564              	.LVL133:
 470:Drivers/BSP/Components/st7789h2/st7789h2.c **** }
 1565              		.loc 1 470 3 view .LVU444
 470:Drivers/BSP/Components/st7789h2/st7789h2.c **** }
 1566              		.loc 1 470 11 is_stmt 0 view .LVU445
 1567 000a FFF7FEFF 		bl	LCD_IO_ReadData
 1568              	.LVL134:
 471:Drivers/BSP/Components/st7789h2/st7789h2.c **** 
 1569              		.loc 1 471 1 view .LVU446
 1570 000e C0B2     		uxtb	r0, r0
 1571 0010 08BD     		pop	{r3, pc}
 1572              		.cfi_endproc
 1573              	.LFE14:
 1575              		.section	.text.ST7789H2_ReadID,"ax",%progbits
 1576              		.align	1
 1577              		.global	ST7789H2_ReadID
 1578              		.syntax unified
 1579              		.thumb
 1580              		.thumb_func
ARM GAS  /var/folders/n6/c271nzx11xl4r4_m7sqjlt0m0000gn/T//cchL8bna.s 			page 47


 1582              	ST7789H2_ReadID:
 1583              	.LFB9:
 359:Drivers/BSP/Components/st7789h2/st7789h2.c ****   LCD_IO_Init();
 1584              		.loc 1 359 1 is_stmt 1 view -0
 1585              		.cfi_startproc
 1586              		@ args = 0, pretend = 0, frame = 0
 1587              		@ frame_needed = 0, uses_anonymous_args = 0
 1588 0000 08B5     		push	{r3, lr}
 1589              		.cfi_def_cfa_offset 8
 1590              		.cfi_offset 3, -8
 1591              		.cfi_offset 14, -4
 360:Drivers/BSP/Components/st7789h2/st7789h2.c ****   
 1592              		.loc 1 360 3 view .LVU448
 1593 0002 FFF7FEFF 		bl	LCD_IO_Init
 1594              	.LVL135:
 362:Drivers/BSP/Components/st7789h2/st7789h2.c **** }
 1595              		.loc 1 362 3 view .LVU449
 362:Drivers/BSP/Components/st7789h2/st7789h2.c **** }
 1596              		.loc 1 362 10 is_stmt 0 view .LVU450
 1597 0006 0420     		movs	r0, #4
 1598 0008 FFF7FEFF 		bl	ST7789H2_ReadReg
 1599              	.LVL136:
 363:Drivers/BSP/Components/st7789h2/st7789h2.c **** 
 1600              		.loc 1 363 1 view .LVU451
 1601 000c 08BD     		pop	{r3, pc}
 1602              		.cfi_endproc
 1603              	.LFE9:
 1605              		.section	.data.WindowsYend,"aw"
 1606              		.align	1
 1609              	WindowsYend:
 1610 0000 EF00     		.short	239
 1611              		.section	.data.WindowsXend,"aw"
 1612              		.align	1
 1615              	WindowsXend:
 1616 0000 EF00     		.short	239
 1617              		.section	.bss.WindowsYstart,"aw",%nobits
 1618              		.align	1
 1621              	WindowsYstart:
 1622 0000 0000     		.space	2
 1623              		.section	.bss.WindowsXstart,"aw",%nobits
 1624              		.align	1
 1627              	WindowsXstart:
 1628 0000 0000     		.space	2
 1629              		.global	ST7789H2_drv
 1630              		.section	.data.ST7789H2_drv,"aw"
 1631              		.align	2
 1634              	ST7789H2_drv:
 1635 0000 00000000 		.word	ST7789H2_Init
 1636 0004 00000000 		.word	ST7789H2_ReadID
 1637 0008 00000000 		.word	ST7789H2_DisplayOn
 1638 000c 00000000 		.word	ST7789H2_DisplayOff
 1639 0010 00000000 		.word	ST7789H2_SetCursor
 1640 0014 00000000 		.word	ST7789H2_WritePixel
 1641 0018 00000000 		.word	ST7789H2_ReadPixel
 1642 001c 00000000 		.word	ST7789H2_SetDisplayWindow
 1643 0020 00000000 		.word	ST7789H2_DrawHLine
 1644 0024 00000000 		.word	ST7789H2_DrawVLine
ARM GAS  /var/folders/n6/c271nzx11xl4r4_m7sqjlt0m0000gn/T//cchL8bna.s 			page 48


 1645 0028 00000000 		.word	ST7789H2_GetLcdPixelWidth
 1646 002c 00000000 		.word	ST7789H2_GetLcdPixelHeight
 1647 0030 00000000 		.word	ST7789H2_DrawBitmap
 1648 0034 00000000 		.word	ST7789H2_DrawRGBImage
 1649              		.text
 1650              	.Letext0:
 1651              		.file 2 "/Users/killian/Library/Application Support/Code/User/globalStorage/bmd.stm32-for-vscode/@
 1652              		.file 3 "/Users/killian/Library/Application Support/Code/User/globalStorage/bmd.stm32-for-vscode/@
 1653              		.file 4 "Drivers/BSP/Components/st7789h2/../Common/lcd.h"
 1654              		.file 5 "Drivers/BSP/Components/st7789h2/st7789h2.h"
ARM GAS  /var/folders/n6/c271nzx11xl4r4_m7sqjlt0m0000gn/T//cchL8bna.s 			page 49

