ARM GAS  /var/folders/n6/c271nzx11xl4r4_m7sqjlt0m0000gn/T//ccz18NEb.s 			page 1


   1              		.cpu cortex-m7
   2              		.arch armv7e-m
   3              		.fpu fpv5-d16
   4              		.eabi_attribute 28, 1
   5              		.eabi_attribute 20, 1
   6              		.eabi_attribute 21, 1
   7              		.eabi_attribute 23, 3
   8              		.eabi_attribute 24, 1
   9              		.eabi_attribute 25, 1
  10              		.eabi_attribute 26, 1
  11              		.eabi_attribute 30, 1
  12              		.eabi_attribute 34, 1
  13              		.eabi_attribute 18, 4
  14              		.file	"stm32f7xx_hal_timebase_tim.c"
  15              		.text
  16              	.Ltext0:
  17              		.cfi_sections	.debug_frame
  18              		.file 1 "Core/Src/stm32f7xx_hal_timebase_tim.c"
  19              		.section	.text.HAL_InitTick,"ax",%progbits
  20              		.align	1
  21              		.global	HAL_InitTick
  22              		.syntax unified
  23              		.thumb
  24              		.thumb_func
  26              	HAL_InitTick:
  27              	.LVL0:
  28              	.LFB141:
   1:Core/Src/stm32f7xx_hal_timebase_tim.c **** /* USER CODE BEGIN Header */
   2:Core/Src/stm32f7xx_hal_timebase_tim.c **** /**
   3:Core/Src/stm32f7xx_hal_timebase_tim.c ****   ******************************************************************************
   4:Core/Src/stm32f7xx_hal_timebase_tim.c ****   * @file    stm32f7xx_hal_timebase_tim.c
   5:Core/Src/stm32f7xx_hal_timebase_tim.c ****   * @brief   HAL time base based on the hardware TIM.
   6:Core/Src/stm32f7xx_hal_timebase_tim.c ****   ******************************************************************************
   7:Core/Src/stm32f7xx_hal_timebase_tim.c ****   * @attention
   8:Core/Src/stm32f7xx_hal_timebase_tim.c ****   *
   9:Core/Src/stm32f7xx_hal_timebase_tim.c ****   * Copyright (c) 2024 STMicroelectronics.
  10:Core/Src/stm32f7xx_hal_timebase_tim.c ****   * All rights reserved.
  11:Core/Src/stm32f7xx_hal_timebase_tim.c ****   *
  12:Core/Src/stm32f7xx_hal_timebase_tim.c ****   * This software is licensed under terms that can be found in the LICENSE file
  13:Core/Src/stm32f7xx_hal_timebase_tim.c ****   * in the root directory of this software component.
  14:Core/Src/stm32f7xx_hal_timebase_tim.c ****   * If no LICENSE file comes with this software, it is provided AS-IS.
  15:Core/Src/stm32f7xx_hal_timebase_tim.c ****   *
  16:Core/Src/stm32f7xx_hal_timebase_tim.c ****   ******************************************************************************
  17:Core/Src/stm32f7xx_hal_timebase_tim.c ****   */
  18:Core/Src/stm32f7xx_hal_timebase_tim.c **** /* USER CODE END Header */
  19:Core/Src/stm32f7xx_hal_timebase_tim.c **** 
  20:Core/Src/stm32f7xx_hal_timebase_tim.c **** /* Includes ------------------------------------------------------------------*/
  21:Core/Src/stm32f7xx_hal_timebase_tim.c **** #include "stm32f7xx_hal.h"
  22:Core/Src/stm32f7xx_hal_timebase_tim.c **** #include "stm32f7xx_hal_tim.h"
  23:Core/Src/stm32f7xx_hal_timebase_tim.c **** 
  24:Core/Src/stm32f7xx_hal_timebase_tim.c **** /* Private typedef -----------------------------------------------------------*/
  25:Core/Src/stm32f7xx_hal_timebase_tim.c **** /* Private define ------------------------------------------------------------*/
  26:Core/Src/stm32f7xx_hal_timebase_tim.c **** /* Private macro -------------------------------------------------------------*/
  27:Core/Src/stm32f7xx_hal_timebase_tim.c **** /* Private variables ---------------------------------------------------------*/
  28:Core/Src/stm32f7xx_hal_timebase_tim.c **** TIM_HandleTypeDef        htim6;
  29:Core/Src/stm32f7xx_hal_timebase_tim.c **** /* Private function prototypes -----------------------------------------------*/
  30:Core/Src/stm32f7xx_hal_timebase_tim.c **** /* Private functions ---------------------------------------------------------*/
ARM GAS  /var/folders/n6/c271nzx11xl4r4_m7sqjlt0m0000gn/T//ccz18NEb.s 			page 2


  31:Core/Src/stm32f7xx_hal_timebase_tim.c **** 
  32:Core/Src/stm32f7xx_hal_timebase_tim.c **** /**
  33:Core/Src/stm32f7xx_hal_timebase_tim.c ****   * @brief  This function configures the TIM6 as a time base source.
  34:Core/Src/stm32f7xx_hal_timebase_tim.c ****   *         The time source is configured  to have 1ms time base with a dedicated
  35:Core/Src/stm32f7xx_hal_timebase_tim.c ****   *         Tick interrupt priority.
  36:Core/Src/stm32f7xx_hal_timebase_tim.c ****   * @note   This function is called  automatically at the beginning of program after
  37:Core/Src/stm32f7xx_hal_timebase_tim.c ****   *         reset by HAL_Init() or at any time when clock is configured, by HAL_RCC_ClockConfig().
  38:Core/Src/stm32f7xx_hal_timebase_tim.c ****   * @param  TickPriority: Tick interrupt priority.
  39:Core/Src/stm32f7xx_hal_timebase_tim.c ****   * @retval HAL status
  40:Core/Src/stm32f7xx_hal_timebase_tim.c ****   */
  41:Core/Src/stm32f7xx_hal_timebase_tim.c **** HAL_StatusTypeDef HAL_InitTick(uint32_t TickPriority)
  42:Core/Src/stm32f7xx_hal_timebase_tim.c **** {
  29              		.loc 1 42 1 view -0
  30              		.cfi_startproc
  31              		@ args = 0, pretend = 0, frame = 32
  32              		@ frame_needed = 0, uses_anonymous_args = 0
  33              		.loc 1 42 1 is_stmt 0 view .LVU1
  34 0000 30B5     		push	{r4, r5, lr}
  35              		.cfi_def_cfa_offset 12
  36              		.cfi_offset 4, -12
  37              		.cfi_offset 5, -8
  38              		.cfi_offset 14, -4
  39 0002 89B0     		sub	sp, sp, #36
  40              		.cfi_def_cfa_offset 48
  41 0004 0446     		mov	r4, r0
  43:Core/Src/stm32f7xx_hal_timebase_tim.c ****   RCC_ClkInitTypeDef    clkconfig;
  42              		.loc 1 43 3 is_stmt 1 view .LVU2
  44:Core/Src/stm32f7xx_hal_timebase_tim.c ****   uint32_t              uwTimclock, uwAPB1Prescaler = 0U;
  43              		.loc 1 44 3 view .LVU3
  44              	.LVL1:
  45:Core/Src/stm32f7xx_hal_timebase_tim.c **** 
  46:Core/Src/stm32f7xx_hal_timebase_tim.c ****   uint32_t              uwPrescalerValue = 0U;
  45              		.loc 1 46 3 view .LVU4
  47:Core/Src/stm32f7xx_hal_timebase_tim.c ****   uint32_t              pFLatency;
  46              		.loc 1 47 3 view .LVU5
  48:Core/Src/stm32f7xx_hal_timebase_tim.c ****   HAL_StatusTypeDef     status;
  47              		.loc 1 48 3 view .LVU6
  49:Core/Src/stm32f7xx_hal_timebase_tim.c **** 
  50:Core/Src/stm32f7xx_hal_timebase_tim.c ****   /* Enable TIM6 clock */
  51:Core/Src/stm32f7xx_hal_timebase_tim.c ****   __HAL_RCC_TIM6_CLK_ENABLE();
  48              		.loc 1 51 3 view .LVU7
  49              	.LBB2:
  50              		.loc 1 51 3 view .LVU8
  51              		.loc 1 51 3 view .LVU9
  52 0006 214B     		ldr	r3, .L9
  53 0008 1A6C     		ldr	r2, [r3, #64]
  54 000a 42F01002 		orr	r2, r2, #16
  55 000e 1A64     		str	r2, [r3, #64]
  56              		.loc 1 51 3 view .LVU10
  57 0010 1B6C     		ldr	r3, [r3, #64]
  58 0012 03F01003 		and	r3, r3, #16
  59 0016 0193     		str	r3, [sp, #4]
  60              		.loc 1 51 3 view .LVU11
  61 0018 019B     		ldr	r3, [sp, #4]
  62              	.LBE2:
  63              		.loc 1 51 3 view .LVU12
  52:Core/Src/stm32f7xx_hal_timebase_tim.c ****   /* Get clock configuration */
ARM GAS  /var/folders/n6/c271nzx11xl4r4_m7sqjlt0m0000gn/T//ccz18NEb.s 			page 3


  53:Core/Src/stm32f7xx_hal_timebase_tim.c ****   HAL_RCC_GetClockConfig(&clkconfig, &pFLatency);
  64              		.loc 1 53 3 view .LVU13
  65 001a 02A9     		add	r1, sp, #8
  66 001c 03A8     		add	r0, sp, #12
  67              	.LVL2:
  68              		.loc 1 53 3 is_stmt 0 view .LVU14
  69 001e FFF7FEFF 		bl	HAL_RCC_GetClockConfig
  70              	.LVL3:
  54:Core/Src/stm32f7xx_hal_timebase_tim.c ****   /* Get APB1 prescaler */
  55:Core/Src/stm32f7xx_hal_timebase_tim.c ****   uwAPB1Prescaler = clkconfig.APB1CLKDivider;
  71              		.loc 1 55 3 is_stmt 1 view .LVU15
  72              		.loc 1 55 19 is_stmt 0 view .LVU16
  73 0022 069B     		ldr	r3, [sp, #24]
  74              	.LVL4:
  56:Core/Src/stm32f7xx_hal_timebase_tim.c ****   /* Compute TIM6 clock */
  57:Core/Src/stm32f7xx_hal_timebase_tim.c ****   if (uwAPB1Prescaler == RCC_HCLK_DIV1)
  75              		.loc 1 57 3 is_stmt 1 view .LVU17
  76              		.loc 1 57 6 is_stmt 0 view .LVU18
  77 0024 CBB9     		cbnz	r3, .L2
  58:Core/Src/stm32f7xx_hal_timebase_tim.c ****   {
  59:Core/Src/stm32f7xx_hal_timebase_tim.c ****     uwTimclock = HAL_RCC_GetPCLK1Freq();
  78              		.loc 1 59 5 is_stmt 1 view .LVU19
  79              		.loc 1 59 18 is_stmt 0 view .LVU20
  80 0026 FFF7FEFF 		bl	HAL_RCC_GetPCLK1Freq
  81              	.LVL5:
  82              		.loc 1 59 18 view .LVU21
  83 002a 0346     		mov	r3, r0
  84              	.LVL6:
  85              	.L3:
  60:Core/Src/stm32f7xx_hal_timebase_tim.c ****   }
  61:Core/Src/stm32f7xx_hal_timebase_tim.c ****   else
  62:Core/Src/stm32f7xx_hal_timebase_tim.c ****   {
  63:Core/Src/stm32f7xx_hal_timebase_tim.c ****     uwTimclock = 2UL * HAL_RCC_GetPCLK1Freq();
  64:Core/Src/stm32f7xx_hal_timebase_tim.c ****   }
  65:Core/Src/stm32f7xx_hal_timebase_tim.c **** 
  66:Core/Src/stm32f7xx_hal_timebase_tim.c ****   /* Compute the prescaler value to have TIM6 counter clock equal to 1MHz */
  67:Core/Src/stm32f7xx_hal_timebase_tim.c ****   uwPrescalerValue = (uint32_t) ((uwTimclock / 1000000U) - 1U);
  86              		.loc 1 67 3 is_stmt 1 view .LVU22
  87              		.loc 1 67 46 is_stmt 0 view .LVU23
  88 002c 184A     		ldr	r2, .L9+4
  89 002e A2FB0323 		umull	r2, r3, r2, r3
  90              	.LVL7:
  91              		.loc 1 67 46 view .LVU24
  92 0032 9B0C     		lsrs	r3, r3, #18
  93              		.loc 1 67 20 view .LVU25
  94 0034 013B     		subs	r3, r3, #1
  95              	.LVL8:
  68:Core/Src/stm32f7xx_hal_timebase_tim.c **** 
  69:Core/Src/stm32f7xx_hal_timebase_tim.c ****   /* Initialize TIM6 */
  70:Core/Src/stm32f7xx_hal_timebase_tim.c ****   htim6.Instance = TIM6;
  96              		.loc 1 70 3 is_stmt 1 view .LVU26
  97              		.loc 1 70 18 is_stmt 0 view .LVU27
  98 0036 1748     		ldr	r0, .L9+8
  99 0038 174A     		ldr	r2, .L9+12
 100 003a 0260     		str	r2, [r0]
  71:Core/Src/stm32f7xx_hal_timebase_tim.c **** 
  72:Core/Src/stm32f7xx_hal_timebase_tim.c ****   /* Initialize TIMx peripheral as follow:
ARM GAS  /var/folders/n6/c271nzx11xl4r4_m7sqjlt0m0000gn/T//ccz18NEb.s 			page 4


  73:Core/Src/stm32f7xx_hal_timebase_tim.c **** 
  74:Core/Src/stm32f7xx_hal_timebase_tim.c ****   + Period = [(TIM6CLK/1000) - 1]. to have a (1/1000) s time base.
  75:Core/Src/stm32f7xx_hal_timebase_tim.c ****   + Prescaler = (uwTimclock/1000000 - 1) to have a 1MHz counter clock.
  76:Core/Src/stm32f7xx_hal_timebase_tim.c ****   + ClockDivision = 0
  77:Core/Src/stm32f7xx_hal_timebase_tim.c ****   + Counter direction = Up
  78:Core/Src/stm32f7xx_hal_timebase_tim.c ****   */
  79:Core/Src/stm32f7xx_hal_timebase_tim.c ****   htim6.Init.Period = (1000000U / 1000U) - 1U;
 101              		.loc 1 79 3 is_stmt 1 view .LVU28
 102              		.loc 1 79 21 is_stmt 0 view .LVU29
 103 003c 40F2E732 		movw	r2, #999
 104 0040 C260     		str	r2, [r0, #12]
  80:Core/Src/stm32f7xx_hal_timebase_tim.c ****   htim6.Init.Prescaler = uwPrescalerValue;
 105              		.loc 1 80 3 is_stmt 1 view .LVU30
 106              		.loc 1 80 24 is_stmt 0 view .LVU31
 107 0042 4360     		str	r3, [r0, #4]
  81:Core/Src/stm32f7xx_hal_timebase_tim.c ****   htim6.Init.ClockDivision = 0;
 108              		.loc 1 81 3 is_stmt 1 view .LVU32
 109              		.loc 1 81 28 is_stmt 0 view .LVU33
 110 0044 0023     		movs	r3, #0
 111              	.LVL9:
 112              		.loc 1 81 28 view .LVU34
 113 0046 0361     		str	r3, [r0, #16]
  82:Core/Src/stm32f7xx_hal_timebase_tim.c ****   htim6.Init.CounterMode = TIM_COUNTERMODE_UP;
 114              		.loc 1 82 3 is_stmt 1 view .LVU35
 115              		.loc 1 82 26 is_stmt 0 view .LVU36
 116 0048 8360     		str	r3, [r0, #8]
  83:Core/Src/stm32f7xx_hal_timebase_tim.c ****   htim6.Init.AutoReloadPreload = TIM_AUTORELOAD_PRELOAD_DISABLE;
 117              		.loc 1 83 3 is_stmt 1 view .LVU37
 118              		.loc 1 83 32 is_stmt 0 view .LVU38
 119 004a 8361     		str	r3, [r0, #24]
  84:Core/Src/stm32f7xx_hal_timebase_tim.c **** 
  85:Core/Src/stm32f7xx_hal_timebase_tim.c ****   status = HAL_TIM_Base_Init(&htim6);
 120              		.loc 1 85 3 is_stmt 1 view .LVU39
 121              		.loc 1 85 12 is_stmt 0 view .LVU40
 122 004c FFF7FEFF 		bl	HAL_TIM_Base_Init
 123              	.LVL10:
  86:Core/Src/stm32f7xx_hal_timebase_tim.c ****   if (status == HAL_OK)
 124              		.loc 1 86 3 is_stmt 1 view .LVU41
 125              		.loc 1 86 6 is_stmt 0 view .LVU42
 126 0050 0546     		mov	r5, r0
 127 0052 30B1     		cbz	r0, .L7
 128              	.LVL11:
 129              	.L4:
  87:Core/Src/stm32f7xx_hal_timebase_tim.c ****   {
  88:Core/Src/stm32f7xx_hal_timebase_tim.c ****     /* Start the TIM time Base generation in interrupt mode */
  89:Core/Src/stm32f7xx_hal_timebase_tim.c ****     status = HAL_TIM_Base_Start_IT(&htim6);
  90:Core/Src/stm32f7xx_hal_timebase_tim.c ****     if (status == HAL_OK)
  91:Core/Src/stm32f7xx_hal_timebase_tim.c ****     {
  92:Core/Src/stm32f7xx_hal_timebase_tim.c ****     /* Enable the TIM6 global Interrupt */
  93:Core/Src/stm32f7xx_hal_timebase_tim.c ****         HAL_NVIC_EnableIRQ(TIM6_DAC_IRQn);
  94:Core/Src/stm32f7xx_hal_timebase_tim.c ****       /* Configure the SysTick IRQ priority */
  95:Core/Src/stm32f7xx_hal_timebase_tim.c ****       if (TickPriority < (1UL << __NVIC_PRIO_BITS))
  96:Core/Src/stm32f7xx_hal_timebase_tim.c ****       {
  97:Core/Src/stm32f7xx_hal_timebase_tim.c ****         /* Configure the TIM IRQ priority */
  98:Core/Src/stm32f7xx_hal_timebase_tim.c ****         HAL_NVIC_SetPriority(TIM6_DAC_IRQn, TickPriority, 0U);
  99:Core/Src/stm32f7xx_hal_timebase_tim.c ****         uwTickPrio = TickPriority;
 100:Core/Src/stm32f7xx_hal_timebase_tim.c ****       }
ARM GAS  /var/folders/n6/c271nzx11xl4r4_m7sqjlt0m0000gn/T//ccz18NEb.s 			page 5


 101:Core/Src/stm32f7xx_hal_timebase_tim.c ****       else
 102:Core/Src/stm32f7xx_hal_timebase_tim.c ****       {
 103:Core/Src/stm32f7xx_hal_timebase_tim.c ****         status = HAL_ERROR;
 104:Core/Src/stm32f7xx_hal_timebase_tim.c ****       }
 105:Core/Src/stm32f7xx_hal_timebase_tim.c ****     }
 106:Core/Src/stm32f7xx_hal_timebase_tim.c ****   }
 107:Core/Src/stm32f7xx_hal_timebase_tim.c **** 
 108:Core/Src/stm32f7xx_hal_timebase_tim.c ****  /* Return function status */
 109:Core/Src/stm32f7xx_hal_timebase_tim.c ****   return status;
 130              		.loc 1 109 3 is_stmt 1 view .LVU43
 110:Core/Src/stm32f7xx_hal_timebase_tim.c **** }
 131              		.loc 1 110 1 is_stmt 0 view .LVU44
 132 0054 2846     		mov	r0, r5
 133 0056 09B0     		add	sp, sp, #36
 134              		.cfi_remember_state
 135              		.cfi_def_cfa_offset 12
 136              		@ sp needed
 137 0058 30BD     		pop	{r4, r5, pc}
 138              	.LVL12:
 139              	.L2:
 140              		.cfi_restore_state
  63:Core/Src/stm32f7xx_hal_timebase_tim.c ****   }
 141              		.loc 1 63 5 is_stmt 1 view .LVU45
  63:Core/Src/stm32f7xx_hal_timebase_tim.c ****   }
 142              		.loc 1 63 24 is_stmt 0 view .LVU46
 143 005a FFF7FEFF 		bl	HAL_RCC_GetPCLK1Freq
 144              	.LVL13:
  63:Core/Src/stm32f7xx_hal_timebase_tim.c ****   }
 145              		.loc 1 63 16 discriminator 1 view .LVU47
 146 005e 4300     		lsls	r3, r0, #1
 147              	.LVL14:
  63:Core/Src/stm32f7xx_hal_timebase_tim.c ****   }
 148              		.loc 1 63 16 discriminator 1 view .LVU48
 149 0060 E4E7     		b	.L3
 150              	.LVL15:
 151              	.L7:
  89:Core/Src/stm32f7xx_hal_timebase_tim.c ****     if (status == HAL_OK)
 152              		.loc 1 89 5 is_stmt 1 view .LVU49
  89:Core/Src/stm32f7xx_hal_timebase_tim.c ****     if (status == HAL_OK)
 153              		.loc 1 89 14 is_stmt 0 view .LVU50
 154 0062 0C48     		ldr	r0, .L9+8
 155              	.LVL16:
  89:Core/Src/stm32f7xx_hal_timebase_tim.c ****     if (status == HAL_OK)
 156              		.loc 1 89 14 view .LVU51
 157 0064 FFF7FEFF 		bl	HAL_TIM_Base_Start_IT
 158              	.LVL17:
  90:Core/Src/stm32f7xx_hal_timebase_tim.c ****     {
 159              		.loc 1 90 5 is_stmt 1 view .LVU52
  90:Core/Src/stm32f7xx_hal_timebase_tim.c ****     {
 160              		.loc 1 90 8 is_stmt 0 view .LVU53
 161 0068 0546     		mov	r5, r0
 162 006a 0028     		cmp	r0, #0
 163 006c F2D1     		bne	.L4
  93:Core/Src/stm32f7xx_hal_timebase_tim.c ****       /* Configure the SysTick IRQ priority */
 164              		.loc 1 93 9 is_stmt 1 view .LVU54
 165 006e 3620     		movs	r0, #54
 166              	.LVL18:
ARM GAS  /var/folders/n6/c271nzx11xl4r4_m7sqjlt0m0000gn/T//ccz18NEb.s 			page 6


  93:Core/Src/stm32f7xx_hal_timebase_tim.c ****       /* Configure the SysTick IRQ priority */
 167              		.loc 1 93 9 is_stmt 0 view .LVU55
 168 0070 FFF7FEFF 		bl	HAL_NVIC_EnableIRQ
 169              	.LVL19:
  95:Core/Src/stm32f7xx_hal_timebase_tim.c ****       {
 170              		.loc 1 95 7 is_stmt 1 view .LVU56
  95:Core/Src/stm32f7xx_hal_timebase_tim.c ****       {
 171              		.loc 1 95 10 is_stmt 0 view .LVU57
 172 0074 0F2C     		cmp	r4, #15
 173 0076 01D9     		bls	.L8
 103:Core/Src/stm32f7xx_hal_timebase_tim.c ****       }
 174              		.loc 1 103 16 view .LVU58
 175 0078 0125     		movs	r5, #1
 176              	.LVL20:
 103:Core/Src/stm32f7xx_hal_timebase_tim.c ****       }
 177              		.loc 1 103 16 view .LVU59
 178 007a EBE7     		b	.L4
 179              	.LVL21:
 180              	.L8:
  98:Core/Src/stm32f7xx_hal_timebase_tim.c ****         uwTickPrio = TickPriority;
 181              		.loc 1 98 9 is_stmt 1 view .LVU60
 182 007c 0022     		movs	r2, #0
 183 007e 2146     		mov	r1, r4
 184 0080 3620     		movs	r0, #54
 185 0082 FFF7FEFF 		bl	HAL_NVIC_SetPriority
 186              	.LVL22:
  99:Core/Src/stm32f7xx_hal_timebase_tim.c ****       }
 187              		.loc 1 99 9 view .LVU61
  99:Core/Src/stm32f7xx_hal_timebase_tim.c ****       }
 188              		.loc 1 99 20 is_stmt 0 view .LVU62
 189 0086 054B     		ldr	r3, .L9+16
 190 0088 1C60     		str	r4, [r3]
 191 008a E3E7     		b	.L4
 192              	.L10:
 193              		.align	2
 194              	.L9:
 195 008c 00380240 		.word	1073887232
 196 0090 83DE1B43 		.word	1125899907
 197 0094 00000000 		.word	htim6
 198 0098 00100040 		.word	1073745920
 199 009c 00000000 		.word	uwTickPrio
 200              		.cfi_endproc
 201              	.LFE141:
 203              		.section	.text.HAL_SuspendTick,"ax",%progbits
 204              		.align	1
 205              		.global	HAL_SuspendTick
 206              		.syntax unified
 207              		.thumb
 208              		.thumb_func
 210              	HAL_SuspendTick:
 211              	.LFB142:
 111:Core/Src/stm32f7xx_hal_timebase_tim.c **** 
 112:Core/Src/stm32f7xx_hal_timebase_tim.c **** /**
 113:Core/Src/stm32f7xx_hal_timebase_tim.c ****   * @brief  Suspend Tick increment.
 114:Core/Src/stm32f7xx_hal_timebase_tim.c ****   * @note   Disable the tick increment by disabling TIM6 update interrupt.
 115:Core/Src/stm32f7xx_hal_timebase_tim.c ****   * @param  None
 116:Core/Src/stm32f7xx_hal_timebase_tim.c ****   * @retval None
ARM GAS  /var/folders/n6/c271nzx11xl4r4_m7sqjlt0m0000gn/T//ccz18NEb.s 			page 7


 117:Core/Src/stm32f7xx_hal_timebase_tim.c ****   */
 118:Core/Src/stm32f7xx_hal_timebase_tim.c **** void HAL_SuspendTick(void)
 119:Core/Src/stm32f7xx_hal_timebase_tim.c **** {
 212              		.loc 1 119 1 is_stmt 1 view -0
 213              		.cfi_startproc
 214              		@ args = 0, pretend = 0, frame = 0
 215              		@ frame_needed = 0, uses_anonymous_args = 0
 216              		@ link register save eliminated.
 120:Core/Src/stm32f7xx_hal_timebase_tim.c ****   /* Disable TIM6 update Interrupt */
 121:Core/Src/stm32f7xx_hal_timebase_tim.c ****   __HAL_TIM_DISABLE_IT(&htim6, TIM_IT_UPDATE);
 217              		.loc 1 121 3 view .LVU64
 218 0000 034B     		ldr	r3, .L12
 219 0002 1A68     		ldr	r2, [r3]
 220 0004 D368     		ldr	r3, [r2, #12]
 221 0006 23F00103 		bic	r3, r3, #1
 222 000a D360     		str	r3, [r2, #12]
 122:Core/Src/stm32f7xx_hal_timebase_tim.c **** }
 223              		.loc 1 122 1 is_stmt 0 view .LVU65
 224 000c 7047     		bx	lr
 225              	.L13:
 226 000e 00BF     		.align	2
 227              	.L12:
 228 0010 00000000 		.word	htim6
 229              		.cfi_endproc
 230              	.LFE142:
 232              		.section	.text.HAL_ResumeTick,"ax",%progbits
 233              		.align	1
 234              		.global	HAL_ResumeTick
 235              		.syntax unified
 236              		.thumb
 237              		.thumb_func
 239              	HAL_ResumeTick:
 240              	.LFB143:
 123:Core/Src/stm32f7xx_hal_timebase_tim.c **** 
 124:Core/Src/stm32f7xx_hal_timebase_tim.c **** /**
 125:Core/Src/stm32f7xx_hal_timebase_tim.c ****   * @brief  Resume Tick increment.
 126:Core/Src/stm32f7xx_hal_timebase_tim.c ****   * @note   Enable the tick increment by Enabling TIM6 update interrupt.
 127:Core/Src/stm32f7xx_hal_timebase_tim.c ****   * @param  None
 128:Core/Src/stm32f7xx_hal_timebase_tim.c ****   * @retval None
 129:Core/Src/stm32f7xx_hal_timebase_tim.c ****   */
 130:Core/Src/stm32f7xx_hal_timebase_tim.c **** void HAL_ResumeTick(void)
 131:Core/Src/stm32f7xx_hal_timebase_tim.c **** {
 241              		.loc 1 131 1 is_stmt 1 view -0
 242              		.cfi_startproc
 243              		@ args = 0, pretend = 0, frame = 0
 244              		@ frame_needed = 0, uses_anonymous_args = 0
 245              		@ link register save eliminated.
 132:Core/Src/stm32f7xx_hal_timebase_tim.c ****   /* Enable TIM6 Update interrupt */
 133:Core/Src/stm32f7xx_hal_timebase_tim.c ****   __HAL_TIM_ENABLE_IT(&htim6, TIM_IT_UPDATE);
 246              		.loc 1 133 3 view .LVU67
 247 0000 034B     		ldr	r3, .L15
 248 0002 1A68     		ldr	r2, [r3]
 249 0004 D368     		ldr	r3, [r2, #12]
 250 0006 43F00103 		orr	r3, r3, #1
 251 000a D360     		str	r3, [r2, #12]
 134:Core/Src/stm32f7xx_hal_timebase_tim.c **** }
 252              		.loc 1 134 1 is_stmt 0 view .LVU68
ARM GAS  /var/folders/n6/c271nzx11xl4r4_m7sqjlt0m0000gn/T//ccz18NEb.s 			page 8


 253 000c 7047     		bx	lr
 254              	.L16:
 255 000e 00BF     		.align	2
 256              	.L15:
 257 0010 00000000 		.word	htim6
 258              		.cfi_endproc
 259              	.LFE143:
 261              		.global	htim6
 262              		.section	.bss.htim6,"aw",%nobits
 263              		.align	2
 266              	htim6:
 267 0000 00000000 		.space	76
 267      00000000 
 267      00000000 
 267      00000000 
 267      00000000 
 268              		.text
 269              	.Letext0:
 270              		.file 2 "Drivers/CMSIS/Device/ST/STM32F7xx/Include/stm32f769xx.h"
 271              		.file 3 "/Users/killian/Library/Application Support/Code/User/globalStorage/bmd.stm32-for-vscode/@
 272              		.file 4 "/Users/killian/Library/Application Support/Code/User/globalStorage/bmd.stm32-for-vscode/@
 273              		.file 5 "Drivers/STM32F7xx_HAL_Driver/Inc/stm32f7xx_hal_def.h"
 274              		.file 6 "Drivers/STM32F7xx_HAL_Driver/Inc/stm32f7xx_hal_rcc.h"
 275              		.file 7 "Drivers/STM32F7xx_HAL_Driver/Inc/stm32f7xx_hal_dma.h"
 276              		.file 8 "Drivers/STM32F7xx_HAL_Driver/Inc/stm32f7xx_hal_tim.h"
 277              		.file 9 "Drivers/STM32F7xx_HAL_Driver/Inc/stm32f7xx_hal.h"
 278              		.file 10 "Drivers/STM32F7xx_HAL_Driver/Inc/stm32f7xx_hal_cortex.h"
ARM GAS  /var/folders/n6/c271nzx11xl4r4_m7sqjlt0m0000gn/T//ccz18NEb.s 			page 9

