ARM GAS  /var/folders/n6/c271nzx11xl4r4_m7sqjlt0m0000gn/T//ccyzxgNq.s 			page 1


   1              		.cpu cortex-m7
   2              		.arch armv7e-m
   3              		.fpu fpv5-d16
   4              		.eabi_attribute 28, 1
   5              		.eabi_attribute 20, 1
   6              		.eabi_attribute 21, 1
   7              		.eabi_attribute 23, 3
   8              		.eabi_attribute 24, 1
   9              		.eabi_attribute 25, 1
  10              		.eabi_attribute 26, 1
  11              		.eabi_attribute 30, 1
  12              		.eabi_attribute 34, 1
  13              		.eabi_attribute 18, 4
  14              		.file	"stm32f769i_discovery.c"
  15              		.text
  16              	.Ltext0:
  17              		.cfi_sections	.debug_frame
  18              		.file 1 "Drivers/BSP/STM32F769I-Discovery/stm32f769i_discovery.c"
  19              		.section	.text.I2Cx_MspInit,"ax",%progbits
  20              		.align	1
  21              		.syntax unified
  22              		.thumb
  23              		.thumb_func
  25              	I2Cx_MspInit:
  26              	.LVL0:
  27              	.LFB150:
   1:Drivers/BSP/STM32F769I-Discovery/stm32f769i_discovery.c **** /**
   2:Drivers/BSP/STM32F769I-Discovery/stm32f769i_discovery.c ****   ******************************************************************************
   3:Drivers/BSP/STM32F769I-Discovery/stm32f769i_discovery.c ****   * @file    stm32f769i_discovery.c
   4:Drivers/BSP/STM32F769I-Discovery/stm32f769i_discovery.c ****   * @author  MCD Application Team
   5:Drivers/BSP/STM32F769I-Discovery/stm32f769i_discovery.c ****   * @brief   This file provides a set of firmware functions to manage LEDs,
   6:Drivers/BSP/STM32F769I-Discovery/stm32f769i_discovery.c ****   *          push-buttons, external SDRAM, external QSPI Flash, RF EEPROM,
   7:Drivers/BSP/STM32F769I-Discovery/stm32f769i_discovery.c ****   *          available on STM32F769I-Discovery board (MB1225) from 
   8:Drivers/BSP/STM32F769I-Discovery/stm32f769i_discovery.c ****   *          STMicroelectronics.
   9:Drivers/BSP/STM32F769I-Discovery/stm32f769i_discovery.c ****   ******************************************************************************
  10:Drivers/BSP/STM32F769I-Discovery/stm32f769i_discovery.c ****   * @attention
  11:Drivers/BSP/STM32F769I-Discovery/stm32f769i_discovery.c ****   *
  12:Drivers/BSP/STM32F769I-Discovery/stm32f769i_discovery.c ****   * Copyright (c) 2016 STMicroelectronics.
  13:Drivers/BSP/STM32F769I-Discovery/stm32f769i_discovery.c ****   * All rights reserved.
  14:Drivers/BSP/STM32F769I-Discovery/stm32f769i_discovery.c ****   *
  15:Drivers/BSP/STM32F769I-Discovery/stm32f769i_discovery.c ****   * This software is licensed under terms that can be found in the LICENSE file
  16:Drivers/BSP/STM32F769I-Discovery/stm32f769i_discovery.c ****   * in the root directory of this software component.
  17:Drivers/BSP/STM32F769I-Discovery/stm32f769i_discovery.c ****   * If no LICENSE file comes with this software, it is provided AS-IS.
  18:Drivers/BSP/STM32F769I-Discovery/stm32f769i_discovery.c ****   *
  19:Drivers/BSP/STM32F769I-Discovery/stm32f769i_discovery.c ****   ******************************************************************************
  20:Drivers/BSP/STM32F769I-Discovery/stm32f769i_discovery.c ****   */
  21:Drivers/BSP/STM32F769I-Discovery/stm32f769i_discovery.c **** 
  22:Drivers/BSP/STM32F769I-Discovery/stm32f769i_discovery.c **** /* Dependencies
  23:Drivers/BSP/STM32F769I-Discovery/stm32f769i_discovery.c **** - stm32f7xx_hal_cortex.c
  24:Drivers/BSP/STM32F769I-Discovery/stm32f769i_discovery.c **** - stm32f7xx_hal_gpio.c
  25:Drivers/BSP/STM32F769I-Discovery/stm32f769i_discovery.c **** - stm32f7xx_hal_uart.c
  26:Drivers/BSP/STM32F769I-Discovery/stm32f769i_discovery.c **** - stm32f7xx_hal_i2c.c
  27:Drivers/BSP/STM32F769I-Discovery/stm32f769i_discovery.c **** EndDependencies */
  28:Drivers/BSP/STM32F769I-Discovery/stm32f769i_discovery.c **** 
  29:Drivers/BSP/STM32F769I-Discovery/stm32f769i_discovery.c **** /* Includes ------------------------------------------------------------------*/
  30:Drivers/BSP/STM32F769I-Discovery/stm32f769i_discovery.c **** #include "stm32f769i_discovery.h"
  31:Drivers/BSP/STM32F769I-Discovery/stm32f769i_discovery.c **** 
ARM GAS  /var/folders/n6/c271nzx11xl4r4_m7sqjlt0m0000gn/T//ccyzxgNq.s 			page 2


  32:Drivers/BSP/STM32F769I-Discovery/stm32f769i_discovery.c **** /** @addtogroup BSP
  33:Drivers/BSP/STM32F769I-Discovery/stm32f769i_discovery.c ****   * @{
  34:Drivers/BSP/STM32F769I-Discovery/stm32f769i_discovery.c ****   */
  35:Drivers/BSP/STM32F769I-Discovery/stm32f769i_discovery.c **** 
  36:Drivers/BSP/STM32F769I-Discovery/stm32f769i_discovery.c **** /** @addtogroup STM32F769I_DISCOVERY
  37:Drivers/BSP/STM32F769I-Discovery/stm32f769i_discovery.c ****   * @{
  38:Drivers/BSP/STM32F769I-Discovery/stm32f769i_discovery.c ****   */
  39:Drivers/BSP/STM32F769I-Discovery/stm32f769i_discovery.c **** 
  40:Drivers/BSP/STM32F769I-Discovery/stm32f769i_discovery.c **** /** @defgroup STM32F769I_DISCOVERY_LOW_LEVEL STM32F769I_DISCOVERY LOW LEVEL
  41:Drivers/BSP/STM32F769I-Discovery/stm32f769i_discovery.c ****   * @{
  42:Drivers/BSP/STM32F769I-Discovery/stm32f769i_discovery.c ****   */
  43:Drivers/BSP/STM32F769I-Discovery/stm32f769i_discovery.c **** 
  44:Drivers/BSP/STM32F769I-Discovery/stm32f769i_discovery.c **** /** @defgroup STM32F769I_DISCOVERY_LOW_LEVEL_Private_TypesDefinitions STM32F769I Discovery Low Leve
  45:Drivers/BSP/STM32F769I-Discovery/stm32f769i_discovery.c ****   * @{
  46:Drivers/BSP/STM32F769I-Discovery/stm32f769i_discovery.c ****   */
  47:Drivers/BSP/STM32F769I-Discovery/stm32f769i_discovery.c **** /**
  48:Drivers/BSP/STM32F769I-Discovery/stm32f769i_discovery.c ****   * @}
  49:Drivers/BSP/STM32F769I-Discovery/stm32f769i_discovery.c ****   */
  50:Drivers/BSP/STM32F769I-Discovery/stm32f769i_discovery.c **** 
  51:Drivers/BSP/STM32F769I-Discovery/stm32f769i_discovery.c **** /** @defgroup STM32F769I_DISCOVERY_LOW_LEVEL_Private_Defines LOW_LEVEL Private Defines
  52:Drivers/BSP/STM32F769I-Discovery/stm32f769i_discovery.c ****   * @{
  53:Drivers/BSP/STM32F769I-Discovery/stm32f769i_discovery.c ****   */
  54:Drivers/BSP/STM32F769I-Discovery/stm32f769i_discovery.c **** /**
  55:Drivers/BSP/STM32F769I-Discovery/stm32f769i_discovery.c ****  * @brief STM32F769I Discovery BSP Driver version number V2.2.0
  56:Drivers/BSP/STM32F769I-Discovery/stm32f769i_discovery.c ****    */
  57:Drivers/BSP/STM32F769I-Discovery/stm32f769i_discovery.c **** #define __STM32F769I_DISCOVERY_BSP_VERSION_MAIN   (0x02) /*!< [31:24] main version */
  58:Drivers/BSP/STM32F769I-Discovery/stm32f769i_discovery.c **** #define __STM32F769I_DISCOVERY_BSP_VERSION_SUB1   (0x02) /*!< [23:16] sub1 version */
  59:Drivers/BSP/STM32F769I-Discovery/stm32f769i_discovery.c **** #define __STM32F769I_DISCOVERY_BSP_VERSION_SUB2   (0x00) /*!< [15:8]  sub2 version */
  60:Drivers/BSP/STM32F769I-Discovery/stm32f769i_discovery.c **** #define __STM32F769I_DISCOVERY_BSP_VERSION_RC     (0x00) /*!< [7:0]  release candidate */
  61:Drivers/BSP/STM32F769I-Discovery/stm32f769i_discovery.c **** #define __STM32F769I_DISCOVERY_BSP_VERSION        ((__STM32F769I_DISCOVERY_BSP_VERSION_MAIN << 24)\
  62:Drivers/BSP/STM32F769I-Discovery/stm32f769i_discovery.c ****                                                  |(__STM32F769I_DISCOVERY_BSP_VERSION_SUB1 << 16)\
  63:Drivers/BSP/STM32F769I-Discovery/stm32f769i_discovery.c ****                                                  |(__STM32F769I_DISCOVERY_BSP_VERSION_SUB2 << 8 )\
  64:Drivers/BSP/STM32F769I-Discovery/stm32f769i_discovery.c ****                                                  |(__STM32F769I_DISCOVERY_BSP_VERSION_RC))
  65:Drivers/BSP/STM32F769I-Discovery/stm32f769i_discovery.c **** /**
  66:Drivers/BSP/STM32F769I-Discovery/stm32f769i_discovery.c ****   * @}
  67:Drivers/BSP/STM32F769I-Discovery/stm32f769i_discovery.c ****   */
  68:Drivers/BSP/STM32F769I-Discovery/stm32f769i_discovery.c **** 
  69:Drivers/BSP/STM32F769I-Discovery/stm32f769i_discovery.c **** /** @defgroup STM32F769I_DISCOVERY_LOW_LEVEL_Private_Macros  LOW_LEVEL Private Macros
  70:Drivers/BSP/STM32F769I-Discovery/stm32f769i_discovery.c ****   * @{
  71:Drivers/BSP/STM32F769I-Discovery/stm32f769i_discovery.c ****   */
  72:Drivers/BSP/STM32F769I-Discovery/stm32f769i_discovery.c **** /**
  73:Drivers/BSP/STM32F769I-Discovery/stm32f769i_discovery.c ****   * @}
  74:Drivers/BSP/STM32F769I-Discovery/stm32f769i_discovery.c ****   */
  75:Drivers/BSP/STM32F769I-Discovery/stm32f769i_discovery.c **** 
  76:Drivers/BSP/STM32F769I-Discovery/stm32f769i_discovery.c **** /** @defgroup STM32F769I_DISCOVERY_LOW_LEVEL_Private_Variables LOW_LEVEL Private Variables
  77:Drivers/BSP/STM32F769I-Discovery/stm32f769i_discovery.c ****   * @{
  78:Drivers/BSP/STM32F769I-Discovery/stm32f769i_discovery.c ****   */
  79:Drivers/BSP/STM32F769I-Discovery/stm32f769i_discovery.c **** uint32_t GPIO_PIN[LEDn] = {LED1_PIN,
  80:Drivers/BSP/STM32F769I-Discovery/stm32f769i_discovery.c ****                            LED2_PIN};
  81:Drivers/BSP/STM32F769I-Discovery/stm32f769i_discovery.c **** 
  82:Drivers/BSP/STM32F769I-Discovery/stm32f769i_discovery.c **** GPIO_TypeDef* GPIO_PORT[LEDn] = {LED1_GPIO_PORT,
  83:Drivers/BSP/STM32F769I-Discovery/stm32f769i_discovery.c ****                                  LED2_GPIO_PORT};
  84:Drivers/BSP/STM32F769I-Discovery/stm32f769i_discovery.c **** 
  85:Drivers/BSP/STM32F769I-Discovery/stm32f769i_discovery.c **** GPIO_TypeDef* BUTTON_PORT[BUTTONn] = {WAKEUP_BUTTON_GPIO_PORT };
  86:Drivers/BSP/STM32F769I-Discovery/stm32f769i_discovery.c **** 
  87:Drivers/BSP/STM32F769I-Discovery/stm32f769i_discovery.c **** const uint16_t BUTTON_PIN[BUTTONn] = {WAKEUP_BUTTON_PIN };
  88:Drivers/BSP/STM32F769I-Discovery/stm32f769i_discovery.c **** 
ARM GAS  /var/folders/n6/c271nzx11xl4r4_m7sqjlt0m0000gn/T//ccyzxgNq.s 			page 3


  89:Drivers/BSP/STM32F769I-Discovery/stm32f769i_discovery.c **** const uint16_t BUTTON_IRQn[BUTTONn] = {WAKEUP_BUTTON_EXTI_IRQn };
  90:Drivers/BSP/STM32F769I-Discovery/stm32f769i_discovery.c **** 
  91:Drivers/BSP/STM32F769I-Discovery/stm32f769i_discovery.c **** 
  92:Drivers/BSP/STM32F769I-Discovery/stm32f769i_discovery.c **** static I2C_HandleTypeDef hI2cAudioHandler = {0};
  93:Drivers/BSP/STM32F769I-Discovery/stm32f769i_discovery.c **** static I2C_HandleTypeDef hI2cExtHandler = {0};
  94:Drivers/BSP/STM32F769I-Discovery/stm32f769i_discovery.c **** 
  95:Drivers/BSP/STM32F769I-Discovery/stm32f769i_discovery.c **** /**
  96:Drivers/BSP/STM32F769I-Discovery/stm32f769i_discovery.c ****   * @}
  97:Drivers/BSP/STM32F769I-Discovery/stm32f769i_discovery.c ****   */
  98:Drivers/BSP/STM32F769I-Discovery/stm32f769i_discovery.c **** 
  99:Drivers/BSP/STM32F769I-Discovery/stm32f769i_discovery.c **** /** @defgroup STM32F769I_DISCOVERY_LOW_LEVEL_Private_FunctionPrototypes LOW_LEVEL Private FunctionP
 100:Drivers/BSP/STM32F769I-Discovery/stm32f769i_discovery.c ****   * @{
 101:Drivers/BSP/STM32F769I-Discovery/stm32f769i_discovery.c ****   */
 102:Drivers/BSP/STM32F769I-Discovery/stm32f769i_discovery.c **** static void     I2Cx_MspInit(I2C_HandleTypeDef *i2c_handler);
 103:Drivers/BSP/STM32F769I-Discovery/stm32f769i_discovery.c **** static void     I2Cx_Init(I2C_HandleTypeDef *i2c_handler);
 104:Drivers/BSP/STM32F769I-Discovery/stm32f769i_discovery.c **** 
 105:Drivers/BSP/STM32F769I-Discovery/stm32f769i_discovery.c **** static HAL_StatusTypeDef I2Cx_ReadMultiple(I2C_HandleTypeDef *i2c_handler, uint8_t Addr, uint16_t R
 106:Drivers/BSP/STM32F769I-Discovery/stm32f769i_discovery.c **** static HAL_StatusTypeDef I2Cx_WriteMultiple(I2C_HandleTypeDef *i2c_handler, uint8_t Addr, uint16_t 
 107:Drivers/BSP/STM32F769I-Discovery/stm32f769i_discovery.c **** static HAL_StatusTypeDef I2Cx_IsDeviceReady(I2C_HandleTypeDef *i2c_handler, uint16_t DevAddress, ui
 108:Drivers/BSP/STM32F769I-Discovery/stm32f769i_discovery.c **** static void              I2Cx_Error(I2C_HandleTypeDef *i2c_handler, uint8_t Addr);
 109:Drivers/BSP/STM32F769I-Discovery/stm32f769i_discovery.c **** 
 110:Drivers/BSP/STM32F769I-Discovery/stm32f769i_discovery.c **** /* AUDIO IO functions */
 111:Drivers/BSP/STM32F769I-Discovery/stm32f769i_discovery.c **** void            AUDIO_IO_Init(void);
 112:Drivers/BSP/STM32F769I-Discovery/stm32f769i_discovery.c **** void            AUDIO_IO_DeInit(void);
 113:Drivers/BSP/STM32F769I-Discovery/stm32f769i_discovery.c **** void            AUDIO_IO_Write(uint8_t Addr, uint16_t Reg, uint16_t Value);
 114:Drivers/BSP/STM32F769I-Discovery/stm32f769i_discovery.c **** uint16_t        AUDIO_IO_Read(uint8_t Addr, uint16_t Reg);
 115:Drivers/BSP/STM32F769I-Discovery/stm32f769i_discovery.c **** void            AUDIO_IO_Delay(uint32_t Delay);
 116:Drivers/BSP/STM32F769I-Discovery/stm32f769i_discovery.c **** 
 117:Drivers/BSP/STM32F769I-Discovery/stm32f769i_discovery.c **** /* HDMI IO functions */
 118:Drivers/BSP/STM32F769I-Discovery/stm32f769i_discovery.c **** void            HDMI_IO_Init(void);
 119:Drivers/BSP/STM32F769I-Discovery/stm32f769i_discovery.c **** void            HDMI_IO_Delay(uint32_t Delay);
 120:Drivers/BSP/STM32F769I-Discovery/stm32f769i_discovery.c **** void            HDMI_IO_Write(uint8_t Addr, uint8_t Reg, uint8_t Value);
 121:Drivers/BSP/STM32F769I-Discovery/stm32f769i_discovery.c **** uint8_t         HDMI_IO_Read(uint8_t Addr, uint8_t Reg);
 122:Drivers/BSP/STM32F769I-Discovery/stm32f769i_discovery.c **** 
 123:Drivers/BSP/STM32F769I-Discovery/stm32f769i_discovery.c **** /* I2C EEPROM IO function */
 124:Drivers/BSP/STM32F769I-Discovery/stm32f769i_discovery.c **** void                EEPROM_IO_Init(void);
 125:Drivers/BSP/STM32F769I-Discovery/stm32f769i_discovery.c **** HAL_StatusTypeDef   EEPROM_IO_WriteData(uint16_t DevAddress, uint16_t MemAddress, uint8_t* pBuffer,
 126:Drivers/BSP/STM32F769I-Discovery/stm32f769i_discovery.c **** HAL_StatusTypeDef   EEPROM_IO_ReadData(uint16_t DevAddress, uint16_t MemAddress, uint8_t* pBuffer, 
 127:Drivers/BSP/STM32F769I-Discovery/stm32f769i_discovery.c **** HAL_StatusTypeDef   EEPROM_IO_IsDeviceReady(uint16_t DevAddress, uint32_t Trials);
 128:Drivers/BSP/STM32F769I-Discovery/stm32f769i_discovery.c **** 
 129:Drivers/BSP/STM32F769I-Discovery/stm32f769i_discovery.c **** /* TouchScreen (TS) IO functions */
 130:Drivers/BSP/STM32F769I-Discovery/stm32f769i_discovery.c **** void     TS_IO_Init(void);
 131:Drivers/BSP/STM32F769I-Discovery/stm32f769i_discovery.c **** void     TS_IO_Write(uint8_t Addr, uint8_t Reg, uint8_t Value);
 132:Drivers/BSP/STM32F769I-Discovery/stm32f769i_discovery.c **** uint8_t  TS_IO_Read(uint8_t Addr, uint8_t Reg);
 133:Drivers/BSP/STM32F769I-Discovery/stm32f769i_discovery.c **** uint16_t TS_IO_ReadMultiple(uint8_t Addr, uint8_t Reg, uint8_t *Buffer, uint16_t Length);
 134:Drivers/BSP/STM32F769I-Discovery/stm32f769i_discovery.c **** void     TS_IO_WriteMultiple(uint8_t Addr, uint8_t Reg, uint8_t *Buffer, uint16_t Length);
 135:Drivers/BSP/STM32F769I-Discovery/stm32f769i_discovery.c **** void     TS_IO_Delay(uint32_t Delay);
 136:Drivers/BSP/STM32F769I-Discovery/stm32f769i_discovery.c **** 
 137:Drivers/BSP/STM32F769I-Discovery/stm32f769i_discovery.c **** /* LCD Display IO functions */
 138:Drivers/BSP/STM32F769I-Discovery/stm32f769i_discovery.c **** void     OTM8009A_IO_Delay(uint32_t Delay);
 139:Drivers/BSP/STM32F769I-Discovery/stm32f769i_discovery.c **** void     NT35510_IO_Delay(uint32_t Delay);
 140:Drivers/BSP/STM32F769I-Discovery/stm32f769i_discovery.c **** /**
 141:Drivers/BSP/STM32F769I-Discovery/stm32f769i_discovery.c ****   * @}
 142:Drivers/BSP/STM32F769I-Discovery/stm32f769i_discovery.c ****   */
 143:Drivers/BSP/STM32F769I-Discovery/stm32f769i_discovery.c **** 
 144:Drivers/BSP/STM32F769I-Discovery/stm32f769i_discovery.c **** /** @defgroup STM32F769I_DISCOVERY_BSP_Public_Functions BSP Public Functions
 145:Drivers/BSP/STM32F769I-Discovery/stm32f769i_discovery.c ****   * @{
ARM GAS  /var/folders/n6/c271nzx11xl4r4_m7sqjlt0m0000gn/T//ccyzxgNq.s 			page 4


 146:Drivers/BSP/STM32F769I-Discovery/stm32f769i_discovery.c ****   */
 147:Drivers/BSP/STM32F769I-Discovery/stm32f769i_discovery.c **** 
 148:Drivers/BSP/STM32F769I-Discovery/stm32f769i_discovery.c ****   /**
 149:Drivers/BSP/STM32F769I-Discovery/stm32f769i_discovery.c ****   * @brief  This method returns the STM32F769I Discovery BSP Driver revision
 150:Drivers/BSP/STM32F769I-Discovery/stm32f769i_discovery.c ****   * @retval version: 0xXYZR (8bits for each decimal, R for RC)
 151:Drivers/BSP/STM32F769I-Discovery/stm32f769i_discovery.c ****   */
 152:Drivers/BSP/STM32F769I-Discovery/stm32f769i_discovery.c **** uint32_t BSP_GetVersion(void)
 153:Drivers/BSP/STM32F769I-Discovery/stm32f769i_discovery.c **** {
 154:Drivers/BSP/STM32F769I-Discovery/stm32f769i_discovery.c ****   return __STM32F769I_DISCOVERY_BSP_VERSION;
 155:Drivers/BSP/STM32F769I-Discovery/stm32f769i_discovery.c **** }
 156:Drivers/BSP/STM32F769I-Discovery/stm32f769i_discovery.c **** 
 157:Drivers/BSP/STM32F769I-Discovery/stm32f769i_discovery.c **** /**
 158:Drivers/BSP/STM32F769I-Discovery/stm32f769i_discovery.c ****   * @brief  Configures LED GPIO.
 159:Drivers/BSP/STM32F769I-Discovery/stm32f769i_discovery.c ****   * @param  Led: LED to be configured.
 160:Drivers/BSP/STM32F769I-Discovery/stm32f769i_discovery.c ****   *          This parameter can be one of the following values:
 161:Drivers/BSP/STM32F769I-Discovery/stm32f769i_discovery.c ****   *            @arg  LED1
 162:Drivers/BSP/STM32F769I-Discovery/stm32f769i_discovery.c ****   *            @arg  LED2
 163:Drivers/BSP/STM32F769I-Discovery/stm32f769i_discovery.c ****   * @retval None
 164:Drivers/BSP/STM32F769I-Discovery/stm32f769i_discovery.c ****   */
 165:Drivers/BSP/STM32F769I-Discovery/stm32f769i_discovery.c **** void BSP_LED_Init(Led_TypeDef Led)
 166:Drivers/BSP/STM32F769I-Discovery/stm32f769i_discovery.c **** {
 167:Drivers/BSP/STM32F769I-Discovery/stm32f769i_discovery.c ****   GPIO_InitTypeDef  gpio_init_structure;
 168:Drivers/BSP/STM32F769I-Discovery/stm32f769i_discovery.c ****   
 169:Drivers/BSP/STM32F769I-Discovery/stm32f769i_discovery.c ****   LEDx_GPIO_CLK_ENABLE();
 170:Drivers/BSP/STM32F769I-Discovery/stm32f769i_discovery.c ****   /* Configure the GPIO_LED pin */
 171:Drivers/BSP/STM32F769I-Discovery/stm32f769i_discovery.c ****   gpio_init_structure.Pin   = GPIO_PIN[Led];
 172:Drivers/BSP/STM32F769I-Discovery/stm32f769i_discovery.c ****   gpio_init_structure.Mode  = GPIO_MODE_OUTPUT_PP;
 173:Drivers/BSP/STM32F769I-Discovery/stm32f769i_discovery.c ****   gpio_init_structure.Pull  = GPIO_PULLUP;
 174:Drivers/BSP/STM32F769I-Discovery/stm32f769i_discovery.c ****   gpio_init_structure.Speed = GPIO_SPEED_HIGH;
 175:Drivers/BSP/STM32F769I-Discovery/stm32f769i_discovery.c ****   
 176:Drivers/BSP/STM32F769I-Discovery/stm32f769i_discovery.c ****   HAL_GPIO_Init(GPIO_PORT[Led], &gpio_init_structure);
 177:Drivers/BSP/STM32F769I-Discovery/stm32f769i_discovery.c **** 
 178:Drivers/BSP/STM32F769I-Discovery/stm32f769i_discovery.c **** }
 179:Drivers/BSP/STM32F769I-Discovery/stm32f769i_discovery.c **** 
 180:Drivers/BSP/STM32F769I-Discovery/stm32f769i_discovery.c **** 
 181:Drivers/BSP/STM32F769I-Discovery/stm32f769i_discovery.c **** /**
 182:Drivers/BSP/STM32F769I-Discovery/stm32f769i_discovery.c ****   * @brief  DeInit LEDs.
 183:Drivers/BSP/STM32F769I-Discovery/stm32f769i_discovery.c ****   * @param  Led: LED to be configured.
 184:Drivers/BSP/STM32F769I-Discovery/stm32f769i_discovery.c ****   *          This parameter can be one of the following values:
 185:Drivers/BSP/STM32F769I-Discovery/stm32f769i_discovery.c ****   *            @arg  LED1
 186:Drivers/BSP/STM32F769I-Discovery/stm32f769i_discovery.c ****   *            @arg  LED2
 187:Drivers/BSP/STM32F769I-Discovery/stm32f769i_discovery.c ****   * @note Led DeInit does not disable the GPIO clock
 188:Drivers/BSP/STM32F769I-Discovery/stm32f769i_discovery.c ****   * @retval None
 189:Drivers/BSP/STM32F769I-Discovery/stm32f769i_discovery.c ****   */
 190:Drivers/BSP/STM32F769I-Discovery/stm32f769i_discovery.c **** void BSP_LED_DeInit(Led_TypeDef Led)
 191:Drivers/BSP/STM32F769I-Discovery/stm32f769i_discovery.c **** {
 192:Drivers/BSP/STM32F769I-Discovery/stm32f769i_discovery.c ****   GPIO_InitTypeDef  gpio_init_structure;
 193:Drivers/BSP/STM32F769I-Discovery/stm32f769i_discovery.c ****   
 194:Drivers/BSP/STM32F769I-Discovery/stm32f769i_discovery.c ****   /* DeInit the GPIO_LED pin */
 195:Drivers/BSP/STM32F769I-Discovery/stm32f769i_discovery.c ****   gpio_init_structure.Pin = GPIO_PIN[Led];
 196:Drivers/BSP/STM32F769I-Discovery/stm32f769i_discovery.c ****   
 197:Drivers/BSP/STM32F769I-Discovery/stm32f769i_discovery.c ****   /* Turn off LED */
 198:Drivers/BSP/STM32F769I-Discovery/stm32f769i_discovery.c ****   HAL_GPIO_WritePin(GPIO_PORT[Led], GPIO_PIN[Led], GPIO_PIN_RESET);
 199:Drivers/BSP/STM32F769I-Discovery/stm32f769i_discovery.c ****   HAL_GPIO_DeInit(GPIO_PORT[Led], gpio_init_structure.Pin);
 200:Drivers/BSP/STM32F769I-Discovery/stm32f769i_discovery.c **** }
 201:Drivers/BSP/STM32F769I-Discovery/stm32f769i_discovery.c **** 
 202:Drivers/BSP/STM32F769I-Discovery/stm32f769i_discovery.c **** /**
ARM GAS  /var/folders/n6/c271nzx11xl4r4_m7sqjlt0m0000gn/T//ccyzxgNq.s 			page 5


 203:Drivers/BSP/STM32F769I-Discovery/stm32f769i_discovery.c ****   * @brief  Turns selected LED On.
 204:Drivers/BSP/STM32F769I-Discovery/stm32f769i_discovery.c ****   * @param  Led: LED to be set on
 205:Drivers/BSP/STM32F769I-Discovery/stm32f769i_discovery.c ****   *          This parameter can be one of the following values:
 206:Drivers/BSP/STM32F769I-Discovery/stm32f769i_discovery.c ****   *            @arg  LED1
 207:Drivers/BSP/STM32F769I-Discovery/stm32f769i_discovery.c ****   *            @arg  LED2
 208:Drivers/BSP/STM32F769I-Discovery/stm32f769i_discovery.c ****   * @retval None
 209:Drivers/BSP/STM32F769I-Discovery/stm32f769i_discovery.c ****   */
 210:Drivers/BSP/STM32F769I-Discovery/stm32f769i_discovery.c **** void BSP_LED_On(Led_TypeDef Led)
 211:Drivers/BSP/STM32F769I-Discovery/stm32f769i_discovery.c **** {
 212:Drivers/BSP/STM32F769I-Discovery/stm32f769i_discovery.c ****   HAL_GPIO_WritePin(GPIO_PORT[Led], GPIO_PIN[Led], GPIO_PIN_SET);
 213:Drivers/BSP/STM32F769I-Discovery/stm32f769i_discovery.c **** }
 214:Drivers/BSP/STM32F769I-Discovery/stm32f769i_discovery.c **** 
 215:Drivers/BSP/STM32F769I-Discovery/stm32f769i_discovery.c **** /**
 216:Drivers/BSP/STM32F769I-Discovery/stm32f769i_discovery.c ****   * @brief  Turns selected LED Off.
 217:Drivers/BSP/STM32F769I-Discovery/stm32f769i_discovery.c ****   * @param  Led: LED to be set off
 218:Drivers/BSP/STM32F769I-Discovery/stm32f769i_discovery.c ****   *          This parameter can be one of the following values:
 219:Drivers/BSP/STM32F769I-Discovery/stm32f769i_discovery.c ****   *            @arg  LED1
 220:Drivers/BSP/STM32F769I-Discovery/stm32f769i_discovery.c ****   *            @arg  LED2
 221:Drivers/BSP/STM32F769I-Discovery/stm32f769i_discovery.c ****   * @retval None
 222:Drivers/BSP/STM32F769I-Discovery/stm32f769i_discovery.c ****   */
 223:Drivers/BSP/STM32F769I-Discovery/stm32f769i_discovery.c **** void BSP_LED_Off(Led_TypeDef Led)
 224:Drivers/BSP/STM32F769I-Discovery/stm32f769i_discovery.c **** {
 225:Drivers/BSP/STM32F769I-Discovery/stm32f769i_discovery.c ****   HAL_GPIO_WritePin(GPIO_PORT[Led], GPIO_PIN[Led], GPIO_PIN_RESET);
 226:Drivers/BSP/STM32F769I-Discovery/stm32f769i_discovery.c **** }
 227:Drivers/BSP/STM32F769I-Discovery/stm32f769i_discovery.c **** 
 228:Drivers/BSP/STM32F769I-Discovery/stm32f769i_discovery.c **** /**
 229:Drivers/BSP/STM32F769I-Discovery/stm32f769i_discovery.c ****   * @brief  Toggles the selected LED.
 230:Drivers/BSP/STM32F769I-Discovery/stm32f769i_discovery.c ****   * @param  Led: LED to be toggled
 231:Drivers/BSP/STM32F769I-Discovery/stm32f769i_discovery.c ****   *          This parameter can be one of the following values:
 232:Drivers/BSP/STM32F769I-Discovery/stm32f769i_discovery.c ****   *            @arg  LED1
 233:Drivers/BSP/STM32F769I-Discovery/stm32f769i_discovery.c ****   *            @arg  LED2
 234:Drivers/BSP/STM32F769I-Discovery/stm32f769i_discovery.c ****   * @retval None
 235:Drivers/BSP/STM32F769I-Discovery/stm32f769i_discovery.c ****   */
 236:Drivers/BSP/STM32F769I-Discovery/stm32f769i_discovery.c **** void BSP_LED_Toggle(Led_TypeDef Led)
 237:Drivers/BSP/STM32F769I-Discovery/stm32f769i_discovery.c **** {
 238:Drivers/BSP/STM32F769I-Discovery/stm32f769i_discovery.c ****   HAL_GPIO_TogglePin(GPIO_PORT[Led], GPIO_PIN[Led]);
 239:Drivers/BSP/STM32F769I-Discovery/stm32f769i_discovery.c **** }
 240:Drivers/BSP/STM32F769I-Discovery/stm32f769i_discovery.c **** 
 241:Drivers/BSP/STM32F769I-Discovery/stm32f769i_discovery.c **** /**
 242:Drivers/BSP/STM32F769I-Discovery/stm32f769i_discovery.c ****   * @brief  Configures button GPIO and EXTI Line.
 243:Drivers/BSP/STM32F769I-Discovery/stm32f769i_discovery.c ****   * @param  Button: Button to be configured
 244:Drivers/BSP/STM32F769I-Discovery/stm32f769i_discovery.c ****   *          This parameter can be one of the following values:
 245:Drivers/BSP/STM32F769I-Discovery/stm32f769i_discovery.c ****   *            @arg  BUTTON_WAKEUP: Wakeup Push Button
 246:Drivers/BSP/STM32F769I-Discovery/stm32f769i_discovery.c ****   *            @arg  BUTTON_USER: User Push Button
 247:Drivers/BSP/STM32F769I-Discovery/stm32f769i_discovery.c ****   * @param  Button_Mode: Button mode
 248:Drivers/BSP/STM32F769I-Discovery/stm32f769i_discovery.c ****   *          This parameter can be one of the following values:
 249:Drivers/BSP/STM32F769I-Discovery/stm32f769i_discovery.c ****   *            @arg  BUTTON_MODE_GPIO: Button will be used as simple IO
 250:Drivers/BSP/STM32F769I-Discovery/stm32f769i_discovery.c ****   *            @arg  BUTTON_MODE_EXTI: Button will be connected to EXTI line
 251:Drivers/BSP/STM32F769I-Discovery/stm32f769i_discovery.c ****   *                                    with interrupt generation capability
 252:Drivers/BSP/STM32F769I-Discovery/stm32f769i_discovery.c ****   * @retval None
 253:Drivers/BSP/STM32F769I-Discovery/stm32f769i_discovery.c ****   */
 254:Drivers/BSP/STM32F769I-Discovery/stm32f769i_discovery.c **** void BSP_PB_Init(Button_TypeDef Button, ButtonMode_TypeDef Button_Mode)
 255:Drivers/BSP/STM32F769I-Discovery/stm32f769i_discovery.c **** {
 256:Drivers/BSP/STM32F769I-Discovery/stm32f769i_discovery.c ****   GPIO_InitTypeDef gpio_init_structure;
 257:Drivers/BSP/STM32F769I-Discovery/stm32f769i_discovery.c **** 
 258:Drivers/BSP/STM32F769I-Discovery/stm32f769i_discovery.c ****   /* Enable the BUTTON clock */
 259:Drivers/BSP/STM32F769I-Discovery/stm32f769i_discovery.c ****   BUTTON_GPIO_CLK_ENABLE();
ARM GAS  /var/folders/n6/c271nzx11xl4r4_m7sqjlt0m0000gn/T//ccyzxgNq.s 			page 6


 260:Drivers/BSP/STM32F769I-Discovery/stm32f769i_discovery.c **** 
 261:Drivers/BSP/STM32F769I-Discovery/stm32f769i_discovery.c ****   if(Button_Mode == BUTTON_MODE_GPIO)
 262:Drivers/BSP/STM32F769I-Discovery/stm32f769i_discovery.c ****   {
 263:Drivers/BSP/STM32F769I-Discovery/stm32f769i_discovery.c ****     /* Configure Button pin as input */
 264:Drivers/BSP/STM32F769I-Discovery/stm32f769i_discovery.c ****     gpio_init_structure.Pin = BUTTON_PIN[Button];
 265:Drivers/BSP/STM32F769I-Discovery/stm32f769i_discovery.c ****     gpio_init_structure.Mode = GPIO_MODE_INPUT;
 266:Drivers/BSP/STM32F769I-Discovery/stm32f769i_discovery.c ****     gpio_init_structure.Pull = GPIO_NOPULL;
 267:Drivers/BSP/STM32F769I-Discovery/stm32f769i_discovery.c ****     gpio_init_structure.Speed = GPIO_SPEED_FAST;
 268:Drivers/BSP/STM32F769I-Discovery/stm32f769i_discovery.c ****     HAL_GPIO_Init(BUTTON_PORT[Button], &gpio_init_structure);
 269:Drivers/BSP/STM32F769I-Discovery/stm32f769i_discovery.c ****   }
 270:Drivers/BSP/STM32F769I-Discovery/stm32f769i_discovery.c **** 
 271:Drivers/BSP/STM32F769I-Discovery/stm32f769i_discovery.c ****   if(Button_Mode == BUTTON_MODE_EXTI)
 272:Drivers/BSP/STM32F769I-Discovery/stm32f769i_discovery.c ****   {
 273:Drivers/BSP/STM32F769I-Discovery/stm32f769i_discovery.c ****     /* Configure Button pin as input with External interrupt */
 274:Drivers/BSP/STM32F769I-Discovery/stm32f769i_discovery.c ****     gpio_init_structure.Pin = BUTTON_PIN[Button];
 275:Drivers/BSP/STM32F769I-Discovery/stm32f769i_discovery.c ****     gpio_init_structure.Pull = GPIO_NOPULL;
 276:Drivers/BSP/STM32F769I-Discovery/stm32f769i_discovery.c ****     gpio_init_structure.Speed = GPIO_SPEED_FAST;
 277:Drivers/BSP/STM32F769I-Discovery/stm32f769i_discovery.c **** 
 278:Drivers/BSP/STM32F769I-Discovery/stm32f769i_discovery.c ****     gpio_init_structure.Mode = GPIO_MODE_IT_RISING;
 279:Drivers/BSP/STM32F769I-Discovery/stm32f769i_discovery.c **** 
 280:Drivers/BSP/STM32F769I-Discovery/stm32f769i_discovery.c ****     HAL_GPIO_Init(BUTTON_PORT[Button], &gpio_init_structure);
 281:Drivers/BSP/STM32F769I-Discovery/stm32f769i_discovery.c **** 
 282:Drivers/BSP/STM32F769I-Discovery/stm32f769i_discovery.c ****     /* Enable and set Button EXTI Interrupt to the lowest priority */
 283:Drivers/BSP/STM32F769I-Discovery/stm32f769i_discovery.c ****     HAL_NVIC_SetPriority((IRQn_Type)(BUTTON_IRQn[Button]), 0x0F, 0x00);
 284:Drivers/BSP/STM32F769I-Discovery/stm32f769i_discovery.c ****     HAL_NVIC_EnableIRQ((IRQn_Type)(BUTTON_IRQn[Button]));
 285:Drivers/BSP/STM32F769I-Discovery/stm32f769i_discovery.c ****   }
 286:Drivers/BSP/STM32F769I-Discovery/stm32f769i_discovery.c **** }
 287:Drivers/BSP/STM32F769I-Discovery/stm32f769i_discovery.c **** 
 288:Drivers/BSP/STM32F769I-Discovery/stm32f769i_discovery.c **** /**
 289:Drivers/BSP/STM32F769I-Discovery/stm32f769i_discovery.c ****   * @brief  Push Button DeInit.
 290:Drivers/BSP/STM32F769I-Discovery/stm32f769i_discovery.c ****   * @param  Button: Button to be configured
 291:Drivers/BSP/STM32F769I-Discovery/stm32f769i_discovery.c ****   *          This parameter can be one of the following values:
 292:Drivers/BSP/STM32F769I-Discovery/stm32f769i_discovery.c ****   *            @arg  BUTTON_WAKEUP: Wakeup Push Button
 293:Drivers/BSP/STM32F769I-Discovery/stm32f769i_discovery.c ****   *            @arg  BUTTON_USER: User Push Button
 294:Drivers/BSP/STM32F769I-Discovery/stm32f769i_discovery.c ****   * @note PB DeInit does not disable the GPIO clock
 295:Drivers/BSP/STM32F769I-Discovery/stm32f769i_discovery.c ****   * @retval None
 296:Drivers/BSP/STM32F769I-Discovery/stm32f769i_discovery.c ****   */
 297:Drivers/BSP/STM32F769I-Discovery/stm32f769i_discovery.c **** void BSP_PB_DeInit(Button_TypeDef Button)
 298:Drivers/BSP/STM32F769I-Discovery/stm32f769i_discovery.c **** {
 299:Drivers/BSP/STM32F769I-Discovery/stm32f769i_discovery.c ****     GPIO_InitTypeDef gpio_init_structure;
 300:Drivers/BSP/STM32F769I-Discovery/stm32f769i_discovery.c **** 
 301:Drivers/BSP/STM32F769I-Discovery/stm32f769i_discovery.c ****     gpio_init_structure.Pin = BUTTON_PIN[Button];
 302:Drivers/BSP/STM32F769I-Discovery/stm32f769i_discovery.c ****     HAL_NVIC_DisableIRQ((IRQn_Type)(BUTTON_IRQn[Button]));
 303:Drivers/BSP/STM32F769I-Discovery/stm32f769i_discovery.c ****     HAL_GPIO_DeInit(BUTTON_PORT[Button], gpio_init_structure.Pin);
 304:Drivers/BSP/STM32F769I-Discovery/stm32f769i_discovery.c **** }
 305:Drivers/BSP/STM32F769I-Discovery/stm32f769i_discovery.c **** 
 306:Drivers/BSP/STM32F769I-Discovery/stm32f769i_discovery.c **** 
 307:Drivers/BSP/STM32F769I-Discovery/stm32f769i_discovery.c **** /**
 308:Drivers/BSP/STM32F769I-Discovery/stm32f769i_discovery.c ****   * @brief  Returns the selected button state.
 309:Drivers/BSP/STM32F769I-Discovery/stm32f769i_discovery.c ****   * @param  Button: Button to be checked
 310:Drivers/BSP/STM32F769I-Discovery/stm32f769i_discovery.c ****   *          This parameter can be one of the following values:
 311:Drivers/BSP/STM32F769I-Discovery/stm32f769i_discovery.c ****   *            @arg  BUTTON_WAKEUP: Wakeup Push Button
 312:Drivers/BSP/STM32F769I-Discovery/stm32f769i_discovery.c ****   *            @arg  BUTTON_USER: User Push Button
 313:Drivers/BSP/STM32F769I-Discovery/stm32f769i_discovery.c ****   * @retval The Button GPIO pin value
 314:Drivers/BSP/STM32F769I-Discovery/stm32f769i_discovery.c ****   */
 315:Drivers/BSP/STM32F769I-Discovery/stm32f769i_discovery.c **** uint32_t BSP_PB_GetState(Button_TypeDef Button)
 316:Drivers/BSP/STM32F769I-Discovery/stm32f769i_discovery.c **** {
ARM GAS  /var/folders/n6/c271nzx11xl4r4_m7sqjlt0m0000gn/T//ccyzxgNq.s 			page 7


 317:Drivers/BSP/STM32F769I-Discovery/stm32f769i_discovery.c ****   return HAL_GPIO_ReadPin(BUTTON_PORT[Button], BUTTON_PIN[Button]);
 318:Drivers/BSP/STM32F769I-Discovery/stm32f769i_discovery.c **** }
 319:Drivers/BSP/STM32F769I-Discovery/stm32f769i_discovery.c **** 
 320:Drivers/BSP/STM32F769I-Discovery/stm32f769i_discovery.c **** /**
 321:Drivers/BSP/STM32F769I-Discovery/stm32f769i_discovery.c ****   * @}
 322:Drivers/BSP/STM32F769I-Discovery/stm32f769i_discovery.c ****   */
 323:Drivers/BSP/STM32F769I-Discovery/stm32f769i_discovery.c **** 
 324:Drivers/BSP/STM32F769I-Discovery/stm32f769i_discovery.c **** /** @defgroup STM32F769I_DISCOVERY_LOW_LEVEL_Private_Functions STM32F769I_DISCOVERY_LOW_LEVEL Priva
 325:Drivers/BSP/STM32F769I-Discovery/stm32f769i_discovery.c ****   * @{
 326:Drivers/BSP/STM32F769I-Discovery/stm32f769i_discovery.c ****   */
 327:Drivers/BSP/STM32F769I-Discovery/stm32f769i_discovery.c **** 
 328:Drivers/BSP/STM32F769I-Discovery/stm32f769i_discovery.c **** 
 329:Drivers/BSP/STM32F769I-Discovery/stm32f769i_discovery.c **** /*******************************************************************************
 330:Drivers/BSP/STM32F769I-Discovery/stm32f769i_discovery.c ****                             BUS OPERATIONS
 331:Drivers/BSP/STM32F769I-Discovery/stm32f769i_discovery.c **** *******************************************************************************/
 332:Drivers/BSP/STM32F769I-Discovery/stm32f769i_discovery.c **** 
 333:Drivers/BSP/STM32F769I-Discovery/stm32f769i_discovery.c **** /******************************* I2C Routines *********************************/
 334:Drivers/BSP/STM32F769I-Discovery/stm32f769i_discovery.c **** /**
 335:Drivers/BSP/STM32F769I-Discovery/stm32f769i_discovery.c ****   * @brief  Initializes I2C MSP.
 336:Drivers/BSP/STM32F769I-Discovery/stm32f769i_discovery.c ****   * @param  i2c_handler : I2C handler
 337:Drivers/BSP/STM32F769I-Discovery/stm32f769i_discovery.c ****   * @retval None
 338:Drivers/BSP/STM32F769I-Discovery/stm32f769i_discovery.c ****   */
 339:Drivers/BSP/STM32F769I-Discovery/stm32f769i_discovery.c **** static void I2Cx_MspInit(I2C_HandleTypeDef *i2c_handler)
 340:Drivers/BSP/STM32F769I-Discovery/stm32f769i_discovery.c **** {
  28              		.loc 1 340 1 view -0
  29              		.cfi_startproc
  30              		@ args = 0, pretend = 0, frame = 40
  31              		@ frame_needed = 0, uses_anonymous_args = 0
  32              		.loc 1 340 1 is_stmt 0 view .LVU1
  33 0000 70B5     		push	{r4, r5, r6, lr}
  34              		.cfi_def_cfa_offset 16
  35              		.cfi_offset 4, -16
  36              		.cfi_offset 5, -12
  37              		.cfi_offset 6, -8
  38              		.cfi_offset 14, -4
  39 0002 8AB0     		sub	sp, sp, #40
  40              		.cfi_def_cfa_offset 56
 341:Drivers/BSP/STM32F769I-Discovery/stm32f769i_discovery.c ****   GPIO_InitTypeDef  gpio_init_structure;
  41              		.loc 1 341 3 is_stmt 1 view .LVU2
 342:Drivers/BSP/STM32F769I-Discovery/stm32f769i_discovery.c **** 
 343:Drivers/BSP/STM32F769I-Discovery/stm32f769i_discovery.c ****   if (i2c_handler == (I2C_HandleTypeDef*)(&hI2cAudioHandler))
  42              		.loc 1 343 3 view .LVU3
  43              		.loc 1 343 6 is_stmt 0 view .LVU4
  44 0004 494B     		ldr	r3, .L6
  45 0006 8342     		cmp	r3, r0
  46 0008 43D0     		beq	.L5
 344:Drivers/BSP/STM32F769I-Discovery/stm32f769i_discovery.c ****   {
 345:Drivers/BSP/STM32F769I-Discovery/stm32f769i_discovery.c ****   /*** Configure the GPIOs ***/
 346:Drivers/BSP/STM32F769I-Discovery/stm32f769i_discovery.c ****   /* Enable GPIO clock */
 347:Drivers/BSP/STM32F769I-Discovery/stm32f769i_discovery.c ****   DISCOVERY_AUDIO_I2Cx_SCL_GPIO_CLK_ENABLE();
 348:Drivers/BSP/STM32F769I-Discovery/stm32f769i_discovery.c ****   DISCOVERY_AUDIO_I2Cx_SDA_GPIO_CLK_ENABLE();
 349:Drivers/BSP/STM32F769I-Discovery/stm32f769i_discovery.c ****   /* Configure I2C Tx as alternate function */
 350:Drivers/BSP/STM32F769I-Discovery/stm32f769i_discovery.c ****   gpio_init_structure.Pin = DISCOVERY_AUDIO_I2Cx_SCL_PIN;
 351:Drivers/BSP/STM32F769I-Discovery/stm32f769i_discovery.c ****   gpio_init_structure.Mode = GPIO_MODE_AF_OD;
 352:Drivers/BSP/STM32F769I-Discovery/stm32f769i_discovery.c ****   gpio_init_structure.Pull = GPIO_NOPULL;
 353:Drivers/BSP/STM32F769I-Discovery/stm32f769i_discovery.c ****   gpio_init_structure.Speed = GPIO_SPEED_FAST;
 354:Drivers/BSP/STM32F769I-Discovery/stm32f769i_discovery.c ****   gpio_init_structure.Alternate = DISCOVERY_AUDIO_I2Cx_SCL_AF;
ARM GAS  /var/folders/n6/c271nzx11xl4r4_m7sqjlt0m0000gn/T//ccyzxgNq.s 			page 8


 355:Drivers/BSP/STM32F769I-Discovery/stm32f769i_discovery.c ****   HAL_GPIO_Init(DISCOVERY_AUDIO_I2Cx_SCL_GPIO_PORT, &gpio_init_structure);
 356:Drivers/BSP/STM32F769I-Discovery/stm32f769i_discovery.c **** 
 357:Drivers/BSP/STM32F769I-Discovery/stm32f769i_discovery.c ****   /* Configure I2C Rx as alternate function */
 358:Drivers/BSP/STM32F769I-Discovery/stm32f769i_discovery.c ****   gpio_init_structure.Pin = DISCOVERY_AUDIO_I2Cx_SDA_PIN;
 359:Drivers/BSP/STM32F769I-Discovery/stm32f769i_discovery.c ****   gpio_init_structure.Alternate = DISCOVERY_AUDIO_I2Cx_SDA_AF;
 360:Drivers/BSP/STM32F769I-Discovery/stm32f769i_discovery.c ****   HAL_GPIO_Init(DISCOVERY_AUDIO_I2Cx_SDA_GPIO_PORT, &gpio_init_structure);
 361:Drivers/BSP/STM32F769I-Discovery/stm32f769i_discovery.c **** 
 362:Drivers/BSP/STM32F769I-Discovery/stm32f769i_discovery.c ****   /*** Configure the I2C peripheral ***/
 363:Drivers/BSP/STM32F769I-Discovery/stm32f769i_discovery.c ****   /* Enable I2C clock */
 364:Drivers/BSP/STM32F769I-Discovery/stm32f769i_discovery.c ****   DISCOVERY_AUDIO_I2Cx_CLK_ENABLE();
 365:Drivers/BSP/STM32F769I-Discovery/stm32f769i_discovery.c **** 
 366:Drivers/BSP/STM32F769I-Discovery/stm32f769i_discovery.c ****   /* Force the I2C peripheral clock reset */
 367:Drivers/BSP/STM32F769I-Discovery/stm32f769i_discovery.c ****   DISCOVERY_AUDIO_I2Cx_FORCE_RESET();
 368:Drivers/BSP/STM32F769I-Discovery/stm32f769i_discovery.c **** 
 369:Drivers/BSP/STM32F769I-Discovery/stm32f769i_discovery.c ****   /* Release the I2C peripheral clock reset */
 370:Drivers/BSP/STM32F769I-Discovery/stm32f769i_discovery.c ****   DISCOVERY_AUDIO_I2Cx_RELEASE_RESET();
 371:Drivers/BSP/STM32F769I-Discovery/stm32f769i_discovery.c **** 
 372:Drivers/BSP/STM32F769I-Discovery/stm32f769i_discovery.c ****   /* Enable and set I2C1 Interrupt to a lower priority */
 373:Drivers/BSP/STM32F769I-Discovery/stm32f769i_discovery.c ****   HAL_NVIC_SetPriority(DISCOVERY_AUDIO_I2Cx_EV_IRQn, 0x0F, 0);
 374:Drivers/BSP/STM32F769I-Discovery/stm32f769i_discovery.c ****   HAL_NVIC_EnableIRQ(DISCOVERY_AUDIO_I2Cx_EV_IRQn);
 375:Drivers/BSP/STM32F769I-Discovery/stm32f769i_discovery.c **** 
 376:Drivers/BSP/STM32F769I-Discovery/stm32f769i_discovery.c ****   /* Enable and set I2C1 Interrupt to a lower priority */
 377:Drivers/BSP/STM32F769I-Discovery/stm32f769i_discovery.c ****   HAL_NVIC_SetPriority(DISCOVERY_AUDIO_I2Cx_ER_IRQn, 0x0F, 0);
 378:Drivers/BSP/STM32F769I-Discovery/stm32f769i_discovery.c ****   HAL_NVIC_EnableIRQ(DISCOVERY_AUDIO_I2Cx_ER_IRQn);    
 379:Drivers/BSP/STM32F769I-Discovery/stm32f769i_discovery.c ****     
 380:Drivers/BSP/STM32F769I-Discovery/stm32f769i_discovery.c ****   }
 381:Drivers/BSP/STM32F769I-Discovery/stm32f769i_discovery.c ****   else
 382:Drivers/BSP/STM32F769I-Discovery/stm32f769i_discovery.c ****   {
 383:Drivers/BSP/STM32F769I-Discovery/stm32f769i_discovery.c ****   /*** Configure the GPIOs ***/
 384:Drivers/BSP/STM32F769I-Discovery/stm32f769i_discovery.c ****   /* Enable GPIO clock */
 385:Drivers/BSP/STM32F769I-Discovery/stm32f769i_discovery.c ****   DISCOVERY_EXT_I2Cx_SCL_SDA_GPIO_CLK_ENABLE();
  47              		.loc 1 385 3 is_stmt 1 view .LVU5
  48              	.LBB2:
  49              		.loc 1 385 3 view .LVU6
  50              		.loc 1 385 3 view .LVU7
  51 000a 494C     		ldr	r4, .L6+4
  52 000c 236B     		ldr	r3, [r4, #48]
  53 000e 43F00203 		orr	r3, r3, #2
  54 0012 2363     		str	r3, [r4, #48]
  55              		.loc 1 385 3 view .LVU8
  56 0014 236B     		ldr	r3, [r4, #48]
  57 0016 03F00203 		and	r3, r3, #2
  58 001a 0393     		str	r3, [sp, #12]
  59              		.loc 1 385 3 view .LVU9
  60 001c 039B     		ldr	r3, [sp, #12]
  61              	.LBE2:
  62              		.loc 1 385 3 view .LVU10
 386:Drivers/BSP/STM32F769I-Discovery/stm32f769i_discovery.c **** 
 387:Drivers/BSP/STM32F769I-Discovery/stm32f769i_discovery.c ****   /* Configure I2C Tx as alternate function */
 388:Drivers/BSP/STM32F769I-Discovery/stm32f769i_discovery.c ****   gpio_init_structure.Pin = DISCOVERY_EXT_I2Cx_SCL_PIN;
  63              		.loc 1 388 3 view .LVU11
  64              		.loc 1 388 27 is_stmt 0 view .LVU12
  65 001e 4FF48073 		mov	r3, #256
  66 0022 0593     		str	r3, [sp, #20]
 389:Drivers/BSP/STM32F769I-Discovery/stm32f769i_discovery.c ****   gpio_init_structure.Mode = GPIO_MODE_AF_OD;
  67              		.loc 1 389 3 is_stmt 1 view .LVU13
  68              		.loc 1 389 28 is_stmt 0 view .LVU14
ARM GAS  /var/folders/n6/c271nzx11xl4r4_m7sqjlt0m0000gn/T//ccyzxgNq.s 			page 9


  69 0024 1223     		movs	r3, #18
  70 0026 0693     		str	r3, [sp, #24]
 390:Drivers/BSP/STM32F769I-Discovery/stm32f769i_discovery.c ****   gpio_init_structure.Pull = GPIO_NOPULL;
  71              		.loc 1 390 3 is_stmt 1 view .LVU15
  72              		.loc 1 390 28 is_stmt 0 view .LVU16
  73 0028 0025     		movs	r5, #0
  74 002a 0795     		str	r5, [sp, #28]
 391:Drivers/BSP/STM32F769I-Discovery/stm32f769i_discovery.c ****   gpio_init_structure.Speed = GPIO_SPEED_FAST;
  75              		.loc 1 391 3 is_stmt 1 view .LVU17
  76              		.loc 1 391 29 is_stmt 0 view .LVU18
  77 002c 0223     		movs	r3, #2
  78 002e 0893     		str	r3, [sp, #32]
 392:Drivers/BSP/STM32F769I-Discovery/stm32f769i_discovery.c ****   gpio_init_structure.Alternate = DISCOVERY_EXT_I2Cx_SCL_SDA_AF;
  79              		.loc 1 392 3 is_stmt 1 view .LVU19
  80              		.loc 1 392 33 is_stmt 0 view .LVU20
  81 0030 0423     		movs	r3, #4
  82 0032 0993     		str	r3, [sp, #36]
 393:Drivers/BSP/STM32F769I-Discovery/stm32f769i_discovery.c ****   HAL_GPIO_Init(DISCOVERY_EXT_I2Cx_SCL_SDA_GPIO_PORT, &gpio_init_structure);
  83              		.loc 1 393 3 is_stmt 1 view .LVU21
  84 0034 3F4E     		ldr	r6, .L6+8
  85 0036 05A9     		add	r1, sp, #20
  86 0038 3046     		mov	r0, r6
  87              	.LVL1:
  88              		.loc 1 393 3 is_stmt 0 view .LVU22
  89 003a FFF7FEFF 		bl	HAL_GPIO_Init
  90              	.LVL2:
 394:Drivers/BSP/STM32F769I-Discovery/stm32f769i_discovery.c **** 
 395:Drivers/BSP/STM32F769I-Discovery/stm32f769i_discovery.c ****   /* Configure I2C Rx as alternate function */
 396:Drivers/BSP/STM32F769I-Discovery/stm32f769i_discovery.c ****   gpio_init_structure.Pin = DISCOVERY_EXT_I2Cx_SDA_PIN;
  91              		.loc 1 396 3 is_stmt 1 view .LVU23
  92              		.loc 1 396 27 is_stmt 0 view .LVU24
  93 003e 4FF40073 		mov	r3, #512
  94 0042 0593     		str	r3, [sp, #20]
 397:Drivers/BSP/STM32F769I-Discovery/stm32f769i_discovery.c ****   HAL_GPIO_Init(DISCOVERY_EXT_I2Cx_SCL_SDA_GPIO_PORT, &gpio_init_structure);
  95              		.loc 1 397 3 is_stmt 1 view .LVU25
  96 0044 05A9     		add	r1, sp, #20
  97 0046 3046     		mov	r0, r6
  98 0048 FFF7FEFF 		bl	HAL_GPIO_Init
  99              	.LVL3:
 398:Drivers/BSP/STM32F769I-Discovery/stm32f769i_discovery.c **** 
 399:Drivers/BSP/STM32F769I-Discovery/stm32f769i_discovery.c ****   /*** Configure the I2C peripheral ***/
 400:Drivers/BSP/STM32F769I-Discovery/stm32f769i_discovery.c ****   /* Enable I2C clock */
 401:Drivers/BSP/STM32F769I-Discovery/stm32f769i_discovery.c ****   DISCOVERY_EXT_I2Cx_CLK_ENABLE();
 100              		.loc 1 401 3 view .LVU26
 101              	.LBB3:
 102              		.loc 1 401 3 view .LVU27
 103              		.loc 1 401 3 view .LVU28
 104 004c 236C     		ldr	r3, [r4, #64]
 105 004e 43F40013 		orr	r3, r3, #2097152
 106 0052 2364     		str	r3, [r4, #64]
 107              		.loc 1 401 3 view .LVU29
 108 0054 236C     		ldr	r3, [r4, #64]
 109 0056 03F40013 		and	r3, r3, #2097152
 110 005a 0493     		str	r3, [sp, #16]
 111              		.loc 1 401 3 view .LVU30
 112 005c 049B     		ldr	r3, [sp, #16]
 113              	.LBE3:
ARM GAS  /var/folders/n6/c271nzx11xl4r4_m7sqjlt0m0000gn/T//ccyzxgNq.s 			page 10


 114              		.loc 1 401 3 view .LVU31
 402:Drivers/BSP/STM32F769I-Discovery/stm32f769i_discovery.c **** 
 403:Drivers/BSP/STM32F769I-Discovery/stm32f769i_discovery.c ****   /* Force the I2C peripheral clock reset */
 404:Drivers/BSP/STM32F769I-Discovery/stm32f769i_discovery.c ****   DISCOVERY_EXT_I2Cx_FORCE_RESET();
 115              		.loc 1 404 3 view .LVU32
 116 005e 236A     		ldr	r3, [r4, #32]
 117 0060 43F40013 		orr	r3, r3, #2097152
 118 0064 2362     		str	r3, [r4, #32]
 405:Drivers/BSP/STM32F769I-Discovery/stm32f769i_discovery.c **** 
 406:Drivers/BSP/STM32F769I-Discovery/stm32f769i_discovery.c ****   /* Release the I2C peripheral clock reset */
 407:Drivers/BSP/STM32F769I-Discovery/stm32f769i_discovery.c ****   DISCOVERY_EXT_I2Cx_RELEASE_RESET();
 119              		.loc 1 407 3 view .LVU33
 120 0066 236A     		ldr	r3, [r4, #32]
 121 0068 23F40013 		bic	r3, r3, #2097152
 122 006c 2362     		str	r3, [r4, #32]
 408:Drivers/BSP/STM32F769I-Discovery/stm32f769i_discovery.c **** 
 409:Drivers/BSP/STM32F769I-Discovery/stm32f769i_discovery.c ****   /* Enable and set I2C1 Interrupt to a lower priority */
 410:Drivers/BSP/STM32F769I-Discovery/stm32f769i_discovery.c ****   HAL_NVIC_SetPriority(DISCOVERY_EXT_I2Cx_EV_IRQn, 0x0F, 0);
 123              		.loc 1 410 3 view .LVU34
 124 006e 2A46     		mov	r2, r5
 125 0070 0F21     		movs	r1, #15
 126 0072 1F20     		movs	r0, #31
 127 0074 FFF7FEFF 		bl	HAL_NVIC_SetPriority
 128              	.LVL4:
 411:Drivers/BSP/STM32F769I-Discovery/stm32f769i_discovery.c ****   HAL_NVIC_EnableIRQ(DISCOVERY_EXT_I2Cx_EV_IRQn);
 129              		.loc 1 411 3 view .LVU35
 130 0078 1F20     		movs	r0, #31
 131 007a FFF7FEFF 		bl	HAL_NVIC_EnableIRQ
 132              	.LVL5:
 412:Drivers/BSP/STM32F769I-Discovery/stm32f769i_discovery.c **** 
 413:Drivers/BSP/STM32F769I-Discovery/stm32f769i_discovery.c ****   /* Enable and set I2C1 Interrupt to a lower priority */
 414:Drivers/BSP/STM32F769I-Discovery/stm32f769i_discovery.c ****   HAL_NVIC_SetPriority(DISCOVERY_EXT_I2Cx_ER_IRQn, 0x0F, 0);
 133              		.loc 1 414 3 view .LVU36
 134 007e 2A46     		mov	r2, r5
 135 0080 0F21     		movs	r1, #15
 136 0082 2020     		movs	r0, #32
 137 0084 FFF7FEFF 		bl	HAL_NVIC_SetPriority
 138              	.LVL6:
 415:Drivers/BSP/STM32F769I-Discovery/stm32f769i_discovery.c ****   HAL_NVIC_EnableIRQ(DISCOVERY_EXT_I2Cx_ER_IRQn);
 139              		.loc 1 415 3 view .LVU37
 140 0088 2020     		movs	r0, #32
 141 008a FFF7FEFF 		bl	HAL_NVIC_EnableIRQ
 142              	.LVL7:
 143              	.L1:
 416:Drivers/BSP/STM32F769I-Discovery/stm32f769i_discovery.c ****   }
 417:Drivers/BSP/STM32F769I-Discovery/stm32f769i_discovery.c **** }
 144              		.loc 1 417 1 is_stmt 0 view .LVU38
 145 008e 0AB0     		add	sp, sp, #40
 146              		.cfi_remember_state
 147              		.cfi_def_cfa_offset 16
 148              		@ sp needed
 149 0090 70BD     		pop	{r4, r5, r6, pc}
 150              	.LVL8:
 151              	.L5:
 152              		.cfi_restore_state
 347:Drivers/BSP/STM32F769I-Discovery/stm32f769i_discovery.c ****   DISCOVERY_AUDIO_I2Cx_SDA_GPIO_CLK_ENABLE();
 153              		.loc 1 347 3 is_stmt 1 view .LVU39
ARM GAS  /var/folders/n6/c271nzx11xl4r4_m7sqjlt0m0000gn/T//ccyzxgNq.s 			page 11


 154              	.LBB4:
 347:Drivers/BSP/STM32F769I-Discovery/stm32f769i_discovery.c ****   DISCOVERY_AUDIO_I2Cx_SDA_GPIO_CLK_ENABLE();
 155              		.loc 1 347 3 view .LVU40
 347:Drivers/BSP/STM32F769I-Discovery/stm32f769i_discovery.c ****   DISCOVERY_AUDIO_I2Cx_SDA_GPIO_CLK_ENABLE();
 156              		.loc 1 347 3 view .LVU41
 157 0092 274C     		ldr	r4, .L6+4
 158 0094 236B     		ldr	r3, [r4, #48]
 159 0096 43F00803 		orr	r3, r3, #8
 160 009a 2363     		str	r3, [r4, #48]
 347:Drivers/BSP/STM32F769I-Discovery/stm32f769i_discovery.c ****   DISCOVERY_AUDIO_I2Cx_SDA_GPIO_CLK_ENABLE();
 161              		.loc 1 347 3 view .LVU42
 162 009c 236B     		ldr	r3, [r4, #48]
 163 009e 03F00803 		and	r3, r3, #8
 164 00a2 0093     		str	r3, [sp]
 347:Drivers/BSP/STM32F769I-Discovery/stm32f769i_discovery.c ****   DISCOVERY_AUDIO_I2Cx_SDA_GPIO_CLK_ENABLE();
 165              		.loc 1 347 3 view .LVU43
 166 00a4 009B     		ldr	r3, [sp]
 167              	.LBE4:
 347:Drivers/BSP/STM32F769I-Discovery/stm32f769i_discovery.c ****   DISCOVERY_AUDIO_I2Cx_SDA_GPIO_CLK_ENABLE();
 168              		.loc 1 347 3 view .LVU44
 348:Drivers/BSP/STM32F769I-Discovery/stm32f769i_discovery.c ****   /* Configure I2C Tx as alternate function */
 169              		.loc 1 348 3 view .LVU45
 170              	.LBB5:
 348:Drivers/BSP/STM32F769I-Discovery/stm32f769i_discovery.c ****   /* Configure I2C Tx as alternate function */
 171              		.loc 1 348 3 view .LVU46
 348:Drivers/BSP/STM32F769I-Discovery/stm32f769i_discovery.c ****   /* Configure I2C Tx as alternate function */
 172              		.loc 1 348 3 view .LVU47
 173 00a6 236B     		ldr	r3, [r4, #48]
 174 00a8 43F00203 		orr	r3, r3, #2
 175 00ac 2363     		str	r3, [r4, #48]
 348:Drivers/BSP/STM32F769I-Discovery/stm32f769i_discovery.c ****   /* Configure I2C Tx as alternate function */
 176              		.loc 1 348 3 view .LVU48
 177 00ae 236B     		ldr	r3, [r4, #48]
 178 00b0 03F00203 		and	r3, r3, #2
 179 00b4 0193     		str	r3, [sp, #4]
 348:Drivers/BSP/STM32F769I-Discovery/stm32f769i_discovery.c ****   /* Configure I2C Tx as alternate function */
 180              		.loc 1 348 3 view .LVU49
 181 00b6 019B     		ldr	r3, [sp, #4]
 182              	.LBE5:
 348:Drivers/BSP/STM32F769I-Discovery/stm32f769i_discovery.c ****   /* Configure I2C Tx as alternate function */
 183              		.loc 1 348 3 view .LVU50
 350:Drivers/BSP/STM32F769I-Discovery/stm32f769i_discovery.c ****   gpio_init_structure.Mode = GPIO_MODE_AF_OD;
 184              		.loc 1 350 3 view .LVU51
 350:Drivers/BSP/STM32F769I-Discovery/stm32f769i_discovery.c ****   gpio_init_structure.Mode = GPIO_MODE_AF_OD;
 185              		.loc 1 350 27 is_stmt 0 view .LVU52
 186 00b8 4FF48053 		mov	r3, #4096
 187 00bc 0593     		str	r3, [sp, #20]
 351:Drivers/BSP/STM32F769I-Discovery/stm32f769i_discovery.c ****   gpio_init_structure.Pull = GPIO_NOPULL;
 188              		.loc 1 351 3 is_stmt 1 view .LVU53
 351:Drivers/BSP/STM32F769I-Discovery/stm32f769i_discovery.c ****   gpio_init_structure.Pull = GPIO_NOPULL;
 189              		.loc 1 351 28 is_stmt 0 view .LVU54
 190 00be 1223     		movs	r3, #18
 191 00c0 0693     		str	r3, [sp, #24]
 352:Drivers/BSP/STM32F769I-Discovery/stm32f769i_discovery.c ****   gpio_init_structure.Speed = GPIO_SPEED_FAST;
 192              		.loc 1 352 3 is_stmt 1 view .LVU55
 352:Drivers/BSP/STM32F769I-Discovery/stm32f769i_discovery.c ****   gpio_init_structure.Speed = GPIO_SPEED_FAST;
 193              		.loc 1 352 28 is_stmt 0 view .LVU56
ARM GAS  /var/folders/n6/c271nzx11xl4r4_m7sqjlt0m0000gn/T//ccyzxgNq.s 			page 12


 194 00c2 0025     		movs	r5, #0
 195 00c4 0795     		str	r5, [sp, #28]
 353:Drivers/BSP/STM32F769I-Discovery/stm32f769i_discovery.c ****   gpio_init_structure.Alternate = DISCOVERY_AUDIO_I2Cx_SCL_AF;
 196              		.loc 1 353 3 is_stmt 1 view .LVU57
 353:Drivers/BSP/STM32F769I-Discovery/stm32f769i_discovery.c ****   gpio_init_structure.Alternate = DISCOVERY_AUDIO_I2Cx_SCL_AF;
 197              		.loc 1 353 29 is_stmt 0 view .LVU58
 198 00c6 0223     		movs	r3, #2
 199 00c8 0893     		str	r3, [sp, #32]
 354:Drivers/BSP/STM32F769I-Discovery/stm32f769i_discovery.c ****   HAL_GPIO_Init(DISCOVERY_AUDIO_I2Cx_SCL_GPIO_PORT, &gpio_init_structure);
 200              		.loc 1 354 3 is_stmt 1 view .LVU59
 354:Drivers/BSP/STM32F769I-Discovery/stm32f769i_discovery.c ****   HAL_GPIO_Init(DISCOVERY_AUDIO_I2Cx_SCL_GPIO_PORT, &gpio_init_structure);
 201              		.loc 1 354 33 is_stmt 0 view .LVU60
 202 00ca 0423     		movs	r3, #4
 203 00cc 0993     		str	r3, [sp, #36]
 355:Drivers/BSP/STM32F769I-Discovery/stm32f769i_discovery.c **** 
 204              		.loc 1 355 3 is_stmt 1 view .LVU61
 205 00ce 05A9     		add	r1, sp, #20
 206 00d0 1948     		ldr	r0, .L6+12
 207              	.LVL9:
 355:Drivers/BSP/STM32F769I-Discovery/stm32f769i_discovery.c **** 
 208              		.loc 1 355 3 is_stmt 0 view .LVU62
 209 00d2 FFF7FEFF 		bl	HAL_GPIO_Init
 210              	.LVL10:
 358:Drivers/BSP/STM32F769I-Discovery/stm32f769i_discovery.c ****   gpio_init_structure.Alternate = DISCOVERY_AUDIO_I2Cx_SDA_AF;
 211              		.loc 1 358 3 is_stmt 1 view .LVU63
 358:Drivers/BSP/STM32F769I-Discovery/stm32f769i_discovery.c ****   gpio_init_structure.Alternate = DISCOVERY_AUDIO_I2Cx_SDA_AF;
 212              		.loc 1 358 27 is_stmt 0 view .LVU64
 213 00d6 8023     		movs	r3, #128
 214 00d8 0593     		str	r3, [sp, #20]
 359:Drivers/BSP/STM32F769I-Discovery/stm32f769i_discovery.c ****   HAL_GPIO_Init(DISCOVERY_AUDIO_I2Cx_SDA_GPIO_PORT, &gpio_init_structure);
 215              		.loc 1 359 3 is_stmt 1 view .LVU65
 359:Drivers/BSP/STM32F769I-Discovery/stm32f769i_discovery.c ****   HAL_GPIO_Init(DISCOVERY_AUDIO_I2Cx_SDA_GPIO_PORT, &gpio_init_structure);
 216              		.loc 1 359 33 is_stmt 0 view .LVU66
 217 00da 0B23     		movs	r3, #11
 218 00dc 0993     		str	r3, [sp, #36]
 360:Drivers/BSP/STM32F769I-Discovery/stm32f769i_discovery.c **** 
 219              		.loc 1 360 3 is_stmt 1 view .LVU67
 220 00de 05A9     		add	r1, sp, #20
 221 00e0 1448     		ldr	r0, .L6+8
 222 00e2 FFF7FEFF 		bl	HAL_GPIO_Init
 223              	.LVL11:
 364:Drivers/BSP/STM32F769I-Discovery/stm32f769i_discovery.c **** 
 224              		.loc 1 364 3 view .LVU68
 225              	.LBB6:
 364:Drivers/BSP/STM32F769I-Discovery/stm32f769i_discovery.c **** 
 226              		.loc 1 364 3 view .LVU69
 364:Drivers/BSP/STM32F769I-Discovery/stm32f769i_discovery.c **** 
 227              		.loc 1 364 3 view .LVU70
 228 00e6 236C     		ldr	r3, [r4, #64]
 229 00e8 43F08073 		orr	r3, r3, #16777216
 230 00ec 2364     		str	r3, [r4, #64]
 364:Drivers/BSP/STM32F769I-Discovery/stm32f769i_discovery.c **** 
 231              		.loc 1 364 3 view .LVU71
 232 00ee 236C     		ldr	r3, [r4, #64]
 233 00f0 03F08073 		and	r3, r3, #16777216
 234 00f4 0293     		str	r3, [sp, #8]
 364:Drivers/BSP/STM32F769I-Discovery/stm32f769i_discovery.c **** 
ARM GAS  /var/folders/n6/c271nzx11xl4r4_m7sqjlt0m0000gn/T//ccyzxgNq.s 			page 13


 235              		.loc 1 364 3 view .LVU72
 236 00f6 029B     		ldr	r3, [sp, #8]
 237              	.LBE6:
 364:Drivers/BSP/STM32F769I-Discovery/stm32f769i_discovery.c **** 
 238              		.loc 1 364 3 view .LVU73
 367:Drivers/BSP/STM32F769I-Discovery/stm32f769i_discovery.c **** 
 239              		.loc 1 367 3 view .LVU74
 240 00f8 236A     		ldr	r3, [r4, #32]
 241 00fa 43F08073 		orr	r3, r3, #16777216
 242 00fe 2362     		str	r3, [r4, #32]
 370:Drivers/BSP/STM32F769I-Discovery/stm32f769i_discovery.c **** 
 243              		.loc 1 370 3 view .LVU75
 244 0100 236A     		ldr	r3, [r4, #32]
 245 0102 23F08073 		bic	r3, r3, #16777216
 246 0106 2362     		str	r3, [r4, #32]
 373:Drivers/BSP/STM32F769I-Discovery/stm32f769i_discovery.c ****   HAL_NVIC_EnableIRQ(DISCOVERY_AUDIO_I2Cx_EV_IRQn);
 247              		.loc 1 373 3 view .LVU76
 248 0108 2A46     		mov	r2, r5
 249 010a 0F21     		movs	r1, #15
 250 010c 5F20     		movs	r0, #95
 251 010e FFF7FEFF 		bl	HAL_NVIC_SetPriority
 252              	.LVL12:
 374:Drivers/BSP/STM32F769I-Discovery/stm32f769i_discovery.c **** 
 253              		.loc 1 374 3 view .LVU77
 254 0112 5F20     		movs	r0, #95
 255 0114 FFF7FEFF 		bl	HAL_NVIC_EnableIRQ
 256              	.LVL13:
 377:Drivers/BSP/STM32F769I-Discovery/stm32f769i_discovery.c ****   HAL_NVIC_EnableIRQ(DISCOVERY_AUDIO_I2Cx_ER_IRQn);    
 257              		.loc 1 377 3 view .LVU78
 258 0118 2A46     		mov	r2, r5
 259 011a 0F21     		movs	r1, #15
 260 011c 6020     		movs	r0, #96
 261 011e FFF7FEFF 		bl	HAL_NVIC_SetPriority
 262              	.LVL14:
 378:Drivers/BSP/STM32F769I-Discovery/stm32f769i_discovery.c ****     
 263              		.loc 1 378 3 view .LVU79
 264 0122 6020     		movs	r0, #96
 265 0124 FFF7FEFF 		bl	HAL_NVIC_EnableIRQ
 266              	.LVL15:
 267 0128 B1E7     		b	.L1
 268              	.L7:
 269 012a 00BF     		.align	2
 270              	.L6:
 271 012c 00000000 		.word	hI2cAudioHandler
 272 0130 00380240 		.word	1073887232
 273 0134 00040240 		.word	1073873920
 274 0138 000C0240 		.word	1073875968
 275              		.cfi_endproc
 276              	.LFE150:
 278              		.section	.text.I2Cx_Init,"ax",%progbits
 279              		.align	1
 280              		.syntax unified
 281              		.thumb
 282              		.thumb_func
 284              	I2Cx_Init:
 285              	.LVL16:
 286              	.LFB151:
ARM GAS  /var/folders/n6/c271nzx11xl4r4_m7sqjlt0m0000gn/T//ccyzxgNq.s 			page 14


 418:Drivers/BSP/STM32F769I-Discovery/stm32f769i_discovery.c **** 
 419:Drivers/BSP/STM32F769I-Discovery/stm32f769i_discovery.c **** /**
 420:Drivers/BSP/STM32F769I-Discovery/stm32f769i_discovery.c ****   * @brief  Initializes I2C HAL.
 421:Drivers/BSP/STM32F769I-Discovery/stm32f769i_discovery.c ****   * @param  i2c_handler : I2C handler
 422:Drivers/BSP/STM32F769I-Discovery/stm32f769i_discovery.c ****   * @retval None
 423:Drivers/BSP/STM32F769I-Discovery/stm32f769i_discovery.c ****   */
 424:Drivers/BSP/STM32F769I-Discovery/stm32f769i_discovery.c **** static void I2Cx_Init(I2C_HandleTypeDef *i2c_handler)
 425:Drivers/BSP/STM32F769I-Discovery/stm32f769i_discovery.c **** {
 287              		.loc 1 425 1 view -0
 288              		.cfi_startproc
 289              		@ args = 0, pretend = 0, frame = 0
 290              		@ frame_needed = 0, uses_anonymous_args = 0
 291              		.loc 1 425 1 is_stmt 0 view .LVU81
 292 0000 10B5     		push	{r4, lr}
 293              		.cfi_def_cfa_offset 8
 294              		.cfi_offset 4, -8
 295              		.cfi_offset 14, -4
 296 0002 0446     		mov	r4, r0
 426:Drivers/BSP/STM32F769I-Discovery/stm32f769i_discovery.c ****   if(HAL_I2C_GetState(i2c_handler) == HAL_I2C_STATE_RESET)
 297              		.loc 1 426 3 is_stmt 1 view .LVU82
 298              		.loc 1 426 6 is_stmt 0 view .LVU83
 299 0004 FFF7FEFF 		bl	HAL_I2C_GetState
 300              	.LVL17:
 301              		.loc 1 426 5 discriminator 1 view .LVU84
 302 0008 A0B9     		cbnz	r0, .L8
 427:Drivers/BSP/STM32F769I-Discovery/stm32f769i_discovery.c ****   {
 428:Drivers/BSP/STM32F769I-Discovery/stm32f769i_discovery.c ****     if (i2c_handler == (I2C_HandleTypeDef*)(&hI2cAudioHandler))
 303              		.loc 1 428 5 is_stmt 1 view .LVU85
 304              		.loc 1 428 8 is_stmt 0 view .LVU86
 305 000a 0C4B     		ldr	r3, .L14
 306 000c 9C42     		cmp	r4, r3
 307 000e 12D0     		beq	.L13
 429:Drivers/BSP/STM32F769I-Discovery/stm32f769i_discovery.c ****     {
 430:Drivers/BSP/STM32F769I-Discovery/stm32f769i_discovery.c ****       /* Audio and LCD I2C configuration */
 431:Drivers/BSP/STM32F769I-Discovery/stm32f769i_discovery.c ****       i2c_handler->Instance = DISCOVERY_AUDIO_I2Cx;
 432:Drivers/BSP/STM32F769I-Discovery/stm32f769i_discovery.c ****     }
 433:Drivers/BSP/STM32F769I-Discovery/stm32f769i_discovery.c ****     else
 434:Drivers/BSP/STM32F769I-Discovery/stm32f769i_discovery.c ****     {
 435:Drivers/BSP/STM32F769I-Discovery/stm32f769i_discovery.c ****       /* External, camera and Arduino connector  I2C configuration */
 436:Drivers/BSP/STM32F769I-Discovery/stm32f769i_discovery.c ****       i2c_handler->Instance = DISCOVERY_EXT_I2Cx;
 308              		.loc 1 436 7 is_stmt 1 view .LVU87
 309              		.loc 1 436 29 is_stmt 0 view .LVU88
 310 0010 0B4B     		ldr	r3, .L14+4
 311 0012 2360     		str	r3, [r4]
 312              	.L11:
 437:Drivers/BSP/STM32F769I-Discovery/stm32f769i_discovery.c ****     }
 438:Drivers/BSP/STM32F769I-Discovery/stm32f769i_discovery.c ****     i2c_handler->Init.Timing           = DISCOVERY_I2Cx_TIMING;
 313              		.loc 1 438 5 is_stmt 1 view .LVU89
 314              		.loc 1 438 40 is_stmt 0 view .LVU90
 315 0014 0B4B     		ldr	r3, .L14+8
 316 0016 6360     		str	r3, [r4, #4]
 439:Drivers/BSP/STM32F769I-Discovery/stm32f769i_discovery.c ****     i2c_handler->Init.OwnAddress1      = 0;
 317              		.loc 1 439 5 is_stmt 1 view .LVU91
 318              		.loc 1 439 40 is_stmt 0 view .LVU92
 319 0018 0023     		movs	r3, #0
 320 001a A360     		str	r3, [r4, #8]
 440:Drivers/BSP/STM32F769I-Discovery/stm32f769i_discovery.c ****     i2c_handler->Init.AddressingMode   = I2C_ADDRESSINGMODE_7BIT;
ARM GAS  /var/folders/n6/c271nzx11xl4r4_m7sqjlt0m0000gn/T//ccyzxgNq.s 			page 15


 321              		.loc 1 440 5 is_stmt 1 view .LVU93
 322              		.loc 1 440 40 is_stmt 0 view .LVU94
 323 001c 0122     		movs	r2, #1
 324 001e E260     		str	r2, [r4, #12]
 441:Drivers/BSP/STM32F769I-Discovery/stm32f769i_discovery.c ****     i2c_handler->Init.DualAddressMode  = I2C_DUALADDRESS_DISABLE;
 325              		.loc 1 441 5 is_stmt 1 view .LVU95
 326              		.loc 1 441 40 is_stmt 0 view .LVU96
 327 0020 2361     		str	r3, [r4, #16]
 442:Drivers/BSP/STM32F769I-Discovery/stm32f769i_discovery.c ****     i2c_handler->Init.OwnAddress2      = 0;
 328              		.loc 1 442 5 is_stmt 1 view .LVU97
 329              		.loc 1 442 40 is_stmt 0 view .LVU98
 330 0022 6361     		str	r3, [r4, #20]
 443:Drivers/BSP/STM32F769I-Discovery/stm32f769i_discovery.c ****     i2c_handler->Init.GeneralCallMode  = I2C_GENERALCALL_DISABLE;
 331              		.loc 1 443 5 is_stmt 1 view .LVU99
 332              		.loc 1 443 40 is_stmt 0 view .LVU100
 333 0024 E361     		str	r3, [r4, #28]
 444:Drivers/BSP/STM32F769I-Discovery/stm32f769i_discovery.c ****     i2c_handler->Init.NoStretchMode    = I2C_NOSTRETCH_DISABLE;
 334              		.loc 1 444 5 is_stmt 1 view .LVU101
 335              		.loc 1 444 40 is_stmt 0 view .LVU102
 336 0026 2362     		str	r3, [r4, #32]
 445:Drivers/BSP/STM32F769I-Discovery/stm32f769i_discovery.c **** 
 446:Drivers/BSP/STM32F769I-Discovery/stm32f769i_discovery.c ****     /* Init the I2C */
 447:Drivers/BSP/STM32F769I-Discovery/stm32f769i_discovery.c ****     I2Cx_MspInit(i2c_handler);
 337              		.loc 1 447 5 is_stmt 1 view .LVU103
 338 0028 2046     		mov	r0, r4
 339 002a FFF7FEFF 		bl	I2Cx_MspInit
 340              	.LVL18:
 448:Drivers/BSP/STM32F769I-Discovery/stm32f769i_discovery.c ****     HAL_I2C_Init(i2c_handler);
 341              		.loc 1 448 5 view .LVU104
 342 002e 2046     		mov	r0, r4
 343 0030 FFF7FEFF 		bl	HAL_I2C_Init
 344              	.LVL19:
 345              	.L8:
 449:Drivers/BSP/STM32F769I-Discovery/stm32f769i_discovery.c ****   }
 450:Drivers/BSP/STM32F769I-Discovery/stm32f769i_discovery.c **** }
 346              		.loc 1 450 1 is_stmt 0 view .LVU105
 347 0034 10BD     		pop	{r4, pc}
 348              	.LVL20:
 349              	.L13:
 431:Drivers/BSP/STM32F769I-Discovery/stm32f769i_discovery.c ****     }
 350              		.loc 1 431 7 is_stmt 1 view .LVU106
 431:Drivers/BSP/STM32F769I-Discovery/stm32f769i_discovery.c ****     }
 351              		.loc 1 431 29 is_stmt 0 view .LVU107
 352 0036 044B     		ldr	r3, .L14+12
 353 0038 2360     		str	r3, [r4]
 354 003a EBE7     		b	.L11
 355              	.L15:
 356              		.align	2
 357              	.L14:
 358 003c 00000000 		.word	hI2cAudioHandler
 359 0040 00540040 		.word	1073763328
 360 0044 32279140 		.word	1083254578
 361 0048 00600040 		.word	1073766400
 362              		.cfi_endproc
 363              	.LFE151:
 365              		.section	.text.I2Cx_Error,"ax",%progbits
 366              		.align	1
ARM GAS  /var/folders/n6/c271nzx11xl4r4_m7sqjlt0m0000gn/T//ccyzxgNq.s 			page 16


 367              		.syntax unified
 368              		.thumb
 369              		.thumb_func
 371              	I2Cx_Error:
 372              	.LVL21:
 373              	.LFB155:
 451:Drivers/BSP/STM32F769I-Discovery/stm32f769i_discovery.c **** 
 452:Drivers/BSP/STM32F769I-Discovery/stm32f769i_discovery.c **** /**
 453:Drivers/BSP/STM32F769I-Discovery/stm32f769i_discovery.c ****   * @brief  Reads multiple data.
 454:Drivers/BSP/STM32F769I-Discovery/stm32f769i_discovery.c ****   * @param  i2c_handler : I2C handler
 455:Drivers/BSP/STM32F769I-Discovery/stm32f769i_discovery.c ****   * @param  Addr: I2C address
 456:Drivers/BSP/STM32F769I-Discovery/stm32f769i_discovery.c ****   * @param  Reg: Reg address
 457:Drivers/BSP/STM32F769I-Discovery/stm32f769i_discovery.c ****   * @param  MemAddress: memory address
 458:Drivers/BSP/STM32F769I-Discovery/stm32f769i_discovery.c ****   * @param  Buffer: Pointer to data buffer
 459:Drivers/BSP/STM32F769I-Discovery/stm32f769i_discovery.c ****   * @param  Length: Length of the data
 460:Drivers/BSP/STM32F769I-Discovery/stm32f769i_discovery.c ****   * @retval HAL status
 461:Drivers/BSP/STM32F769I-Discovery/stm32f769i_discovery.c ****   */
 462:Drivers/BSP/STM32F769I-Discovery/stm32f769i_discovery.c **** static HAL_StatusTypeDef I2Cx_ReadMultiple(I2C_HandleTypeDef *i2c_handler, uint8_t Addr, uint16_t R
 463:Drivers/BSP/STM32F769I-Discovery/stm32f769i_discovery.c **** {
 464:Drivers/BSP/STM32F769I-Discovery/stm32f769i_discovery.c ****   HAL_StatusTypeDef status = HAL_OK;
 465:Drivers/BSP/STM32F769I-Discovery/stm32f769i_discovery.c **** 
 466:Drivers/BSP/STM32F769I-Discovery/stm32f769i_discovery.c ****   status = HAL_I2C_Mem_Read(i2c_handler, Addr, (uint16_t)Reg, MemAddress, Buffer, Length, 1000);
 467:Drivers/BSP/STM32F769I-Discovery/stm32f769i_discovery.c **** 
 468:Drivers/BSP/STM32F769I-Discovery/stm32f769i_discovery.c ****   /* Check the communication status */
 469:Drivers/BSP/STM32F769I-Discovery/stm32f769i_discovery.c ****   if(status != HAL_OK)
 470:Drivers/BSP/STM32F769I-Discovery/stm32f769i_discovery.c ****   {
 471:Drivers/BSP/STM32F769I-Discovery/stm32f769i_discovery.c ****     /* I2C error occured */
 472:Drivers/BSP/STM32F769I-Discovery/stm32f769i_discovery.c ****     I2Cx_Error(i2c_handler, Addr);
 473:Drivers/BSP/STM32F769I-Discovery/stm32f769i_discovery.c ****   }
 474:Drivers/BSP/STM32F769I-Discovery/stm32f769i_discovery.c ****   return status;
 475:Drivers/BSP/STM32F769I-Discovery/stm32f769i_discovery.c **** }
 476:Drivers/BSP/STM32F769I-Discovery/stm32f769i_discovery.c **** 
 477:Drivers/BSP/STM32F769I-Discovery/stm32f769i_discovery.c **** 
 478:Drivers/BSP/STM32F769I-Discovery/stm32f769i_discovery.c **** /**
 479:Drivers/BSP/STM32F769I-Discovery/stm32f769i_discovery.c ****   * @brief  Writes a value in a register of the device through BUS in using DMA mode.
 480:Drivers/BSP/STM32F769I-Discovery/stm32f769i_discovery.c ****   * @param  i2c_handler : I2C handler
 481:Drivers/BSP/STM32F769I-Discovery/stm32f769i_discovery.c ****   * @param  Addr: Device address on BUS Bus.
 482:Drivers/BSP/STM32F769I-Discovery/stm32f769i_discovery.c ****   * @param  Reg: The target register address to write
 483:Drivers/BSP/STM32F769I-Discovery/stm32f769i_discovery.c ****   * @param  MemAddress: memory address
 484:Drivers/BSP/STM32F769I-Discovery/stm32f769i_discovery.c ****   * @param  Buffer: The target register value to be written
 485:Drivers/BSP/STM32F769I-Discovery/stm32f769i_discovery.c ****   * @param  Length: buffer size to be written
 486:Drivers/BSP/STM32F769I-Discovery/stm32f769i_discovery.c ****   * @retval HAL status
 487:Drivers/BSP/STM32F769I-Discovery/stm32f769i_discovery.c ****   */
 488:Drivers/BSP/STM32F769I-Discovery/stm32f769i_discovery.c **** static HAL_StatusTypeDef I2Cx_WriteMultiple(I2C_HandleTypeDef *i2c_handler, uint8_t Addr, uint16_t 
 489:Drivers/BSP/STM32F769I-Discovery/stm32f769i_discovery.c **** {
 490:Drivers/BSP/STM32F769I-Discovery/stm32f769i_discovery.c ****   HAL_StatusTypeDef status = HAL_OK;
 491:Drivers/BSP/STM32F769I-Discovery/stm32f769i_discovery.c **** 
 492:Drivers/BSP/STM32F769I-Discovery/stm32f769i_discovery.c ****   status = HAL_I2C_Mem_Write(i2c_handler, Addr, (uint16_t)Reg, MemAddress, Buffer, Length, 1000);
 493:Drivers/BSP/STM32F769I-Discovery/stm32f769i_discovery.c **** 
 494:Drivers/BSP/STM32F769I-Discovery/stm32f769i_discovery.c ****   /* Check the communication status */
 495:Drivers/BSP/STM32F769I-Discovery/stm32f769i_discovery.c ****   if(status != HAL_OK)
 496:Drivers/BSP/STM32F769I-Discovery/stm32f769i_discovery.c ****   {
 497:Drivers/BSP/STM32F769I-Discovery/stm32f769i_discovery.c ****     /* Re-Initiaize the I2C Bus */
 498:Drivers/BSP/STM32F769I-Discovery/stm32f769i_discovery.c ****     I2Cx_Error(i2c_handler, Addr);
 499:Drivers/BSP/STM32F769I-Discovery/stm32f769i_discovery.c ****   }
 500:Drivers/BSP/STM32F769I-Discovery/stm32f769i_discovery.c ****   return status;
 501:Drivers/BSP/STM32F769I-Discovery/stm32f769i_discovery.c **** }
ARM GAS  /var/folders/n6/c271nzx11xl4r4_m7sqjlt0m0000gn/T//ccyzxgNq.s 			page 17


 502:Drivers/BSP/STM32F769I-Discovery/stm32f769i_discovery.c **** 
 503:Drivers/BSP/STM32F769I-Discovery/stm32f769i_discovery.c **** /**
 504:Drivers/BSP/STM32F769I-Discovery/stm32f769i_discovery.c ****   * @brief  Checks if target device is ready for communication. 
 505:Drivers/BSP/STM32F769I-Discovery/stm32f769i_discovery.c ****   * @note   This function is used with Memory devices
 506:Drivers/BSP/STM32F769I-Discovery/stm32f769i_discovery.c ****   * @param  i2c_handler : I2C handler
 507:Drivers/BSP/STM32F769I-Discovery/stm32f769i_discovery.c ****   * @param  DevAddress: Target device address
 508:Drivers/BSP/STM32F769I-Discovery/stm32f769i_discovery.c ****   * @param  Trials: Number of trials
 509:Drivers/BSP/STM32F769I-Discovery/stm32f769i_discovery.c ****   * @retval HAL status
 510:Drivers/BSP/STM32F769I-Discovery/stm32f769i_discovery.c ****   */
 511:Drivers/BSP/STM32F769I-Discovery/stm32f769i_discovery.c **** static HAL_StatusTypeDef I2Cx_IsDeviceReady(I2C_HandleTypeDef *i2c_handler, uint16_t DevAddress, ui
 512:Drivers/BSP/STM32F769I-Discovery/stm32f769i_discovery.c **** { 
 513:Drivers/BSP/STM32F769I-Discovery/stm32f769i_discovery.c ****   return (HAL_I2C_IsDeviceReady(i2c_handler, DevAddress, Trials, 1000));
 514:Drivers/BSP/STM32F769I-Discovery/stm32f769i_discovery.c **** }
 515:Drivers/BSP/STM32F769I-Discovery/stm32f769i_discovery.c **** 
 516:Drivers/BSP/STM32F769I-Discovery/stm32f769i_discovery.c **** /**
 517:Drivers/BSP/STM32F769I-Discovery/stm32f769i_discovery.c ****   * @brief  Manages error callback by re-initializing I2C.
 518:Drivers/BSP/STM32F769I-Discovery/stm32f769i_discovery.c ****   * @param  i2c_handler : I2C handler
 519:Drivers/BSP/STM32F769I-Discovery/stm32f769i_discovery.c ****   * @param  Addr: I2C Address
 520:Drivers/BSP/STM32F769I-Discovery/stm32f769i_discovery.c ****   * @retval None
 521:Drivers/BSP/STM32F769I-Discovery/stm32f769i_discovery.c ****   */
 522:Drivers/BSP/STM32F769I-Discovery/stm32f769i_discovery.c **** static void I2Cx_Error(I2C_HandleTypeDef *i2c_handler, uint8_t Addr)
 523:Drivers/BSP/STM32F769I-Discovery/stm32f769i_discovery.c **** {
 374              		.loc 1 523 1 is_stmt 1 view -0
 375              		.cfi_startproc
 376              		@ args = 0, pretend = 0, frame = 0
 377              		@ frame_needed = 0, uses_anonymous_args = 0
 378              		.loc 1 523 1 is_stmt 0 view .LVU109
 379 0000 10B5     		push	{r4, lr}
 380              		.cfi_def_cfa_offset 8
 381              		.cfi_offset 4, -8
 382              		.cfi_offset 14, -4
 383 0002 0446     		mov	r4, r0
 524:Drivers/BSP/STM32F769I-Discovery/stm32f769i_discovery.c ****   /* De-initialize the I2C communication bus */
 525:Drivers/BSP/STM32F769I-Discovery/stm32f769i_discovery.c ****   HAL_I2C_DeInit(i2c_handler);
 384              		.loc 1 525 3 is_stmt 1 view .LVU110
 385 0004 FFF7FEFF 		bl	HAL_I2C_DeInit
 386              	.LVL22:
 526:Drivers/BSP/STM32F769I-Discovery/stm32f769i_discovery.c ****   
 527:Drivers/BSP/STM32F769I-Discovery/stm32f769i_discovery.c ****   /* Re-Initialize the I2C communication bus */
 528:Drivers/BSP/STM32F769I-Discovery/stm32f769i_discovery.c ****   I2Cx_Init(i2c_handler);
 387              		.loc 1 528 3 view .LVU111
 388 0008 2046     		mov	r0, r4
 389 000a FFF7FEFF 		bl	I2Cx_Init
 390              	.LVL23:
 529:Drivers/BSP/STM32F769I-Discovery/stm32f769i_discovery.c **** }
 391              		.loc 1 529 1 is_stmt 0 view .LVU112
 392 000e 10BD     		pop	{r4, pc}
 393              		.loc 1 529 1 view .LVU113
 394              		.cfi_endproc
 395              	.LFE155:
 397              		.section	.text.I2Cx_WriteMultiple,"ax",%progbits
 398              		.align	1
 399              		.syntax unified
 400              		.thumb
 401              		.thumb_func
 403              	I2Cx_WriteMultiple:
 404              	.LVL24:
ARM GAS  /var/folders/n6/c271nzx11xl4r4_m7sqjlt0m0000gn/T//ccyzxgNq.s 			page 18


 405              	.LFB153:
 489:Drivers/BSP/STM32F769I-Discovery/stm32f769i_discovery.c ****   HAL_StatusTypeDef status = HAL_OK;
 406              		.loc 1 489 1 is_stmt 1 view -0
 407              		.cfi_startproc
 408              		@ args = 8, pretend = 0, frame = 0
 409              		@ frame_needed = 0, uses_anonymous_args = 0
 489:Drivers/BSP/STM32F769I-Discovery/stm32f769i_discovery.c ****   HAL_StatusTypeDef status = HAL_OK;
 410              		.loc 1 489 1 is_stmt 0 view .LVU115
 411 0000 70B5     		push	{r4, r5, r6, lr}
 412              		.cfi_def_cfa_offset 16
 413              		.cfi_offset 4, -16
 414              		.cfi_offset 5, -12
 415              		.cfi_offset 6, -8
 416              		.cfi_offset 14, -4
 417 0002 84B0     		sub	sp, sp, #16
 418              		.cfi_def_cfa_offset 32
 419 0004 0446     		mov	r4, r0
 420 0006 0D46     		mov	r5, r1
 490:Drivers/BSP/STM32F769I-Discovery/stm32f769i_discovery.c **** 
 421              		.loc 1 490 3 is_stmt 1 view .LVU116
 422              	.LVL25:
 492:Drivers/BSP/STM32F769I-Discovery/stm32f769i_discovery.c **** 
 423              		.loc 1 492 3 view .LVU117
 492:Drivers/BSP/STM32F769I-Discovery/stm32f769i_discovery.c **** 
 424              		.loc 1 492 12 is_stmt 0 view .LVU118
 425 0008 4FF47A76 		mov	r6, #1000
 426 000c 0296     		str	r6, [sp, #8]
 427 000e BDF82460 		ldrh	r6, [sp, #36]
 428 0012 0196     		str	r6, [sp, #4]
 429 0014 089E     		ldr	r6, [sp, #32]
 430 0016 0096     		str	r6, [sp]
 431 0018 FFF7FEFF 		bl	HAL_I2C_Mem_Write
 432              	.LVL26:
 495:Drivers/BSP/STM32F769I-Discovery/stm32f769i_discovery.c ****   {
 433              		.loc 1 495 3 is_stmt 1 view .LVU119
 495:Drivers/BSP/STM32F769I-Discovery/stm32f769i_discovery.c ****   {
 434              		.loc 1 495 5 is_stmt 0 view .LVU120
 435 001c 0646     		mov	r6, r0
 436 001e 10B9     		cbnz	r0, .L21
 437              	.LVL27:
 438              	.L19:
 500:Drivers/BSP/STM32F769I-Discovery/stm32f769i_discovery.c **** }
 439              		.loc 1 500 3 is_stmt 1 view .LVU121
 501:Drivers/BSP/STM32F769I-Discovery/stm32f769i_discovery.c **** 
 440              		.loc 1 501 1 is_stmt 0 view .LVU122
 441 0020 3046     		mov	r0, r6
 442 0022 04B0     		add	sp, sp, #16
 443              		.cfi_remember_state
 444              		.cfi_def_cfa_offset 16
 445              		@ sp needed
 446 0024 70BD     		pop	{r4, r5, r6, pc}
 447              	.LVL28:
 448              	.L21:
 449              		.cfi_restore_state
 498:Drivers/BSP/STM32F769I-Discovery/stm32f769i_discovery.c ****   }
 450              		.loc 1 498 5 is_stmt 1 view .LVU123
 451 0026 2946     		mov	r1, r5
ARM GAS  /var/folders/n6/c271nzx11xl4r4_m7sqjlt0m0000gn/T//ccyzxgNq.s 			page 19


 452 0028 2046     		mov	r0, r4
 453              	.LVL29:
 498:Drivers/BSP/STM32F769I-Discovery/stm32f769i_discovery.c ****   }
 454              		.loc 1 498 5 is_stmt 0 view .LVU124
 455 002a FFF7FEFF 		bl	I2Cx_Error
 456              	.LVL30:
 457 002e F7E7     		b	.L19
 458              		.cfi_endproc
 459              	.LFE153:
 461              		.section	.text.I2Cx_ReadMultiple,"ax",%progbits
 462              		.align	1
 463              		.syntax unified
 464              		.thumb
 465              		.thumb_func
 467              	I2Cx_ReadMultiple:
 468              	.LVL31:
 469              	.LFB152:
 463:Drivers/BSP/STM32F769I-Discovery/stm32f769i_discovery.c ****   HAL_StatusTypeDef status = HAL_OK;
 470              		.loc 1 463 1 is_stmt 1 view -0
 471              		.cfi_startproc
 472              		@ args = 8, pretend = 0, frame = 0
 473              		@ frame_needed = 0, uses_anonymous_args = 0
 463:Drivers/BSP/STM32F769I-Discovery/stm32f769i_discovery.c ****   HAL_StatusTypeDef status = HAL_OK;
 474              		.loc 1 463 1 is_stmt 0 view .LVU126
 475 0000 70B5     		push	{r4, r5, r6, lr}
 476              		.cfi_def_cfa_offset 16
 477              		.cfi_offset 4, -16
 478              		.cfi_offset 5, -12
 479              		.cfi_offset 6, -8
 480              		.cfi_offset 14, -4
 481 0002 84B0     		sub	sp, sp, #16
 482              		.cfi_def_cfa_offset 32
 483 0004 0446     		mov	r4, r0
 484 0006 0D46     		mov	r5, r1
 464:Drivers/BSP/STM32F769I-Discovery/stm32f769i_discovery.c **** 
 485              		.loc 1 464 3 is_stmt 1 view .LVU127
 486              	.LVL32:
 466:Drivers/BSP/STM32F769I-Discovery/stm32f769i_discovery.c **** 
 487              		.loc 1 466 3 view .LVU128
 466:Drivers/BSP/STM32F769I-Discovery/stm32f769i_discovery.c **** 
 488              		.loc 1 466 12 is_stmt 0 view .LVU129
 489 0008 4FF47A76 		mov	r6, #1000
 490 000c 0296     		str	r6, [sp, #8]
 491 000e BDF82460 		ldrh	r6, [sp, #36]
 492 0012 0196     		str	r6, [sp, #4]
 493 0014 089E     		ldr	r6, [sp, #32]
 494 0016 0096     		str	r6, [sp]
 495 0018 FFF7FEFF 		bl	HAL_I2C_Mem_Read
 496              	.LVL33:
 469:Drivers/BSP/STM32F769I-Discovery/stm32f769i_discovery.c ****   {
 497              		.loc 1 469 3 is_stmt 1 view .LVU130
 469:Drivers/BSP/STM32F769I-Discovery/stm32f769i_discovery.c ****   {
 498              		.loc 1 469 5 is_stmt 0 view .LVU131
 499 001c 0646     		mov	r6, r0
 500 001e 10B9     		cbnz	r0, .L25
 501              	.LVL34:
 502              	.L23:
ARM GAS  /var/folders/n6/c271nzx11xl4r4_m7sqjlt0m0000gn/T//ccyzxgNq.s 			page 20


 474:Drivers/BSP/STM32F769I-Discovery/stm32f769i_discovery.c **** }
 503              		.loc 1 474 3 is_stmt 1 view .LVU132
 475:Drivers/BSP/STM32F769I-Discovery/stm32f769i_discovery.c **** 
 504              		.loc 1 475 1 is_stmt 0 view .LVU133
 505 0020 3046     		mov	r0, r6
 506 0022 04B0     		add	sp, sp, #16
 507              		.cfi_remember_state
 508              		.cfi_def_cfa_offset 16
 509              		@ sp needed
 510 0024 70BD     		pop	{r4, r5, r6, pc}
 511              	.LVL35:
 512              	.L25:
 513              		.cfi_restore_state
 472:Drivers/BSP/STM32F769I-Discovery/stm32f769i_discovery.c ****   }
 514              		.loc 1 472 5 is_stmt 1 view .LVU134
 515 0026 2946     		mov	r1, r5
 516 0028 2046     		mov	r0, r4
 517              	.LVL36:
 472:Drivers/BSP/STM32F769I-Discovery/stm32f769i_discovery.c ****   }
 518              		.loc 1 472 5 is_stmt 0 view .LVU135
 519 002a FFF7FEFF 		bl	I2Cx_Error
 520              	.LVL37:
 521 002e F7E7     		b	.L23
 522              		.cfi_endproc
 523              	.LFE152:
 525              		.section	.text.I2Cx_IsDeviceReady,"ax",%progbits
 526              		.align	1
 527              		.syntax unified
 528              		.thumb
 529              		.thumb_func
 531              	I2Cx_IsDeviceReady:
 532              	.LVL38:
 533              	.LFB154:
 512:Drivers/BSP/STM32F769I-Discovery/stm32f769i_discovery.c ****   return (HAL_I2C_IsDeviceReady(i2c_handler, DevAddress, Trials, 1000));
 534              		.loc 1 512 1 is_stmt 1 view -0
 535              		.cfi_startproc
 536              		@ args = 0, pretend = 0, frame = 0
 537              		@ frame_needed = 0, uses_anonymous_args = 0
 512:Drivers/BSP/STM32F769I-Discovery/stm32f769i_discovery.c ****   return (HAL_I2C_IsDeviceReady(i2c_handler, DevAddress, Trials, 1000));
 538              		.loc 1 512 1 is_stmt 0 view .LVU137
 539 0000 08B5     		push	{r3, lr}
 540              		.cfi_def_cfa_offset 8
 541              		.cfi_offset 3, -8
 542              		.cfi_offset 14, -4
 513:Drivers/BSP/STM32F769I-Discovery/stm32f769i_discovery.c **** }
 543              		.loc 1 513 3 is_stmt 1 view .LVU138
 513:Drivers/BSP/STM32F769I-Discovery/stm32f769i_discovery.c **** }
 544              		.loc 1 513 11 is_stmt 0 view .LVU139
 545 0002 4FF47A73 		mov	r3, #1000
 546 0006 FFF7FEFF 		bl	HAL_I2C_IsDeviceReady
 547              	.LVL39:
 514:Drivers/BSP/STM32F769I-Discovery/stm32f769i_discovery.c **** 
 548              		.loc 1 514 1 view .LVU140
 549 000a 08BD     		pop	{r3, pc}
 550              		.cfi_endproc
 551              	.LFE154:
 553              		.section	.text.BSP_GetVersion,"ax",%progbits
ARM GAS  /var/folders/n6/c271nzx11xl4r4_m7sqjlt0m0000gn/T//ccyzxgNq.s 			page 21


 554              		.align	1
 555              		.global	BSP_GetVersion
 556              		.syntax unified
 557              		.thumb
 558              		.thumb_func
 560              	BSP_GetVersion:
 561              	.LFB141:
 153:Drivers/BSP/STM32F769I-Discovery/stm32f769i_discovery.c ****   return __STM32F769I_DISCOVERY_BSP_VERSION;
 562              		.loc 1 153 1 is_stmt 1 view -0
 563              		.cfi_startproc
 564              		@ args = 0, pretend = 0, frame = 0
 565              		@ frame_needed = 0, uses_anonymous_args = 0
 566              		@ link register save eliminated.
 154:Drivers/BSP/STM32F769I-Discovery/stm32f769i_discovery.c **** }
 567              		.loc 1 154 3 view .LVU142
 155:Drivers/BSP/STM32F769I-Discovery/stm32f769i_discovery.c **** 
 568              		.loc 1 155 1 is_stmt 0 view .LVU143
 569 0000 0048     		ldr	r0, .L29
 570 0002 7047     		bx	lr
 571              	.L30:
 572              		.align	2
 573              	.L29:
 574 0004 00000202 		.word	33685504
 575              		.cfi_endproc
 576              	.LFE141:
 578              		.section	.text.BSP_LED_Init,"ax",%progbits
 579              		.align	1
 580              		.global	BSP_LED_Init
 581              		.syntax unified
 582              		.thumb
 583              		.thumb_func
 585              	BSP_LED_Init:
 586              	.LVL40:
 587              	.LFB142:
 166:Drivers/BSP/STM32F769I-Discovery/stm32f769i_discovery.c ****   GPIO_InitTypeDef  gpio_init_structure;
 588              		.loc 1 166 1 is_stmt 1 view -0
 589              		.cfi_startproc
 590              		@ args = 0, pretend = 0, frame = 24
 591              		@ frame_needed = 0, uses_anonymous_args = 0
 166:Drivers/BSP/STM32F769I-Discovery/stm32f769i_discovery.c ****   GPIO_InitTypeDef  gpio_init_structure;
 592              		.loc 1 166 1 is_stmt 0 view .LVU145
 593 0000 00B5     		push	{lr}
 594              		.cfi_def_cfa_offset 4
 595              		.cfi_offset 14, -4
 596 0002 87B0     		sub	sp, sp, #28
 597              		.cfi_def_cfa_offset 32
 167:Drivers/BSP/STM32F769I-Discovery/stm32f769i_discovery.c ****   
 598              		.loc 1 167 3 is_stmt 1 view .LVU146
 169:Drivers/BSP/STM32F769I-Discovery/stm32f769i_discovery.c ****   /* Configure the GPIO_LED pin */
 599              		.loc 1 169 3 view .LVU147
 600              	.LBB7:
 169:Drivers/BSP/STM32F769I-Discovery/stm32f769i_discovery.c ****   /* Configure the GPIO_LED pin */
 601              		.loc 1 169 3 view .LVU148
 169:Drivers/BSP/STM32F769I-Discovery/stm32f769i_discovery.c ****   /* Configure the GPIO_LED pin */
 602              		.loc 1 169 3 view .LVU149
 603 0004 0D4B     		ldr	r3, .L33
 604 0006 1A6B     		ldr	r2, [r3, #48]
ARM GAS  /var/folders/n6/c271nzx11xl4r4_m7sqjlt0m0000gn/T//ccyzxgNq.s 			page 22


 605 0008 42F40072 		orr	r2, r2, #512
 606 000c 1A63     		str	r2, [r3, #48]
 169:Drivers/BSP/STM32F769I-Discovery/stm32f769i_discovery.c ****   /* Configure the GPIO_LED pin */
 607              		.loc 1 169 3 view .LVU150
 608 000e 1B6B     		ldr	r3, [r3, #48]
 609 0010 03F40073 		and	r3, r3, #512
 610 0014 0093     		str	r3, [sp]
 169:Drivers/BSP/STM32F769I-Discovery/stm32f769i_discovery.c ****   /* Configure the GPIO_LED pin */
 611              		.loc 1 169 3 view .LVU151
 612 0016 009B     		ldr	r3, [sp]
 613              	.LBE7:
 169:Drivers/BSP/STM32F769I-Discovery/stm32f769i_discovery.c ****   /* Configure the GPIO_LED pin */
 614              		.loc 1 169 3 view .LVU152
 171:Drivers/BSP/STM32F769I-Discovery/stm32f769i_discovery.c ****   gpio_init_structure.Mode  = GPIO_MODE_OUTPUT_PP;
 615              		.loc 1 171 3 view .LVU153
 171:Drivers/BSP/STM32F769I-Discovery/stm32f769i_discovery.c ****   gpio_init_structure.Mode  = GPIO_MODE_OUTPUT_PP;
 616              		.loc 1 171 39 is_stmt 0 view .LVU154
 617 0018 094B     		ldr	r3, .L33+4
 618 001a 53F82030 		ldr	r3, [r3, r0, lsl #2]
 171:Drivers/BSP/STM32F769I-Discovery/stm32f769i_discovery.c ****   gpio_init_structure.Mode  = GPIO_MODE_OUTPUT_PP;
 619              		.loc 1 171 29 view .LVU155
 620 001e 0193     		str	r3, [sp, #4]
 172:Drivers/BSP/STM32F769I-Discovery/stm32f769i_discovery.c ****   gpio_init_structure.Pull  = GPIO_PULLUP;
 621              		.loc 1 172 3 is_stmt 1 view .LVU156
 172:Drivers/BSP/STM32F769I-Discovery/stm32f769i_discovery.c ****   gpio_init_structure.Pull  = GPIO_PULLUP;
 622              		.loc 1 172 29 is_stmt 0 view .LVU157
 623 0020 0123     		movs	r3, #1
 624 0022 0293     		str	r3, [sp, #8]
 173:Drivers/BSP/STM32F769I-Discovery/stm32f769i_discovery.c ****   gpio_init_structure.Speed = GPIO_SPEED_HIGH;
 625              		.loc 1 173 3 is_stmt 1 view .LVU158
 173:Drivers/BSP/STM32F769I-Discovery/stm32f769i_discovery.c ****   gpio_init_structure.Speed = GPIO_SPEED_HIGH;
 626              		.loc 1 173 29 is_stmt 0 view .LVU159
 627 0024 0393     		str	r3, [sp, #12]
 174:Drivers/BSP/STM32F769I-Discovery/stm32f769i_discovery.c ****   
 628              		.loc 1 174 3 is_stmt 1 view .LVU160
 174:Drivers/BSP/STM32F769I-Discovery/stm32f769i_discovery.c ****   
 629              		.loc 1 174 29 is_stmt 0 view .LVU161
 630 0026 0323     		movs	r3, #3
 631 0028 0493     		str	r3, [sp, #16]
 176:Drivers/BSP/STM32F769I-Discovery/stm32f769i_discovery.c **** 
 632              		.loc 1 176 3 is_stmt 1 view .LVU162
 633 002a 01A9     		add	r1, sp, #4
 634 002c 054B     		ldr	r3, .L33+8
 635 002e 53F82000 		ldr	r0, [r3, r0, lsl #2]
 636              	.LVL41:
 176:Drivers/BSP/STM32F769I-Discovery/stm32f769i_discovery.c **** 
 637              		.loc 1 176 3 is_stmt 0 view .LVU163
 638 0032 FFF7FEFF 		bl	HAL_GPIO_Init
 639              	.LVL42:
 178:Drivers/BSP/STM32F769I-Discovery/stm32f769i_discovery.c **** 
 640              		.loc 1 178 1 view .LVU164
 641 0036 07B0     		add	sp, sp, #28
 642              		.cfi_def_cfa_offset 4
 643              		@ sp needed
 644 0038 5DF804FB 		ldr	pc, [sp], #4
 645              	.L34:
 646              		.align	2
ARM GAS  /var/folders/n6/c271nzx11xl4r4_m7sqjlt0m0000gn/T//ccyzxgNq.s 			page 23


 647              	.L33:
 648 003c 00380240 		.word	1073887232
 649 0040 00000000 		.word	GPIO_PIN
 650 0044 00000000 		.word	GPIO_PORT
 651              		.cfi_endproc
 652              	.LFE142:
 654              		.section	.text.BSP_LED_DeInit,"ax",%progbits
 655              		.align	1
 656              		.global	BSP_LED_DeInit
 657              		.syntax unified
 658              		.thumb
 659              		.thumb_func
 661              	BSP_LED_DeInit:
 662              	.LVL43:
 663              	.LFB143:
 191:Drivers/BSP/STM32F769I-Discovery/stm32f769i_discovery.c ****   GPIO_InitTypeDef  gpio_init_structure;
 664              		.loc 1 191 1 is_stmt 1 view -0
 665              		.cfi_startproc
 666              		@ args = 0, pretend = 0, frame = 24
 667              		@ frame_needed = 0, uses_anonymous_args = 0
 191:Drivers/BSP/STM32F769I-Discovery/stm32f769i_discovery.c ****   GPIO_InitTypeDef  gpio_init_structure;
 668              		.loc 1 191 1 is_stmt 0 view .LVU166
 669 0000 70B5     		push	{r4, r5, r6, lr}
 670              		.cfi_def_cfa_offset 16
 671              		.cfi_offset 4, -16
 672              		.cfi_offset 5, -12
 673              		.cfi_offset 6, -8
 674              		.cfi_offset 14, -4
 675 0002 86B0     		sub	sp, sp, #24
 676              		.cfi_def_cfa_offset 40
 677 0004 0446     		mov	r4, r0
 192:Drivers/BSP/STM32F769I-Discovery/stm32f769i_discovery.c ****   
 678              		.loc 1 192 3 is_stmt 1 view .LVU167
 195:Drivers/BSP/STM32F769I-Discovery/stm32f769i_discovery.c ****   
 679              		.loc 1 195 3 view .LVU168
 195:Drivers/BSP/STM32F769I-Discovery/stm32f769i_discovery.c ****   
 680              		.loc 1 195 37 is_stmt 0 view .LVU169
 681 0006 094B     		ldr	r3, .L37
 682 0008 53F82050 		ldr	r5, [r3, r0, lsl #2]
 195:Drivers/BSP/STM32F769I-Discovery/stm32f769i_discovery.c ****   
 683              		.loc 1 195 27 view .LVU170
 684 000c 0195     		str	r5, [sp, #4]
 198:Drivers/BSP/STM32F769I-Discovery/stm32f769i_discovery.c ****   HAL_GPIO_DeInit(GPIO_PORT[Led], gpio_init_structure.Pin);
 685              		.loc 1 198 3 is_stmt 1 view .LVU171
 686 000e 084E     		ldr	r6, .L37+4
 687 0010 0022     		movs	r2, #0
 688 0012 A9B2     		uxth	r1, r5
 689 0014 56F82000 		ldr	r0, [r6, r0, lsl #2]
 690              	.LVL44:
 198:Drivers/BSP/STM32F769I-Discovery/stm32f769i_discovery.c ****   HAL_GPIO_DeInit(GPIO_PORT[Led], gpio_init_structure.Pin);
 691              		.loc 1 198 3 is_stmt 0 view .LVU172
 692 0018 FFF7FEFF 		bl	HAL_GPIO_WritePin
 693              	.LVL45:
 199:Drivers/BSP/STM32F769I-Discovery/stm32f769i_discovery.c **** }
 694              		.loc 1 199 3 is_stmt 1 view .LVU173
 695 001c 2946     		mov	r1, r5
 696 001e 56F82400 		ldr	r0, [r6, r4, lsl #2]
ARM GAS  /var/folders/n6/c271nzx11xl4r4_m7sqjlt0m0000gn/T//ccyzxgNq.s 			page 24


 697 0022 FFF7FEFF 		bl	HAL_GPIO_DeInit
 698              	.LVL46:
 200:Drivers/BSP/STM32F769I-Discovery/stm32f769i_discovery.c **** 
 699              		.loc 1 200 1 is_stmt 0 view .LVU174
 700 0026 06B0     		add	sp, sp, #24
 701              		.cfi_def_cfa_offset 16
 702              		@ sp needed
 703 0028 70BD     		pop	{r4, r5, r6, pc}
 704              	.LVL47:
 705              	.L38:
 200:Drivers/BSP/STM32F769I-Discovery/stm32f769i_discovery.c **** 
 706              		.loc 1 200 1 view .LVU175
 707 002a 00BF     		.align	2
 708              	.L37:
 709 002c 00000000 		.word	GPIO_PIN
 710 0030 00000000 		.word	GPIO_PORT
 711              		.cfi_endproc
 712              	.LFE143:
 714              		.section	.text.BSP_LED_On,"ax",%progbits
 715              		.align	1
 716              		.global	BSP_LED_On
 717              		.syntax unified
 718              		.thumb
 719              		.thumb_func
 721              	BSP_LED_On:
 722              	.LVL48:
 723              	.LFB144:
 211:Drivers/BSP/STM32F769I-Discovery/stm32f769i_discovery.c ****   HAL_GPIO_WritePin(GPIO_PORT[Led], GPIO_PIN[Led], GPIO_PIN_SET);
 724              		.loc 1 211 1 is_stmt 1 view -0
 725              		.cfi_startproc
 726              		@ args = 0, pretend = 0, frame = 0
 727              		@ frame_needed = 0, uses_anonymous_args = 0
 211:Drivers/BSP/STM32F769I-Discovery/stm32f769i_discovery.c ****   HAL_GPIO_WritePin(GPIO_PORT[Led], GPIO_PIN[Led], GPIO_PIN_SET);
 728              		.loc 1 211 1 is_stmt 0 view .LVU177
 729 0000 08B5     		push	{r3, lr}
 730              		.cfi_def_cfa_offset 8
 731              		.cfi_offset 3, -8
 732              		.cfi_offset 14, -4
 212:Drivers/BSP/STM32F769I-Discovery/stm32f769i_discovery.c **** }
 733              		.loc 1 212 3 is_stmt 1 view .LVU178
 734 0002 0122     		movs	r2, #1
 735 0004 044B     		ldr	r3, .L41
 736 0006 33F82010 		ldrh	r1, [r3, r0, lsl #2]
 737 000a 044B     		ldr	r3, .L41+4
 738 000c 53F82000 		ldr	r0, [r3, r0, lsl #2]
 739              	.LVL49:
 212:Drivers/BSP/STM32F769I-Discovery/stm32f769i_discovery.c **** }
 740              		.loc 1 212 3 is_stmt 0 view .LVU179
 741 0010 FFF7FEFF 		bl	HAL_GPIO_WritePin
 742              	.LVL50:
 213:Drivers/BSP/STM32F769I-Discovery/stm32f769i_discovery.c **** 
 743              		.loc 1 213 1 view .LVU180
 744 0014 08BD     		pop	{r3, pc}
 745              	.L42:
 746 0016 00BF     		.align	2
 747              	.L41:
 748 0018 00000000 		.word	GPIO_PIN
ARM GAS  /var/folders/n6/c271nzx11xl4r4_m7sqjlt0m0000gn/T//ccyzxgNq.s 			page 25


 749 001c 00000000 		.word	GPIO_PORT
 750              		.cfi_endproc
 751              	.LFE144:
 753              		.section	.text.BSP_LED_Off,"ax",%progbits
 754              		.align	1
 755              		.global	BSP_LED_Off
 756              		.syntax unified
 757              		.thumb
 758              		.thumb_func
 760              	BSP_LED_Off:
 761              	.LVL51:
 762              	.LFB145:
 224:Drivers/BSP/STM32F769I-Discovery/stm32f769i_discovery.c ****   HAL_GPIO_WritePin(GPIO_PORT[Led], GPIO_PIN[Led], GPIO_PIN_RESET);
 763              		.loc 1 224 1 is_stmt 1 view -0
 764              		.cfi_startproc
 765              		@ args = 0, pretend = 0, frame = 0
 766              		@ frame_needed = 0, uses_anonymous_args = 0
 224:Drivers/BSP/STM32F769I-Discovery/stm32f769i_discovery.c ****   HAL_GPIO_WritePin(GPIO_PORT[Led], GPIO_PIN[Led], GPIO_PIN_RESET);
 767              		.loc 1 224 1 is_stmt 0 view .LVU182
 768 0000 08B5     		push	{r3, lr}
 769              		.cfi_def_cfa_offset 8
 770              		.cfi_offset 3, -8
 771              		.cfi_offset 14, -4
 225:Drivers/BSP/STM32F769I-Discovery/stm32f769i_discovery.c **** }
 772              		.loc 1 225 3 is_stmt 1 view .LVU183
 773 0002 0022     		movs	r2, #0
 774 0004 044B     		ldr	r3, .L45
 775 0006 33F82010 		ldrh	r1, [r3, r0, lsl #2]
 776 000a 044B     		ldr	r3, .L45+4
 777 000c 53F82000 		ldr	r0, [r3, r0, lsl #2]
 778              	.LVL52:
 225:Drivers/BSP/STM32F769I-Discovery/stm32f769i_discovery.c **** }
 779              		.loc 1 225 3 is_stmt 0 view .LVU184
 780 0010 FFF7FEFF 		bl	HAL_GPIO_WritePin
 781              	.LVL53:
 226:Drivers/BSP/STM32F769I-Discovery/stm32f769i_discovery.c **** 
 782              		.loc 1 226 1 view .LVU185
 783 0014 08BD     		pop	{r3, pc}
 784              	.L46:
 785 0016 00BF     		.align	2
 786              	.L45:
 787 0018 00000000 		.word	GPIO_PIN
 788 001c 00000000 		.word	GPIO_PORT
 789              		.cfi_endproc
 790              	.LFE145:
 792              		.section	.text.BSP_LED_Toggle,"ax",%progbits
 793              		.align	1
 794              		.global	BSP_LED_Toggle
 795              		.syntax unified
 796              		.thumb
 797              		.thumb_func
 799              	BSP_LED_Toggle:
 800              	.LVL54:
 801              	.LFB146:
 237:Drivers/BSP/STM32F769I-Discovery/stm32f769i_discovery.c ****   HAL_GPIO_TogglePin(GPIO_PORT[Led], GPIO_PIN[Led]);
 802              		.loc 1 237 1 is_stmt 1 view -0
 803              		.cfi_startproc
ARM GAS  /var/folders/n6/c271nzx11xl4r4_m7sqjlt0m0000gn/T//ccyzxgNq.s 			page 26


 804              		@ args = 0, pretend = 0, frame = 0
 805              		@ frame_needed = 0, uses_anonymous_args = 0
 237:Drivers/BSP/STM32F769I-Discovery/stm32f769i_discovery.c ****   HAL_GPIO_TogglePin(GPIO_PORT[Led], GPIO_PIN[Led]);
 806              		.loc 1 237 1 is_stmt 0 view .LVU187
 807 0000 08B5     		push	{r3, lr}
 808              		.cfi_def_cfa_offset 8
 809              		.cfi_offset 3, -8
 810              		.cfi_offset 14, -4
 238:Drivers/BSP/STM32F769I-Discovery/stm32f769i_discovery.c **** }
 811              		.loc 1 238 3 is_stmt 1 view .LVU188
 812 0002 044B     		ldr	r3, .L49
 813 0004 33F82010 		ldrh	r1, [r3, r0, lsl #2]
 814 0008 034B     		ldr	r3, .L49+4
 815 000a 53F82000 		ldr	r0, [r3, r0, lsl #2]
 816              	.LVL55:
 238:Drivers/BSP/STM32F769I-Discovery/stm32f769i_discovery.c **** }
 817              		.loc 1 238 3 is_stmt 0 view .LVU189
 818 000e FFF7FEFF 		bl	HAL_GPIO_TogglePin
 819              	.LVL56:
 239:Drivers/BSP/STM32F769I-Discovery/stm32f769i_discovery.c **** 
 820              		.loc 1 239 1 view .LVU190
 821 0012 08BD     		pop	{r3, pc}
 822              	.L50:
 823              		.align	2
 824              	.L49:
 825 0014 00000000 		.word	GPIO_PIN
 826 0018 00000000 		.word	GPIO_PORT
 827              		.cfi_endproc
 828              	.LFE146:
 830              		.section	.text.BSP_PB_Init,"ax",%progbits
 831              		.align	1
 832              		.global	BSP_PB_Init
 833              		.syntax unified
 834              		.thumb
 835              		.thumb_func
 837              	BSP_PB_Init:
 838              	.LVL57:
 839              	.LFB147:
 255:Drivers/BSP/STM32F769I-Discovery/stm32f769i_discovery.c ****   GPIO_InitTypeDef gpio_init_structure;
 840              		.loc 1 255 1 is_stmt 1 view -0
 841              		.cfi_startproc
 842              		@ args = 0, pretend = 0, frame = 24
 843              		@ frame_needed = 0, uses_anonymous_args = 0
 255:Drivers/BSP/STM32F769I-Discovery/stm32f769i_discovery.c ****   GPIO_InitTypeDef gpio_init_structure;
 844              		.loc 1 255 1 is_stmt 0 view .LVU192
 845 0000 30B5     		push	{r4, r5, lr}
 846              		.cfi_def_cfa_offset 12
 847              		.cfi_offset 4, -12
 848              		.cfi_offset 5, -8
 849              		.cfi_offset 14, -4
 850 0002 87B0     		sub	sp, sp, #28
 851              		.cfi_def_cfa_offset 40
 852 0004 0546     		mov	r5, r0
 256:Drivers/BSP/STM32F769I-Discovery/stm32f769i_discovery.c **** 
 853              		.loc 1 256 3 is_stmt 1 view .LVU193
 259:Drivers/BSP/STM32F769I-Discovery/stm32f769i_discovery.c **** 
 854              		.loc 1 259 3 view .LVU194
ARM GAS  /var/folders/n6/c271nzx11xl4r4_m7sqjlt0m0000gn/T//ccyzxgNq.s 			page 27


 855              	.LBB8:
 259:Drivers/BSP/STM32F769I-Discovery/stm32f769i_discovery.c **** 
 856              		.loc 1 259 3 view .LVU195
 259:Drivers/BSP/STM32F769I-Discovery/stm32f769i_discovery.c **** 
 857              		.loc 1 259 3 view .LVU196
 858 0006 1B4B     		ldr	r3, .L57
 859 0008 1A6B     		ldr	r2, [r3, #48]
 860 000a 42F00102 		orr	r2, r2, #1
 861 000e 1A63     		str	r2, [r3, #48]
 259:Drivers/BSP/STM32F769I-Discovery/stm32f769i_discovery.c **** 
 862              		.loc 1 259 3 view .LVU197
 863 0010 1B6B     		ldr	r3, [r3, #48]
 864 0012 03F00103 		and	r3, r3, #1
 865 0016 0093     		str	r3, [sp]
 259:Drivers/BSP/STM32F769I-Discovery/stm32f769i_discovery.c **** 
 866              		.loc 1 259 3 view .LVU198
 867 0018 009B     		ldr	r3, [sp]
 868              	.LBE8:
 259:Drivers/BSP/STM32F769I-Discovery/stm32f769i_discovery.c **** 
 869              		.loc 1 259 3 view .LVU199
 261:Drivers/BSP/STM32F769I-Discovery/stm32f769i_discovery.c ****   {
 870              		.loc 1 261 3 view .LVU200
 261:Drivers/BSP/STM32F769I-Discovery/stm32f769i_discovery.c ****   {
 871              		.loc 1 261 5 is_stmt 0 view .LVU201
 872 001a 0C46     		mov	r4, r1
 873 001c 19B1     		cbz	r1, .L55
 874              	.LVL58:
 875              	.L52:
 271:Drivers/BSP/STM32F769I-Discovery/stm32f769i_discovery.c ****   {
 876              		.loc 1 271 3 is_stmt 1 view .LVU202
 271:Drivers/BSP/STM32F769I-Discovery/stm32f769i_discovery.c ****   {
 877              		.loc 1 271 5 is_stmt 0 view .LVU203
 878 001e 012C     		cmp	r4, #1
 879 0020 0FD0     		beq	.L56
 880              	.LVL59:
 881              	.L51:
 286:Drivers/BSP/STM32F769I-Discovery/stm32f769i_discovery.c **** 
 882              		.loc 1 286 1 view .LVU204
 883 0022 07B0     		add	sp, sp, #28
 884              		.cfi_remember_state
 885              		.cfi_def_cfa_offset 12
 886              		@ sp needed
 887 0024 30BD     		pop	{r4, r5, pc}
 888              	.LVL60:
 889              	.L55:
 890              		.cfi_restore_state
 264:Drivers/BSP/STM32F769I-Discovery/stm32f769i_discovery.c ****     gpio_init_structure.Mode = GPIO_MODE_INPUT;
 891              		.loc 1 264 5 is_stmt 1 view .LVU205
 264:Drivers/BSP/STM32F769I-Discovery/stm32f769i_discovery.c ****     gpio_init_structure.Mode = GPIO_MODE_INPUT;
 892              		.loc 1 264 29 is_stmt 0 view .LVU206
 893 0026 0123     		movs	r3, #1
 894 0028 0193     		str	r3, [sp, #4]
 265:Drivers/BSP/STM32F769I-Discovery/stm32f769i_discovery.c ****     gpio_init_structure.Pull = GPIO_NOPULL;
 895              		.loc 1 265 5 is_stmt 1 view .LVU207
 265:Drivers/BSP/STM32F769I-Discovery/stm32f769i_discovery.c ****     gpio_init_structure.Pull = GPIO_NOPULL;
 896              		.loc 1 265 30 is_stmt 0 view .LVU208
 897 002a 0023     		movs	r3, #0
ARM GAS  /var/folders/n6/c271nzx11xl4r4_m7sqjlt0m0000gn/T//ccyzxgNq.s 			page 28


 898 002c 0293     		str	r3, [sp, #8]
 266:Drivers/BSP/STM32F769I-Discovery/stm32f769i_discovery.c ****     gpio_init_structure.Speed = GPIO_SPEED_FAST;
 899              		.loc 1 266 5 is_stmt 1 view .LVU209
 266:Drivers/BSP/STM32F769I-Discovery/stm32f769i_discovery.c ****     gpio_init_structure.Speed = GPIO_SPEED_FAST;
 900              		.loc 1 266 30 is_stmt 0 view .LVU210
 901 002e 0393     		str	r3, [sp, #12]
 267:Drivers/BSP/STM32F769I-Discovery/stm32f769i_discovery.c ****     HAL_GPIO_Init(BUTTON_PORT[Button], &gpio_init_structure);
 902              		.loc 1 267 5 is_stmt 1 view .LVU211
 267:Drivers/BSP/STM32F769I-Discovery/stm32f769i_discovery.c ****     HAL_GPIO_Init(BUTTON_PORT[Button], &gpio_init_structure);
 903              		.loc 1 267 31 is_stmt 0 view .LVU212
 904 0030 0223     		movs	r3, #2
 905 0032 0493     		str	r3, [sp, #16]
 268:Drivers/BSP/STM32F769I-Discovery/stm32f769i_discovery.c ****   }
 906              		.loc 1 268 5 is_stmt 1 view .LVU213
 907 0034 01A9     		add	r1, sp, #4
 908              	.LVL61:
 268:Drivers/BSP/STM32F769I-Discovery/stm32f769i_discovery.c ****   }
 909              		.loc 1 268 5 is_stmt 0 view .LVU214
 910 0036 104B     		ldr	r3, .L57+4
 911 0038 53F82000 		ldr	r0, [r3, r0, lsl #2]
 912              	.LVL62:
 268:Drivers/BSP/STM32F769I-Discovery/stm32f769i_discovery.c ****   }
 913              		.loc 1 268 5 view .LVU215
 914 003c FFF7FEFF 		bl	HAL_GPIO_Init
 915              	.LVL63:
 916 0040 EDE7     		b	.L52
 917              	.L56:
 274:Drivers/BSP/STM32F769I-Discovery/stm32f769i_discovery.c ****     gpio_init_structure.Pull = GPIO_NOPULL;
 918              		.loc 1 274 5 is_stmt 1 view .LVU216
 274:Drivers/BSP/STM32F769I-Discovery/stm32f769i_discovery.c ****     gpio_init_structure.Pull = GPIO_NOPULL;
 919              		.loc 1 274 29 is_stmt 0 view .LVU217
 920 0042 0123     		movs	r3, #1
 921 0044 0193     		str	r3, [sp, #4]
 275:Drivers/BSP/STM32F769I-Discovery/stm32f769i_discovery.c ****     gpio_init_structure.Speed = GPIO_SPEED_FAST;
 922              		.loc 1 275 5 is_stmt 1 view .LVU218
 275:Drivers/BSP/STM32F769I-Discovery/stm32f769i_discovery.c ****     gpio_init_structure.Speed = GPIO_SPEED_FAST;
 923              		.loc 1 275 30 is_stmt 0 view .LVU219
 924 0046 0024     		movs	r4, #0
 925              	.LVL64:
 275:Drivers/BSP/STM32F769I-Discovery/stm32f769i_discovery.c ****     gpio_init_structure.Speed = GPIO_SPEED_FAST;
 926              		.loc 1 275 30 view .LVU220
 927 0048 0394     		str	r4, [sp, #12]
 276:Drivers/BSP/STM32F769I-Discovery/stm32f769i_discovery.c **** 
 928              		.loc 1 276 5 is_stmt 1 view .LVU221
 276:Drivers/BSP/STM32F769I-Discovery/stm32f769i_discovery.c **** 
 929              		.loc 1 276 31 is_stmt 0 view .LVU222
 930 004a 0223     		movs	r3, #2
 931 004c 0493     		str	r3, [sp, #16]
 278:Drivers/BSP/STM32F769I-Discovery/stm32f769i_discovery.c **** 
 932              		.loc 1 278 5 is_stmt 1 view .LVU223
 278:Drivers/BSP/STM32F769I-Discovery/stm32f769i_discovery.c **** 
 933              		.loc 1 278 30 is_stmt 0 view .LVU224
 934 004e 4FF48813 		mov	r3, #1114112
 935 0052 0293     		str	r3, [sp, #8]
 280:Drivers/BSP/STM32F769I-Discovery/stm32f769i_discovery.c **** 
 936              		.loc 1 280 5 is_stmt 1 view .LVU225
 937 0054 01A9     		add	r1, sp, #4
ARM GAS  /var/folders/n6/c271nzx11xl4r4_m7sqjlt0m0000gn/T//ccyzxgNq.s 			page 29


 938 0056 084B     		ldr	r3, .L57+4
 939 0058 53F82500 		ldr	r0, [r3, r5, lsl #2]
 940 005c FFF7FEFF 		bl	HAL_GPIO_Init
 941              	.LVL65:
 283:Drivers/BSP/STM32F769I-Discovery/stm32f769i_discovery.c ****     HAL_NVIC_EnableIRQ((IRQn_Type)(BUTTON_IRQn[Button]));
 942              		.loc 1 283 5 view .LVU226
 943 0060 2246     		mov	r2, r4
 944 0062 0F21     		movs	r1, #15
 945 0064 0620     		movs	r0, #6
 946 0066 FFF7FEFF 		bl	HAL_NVIC_SetPriority
 947              	.LVL66:
 284:Drivers/BSP/STM32F769I-Discovery/stm32f769i_discovery.c ****   }
 948              		.loc 1 284 5 view .LVU227
 949 006a 0620     		movs	r0, #6
 950 006c FFF7FEFF 		bl	HAL_NVIC_EnableIRQ
 951              	.LVL67:
 286:Drivers/BSP/STM32F769I-Discovery/stm32f769i_discovery.c **** 
 952              		.loc 1 286 1 is_stmt 0 view .LVU228
 953 0070 D7E7     		b	.L51
 954              	.L58:
 955 0072 00BF     		.align	2
 956              	.L57:
 957 0074 00380240 		.word	1073887232
 958 0078 00000000 		.word	BUTTON_PORT
 959              		.cfi_endproc
 960              	.LFE147:
 962              		.section	.text.BSP_PB_DeInit,"ax",%progbits
 963              		.align	1
 964              		.global	BSP_PB_DeInit
 965              		.syntax unified
 966              		.thumb
 967              		.thumb_func
 969              	BSP_PB_DeInit:
 970              	.LVL68:
 971              	.LFB148:
 298:Drivers/BSP/STM32F769I-Discovery/stm32f769i_discovery.c ****     GPIO_InitTypeDef gpio_init_structure;
 972              		.loc 1 298 1 is_stmt 1 view -0
 973              		.cfi_startproc
 974              		@ args = 0, pretend = 0, frame = 24
 975              		@ frame_needed = 0, uses_anonymous_args = 0
 298:Drivers/BSP/STM32F769I-Discovery/stm32f769i_discovery.c ****     GPIO_InitTypeDef gpio_init_structure;
 976              		.loc 1 298 1 is_stmt 0 view .LVU230
 977 0000 30B5     		push	{r4, r5, lr}
 978              		.cfi_def_cfa_offset 12
 979              		.cfi_offset 4, -12
 980              		.cfi_offset 5, -8
 981              		.cfi_offset 14, -4
 982 0002 87B0     		sub	sp, sp, #28
 983              		.cfi_def_cfa_offset 40
 984 0004 0446     		mov	r4, r0
 299:Drivers/BSP/STM32F769I-Discovery/stm32f769i_discovery.c **** 
 985              		.loc 1 299 5 is_stmt 1 view .LVU231
 301:Drivers/BSP/STM32F769I-Discovery/stm32f769i_discovery.c ****     HAL_NVIC_DisableIRQ((IRQn_Type)(BUTTON_IRQn[Button]));
 986              		.loc 1 301 5 view .LVU232
 301:Drivers/BSP/STM32F769I-Discovery/stm32f769i_discovery.c ****     HAL_NVIC_DisableIRQ((IRQn_Type)(BUTTON_IRQn[Button]));
 987              		.loc 1 301 29 is_stmt 0 view .LVU233
 988 0006 0125     		movs	r5, #1
ARM GAS  /var/folders/n6/c271nzx11xl4r4_m7sqjlt0m0000gn/T//ccyzxgNq.s 			page 30


 989 0008 0195     		str	r5, [sp, #4]
 302:Drivers/BSP/STM32F769I-Discovery/stm32f769i_discovery.c ****     HAL_GPIO_DeInit(BUTTON_PORT[Button], gpio_init_structure.Pin);
 990              		.loc 1 302 5 is_stmt 1 view .LVU234
 991 000a 0620     		movs	r0, #6
 992              	.LVL69:
 302:Drivers/BSP/STM32F769I-Discovery/stm32f769i_discovery.c ****     HAL_GPIO_DeInit(BUTTON_PORT[Button], gpio_init_structure.Pin);
 993              		.loc 1 302 5 is_stmt 0 view .LVU235
 994 000c FFF7FEFF 		bl	HAL_NVIC_DisableIRQ
 995              	.LVL70:
 303:Drivers/BSP/STM32F769I-Discovery/stm32f769i_discovery.c **** }
 996              		.loc 1 303 5 is_stmt 1 view .LVU236
 997 0010 2946     		mov	r1, r5
 998 0012 034B     		ldr	r3, .L61
 999 0014 53F82400 		ldr	r0, [r3, r4, lsl #2]
 1000 0018 FFF7FEFF 		bl	HAL_GPIO_DeInit
 1001              	.LVL71:
 304:Drivers/BSP/STM32F769I-Discovery/stm32f769i_discovery.c **** 
 1002              		.loc 1 304 1 is_stmt 0 view .LVU237
 1003 001c 07B0     		add	sp, sp, #28
 1004              		.cfi_def_cfa_offset 12
 1005              		@ sp needed
 1006 001e 30BD     		pop	{r4, r5, pc}
 1007              	.LVL72:
 1008              	.L62:
 304:Drivers/BSP/STM32F769I-Discovery/stm32f769i_discovery.c **** 
 1009              		.loc 1 304 1 view .LVU238
 1010              		.align	2
 1011              	.L61:
 1012 0020 00000000 		.word	BUTTON_PORT
 1013              		.cfi_endproc
 1014              	.LFE148:
 1016              		.section	.text.BSP_PB_GetState,"ax",%progbits
 1017              		.align	1
 1018              		.global	BSP_PB_GetState
 1019              		.syntax unified
 1020              		.thumb
 1021              		.thumb_func
 1023              	BSP_PB_GetState:
 1024              	.LVL73:
 1025              	.LFB149:
 316:Drivers/BSP/STM32F769I-Discovery/stm32f769i_discovery.c ****   return HAL_GPIO_ReadPin(BUTTON_PORT[Button], BUTTON_PIN[Button]);
 1026              		.loc 1 316 1 is_stmt 1 view -0
 1027              		.cfi_startproc
 1028              		@ args = 0, pretend = 0, frame = 0
 1029              		@ frame_needed = 0, uses_anonymous_args = 0
 316:Drivers/BSP/STM32F769I-Discovery/stm32f769i_discovery.c ****   return HAL_GPIO_ReadPin(BUTTON_PORT[Button], BUTTON_PIN[Button]);
 1030              		.loc 1 316 1 is_stmt 0 view .LVU240
 1031 0000 08B5     		push	{r3, lr}
 1032              		.cfi_def_cfa_offset 8
 1033              		.cfi_offset 3, -8
 1034              		.cfi_offset 14, -4
 317:Drivers/BSP/STM32F769I-Discovery/stm32f769i_discovery.c **** }
 1035              		.loc 1 317 3 is_stmt 1 view .LVU241
 317:Drivers/BSP/STM32F769I-Discovery/stm32f769i_discovery.c **** }
 1036              		.loc 1 317 10 is_stmt 0 view .LVU242
 1037 0002 0121     		movs	r1, #1
 1038 0004 024B     		ldr	r3, .L65
ARM GAS  /var/folders/n6/c271nzx11xl4r4_m7sqjlt0m0000gn/T//ccyzxgNq.s 			page 31


 1039 0006 53F82000 		ldr	r0, [r3, r0, lsl #2]
 1040              	.LVL74:
 317:Drivers/BSP/STM32F769I-Discovery/stm32f769i_discovery.c **** }
 1041              		.loc 1 317 10 view .LVU243
 1042 000a FFF7FEFF 		bl	HAL_GPIO_ReadPin
 1043              	.LVL75:
 318:Drivers/BSP/STM32F769I-Discovery/stm32f769i_discovery.c **** 
 1044              		.loc 1 318 1 view .LVU244
 1045 000e 08BD     		pop	{r3, pc}
 1046              	.L66:
 1047              		.align	2
 1048              	.L65:
 1049 0010 00000000 		.word	BUTTON_PORT
 1050              		.cfi_endproc
 1051              	.LFE149:
 1053              		.section	.text.AUDIO_IO_Init,"ax",%progbits
 1054              		.align	1
 1055              		.global	AUDIO_IO_Init
 1056              		.syntax unified
 1057              		.thumb
 1058              		.thumb_func
 1060              	AUDIO_IO_Init:
 1061              	.LFB156:
 530:Drivers/BSP/STM32F769I-Discovery/stm32f769i_discovery.c **** 
 531:Drivers/BSP/STM32F769I-Discovery/stm32f769i_discovery.c **** /**
 532:Drivers/BSP/STM32F769I-Discovery/stm32f769i_discovery.c ****   * @}
 533:Drivers/BSP/STM32F769I-Discovery/stm32f769i_discovery.c ****   */
 534:Drivers/BSP/STM32F769I-Discovery/stm32f769i_discovery.c **** 
 535:Drivers/BSP/STM32F769I-Discovery/stm32f769i_discovery.c **** /*******************************************************************************
 536:Drivers/BSP/STM32F769I-Discovery/stm32f769i_discovery.c ****                             LINK OPERATIONS
 537:Drivers/BSP/STM32F769I-Discovery/stm32f769i_discovery.c **** *******************************************************************************/
 538:Drivers/BSP/STM32F769I-Discovery/stm32f769i_discovery.c **** 
 539:Drivers/BSP/STM32F769I-Discovery/stm32f769i_discovery.c **** /********************************* LINK AUDIO *********************************/
 540:Drivers/BSP/STM32F769I-Discovery/stm32f769i_discovery.c **** 
 541:Drivers/BSP/STM32F769I-Discovery/stm32f769i_discovery.c **** /**
 542:Drivers/BSP/STM32F769I-Discovery/stm32f769i_discovery.c ****   * @brief  Initializes Audio low level.
 543:Drivers/BSP/STM32F769I-Discovery/stm32f769i_discovery.c ****   */
 544:Drivers/BSP/STM32F769I-Discovery/stm32f769i_discovery.c **** void AUDIO_IO_Init(void)
 545:Drivers/BSP/STM32F769I-Discovery/stm32f769i_discovery.c **** {
 1062              		.loc 1 545 1 is_stmt 1 view -0
 1063              		.cfi_startproc
 1064              		@ args = 0, pretend = 0, frame = 0
 1065              		@ frame_needed = 0, uses_anonymous_args = 0
 1066 0000 08B5     		push	{r3, lr}
 1067              		.cfi_def_cfa_offset 8
 1068              		.cfi_offset 3, -8
 1069              		.cfi_offset 14, -4
 546:Drivers/BSP/STM32F769I-Discovery/stm32f769i_discovery.c ****   I2Cx_Init(&hI2cAudioHandler);
 1070              		.loc 1 546 3 view .LVU246
 1071 0002 0248     		ldr	r0, .L69
 1072 0004 FFF7FEFF 		bl	I2Cx_Init
 1073              	.LVL76:
 547:Drivers/BSP/STM32F769I-Discovery/stm32f769i_discovery.c **** }
 1074              		.loc 1 547 1 is_stmt 0 view .LVU247
 1075 0008 08BD     		pop	{r3, pc}
 1076              	.L70:
 1077 000a 00BF     		.align	2
ARM GAS  /var/folders/n6/c271nzx11xl4r4_m7sqjlt0m0000gn/T//ccyzxgNq.s 			page 32


 1078              	.L69:
 1079 000c 00000000 		.word	hI2cAudioHandler
 1080              		.cfi_endproc
 1081              	.LFE156:
 1083              		.section	.text.AUDIO_IO_DeInit,"ax",%progbits
 1084              		.align	1
 1085              		.global	AUDIO_IO_DeInit
 1086              		.syntax unified
 1087              		.thumb
 1088              		.thumb_func
 1090              	AUDIO_IO_DeInit:
 1091              	.LFB157:
 548:Drivers/BSP/STM32F769I-Discovery/stm32f769i_discovery.c **** 
 549:Drivers/BSP/STM32F769I-Discovery/stm32f769i_discovery.c **** /**
 550:Drivers/BSP/STM32F769I-Discovery/stm32f769i_discovery.c ****   * @brief  DeInitializes Audio low level.
 551:Drivers/BSP/STM32F769I-Discovery/stm32f769i_discovery.c ****   */
 552:Drivers/BSP/STM32F769I-Discovery/stm32f769i_discovery.c **** void AUDIO_IO_DeInit(void)
 553:Drivers/BSP/STM32F769I-Discovery/stm32f769i_discovery.c **** {
 1092              		.loc 1 553 1 is_stmt 1 view -0
 1093              		.cfi_startproc
 1094              		@ args = 0, pretend = 0, frame = 0
 1095              		@ frame_needed = 0, uses_anonymous_args = 0
 1096              		@ link register save eliminated.
 554:Drivers/BSP/STM32F769I-Discovery/stm32f769i_discovery.c **** 
 555:Drivers/BSP/STM32F769I-Discovery/stm32f769i_discovery.c **** }
 1097              		.loc 1 555 1 view .LVU249
 1098 0000 7047     		bx	lr
 1099              		.cfi_endproc
 1100              	.LFE157:
 1102              		.section	.text.AUDIO_IO_Write,"ax",%progbits
 1103              		.align	1
 1104              		.global	AUDIO_IO_Write
 1105              		.syntax unified
 1106              		.thumb
 1107              		.thumb_func
 1109              	AUDIO_IO_Write:
 1110              	.LVL77:
 1111              	.LFB158:
 556:Drivers/BSP/STM32F769I-Discovery/stm32f769i_discovery.c **** 
 557:Drivers/BSP/STM32F769I-Discovery/stm32f769i_discovery.c **** /**
 558:Drivers/BSP/STM32F769I-Discovery/stm32f769i_discovery.c ****   * @brief  Writes a single data.
 559:Drivers/BSP/STM32F769I-Discovery/stm32f769i_discovery.c ****   * @param  Addr: I2C address
 560:Drivers/BSP/STM32F769I-Discovery/stm32f769i_discovery.c ****   * @param  Reg: Reg address 
 561:Drivers/BSP/STM32F769I-Discovery/stm32f769i_discovery.c ****   * @param  Value: Data to be written
 562:Drivers/BSP/STM32F769I-Discovery/stm32f769i_discovery.c ****   * @retval None
 563:Drivers/BSP/STM32F769I-Discovery/stm32f769i_discovery.c ****   */
 564:Drivers/BSP/STM32F769I-Discovery/stm32f769i_discovery.c **** void AUDIO_IO_Write(uint8_t Addr, uint16_t Reg, uint16_t Value)
 565:Drivers/BSP/STM32F769I-Discovery/stm32f769i_discovery.c **** {
 1112              		.loc 1 565 1 view -0
 1113              		.cfi_startproc
 1114              		@ args = 0, pretend = 0, frame = 8
 1115              		@ frame_needed = 0, uses_anonymous_args = 0
 1116              		.loc 1 565 1 is_stmt 0 view .LVU251
 1117 0000 00B5     		push	{lr}
 1118              		.cfi_def_cfa_offset 4
 1119              		.cfi_offset 14, -4
 1120 0002 85B0     		sub	sp, sp, #20
ARM GAS  /var/folders/n6/c271nzx11xl4r4_m7sqjlt0m0000gn/T//ccyzxgNq.s 			page 33


 1121              		.cfi_def_cfa_offset 24
 1122 0004 ADF80E20 		strh	r2, [sp, #14]	@ movhi
 566:Drivers/BSP/STM32F769I-Discovery/stm32f769i_discovery.c ****   uint16_t tmp = Value;
 1123              		.loc 1 566 3 is_stmt 1 view .LVU252
 1124              		.loc 1 566 12 is_stmt 0 view .LVU253
 1125 0008 92B2     		uxth	r2, r2
 1126              	.LVL78:
 567:Drivers/BSP/STM32F769I-Discovery/stm32f769i_discovery.c ****   
 568:Drivers/BSP/STM32F769I-Discovery/stm32f769i_discovery.c ****   Value = ((uint16_t)(tmp >> 8) & 0x00FF);
 1127              		.loc 1 568 3 is_stmt 1 view .LVU254
 1128              		.loc 1 568 12 is_stmt 0 view .LVU255
 1129 000a 130A     		lsrs	r3, r2, #8
 1130              		.loc 1 568 9 view .LVU256
 1131 000c ADF80E30 		strh	r3, [sp, #14]	@ movhi
 1132              	.LVL79:
 569:Drivers/BSP/STM32F769I-Discovery/stm32f769i_discovery.c ****   
 570:Drivers/BSP/STM32F769I-Discovery/stm32f769i_discovery.c ****   Value |= ((uint16_t)(tmp << 8)& 0xFF00);
 1133              		.loc 1 570 3 is_stmt 1 view .LVU257
 1134              		.loc 1 570 9 is_stmt 0 view .LVU258
 1135 0010 43EA0223 		orr	r3, r3, r2, lsl #8
 1136 0014 ADF80E30 		strh	r3, [sp, #14]	@ movhi
 571:Drivers/BSP/STM32F769I-Discovery/stm32f769i_discovery.c ****   
 572:Drivers/BSP/STM32F769I-Discovery/stm32f769i_discovery.c ****   I2Cx_WriteMultiple(&hI2cAudioHandler, Addr, Reg, I2C_MEMADD_SIZE_16BIT,(uint8_t*)&Value, 2);
 1137              		.loc 1 572 3 is_stmt 1 view .LVU259
 1138 0018 0223     		movs	r3, #2
 1139 001a 0193     		str	r3, [sp, #4]
 1140 001c 0DF10E02 		add	r2, sp, #14
 1141              	.LVL80:
 1142              		.loc 1 572 3 is_stmt 0 view .LVU260
 1143 0020 0092     		str	r2, [sp]
 1144 0022 0A46     		mov	r2, r1
 1145 0024 0146     		mov	r1, r0
 1146              	.LVL81:
 1147              		.loc 1 572 3 view .LVU261
 1148 0026 0348     		ldr	r0, .L74
 1149              	.LVL82:
 1150              		.loc 1 572 3 view .LVU262
 1151 0028 FFF7FEFF 		bl	I2Cx_WriteMultiple
 1152              	.LVL83:
 573:Drivers/BSP/STM32F769I-Discovery/stm32f769i_discovery.c **** }
 1153              		.loc 1 573 1 view .LVU263
 1154 002c 05B0     		add	sp, sp, #20
 1155              		.cfi_def_cfa_offset 4
 1156              		@ sp needed
 1157 002e 5DF804FB 		ldr	pc, [sp], #4
 1158              	.L75:
 1159 0032 00BF     		.align	2
 1160              	.L74:
 1161 0034 00000000 		.word	hI2cAudioHandler
 1162              		.cfi_endproc
 1163              	.LFE158:
 1165              		.section	.text.AUDIO_IO_Read,"ax",%progbits
 1166              		.align	1
 1167              		.global	AUDIO_IO_Read
 1168              		.syntax unified
 1169              		.thumb
 1170              		.thumb_func
ARM GAS  /var/folders/n6/c271nzx11xl4r4_m7sqjlt0m0000gn/T//ccyzxgNq.s 			page 34


 1172              	AUDIO_IO_Read:
 1173              	.LVL84:
 1174              	.LFB159:
 574:Drivers/BSP/STM32F769I-Discovery/stm32f769i_discovery.c **** 
 575:Drivers/BSP/STM32F769I-Discovery/stm32f769i_discovery.c **** /**
 576:Drivers/BSP/STM32F769I-Discovery/stm32f769i_discovery.c ****   * @brief  Reads a single data.
 577:Drivers/BSP/STM32F769I-Discovery/stm32f769i_discovery.c ****   * @param  Addr: I2C address
 578:Drivers/BSP/STM32F769I-Discovery/stm32f769i_discovery.c ****   * @param  Reg: Reg address 
 579:Drivers/BSP/STM32F769I-Discovery/stm32f769i_discovery.c ****   * @retval Data to be read
 580:Drivers/BSP/STM32F769I-Discovery/stm32f769i_discovery.c ****   */
 581:Drivers/BSP/STM32F769I-Discovery/stm32f769i_discovery.c **** uint16_t AUDIO_IO_Read(uint8_t Addr, uint16_t Reg)
 582:Drivers/BSP/STM32F769I-Discovery/stm32f769i_discovery.c **** {
 1175              		.loc 1 582 1 is_stmt 1 view -0
 1176              		.cfi_startproc
 1177              		@ args = 0, pretend = 0, frame = 8
 1178              		@ frame_needed = 0, uses_anonymous_args = 0
 1179              		.loc 1 582 1 is_stmt 0 view .LVU265
 1180 0000 00B5     		push	{lr}
 1181              		.cfi_def_cfa_offset 4
 1182              		.cfi_offset 14, -4
 1183 0002 85B0     		sub	sp, sp, #20
 1184              		.cfi_def_cfa_offset 24
 1185 0004 0A46     		mov	r2, r1
 583:Drivers/BSP/STM32F769I-Discovery/stm32f769i_discovery.c ****   uint16_t read_value = 0, tmp = 0;
 1186              		.loc 1 583 3 is_stmt 1 view .LVU266
 1187              		.loc 1 583 12 is_stmt 0 view .LVU267
 1188 0006 0023     		movs	r3, #0
 1189 0008 ADF80E30 		strh	r3, [sp, #14]	@ movhi
 1190              	.LVL85:
 584:Drivers/BSP/STM32F769I-Discovery/stm32f769i_discovery.c ****   
 585:Drivers/BSP/STM32F769I-Discovery/stm32f769i_discovery.c ****   I2Cx_ReadMultiple(&hI2cAudioHandler, Addr, Reg, I2C_MEMADD_SIZE_16BIT, (uint8_t*)&read_value, 2);
 1191              		.loc 1 585 3 is_stmt 1 view .LVU268
 1192 000c 0223     		movs	r3, #2
 1193 000e 0193     		str	r3, [sp, #4]
 1194 0010 0DF10E01 		add	r1, sp, #14
 1195              	.LVL86:
 1196              		.loc 1 585 3 is_stmt 0 view .LVU269
 1197 0014 0091     		str	r1, [sp]
 1198 0016 0146     		mov	r1, r0
 1199 0018 0648     		ldr	r0, .L78
 1200              	.LVL87:
 1201              		.loc 1 585 3 view .LVU270
 1202 001a FFF7FEFF 		bl	I2Cx_ReadMultiple
 1203              	.LVL88:
 586:Drivers/BSP/STM32F769I-Discovery/stm32f769i_discovery.c ****   
 587:Drivers/BSP/STM32F769I-Discovery/stm32f769i_discovery.c ****   tmp = ((uint16_t)(read_value >> 8) & 0x00FF);
 1204              		.loc 1 587 3 is_stmt 1 view .LVU271
 1205              		.loc 1 587 10 is_stmt 0 view .LVU272
 1206 001e BDF80E30 		ldrh	r3, [sp, #14]
 1207              	.LVL89:
 588:Drivers/BSP/STM32F769I-Discovery/stm32f769i_discovery.c ****   
 589:Drivers/BSP/STM32F769I-Discovery/stm32f769i_discovery.c ****   tmp |= ((uint16_t)(read_value << 8)& 0xFF00);
 1208              		.loc 1 589 3 is_stmt 1 view .LVU273
 1209              		.loc 1 589 7 is_stmt 0 view .LVU274
 1210 0022 1802     		lsls	r0, r3, #8
 1211 0024 40EA1320 		orr	r0, r0, r3, lsr #8
 1212 0028 80B2     		uxth	r0, r0
ARM GAS  /var/folders/n6/c271nzx11xl4r4_m7sqjlt0m0000gn/T//ccyzxgNq.s 			page 35


 1213              	.LVL90:
 590:Drivers/BSP/STM32F769I-Discovery/stm32f769i_discovery.c ****   
 591:Drivers/BSP/STM32F769I-Discovery/stm32f769i_discovery.c ****   read_value = tmp;
 1214              		.loc 1 591 3 is_stmt 1 view .LVU275
 1215              		.loc 1 591 14 is_stmt 0 view .LVU276
 1216 002a ADF80E00 		strh	r0, [sp, #14]	@ movhi
 592:Drivers/BSP/STM32F769I-Discovery/stm32f769i_discovery.c ****   
 593:Drivers/BSP/STM32F769I-Discovery/stm32f769i_discovery.c ****   return read_value;
 1217              		.loc 1 593 3 is_stmt 1 view .LVU277
 594:Drivers/BSP/STM32F769I-Discovery/stm32f769i_discovery.c **** }
 1218              		.loc 1 594 1 is_stmt 0 view .LVU278
 1219 002e 05B0     		add	sp, sp, #20
 1220              		.cfi_def_cfa_offset 4
 1221              		@ sp needed
 1222 0030 5DF804FB 		ldr	pc, [sp], #4
 1223              	.L79:
 1224              		.align	2
 1225              	.L78:
 1226 0034 00000000 		.word	hI2cAudioHandler
 1227              		.cfi_endproc
 1228              	.LFE159:
 1230              		.section	.text.AUDIO_IO_Delay,"ax",%progbits
 1231              		.align	1
 1232              		.global	AUDIO_IO_Delay
 1233              		.syntax unified
 1234              		.thumb
 1235              		.thumb_func
 1237              	AUDIO_IO_Delay:
 1238              	.LVL91:
 1239              	.LFB160:
 595:Drivers/BSP/STM32F769I-Discovery/stm32f769i_discovery.c **** 
 596:Drivers/BSP/STM32F769I-Discovery/stm32f769i_discovery.c **** /**
 597:Drivers/BSP/STM32F769I-Discovery/stm32f769i_discovery.c ****   * @brief  AUDIO Codec delay
 598:Drivers/BSP/STM32F769I-Discovery/stm32f769i_discovery.c ****   * @param  Delay: Delay in ms
 599:Drivers/BSP/STM32F769I-Discovery/stm32f769i_discovery.c ****   */
 600:Drivers/BSP/STM32F769I-Discovery/stm32f769i_discovery.c **** void AUDIO_IO_Delay(uint32_t Delay)
 601:Drivers/BSP/STM32F769I-Discovery/stm32f769i_discovery.c **** {
 1240              		.loc 1 601 1 is_stmt 1 view -0
 1241              		.cfi_startproc
 1242              		@ args = 0, pretend = 0, frame = 0
 1243              		@ frame_needed = 0, uses_anonymous_args = 0
 1244              		.loc 1 601 1 is_stmt 0 view .LVU280
 1245 0000 08B5     		push	{r3, lr}
 1246              		.cfi_def_cfa_offset 8
 1247              		.cfi_offset 3, -8
 1248              		.cfi_offset 14, -4
 602:Drivers/BSP/STM32F769I-Discovery/stm32f769i_discovery.c ****   HAL_Delay(Delay);
 1249              		.loc 1 602 3 is_stmt 1 view .LVU281
 1250 0002 FFF7FEFF 		bl	HAL_Delay
 1251              	.LVL92:
 603:Drivers/BSP/STM32F769I-Discovery/stm32f769i_discovery.c **** }
 1252              		.loc 1 603 1 is_stmt 0 view .LVU282
 1253 0006 08BD     		pop	{r3, pc}
 1254              		.cfi_endproc
 1255              	.LFE160:
 1257              		.section	.text.EEPROM_IO_Init,"ax",%progbits
 1258              		.align	1
ARM GAS  /var/folders/n6/c271nzx11xl4r4_m7sqjlt0m0000gn/T//ccyzxgNq.s 			page 36


 1259              		.global	EEPROM_IO_Init
 1260              		.syntax unified
 1261              		.thumb
 1262              		.thumb_func
 1264              	EEPROM_IO_Init:
 1265              	.LFB161:
 604:Drivers/BSP/STM32F769I-Discovery/stm32f769i_discovery.c **** 
 605:Drivers/BSP/STM32F769I-Discovery/stm32f769i_discovery.c **** /******************************** LINK I2C EEPROM *****************************/
 606:Drivers/BSP/STM32F769I-Discovery/stm32f769i_discovery.c **** 
 607:Drivers/BSP/STM32F769I-Discovery/stm32f769i_discovery.c **** /**
 608:Drivers/BSP/STM32F769I-Discovery/stm32f769i_discovery.c ****   * @brief  Initializes peripherals used by the I2C EEPROM driver.
 609:Drivers/BSP/STM32F769I-Discovery/stm32f769i_discovery.c ****   */
 610:Drivers/BSP/STM32F769I-Discovery/stm32f769i_discovery.c **** void EEPROM_IO_Init(void)
 611:Drivers/BSP/STM32F769I-Discovery/stm32f769i_discovery.c **** {
 1266              		.loc 1 611 1 is_stmt 1 view -0
 1267              		.cfi_startproc
 1268              		@ args = 0, pretend = 0, frame = 0
 1269              		@ frame_needed = 0, uses_anonymous_args = 0
 1270 0000 08B5     		push	{r3, lr}
 1271              		.cfi_def_cfa_offset 8
 1272              		.cfi_offset 3, -8
 1273              		.cfi_offset 14, -4
 612:Drivers/BSP/STM32F769I-Discovery/stm32f769i_discovery.c ****   I2Cx_Init(&hI2cExtHandler);
 1274              		.loc 1 612 3 view .LVU284
 1275 0002 0248     		ldr	r0, .L84
 1276 0004 FFF7FEFF 		bl	I2Cx_Init
 1277              	.LVL93:
 613:Drivers/BSP/STM32F769I-Discovery/stm32f769i_discovery.c **** }
 1278              		.loc 1 613 1 is_stmt 0 view .LVU285
 1279 0008 08BD     		pop	{r3, pc}
 1280              	.L85:
 1281 000a 00BF     		.align	2
 1282              	.L84:
 1283 000c 00000000 		.word	hI2cExtHandler
 1284              		.cfi_endproc
 1285              	.LFE161:
 1287              		.section	.text.EEPROM_IO_WriteData,"ax",%progbits
 1288              		.align	1
 1289              		.global	EEPROM_IO_WriteData
 1290              		.syntax unified
 1291              		.thumb
 1292              		.thumb_func
 1294              	EEPROM_IO_WriteData:
 1295              	.LVL94:
 1296              	.LFB162:
 614:Drivers/BSP/STM32F769I-Discovery/stm32f769i_discovery.c **** 
 615:Drivers/BSP/STM32F769I-Discovery/stm32f769i_discovery.c **** /**
 616:Drivers/BSP/STM32F769I-Discovery/stm32f769i_discovery.c ****   * @brief  Write data to I2C EEPROM driver in using DMA channel.
 617:Drivers/BSP/STM32F769I-Discovery/stm32f769i_discovery.c ****   * @param  DevAddress: Target device address
 618:Drivers/BSP/STM32F769I-Discovery/stm32f769i_discovery.c ****   * @param  MemAddress: Internal memory address
 619:Drivers/BSP/STM32F769I-Discovery/stm32f769i_discovery.c ****   * @param  pBuffer: Pointer to data buffer
 620:Drivers/BSP/STM32F769I-Discovery/stm32f769i_discovery.c ****   * @param  BufferSize: Amount of data to be sent
 621:Drivers/BSP/STM32F769I-Discovery/stm32f769i_discovery.c ****   * @retval HAL status
 622:Drivers/BSP/STM32F769I-Discovery/stm32f769i_discovery.c ****   */
 623:Drivers/BSP/STM32F769I-Discovery/stm32f769i_discovery.c **** HAL_StatusTypeDef EEPROM_IO_WriteData(uint16_t DevAddress, uint16_t MemAddress, uint8_t* pBuffer, u
 624:Drivers/BSP/STM32F769I-Discovery/stm32f769i_discovery.c **** {
 1297              		.loc 1 624 1 is_stmt 1 view -0
ARM GAS  /var/folders/n6/c271nzx11xl4r4_m7sqjlt0m0000gn/T//ccyzxgNq.s 			page 37


 1298              		.cfi_startproc
 1299              		@ args = 0, pretend = 0, frame = 0
 1300              		@ frame_needed = 0, uses_anonymous_args = 0
 1301              		.loc 1 624 1 is_stmt 0 view .LVU287
 1302 0000 00B5     		push	{lr}
 1303              		.cfi_def_cfa_offset 4
 1304              		.cfi_offset 14, -4
 1305 0002 83B0     		sub	sp, sp, #12
 1306              		.cfi_def_cfa_offset 16
 625:Drivers/BSP/STM32F769I-Discovery/stm32f769i_discovery.c ****   return (I2Cx_WriteMultiple(&hI2cExtHandler, DevAddress, MemAddress, I2C_MEMADD_SIZE_16BIT, pBuffe
 1307              		.loc 1 625 3 is_stmt 1 view .LVU288
 1308              		.loc 1 625 11 is_stmt 0 view .LVU289
 1309 0004 9BB2     		uxth	r3, r3
 1310              	.LVL95:
 1311              		.loc 1 625 11 view .LVU290
 1312 0006 0193     		str	r3, [sp, #4]
 1313 0008 0092     		str	r2, [sp]
 1314 000a 0223     		movs	r3, #2
 1315 000c 0A46     		mov	r2, r1
 1316              	.LVL96:
 1317              		.loc 1 625 11 view .LVU291
 1318 000e C1B2     		uxtb	r1, r0
 1319              	.LVL97:
 1320              		.loc 1 625 11 view .LVU292
 1321 0010 0248     		ldr	r0, .L88
 1322              	.LVL98:
 1323              		.loc 1 625 11 view .LVU293
 1324 0012 FFF7FEFF 		bl	I2Cx_WriteMultiple
 1325              	.LVL99:
 626:Drivers/BSP/STM32F769I-Discovery/stm32f769i_discovery.c **** }
 1326              		.loc 1 626 1 view .LVU294
 1327 0016 03B0     		add	sp, sp, #12
 1328              		.cfi_def_cfa_offset 4
 1329              		@ sp needed
 1330 0018 5DF804FB 		ldr	pc, [sp], #4
 1331              	.L89:
 1332              		.align	2
 1333              	.L88:
 1334 001c 00000000 		.word	hI2cExtHandler
 1335              		.cfi_endproc
 1336              	.LFE162:
 1338              		.section	.text.EEPROM_IO_ReadData,"ax",%progbits
 1339              		.align	1
 1340              		.global	EEPROM_IO_ReadData
 1341              		.syntax unified
 1342              		.thumb
 1343              		.thumb_func
 1345              	EEPROM_IO_ReadData:
 1346              	.LVL100:
 1347              	.LFB163:
 627:Drivers/BSP/STM32F769I-Discovery/stm32f769i_discovery.c **** 
 628:Drivers/BSP/STM32F769I-Discovery/stm32f769i_discovery.c **** /**
 629:Drivers/BSP/STM32F769I-Discovery/stm32f769i_discovery.c ****   * @brief  Read data from I2C EEPROM driver in using DMA channel.
 630:Drivers/BSP/STM32F769I-Discovery/stm32f769i_discovery.c ****   * @param  DevAddress: Target device address
 631:Drivers/BSP/STM32F769I-Discovery/stm32f769i_discovery.c ****   * @param  MemAddress: Internal memory address
 632:Drivers/BSP/STM32F769I-Discovery/stm32f769i_discovery.c ****   * @param  pBuffer: Pointer to data buffer
 633:Drivers/BSP/STM32F769I-Discovery/stm32f769i_discovery.c ****   * @param  BufferSize: Amount of data to be read
ARM GAS  /var/folders/n6/c271nzx11xl4r4_m7sqjlt0m0000gn/T//ccyzxgNq.s 			page 38


 634:Drivers/BSP/STM32F769I-Discovery/stm32f769i_discovery.c ****   * @retval HAL status
 635:Drivers/BSP/STM32F769I-Discovery/stm32f769i_discovery.c ****   */
 636:Drivers/BSP/STM32F769I-Discovery/stm32f769i_discovery.c **** HAL_StatusTypeDef EEPROM_IO_ReadData(uint16_t DevAddress, uint16_t MemAddress, uint8_t* pBuffer, ui
 637:Drivers/BSP/STM32F769I-Discovery/stm32f769i_discovery.c **** {
 1348              		.loc 1 637 1 is_stmt 1 view -0
 1349              		.cfi_startproc
 1350              		@ args = 0, pretend = 0, frame = 0
 1351              		@ frame_needed = 0, uses_anonymous_args = 0
 1352              		.loc 1 637 1 is_stmt 0 view .LVU296
 1353 0000 00B5     		push	{lr}
 1354              		.cfi_def_cfa_offset 4
 1355              		.cfi_offset 14, -4
 1356 0002 83B0     		sub	sp, sp, #12
 1357              		.cfi_def_cfa_offset 16
 638:Drivers/BSP/STM32F769I-Discovery/stm32f769i_discovery.c ****   return (I2Cx_ReadMultiple(&hI2cExtHandler, DevAddress, MemAddress, I2C_MEMADD_SIZE_16BIT, pBuffer
 1358              		.loc 1 638 3 is_stmt 1 view .LVU297
 1359              		.loc 1 638 11 is_stmt 0 view .LVU298
 1360 0004 9BB2     		uxth	r3, r3
 1361              	.LVL101:
 1362              		.loc 1 638 11 view .LVU299
 1363 0006 0193     		str	r3, [sp, #4]
 1364 0008 0092     		str	r2, [sp]
 1365 000a 0223     		movs	r3, #2
 1366 000c 0A46     		mov	r2, r1
 1367              	.LVL102:
 1368              		.loc 1 638 11 view .LVU300
 1369 000e C1B2     		uxtb	r1, r0
 1370              	.LVL103:
 1371              		.loc 1 638 11 view .LVU301
 1372 0010 0248     		ldr	r0, .L92
 1373              	.LVL104:
 1374              		.loc 1 638 11 view .LVU302
 1375 0012 FFF7FEFF 		bl	I2Cx_ReadMultiple
 1376              	.LVL105:
 639:Drivers/BSP/STM32F769I-Discovery/stm32f769i_discovery.c **** }
 1377              		.loc 1 639 1 view .LVU303
 1378 0016 03B0     		add	sp, sp, #12
 1379              		.cfi_def_cfa_offset 4
 1380              		@ sp needed
 1381 0018 5DF804FB 		ldr	pc, [sp], #4
 1382              	.L93:
 1383              		.align	2
 1384              	.L92:
 1385 001c 00000000 		.word	hI2cExtHandler
 1386              		.cfi_endproc
 1387              	.LFE163:
 1389              		.section	.text.EEPROM_IO_IsDeviceReady,"ax",%progbits
 1390              		.align	1
 1391              		.global	EEPROM_IO_IsDeviceReady
 1392              		.syntax unified
 1393              		.thumb
 1394              		.thumb_func
 1396              	EEPROM_IO_IsDeviceReady:
 1397              	.LVL106:
 1398              	.LFB164:
 640:Drivers/BSP/STM32F769I-Discovery/stm32f769i_discovery.c **** 
 641:Drivers/BSP/STM32F769I-Discovery/stm32f769i_discovery.c **** /**
ARM GAS  /var/folders/n6/c271nzx11xl4r4_m7sqjlt0m0000gn/T//ccyzxgNq.s 			page 39


 642:Drivers/BSP/STM32F769I-Discovery/stm32f769i_discovery.c ****   * @brief  Checks if target device is ready for communication. 
 643:Drivers/BSP/STM32F769I-Discovery/stm32f769i_discovery.c ****   * @note   This function is used with Memory devices
 644:Drivers/BSP/STM32F769I-Discovery/stm32f769i_discovery.c ****   * @param  DevAddress: Target device address
 645:Drivers/BSP/STM32F769I-Discovery/stm32f769i_discovery.c ****   * @param  Trials: Number of trials
 646:Drivers/BSP/STM32F769I-Discovery/stm32f769i_discovery.c ****   * @retval HAL status
 647:Drivers/BSP/STM32F769I-Discovery/stm32f769i_discovery.c ****   */
 648:Drivers/BSP/STM32F769I-Discovery/stm32f769i_discovery.c **** HAL_StatusTypeDef EEPROM_IO_IsDeviceReady(uint16_t DevAddress, uint32_t Trials)
 649:Drivers/BSP/STM32F769I-Discovery/stm32f769i_discovery.c **** { 
 1399              		.loc 1 649 1 is_stmt 1 view -0
 1400              		.cfi_startproc
 1401              		@ args = 0, pretend = 0, frame = 0
 1402              		@ frame_needed = 0, uses_anonymous_args = 0
 1403              		.loc 1 649 1 is_stmt 0 view .LVU305
 1404 0000 08B5     		push	{r3, lr}
 1405              		.cfi_def_cfa_offset 8
 1406              		.cfi_offset 3, -8
 1407              		.cfi_offset 14, -4
 1408 0002 0A46     		mov	r2, r1
 650:Drivers/BSP/STM32F769I-Discovery/stm32f769i_discovery.c ****   return (I2Cx_IsDeviceReady(&hI2cExtHandler, DevAddress, Trials));
 1409              		.loc 1 650 3 is_stmt 1 view .LVU306
 1410              		.loc 1 650 11 is_stmt 0 view .LVU307
 1411 0004 0146     		mov	r1, r0
 1412              	.LVL107:
 1413              		.loc 1 650 11 view .LVU308
 1414 0006 0248     		ldr	r0, .L96
 1415              	.LVL108:
 1416              		.loc 1 650 11 view .LVU309
 1417 0008 FFF7FEFF 		bl	I2Cx_IsDeviceReady
 1418              	.LVL109:
 651:Drivers/BSP/STM32F769I-Discovery/stm32f769i_discovery.c **** }
 1419              		.loc 1 651 1 view .LVU310
 1420 000c 08BD     		pop	{r3, pc}
 1421              	.L97:
 1422 000e 00BF     		.align	2
 1423              	.L96:
 1424 0010 00000000 		.word	hI2cExtHandler
 1425              		.cfi_endproc
 1426              	.LFE164:
 1428              		.section	.text.TS_IO_Init,"ax",%progbits
 1429              		.align	1
 1430              		.global	TS_IO_Init
 1431              		.syntax unified
 1432              		.thumb
 1433              		.thumb_func
 1435              	TS_IO_Init:
 1436              	.LFB165:
 652:Drivers/BSP/STM32F769I-Discovery/stm32f769i_discovery.c **** 
 653:Drivers/BSP/STM32F769I-Discovery/stm32f769i_discovery.c **** /******************************** LINK TS (TouchScreen) ***********************/
 654:Drivers/BSP/STM32F769I-Discovery/stm32f769i_discovery.c **** 
 655:Drivers/BSP/STM32F769I-Discovery/stm32f769i_discovery.c **** /**
 656:Drivers/BSP/STM32F769I-Discovery/stm32f769i_discovery.c ****   * @brief  Initializes Touchscreen low level.
 657:Drivers/BSP/STM32F769I-Discovery/stm32f769i_discovery.c ****   * @retval None
 658:Drivers/BSP/STM32F769I-Discovery/stm32f769i_discovery.c ****   */
 659:Drivers/BSP/STM32F769I-Discovery/stm32f769i_discovery.c **** void TS_IO_Init(void)
 660:Drivers/BSP/STM32F769I-Discovery/stm32f769i_discovery.c **** {
 1437              		.loc 1 660 1 is_stmt 1 view -0
 1438              		.cfi_startproc
ARM GAS  /var/folders/n6/c271nzx11xl4r4_m7sqjlt0m0000gn/T//ccyzxgNq.s 			page 40


 1439              		@ args = 0, pretend = 0, frame = 0
 1440              		@ frame_needed = 0, uses_anonymous_args = 0
 1441 0000 08B5     		push	{r3, lr}
 1442              		.cfi_def_cfa_offset 8
 1443              		.cfi_offset 3, -8
 1444              		.cfi_offset 14, -4
 661:Drivers/BSP/STM32F769I-Discovery/stm32f769i_discovery.c ****   I2Cx_Init(&hI2cAudioHandler);
 1445              		.loc 1 661 3 view .LVU312
 1446 0002 0248     		ldr	r0, .L100
 1447 0004 FFF7FEFF 		bl	I2Cx_Init
 1448              	.LVL110:
 662:Drivers/BSP/STM32F769I-Discovery/stm32f769i_discovery.c **** }
 1449              		.loc 1 662 1 is_stmt 0 view .LVU313
 1450 0008 08BD     		pop	{r3, pc}
 1451              	.L101:
 1452 000a 00BF     		.align	2
 1453              	.L100:
 1454 000c 00000000 		.word	hI2cAudioHandler
 1455              		.cfi_endproc
 1456              	.LFE165:
 1458              		.section	.text.TS_IO_Write,"ax",%progbits
 1459              		.align	1
 1460              		.global	TS_IO_Write
 1461              		.syntax unified
 1462              		.thumb
 1463              		.thumb_func
 1465              	TS_IO_Write:
 1466              	.LVL111:
 1467              	.LFB166:
 663:Drivers/BSP/STM32F769I-Discovery/stm32f769i_discovery.c **** 
 664:Drivers/BSP/STM32F769I-Discovery/stm32f769i_discovery.c **** /**
 665:Drivers/BSP/STM32F769I-Discovery/stm32f769i_discovery.c ****   * @brief  Writes a single data.
 666:Drivers/BSP/STM32F769I-Discovery/stm32f769i_discovery.c ****   * @param  Addr: I2C address
 667:Drivers/BSP/STM32F769I-Discovery/stm32f769i_discovery.c ****   * @param  Reg: Reg address
 668:Drivers/BSP/STM32F769I-Discovery/stm32f769i_discovery.c ****   * @param  Value: Data to be written
 669:Drivers/BSP/STM32F769I-Discovery/stm32f769i_discovery.c ****   * @retval None
 670:Drivers/BSP/STM32F769I-Discovery/stm32f769i_discovery.c ****   */
 671:Drivers/BSP/STM32F769I-Discovery/stm32f769i_discovery.c **** void TS_IO_Write(uint8_t Addr, uint8_t Reg, uint8_t Value)
 672:Drivers/BSP/STM32F769I-Discovery/stm32f769i_discovery.c **** {
 1468              		.loc 1 672 1 is_stmt 1 view -0
 1469              		.cfi_startproc
 1470              		@ args = 0, pretend = 0, frame = 8
 1471              		@ frame_needed = 0, uses_anonymous_args = 0
 1472              		.loc 1 672 1 is_stmt 0 view .LVU315
 1473 0000 00B5     		push	{lr}
 1474              		.cfi_def_cfa_offset 4
 1475              		.cfi_offset 14, -4
 1476 0002 85B0     		sub	sp, sp, #20
 1477              		.cfi_def_cfa_offset 24
 1478 0004 8DF80F20 		strb	r2, [sp, #15]
 673:Drivers/BSP/STM32F769I-Discovery/stm32f769i_discovery.c ****   I2Cx_WriteMultiple(&hI2cAudioHandler, Addr, (uint16_t)Reg, I2C_MEMADD_SIZE_8BIT,(uint8_t*)&Value,
 1479              		.loc 1 673 3 is_stmt 1 view .LVU316
 1480 0008 0123     		movs	r3, #1
 1481 000a 0193     		str	r3, [sp, #4]
 1482 000c 0DF10F02 		add	r2, sp, #15
 1483              	.LVL112:
 1484              		.loc 1 673 3 is_stmt 0 view .LVU317
ARM GAS  /var/folders/n6/c271nzx11xl4r4_m7sqjlt0m0000gn/T//ccyzxgNq.s 			page 41


 1485 0010 0092     		str	r2, [sp]
 1486 0012 0A46     		mov	r2, r1
 1487              	.LVL113:
 1488              		.loc 1 673 3 view .LVU318
 1489 0014 0146     		mov	r1, r0
 1490              	.LVL114:
 1491              		.loc 1 673 3 view .LVU319
 1492 0016 0348     		ldr	r0, .L104
 1493              	.LVL115:
 1494              		.loc 1 673 3 view .LVU320
 1495 0018 FFF7FEFF 		bl	I2Cx_WriteMultiple
 1496              	.LVL116:
 674:Drivers/BSP/STM32F769I-Discovery/stm32f769i_discovery.c **** }
 1497              		.loc 1 674 1 view .LVU321
 1498 001c 05B0     		add	sp, sp, #20
 1499              		.cfi_def_cfa_offset 4
 1500              		@ sp needed
 1501 001e 5DF804FB 		ldr	pc, [sp], #4
 1502              	.L105:
 1503 0022 00BF     		.align	2
 1504              	.L104:
 1505 0024 00000000 		.word	hI2cAudioHandler
 1506              		.cfi_endproc
 1507              	.LFE166:
 1509              		.section	.text.TS_IO_Read,"ax",%progbits
 1510              		.align	1
 1511              		.global	TS_IO_Read
 1512              		.syntax unified
 1513              		.thumb
 1514              		.thumb_func
 1516              	TS_IO_Read:
 1517              	.LVL117:
 1518              	.LFB167:
 675:Drivers/BSP/STM32F769I-Discovery/stm32f769i_discovery.c **** 
 676:Drivers/BSP/STM32F769I-Discovery/stm32f769i_discovery.c **** /**
 677:Drivers/BSP/STM32F769I-Discovery/stm32f769i_discovery.c ****   * @brief  Reads a single data.
 678:Drivers/BSP/STM32F769I-Discovery/stm32f769i_discovery.c ****   * @param  Addr: I2C address
 679:Drivers/BSP/STM32F769I-Discovery/stm32f769i_discovery.c ****   * @param  Reg: Reg address
 680:Drivers/BSP/STM32F769I-Discovery/stm32f769i_discovery.c ****   * @retval Data to be read
 681:Drivers/BSP/STM32F769I-Discovery/stm32f769i_discovery.c ****   */
 682:Drivers/BSP/STM32F769I-Discovery/stm32f769i_discovery.c **** uint8_t TS_IO_Read(uint8_t Addr, uint8_t Reg)
 683:Drivers/BSP/STM32F769I-Discovery/stm32f769i_discovery.c **** {
 1519              		.loc 1 683 1 is_stmt 1 view -0
 1520              		.cfi_startproc
 1521              		@ args = 0, pretend = 0, frame = 8
 1522              		@ frame_needed = 0, uses_anonymous_args = 0
 1523              		.loc 1 683 1 is_stmt 0 view .LVU323
 1524 0000 00B5     		push	{lr}
 1525              		.cfi_def_cfa_offset 4
 1526              		.cfi_offset 14, -4
 1527 0002 85B0     		sub	sp, sp, #20
 1528              		.cfi_def_cfa_offset 24
 1529 0004 0A46     		mov	r2, r1
 684:Drivers/BSP/STM32F769I-Discovery/stm32f769i_discovery.c ****   uint8_t read_value = 0;
 1530              		.loc 1 684 3 is_stmt 1 view .LVU324
 1531              		.loc 1 684 11 is_stmt 0 view .LVU325
 1532 0006 0023     		movs	r3, #0
ARM GAS  /var/folders/n6/c271nzx11xl4r4_m7sqjlt0m0000gn/T//ccyzxgNq.s 			page 42


 1533 0008 8DF80F30 		strb	r3, [sp, #15]
 685:Drivers/BSP/STM32F769I-Discovery/stm32f769i_discovery.c **** 
 686:Drivers/BSP/STM32F769I-Discovery/stm32f769i_discovery.c ****   I2Cx_ReadMultiple(&hI2cAudioHandler, Addr, Reg, I2C_MEMADD_SIZE_8BIT, (uint8_t*)&read_value, 1);
 1534              		.loc 1 686 3 is_stmt 1 view .LVU326
 1535 000c 0123     		movs	r3, #1
 1536 000e 0193     		str	r3, [sp, #4]
 1537 0010 0DF10F01 		add	r1, sp, #15
 1538              	.LVL118:
 1539              		.loc 1 686 3 is_stmt 0 view .LVU327
 1540 0014 0091     		str	r1, [sp]
 1541 0016 0146     		mov	r1, r0
 1542 0018 0348     		ldr	r0, .L108
 1543              	.LVL119:
 1544              		.loc 1 686 3 view .LVU328
 1545 001a FFF7FEFF 		bl	I2Cx_ReadMultiple
 1546              	.LVL120:
 687:Drivers/BSP/STM32F769I-Discovery/stm32f769i_discovery.c **** 
 688:Drivers/BSP/STM32F769I-Discovery/stm32f769i_discovery.c ****   return read_value;
 1547              		.loc 1 688 3 is_stmt 1 view .LVU329
 689:Drivers/BSP/STM32F769I-Discovery/stm32f769i_discovery.c **** }
 1548              		.loc 1 689 1 is_stmt 0 view .LVU330
 1549 001e 9DF80F00 		ldrb	r0, [sp, #15]	@ zero_extendqisi2
 1550 0022 05B0     		add	sp, sp, #20
 1551              		.cfi_def_cfa_offset 4
 1552              		@ sp needed
 1553 0024 5DF804FB 		ldr	pc, [sp], #4
 1554              	.L109:
 1555              		.align	2
 1556              	.L108:
 1557 0028 00000000 		.word	hI2cAudioHandler
 1558              		.cfi_endproc
 1559              	.LFE167:
 1561              		.section	.text.TS_IO_ReadMultiple,"ax",%progbits
 1562              		.align	1
 1563              		.global	TS_IO_ReadMultiple
 1564              		.syntax unified
 1565              		.thumb
 1566              		.thumb_func
 1568              	TS_IO_ReadMultiple:
 1569              	.LVL121:
 1570              	.LFB168:
 690:Drivers/BSP/STM32F769I-Discovery/stm32f769i_discovery.c **** 
 691:Drivers/BSP/STM32F769I-Discovery/stm32f769i_discovery.c **** /**
 692:Drivers/BSP/STM32F769I-Discovery/stm32f769i_discovery.c ****   * @brief  Reads multiple data with I2C communication
 693:Drivers/BSP/STM32F769I-Discovery/stm32f769i_discovery.c ****   *         channel from TouchScreen.
 694:Drivers/BSP/STM32F769I-Discovery/stm32f769i_discovery.c ****   * @param  Addr: I2C address
 695:Drivers/BSP/STM32F769I-Discovery/stm32f769i_discovery.c ****   * @param  Reg: Register address
 696:Drivers/BSP/STM32F769I-Discovery/stm32f769i_discovery.c ****   * @param  Buffer: Pointer to data buffer
 697:Drivers/BSP/STM32F769I-Discovery/stm32f769i_discovery.c ****   * @param  Length: Length of the data
 698:Drivers/BSP/STM32F769I-Discovery/stm32f769i_discovery.c ****   * @retval Number of read data
 699:Drivers/BSP/STM32F769I-Discovery/stm32f769i_discovery.c ****   */
 700:Drivers/BSP/STM32F769I-Discovery/stm32f769i_discovery.c **** uint16_t TS_IO_ReadMultiple(uint8_t Addr, uint8_t Reg, uint8_t *Buffer, uint16_t Length)
 701:Drivers/BSP/STM32F769I-Discovery/stm32f769i_discovery.c **** {
 1571              		.loc 1 701 1 is_stmt 1 view -0
 1572              		.cfi_startproc
 1573              		@ args = 0, pretend = 0, frame = 0
 1574              		@ frame_needed = 0, uses_anonymous_args = 0
ARM GAS  /var/folders/n6/c271nzx11xl4r4_m7sqjlt0m0000gn/T//ccyzxgNq.s 			page 43


 1575              		.loc 1 701 1 is_stmt 0 view .LVU332
 1576 0000 00B5     		push	{lr}
 1577              		.cfi_def_cfa_offset 4
 1578              		.cfi_offset 14, -4
 1579 0002 83B0     		sub	sp, sp, #12
 1580              		.cfi_def_cfa_offset 16
 702:Drivers/BSP/STM32F769I-Discovery/stm32f769i_discovery.c ****  return I2Cx_ReadMultiple(&hI2cAudioHandler, Addr, (uint16_t)Reg, I2C_MEMADD_SIZE_8BIT, Buffer, Len
 1581              		.loc 1 702 2 is_stmt 1 view .LVU333
 1582              		.loc 1 702 9 is_stmt 0 view .LVU334
 1583 0004 0193     		str	r3, [sp, #4]
 1584 0006 0092     		str	r2, [sp]
 1585 0008 0123     		movs	r3, #1
 1586              	.LVL122:
 1587              		.loc 1 702 9 view .LVU335
 1588 000a 0A46     		mov	r2, r1
 1589              	.LVL123:
 1590              		.loc 1 702 9 view .LVU336
 1591 000c 0146     		mov	r1, r0
 1592              	.LVL124:
 1593              		.loc 1 702 9 view .LVU337
 1594 000e 0348     		ldr	r0, .L112
 1595              	.LVL125:
 1596              		.loc 1 702 9 view .LVU338
 1597 0010 FFF7FEFF 		bl	I2Cx_ReadMultiple
 1598              	.LVL126:
 703:Drivers/BSP/STM32F769I-Discovery/stm32f769i_discovery.c **** }
 1599              		.loc 1 703 1 view .LVU339
 1600 0014 03B0     		add	sp, sp, #12
 1601              		.cfi_def_cfa_offset 4
 1602              		@ sp needed
 1603 0016 5DF804FB 		ldr	pc, [sp], #4
 1604              	.L113:
 1605 001a 00BF     		.align	2
 1606              	.L112:
 1607 001c 00000000 		.word	hI2cAudioHandler
 1608              		.cfi_endproc
 1609              	.LFE168:
 1611              		.section	.text.TS_IO_WriteMultiple,"ax",%progbits
 1612              		.align	1
 1613              		.global	TS_IO_WriteMultiple
 1614              		.syntax unified
 1615              		.thumb
 1616              		.thumb_func
 1618              	TS_IO_WriteMultiple:
 1619              	.LVL127:
 1620              	.LFB169:
 704:Drivers/BSP/STM32F769I-Discovery/stm32f769i_discovery.c **** 
 705:Drivers/BSP/STM32F769I-Discovery/stm32f769i_discovery.c **** /**
 706:Drivers/BSP/STM32F769I-Discovery/stm32f769i_discovery.c ****   * @brief  Writes multiple data with I2C communication
 707:Drivers/BSP/STM32F769I-Discovery/stm32f769i_discovery.c ****   *         channel from MCU to TouchScreen.
 708:Drivers/BSP/STM32F769I-Discovery/stm32f769i_discovery.c ****   * @param  Addr: I2C address
 709:Drivers/BSP/STM32F769I-Discovery/stm32f769i_discovery.c ****   * @param  Reg: Register address
 710:Drivers/BSP/STM32F769I-Discovery/stm32f769i_discovery.c ****   * @param  Buffer: Pointer to data buffer
 711:Drivers/BSP/STM32F769I-Discovery/stm32f769i_discovery.c ****   * @param  Length: Length of the data
 712:Drivers/BSP/STM32F769I-Discovery/stm32f769i_discovery.c ****   * @retval None
 713:Drivers/BSP/STM32F769I-Discovery/stm32f769i_discovery.c ****   */
 714:Drivers/BSP/STM32F769I-Discovery/stm32f769i_discovery.c **** void TS_IO_WriteMultiple(uint8_t Addr, uint8_t Reg, uint8_t *Buffer, uint16_t Length)
ARM GAS  /var/folders/n6/c271nzx11xl4r4_m7sqjlt0m0000gn/T//ccyzxgNq.s 			page 44


 715:Drivers/BSP/STM32F769I-Discovery/stm32f769i_discovery.c **** {
 1621              		.loc 1 715 1 is_stmt 1 view -0
 1622              		.cfi_startproc
 1623              		@ args = 0, pretend = 0, frame = 0
 1624              		@ frame_needed = 0, uses_anonymous_args = 0
 1625              		.loc 1 715 1 is_stmt 0 view .LVU341
 1626 0000 00B5     		push	{lr}
 1627              		.cfi_def_cfa_offset 4
 1628              		.cfi_offset 14, -4
 1629 0002 83B0     		sub	sp, sp, #12
 1630              		.cfi_def_cfa_offset 16
 716:Drivers/BSP/STM32F769I-Discovery/stm32f769i_discovery.c ****   I2Cx_WriteMultiple(&hI2cAudioHandler, Addr, (uint16_t)Reg, I2C_MEMADD_SIZE_8BIT, Buffer, Length);
 1631              		.loc 1 716 3 is_stmt 1 view .LVU342
 1632 0004 0193     		str	r3, [sp, #4]
 1633 0006 0092     		str	r2, [sp]
 1634 0008 0123     		movs	r3, #1
 1635              	.LVL128:
 1636              		.loc 1 716 3 is_stmt 0 view .LVU343
 1637 000a 0A46     		mov	r2, r1
 1638              	.LVL129:
 1639              		.loc 1 716 3 view .LVU344
 1640 000c 0146     		mov	r1, r0
 1641              	.LVL130:
 1642              		.loc 1 716 3 view .LVU345
 1643 000e 0348     		ldr	r0, .L116
 1644              	.LVL131:
 1645              		.loc 1 716 3 view .LVU346
 1646 0010 FFF7FEFF 		bl	I2Cx_WriteMultiple
 1647              	.LVL132:
 717:Drivers/BSP/STM32F769I-Discovery/stm32f769i_discovery.c **** }
 1648              		.loc 1 717 1 view .LVU347
 1649 0014 03B0     		add	sp, sp, #12
 1650              		.cfi_def_cfa_offset 4
 1651              		@ sp needed
 1652 0016 5DF804FB 		ldr	pc, [sp], #4
 1653              	.L117:
 1654 001a 00BF     		.align	2
 1655              	.L116:
 1656 001c 00000000 		.word	hI2cAudioHandler
 1657              		.cfi_endproc
 1658              	.LFE169:
 1660              		.section	.text.TS_IO_Delay,"ax",%progbits
 1661              		.align	1
 1662              		.global	TS_IO_Delay
 1663              		.syntax unified
 1664              		.thumb
 1665              		.thumb_func
 1667              	TS_IO_Delay:
 1668              	.LVL133:
 1669              	.LFB170:
 718:Drivers/BSP/STM32F769I-Discovery/stm32f769i_discovery.c **** 
 719:Drivers/BSP/STM32F769I-Discovery/stm32f769i_discovery.c **** /**
 720:Drivers/BSP/STM32F769I-Discovery/stm32f769i_discovery.c ****   * @brief  Delay function used in TouchScreen low level driver.
 721:Drivers/BSP/STM32F769I-Discovery/stm32f769i_discovery.c ****   * @param  Delay: Delay in ms
 722:Drivers/BSP/STM32F769I-Discovery/stm32f769i_discovery.c ****   * @retval None
 723:Drivers/BSP/STM32F769I-Discovery/stm32f769i_discovery.c ****   */
 724:Drivers/BSP/STM32F769I-Discovery/stm32f769i_discovery.c **** void TS_IO_Delay(uint32_t Delay)
ARM GAS  /var/folders/n6/c271nzx11xl4r4_m7sqjlt0m0000gn/T//ccyzxgNq.s 			page 45


 725:Drivers/BSP/STM32F769I-Discovery/stm32f769i_discovery.c **** {
 1670              		.loc 1 725 1 is_stmt 1 view -0
 1671              		.cfi_startproc
 1672              		@ args = 0, pretend = 0, frame = 0
 1673              		@ frame_needed = 0, uses_anonymous_args = 0
 1674              		.loc 1 725 1 is_stmt 0 view .LVU349
 1675 0000 08B5     		push	{r3, lr}
 1676              		.cfi_def_cfa_offset 8
 1677              		.cfi_offset 3, -8
 1678              		.cfi_offset 14, -4
 726:Drivers/BSP/STM32F769I-Discovery/stm32f769i_discovery.c ****   HAL_Delay(Delay);
 1679              		.loc 1 726 3 is_stmt 1 view .LVU350
 1680 0002 FFF7FEFF 		bl	HAL_Delay
 1681              	.LVL134:
 727:Drivers/BSP/STM32F769I-Discovery/stm32f769i_discovery.c **** }
 1682              		.loc 1 727 1 is_stmt 0 view .LVU351
 1683 0006 08BD     		pop	{r3, pc}
 1684              		.cfi_endproc
 1685              	.LFE170:
 1687              		.section	.text.OTM8009A_IO_Delay,"ax",%progbits
 1688              		.align	1
 1689              		.global	OTM8009A_IO_Delay
 1690              		.syntax unified
 1691              		.thumb
 1692              		.thumb_func
 1694              	OTM8009A_IO_Delay:
 1695              	.LVL135:
 1696              	.LFB171:
 728:Drivers/BSP/STM32F769I-Discovery/stm32f769i_discovery.c **** 
 729:Drivers/BSP/STM32F769I-Discovery/stm32f769i_discovery.c **** /**************************** LINK OTM8009A (Display driver) ******************/
 730:Drivers/BSP/STM32F769I-Discovery/stm32f769i_discovery.c **** /**
 731:Drivers/BSP/STM32F769I-Discovery/stm32f769i_discovery.c ****   * @brief  OTM8009A delay
 732:Drivers/BSP/STM32F769I-Discovery/stm32f769i_discovery.c ****   * @param  Delay: Delay in ms
 733:Drivers/BSP/STM32F769I-Discovery/stm32f769i_discovery.c ****   */
 734:Drivers/BSP/STM32F769I-Discovery/stm32f769i_discovery.c **** void OTM8009A_IO_Delay(uint32_t Delay)
 735:Drivers/BSP/STM32F769I-Discovery/stm32f769i_discovery.c **** {
 1697              		.loc 1 735 1 is_stmt 1 view -0
 1698              		.cfi_startproc
 1699              		@ args = 0, pretend = 0, frame = 0
 1700              		@ frame_needed = 0, uses_anonymous_args = 0
 1701              		.loc 1 735 1 is_stmt 0 view .LVU353
 1702 0000 08B5     		push	{r3, lr}
 1703              		.cfi_def_cfa_offset 8
 1704              		.cfi_offset 3, -8
 1705              		.cfi_offset 14, -4
 736:Drivers/BSP/STM32F769I-Discovery/stm32f769i_discovery.c ****   HAL_Delay(Delay);
 1706              		.loc 1 736 3 is_stmt 1 view .LVU354
 1707 0002 FFF7FEFF 		bl	HAL_Delay
 1708              	.LVL136:
 737:Drivers/BSP/STM32F769I-Discovery/stm32f769i_discovery.c **** }
 1709              		.loc 1 737 1 is_stmt 0 view .LVU355
 1710 0006 08BD     		pop	{r3, pc}
 1711              		.cfi_endproc
 1712              	.LFE171:
 1714              		.section	.text.NT35510_IO_Delay,"ax",%progbits
 1715              		.align	1
 1716              		.global	NT35510_IO_Delay
ARM GAS  /var/folders/n6/c271nzx11xl4r4_m7sqjlt0m0000gn/T//ccyzxgNq.s 			page 46


 1717              		.syntax unified
 1718              		.thumb
 1719              		.thumb_func
 1721              	NT35510_IO_Delay:
 1722              	.LVL137:
 1723              	.LFB172:
 738:Drivers/BSP/STM32F769I-Discovery/stm32f769i_discovery.c **** 
 739:Drivers/BSP/STM32F769I-Discovery/stm32f769i_discovery.c **** /**************************** LINK NT35510 (Display driver) ******************/
 740:Drivers/BSP/STM32F769I-Discovery/stm32f769i_discovery.c **** /**
 741:Drivers/BSP/STM32F769I-Discovery/stm32f769i_discovery.c ****   * @brief  NT35510 delay
 742:Drivers/BSP/STM32F769I-Discovery/stm32f769i_discovery.c ****   * @param  Delay: Delay in ms
 743:Drivers/BSP/STM32F769I-Discovery/stm32f769i_discovery.c ****   */
 744:Drivers/BSP/STM32F769I-Discovery/stm32f769i_discovery.c **** void NT35510_IO_Delay(uint32_t Delay)
 745:Drivers/BSP/STM32F769I-Discovery/stm32f769i_discovery.c **** {
 1724              		.loc 1 745 1 is_stmt 1 view -0
 1725              		.cfi_startproc
 1726              		@ args = 0, pretend = 0, frame = 0
 1727              		@ frame_needed = 0, uses_anonymous_args = 0
 1728              		.loc 1 745 1 is_stmt 0 view .LVU357
 1729 0000 08B5     		push	{r3, lr}
 1730              		.cfi_def_cfa_offset 8
 1731              		.cfi_offset 3, -8
 1732              		.cfi_offset 14, -4
 746:Drivers/BSP/STM32F769I-Discovery/stm32f769i_discovery.c ****   HAL_Delay(Delay);
 1733              		.loc 1 746 3 is_stmt 1 view .LVU358
 1734 0002 FFF7FEFF 		bl	HAL_Delay
 1735              	.LVL138:
 747:Drivers/BSP/STM32F769I-Discovery/stm32f769i_discovery.c **** }
 1736              		.loc 1 747 1 is_stmt 0 view .LVU359
 1737 0006 08BD     		pop	{r3, pc}
 1738              		.cfi_endproc
 1739              	.LFE172:
 1741              		.section	.text.HDMI_IO_Init,"ax",%progbits
 1742              		.align	1
 1743              		.global	HDMI_IO_Init
 1744              		.syntax unified
 1745              		.thumb
 1746              		.thumb_func
 1748              	HDMI_IO_Init:
 1749              	.LFB173:
 748:Drivers/BSP/STM32F769I-Discovery/stm32f769i_discovery.c **** 
 749:Drivers/BSP/STM32F769I-Discovery/stm32f769i_discovery.c **** /**************************** LINK ADV7533 DSI-HDMI (Display driver) **********/
 750:Drivers/BSP/STM32F769I-Discovery/stm32f769i_discovery.c **** /**
 751:Drivers/BSP/STM32F769I-Discovery/stm32f769i_discovery.c ****   * @brief  Initializes HDMI IO low level.
 752:Drivers/BSP/STM32F769I-Discovery/stm32f769i_discovery.c ****   * @retval None
 753:Drivers/BSP/STM32F769I-Discovery/stm32f769i_discovery.c ****   */
 754:Drivers/BSP/STM32F769I-Discovery/stm32f769i_discovery.c **** void HDMI_IO_Init(void)
 755:Drivers/BSP/STM32F769I-Discovery/stm32f769i_discovery.c **** {
 1750              		.loc 1 755 1 is_stmt 1 view -0
 1751              		.cfi_startproc
 1752              		@ args = 0, pretend = 0, frame = 0
 1753              		@ frame_needed = 0, uses_anonymous_args = 0
 1754 0000 08B5     		push	{r3, lr}
 1755              		.cfi_def_cfa_offset 8
 1756              		.cfi_offset 3, -8
 1757              		.cfi_offset 14, -4
 756:Drivers/BSP/STM32F769I-Discovery/stm32f769i_discovery.c ****   I2Cx_Init(&hI2cAudioHandler);
ARM GAS  /var/folders/n6/c271nzx11xl4r4_m7sqjlt0m0000gn/T//ccyzxgNq.s 			page 47


 1758              		.loc 1 756 3 view .LVU361
 1759 0002 0248     		ldr	r0, .L126
 1760 0004 FFF7FEFF 		bl	I2Cx_Init
 1761              	.LVL139:
 757:Drivers/BSP/STM32F769I-Discovery/stm32f769i_discovery.c **** }
 1762              		.loc 1 757 1 is_stmt 0 view .LVU362
 1763 0008 08BD     		pop	{r3, pc}
 1764              	.L127:
 1765 000a 00BF     		.align	2
 1766              	.L126:
 1767 000c 00000000 		.word	hI2cAudioHandler
 1768              		.cfi_endproc
 1769              	.LFE173:
 1771              		.section	.text.HDMI_IO_Write,"ax",%progbits
 1772              		.align	1
 1773              		.global	HDMI_IO_Write
 1774              		.syntax unified
 1775              		.thumb
 1776              		.thumb_func
 1778              	HDMI_IO_Write:
 1779              	.LVL140:
 1780              	.LFB174:
 758:Drivers/BSP/STM32F769I-Discovery/stm32f769i_discovery.c **** 
 759:Drivers/BSP/STM32F769I-Discovery/stm32f769i_discovery.c **** /**
 760:Drivers/BSP/STM32F769I-Discovery/stm32f769i_discovery.c ****   * @brief  HDMI writes single data.
 761:Drivers/BSP/STM32F769I-Discovery/stm32f769i_discovery.c ****   * @param  Addr: I2C address
 762:Drivers/BSP/STM32F769I-Discovery/stm32f769i_discovery.c ****   * @param  Reg: Register address 
 763:Drivers/BSP/STM32F769I-Discovery/stm32f769i_discovery.c ****   * @param  Value: Data to be written
 764:Drivers/BSP/STM32F769I-Discovery/stm32f769i_discovery.c ****   * @retval None
 765:Drivers/BSP/STM32F769I-Discovery/stm32f769i_discovery.c ****   */
 766:Drivers/BSP/STM32F769I-Discovery/stm32f769i_discovery.c **** void HDMI_IO_Write(uint8_t Addr, uint8_t Reg, uint8_t Value)
 767:Drivers/BSP/STM32F769I-Discovery/stm32f769i_discovery.c **** {
 1781              		.loc 1 767 1 is_stmt 1 view -0
 1782              		.cfi_startproc
 1783              		@ args = 0, pretend = 0, frame = 8
 1784              		@ frame_needed = 0, uses_anonymous_args = 0
 1785              		.loc 1 767 1 is_stmt 0 view .LVU364
 1786 0000 00B5     		push	{lr}
 1787              		.cfi_def_cfa_offset 4
 1788              		.cfi_offset 14, -4
 1789 0002 85B0     		sub	sp, sp, #20
 1790              		.cfi_def_cfa_offset 24
 1791 0004 8DF80F20 		strb	r2, [sp, #15]
 768:Drivers/BSP/STM32F769I-Discovery/stm32f769i_discovery.c ****   I2Cx_WriteMultiple(&hI2cAudioHandler, Addr, (uint16_t)Reg, I2C_MEMADD_SIZE_8BIT, &Value, 1);  
 1792              		.loc 1 768 3 is_stmt 1 view .LVU365
 1793 0008 0123     		movs	r3, #1
 1794 000a 0193     		str	r3, [sp, #4]
 1795 000c 0DF10F02 		add	r2, sp, #15
 1796              	.LVL141:
 1797              		.loc 1 768 3 is_stmt 0 view .LVU366
 1798 0010 0092     		str	r2, [sp]
 1799 0012 0A46     		mov	r2, r1
 1800              	.LVL142:
 1801              		.loc 1 768 3 view .LVU367
 1802 0014 0146     		mov	r1, r0
 1803              	.LVL143:
 1804              		.loc 1 768 3 view .LVU368
ARM GAS  /var/folders/n6/c271nzx11xl4r4_m7sqjlt0m0000gn/T//ccyzxgNq.s 			page 48


 1805 0016 0348     		ldr	r0, .L130
 1806              	.LVL144:
 1807              		.loc 1 768 3 view .LVU369
 1808 0018 FFF7FEFF 		bl	I2Cx_WriteMultiple
 1809              	.LVL145:
 769:Drivers/BSP/STM32F769I-Discovery/stm32f769i_discovery.c **** }
 1810              		.loc 1 769 1 view .LVU370
 1811 001c 05B0     		add	sp, sp, #20
 1812              		.cfi_def_cfa_offset 4
 1813              		@ sp needed
 1814 001e 5DF804FB 		ldr	pc, [sp], #4
 1815              	.L131:
 1816 0022 00BF     		.align	2
 1817              	.L130:
 1818 0024 00000000 		.word	hI2cAudioHandler
 1819              		.cfi_endproc
 1820              	.LFE174:
 1822              		.section	.text.HDMI_IO_Read,"ax",%progbits
 1823              		.align	1
 1824              		.global	HDMI_IO_Read
 1825              		.syntax unified
 1826              		.thumb
 1827              		.thumb_func
 1829              	HDMI_IO_Read:
 1830              	.LVL146:
 1831              	.LFB175:
 770:Drivers/BSP/STM32F769I-Discovery/stm32f769i_discovery.c **** 
 771:Drivers/BSP/STM32F769I-Discovery/stm32f769i_discovery.c **** /**
 772:Drivers/BSP/STM32F769I-Discovery/stm32f769i_discovery.c ****   * @brief  Reads single data with I2C communication
 773:Drivers/BSP/STM32F769I-Discovery/stm32f769i_discovery.c ****   *         channel from HDMI bridge.
 774:Drivers/BSP/STM32F769I-Discovery/stm32f769i_discovery.c ****   * @param  Addr: I2C address
 775:Drivers/BSP/STM32F769I-Discovery/stm32f769i_discovery.c ****   * @param  Reg: Register address
 776:Drivers/BSP/STM32F769I-Discovery/stm32f769i_discovery.c ****   * @retval Read data
 777:Drivers/BSP/STM32F769I-Discovery/stm32f769i_discovery.c ****   */
 778:Drivers/BSP/STM32F769I-Discovery/stm32f769i_discovery.c **** uint8_t HDMI_IO_Read(uint8_t Addr, uint8_t Reg)
 779:Drivers/BSP/STM32F769I-Discovery/stm32f769i_discovery.c **** {
 1832              		.loc 1 779 1 is_stmt 1 view -0
 1833              		.cfi_startproc
 1834              		@ args = 0, pretend = 0, frame = 8
 1835              		@ frame_needed = 0, uses_anonymous_args = 0
 1836              		.loc 1 779 1 is_stmt 0 view .LVU372
 1837 0000 00B5     		push	{lr}
 1838              		.cfi_def_cfa_offset 4
 1839              		.cfi_offset 14, -4
 1840 0002 85B0     		sub	sp, sp, #20
 1841              		.cfi_def_cfa_offset 24
 1842 0004 0A46     		mov	r2, r1
 780:Drivers/BSP/STM32F769I-Discovery/stm32f769i_discovery.c ****   uint8_t value = 0x00;
 1843              		.loc 1 780 3 is_stmt 1 view .LVU373
 1844              		.loc 1 780 11 is_stmt 0 view .LVU374
 1845 0006 0023     		movs	r3, #0
 1846 0008 8DF80F30 		strb	r3, [sp, #15]
 781:Drivers/BSP/STM32F769I-Discovery/stm32f769i_discovery.c **** 
 782:Drivers/BSP/STM32F769I-Discovery/stm32f769i_discovery.c ****   I2Cx_ReadMultiple(&hI2cAudioHandler, Addr, (uint16_t)Reg, I2C_MEMADD_SIZE_8BIT, &value, 1);
 1847              		.loc 1 782 3 is_stmt 1 view .LVU375
 1848 000c 0123     		movs	r3, #1
 1849 000e 0193     		str	r3, [sp, #4]
ARM GAS  /var/folders/n6/c271nzx11xl4r4_m7sqjlt0m0000gn/T//ccyzxgNq.s 			page 49


 1850 0010 0DF10F01 		add	r1, sp, #15
 1851              	.LVL147:
 1852              		.loc 1 782 3 is_stmt 0 view .LVU376
 1853 0014 0091     		str	r1, [sp]
 1854 0016 0146     		mov	r1, r0
 1855 0018 0348     		ldr	r0, .L134
 1856              	.LVL148:
 1857              		.loc 1 782 3 view .LVU377
 1858 001a FFF7FEFF 		bl	I2Cx_ReadMultiple
 1859              	.LVL149:
 783:Drivers/BSP/STM32F769I-Discovery/stm32f769i_discovery.c **** 
 784:Drivers/BSP/STM32F769I-Discovery/stm32f769i_discovery.c ****   return value;   
 1860              		.loc 1 784 3 is_stmt 1 view .LVU378
 785:Drivers/BSP/STM32F769I-Discovery/stm32f769i_discovery.c **** }
 1861              		.loc 1 785 1 is_stmt 0 view .LVU379
 1862 001e 9DF80F00 		ldrb	r0, [sp, #15]	@ zero_extendqisi2
 1863 0022 05B0     		add	sp, sp, #20
 1864              		.cfi_def_cfa_offset 4
 1865              		@ sp needed
 1866 0024 5DF804FB 		ldr	pc, [sp], #4
 1867              	.L135:
 1868              		.align	2
 1869              	.L134:
 1870 0028 00000000 		.word	hI2cAudioHandler
 1871              		.cfi_endproc
 1872              	.LFE175:
 1874              		.section	.text.HDMI_IO_Delay,"ax",%progbits
 1875              		.align	1
 1876              		.global	HDMI_IO_Delay
 1877              		.syntax unified
 1878              		.thumb
 1879              		.thumb_func
 1881              	HDMI_IO_Delay:
 1882              	.LVL150:
 1883              	.LFB176:
 786:Drivers/BSP/STM32F769I-Discovery/stm32f769i_discovery.c **** 
 787:Drivers/BSP/STM32F769I-Discovery/stm32f769i_discovery.c **** /**
 788:Drivers/BSP/STM32F769I-Discovery/stm32f769i_discovery.c ****   * @brief  HDMI delay 
 789:Drivers/BSP/STM32F769I-Discovery/stm32f769i_discovery.c ****   * @param  Delay: Delay in ms
 790:Drivers/BSP/STM32F769I-Discovery/stm32f769i_discovery.c ****   * @retval None
 791:Drivers/BSP/STM32F769I-Discovery/stm32f769i_discovery.c ****   */
 792:Drivers/BSP/STM32F769I-Discovery/stm32f769i_discovery.c **** void HDMI_IO_Delay(uint32_t Delay)
 793:Drivers/BSP/STM32F769I-Discovery/stm32f769i_discovery.c **** {
 1884              		.loc 1 793 1 is_stmt 1 view -0
 1885              		.cfi_startproc
 1886              		@ args = 0, pretend = 0, frame = 0
 1887              		@ frame_needed = 0, uses_anonymous_args = 0
 1888              		.loc 1 793 1 is_stmt 0 view .LVU381
 1889 0000 08B5     		push	{r3, lr}
 1890              		.cfi_def_cfa_offset 8
 1891              		.cfi_offset 3, -8
 1892              		.cfi_offset 14, -4
 794:Drivers/BSP/STM32F769I-Discovery/stm32f769i_discovery.c ****   HAL_Delay(Delay);
 1893              		.loc 1 794 3 is_stmt 1 view .LVU382
 1894 0002 FFF7FEFF 		bl	HAL_Delay
 1895              	.LVL151:
 795:Drivers/BSP/STM32F769I-Discovery/stm32f769i_discovery.c **** }
ARM GAS  /var/folders/n6/c271nzx11xl4r4_m7sqjlt0m0000gn/T//ccyzxgNq.s 			page 50


 1896              		.loc 1 795 1 is_stmt 0 view .LVU383
 1897 0006 08BD     		pop	{r3, pc}
 1898              		.cfi_endproc
 1899              	.LFE176:
 1901              		.section	.bss.hI2cExtHandler,"aw",%nobits
 1902              		.align	2
 1905              	hI2cExtHandler:
 1906 0000 00000000 		.space	84
 1906      00000000 
 1906      00000000 
 1906      00000000 
 1906      00000000 
 1907              		.section	.bss.hI2cAudioHandler,"aw",%nobits
 1908              		.align	2
 1911              	hI2cAudioHandler:
 1912 0000 00000000 		.space	84
 1912      00000000 
 1912      00000000 
 1912      00000000 
 1912      00000000 
 1913              		.global	BUTTON_IRQn
 1914              		.section	.rodata.BUTTON_IRQn,"a"
 1915              		.align	2
 1918              	BUTTON_IRQn:
 1919 0000 0600     		.short	6
 1920              		.global	BUTTON_PIN
 1921              		.section	.rodata.BUTTON_PIN,"a"
 1922              		.align	2
 1925              	BUTTON_PIN:
 1926 0000 0100     		.short	1
 1927              		.global	BUTTON_PORT
 1928              		.section	.data.BUTTON_PORT,"aw"
 1929              		.align	2
 1932              	BUTTON_PORT:
 1933 0000 00000240 		.word	1073872896
 1934              		.global	GPIO_PORT
 1935              		.section	.data.GPIO_PORT,"aw"
 1936              		.align	2
 1939              	GPIO_PORT:
 1940 0000 00240240 		.word	1073882112
 1941 0004 00240240 		.word	1073882112
 1942              		.global	GPIO_PIN
 1943              		.section	.data.GPIO_PIN,"aw"
 1944              		.align	2
 1947              	GPIO_PIN:
 1948 0000 00200000 		.word	8192
 1949 0004 20000000 		.word	32
 1950              		.text
 1951              	.Letext0:
 1952              		.file 2 "Drivers/CMSIS/Device/ST/STM32F7xx/Include/stm32f769xx.h"
 1953              		.file 3 "/Users/killian/Library/Application Support/Code/User/globalStorage/bmd.stm32-for-vscode/@
 1954              		.file 4 "/Users/killian/Library/Application Support/Code/User/globalStorage/bmd.stm32-for-vscode/@
 1955              		.file 5 "Drivers/STM32F7xx_HAL_Driver/Inc/stm32f7xx_hal_def.h"
 1956              		.file 6 "Drivers/STM32F7xx_HAL_Driver/Inc/stm32f7xx_hal_gpio.h"
 1957              		.file 7 "Drivers/STM32F7xx_HAL_Driver/Inc/stm32f7xx_hal_dma.h"
 1958              		.file 8 "Drivers/STM32F7xx_HAL_Driver/Inc/stm32f7xx_hal_i2c.h"
 1959              		.file 9 "Drivers/BSP/STM32F769I-Discovery/stm32f769i_discovery.h"
ARM GAS  /var/folders/n6/c271nzx11xl4r4_m7sqjlt0m0000gn/T//ccyzxgNq.s 			page 51


 1960              		.file 10 "Drivers/STM32F7xx_HAL_Driver/Inc/stm32f7xx_hal.h"
 1961              		.file 11 "Drivers/STM32F7xx_HAL_Driver/Inc/stm32f7xx_hal_cortex.h"
ARM GAS  /var/folders/n6/c271nzx11xl4r4_m7sqjlt0m0000gn/T//ccyzxgNq.s 			page 52

