ARM GAS  /var/folders/n6/c271nzx11xl4r4_m7sqjlt0m0000gn/T//ccpL3ZLx.s 			page 1


   1              		.cpu cortex-m7
   2              		.arch armv7e-m
   3              		.fpu fpv5-d16
   4              		.eabi_attribute 28, 1
   5              		.eabi_attribute 20, 1
   6              		.eabi_attribute 21, 1
   7              		.eabi_attribute 23, 3
   8              		.eabi_attribute 24, 1
   9              		.eabi_attribute 25, 1
  10              		.eabi_attribute 26, 1
  11              		.eabi_attribute 30, 1
  12              		.eabi_attribute 34, 1
  13              		.eabi_attribute 18, 4
  14              		.file	"stm32f769i_discovery_ts.c"
  15              		.text
  16              	.Ltext0:
  17              		.cfi_sections	.debug_frame
  18              		.file 1 "Drivers/BSP/STM32F769I-Discovery/stm32f769i_discovery_ts.c"
  19              		.section	.text.BSP_TS_Init,"ax",%progbits
  20              		.align	1
  21              		.global	BSP_TS_Init
  22              		.syntax unified
  23              		.thumb
  24              		.thumb_func
  26              	BSP_TS_Init:
  27              	.LVL0:
  28              	.LFB141:
   1:Drivers/BSP/STM32F769I-Discovery/stm32f769i_discovery_ts.c **** /**
   2:Drivers/BSP/STM32F769I-Discovery/stm32f769i_discovery_ts.c ****  ******************************************************************************
   3:Drivers/BSP/STM32F769I-Discovery/stm32f769i_discovery_ts.c ****  * @file    stm32f769i_discovery_ts.c
   4:Drivers/BSP/STM32F769I-Discovery/stm32f769i_discovery_ts.c ****  * @author  MCD Application Team
   5:Drivers/BSP/STM32F769I-Discovery/stm32f769i_discovery_ts.c ****  * @brief   This file provides a set of functions needed to manage the Touch
   6:Drivers/BSP/STM32F769I-Discovery/stm32f769i_discovery_ts.c ****  *          Screen on STM32F769I-DISCOVERY discovery board.
   7:Drivers/BSP/STM32F769I-Discovery/stm32f769i_discovery_ts.c ****  ******************************************************************************
   8:Drivers/BSP/STM32F769I-Discovery/stm32f769i_discovery_ts.c ****  * @attention
   9:Drivers/BSP/STM32F769I-Discovery/stm32f769i_discovery_ts.c ****  *
  10:Drivers/BSP/STM32F769I-Discovery/stm32f769i_discovery_ts.c ****  * Copyright (c) 2016 STMicroelectronics.
  11:Drivers/BSP/STM32F769I-Discovery/stm32f769i_discovery_ts.c ****  * All rights reserved.
  12:Drivers/BSP/STM32F769I-Discovery/stm32f769i_discovery_ts.c ****  *
  13:Drivers/BSP/STM32F769I-Discovery/stm32f769i_discovery_ts.c ****  * This software is licensed under terms that can be found in the LICENSE file
  14:Drivers/BSP/STM32F769I-Discovery/stm32f769i_discovery_ts.c ****  * in the root directory of this software component.
  15:Drivers/BSP/STM32F769I-Discovery/stm32f769i_discovery_ts.c ****  * If no LICENSE file comes with this software, it is provided AS-IS.
  16:Drivers/BSP/STM32F769I-Discovery/stm32f769i_discovery_ts.c ****  *
  17:Drivers/BSP/STM32F769I-Discovery/stm32f769i_discovery_ts.c ****  ******************************************************************************
  18:Drivers/BSP/STM32F769I-Discovery/stm32f769i_discovery_ts.c ****  */
  19:Drivers/BSP/STM32F769I-Discovery/stm32f769i_discovery_ts.c **** 
  20:Drivers/BSP/STM32F769I-Discovery/stm32f769i_discovery_ts.c **** /* File Info : -----------------------------------------------------------------
  21:Drivers/BSP/STM32F769I-Discovery/stm32f769i_discovery_ts.c ****                                    User NOTES
  22:Drivers/BSP/STM32F769I-Discovery/stm32f769i_discovery_ts.c **** 1. How To use this driver:
  23:Drivers/BSP/STM32F769I-Discovery/stm32f769i_discovery_ts.c **** --------------------------
  24:Drivers/BSP/STM32F769I-Discovery/stm32f769i_discovery_ts.c ****    - This driver is used to drive the touch screen module of the STM32F769I-DISCOVERY
  25:Drivers/BSP/STM32F769I-Discovery/stm32f769i_discovery_ts.c ****      discoveryuation board on the K.O.D Optica Technology 480x800 TFT-LCD mounted on
  26:Drivers/BSP/STM32F769I-Discovery/stm32f769i_discovery_ts.c ****      MB1166 daughter board. The touch screen driver IC inside the K.O.D module KM-040TMP-02
  27:Drivers/BSP/STM32F769I-Discovery/stm32f769i_discovery_ts.c ****      is a FT6206 by Focal Tech.
  28:Drivers/BSP/STM32F769I-Discovery/stm32f769i_discovery_ts.c **** 
  29:Drivers/BSP/STM32F769I-Discovery/stm32f769i_discovery_ts.c **** 2. Driver description:
  30:Drivers/BSP/STM32F769I-Discovery/stm32f769i_discovery_ts.c **** ---------------------
ARM GAS  /var/folders/n6/c271nzx11xl4r4_m7sqjlt0m0000gn/T//ccpL3ZLx.s 			page 2


  31:Drivers/BSP/STM32F769I-Discovery/stm32f769i_discovery_ts.c ****   + Initialization steps:
  32:Drivers/BSP/STM32F769I-Discovery/stm32f769i_discovery_ts.c ****      o Initialize the TS module using the BSP_TS_Init() function. This
  33:Drivers/BSP/STM32F769I-Discovery/stm32f769i_discovery_ts.c ****        function includes the MSP layer hardware resources initialization and the
  34:Drivers/BSP/STM32F769I-Discovery/stm32f769i_discovery_ts.c ****        communication layer configuration to start the TS use. The LCD size properties
  35:Drivers/BSP/STM32F769I-Discovery/stm32f769i_discovery_ts.c ****        (x and y) are passed as parameters.
  36:Drivers/BSP/STM32F769I-Discovery/stm32f769i_discovery_ts.c ****      o If TS interrupt mode is desired, you must configure the TS interrupt mode
  37:Drivers/BSP/STM32F769I-Discovery/stm32f769i_discovery_ts.c ****        by calling the function BSP_TS_ITConfig(). The TS interrupt mode is generated
  38:Drivers/BSP/STM32F769I-Discovery/stm32f769i_discovery_ts.c ****        as an external interrupt whenever a touch is detected.
  39:Drivers/BSP/STM32F769I-Discovery/stm32f769i_discovery_ts.c ****        The interrupt mode internally uses the IO functionalities driver driven by
  40:Drivers/BSP/STM32F769I-Discovery/stm32f769i_discovery_ts.c ****        the IO expander, to configure the IT line.
  41:Drivers/BSP/STM32F769I-Discovery/stm32f769i_discovery_ts.c **** 
  42:Drivers/BSP/STM32F769I-Discovery/stm32f769i_discovery_ts.c ****   + Touch screen use
  43:Drivers/BSP/STM32F769I-Discovery/stm32f769i_discovery_ts.c ****      o The touch screen state is captured whenever the function BSP_TS_GetState() is
  44:Drivers/BSP/STM32F769I-Discovery/stm32f769i_discovery_ts.c ****        used. This function returns information about the last LCD touch occurred
  45:Drivers/BSP/STM32F769I-Discovery/stm32f769i_discovery_ts.c ****        in the TS_StateTypeDef structure.
  46:Drivers/BSP/STM32F769I-Discovery/stm32f769i_discovery_ts.c ****      o The IT is handled using the corresponding external interrupt IRQ handler,
  47:Drivers/BSP/STM32F769I-Discovery/stm32f769i_discovery_ts.c ****        the user IT callback treatment is implemented on the same external interrupt
  48:Drivers/BSP/STM32F769I-Discovery/stm32f769i_discovery_ts.c ****        callback.
  49:Drivers/BSP/STM32F769I-Discovery/stm32f769i_discovery_ts.c **** 
  50:Drivers/BSP/STM32F769I-Discovery/stm32f769i_discovery_ts.c **** ------------------------------------------------------------------------------*/
  51:Drivers/BSP/STM32F769I-Discovery/stm32f769i_discovery_ts.c **** 
  52:Drivers/BSP/STM32F769I-Discovery/stm32f769i_discovery_ts.c **** /* Dependencies
  53:Drivers/BSP/STM32F769I-Discovery/stm32f769i_discovery_ts.c **** - stm32f769i_eval_lcd.c
  54:Drivers/BSP/STM32F769I-Discovery/stm32f769i_discovery_ts.c **** - ft6x06.c
  55:Drivers/BSP/STM32F769I-Discovery/stm32f769i_discovery_ts.c **** EndDependencies */
  56:Drivers/BSP/STM32F769I-Discovery/stm32f769i_discovery_ts.c **** 
  57:Drivers/BSP/STM32F769I-Discovery/stm32f769i_discovery_ts.c **** /* Includes ------------------------------------------------------------------*/
  58:Drivers/BSP/STM32F769I-Discovery/stm32f769i_discovery_ts.c **** #include "stm32f769i_discovery.h"
  59:Drivers/BSP/STM32F769I-Discovery/stm32f769i_discovery_ts.c **** #include "stm32f769i_discovery_ts.h"
  60:Drivers/BSP/STM32F769I-Discovery/stm32f769i_discovery_ts.c **** 
  61:Drivers/BSP/STM32F769I-Discovery/stm32f769i_discovery_ts.c **** /** @addtogroup BSP
  62:Drivers/BSP/STM32F769I-Discovery/stm32f769i_discovery_ts.c ****  * @{
  63:Drivers/BSP/STM32F769I-Discovery/stm32f769i_discovery_ts.c ****  */
  64:Drivers/BSP/STM32F769I-Discovery/stm32f769i_discovery_ts.c **** 
  65:Drivers/BSP/STM32F769I-Discovery/stm32f769i_discovery_ts.c **** /** @addtogroup STM32F769I_DISCOVERY
  66:Drivers/BSP/STM32F769I-Discovery/stm32f769i_discovery_ts.c ****  * @{
  67:Drivers/BSP/STM32F769I-Discovery/stm32f769i_discovery_ts.c ****  */
  68:Drivers/BSP/STM32F769I-Discovery/stm32f769i_discovery_ts.c **** 
  69:Drivers/BSP/STM32F769I-Discovery/stm32f769i_discovery_ts.c **** /** @defgroup STM32F769I_DISCOVERY_TS STM32F769I_DISCOVERY TS
  70:Drivers/BSP/STM32F769I-Discovery/stm32f769i_discovery_ts.c ****  * @{
  71:Drivers/BSP/STM32F769I-Discovery/stm32f769i_discovery_ts.c ****  */
  72:Drivers/BSP/STM32F769I-Discovery/stm32f769i_discovery_ts.c **** 
  73:Drivers/BSP/STM32F769I-Discovery/stm32f769i_discovery_ts.c **** /** @defgroup STM32F769I_DISCOVERY_TS_Private_Types_Definitions TS Private Types Definitions
  74:Drivers/BSP/STM32F769I-Discovery/stm32f769i_discovery_ts.c ****  * @{
  75:Drivers/BSP/STM32F769I-Discovery/stm32f769i_discovery_ts.c ****  */
  76:Drivers/BSP/STM32F769I-Discovery/stm32f769i_discovery_ts.c **** /**
  77:Drivers/BSP/STM32F769I-Discovery/stm32f769i_discovery_ts.c ****  * @}
  78:Drivers/BSP/STM32F769I-Discovery/stm32f769i_discovery_ts.c ****  */
  79:Drivers/BSP/STM32F769I-Discovery/stm32f769i_discovery_ts.c **** 
  80:Drivers/BSP/STM32F769I-Discovery/stm32f769i_discovery_ts.c **** /** @defgroup STM32F769I_DISCOVERY_TS_Private_Defines TS Private Types Defines
  81:Drivers/BSP/STM32F769I-Discovery/stm32f769i_discovery_ts.c ****  * @{
  82:Drivers/BSP/STM32F769I-Discovery/stm32f769i_discovery_ts.c ****  */
  83:Drivers/BSP/STM32F769I-Discovery/stm32f769i_discovery_ts.c **** /**
  84:Drivers/BSP/STM32F769I-Discovery/stm32f769i_discovery_ts.c ****  * @}
  85:Drivers/BSP/STM32F769I-Discovery/stm32f769i_discovery_ts.c ****  */
  86:Drivers/BSP/STM32F769I-Discovery/stm32f769i_discovery_ts.c **** 
  87:Drivers/BSP/STM32F769I-Discovery/stm32f769i_discovery_ts.c **** /** @defgroup STM32F769I_DISCOVERY_TS_Private_Macros TS Private Macros
ARM GAS  /var/folders/n6/c271nzx11xl4r4_m7sqjlt0m0000gn/T//ccpL3ZLx.s 			page 3


  88:Drivers/BSP/STM32F769I-Discovery/stm32f769i_discovery_ts.c ****  * @{
  89:Drivers/BSP/STM32F769I-Discovery/stm32f769i_discovery_ts.c ****  */
  90:Drivers/BSP/STM32F769I-Discovery/stm32f769i_discovery_ts.c **** /**
  91:Drivers/BSP/STM32F769I-Discovery/stm32f769i_discovery_ts.c ****  * @}
  92:Drivers/BSP/STM32F769I-Discovery/stm32f769i_discovery_ts.c ****  */
  93:Drivers/BSP/STM32F769I-Discovery/stm32f769i_discovery_ts.c **** 
  94:Drivers/BSP/STM32F769I-Discovery/stm32f769i_discovery_ts.c **** /** @defgroup STM32F769I_DISCOVERY_TS_Imported_Variables TS Imported Variables
  95:Drivers/BSP/STM32F769I-Discovery/stm32f769i_discovery_ts.c ****  * @{
  96:Drivers/BSP/STM32F769I-Discovery/stm32f769i_discovery_ts.c ****  */
  97:Drivers/BSP/STM32F769I-Discovery/stm32f769i_discovery_ts.c **** /**
  98:Drivers/BSP/STM32F769I-Discovery/stm32f769i_discovery_ts.c ****  * @}
  99:Drivers/BSP/STM32F769I-Discovery/stm32f769i_discovery_ts.c ****  */
 100:Drivers/BSP/STM32F769I-Discovery/stm32f769i_discovery_ts.c **** 
 101:Drivers/BSP/STM32F769I-Discovery/stm32f769i_discovery_ts.c **** /** @defgroup STM32F769I_DISCOVERY_TS_Private_Variables TS Private Variables
 102:Drivers/BSP/STM32F769I-Discovery/stm32f769i_discovery_ts.c ****  * @{
 103:Drivers/BSP/STM32F769I-Discovery/stm32f769i_discovery_ts.c ****  */
 104:Drivers/BSP/STM32F769I-Discovery/stm32f769i_discovery_ts.c **** static TS_DrvTypeDef *ts_driver;
 105:Drivers/BSP/STM32F769I-Discovery/stm32f769i_discovery_ts.c **** static uint8_t ts_orientation;
 106:Drivers/BSP/STM32F769I-Discovery/stm32f769i_discovery_ts.c **** uint8_t I2C_Address = 0;
 107:Drivers/BSP/STM32F769I-Discovery/stm32f769i_discovery_ts.c **** 
 108:Drivers/BSP/STM32F769I-Discovery/stm32f769i_discovery_ts.c **** /* Table for touchscreen event information display on LCD : table indexed on enum @ref TS_TouchEven
 109:Drivers/BSP/STM32F769I-Discovery/stm32f769i_discovery_ts.c **** char *ts_event_string_tab[TOUCH_EVENT_NB_MAX] = {"None",
 110:Drivers/BSP/STM32F769I-Discovery/stm32f769i_discovery_ts.c ****                                                  "Press down",
 111:Drivers/BSP/STM32F769I-Discovery/stm32f769i_discovery_ts.c ****                                                  "Lift up",
 112:Drivers/BSP/STM32F769I-Discovery/stm32f769i_discovery_ts.c ****                                                  "Contact"};
 113:Drivers/BSP/STM32F769I-Discovery/stm32f769i_discovery_ts.c **** 
 114:Drivers/BSP/STM32F769I-Discovery/stm32f769i_discovery_ts.c **** /* Table for touchscreen gesture Id information display on LCD : table indexed on enum @ref TS_Gest
 115:Drivers/BSP/STM32F769I-Discovery/stm32f769i_discovery_ts.c **** char *ts_gesture_id_string_tab[GEST_ID_NB_MAX] = {"None",
 116:Drivers/BSP/STM32F769I-Discovery/stm32f769i_discovery_ts.c ****                                                   "Move Up",
 117:Drivers/BSP/STM32F769I-Discovery/stm32f769i_discovery_ts.c ****                                                   "Move Right",
 118:Drivers/BSP/STM32F769I-Discovery/stm32f769i_discovery_ts.c ****                                                   "Move Down",
 119:Drivers/BSP/STM32F769I-Discovery/stm32f769i_discovery_ts.c ****                                                   "Move Left",
 120:Drivers/BSP/STM32F769I-Discovery/stm32f769i_discovery_ts.c ****                                                   "Zoom In",
 121:Drivers/BSP/STM32F769I-Discovery/stm32f769i_discovery_ts.c ****                                                   "Zoom Out"};
 122:Drivers/BSP/STM32F769I-Discovery/stm32f769i_discovery_ts.c **** 
 123:Drivers/BSP/STM32F769I-Discovery/stm32f769i_discovery_ts.c **** /**
 124:Drivers/BSP/STM32F769I-Discovery/stm32f769i_discovery_ts.c ****  * @}
 125:Drivers/BSP/STM32F769I-Discovery/stm32f769i_discovery_ts.c ****  */
 126:Drivers/BSP/STM32F769I-Discovery/stm32f769i_discovery_ts.c **** 
 127:Drivers/BSP/STM32F769I-Discovery/stm32f769i_discovery_ts.c **** /** @defgroup STM32F769I_DISCOVERY_TS_Private_Function_Prototypes TS Private Function Prototypes
 128:Drivers/BSP/STM32F769I-Discovery/stm32f769i_discovery_ts.c ****  * @{
 129:Drivers/BSP/STM32F769I-Discovery/stm32f769i_discovery_ts.c ****  */
 130:Drivers/BSP/STM32F769I-Discovery/stm32f769i_discovery_ts.c **** 
 131:Drivers/BSP/STM32F769I-Discovery/stm32f769i_discovery_ts.c **** /**
 132:Drivers/BSP/STM32F769I-Discovery/stm32f769i_discovery_ts.c ****  * @}
 133:Drivers/BSP/STM32F769I-Discovery/stm32f769i_discovery_ts.c ****  */
 134:Drivers/BSP/STM32F769I-Discovery/stm32f769i_discovery_ts.c **** 
 135:Drivers/BSP/STM32F769I-Discovery/stm32f769i_discovery_ts.c **** /** @defgroup STM32F769I_DISCOVERY_TS_Public_Functions TS Public Functions
 136:Drivers/BSP/STM32F769I-Discovery/stm32f769i_discovery_ts.c ****  * @{
 137:Drivers/BSP/STM32F769I-Discovery/stm32f769i_discovery_ts.c ****  */
 138:Drivers/BSP/STM32F769I-Discovery/stm32f769i_discovery_ts.c **** 
 139:Drivers/BSP/STM32F769I-Discovery/stm32f769i_discovery_ts.c **** /**
 140:Drivers/BSP/STM32F769I-Discovery/stm32f769i_discovery_ts.c ****  * @brief  Initializes and configures the touch screen functionalities and
 141:Drivers/BSP/STM32F769I-Discovery/stm32f769i_discovery_ts.c ****  *         configures all necessary hardware resources (GPIOs, I2C, clocks..).
 142:Drivers/BSP/STM32F769I-Discovery/stm32f769i_discovery_ts.c ****  * @param  ts_SizeX : Maximum X size of the TS area on LCD
 143:Drivers/BSP/STM32F769I-Discovery/stm32f769i_discovery_ts.c ****  * @param  ts_SizeY : Maximum Y size of the TS area on LCD
 144:Drivers/BSP/STM32F769I-Discovery/stm32f769i_discovery_ts.c ****  * @retval TS_OK if all initializations are OK. Other value if error.
ARM GAS  /var/folders/n6/c271nzx11xl4r4_m7sqjlt0m0000gn/T//ccpL3ZLx.s 			page 4


 145:Drivers/BSP/STM32F769I-Discovery/stm32f769i_discovery_ts.c ****  */
 146:Drivers/BSP/STM32F769I-Discovery/stm32f769i_discovery_ts.c **** uint8_t BSP_TS_Init(uint16_t ts_SizeX, uint16_t ts_SizeY)
 147:Drivers/BSP/STM32F769I-Discovery/stm32f769i_discovery_ts.c **** {
  29              		.loc 1 147 1 view -0
  30              		.cfi_startproc
  31              		@ args = 0, pretend = 0, frame = 0
  32              		@ frame_needed = 0, uses_anonymous_args = 0
  33              		.loc 1 147 1 is_stmt 0 view .LVU1
  34 0000 70B5     		push	{r4, r5, r6, lr}
  35              		.cfi_def_cfa_offset 16
  36              		.cfi_offset 4, -16
  37              		.cfi_offset 5, -12
  38              		.cfi_offset 6, -8
  39              		.cfi_offset 14, -4
  40 0002 0646     		mov	r6, r0
  41 0004 0D46     		mov	r5, r1
 148:Drivers/BSP/STM32F769I-Discovery/stm32f769i_discovery_ts.c ****   uint8_t ts_status = TS_OK;
  42              		.loc 1 148 3 is_stmt 1 view .LVU2
  43              	.LVL1:
 149:Drivers/BSP/STM32F769I-Discovery/stm32f769i_discovery_ts.c ****   uint8_t ts_id1, ts_id2 = 0;
  44              		.loc 1 149 3 view .LVU3
 150:Drivers/BSP/STM32F769I-Discovery/stm32f769i_discovery_ts.c ****   /* Note : I2C_Address is un-initialized here, but is not used at all in init function */
 151:Drivers/BSP/STM32F769I-Discovery/stm32f769i_discovery_ts.c ****   /* but the prototype of Init() is like that in template and should be respected       */
 152:Drivers/BSP/STM32F769I-Discovery/stm32f769i_discovery_ts.c **** 
 153:Drivers/BSP/STM32F769I-Discovery/stm32f769i_discovery_ts.c ****   /* Initialize the communication channel to sensor (I2C) if necessary */
 154:Drivers/BSP/STM32F769I-Discovery/stm32f769i_discovery_ts.c ****   /* that is initialization is done only once after a power up         */
 155:Drivers/BSP/STM32F769I-Discovery/stm32f769i_discovery_ts.c ****   ft6x06_ts_drv.Init(I2C_Address);
  45              		.loc 1 155 3 view .LVU4
  46              		.loc 1 155 16 is_stmt 0 view .LVU5
  47 0006 1B4C     		ldr	r4, .L9
  48 0008 2368     		ldr	r3, [r4]
  49              		.loc 1 155 3 view .LVU6
  50 000a 1B4A     		ldr	r2, .L9+4
  51 000c 1078     		ldrb	r0, [r2]	@ zero_extendqisi2
  52              	.LVL2:
  53              		.loc 1 155 3 view .LVU7
  54 000e 9847     		blx	r3
  55              	.LVL3:
 156:Drivers/BSP/STM32F769I-Discovery/stm32f769i_discovery_ts.c **** 
 157:Drivers/BSP/STM32F769I-Discovery/stm32f769i_discovery_ts.c ****   ts_id1 = ft6x06_ts_drv.ReadID(TS_I2C_ADDRESS);
  56              		.loc 1 157 3 is_stmt 1 view .LVU8
  57              		.loc 1 157 25 is_stmt 0 view .LVU9
  58 0010 6368     		ldr	r3, [r4, #4]
  59              		.loc 1 157 12 view .LVU10
  60 0012 5420     		movs	r0, #84
  61 0014 9847     		blx	r3
  62              	.LVL4:
  63              		.loc 1 157 10 discriminator 1 view .LVU11
  64 0016 C4B2     		uxtb	r4, r0
  65              	.LVL5:
 158:Drivers/BSP/STM32F769I-Discovery/stm32f769i_discovery_ts.c ****   if (ts_id1 != FT6206_ID_VALUE)
  66              		.loc 1 158 3 is_stmt 1 view .LVU12
  67              		.loc 1 158 6 is_stmt 0 view .LVU13
  68 0018 112C     		cmp	r4, #17
  69 001a 1FD0     		beq	.L2
 159:Drivers/BSP/STM32F769I-Discovery/stm32f769i_discovery_ts.c ****   {
 160:Drivers/BSP/STM32F769I-Discovery/stm32f769i_discovery_ts.c ****     ts_id2 = ft6x06_ts_drv.ReadID(TS_I2C_ADDRESS_A02);
ARM GAS  /var/folders/n6/c271nzx11xl4r4_m7sqjlt0m0000gn/T//ccpL3ZLx.s 			page 5


  70              		.loc 1 160 5 is_stmt 1 view .LVU14
  71              		.loc 1 160 27 is_stmt 0 view .LVU15
  72 001c 154B     		ldr	r3, .L9
  73 001e 5B68     		ldr	r3, [r3, #4]
  74              		.loc 1 160 14 view .LVU16
  75 0020 7020     		movs	r0, #112
  76 0022 9847     		blx	r3
  77              	.LVL6:
  78              		.loc 1 160 12 discriminator 1 view .LVU17
  79 0024 C3B2     		uxtb	r3, r0
  80              	.LVL7:
 161:Drivers/BSP/STM32F769I-Discovery/stm32f769i_discovery_ts.c ****     I2C_Address = TS_I2C_ADDRESS_A02;
  81              		.loc 1 161 5 is_stmt 1 view .LVU18
  82              		.loc 1 161 17 is_stmt 0 view .LVU19
  83 0026 144A     		ldr	r2, .L9+4
  84 0028 7021     		movs	r1, #112
  85 002a 1170     		strb	r1, [r2]
  86              	.LVL8:
  87              	.L3:
 162:Drivers/BSP/STM32F769I-Discovery/stm32f769i_discovery_ts.c ****   }
 163:Drivers/BSP/STM32F769I-Discovery/stm32f769i_discovery_ts.c ****   else
 164:Drivers/BSP/STM32F769I-Discovery/stm32f769i_discovery_ts.c ****   {
 165:Drivers/BSP/STM32F769I-Discovery/stm32f769i_discovery_ts.c ****     I2C_Address = TS_I2C_ADDRESS;
 166:Drivers/BSP/STM32F769I-Discovery/stm32f769i_discovery_ts.c ****   }
 167:Drivers/BSP/STM32F769I-Discovery/stm32f769i_discovery_ts.c **** 
 168:Drivers/BSP/STM32F769I-Discovery/stm32f769i_discovery_ts.c ****   /* Scan FT6xx6 TouchScreen IC controller ID register by I2C Read       */
 169:Drivers/BSP/STM32F769I-Discovery/stm32f769i_discovery_ts.c ****   /* Verify this is a FT6206 or FT6336G, otherwise this is an error case */
 170:Drivers/BSP/STM32F769I-Discovery/stm32f769i_discovery_ts.c ****   if ((ts_id1 == FT6206_ID_VALUE) || (ts_id2 == FT6206_ID_VALUE))
  88              		.loc 1 170 3 is_stmt 1 view .LVU20
  89              		.loc 1 170 6 is_stmt 0 view .LVU21
  90 002c 112B     		cmp	r3, #17
  91 002e 18BF     		it	ne
  92 0030 112C     		cmpne	r4, #17
  93 0032 1CD1     		bne	.L7
 171:Drivers/BSP/STM32F769I-Discovery/stm32f769i_discovery_ts.c ****   {
 172:Drivers/BSP/STM32F769I-Discovery/stm32f769i_discovery_ts.c ****     /* Found FT6206 : Initialize the TS driver structure */
 173:Drivers/BSP/STM32F769I-Discovery/stm32f769i_discovery_ts.c ****     ts_driver = &ft6x06_ts_drv;
  94              		.loc 1 173 5 is_stmt 1 view .LVU22
  95              		.loc 1 173 15 is_stmt 0 view .LVU23
  96 0034 114B     		ldr	r3, .L9+8
  97              	.LVL9:
  98              		.loc 1 173 15 view .LVU24
  99 0036 0F4A     		ldr	r2, .L9
 100 0038 1A60     		str	r2, [r3]
 174:Drivers/BSP/STM32F769I-Discovery/stm32f769i_discovery_ts.c **** 
 175:Drivers/BSP/STM32F769I-Discovery/stm32f769i_discovery_ts.c ****     /* Get LCD chosen orientation */
 176:Drivers/BSP/STM32F769I-Discovery/stm32f769i_discovery_ts.c ****     if (ts_SizeX < ts_SizeY)
 101              		.loc 1 176 5 is_stmt 1 view .LVU25
 102              		.loc 1 176 8 is_stmt 0 view .LVU26
 103 003a AE42     		cmp	r6, r5
 104 003c 13D2     		bcs	.L5
 177:Drivers/BSP/STM32F769I-Discovery/stm32f769i_discovery_ts.c ****     {
 178:Drivers/BSP/STM32F769I-Discovery/stm32f769i_discovery_ts.c ****       ts_orientation = TS_SWAP_NONE;
 105              		.loc 1 178 7 is_stmt 1 view .LVU27
 106              		.loc 1 178 22 is_stmt 0 view .LVU28
 107 003e 104B     		ldr	r3, .L9+12
 108 0040 0122     		movs	r2, #1
ARM GAS  /var/folders/n6/c271nzx11xl4r4_m7sqjlt0m0000gn/T//ccpL3ZLx.s 			page 6


 109 0042 1A70     		strb	r2, [r3]
 110              	.L6:
 179:Drivers/BSP/STM32F769I-Discovery/stm32f769i_discovery_ts.c ****     }
 180:Drivers/BSP/STM32F769I-Discovery/stm32f769i_discovery_ts.c ****     else
 181:Drivers/BSP/STM32F769I-Discovery/stm32f769i_discovery_ts.c ****     {
 182:Drivers/BSP/STM32F769I-Discovery/stm32f769i_discovery_ts.c ****       ts_orientation = TS_SWAP_XY | TS_SWAP_Y;
 183:Drivers/BSP/STM32F769I-Discovery/stm32f769i_discovery_ts.c ****     }
 184:Drivers/BSP/STM32F769I-Discovery/stm32f769i_discovery_ts.c **** 
 185:Drivers/BSP/STM32F769I-Discovery/stm32f769i_discovery_ts.c ****     if (ts_status == TS_OK)
 111              		.loc 1 185 5 is_stmt 1 view .LVU29
 186:Drivers/BSP/STM32F769I-Discovery/stm32f769i_discovery_ts.c ****     {
 187:Drivers/BSP/STM32F769I-Discovery/stm32f769i_discovery_ts.c ****       /* Software reset the TouchScreen */
 188:Drivers/BSP/STM32F769I-Discovery/stm32f769i_discovery_ts.c ****       ts_driver->Reset(I2C_Address);
 112              		.loc 1 188 7 view .LVU30
 113              		.loc 1 188 16 is_stmt 0 view .LVU31
 114 0044 0B4B     		ldr	r3, .L9
 115 0046 9B68     		ldr	r3, [r3, #8]
 116              		.loc 1 188 7 view .LVU32
 117 0048 0B4C     		ldr	r4, .L9+4
 118              	.LVL10:
 119              		.loc 1 188 7 view .LVU33
 120 004a 2078     		ldrb	r0, [r4]	@ zero_extendqisi2
 121 004c 9847     		blx	r3
 122              	.LVL11:
 189:Drivers/BSP/STM32F769I-Discovery/stm32f769i_discovery_ts.c **** 
 190:Drivers/BSP/STM32F769I-Discovery/stm32f769i_discovery_ts.c ****       /* Calibrate, Configure and Start the TouchScreen driver */
 191:Drivers/BSP/STM32F769I-Discovery/stm32f769i_discovery_ts.c ****       ts_driver->Start(I2C_Address);
 123              		.loc 1 191 7 is_stmt 1 view .LVU34
 124              		.loc 1 191 16 is_stmt 0 view .LVU35
 125 004e 0B4B     		ldr	r3, .L9+8
 126 0050 1B68     		ldr	r3, [r3]
 127 0052 DB68     		ldr	r3, [r3, #12]
 128              		.loc 1 191 7 view .LVU36
 129 0054 2078     		ldrb	r0, [r4]	@ zero_extendqisi2
 130 0056 9847     		blx	r3
 131              	.LVL12:
 148:Drivers/BSP/STM32F769I-Discovery/stm32f769i_discovery_ts.c ****   uint8_t ts_id1, ts_id2 = 0;
 132              		.loc 1 148 11 view .LVU37
 133 0058 0020     		movs	r0, #0
 134              	.L4:
 135              	.LVL13:
 192:Drivers/BSP/STM32F769I-Discovery/stm32f769i_discovery_ts.c **** 
 193:Drivers/BSP/STM32F769I-Discovery/stm32f769i_discovery_ts.c ****     } /* of if(ts_status == TS_OK) */
 194:Drivers/BSP/STM32F769I-Discovery/stm32f769i_discovery_ts.c ****   }
 195:Drivers/BSP/STM32F769I-Discovery/stm32f769i_discovery_ts.c ****   else
 196:Drivers/BSP/STM32F769I-Discovery/stm32f769i_discovery_ts.c ****   {
 197:Drivers/BSP/STM32F769I-Discovery/stm32f769i_discovery_ts.c ****     ts_status = TS_DEVICE_NOT_FOUND;
 198:Drivers/BSP/STM32F769I-Discovery/stm32f769i_discovery_ts.c ****   }
 199:Drivers/BSP/STM32F769I-Discovery/stm32f769i_discovery_ts.c **** 
 200:Drivers/BSP/STM32F769I-Discovery/stm32f769i_discovery_ts.c ****   return (ts_status);
 136              		.loc 1 200 3 is_stmt 1 view .LVU38
 201:Drivers/BSP/STM32F769I-Discovery/stm32f769i_discovery_ts.c **** }
 137              		.loc 1 201 1 is_stmt 0 view .LVU39
 138 005a 70BD     		pop	{r4, r5, r6, pc}
 139              	.LVL14:
 140              	.L2:
 165:Drivers/BSP/STM32F769I-Discovery/stm32f769i_discovery_ts.c ****   }
ARM GAS  /var/folders/n6/c271nzx11xl4r4_m7sqjlt0m0000gn/T//ccpL3ZLx.s 			page 7


 141              		.loc 1 165 5 is_stmt 1 view .LVU40
 165:Drivers/BSP/STM32F769I-Discovery/stm32f769i_discovery_ts.c ****   }
 142              		.loc 1 165 17 is_stmt 0 view .LVU41
 143 005c 064B     		ldr	r3, .L9+4
 144 005e 5422     		movs	r2, #84
 145 0060 1A70     		strb	r2, [r3]
 149:Drivers/BSP/STM32F769I-Discovery/stm32f769i_discovery_ts.c ****   /* Note : I2C_Address is un-initialized here, but is not used at all in init function */
 146              		.loc 1 149 19 view .LVU42
 147 0062 0023     		movs	r3, #0
 148 0064 E2E7     		b	.L3
 149              	.LVL15:
 150              	.L5:
 182:Drivers/BSP/STM32F769I-Discovery/stm32f769i_discovery_ts.c ****     }
 151              		.loc 1 182 7 is_stmt 1 view .LVU43
 182:Drivers/BSP/STM32F769I-Discovery/stm32f769i_discovery_ts.c ****     }
 152              		.loc 1 182 22 is_stmt 0 view .LVU44
 153 0066 064B     		ldr	r3, .L9+12
 154 0068 0C22     		movs	r2, #12
 155 006a 1A70     		strb	r2, [r3]
 156 006c EAE7     		b	.L6
 157              	.LVL16:
 158              	.L7:
 197:Drivers/BSP/STM32F769I-Discovery/stm32f769i_discovery_ts.c ****   }
 159              		.loc 1 197 15 view .LVU45
 160 006e 0320     		movs	r0, #3
 161 0070 F3E7     		b	.L4
 162              	.L10:
 163 0072 00BF     		.align	2
 164              	.L9:
 165 0074 00000000 		.word	ft6x06_ts_drv
 166 0078 00000000 		.word	I2C_Address
 167 007c 00000000 		.word	ts_driver
 168 0080 00000000 		.word	ts_orientation
 169              		.cfi_endproc
 170              	.LFE141:
 172              		.section	.text.BSP_TS_GetState,"ax",%progbits
 173              		.align	1
 174              		.global	BSP_TS_GetState
 175              		.syntax unified
 176              		.thumb
 177              		.thumb_func
 179              	BSP_TS_GetState:
 180              	.LVL17:
 181              	.LFB143:
 202:Drivers/BSP/STM32F769I-Discovery/stm32f769i_discovery_ts.c **** 
 203:Drivers/BSP/STM32F769I-Discovery/stm32f769i_discovery_ts.c **** /**
 204:Drivers/BSP/STM32F769I-Discovery/stm32f769i_discovery_ts.c ****  * @brief  Configures and enables the touch screen interrupts.
 205:Drivers/BSP/STM32F769I-Discovery/stm32f769i_discovery_ts.c ****  * @retval TS_OK if all initializations are OK. Other value if error.
 206:Drivers/BSP/STM32F769I-Discovery/stm32f769i_discovery_ts.c ****  */
 207:Drivers/BSP/STM32F769I-Discovery/stm32f769i_discovery_ts.c **** uint8_t BSP_TS_ITConfig(void)
 208:Drivers/BSP/STM32F769I-Discovery/stm32f769i_discovery_ts.c **** {
 209:Drivers/BSP/STM32F769I-Discovery/stm32f769i_discovery_ts.c ****   uint8_t ts_status = TS_OK;
 210:Drivers/BSP/STM32F769I-Discovery/stm32f769i_discovery_ts.c ****   GPIO_InitTypeDef gpio_init_structure;
 211:Drivers/BSP/STM32F769I-Discovery/stm32f769i_discovery_ts.c **** 
 212:Drivers/BSP/STM32F769I-Discovery/stm32f769i_discovery_ts.c ****   /* Msp Init of GPIO used for TS_INT pin coming from TouchScreen driver IC FT6x06 */
 213:Drivers/BSP/STM32F769I-Discovery/stm32f769i_discovery_ts.c ****   /* When touchscreen is operated in interrupt mode */
 214:Drivers/BSP/STM32F769I-Discovery/stm32f769i_discovery_ts.c ****   BSP_TS_INT_MspInit();
ARM GAS  /var/folders/n6/c271nzx11xl4r4_m7sqjlt0m0000gn/T//ccpL3ZLx.s 			page 8


 215:Drivers/BSP/STM32F769I-Discovery/stm32f769i_discovery_ts.c **** 
 216:Drivers/BSP/STM32F769I-Discovery/stm32f769i_discovery_ts.c ****   /* Configure Interrupt mode for TS_INT pin falling edge : when a new touch is available */
 217:Drivers/BSP/STM32F769I-Discovery/stm32f769i_discovery_ts.c ****   /* TS_INT pin is active on low level on new touch available */
 218:Drivers/BSP/STM32F769I-Discovery/stm32f769i_discovery_ts.c ****   gpio_init_structure.Pin = TS_INT_PIN;
 219:Drivers/BSP/STM32F769I-Discovery/stm32f769i_discovery_ts.c ****   gpio_init_structure.Pull = GPIO_PULLUP;
 220:Drivers/BSP/STM32F769I-Discovery/stm32f769i_discovery_ts.c ****   gpio_init_structure.Speed = GPIO_SPEED_FAST;
 221:Drivers/BSP/STM32F769I-Discovery/stm32f769i_discovery_ts.c ****   gpio_init_structure.Mode = GPIO_MODE_IT_FALLING;
 222:Drivers/BSP/STM32F769I-Discovery/stm32f769i_discovery_ts.c ****   HAL_GPIO_Init(TS_INT_GPIO_PORT, &gpio_init_structure);
 223:Drivers/BSP/STM32F769I-Discovery/stm32f769i_discovery_ts.c **** 
 224:Drivers/BSP/STM32F769I-Discovery/stm32f769i_discovery_ts.c ****   /* Enable and set the TS_INT EXTI Interrupt to an intermediate priority */
 225:Drivers/BSP/STM32F769I-Discovery/stm32f769i_discovery_ts.c ****   HAL_NVIC_SetPriority((IRQn_Type)(TS_INT_EXTI_IRQn), 0x0F, 0x00);
 226:Drivers/BSP/STM32F769I-Discovery/stm32f769i_discovery_ts.c ****   HAL_NVIC_EnableIRQ((IRQn_Type)(TS_INT_EXTI_IRQn));
 227:Drivers/BSP/STM32F769I-Discovery/stm32f769i_discovery_ts.c **** 
 228:Drivers/BSP/STM32F769I-Discovery/stm32f769i_discovery_ts.c ****   /* Enable the TS in interrupt mode */
 229:Drivers/BSP/STM32F769I-Discovery/stm32f769i_discovery_ts.c ****   /* In that case the INT output of FT6206 when new touch is available */
 230:Drivers/BSP/STM32F769I-Discovery/stm32f769i_discovery_ts.c ****   /* is active on low level and directed on EXTI */
 231:Drivers/BSP/STM32F769I-Discovery/stm32f769i_discovery_ts.c ****   ts_driver->EnableIT(I2C_Address);
 232:Drivers/BSP/STM32F769I-Discovery/stm32f769i_discovery_ts.c **** 
 233:Drivers/BSP/STM32F769I-Discovery/stm32f769i_discovery_ts.c ****   return (ts_status);
 234:Drivers/BSP/STM32F769I-Discovery/stm32f769i_discovery_ts.c **** }
 235:Drivers/BSP/STM32F769I-Discovery/stm32f769i_discovery_ts.c **** 
 236:Drivers/BSP/STM32F769I-Discovery/stm32f769i_discovery_ts.c **** /**
 237:Drivers/BSP/STM32F769I-Discovery/stm32f769i_discovery_ts.c ****  * @brief  Returns status and positions of the touch screen.
 238:Drivers/BSP/STM32F769I-Discovery/stm32f769i_discovery_ts.c ****  * @param  TS_State: Pointer to touch screen current state structure
 239:Drivers/BSP/STM32F769I-Discovery/stm32f769i_discovery_ts.c ****  * @retval TS_OK if all initializations are OK. Other value if error.
 240:Drivers/BSP/STM32F769I-Discovery/stm32f769i_discovery_ts.c ****  */
 241:Drivers/BSP/STM32F769I-Discovery/stm32f769i_discovery_ts.c **** uint8_t BSP_TS_GetState(TS_StateTypeDef *TS_State)
 242:Drivers/BSP/STM32F769I-Discovery/stm32f769i_discovery_ts.c **** {
 182              		.loc 1 242 1 is_stmt 1 view -0
 183              		.cfi_startproc
 184              		@ args = 0, pretend = 0, frame = 8
 185              		@ frame_needed = 0, uses_anonymous_args = 0
 186              		.loc 1 242 1 is_stmt 0 view .LVU47
 187 0000 30B5     		push	{r4, r5, lr}
 188              		.cfi_def_cfa_offset 12
 189              		.cfi_offset 4, -12
 190              		.cfi_offset 5, -8
 191              		.cfi_offset 14, -4
 192 0002 83B0     		sub	sp, sp, #12
 193              		.cfi_def_cfa_offset 24
 194 0004 0546     		mov	r5, r0
 243:Drivers/BSP/STM32F769I-Discovery/stm32f769i_discovery_ts.c ****   static uint32_t _x[TS_MAX_NB_TOUCH] = {0, 0};
 195              		.loc 1 243 3 is_stmt 1 view .LVU48
 244:Drivers/BSP/STM32F769I-Discovery/stm32f769i_discovery_ts.c ****   static uint32_t _y[TS_MAX_NB_TOUCH] = {0, 0};
 196              		.loc 1 244 3 view .LVU49
 245:Drivers/BSP/STM32F769I-Discovery/stm32f769i_discovery_ts.c ****   uint8_t ts_status = TS_OK;
 197              		.loc 1 245 3 view .LVU50
 198              	.LVL18:
 246:Drivers/BSP/STM32F769I-Discovery/stm32f769i_discovery_ts.c ****   uint16_t tmp;
 199              		.loc 1 246 3 view .LVU51
 247:Drivers/BSP/STM32F769I-Discovery/stm32f769i_discovery_ts.c ****   uint16_t Raw_x[TS_MAX_NB_TOUCH];
 200              		.loc 1 247 3 view .LVU52
 248:Drivers/BSP/STM32F769I-Discovery/stm32f769i_discovery_ts.c ****   uint16_t Raw_y[TS_MAX_NB_TOUCH];
 201              		.loc 1 248 3 view .LVU53
 249:Drivers/BSP/STM32F769I-Discovery/stm32f769i_discovery_ts.c ****   uint16_t xDiff;
 202              		.loc 1 249 3 view .LVU54
 250:Drivers/BSP/STM32F769I-Discovery/stm32f769i_discovery_ts.c ****   uint16_t yDiff;
ARM GAS  /var/folders/n6/c271nzx11xl4r4_m7sqjlt0m0000gn/T//ccpL3ZLx.s 			page 9


 203              		.loc 1 250 3 view .LVU55
 251:Drivers/BSP/STM32F769I-Discovery/stm32f769i_discovery_ts.c ****   uint32_t index;
 204              		.loc 1 251 3 view .LVU56
 252:Drivers/BSP/STM32F769I-Discovery/stm32f769i_discovery_ts.c **** #if (TS_MULTI_TOUCH_SUPPORTED == 1)
 253:Drivers/BSP/STM32F769I-Discovery/stm32f769i_discovery_ts.c ****   uint32_t weight = 0;
 254:Drivers/BSP/STM32F769I-Discovery/stm32f769i_discovery_ts.c ****   uint32_t area = 0;
 255:Drivers/BSP/STM32F769I-Discovery/stm32f769i_discovery_ts.c ****   uint32_t event = 0;
 256:Drivers/BSP/STM32F769I-Discovery/stm32f769i_discovery_ts.c **** #endif /* TS_MULTI_TOUCH_SUPPORTED == 1 */
 257:Drivers/BSP/STM32F769I-Discovery/stm32f769i_discovery_ts.c **** 
 258:Drivers/BSP/STM32F769I-Discovery/stm32f769i_discovery_ts.c ****   /* Check and update the number of touches active detected */
 259:Drivers/BSP/STM32F769I-Discovery/stm32f769i_discovery_ts.c ****   TS_State->touchDetected = ts_driver->DetectTouch(I2C_Address);
 205              		.loc 1 259 3 view .LVU57
 206              		.loc 1 259 38 is_stmt 0 view .LVU58
 207 0006 3E4B     		ldr	r3, .L25
 208 0008 1B68     		ldr	r3, [r3]
 209 000a 1B69     		ldr	r3, [r3, #16]
 210              		.loc 1 259 29 view .LVU59
 211 000c 3D4A     		ldr	r2, .L25+4
 212 000e 1078     		ldrb	r0, [r2]	@ zero_extendqisi2
 213              	.LVL19:
 214              		.loc 1 259 29 view .LVU60
 215 0010 9847     		blx	r3
 216              	.LVL20:
 217              		.loc 1 259 27 discriminator 1 view .LVU61
 218 0012 2870     		strb	r0, [r5]
 260:Drivers/BSP/STM32F769I-Discovery/stm32f769i_discovery_ts.c ****   if (TS_State->touchDetected)
 219              		.loc 1 260 3 is_stmt 1 view .LVU62
 220              		.loc 1 260 6 is_stmt 0 view .LVU63
 221 0014 0028     		cmp	r0, #0
 222 0016 71D1     		bne	.L23
 223              	.L13:
 261:Drivers/BSP/STM32F769I-Discovery/stm32f769i_discovery_ts.c ****   {
 262:Drivers/BSP/STM32F769I-Discovery/stm32f769i_discovery_ts.c ****     for (index = 0; index < TS_State->touchDetected; index++)
 263:Drivers/BSP/STM32F769I-Discovery/stm32f769i_discovery_ts.c ****     {
 264:Drivers/BSP/STM32F769I-Discovery/stm32f769i_discovery_ts.c ****       /* Get each touch coordinates */
 265:Drivers/BSP/STM32F769I-Discovery/stm32f769i_discovery_ts.c ****       ts_driver->GetXY(I2C_Address, &(Raw_x[index]), &(Raw_y[index]));
 266:Drivers/BSP/STM32F769I-Discovery/stm32f769i_discovery_ts.c **** 
 267:Drivers/BSP/STM32F769I-Discovery/stm32f769i_discovery_ts.c ****       if (ts_orientation & TS_SWAP_XY)
 268:Drivers/BSP/STM32F769I-Discovery/stm32f769i_discovery_ts.c ****       {
 269:Drivers/BSP/STM32F769I-Discovery/stm32f769i_discovery_ts.c ****         tmp = Raw_x[index];
 270:Drivers/BSP/STM32F769I-Discovery/stm32f769i_discovery_ts.c ****         Raw_x[index] = Raw_y[index];
 271:Drivers/BSP/STM32F769I-Discovery/stm32f769i_discovery_ts.c ****         Raw_y[index] = tmp;
 272:Drivers/BSP/STM32F769I-Discovery/stm32f769i_discovery_ts.c ****       }
 273:Drivers/BSP/STM32F769I-Discovery/stm32f769i_discovery_ts.c **** 
 274:Drivers/BSP/STM32F769I-Discovery/stm32f769i_discovery_ts.c ****       if (ts_orientation & TS_SWAP_X)
 275:Drivers/BSP/STM32F769I-Discovery/stm32f769i_discovery_ts.c ****       {
 276:Drivers/BSP/STM32F769I-Discovery/stm32f769i_discovery_ts.c ****         Raw_x[index] = FT_6206_MAX_WIDTH - 1 - Raw_x[index];
 277:Drivers/BSP/STM32F769I-Discovery/stm32f769i_discovery_ts.c ****       }
 278:Drivers/BSP/STM32F769I-Discovery/stm32f769i_discovery_ts.c **** 
 279:Drivers/BSP/STM32F769I-Discovery/stm32f769i_discovery_ts.c ****       if (ts_orientation & TS_SWAP_Y)
 280:Drivers/BSP/STM32F769I-Discovery/stm32f769i_discovery_ts.c ****       {
 281:Drivers/BSP/STM32F769I-Discovery/stm32f769i_discovery_ts.c ****         Raw_y[index] = FT_6206_MAX_HEIGHT - 1 - Raw_y[index];
 282:Drivers/BSP/STM32F769I-Discovery/stm32f769i_discovery_ts.c ****       }
 283:Drivers/BSP/STM32F769I-Discovery/stm32f769i_discovery_ts.c **** 
 284:Drivers/BSP/STM32F769I-Discovery/stm32f769i_discovery_ts.c ****       xDiff = Raw_x[index] > _x[index] ? (Raw_x[index] - _x[index]) : (_x[index] - Raw_x[index]);
 285:Drivers/BSP/STM32F769I-Discovery/stm32f769i_discovery_ts.c ****       yDiff = Raw_y[index] > _y[index] ? (Raw_y[index] - _y[index]) : (_y[index] - Raw_y[index]);
 286:Drivers/BSP/STM32F769I-Discovery/stm32f769i_discovery_ts.c **** 
ARM GAS  /var/folders/n6/c271nzx11xl4r4_m7sqjlt0m0000gn/T//ccpL3ZLx.s 			page 10


 287:Drivers/BSP/STM32F769I-Discovery/stm32f769i_discovery_ts.c ****       if ((xDiff + yDiff) > 5)
 288:Drivers/BSP/STM32F769I-Discovery/stm32f769i_discovery_ts.c ****       {
 289:Drivers/BSP/STM32F769I-Discovery/stm32f769i_discovery_ts.c ****         _x[index] = Raw_x[index];
 290:Drivers/BSP/STM32F769I-Discovery/stm32f769i_discovery_ts.c ****         _y[index] = Raw_y[index];
 291:Drivers/BSP/STM32F769I-Discovery/stm32f769i_discovery_ts.c ****       }
 292:Drivers/BSP/STM32F769I-Discovery/stm32f769i_discovery_ts.c **** 
 293:Drivers/BSP/STM32F769I-Discovery/stm32f769i_discovery_ts.c ****       TS_State->touchX[index] = _x[index];
 294:Drivers/BSP/STM32F769I-Discovery/stm32f769i_discovery_ts.c ****       TS_State->touchY[index] = _y[index];
 295:Drivers/BSP/STM32F769I-Discovery/stm32f769i_discovery_ts.c **** 
 296:Drivers/BSP/STM32F769I-Discovery/stm32f769i_discovery_ts.c **** #if (TS_MULTI_TOUCH_SUPPORTED == 1)
 297:Drivers/BSP/STM32F769I-Discovery/stm32f769i_discovery_ts.c **** 
 298:Drivers/BSP/STM32F769I-Discovery/stm32f769i_discovery_ts.c ****       /* Get touch info related to the current touch */
 299:Drivers/BSP/STM32F769I-Discovery/stm32f769i_discovery_ts.c ****       ft6x06_TS_GetTouchInfo(I2C_Address, index, &weight, &area, &event);
 300:Drivers/BSP/STM32F769I-Discovery/stm32f769i_discovery_ts.c **** 
 301:Drivers/BSP/STM32F769I-Discovery/stm32f769i_discovery_ts.c ****       /* Update TS_State structure */
 302:Drivers/BSP/STM32F769I-Discovery/stm32f769i_discovery_ts.c ****       TS_State->touchWeight[index] = weight;
 303:Drivers/BSP/STM32F769I-Discovery/stm32f769i_discovery_ts.c ****       TS_State->touchArea[index] = area;
 304:Drivers/BSP/STM32F769I-Discovery/stm32f769i_discovery_ts.c **** 
 305:Drivers/BSP/STM32F769I-Discovery/stm32f769i_discovery_ts.c ****       /* Remap touch event */
 306:Drivers/BSP/STM32F769I-Discovery/stm32f769i_discovery_ts.c ****       switch (event)
 307:Drivers/BSP/STM32F769I-Discovery/stm32f769i_discovery_ts.c ****       {
 308:Drivers/BSP/STM32F769I-Discovery/stm32f769i_discovery_ts.c ****       case FT6206_TOUCH_EVT_FLAG_PRESS_DOWN:
 309:Drivers/BSP/STM32F769I-Discovery/stm32f769i_discovery_ts.c ****         TS_State->touchEventId[index] = TOUCH_EVENT_PRESS_DOWN;
 310:Drivers/BSP/STM32F769I-Discovery/stm32f769i_discovery_ts.c ****         break;
 311:Drivers/BSP/STM32F769I-Discovery/stm32f769i_discovery_ts.c ****       case FT6206_TOUCH_EVT_FLAG_LIFT_UP:
 312:Drivers/BSP/STM32F769I-Discovery/stm32f769i_discovery_ts.c ****         TS_State->touchEventId[index] = TOUCH_EVENT_LIFT_UP;
 313:Drivers/BSP/STM32F769I-Discovery/stm32f769i_discovery_ts.c ****         break;
 314:Drivers/BSP/STM32F769I-Discovery/stm32f769i_discovery_ts.c ****       case FT6206_TOUCH_EVT_FLAG_CONTACT:
 315:Drivers/BSP/STM32F769I-Discovery/stm32f769i_discovery_ts.c ****         TS_State->touchEventId[index] = TOUCH_EVENT_CONTACT;
 316:Drivers/BSP/STM32F769I-Discovery/stm32f769i_discovery_ts.c ****         break;
 317:Drivers/BSP/STM32F769I-Discovery/stm32f769i_discovery_ts.c ****       case FT6206_TOUCH_EVT_FLAG_NO_EVENT:
 318:Drivers/BSP/STM32F769I-Discovery/stm32f769i_discovery_ts.c ****         TS_State->touchEventId[index] = TOUCH_EVENT_NO_EVT;
 319:Drivers/BSP/STM32F769I-Discovery/stm32f769i_discovery_ts.c ****         break;
 320:Drivers/BSP/STM32F769I-Discovery/stm32f769i_discovery_ts.c ****       default:
 321:Drivers/BSP/STM32F769I-Discovery/stm32f769i_discovery_ts.c ****         ts_status = TS_ERROR;
 322:Drivers/BSP/STM32F769I-Discovery/stm32f769i_discovery_ts.c ****         break;
 323:Drivers/BSP/STM32F769I-Discovery/stm32f769i_discovery_ts.c ****       } /* of switch(event) */
 324:Drivers/BSP/STM32F769I-Discovery/stm32f769i_discovery_ts.c **** 
 325:Drivers/BSP/STM32F769I-Discovery/stm32f769i_discovery_ts.c **** #endif /* TS_MULTI_TOUCH_SUPPORTED == 1 */
 326:Drivers/BSP/STM32F769I-Discovery/stm32f769i_discovery_ts.c **** 
 327:Drivers/BSP/STM32F769I-Discovery/stm32f769i_discovery_ts.c ****     } /* of for(index=0; index < TS_State->touchDetected; index++) */
 328:Drivers/BSP/STM32F769I-Discovery/stm32f769i_discovery_ts.c **** 
 329:Drivers/BSP/STM32F769I-Discovery/stm32f769i_discovery_ts.c **** #if (TS_MULTI_TOUCH_SUPPORTED == 1)
 330:Drivers/BSP/STM32F769I-Discovery/stm32f769i_discovery_ts.c ****     /* Get gesture Id */
 331:Drivers/BSP/STM32F769I-Discovery/stm32f769i_discovery_ts.c ****     ts_status = BSP_TS_Get_GestureId(TS_State);
 332:Drivers/BSP/STM32F769I-Discovery/stm32f769i_discovery_ts.c **** #endif /* TS_MULTI_TOUCH_SUPPORTED == 1 */
 333:Drivers/BSP/STM32F769I-Discovery/stm32f769i_discovery_ts.c **** 
 334:Drivers/BSP/STM32F769I-Discovery/stm32f769i_discovery_ts.c ****   } /* end of if(TS_State->touchDetected != 0) */
 335:Drivers/BSP/STM32F769I-Discovery/stm32f769i_discovery_ts.c **** 
 336:Drivers/BSP/STM32F769I-Discovery/stm32f769i_discovery_ts.c ****   return (ts_status);
 224              		.loc 1 336 3 is_stmt 1 view .LVU64
 337:Drivers/BSP/STM32F769I-Discovery/stm32f769i_discovery_ts.c **** }
 225              		.loc 1 337 1 is_stmt 0 view .LVU65
 226 0018 0020     		movs	r0, #0
 227 001a 03B0     		add	sp, sp, #12
 228              		.cfi_remember_state
 229              		.cfi_def_cfa_offset 12
ARM GAS  /var/folders/n6/c271nzx11xl4r4_m7sqjlt0m0000gn/T//ccpL3ZLx.s 			page 11


 230              		@ sp needed
 231 001c 30BD     		pop	{r4, r5, pc}
 232              	.LVL21:
 233              	.L17:
 234              		.cfi_restore_state
 284:Drivers/BSP/STM32F769I-Discovery/stm32f769i_discovery_ts.c ****       yDiff = Raw_y[index] > _y[index] ? (Raw_y[index] - _y[index]) : (_y[index] - Raw_y[index]);
 235              		.loc 1 284 82 discriminator 2 view .LVU66
 236 001e 9BB2     		uxth	r3, r3
 284:Drivers/BSP/STM32F769I-Discovery/stm32f769i_discovery_ts.c ****       yDiff = Raw_y[index] > _y[index] ? (Raw_y[index] - _y[index]) : (_y[index] - Raw_y[index]);
 237              		.loc 1 284 13 discriminator 2 view .LVU67
 238 0020 5B1A     		subs	r3, r3, r1
 239 0022 9BB2     		uxth	r3, r3
 240 0024 53E0     		b	.L18
 241              	.LVL22:
 242              	.L19:
 285:Drivers/BSP/STM32F769I-Discovery/stm32f769i_discovery_ts.c **** 
 243              		.loc 1 285 82 discriminator 2 view .LVU68
 244 0026 92B2     		uxth	r2, r2
 285:Drivers/BSP/STM32F769I-Discovery/stm32f769i_discovery_ts.c **** 
 245              		.loc 1 285 13 discriminator 2 view .LVU69
 246 0028 121A     		subs	r2, r2, r0
 247 002a 92B2     		uxth	r2, r2
 248 002c 5CE0     		b	.L20
 249              	.LVL23:
 250              	.L21:
 293:Drivers/BSP/STM32F769I-Discovery/stm32f769i_discovery_ts.c ****       TS_State->touchY[index] = _y[index];
 251              		.loc 1 293 7 is_stmt 1 view .LVU70
 293:Drivers/BSP/STM32F769I-Discovery/stm32f769i_discovery_ts.c ****       TS_State->touchY[index] = _y[index];
 252              		.loc 1 293 35 is_stmt 0 view .LVU71
 253 002e 364B     		ldr	r3, .L25+8
 254 0030 53F82420 		ldr	r2, [r3, r4, lsl #2]
 255              	.LVL24:
 293:Drivers/BSP/STM32F769I-Discovery/stm32f769i_discovery_ts.c ****       TS_State->touchY[index] = _y[index];
 256              		.loc 1 293 31 view .LVU72
 257 0034 05EB4403 		add	r3, r5, r4, lsl #1
 258 0038 5A80     		strh	r2, [r3, #2]	@ movhi
 294:Drivers/BSP/STM32F769I-Discovery/stm32f769i_discovery_ts.c **** 
 259              		.loc 1 294 7 is_stmt 1 view .LVU73
 294:Drivers/BSP/STM32F769I-Discovery/stm32f769i_discovery_ts.c **** 
 260              		.loc 1 294 35 is_stmt 0 view .LVU74
 261 003a 344A     		ldr	r2, .L25+12
 262 003c 52F82420 		ldr	r2, [r2, r4, lsl #2]
 294:Drivers/BSP/STM32F769I-Discovery/stm32f769i_discovery_ts.c **** 
 263              		.loc 1 294 31 view .LVU75
 264 0040 DA80     		strh	r2, [r3, #6]	@ movhi
 262:Drivers/BSP/STM32F769I-Discovery/stm32f769i_discovery_ts.c ****     {
 265              		.loc 1 262 59 is_stmt 1 discriminator 2 view .LVU76
 266 0042 0134     		adds	r4, r4, #1
 267              	.LVL25:
 268              	.L12:
 262:Drivers/BSP/STM32F769I-Discovery/stm32f769i_discovery_ts.c ****     {
 269              		.loc 1 262 27 discriminator 1 view .LVU77
 262:Drivers/BSP/STM32F769I-Discovery/stm32f769i_discovery_ts.c ****     {
 270              		.loc 1 262 37 is_stmt 0 discriminator 1 view .LVU78
 271 0044 2B78     		ldrb	r3, [r5]	@ zero_extendqisi2
 262:Drivers/BSP/STM32F769I-Discovery/stm32f769i_discovery_ts.c ****     {
 272              		.loc 1 262 27 discriminator 1 view .LVU79
ARM GAS  /var/folders/n6/c271nzx11xl4r4_m7sqjlt0m0000gn/T//ccpL3ZLx.s 			page 12


 273 0046 A342     		cmp	r3, r4
 274 0048 E6D9     		bls	.L13
 265:Drivers/BSP/STM32F769I-Discovery/stm32f769i_discovery_ts.c **** 
 275              		.loc 1 265 7 is_stmt 1 view .LVU80
 265:Drivers/BSP/STM32F769I-Discovery/stm32f769i_discovery_ts.c **** 
 276              		.loc 1 265 16 is_stmt 0 view .LVU81
 277 004a 2D4B     		ldr	r3, .L25
 278 004c 1B68     		ldr	r3, [r3]
 279 004e 5B69     		ldr	r3, [r3, #20]
 265:Drivers/BSP/STM32F769I-Discovery/stm32f769i_discovery_ts.c **** 
 280              		.loc 1 265 7 view .LVU82
 281 0050 0DEB4402 		add	r2, sp, r4, lsl #1
 282 0054 01A9     		add	r1, sp, #4
 283 0056 01EB4401 		add	r1, r1, r4, lsl #1
 284 005a 2A48     		ldr	r0, .L25+4
 285 005c 0078     		ldrb	r0, [r0]	@ zero_extendqisi2
 286 005e 9847     		blx	r3
 287              	.LVL26:
 267:Drivers/BSP/STM32F769I-Discovery/stm32f769i_discovery_ts.c ****       {
 288              		.loc 1 267 7 is_stmt 1 view .LVU83
 267:Drivers/BSP/STM32F769I-Discovery/stm32f769i_discovery_ts.c ****       {
 289              		.loc 1 267 26 is_stmt 0 view .LVU84
 290 0060 2B4B     		ldr	r3, .L25+16
 291 0062 1B78     		ldrb	r3, [r3]	@ zero_extendqisi2
 267:Drivers/BSP/STM32F769I-Discovery/stm32f769i_discovery_ts.c ****       {
 292              		.loc 1 267 10 view .LVU85
 293 0064 13F0080F 		tst	r3, #8
 294 0068 0AD0     		beq	.L14
 269:Drivers/BSP/STM32F769I-Discovery/stm32f769i_discovery_ts.c ****         Raw_x[index] = Raw_y[index];
 295              		.loc 1 269 9 is_stmt 1 view .LVU86
 269:Drivers/BSP/STM32F769I-Discovery/stm32f769i_discovery_ts.c ****         Raw_x[index] = Raw_y[index];
 296              		.loc 1 269 13 is_stmt 0 view .LVU87
 297 006a 02AA     		add	r2, sp, #8
 298 006c 02EB4402 		add	r2, r2, r4, lsl #1
 299 0070 32F8041C 		ldrh	r1, [r2, #-4]
 300              	.LVL27:
 270:Drivers/BSP/STM32F769I-Discovery/stm32f769i_discovery_ts.c ****         Raw_y[index] = tmp;
 301              		.loc 1 270 9 is_stmt 1 view .LVU88
 270:Drivers/BSP/STM32F769I-Discovery/stm32f769i_discovery_ts.c ****         Raw_y[index] = tmp;
 302              		.loc 1 270 29 is_stmt 0 view .LVU89
 303 0074 32F8080C 		ldrh	r0, [r2, #-8]
 270:Drivers/BSP/STM32F769I-Discovery/stm32f769i_discovery_ts.c ****         Raw_y[index] = tmp;
 304              		.loc 1 270 22 view .LVU90
 305 0078 22F8040C 		strh	r0, [r2, #-4]	@ movhi
 271:Drivers/BSP/STM32F769I-Discovery/stm32f769i_discovery_ts.c ****       }
 306              		.loc 1 271 9 is_stmt 1 view .LVU91
 271:Drivers/BSP/STM32F769I-Discovery/stm32f769i_discovery_ts.c ****       }
 307              		.loc 1 271 22 is_stmt 0 view .LVU92
 308 007c 22F8081C 		strh	r1, [r2, #-8]	@ movhi
 309              	.LVL28:
 310              	.L14:
 274:Drivers/BSP/STM32F769I-Discovery/stm32f769i_discovery_ts.c ****       {
 311              		.loc 1 274 7 is_stmt 1 view .LVU93
 274:Drivers/BSP/STM32F769I-Discovery/stm32f769i_discovery_ts.c ****       {
 312              		.loc 1 274 10 is_stmt 0 view .LVU94
 313 0080 13F0020F 		tst	r3, #2
 314 0084 09D0     		beq	.L15
ARM GAS  /var/folders/n6/c271nzx11xl4r4_m7sqjlt0m0000gn/T//ccpL3ZLx.s 			page 13


 276:Drivers/BSP/STM32F769I-Discovery/stm32f769i_discovery_ts.c ****       }
 315              		.loc 1 276 9 is_stmt 1 view .LVU95
 276:Drivers/BSP/STM32F769I-Discovery/stm32f769i_discovery_ts.c ****       }
 316              		.loc 1 276 53 is_stmt 0 view .LVU96
 317 0086 02AA     		add	r2, sp, #8
 318 0088 02EB4401 		add	r1, r2, r4, lsl #1
 319 008c 31F8040C 		ldrh	r0, [r1, #-4]
 276:Drivers/BSP/STM32F769I-Discovery/stm32f769i_discovery_ts.c ****       }
 320              		.loc 1 276 46 view .LVU97
 321 0090 40F21F32 		movw	r2, #799
 322 0094 121A     		subs	r2, r2, r0
 276:Drivers/BSP/STM32F769I-Discovery/stm32f769i_discovery_ts.c ****       }
 323              		.loc 1 276 22 view .LVU98
 324 0096 21F8042C 		strh	r2, [r1, #-4]	@ movhi
 325              	.L15:
 279:Drivers/BSP/STM32F769I-Discovery/stm32f769i_discovery_ts.c ****       {
 326              		.loc 1 279 7 is_stmt 1 view .LVU99
 279:Drivers/BSP/STM32F769I-Discovery/stm32f769i_discovery_ts.c ****       {
 327              		.loc 1 279 10 is_stmt 0 view .LVU100
 328 009a 13F0040F 		tst	r3, #4
 329 009e 09D0     		beq	.L16
 281:Drivers/BSP/STM32F769I-Discovery/stm32f769i_discovery_ts.c ****       }
 330              		.loc 1 281 9 is_stmt 1 view .LVU101
 281:Drivers/BSP/STM32F769I-Discovery/stm32f769i_discovery_ts.c ****       }
 331              		.loc 1 281 54 is_stmt 0 view .LVU102
 332 00a0 02AB     		add	r3, sp, #8
 333 00a2 03EB4402 		add	r2, r3, r4, lsl #1
 334 00a6 32F8081C 		ldrh	r1, [r2, #-8]
 281:Drivers/BSP/STM32F769I-Discovery/stm32f769i_discovery_ts.c ****       }
 335              		.loc 1 281 47 view .LVU103
 336 00aa 40F2DF13 		movw	r3, #479
 337 00ae 5B1A     		subs	r3, r3, r1
 281:Drivers/BSP/STM32F769I-Discovery/stm32f769i_discovery_ts.c ****       }
 338              		.loc 1 281 22 view .LVU104
 339 00b0 22F8083C 		strh	r3, [r2, #-8]	@ movhi
 340              	.L16:
 284:Drivers/BSP/STM32F769I-Discovery/stm32f769i_discovery_ts.c ****       yDiff = Raw_y[index] > _y[index] ? (Raw_y[index] - _y[index]) : (_y[index] - Raw_y[index]);
 341              		.loc 1 284 7 is_stmt 1 view .LVU105
 284:Drivers/BSP/STM32F769I-Discovery/stm32f769i_discovery_ts.c ****       yDiff = Raw_y[index] > _y[index] ? (Raw_y[index] - _y[index]) : (_y[index] - Raw_y[index]);
 342              		.loc 1 284 20 is_stmt 0 view .LVU106
 343 00b4 02AB     		add	r3, sp, #8
 344 00b6 03EB4403 		add	r3, r3, r4, lsl #1
 345 00ba 33F8041C 		ldrh	r1, [r3, #-4]
 284:Drivers/BSP/STM32F769I-Discovery/stm32f769i_discovery_ts.c ****       yDiff = Raw_y[index] > _y[index] ? (Raw_y[index] - _y[index]) : (_y[index] - Raw_y[index]);
 346              		.loc 1 284 32 view .LVU107
 347 00be 124B     		ldr	r3, .L25+8
 348 00c0 53F82430 		ldr	r3, [r3, r4, lsl #2]
 284:Drivers/BSP/STM32F769I-Discovery/stm32f769i_discovery_ts.c ****       yDiff = Raw_y[index] > _y[index] ? (Raw_y[index] - _y[index]) : (_y[index] - Raw_y[index]);
 349              		.loc 1 284 13 view .LVU108
 350 00c4 9942     		cmp	r1, r3
 351 00c6 AAD9     		bls	.L17
 284:Drivers/BSP/STM32F769I-Discovery/stm32f769i_discovery_ts.c ****       yDiff = Raw_y[index] > _y[index] ? (Raw_y[index] - _y[index]) : (_y[index] - Raw_y[index]);
 352              		.loc 1 284 56 discriminator 1 view .LVU109
 353 00c8 9BB2     		uxth	r3, r3
 284:Drivers/BSP/STM32F769I-Discovery/stm32f769i_discovery_ts.c ****       yDiff = Raw_y[index] > _y[index] ? (Raw_y[index] - _y[index]) : (_y[index] - Raw_y[index]);
 354              		.loc 1 284 13 discriminator 1 view .LVU110
 355 00ca CB1A     		subs	r3, r1, r3
ARM GAS  /var/folders/n6/c271nzx11xl4r4_m7sqjlt0m0000gn/T//ccpL3ZLx.s 			page 14


 356 00cc 9BB2     		uxth	r3, r3
 357              	.L18:
 358              	.LVL29:
 285:Drivers/BSP/STM32F769I-Discovery/stm32f769i_discovery_ts.c **** 
 359              		.loc 1 285 7 is_stmt 1 view .LVU111
 285:Drivers/BSP/STM32F769I-Discovery/stm32f769i_discovery_ts.c **** 
 360              		.loc 1 285 20 is_stmt 0 view .LVU112
 361 00ce 02AA     		add	r2, sp, #8
 362 00d0 02EB4402 		add	r2, r2, r4, lsl #1
 363 00d4 32F8080C 		ldrh	r0, [r2, #-8]
 285:Drivers/BSP/STM32F769I-Discovery/stm32f769i_discovery_ts.c **** 
 364              		.loc 1 285 32 view .LVU113
 365 00d8 0C4A     		ldr	r2, .L25+12
 366 00da 52F82420 		ldr	r2, [r2, r4, lsl #2]
 285:Drivers/BSP/STM32F769I-Discovery/stm32f769i_discovery_ts.c **** 
 367              		.loc 1 285 13 view .LVU114
 368 00de 9042     		cmp	r0, r2
 369 00e0 A1D9     		bls	.L19
 285:Drivers/BSP/STM32F769I-Discovery/stm32f769i_discovery_ts.c **** 
 370              		.loc 1 285 56 discriminator 1 view .LVU115
 371 00e2 92B2     		uxth	r2, r2
 285:Drivers/BSP/STM32F769I-Discovery/stm32f769i_discovery_ts.c **** 
 372              		.loc 1 285 13 discriminator 1 view .LVU116
 373 00e4 821A     		subs	r2, r0, r2
 374 00e6 92B2     		uxth	r2, r2
 375              	.L20:
 376              	.LVL30:
 287:Drivers/BSP/STM32F769I-Discovery/stm32f769i_discovery_ts.c ****       {
 377              		.loc 1 287 7 is_stmt 1 view .LVU117
 287:Drivers/BSP/STM32F769I-Discovery/stm32f769i_discovery_ts.c ****       {
 378              		.loc 1 287 18 is_stmt 0 view .LVU118
 379 00e8 1344     		add	r3, r3, r2
 380              	.LVL31:
 287:Drivers/BSP/STM32F769I-Discovery/stm32f769i_discovery_ts.c ****       {
 381              		.loc 1 287 10 view .LVU119
 382 00ea 052B     		cmp	r3, #5
 383 00ec 9FDD     		ble	.L21
 289:Drivers/BSP/STM32F769I-Discovery/stm32f769i_discovery_ts.c ****         _y[index] = Raw_y[index];
 384              		.loc 1 289 9 is_stmt 1 view .LVU120
 289:Drivers/BSP/STM32F769I-Discovery/stm32f769i_discovery_ts.c ****         _y[index] = Raw_y[index];
 385              		.loc 1 289 19 is_stmt 0 view .LVU121
 386 00ee 064B     		ldr	r3, .L25+8
 387 00f0 43F82410 		str	r1, [r3, r4, lsl #2]
 290:Drivers/BSP/STM32F769I-Discovery/stm32f769i_discovery_ts.c ****       }
 388              		.loc 1 290 9 is_stmt 1 view .LVU122
 290:Drivers/BSP/STM32F769I-Discovery/stm32f769i_discovery_ts.c ****       }
 389              		.loc 1 290 19 is_stmt 0 view .LVU123
 390 00f4 054B     		ldr	r3, .L25+12
 391 00f6 43F82400 		str	r0, [r3, r4, lsl #2]
 392 00fa 98E7     		b	.L21
 393              	.LVL32:
 394              	.L23:
 262:Drivers/BSP/STM32F769I-Discovery/stm32f769i_discovery_ts.c ****     {
 395              		.loc 1 262 16 view .LVU124
 396 00fc 0024     		movs	r4, #0
 397 00fe A1E7     		b	.L12
 398              	.L26:
ARM GAS  /var/folders/n6/c271nzx11xl4r4_m7sqjlt0m0000gn/T//ccpL3ZLx.s 			page 15


 399              		.align	2
 400              	.L25:
 401 0100 00000000 		.word	ts_driver
 402 0104 00000000 		.word	I2C_Address
 403 0108 00000000 		.word	_x.1
 404 010c 00000000 		.word	_y.0
 405 0110 00000000 		.word	ts_orientation
 406              		.cfi_endproc
 407              	.LFE143:
 409              		.section	.text.BSP_TS_INT_MspInit,"ax",%progbits
 410              		.align	1
 411              		.weak	BSP_TS_INT_MspInit
 412              		.syntax unified
 413              		.thumb
 414              		.thumb_func
 416              	BSP_TS_INT_MspInit:
 417              	.LFB144:
 338:Drivers/BSP/STM32F769I-Discovery/stm32f769i_discovery_ts.c **** 
 339:Drivers/BSP/STM32F769I-Discovery/stm32f769i_discovery_ts.c **** #if (TS_MULTI_TOUCH_SUPPORTED == 1)
 340:Drivers/BSP/STM32F769I-Discovery/stm32f769i_discovery_ts.c **** /**
 341:Drivers/BSP/STM32F769I-Discovery/stm32f769i_discovery_ts.c ****  * @brief  Update gesture Id following a touch detected.
 342:Drivers/BSP/STM32F769I-Discovery/stm32f769i_discovery_ts.c ****  * @param  TS_State: Pointer to touch screen current state structure
 343:Drivers/BSP/STM32F769I-Discovery/stm32f769i_discovery_ts.c ****  * @retval TS_OK if all initializations are OK. Other value if error.
 344:Drivers/BSP/STM32F769I-Discovery/stm32f769i_discovery_ts.c ****  */
 345:Drivers/BSP/STM32F769I-Discovery/stm32f769i_discovery_ts.c **** uint8_t BSP_TS_Get_GestureId(TS_StateTypeDef *TS_State)
 346:Drivers/BSP/STM32F769I-Discovery/stm32f769i_discovery_ts.c **** {
 347:Drivers/BSP/STM32F769I-Discovery/stm32f769i_discovery_ts.c ****   uint32_t gestureId = 0;
 348:Drivers/BSP/STM32F769I-Discovery/stm32f769i_discovery_ts.c ****   uint8_t ts_status = TS_OK;
 349:Drivers/BSP/STM32F769I-Discovery/stm32f769i_discovery_ts.c **** 
 350:Drivers/BSP/STM32F769I-Discovery/stm32f769i_discovery_ts.c ****   /* Get gesture Id */
 351:Drivers/BSP/STM32F769I-Discovery/stm32f769i_discovery_ts.c ****   ft6x06_TS_GetGestureID(I2C_Address, &gestureId);
 352:Drivers/BSP/STM32F769I-Discovery/stm32f769i_discovery_ts.c **** 
 353:Drivers/BSP/STM32F769I-Discovery/stm32f769i_discovery_ts.c ****   /* Remap gesture Id to a TS_GestureIdTypeDef value */
 354:Drivers/BSP/STM32F769I-Discovery/stm32f769i_discovery_ts.c ****   switch (gestureId)
 355:Drivers/BSP/STM32F769I-Discovery/stm32f769i_discovery_ts.c ****   {
 356:Drivers/BSP/STM32F769I-Discovery/stm32f769i_discovery_ts.c ****   case FT6206_GEST_ID_NO_GESTURE:
 357:Drivers/BSP/STM32F769I-Discovery/stm32f769i_discovery_ts.c ****     TS_State->gestureId = GEST_ID_NO_GESTURE;
 358:Drivers/BSP/STM32F769I-Discovery/stm32f769i_discovery_ts.c ****     break;
 359:Drivers/BSP/STM32F769I-Discovery/stm32f769i_discovery_ts.c ****   case FT6206_GEST_ID_MOVE_UP:
 360:Drivers/BSP/STM32F769I-Discovery/stm32f769i_discovery_ts.c ****     TS_State->gestureId = GEST_ID_MOVE_UP;
 361:Drivers/BSP/STM32F769I-Discovery/stm32f769i_discovery_ts.c ****     break;
 362:Drivers/BSP/STM32F769I-Discovery/stm32f769i_discovery_ts.c ****   case FT6206_GEST_ID_MOVE_RIGHT:
 363:Drivers/BSP/STM32F769I-Discovery/stm32f769i_discovery_ts.c ****     TS_State->gestureId = GEST_ID_MOVE_RIGHT;
 364:Drivers/BSP/STM32F769I-Discovery/stm32f769i_discovery_ts.c ****     break;
 365:Drivers/BSP/STM32F769I-Discovery/stm32f769i_discovery_ts.c ****   case FT6206_GEST_ID_MOVE_DOWN:
 366:Drivers/BSP/STM32F769I-Discovery/stm32f769i_discovery_ts.c ****     TS_State->gestureId = GEST_ID_MOVE_DOWN;
 367:Drivers/BSP/STM32F769I-Discovery/stm32f769i_discovery_ts.c ****     break;
 368:Drivers/BSP/STM32F769I-Discovery/stm32f769i_discovery_ts.c ****   case FT6206_GEST_ID_MOVE_LEFT:
 369:Drivers/BSP/STM32F769I-Discovery/stm32f769i_discovery_ts.c ****     TS_State->gestureId = GEST_ID_MOVE_LEFT;
 370:Drivers/BSP/STM32F769I-Discovery/stm32f769i_discovery_ts.c ****     break;
 371:Drivers/BSP/STM32F769I-Discovery/stm32f769i_discovery_ts.c ****   case FT6206_GEST_ID_ZOOM_IN:
 372:Drivers/BSP/STM32F769I-Discovery/stm32f769i_discovery_ts.c ****     TS_State->gestureId = GEST_ID_ZOOM_IN;
 373:Drivers/BSP/STM32F769I-Discovery/stm32f769i_discovery_ts.c ****     break;
 374:Drivers/BSP/STM32F769I-Discovery/stm32f769i_discovery_ts.c ****   case FT6206_GEST_ID_ZOOM_OUT:
 375:Drivers/BSP/STM32F769I-Discovery/stm32f769i_discovery_ts.c ****     TS_State->gestureId = GEST_ID_ZOOM_OUT;
 376:Drivers/BSP/STM32F769I-Discovery/stm32f769i_discovery_ts.c ****     break;
 377:Drivers/BSP/STM32F769I-Discovery/stm32f769i_discovery_ts.c ****   default:
ARM GAS  /var/folders/n6/c271nzx11xl4r4_m7sqjlt0m0000gn/T//ccpL3ZLx.s 			page 16


 378:Drivers/BSP/STM32F769I-Discovery/stm32f769i_discovery_ts.c ****     ts_status = TS_ERROR;
 379:Drivers/BSP/STM32F769I-Discovery/stm32f769i_discovery_ts.c ****     break;
 380:Drivers/BSP/STM32F769I-Discovery/stm32f769i_discovery_ts.c ****   } /* of switch(gestureId) */
 381:Drivers/BSP/STM32F769I-Discovery/stm32f769i_discovery_ts.c **** 
 382:Drivers/BSP/STM32F769I-Discovery/stm32f769i_discovery_ts.c ****   return (ts_status);
 383:Drivers/BSP/STM32F769I-Discovery/stm32f769i_discovery_ts.c **** }
 384:Drivers/BSP/STM32F769I-Discovery/stm32f769i_discovery_ts.c **** #endif /* TS_MULTI_TOUCH_SUPPORTED == 1 */
 385:Drivers/BSP/STM32F769I-Discovery/stm32f769i_discovery_ts.c **** 
 386:Drivers/BSP/STM32F769I-Discovery/stm32f769i_discovery_ts.c **** /** @defgroup STM32F769I_DISCOVERY_TS_Private_Functions TS Private Functions
 387:Drivers/BSP/STM32F769I-Discovery/stm32f769i_discovery_ts.c ****  * @{
 388:Drivers/BSP/STM32F769I-Discovery/stm32f769i_discovery_ts.c ****  */
 389:Drivers/BSP/STM32F769I-Discovery/stm32f769i_discovery_ts.c **** 
 390:Drivers/BSP/STM32F769I-Discovery/stm32f769i_discovery_ts.c **** #if (TS_MULTI_TOUCH_SUPPORTED == 1)
 391:Drivers/BSP/STM32F769I-Discovery/stm32f769i_discovery_ts.c **** /**
 392:Drivers/BSP/STM32F769I-Discovery/stm32f769i_discovery_ts.c ****  * @brief  Function used to reset all touch data before a new acquisition
 393:Drivers/BSP/STM32F769I-Discovery/stm32f769i_discovery_ts.c ****  *         of touch information.
 394:Drivers/BSP/STM32F769I-Discovery/stm32f769i_discovery_ts.c ****  * @param  TS_State: Pointer to touch screen current state structure
 395:Drivers/BSP/STM32F769I-Discovery/stm32f769i_discovery_ts.c ****  * @retval TS_OK if OK, TE_ERROR if problem found.
 396:Drivers/BSP/STM32F769I-Discovery/stm32f769i_discovery_ts.c ****  */
 397:Drivers/BSP/STM32F769I-Discovery/stm32f769i_discovery_ts.c **** uint8_t BSP_TS_ResetTouchData(TS_StateTypeDef *TS_State)
 398:Drivers/BSP/STM32F769I-Discovery/stm32f769i_discovery_ts.c **** {
 399:Drivers/BSP/STM32F769I-Discovery/stm32f769i_discovery_ts.c ****   uint8_t ts_status = TS_ERROR;
 400:Drivers/BSP/STM32F769I-Discovery/stm32f769i_discovery_ts.c ****   uint32_t index;
 401:Drivers/BSP/STM32F769I-Discovery/stm32f769i_discovery_ts.c **** 
 402:Drivers/BSP/STM32F769I-Discovery/stm32f769i_discovery_ts.c ****   if (TS_State != (TS_StateTypeDef *)NULL)
 403:Drivers/BSP/STM32F769I-Discovery/stm32f769i_discovery_ts.c ****   {
 404:Drivers/BSP/STM32F769I-Discovery/stm32f769i_discovery_ts.c ****     TS_State->gestureId = GEST_ID_NO_GESTURE;
 405:Drivers/BSP/STM32F769I-Discovery/stm32f769i_discovery_ts.c ****     TS_State->touchDetected = 0;
 406:Drivers/BSP/STM32F769I-Discovery/stm32f769i_discovery_ts.c **** 
 407:Drivers/BSP/STM32F769I-Discovery/stm32f769i_discovery_ts.c ****     for (index = 0; index < TS_MAX_NB_TOUCH; index++)
 408:Drivers/BSP/STM32F769I-Discovery/stm32f769i_discovery_ts.c ****     {
 409:Drivers/BSP/STM32F769I-Discovery/stm32f769i_discovery_ts.c ****       TS_State->touchX[index] = 0;
 410:Drivers/BSP/STM32F769I-Discovery/stm32f769i_discovery_ts.c ****       TS_State->touchY[index] = 0;
 411:Drivers/BSP/STM32F769I-Discovery/stm32f769i_discovery_ts.c ****       TS_State->touchArea[index] = 0;
 412:Drivers/BSP/STM32F769I-Discovery/stm32f769i_discovery_ts.c ****       TS_State->touchEventId[index] = TOUCH_EVENT_NO_EVT;
 413:Drivers/BSP/STM32F769I-Discovery/stm32f769i_discovery_ts.c ****       TS_State->touchWeight[index] = 0;
 414:Drivers/BSP/STM32F769I-Discovery/stm32f769i_discovery_ts.c ****     }
 415:Drivers/BSP/STM32F769I-Discovery/stm32f769i_discovery_ts.c **** 
 416:Drivers/BSP/STM32F769I-Discovery/stm32f769i_discovery_ts.c ****     ts_status = TS_OK;
 417:Drivers/BSP/STM32F769I-Discovery/stm32f769i_discovery_ts.c **** 
 418:Drivers/BSP/STM32F769I-Discovery/stm32f769i_discovery_ts.c ****   } /* of if (TS_State != (TS_StateTypeDef *)NULL) */
 419:Drivers/BSP/STM32F769I-Discovery/stm32f769i_discovery_ts.c **** 
 420:Drivers/BSP/STM32F769I-Discovery/stm32f769i_discovery_ts.c ****   return (ts_status);
 421:Drivers/BSP/STM32F769I-Discovery/stm32f769i_discovery_ts.c **** }
 422:Drivers/BSP/STM32F769I-Discovery/stm32f769i_discovery_ts.c **** #endif /* TS_MULTI_TOUCH_SUPPORTED == 1 */
 423:Drivers/BSP/STM32F769I-Discovery/stm32f769i_discovery_ts.c **** 
 424:Drivers/BSP/STM32F769I-Discovery/stm32f769i_discovery_ts.c **** /**
 425:Drivers/BSP/STM32F769I-Discovery/stm32f769i_discovery_ts.c ****  * @brief  Initializes the TS_INT pin MSP.
 426:Drivers/BSP/STM32F769I-Discovery/stm32f769i_discovery_ts.c ****  * @retval None
 427:Drivers/BSP/STM32F769I-Discovery/stm32f769i_discovery_ts.c ****  */
 428:Drivers/BSP/STM32F769I-Discovery/stm32f769i_discovery_ts.c **** __weak void BSP_TS_INT_MspInit(void)
 429:Drivers/BSP/STM32F769I-Discovery/stm32f769i_discovery_ts.c **** {
 418              		.loc 1 429 1 is_stmt 1 view -0
 419              		.cfi_startproc
 420              		@ args = 0, pretend = 0, frame = 24
 421              		@ frame_needed = 0, uses_anonymous_args = 0
 422 0000 00B5     		push	{lr}
ARM GAS  /var/folders/n6/c271nzx11xl4r4_m7sqjlt0m0000gn/T//ccpL3ZLx.s 			page 17


 423              		.cfi_def_cfa_offset 4
 424              		.cfi_offset 14, -4
 425 0002 87B0     		sub	sp, sp, #28
 426              		.cfi_def_cfa_offset 32
 430:Drivers/BSP/STM32F769I-Discovery/stm32f769i_discovery_ts.c ****   GPIO_InitTypeDef gpio_init_structure;
 427              		.loc 1 430 3 view .LVU126
 431:Drivers/BSP/STM32F769I-Discovery/stm32f769i_discovery_ts.c **** 
 432:Drivers/BSP/STM32F769I-Discovery/stm32f769i_discovery_ts.c ****   TS_INT_GPIO_CLK_ENABLE();
 428              		.loc 1 432 3 view .LVU127
 429              	.LBB2:
 430              		.loc 1 432 3 view .LVU128
 431              		.loc 1 432 3 view .LVU129
 432 0004 0C4B     		ldr	r3, .L29
 433 0006 1A6B     		ldr	r2, [r3, #48]
 434 0008 42F48072 		orr	r2, r2, #256
 435 000c 1A63     		str	r2, [r3, #48]
 436              		.loc 1 432 3 view .LVU130
 437 000e 1B6B     		ldr	r3, [r3, #48]
 438 0010 03F48073 		and	r3, r3, #256
 439 0014 0093     		str	r3, [sp]
 440              		.loc 1 432 3 view .LVU131
 441 0016 009B     		ldr	r3, [sp]
 442              	.LBE2:
 443              		.loc 1 432 3 view .LVU132
 433:Drivers/BSP/STM32F769I-Discovery/stm32f769i_discovery_ts.c **** 
 434:Drivers/BSP/STM32F769I-Discovery/stm32f769i_discovery_ts.c ****   /* GPIO configuration in input for TouchScreen interrupt signal on TS_INT pin */
 435:Drivers/BSP/STM32F769I-Discovery/stm32f769i_discovery_ts.c ****   gpio_init_structure.Pin = TS_INT_PIN;
 444              		.loc 1 435 3 view .LVU133
 445              		.loc 1 435 27 is_stmt 0 view .LVU134
 446 0018 4FF40053 		mov	r3, #8192
 447 001c 0193     		str	r3, [sp, #4]
 436:Drivers/BSP/STM32F769I-Discovery/stm32f769i_discovery_ts.c **** 
 437:Drivers/BSP/STM32F769I-Discovery/stm32f769i_discovery_ts.c ****   gpio_init_structure.Mode = GPIO_MODE_INPUT;
 448              		.loc 1 437 3 is_stmt 1 view .LVU135
 449              		.loc 1 437 28 is_stmt 0 view .LVU136
 450 001e 0023     		movs	r3, #0
 451 0020 0293     		str	r3, [sp, #8]
 438:Drivers/BSP/STM32F769I-Discovery/stm32f769i_discovery_ts.c ****   gpio_init_structure.Pull = GPIO_PULLUP;
 452              		.loc 1 438 3 is_stmt 1 view .LVU137
 453              		.loc 1 438 28 is_stmt 0 view .LVU138
 454 0022 0123     		movs	r3, #1
 455 0024 0393     		str	r3, [sp, #12]
 439:Drivers/BSP/STM32F769I-Discovery/stm32f769i_discovery_ts.c ****   gpio_init_structure.Speed = GPIO_SPEED_HIGH;
 456              		.loc 1 439 3 is_stmt 1 view .LVU139
 457              		.loc 1 439 29 is_stmt 0 view .LVU140
 458 0026 0323     		movs	r3, #3
 459 0028 0493     		str	r3, [sp, #16]
 440:Drivers/BSP/STM32F769I-Discovery/stm32f769i_discovery_ts.c ****   HAL_GPIO_Init(TS_INT_GPIO_PORT, &gpio_init_structure);
 460              		.loc 1 440 3 is_stmt 1 view .LVU141
 461 002a 01A9     		add	r1, sp, #4
 462 002c 0348     		ldr	r0, .L29+4
 463 002e FFF7FEFF 		bl	HAL_GPIO_Init
 464              	.LVL33:
 441:Drivers/BSP/STM32F769I-Discovery/stm32f769i_discovery_ts.c **** }
 465              		.loc 1 441 1 is_stmt 0 view .LVU142
 466 0032 07B0     		add	sp, sp, #28
 467              		.cfi_def_cfa_offset 4
ARM GAS  /var/folders/n6/c271nzx11xl4r4_m7sqjlt0m0000gn/T//ccpL3ZLx.s 			page 18


 468              		@ sp needed
 469 0034 5DF804FB 		ldr	pc, [sp], #4
 470              	.L30:
 471              		.align	2
 472              	.L29:
 473 0038 00380240 		.word	1073887232
 474 003c 00200240 		.word	1073881088
 475              		.cfi_endproc
 476              	.LFE144:
 478              		.section	.text.BSP_TS_ITConfig,"ax",%progbits
 479              		.align	1
 480              		.global	BSP_TS_ITConfig
 481              		.syntax unified
 482              		.thumb
 483              		.thumb_func
 485              	BSP_TS_ITConfig:
 486              	.LFB142:
 208:Drivers/BSP/STM32F769I-Discovery/stm32f769i_discovery_ts.c ****   uint8_t ts_status = TS_OK;
 487              		.loc 1 208 1 is_stmt 1 view -0
 488              		.cfi_startproc
 489              		@ args = 0, pretend = 0, frame = 24
 490              		@ frame_needed = 0, uses_anonymous_args = 0
 491 0000 00B5     		push	{lr}
 492              		.cfi_def_cfa_offset 4
 493              		.cfi_offset 14, -4
 494 0002 87B0     		sub	sp, sp, #28
 495              		.cfi_def_cfa_offset 32
 209:Drivers/BSP/STM32F769I-Discovery/stm32f769i_discovery_ts.c ****   GPIO_InitTypeDef gpio_init_structure;
 496              		.loc 1 209 3 view .LVU144
 497              	.LVL34:
 210:Drivers/BSP/STM32F769I-Discovery/stm32f769i_discovery_ts.c **** 
 498              		.loc 1 210 3 view .LVU145
 214:Drivers/BSP/STM32F769I-Discovery/stm32f769i_discovery_ts.c **** 
 499              		.loc 1 214 3 view .LVU146
 500 0004 FFF7FEFF 		bl	BSP_TS_INT_MspInit
 501              	.LVL35:
 218:Drivers/BSP/STM32F769I-Discovery/stm32f769i_discovery_ts.c ****   gpio_init_structure.Pull = GPIO_PULLUP;
 502              		.loc 1 218 3 view .LVU147
 218:Drivers/BSP/STM32F769I-Discovery/stm32f769i_discovery_ts.c ****   gpio_init_structure.Pull = GPIO_PULLUP;
 503              		.loc 1 218 27 is_stmt 0 view .LVU148
 504 0008 4FF40053 		mov	r3, #8192
 505 000c 0193     		str	r3, [sp, #4]
 219:Drivers/BSP/STM32F769I-Discovery/stm32f769i_discovery_ts.c ****   gpio_init_structure.Speed = GPIO_SPEED_FAST;
 506              		.loc 1 219 3 is_stmt 1 view .LVU149
 219:Drivers/BSP/STM32F769I-Discovery/stm32f769i_discovery_ts.c ****   gpio_init_structure.Speed = GPIO_SPEED_FAST;
 507              		.loc 1 219 28 is_stmt 0 view .LVU150
 508 000e 0123     		movs	r3, #1
 509 0010 0393     		str	r3, [sp, #12]
 220:Drivers/BSP/STM32F769I-Discovery/stm32f769i_discovery_ts.c ****   gpio_init_structure.Mode = GPIO_MODE_IT_FALLING;
 510              		.loc 1 220 3 is_stmt 1 view .LVU151
 220:Drivers/BSP/STM32F769I-Discovery/stm32f769i_discovery_ts.c ****   gpio_init_structure.Mode = GPIO_MODE_IT_FALLING;
 511              		.loc 1 220 29 is_stmt 0 view .LVU152
 512 0012 0223     		movs	r3, #2
 513 0014 0493     		str	r3, [sp, #16]
 221:Drivers/BSP/STM32F769I-Discovery/stm32f769i_discovery_ts.c ****   HAL_GPIO_Init(TS_INT_GPIO_PORT, &gpio_init_structure);
 514              		.loc 1 221 3 is_stmt 1 view .LVU153
 221:Drivers/BSP/STM32F769I-Discovery/stm32f769i_discovery_ts.c ****   HAL_GPIO_Init(TS_INT_GPIO_PORT, &gpio_init_structure);
ARM GAS  /var/folders/n6/c271nzx11xl4r4_m7sqjlt0m0000gn/T//ccpL3ZLx.s 			page 19


 515              		.loc 1 221 28 is_stmt 0 view .LVU154
 516 0016 4FF40413 		mov	r3, #2162688
 517 001a 0293     		str	r3, [sp, #8]
 222:Drivers/BSP/STM32F769I-Discovery/stm32f769i_discovery_ts.c **** 
 518              		.loc 1 222 3 is_stmt 1 view .LVU155
 519 001c 01A9     		add	r1, sp, #4
 520 001e 0A48     		ldr	r0, .L33
 521 0020 FFF7FEFF 		bl	HAL_GPIO_Init
 522              	.LVL36:
 225:Drivers/BSP/STM32F769I-Discovery/stm32f769i_discovery_ts.c ****   HAL_NVIC_EnableIRQ((IRQn_Type)(TS_INT_EXTI_IRQn));
 523              		.loc 1 225 3 view .LVU156
 524 0024 0022     		movs	r2, #0
 525 0026 0F21     		movs	r1, #15
 526 0028 2820     		movs	r0, #40
 527 002a FFF7FEFF 		bl	HAL_NVIC_SetPriority
 528              	.LVL37:
 226:Drivers/BSP/STM32F769I-Discovery/stm32f769i_discovery_ts.c **** 
 529              		.loc 1 226 3 view .LVU157
 530 002e 2820     		movs	r0, #40
 531 0030 FFF7FEFF 		bl	HAL_NVIC_EnableIRQ
 532              	.LVL38:
 231:Drivers/BSP/STM32F769I-Discovery/stm32f769i_discovery_ts.c **** 
 533              		.loc 1 231 3 view .LVU158
 231:Drivers/BSP/STM32F769I-Discovery/stm32f769i_discovery_ts.c **** 
 534              		.loc 1 231 12 is_stmt 0 view .LVU159
 535 0034 054B     		ldr	r3, .L33+4
 536 0036 1B68     		ldr	r3, [r3]
 537 0038 9B69     		ldr	r3, [r3, #24]
 231:Drivers/BSP/STM32F769I-Discovery/stm32f769i_discovery_ts.c **** 
 538              		.loc 1 231 3 view .LVU160
 539 003a 054A     		ldr	r2, .L33+8
 540 003c 1078     		ldrb	r0, [r2]	@ zero_extendqisi2
 541 003e 9847     		blx	r3
 542              	.LVL39:
 233:Drivers/BSP/STM32F769I-Discovery/stm32f769i_discovery_ts.c **** }
 543              		.loc 1 233 3 is_stmt 1 view .LVU161
 234:Drivers/BSP/STM32F769I-Discovery/stm32f769i_discovery_ts.c **** 
 544              		.loc 1 234 1 is_stmt 0 view .LVU162
 545 0040 0020     		movs	r0, #0
 546 0042 07B0     		add	sp, sp, #28
 547              		.cfi_def_cfa_offset 4
 548              		@ sp needed
 549 0044 5DF804FB 		ldr	pc, [sp], #4
 550              	.L34:
 551              		.align	2
 552              	.L33:
 553 0048 00200240 		.word	1073881088
 554 004c 00000000 		.word	ts_driver
 555 0050 00000000 		.word	I2C_Address
 556              		.cfi_endproc
 557              	.LFE142:
 559              		.section	.bss._y.0,"aw",%nobits
 560              		.align	2
 563              	_y.0:
 564 0000 00000000 		.space	8
 564      00000000 
 565              		.section	.bss._x.1,"aw",%nobits
ARM GAS  /var/folders/n6/c271nzx11xl4r4_m7sqjlt0m0000gn/T//ccpL3ZLx.s 			page 20


 566              		.align	2
 569              	_x.1:
 570 0000 00000000 		.space	8
 570      00000000 
 571              		.global	ts_gesture_id_string_tab
 572              		.section	.rodata.str1.4,"aMS",%progbits,1
 573              		.align	2
 574              	.LC0:
 575 0000 4E6F6E65 		.ascii	"None\000"
 575      00
 576 0005 000000   		.align	2
 577              	.LC1:
 578 0008 4D6F7665 		.ascii	"Move Up\000"
 578      20557000 
 579              		.align	2
 580              	.LC2:
 581 0010 4D6F7665 		.ascii	"Move Right\000"
 581      20526967 
 581      687400
 582 001b 00       		.align	2
 583              	.LC3:
 584 001c 4D6F7665 		.ascii	"Move Down\000"
 584      20446F77 
 584      6E00
 585 0026 0000     		.align	2
 586              	.LC4:
 587 0028 4D6F7665 		.ascii	"Move Left\000"
 587      204C6566 
 587      7400
 588 0032 0000     		.align	2
 589              	.LC5:
 590 0034 5A6F6F6D 		.ascii	"Zoom In\000"
 590      20496E00 
 591              		.align	2
 592              	.LC6:
 593 003c 5A6F6F6D 		.ascii	"Zoom Out\000"
 593      204F7574 
 593      00
 594              		.section	.data.ts_gesture_id_string_tab,"aw"
 595              		.align	2
 598              	ts_gesture_id_string_tab:
 599 0000 00000000 		.word	.LC0
 600 0004 08000000 		.word	.LC1
 601 0008 10000000 		.word	.LC2
 602 000c 1C000000 		.word	.LC3
 603 0010 28000000 		.word	.LC4
 604 0014 34000000 		.word	.LC5
 605 0018 3C000000 		.word	.LC6
 606              		.global	ts_event_string_tab
 607              		.section	.rodata.str1.4
 608 0045 000000   		.align	2
 609              	.LC7:
 610 0048 50726573 		.ascii	"Press down\000"
 610      7320646F 
 610      776E00
 611 0053 00       		.align	2
 612              	.LC8:
ARM GAS  /var/folders/n6/c271nzx11xl4r4_m7sqjlt0m0000gn/T//ccpL3ZLx.s 			page 21


 613 0054 4C696674 		.ascii	"Lift up\000"
 613      20757000 
 614              		.align	2
 615              	.LC9:
 616 005c 436F6E74 		.ascii	"Contact\000"
 616      61637400 
 617              		.section	.data.ts_event_string_tab,"aw"
 618              		.align	2
 621              	ts_event_string_tab:
 622 0000 00000000 		.word	.LC0
 623 0004 48000000 		.word	.LC7
 624 0008 54000000 		.word	.LC8
 625 000c 5C000000 		.word	.LC9
 626              		.global	I2C_Address
 627              		.section	.bss.I2C_Address,"aw",%nobits
 630              	I2C_Address:
 631 0000 00       		.space	1
 632              		.section	.bss.ts_orientation,"aw",%nobits
 635              	ts_orientation:
 636 0000 00       		.space	1
 637              		.section	.bss.ts_driver,"aw",%nobits
 638              		.align	2
 641              	ts_driver:
 642 0000 00000000 		.space	4
 643              		.text
 644              	.Letext0:
 645              		.file 2 "Drivers/CMSIS/Device/ST/STM32F7xx/Include/stm32f769xx.h"
 646              		.file 3 "/Users/killian/Library/Application Support/Code/User/globalStorage/bmd.stm32-for-vscode/@
 647              		.file 4 "/Users/killian/Library/Application Support/Code/User/globalStorage/bmd.stm32-for-vscode/@
 648              		.file 5 "Drivers/STM32F7xx_HAL_Driver/Inc/stm32f7xx_hal_gpio.h"
 649              		.file 6 "Drivers/BSP/STM32F769I-Discovery/../Components/ft6x06/../Common/ts.h"
 650              		.file 7 "Drivers/BSP/STM32F769I-Discovery/stm32f769i_discovery_ts.h"
 651              		.file 8 "Drivers/BSP/STM32F769I-Discovery/../Components/ft6x06/ft6x06.h"
 652              		.file 9 "Drivers/STM32F7xx_HAL_Driver/Inc/stm32f7xx_hal_cortex.h"
ARM GAS  /var/folders/n6/c271nzx11xl4r4_m7sqjlt0m0000gn/T//ccpL3ZLx.s 			page 22

