ARM GAS  /var/folders/n6/c271nzx11xl4r4_m7sqjlt0m0000gn/T//ccZGdjcQ.s 			page 1


   1              		.cpu cortex-m7
   2              		.arch armv7e-m
   3              		.fpu fpv5-d16
   4              		.eabi_attribute 28, 1
   5              		.eabi_attribute 20, 1
   6              		.eabi_attribute 21, 1
   7              		.eabi_attribute 23, 3
   8              		.eabi_attribute 24, 1
   9              		.eabi_attribute 25, 1
  10              		.eabi_attribute 26, 1
  11              		.eabi_attribute 30, 1
  12              		.eabi_attribute 34, 1
  13              		.eabi_attribute 18, 4
  14              		.file	"stm32f7xx_hal_crc.c"
  15              		.text
  16              	.Ltext0:
  17              		.cfi_sections	.debug_frame
  18              		.file 1 "Drivers/STM32F7xx_HAL_Driver/Src/stm32f7xx_hal_crc.c"
  19              		.section	.text.CRC_Handle_8,"ax",%progbits
  20              		.align	1
  21              		.syntax unified
  22              		.thumb
  23              		.thumb_func
  25              	CRC_Handle_8:
  26              	.LVL0:
  27              	.LFB148:
   1:Drivers/STM32F7xx_HAL_Driver/Src/stm32f7xx_hal_crc.c **** /**
   2:Drivers/STM32F7xx_HAL_Driver/Src/stm32f7xx_hal_crc.c ****   ******************************************************************************
   3:Drivers/STM32F7xx_HAL_Driver/Src/stm32f7xx_hal_crc.c ****   * @file    stm32f7xx_hal_crc.c
   4:Drivers/STM32F7xx_HAL_Driver/Src/stm32f7xx_hal_crc.c ****   * @author  MCD Application Team
   5:Drivers/STM32F7xx_HAL_Driver/Src/stm32f7xx_hal_crc.c ****   * @brief   CRC HAL module driver.
   6:Drivers/STM32F7xx_HAL_Driver/Src/stm32f7xx_hal_crc.c ****   *          This file provides firmware functions to manage the following
   7:Drivers/STM32F7xx_HAL_Driver/Src/stm32f7xx_hal_crc.c ****   *          functionalities of the Cyclic Redundancy Check (CRC) peripheral:
   8:Drivers/STM32F7xx_HAL_Driver/Src/stm32f7xx_hal_crc.c ****   *           + Initialization and de-initialization functions
   9:Drivers/STM32F7xx_HAL_Driver/Src/stm32f7xx_hal_crc.c ****   *           + Peripheral Control functions
  10:Drivers/STM32F7xx_HAL_Driver/Src/stm32f7xx_hal_crc.c ****   *           + Peripheral State functions
  11:Drivers/STM32F7xx_HAL_Driver/Src/stm32f7xx_hal_crc.c ****   *
  12:Drivers/STM32F7xx_HAL_Driver/Src/stm32f7xx_hal_crc.c ****   ******************************************************************************
  13:Drivers/STM32F7xx_HAL_Driver/Src/stm32f7xx_hal_crc.c ****   * @attention
  14:Drivers/STM32F7xx_HAL_Driver/Src/stm32f7xx_hal_crc.c ****   *
  15:Drivers/STM32F7xx_HAL_Driver/Src/stm32f7xx_hal_crc.c ****   * Copyright (c) 2017 STMicroelectronics.
  16:Drivers/STM32F7xx_HAL_Driver/Src/stm32f7xx_hal_crc.c ****   * All rights reserved.
  17:Drivers/STM32F7xx_HAL_Driver/Src/stm32f7xx_hal_crc.c ****   *
  18:Drivers/STM32F7xx_HAL_Driver/Src/stm32f7xx_hal_crc.c ****   * This software is licensed under terms that can be found in the LICENSE file
  19:Drivers/STM32F7xx_HAL_Driver/Src/stm32f7xx_hal_crc.c ****   * in the root directory of this software component.
  20:Drivers/STM32F7xx_HAL_Driver/Src/stm32f7xx_hal_crc.c ****   * If no LICENSE file comes with this software, it is provided AS-IS.
  21:Drivers/STM32F7xx_HAL_Driver/Src/stm32f7xx_hal_crc.c ****   *
  22:Drivers/STM32F7xx_HAL_Driver/Src/stm32f7xx_hal_crc.c ****   ******************************************************************************
  23:Drivers/STM32F7xx_HAL_Driver/Src/stm32f7xx_hal_crc.c ****   @verbatim
  24:Drivers/STM32F7xx_HAL_Driver/Src/stm32f7xx_hal_crc.c ****  ===============================================================================
  25:Drivers/STM32F7xx_HAL_Driver/Src/stm32f7xx_hal_crc.c ****                      ##### How to use this driver #####
  26:Drivers/STM32F7xx_HAL_Driver/Src/stm32f7xx_hal_crc.c ****  ===============================================================================
  27:Drivers/STM32F7xx_HAL_Driver/Src/stm32f7xx_hal_crc.c ****     [..]
  28:Drivers/STM32F7xx_HAL_Driver/Src/stm32f7xx_hal_crc.c ****          (+) Enable CRC AHB clock using __HAL_RCC_CRC_CLK_ENABLE();
  29:Drivers/STM32F7xx_HAL_Driver/Src/stm32f7xx_hal_crc.c ****          (+) Initialize CRC calculator
  30:Drivers/STM32F7xx_HAL_Driver/Src/stm32f7xx_hal_crc.c ****              (++) specify generating polynomial (peripheral default or non-default one)
  31:Drivers/STM32F7xx_HAL_Driver/Src/stm32f7xx_hal_crc.c ****              (++) specify initialization value (peripheral default or non-default one)
ARM GAS  /var/folders/n6/c271nzx11xl4r4_m7sqjlt0m0000gn/T//ccZGdjcQ.s 			page 2


  32:Drivers/STM32F7xx_HAL_Driver/Src/stm32f7xx_hal_crc.c ****              (++) specify input data format
  33:Drivers/STM32F7xx_HAL_Driver/Src/stm32f7xx_hal_crc.c ****              (++) specify input or output data inversion mode if any
  34:Drivers/STM32F7xx_HAL_Driver/Src/stm32f7xx_hal_crc.c ****          (+) Use HAL_CRC_Accumulate() function to compute the CRC value of the
  35:Drivers/STM32F7xx_HAL_Driver/Src/stm32f7xx_hal_crc.c ****              input data buffer starting with the previously computed CRC as
  36:Drivers/STM32F7xx_HAL_Driver/Src/stm32f7xx_hal_crc.c ****              initialization value
  37:Drivers/STM32F7xx_HAL_Driver/Src/stm32f7xx_hal_crc.c ****          (+) Use HAL_CRC_Calculate() function to compute the CRC value of the
  38:Drivers/STM32F7xx_HAL_Driver/Src/stm32f7xx_hal_crc.c ****              input data buffer starting with the defined initialization value
  39:Drivers/STM32F7xx_HAL_Driver/Src/stm32f7xx_hal_crc.c ****              (default or non-default) to initiate CRC calculation
  40:Drivers/STM32F7xx_HAL_Driver/Src/stm32f7xx_hal_crc.c **** 
  41:Drivers/STM32F7xx_HAL_Driver/Src/stm32f7xx_hal_crc.c ****   @endverbatim
  42:Drivers/STM32F7xx_HAL_Driver/Src/stm32f7xx_hal_crc.c ****   ******************************************************************************
  43:Drivers/STM32F7xx_HAL_Driver/Src/stm32f7xx_hal_crc.c ****   */
  44:Drivers/STM32F7xx_HAL_Driver/Src/stm32f7xx_hal_crc.c **** 
  45:Drivers/STM32F7xx_HAL_Driver/Src/stm32f7xx_hal_crc.c **** /* Includes ------------------------------------------------------------------*/
  46:Drivers/STM32F7xx_HAL_Driver/Src/stm32f7xx_hal_crc.c **** #include "stm32f7xx_hal.h"
  47:Drivers/STM32F7xx_HAL_Driver/Src/stm32f7xx_hal_crc.c **** 
  48:Drivers/STM32F7xx_HAL_Driver/Src/stm32f7xx_hal_crc.c **** /** @addtogroup STM32F7xx_HAL_Driver
  49:Drivers/STM32F7xx_HAL_Driver/Src/stm32f7xx_hal_crc.c ****   * @{
  50:Drivers/STM32F7xx_HAL_Driver/Src/stm32f7xx_hal_crc.c ****   */
  51:Drivers/STM32F7xx_HAL_Driver/Src/stm32f7xx_hal_crc.c **** 
  52:Drivers/STM32F7xx_HAL_Driver/Src/stm32f7xx_hal_crc.c **** /** @defgroup CRC CRC
  53:Drivers/STM32F7xx_HAL_Driver/Src/stm32f7xx_hal_crc.c ****   * @brief CRC HAL module driver.
  54:Drivers/STM32F7xx_HAL_Driver/Src/stm32f7xx_hal_crc.c ****   * @{
  55:Drivers/STM32F7xx_HAL_Driver/Src/stm32f7xx_hal_crc.c ****   */
  56:Drivers/STM32F7xx_HAL_Driver/Src/stm32f7xx_hal_crc.c **** 
  57:Drivers/STM32F7xx_HAL_Driver/Src/stm32f7xx_hal_crc.c **** #ifdef HAL_CRC_MODULE_ENABLED
  58:Drivers/STM32F7xx_HAL_Driver/Src/stm32f7xx_hal_crc.c **** 
  59:Drivers/STM32F7xx_HAL_Driver/Src/stm32f7xx_hal_crc.c **** /* Private typedef -----------------------------------------------------------*/
  60:Drivers/STM32F7xx_HAL_Driver/Src/stm32f7xx_hal_crc.c **** /* Private define ------------------------------------------------------------*/
  61:Drivers/STM32F7xx_HAL_Driver/Src/stm32f7xx_hal_crc.c **** /* Private macro -------------------------------------------------------------*/
  62:Drivers/STM32F7xx_HAL_Driver/Src/stm32f7xx_hal_crc.c **** /* Private variables ---------------------------------------------------------*/
  63:Drivers/STM32F7xx_HAL_Driver/Src/stm32f7xx_hal_crc.c **** /* Private function prototypes -----------------------------------------------*/
  64:Drivers/STM32F7xx_HAL_Driver/Src/stm32f7xx_hal_crc.c **** /** @defgroup CRC_Private_Functions CRC Private Functions
  65:Drivers/STM32F7xx_HAL_Driver/Src/stm32f7xx_hal_crc.c ****   * @{
  66:Drivers/STM32F7xx_HAL_Driver/Src/stm32f7xx_hal_crc.c ****   */
  67:Drivers/STM32F7xx_HAL_Driver/Src/stm32f7xx_hal_crc.c **** static uint32_t CRC_Handle_8(CRC_HandleTypeDef *hcrc, uint8_t pBuffer[], uint32_t BufferLength);
  68:Drivers/STM32F7xx_HAL_Driver/Src/stm32f7xx_hal_crc.c **** static uint32_t CRC_Handle_16(CRC_HandleTypeDef *hcrc, uint16_t pBuffer[], uint32_t BufferLength);
  69:Drivers/STM32F7xx_HAL_Driver/Src/stm32f7xx_hal_crc.c **** /**
  70:Drivers/STM32F7xx_HAL_Driver/Src/stm32f7xx_hal_crc.c ****   * @}
  71:Drivers/STM32F7xx_HAL_Driver/Src/stm32f7xx_hal_crc.c ****   */
  72:Drivers/STM32F7xx_HAL_Driver/Src/stm32f7xx_hal_crc.c **** 
  73:Drivers/STM32F7xx_HAL_Driver/Src/stm32f7xx_hal_crc.c **** /* Exported functions --------------------------------------------------------*/
  74:Drivers/STM32F7xx_HAL_Driver/Src/stm32f7xx_hal_crc.c **** 
  75:Drivers/STM32F7xx_HAL_Driver/Src/stm32f7xx_hal_crc.c **** /** @defgroup CRC_Exported_Functions CRC Exported Functions
  76:Drivers/STM32F7xx_HAL_Driver/Src/stm32f7xx_hal_crc.c ****   * @{
  77:Drivers/STM32F7xx_HAL_Driver/Src/stm32f7xx_hal_crc.c ****   */
  78:Drivers/STM32F7xx_HAL_Driver/Src/stm32f7xx_hal_crc.c **** 
  79:Drivers/STM32F7xx_HAL_Driver/Src/stm32f7xx_hal_crc.c **** /** @defgroup CRC_Exported_Functions_Group1 Initialization and de-initialization functions
  80:Drivers/STM32F7xx_HAL_Driver/Src/stm32f7xx_hal_crc.c ****   *  @brief    Initialization and Configuration functions.
  81:Drivers/STM32F7xx_HAL_Driver/Src/stm32f7xx_hal_crc.c ****   *
  82:Drivers/STM32F7xx_HAL_Driver/Src/stm32f7xx_hal_crc.c **** @verbatim
  83:Drivers/STM32F7xx_HAL_Driver/Src/stm32f7xx_hal_crc.c ****  ===============================================================================
  84:Drivers/STM32F7xx_HAL_Driver/Src/stm32f7xx_hal_crc.c ****             ##### Initialization and de-initialization functions #####
  85:Drivers/STM32F7xx_HAL_Driver/Src/stm32f7xx_hal_crc.c ****  ===============================================================================
  86:Drivers/STM32F7xx_HAL_Driver/Src/stm32f7xx_hal_crc.c ****     [..]  This section provides functions allowing to:
  87:Drivers/STM32F7xx_HAL_Driver/Src/stm32f7xx_hal_crc.c ****       (+) Initialize the CRC according to the specified parameters
  88:Drivers/STM32F7xx_HAL_Driver/Src/stm32f7xx_hal_crc.c ****           in the CRC_InitTypeDef and create the associated handle
ARM GAS  /var/folders/n6/c271nzx11xl4r4_m7sqjlt0m0000gn/T//ccZGdjcQ.s 			page 3


  89:Drivers/STM32F7xx_HAL_Driver/Src/stm32f7xx_hal_crc.c ****       (+) DeInitialize the CRC peripheral
  90:Drivers/STM32F7xx_HAL_Driver/Src/stm32f7xx_hal_crc.c ****       (+) Initialize the CRC MSP (MCU Specific Package)
  91:Drivers/STM32F7xx_HAL_Driver/Src/stm32f7xx_hal_crc.c ****       (+) DeInitialize the CRC MSP
  92:Drivers/STM32F7xx_HAL_Driver/Src/stm32f7xx_hal_crc.c **** 
  93:Drivers/STM32F7xx_HAL_Driver/Src/stm32f7xx_hal_crc.c **** @endverbatim
  94:Drivers/STM32F7xx_HAL_Driver/Src/stm32f7xx_hal_crc.c ****   * @{
  95:Drivers/STM32F7xx_HAL_Driver/Src/stm32f7xx_hal_crc.c ****   */
  96:Drivers/STM32F7xx_HAL_Driver/Src/stm32f7xx_hal_crc.c **** 
  97:Drivers/STM32F7xx_HAL_Driver/Src/stm32f7xx_hal_crc.c **** /**
  98:Drivers/STM32F7xx_HAL_Driver/Src/stm32f7xx_hal_crc.c ****   * @brief  Initialize the CRC according to the specified
  99:Drivers/STM32F7xx_HAL_Driver/Src/stm32f7xx_hal_crc.c ****   *         parameters in the CRC_InitTypeDef and create the associated handle.
 100:Drivers/STM32F7xx_HAL_Driver/Src/stm32f7xx_hal_crc.c ****   * @param  hcrc CRC handle
 101:Drivers/STM32F7xx_HAL_Driver/Src/stm32f7xx_hal_crc.c ****   * @retval HAL status
 102:Drivers/STM32F7xx_HAL_Driver/Src/stm32f7xx_hal_crc.c ****   */
 103:Drivers/STM32F7xx_HAL_Driver/Src/stm32f7xx_hal_crc.c **** HAL_StatusTypeDef HAL_CRC_Init(CRC_HandleTypeDef *hcrc)
 104:Drivers/STM32F7xx_HAL_Driver/Src/stm32f7xx_hal_crc.c **** {
 105:Drivers/STM32F7xx_HAL_Driver/Src/stm32f7xx_hal_crc.c ****   /* Check the CRC handle allocation */
 106:Drivers/STM32F7xx_HAL_Driver/Src/stm32f7xx_hal_crc.c ****   if (hcrc == NULL)
 107:Drivers/STM32F7xx_HAL_Driver/Src/stm32f7xx_hal_crc.c ****   {
 108:Drivers/STM32F7xx_HAL_Driver/Src/stm32f7xx_hal_crc.c ****     return HAL_ERROR;
 109:Drivers/STM32F7xx_HAL_Driver/Src/stm32f7xx_hal_crc.c ****   }
 110:Drivers/STM32F7xx_HAL_Driver/Src/stm32f7xx_hal_crc.c **** 
 111:Drivers/STM32F7xx_HAL_Driver/Src/stm32f7xx_hal_crc.c ****   /* Check the parameters */
 112:Drivers/STM32F7xx_HAL_Driver/Src/stm32f7xx_hal_crc.c ****   assert_param(IS_CRC_ALL_INSTANCE(hcrc->Instance));
 113:Drivers/STM32F7xx_HAL_Driver/Src/stm32f7xx_hal_crc.c **** 
 114:Drivers/STM32F7xx_HAL_Driver/Src/stm32f7xx_hal_crc.c ****   if (hcrc->State == HAL_CRC_STATE_RESET)
 115:Drivers/STM32F7xx_HAL_Driver/Src/stm32f7xx_hal_crc.c ****   {
 116:Drivers/STM32F7xx_HAL_Driver/Src/stm32f7xx_hal_crc.c ****     /* Allocate lock resource and initialize it */
 117:Drivers/STM32F7xx_HAL_Driver/Src/stm32f7xx_hal_crc.c ****     hcrc->Lock = HAL_UNLOCKED;
 118:Drivers/STM32F7xx_HAL_Driver/Src/stm32f7xx_hal_crc.c ****     /* Init the low level hardware */
 119:Drivers/STM32F7xx_HAL_Driver/Src/stm32f7xx_hal_crc.c ****     HAL_CRC_MspInit(hcrc);
 120:Drivers/STM32F7xx_HAL_Driver/Src/stm32f7xx_hal_crc.c ****   }
 121:Drivers/STM32F7xx_HAL_Driver/Src/stm32f7xx_hal_crc.c **** 
 122:Drivers/STM32F7xx_HAL_Driver/Src/stm32f7xx_hal_crc.c ****   hcrc->State = HAL_CRC_STATE_BUSY;
 123:Drivers/STM32F7xx_HAL_Driver/Src/stm32f7xx_hal_crc.c **** 
 124:Drivers/STM32F7xx_HAL_Driver/Src/stm32f7xx_hal_crc.c ****   /* check whether or not non-default generating polynomial has been
 125:Drivers/STM32F7xx_HAL_Driver/Src/stm32f7xx_hal_crc.c ****    * picked up by user */
 126:Drivers/STM32F7xx_HAL_Driver/Src/stm32f7xx_hal_crc.c ****   assert_param(IS_DEFAULT_POLYNOMIAL(hcrc->Init.DefaultPolynomialUse));
 127:Drivers/STM32F7xx_HAL_Driver/Src/stm32f7xx_hal_crc.c ****   if (hcrc->Init.DefaultPolynomialUse == DEFAULT_POLYNOMIAL_ENABLE)
 128:Drivers/STM32F7xx_HAL_Driver/Src/stm32f7xx_hal_crc.c ****   {
 129:Drivers/STM32F7xx_HAL_Driver/Src/stm32f7xx_hal_crc.c ****     /* initialize peripheral with default generating polynomial */
 130:Drivers/STM32F7xx_HAL_Driver/Src/stm32f7xx_hal_crc.c ****     WRITE_REG(hcrc->Instance->POL, DEFAULT_CRC32_POLY);
 131:Drivers/STM32F7xx_HAL_Driver/Src/stm32f7xx_hal_crc.c ****     MODIFY_REG(hcrc->Instance->CR, CRC_CR_POLYSIZE, CRC_POLYLENGTH_32B);
 132:Drivers/STM32F7xx_HAL_Driver/Src/stm32f7xx_hal_crc.c ****   }
 133:Drivers/STM32F7xx_HAL_Driver/Src/stm32f7xx_hal_crc.c ****   else
 134:Drivers/STM32F7xx_HAL_Driver/Src/stm32f7xx_hal_crc.c ****   {
 135:Drivers/STM32F7xx_HAL_Driver/Src/stm32f7xx_hal_crc.c ****     /* initialize CRC peripheral with generating polynomial defined by user */
 136:Drivers/STM32F7xx_HAL_Driver/Src/stm32f7xx_hal_crc.c ****     if (HAL_CRCEx_Polynomial_Set(hcrc, hcrc->Init.GeneratingPolynomial, hcrc->Init.CRCLength) != HA
 137:Drivers/STM32F7xx_HAL_Driver/Src/stm32f7xx_hal_crc.c ****     {
 138:Drivers/STM32F7xx_HAL_Driver/Src/stm32f7xx_hal_crc.c ****       return HAL_ERROR;
 139:Drivers/STM32F7xx_HAL_Driver/Src/stm32f7xx_hal_crc.c ****     }
 140:Drivers/STM32F7xx_HAL_Driver/Src/stm32f7xx_hal_crc.c ****   }
 141:Drivers/STM32F7xx_HAL_Driver/Src/stm32f7xx_hal_crc.c **** 
 142:Drivers/STM32F7xx_HAL_Driver/Src/stm32f7xx_hal_crc.c ****   /* check whether or not non-default CRC initial value has been
 143:Drivers/STM32F7xx_HAL_Driver/Src/stm32f7xx_hal_crc.c ****    * picked up by user */
 144:Drivers/STM32F7xx_HAL_Driver/Src/stm32f7xx_hal_crc.c ****   assert_param(IS_DEFAULT_INIT_VALUE(hcrc->Init.DefaultInitValueUse));
 145:Drivers/STM32F7xx_HAL_Driver/Src/stm32f7xx_hal_crc.c ****   if (hcrc->Init.DefaultInitValueUse == DEFAULT_INIT_VALUE_ENABLE)
ARM GAS  /var/folders/n6/c271nzx11xl4r4_m7sqjlt0m0000gn/T//ccZGdjcQ.s 			page 4


 146:Drivers/STM32F7xx_HAL_Driver/Src/stm32f7xx_hal_crc.c ****   {
 147:Drivers/STM32F7xx_HAL_Driver/Src/stm32f7xx_hal_crc.c ****     WRITE_REG(hcrc->Instance->INIT, DEFAULT_CRC_INITVALUE);
 148:Drivers/STM32F7xx_HAL_Driver/Src/stm32f7xx_hal_crc.c ****   }
 149:Drivers/STM32F7xx_HAL_Driver/Src/stm32f7xx_hal_crc.c ****   else
 150:Drivers/STM32F7xx_HAL_Driver/Src/stm32f7xx_hal_crc.c ****   {
 151:Drivers/STM32F7xx_HAL_Driver/Src/stm32f7xx_hal_crc.c ****     WRITE_REG(hcrc->Instance->INIT, hcrc->Init.InitValue);
 152:Drivers/STM32F7xx_HAL_Driver/Src/stm32f7xx_hal_crc.c ****   }
 153:Drivers/STM32F7xx_HAL_Driver/Src/stm32f7xx_hal_crc.c **** 
 154:Drivers/STM32F7xx_HAL_Driver/Src/stm32f7xx_hal_crc.c **** 
 155:Drivers/STM32F7xx_HAL_Driver/Src/stm32f7xx_hal_crc.c ****   /* set input data inversion mode */
 156:Drivers/STM32F7xx_HAL_Driver/Src/stm32f7xx_hal_crc.c ****   assert_param(IS_CRC_INPUTDATA_INVERSION_MODE(hcrc->Init.InputDataInversionMode));
 157:Drivers/STM32F7xx_HAL_Driver/Src/stm32f7xx_hal_crc.c ****   MODIFY_REG(hcrc->Instance->CR, CRC_CR_REV_IN, hcrc->Init.InputDataInversionMode);
 158:Drivers/STM32F7xx_HAL_Driver/Src/stm32f7xx_hal_crc.c **** 
 159:Drivers/STM32F7xx_HAL_Driver/Src/stm32f7xx_hal_crc.c ****   /* set output data inversion mode */
 160:Drivers/STM32F7xx_HAL_Driver/Src/stm32f7xx_hal_crc.c ****   assert_param(IS_CRC_OUTPUTDATA_INVERSION_MODE(hcrc->Init.OutputDataInversionMode));
 161:Drivers/STM32F7xx_HAL_Driver/Src/stm32f7xx_hal_crc.c ****   MODIFY_REG(hcrc->Instance->CR, CRC_CR_REV_OUT, hcrc->Init.OutputDataInversionMode);
 162:Drivers/STM32F7xx_HAL_Driver/Src/stm32f7xx_hal_crc.c **** 
 163:Drivers/STM32F7xx_HAL_Driver/Src/stm32f7xx_hal_crc.c ****   /* makes sure the input data format (bytes, halfwords or words stream)
 164:Drivers/STM32F7xx_HAL_Driver/Src/stm32f7xx_hal_crc.c ****    * is properly specified by user */
 165:Drivers/STM32F7xx_HAL_Driver/Src/stm32f7xx_hal_crc.c ****   assert_param(IS_CRC_INPUTDATA_FORMAT(hcrc->InputDataFormat));
 166:Drivers/STM32F7xx_HAL_Driver/Src/stm32f7xx_hal_crc.c **** 
 167:Drivers/STM32F7xx_HAL_Driver/Src/stm32f7xx_hal_crc.c ****   /* Change CRC peripheral state */
 168:Drivers/STM32F7xx_HAL_Driver/Src/stm32f7xx_hal_crc.c ****   hcrc->State = HAL_CRC_STATE_READY;
 169:Drivers/STM32F7xx_HAL_Driver/Src/stm32f7xx_hal_crc.c **** 
 170:Drivers/STM32F7xx_HAL_Driver/Src/stm32f7xx_hal_crc.c ****   /* Return function status */
 171:Drivers/STM32F7xx_HAL_Driver/Src/stm32f7xx_hal_crc.c ****   return HAL_OK;
 172:Drivers/STM32F7xx_HAL_Driver/Src/stm32f7xx_hal_crc.c **** }
 173:Drivers/STM32F7xx_HAL_Driver/Src/stm32f7xx_hal_crc.c **** 
 174:Drivers/STM32F7xx_HAL_Driver/Src/stm32f7xx_hal_crc.c **** /**
 175:Drivers/STM32F7xx_HAL_Driver/Src/stm32f7xx_hal_crc.c ****   * @brief  DeInitialize the CRC peripheral.
 176:Drivers/STM32F7xx_HAL_Driver/Src/stm32f7xx_hal_crc.c ****   * @param  hcrc CRC handle
 177:Drivers/STM32F7xx_HAL_Driver/Src/stm32f7xx_hal_crc.c ****   * @retval HAL status
 178:Drivers/STM32F7xx_HAL_Driver/Src/stm32f7xx_hal_crc.c ****   */
 179:Drivers/STM32F7xx_HAL_Driver/Src/stm32f7xx_hal_crc.c **** HAL_StatusTypeDef HAL_CRC_DeInit(CRC_HandleTypeDef *hcrc)
 180:Drivers/STM32F7xx_HAL_Driver/Src/stm32f7xx_hal_crc.c **** {
 181:Drivers/STM32F7xx_HAL_Driver/Src/stm32f7xx_hal_crc.c ****   /* Check the CRC handle allocation */
 182:Drivers/STM32F7xx_HAL_Driver/Src/stm32f7xx_hal_crc.c ****   if (hcrc == NULL)
 183:Drivers/STM32F7xx_HAL_Driver/Src/stm32f7xx_hal_crc.c ****   {
 184:Drivers/STM32F7xx_HAL_Driver/Src/stm32f7xx_hal_crc.c ****     return HAL_ERROR;
 185:Drivers/STM32F7xx_HAL_Driver/Src/stm32f7xx_hal_crc.c ****   }
 186:Drivers/STM32F7xx_HAL_Driver/Src/stm32f7xx_hal_crc.c **** 
 187:Drivers/STM32F7xx_HAL_Driver/Src/stm32f7xx_hal_crc.c ****   /* Check the parameters */
 188:Drivers/STM32F7xx_HAL_Driver/Src/stm32f7xx_hal_crc.c ****   assert_param(IS_CRC_ALL_INSTANCE(hcrc->Instance));
 189:Drivers/STM32F7xx_HAL_Driver/Src/stm32f7xx_hal_crc.c **** 
 190:Drivers/STM32F7xx_HAL_Driver/Src/stm32f7xx_hal_crc.c ****   /* Check the CRC peripheral state */
 191:Drivers/STM32F7xx_HAL_Driver/Src/stm32f7xx_hal_crc.c ****   if (hcrc->State == HAL_CRC_STATE_BUSY)
 192:Drivers/STM32F7xx_HAL_Driver/Src/stm32f7xx_hal_crc.c ****   {
 193:Drivers/STM32F7xx_HAL_Driver/Src/stm32f7xx_hal_crc.c ****     return HAL_BUSY;
 194:Drivers/STM32F7xx_HAL_Driver/Src/stm32f7xx_hal_crc.c ****   }
 195:Drivers/STM32F7xx_HAL_Driver/Src/stm32f7xx_hal_crc.c **** 
 196:Drivers/STM32F7xx_HAL_Driver/Src/stm32f7xx_hal_crc.c ****   /* Change CRC peripheral state */
 197:Drivers/STM32F7xx_HAL_Driver/Src/stm32f7xx_hal_crc.c ****   hcrc->State = HAL_CRC_STATE_BUSY;
 198:Drivers/STM32F7xx_HAL_Driver/Src/stm32f7xx_hal_crc.c **** 
 199:Drivers/STM32F7xx_HAL_Driver/Src/stm32f7xx_hal_crc.c ****   /* Reset CRC calculation unit */
 200:Drivers/STM32F7xx_HAL_Driver/Src/stm32f7xx_hal_crc.c ****   __HAL_CRC_DR_RESET(hcrc);
 201:Drivers/STM32F7xx_HAL_Driver/Src/stm32f7xx_hal_crc.c **** 
 202:Drivers/STM32F7xx_HAL_Driver/Src/stm32f7xx_hal_crc.c ****   /* Reset IDR register content */
ARM GAS  /var/folders/n6/c271nzx11xl4r4_m7sqjlt0m0000gn/T//ccZGdjcQ.s 			page 5


 203:Drivers/STM32F7xx_HAL_Driver/Src/stm32f7xx_hal_crc.c ****   __HAL_CRC_SET_IDR(hcrc, 0);
 204:Drivers/STM32F7xx_HAL_Driver/Src/stm32f7xx_hal_crc.c **** 
 205:Drivers/STM32F7xx_HAL_Driver/Src/stm32f7xx_hal_crc.c ****   /* DeInit the low level hardware */
 206:Drivers/STM32F7xx_HAL_Driver/Src/stm32f7xx_hal_crc.c ****   HAL_CRC_MspDeInit(hcrc);
 207:Drivers/STM32F7xx_HAL_Driver/Src/stm32f7xx_hal_crc.c **** 
 208:Drivers/STM32F7xx_HAL_Driver/Src/stm32f7xx_hal_crc.c ****   /* Change CRC peripheral state */
 209:Drivers/STM32F7xx_HAL_Driver/Src/stm32f7xx_hal_crc.c ****   hcrc->State = HAL_CRC_STATE_RESET;
 210:Drivers/STM32F7xx_HAL_Driver/Src/stm32f7xx_hal_crc.c **** 
 211:Drivers/STM32F7xx_HAL_Driver/Src/stm32f7xx_hal_crc.c ****   /* Process unlocked */
 212:Drivers/STM32F7xx_HAL_Driver/Src/stm32f7xx_hal_crc.c ****   __HAL_UNLOCK(hcrc);
 213:Drivers/STM32F7xx_HAL_Driver/Src/stm32f7xx_hal_crc.c **** 
 214:Drivers/STM32F7xx_HAL_Driver/Src/stm32f7xx_hal_crc.c ****   /* Return function status */
 215:Drivers/STM32F7xx_HAL_Driver/Src/stm32f7xx_hal_crc.c ****   return HAL_OK;
 216:Drivers/STM32F7xx_HAL_Driver/Src/stm32f7xx_hal_crc.c **** }
 217:Drivers/STM32F7xx_HAL_Driver/Src/stm32f7xx_hal_crc.c **** 
 218:Drivers/STM32F7xx_HAL_Driver/Src/stm32f7xx_hal_crc.c **** /**
 219:Drivers/STM32F7xx_HAL_Driver/Src/stm32f7xx_hal_crc.c ****   * @brief  Initializes the CRC MSP.
 220:Drivers/STM32F7xx_HAL_Driver/Src/stm32f7xx_hal_crc.c ****   * @param  hcrc CRC handle
 221:Drivers/STM32F7xx_HAL_Driver/Src/stm32f7xx_hal_crc.c ****   * @retval None
 222:Drivers/STM32F7xx_HAL_Driver/Src/stm32f7xx_hal_crc.c ****   */
 223:Drivers/STM32F7xx_HAL_Driver/Src/stm32f7xx_hal_crc.c **** __weak void HAL_CRC_MspInit(CRC_HandleTypeDef *hcrc)
 224:Drivers/STM32F7xx_HAL_Driver/Src/stm32f7xx_hal_crc.c **** {
 225:Drivers/STM32F7xx_HAL_Driver/Src/stm32f7xx_hal_crc.c ****   /* Prevent unused argument(s) compilation warning */
 226:Drivers/STM32F7xx_HAL_Driver/Src/stm32f7xx_hal_crc.c ****   UNUSED(hcrc);
 227:Drivers/STM32F7xx_HAL_Driver/Src/stm32f7xx_hal_crc.c **** 
 228:Drivers/STM32F7xx_HAL_Driver/Src/stm32f7xx_hal_crc.c ****   /* NOTE : This function should not be modified, when the callback is needed,
 229:Drivers/STM32F7xx_HAL_Driver/Src/stm32f7xx_hal_crc.c ****             the HAL_CRC_MspInit can be implemented in the user file
 230:Drivers/STM32F7xx_HAL_Driver/Src/stm32f7xx_hal_crc.c ****    */
 231:Drivers/STM32F7xx_HAL_Driver/Src/stm32f7xx_hal_crc.c **** }
 232:Drivers/STM32F7xx_HAL_Driver/Src/stm32f7xx_hal_crc.c **** 
 233:Drivers/STM32F7xx_HAL_Driver/Src/stm32f7xx_hal_crc.c **** /**
 234:Drivers/STM32F7xx_HAL_Driver/Src/stm32f7xx_hal_crc.c ****   * @brief  DeInitialize the CRC MSP.
 235:Drivers/STM32F7xx_HAL_Driver/Src/stm32f7xx_hal_crc.c ****   * @param  hcrc CRC handle
 236:Drivers/STM32F7xx_HAL_Driver/Src/stm32f7xx_hal_crc.c ****   * @retval None
 237:Drivers/STM32F7xx_HAL_Driver/Src/stm32f7xx_hal_crc.c ****   */
 238:Drivers/STM32F7xx_HAL_Driver/Src/stm32f7xx_hal_crc.c **** __weak void HAL_CRC_MspDeInit(CRC_HandleTypeDef *hcrc)
 239:Drivers/STM32F7xx_HAL_Driver/Src/stm32f7xx_hal_crc.c **** {
 240:Drivers/STM32F7xx_HAL_Driver/Src/stm32f7xx_hal_crc.c ****   /* Prevent unused argument(s) compilation warning */
 241:Drivers/STM32F7xx_HAL_Driver/Src/stm32f7xx_hal_crc.c ****   UNUSED(hcrc);
 242:Drivers/STM32F7xx_HAL_Driver/Src/stm32f7xx_hal_crc.c **** 
 243:Drivers/STM32F7xx_HAL_Driver/Src/stm32f7xx_hal_crc.c ****   /* NOTE : This function should not be modified, when the callback is needed,
 244:Drivers/STM32F7xx_HAL_Driver/Src/stm32f7xx_hal_crc.c ****             the HAL_CRC_MspDeInit can be implemented in the user file
 245:Drivers/STM32F7xx_HAL_Driver/Src/stm32f7xx_hal_crc.c ****    */
 246:Drivers/STM32F7xx_HAL_Driver/Src/stm32f7xx_hal_crc.c **** }
 247:Drivers/STM32F7xx_HAL_Driver/Src/stm32f7xx_hal_crc.c **** 
 248:Drivers/STM32F7xx_HAL_Driver/Src/stm32f7xx_hal_crc.c **** /**
 249:Drivers/STM32F7xx_HAL_Driver/Src/stm32f7xx_hal_crc.c ****   * @}
 250:Drivers/STM32F7xx_HAL_Driver/Src/stm32f7xx_hal_crc.c ****   */
 251:Drivers/STM32F7xx_HAL_Driver/Src/stm32f7xx_hal_crc.c **** 
 252:Drivers/STM32F7xx_HAL_Driver/Src/stm32f7xx_hal_crc.c **** /** @defgroup CRC_Exported_Functions_Group2 Peripheral Control functions
 253:Drivers/STM32F7xx_HAL_Driver/Src/stm32f7xx_hal_crc.c ****   *  @brief    management functions.
 254:Drivers/STM32F7xx_HAL_Driver/Src/stm32f7xx_hal_crc.c ****   *
 255:Drivers/STM32F7xx_HAL_Driver/Src/stm32f7xx_hal_crc.c **** @verbatim
 256:Drivers/STM32F7xx_HAL_Driver/Src/stm32f7xx_hal_crc.c ****  ===============================================================================
 257:Drivers/STM32F7xx_HAL_Driver/Src/stm32f7xx_hal_crc.c ****                       ##### Peripheral Control functions #####
 258:Drivers/STM32F7xx_HAL_Driver/Src/stm32f7xx_hal_crc.c ****  ===============================================================================
 259:Drivers/STM32F7xx_HAL_Driver/Src/stm32f7xx_hal_crc.c ****     [..]  This section provides functions allowing to:
ARM GAS  /var/folders/n6/c271nzx11xl4r4_m7sqjlt0m0000gn/T//ccZGdjcQ.s 			page 6


 260:Drivers/STM32F7xx_HAL_Driver/Src/stm32f7xx_hal_crc.c ****       (+) compute the 7, 8, 16 or 32-bit CRC value of an 8, 16 or 32-bit data buffer
 261:Drivers/STM32F7xx_HAL_Driver/Src/stm32f7xx_hal_crc.c ****           using combination of the previous CRC value and the new one.
 262:Drivers/STM32F7xx_HAL_Driver/Src/stm32f7xx_hal_crc.c **** 
 263:Drivers/STM32F7xx_HAL_Driver/Src/stm32f7xx_hal_crc.c ****        [..]  or
 264:Drivers/STM32F7xx_HAL_Driver/Src/stm32f7xx_hal_crc.c **** 
 265:Drivers/STM32F7xx_HAL_Driver/Src/stm32f7xx_hal_crc.c ****       (+) compute the 7, 8, 16 or 32-bit CRC value of an 8, 16 or 32-bit data buffer
 266:Drivers/STM32F7xx_HAL_Driver/Src/stm32f7xx_hal_crc.c ****           independently of the previous CRC value.
 267:Drivers/STM32F7xx_HAL_Driver/Src/stm32f7xx_hal_crc.c **** 
 268:Drivers/STM32F7xx_HAL_Driver/Src/stm32f7xx_hal_crc.c **** @endverbatim
 269:Drivers/STM32F7xx_HAL_Driver/Src/stm32f7xx_hal_crc.c ****   * @{
 270:Drivers/STM32F7xx_HAL_Driver/Src/stm32f7xx_hal_crc.c ****   */
 271:Drivers/STM32F7xx_HAL_Driver/Src/stm32f7xx_hal_crc.c **** 
 272:Drivers/STM32F7xx_HAL_Driver/Src/stm32f7xx_hal_crc.c **** /**
 273:Drivers/STM32F7xx_HAL_Driver/Src/stm32f7xx_hal_crc.c ****   * @brief  Compute the 7, 8, 16 or 32-bit CRC value of an 8, 16 or 32-bit data buffer
 274:Drivers/STM32F7xx_HAL_Driver/Src/stm32f7xx_hal_crc.c ****   *         starting with the previously computed CRC as initialization value.
 275:Drivers/STM32F7xx_HAL_Driver/Src/stm32f7xx_hal_crc.c ****   * @param  hcrc CRC handle
 276:Drivers/STM32F7xx_HAL_Driver/Src/stm32f7xx_hal_crc.c ****   * @param  pBuffer pointer to the input data buffer, exact input data format is
 277:Drivers/STM32F7xx_HAL_Driver/Src/stm32f7xx_hal_crc.c ****   *         provided by hcrc->InputDataFormat.
 278:Drivers/STM32F7xx_HAL_Driver/Src/stm32f7xx_hal_crc.c ****   * @param  BufferLength input data buffer length (number of bytes if pBuffer
 279:Drivers/STM32F7xx_HAL_Driver/Src/stm32f7xx_hal_crc.c ****   *         type is * uint8_t, number of half-words if pBuffer type is * uint16_t,
 280:Drivers/STM32F7xx_HAL_Driver/Src/stm32f7xx_hal_crc.c ****   *         number of words if pBuffer type is * uint32_t).
 281:Drivers/STM32F7xx_HAL_Driver/Src/stm32f7xx_hal_crc.c ****   * @note  By default, the API expects a uint32_t pointer as input buffer parameter.
 282:Drivers/STM32F7xx_HAL_Driver/Src/stm32f7xx_hal_crc.c ****   *        Input buffer pointers with other types simply need to be cast in uint32_t
 283:Drivers/STM32F7xx_HAL_Driver/Src/stm32f7xx_hal_crc.c ****   *        and the API will internally adjust its input data processing based on the
 284:Drivers/STM32F7xx_HAL_Driver/Src/stm32f7xx_hal_crc.c ****   *        handle field hcrc->InputDataFormat.
 285:Drivers/STM32F7xx_HAL_Driver/Src/stm32f7xx_hal_crc.c ****   * @retval uint32_t CRC (returned value LSBs for CRC shorter than 32 bits)
 286:Drivers/STM32F7xx_HAL_Driver/Src/stm32f7xx_hal_crc.c ****   */
 287:Drivers/STM32F7xx_HAL_Driver/Src/stm32f7xx_hal_crc.c **** uint32_t HAL_CRC_Accumulate(CRC_HandleTypeDef *hcrc, uint32_t pBuffer[], uint32_t BufferLength)
 288:Drivers/STM32F7xx_HAL_Driver/Src/stm32f7xx_hal_crc.c **** {
 289:Drivers/STM32F7xx_HAL_Driver/Src/stm32f7xx_hal_crc.c ****   uint32_t index;      /* CRC input data buffer index */
 290:Drivers/STM32F7xx_HAL_Driver/Src/stm32f7xx_hal_crc.c ****   uint32_t temp = 0U;  /* CRC output (read from hcrc->Instance->DR register) */
 291:Drivers/STM32F7xx_HAL_Driver/Src/stm32f7xx_hal_crc.c **** 
 292:Drivers/STM32F7xx_HAL_Driver/Src/stm32f7xx_hal_crc.c ****   /* Change CRC peripheral state */
 293:Drivers/STM32F7xx_HAL_Driver/Src/stm32f7xx_hal_crc.c ****   hcrc->State = HAL_CRC_STATE_BUSY;
 294:Drivers/STM32F7xx_HAL_Driver/Src/stm32f7xx_hal_crc.c **** 
 295:Drivers/STM32F7xx_HAL_Driver/Src/stm32f7xx_hal_crc.c ****   switch (hcrc->InputDataFormat)
 296:Drivers/STM32F7xx_HAL_Driver/Src/stm32f7xx_hal_crc.c ****   {
 297:Drivers/STM32F7xx_HAL_Driver/Src/stm32f7xx_hal_crc.c ****     case CRC_INPUTDATA_FORMAT_WORDS:
 298:Drivers/STM32F7xx_HAL_Driver/Src/stm32f7xx_hal_crc.c ****       /* Enter Data to the CRC calculator */
 299:Drivers/STM32F7xx_HAL_Driver/Src/stm32f7xx_hal_crc.c ****       for (index = 0U; index < BufferLength; index++)
 300:Drivers/STM32F7xx_HAL_Driver/Src/stm32f7xx_hal_crc.c ****       {
 301:Drivers/STM32F7xx_HAL_Driver/Src/stm32f7xx_hal_crc.c ****         hcrc->Instance->DR = pBuffer[index];
 302:Drivers/STM32F7xx_HAL_Driver/Src/stm32f7xx_hal_crc.c ****       }
 303:Drivers/STM32F7xx_HAL_Driver/Src/stm32f7xx_hal_crc.c ****       temp = hcrc->Instance->DR;
 304:Drivers/STM32F7xx_HAL_Driver/Src/stm32f7xx_hal_crc.c ****       break;
 305:Drivers/STM32F7xx_HAL_Driver/Src/stm32f7xx_hal_crc.c **** 
 306:Drivers/STM32F7xx_HAL_Driver/Src/stm32f7xx_hal_crc.c ****     case CRC_INPUTDATA_FORMAT_BYTES:
 307:Drivers/STM32F7xx_HAL_Driver/Src/stm32f7xx_hal_crc.c ****       temp = CRC_Handle_8(hcrc, (uint8_t *)pBuffer, BufferLength);
 308:Drivers/STM32F7xx_HAL_Driver/Src/stm32f7xx_hal_crc.c ****       break;
 309:Drivers/STM32F7xx_HAL_Driver/Src/stm32f7xx_hal_crc.c **** 
 310:Drivers/STM32F7xx_HAL_Driver/Src/stm32f7xx_hal_crc.c ****     case CRC_INPUTDATA_FORMAT_HALFWORDS:
 311:Drivers/STM32F7xx_HAL_Driver/Src/stm32f7xx_hal_crc.c ****       temp = CRC_Handle_16(hcrc, (uint16_t *)(void *)pBuffer, BufferLength);    /* Derogation Misra
 312:Drivers/STM32F7xx_HAL_Driver/Src/stm32f7xx_hal_crc.c ****       break;
 313:Drivers/STM32F7xx_HAL_Driver/Src/stm32f7xx_hal_crc.c ****     default:
 314:Drivers/STM32F7xx_HAL_Driver/Src/stm32f7xx_hal_crc.c ****       break;
 315:Drivers/STM32F7xx_HAL_Driver/Src/stm32f7xx_hal_crc.c ****   }
 316:Drivers/STM32F7xx_HAL_Driver/Src/stm32f7xx_hal_crc.c **** 
ARM GAS  /var/folders/n6/c271nzx11xl4r4_m7sqjlt0m0000gn/T//ccZGdjcQ.s 			page 7


 317:Drivers/STM32F7xx_HAL_Driver/Src/stm32f7xx_hal_crc.c ****   /* Change CRC peripheral state */
 318:Drivers/STM32F7xx_HAL_Driver/Src/stm32f7xx_hal_crc.c ****   hcrc->State = HAL_CRC_STATE_READY;
 319:Drivers/STM32F7xx_HAL_Driver/Src/stm32f7xx_hal_crc.c **** 
 320:Drivers/STM32F7xx_HAL_Driver/Src/stm32f7xx_hal_crc.c ****   /* Return the CRC computed value */
 321:Drivers/STM32F7xx_HAL_Driver/Src/stm32f7xx_hal_crc.c ****   return temp;
 322:Drivers/STM32F7xx_HAL_Driver/Src/stm32f7xx_hal_crc.c **** }
 323:Drivers/STM32F7xx_HAL_Driver/Src/stm32f7xx_hal_crc.c **** 
 324:Drivers/STM32F7xx_HAL_Driver/Src/stm32f7xx_hal_crc.c **** /**
 325:Drivers/STM32F7xx_HAL_Driver/Src/stm32f7xx_hal_crc.c ****   * @brief  Compute the 7, 8, 16 or 32-bit CRC value of an 8, 16 or 32-bit data buffer
 326:Drivers/STM32F7xx_HAL_Driver/Src/stm32f7xx_hal_crc.c ****   *         starting with hcrc->Instance->INIT as initialization value.
 327:Drivers/STM32F7xx_HAL_Driver/Src/stm32f7xx_hal_crc.c ****   * @param  hcrc CRC handle
 328:Drivers/STM32F7xx_HAL_Driver/Src/stm32f7xx_hal_crc.c ****   * @param  pBuffer pointer to the input data buffer, exact input data format is
 329:Drivers/STM32F7xx_HAL_Driver/Src/stm32f7xx_hal_crc.c ****   *         provided by hcrc->InputDataFormat.
 330:Drivers/STM32F7xx_HAL_Driver/Src/stm32f7xx_hal_crc.c ****   * @param  BufferLength input data buffer length (number of bytes if pBuffer
 331:Drivers/STM32F7xx_HAL_Driver/Src/stm32f7xx_hal_crc.c ****   *         type is * uint8_t, number of half-words if pBuffer type is * uint16_t,
 332:Drivers/STM32F7xx_HAL_Driver/Src/stm32f7xx_hal_crc.c ****   *         number of words if pBuffer type is * uint32_t).
 333:Drivers/STM32F7xx_HAL_Driver/Src/stm32f7xx_hal_crc.c ****   * @note  By default, the API expects a uint32_t pointer as input buffer parameter.
 334:Drivers/STM32F7xx_HAL_Driver/Src/stm32f7xx_hal_crc.c ****   *        Input buffer pointers with other types simply need to be cast in uint32_t
 335:Drivers/STM32F7xx_HAL_Driver/Src/stm32f7xx_hal_crc.c ****   *        and the API will internally adjust its input data processing based on the
 336:Drivers/STM32F7xx_HAL_Driver/Src/stm32f7xx_hal_crc.c ****   *        handle field hcrc->InputDataFormat.
 337:Drivers/STM32F7xx_HAL_Driver/Src/stm32f7xx_hal_crc.c ****   * @retval uint32_t CRC (returned value LSBs for CRC shorter than 32 bits)
 338:Drivers/STM32F7xx_HAL_Driver/Src/stm32f7xx_hal_crc.c ****   */
 339:Drivers/STM32F7xx_HAL_Driver/Src/stm32f7xx_hal_crc.c **** uint32_t HAL_CRC_Calculate(CRC_HandleTypeDef *hcrc, uint32_t pBuffer[], uint32_t BufferLength)
 340:Drivers/STM32F7xx_HAL_Driver/Src/stm32f7xx_hal_crc.c **** {
 341:Drivers/STM32F7xx_HAL_Driver/Src/stm32f7xx_hal_crc.c ****   uint32_t index;      /* CRC input data buffer index */
 342:Drivers/STM32F7xx_HAL_Driver/Src/stm32f7xx_hal_crc.c ****   uint32_t temp = 0U;  /* CRC output (read from hcrc->Instance->DR register) */
 343:Drivers/STM32F7xx_HAL_Driver/Src/stm32f7xx_hal_crc.c **** 
 344:Drivers/STM32F7xx_HAL_Driver/Src/stm32f7xx_hal_crc.c ****   /* Change CRC peripheral state */
 345:Drivers/STM32F7xx_HAL_Driver/Src/stm32f7xx_hal_crc.c ****   hcrc->State = HAL_CRC_STATE_BUSY;
 346:Drivers/STM32F7xx_HAL_Driver/Src/stm32f7xx_hal_crc.c **** 
 347:Drivers/STM32F7xx_HAL_Driver/Src/stm32f7xx_hal_crc.c ****   /* Reset CRC Calculation Unit (hcrc->Instance->INIT is
 348:Drivers/STM32F7xx_HAL_Driver/Src/stm32f7xx_hal_crc.c ****   *  written in hcrc->Instance->DR) */
 349:Drivers/STM32F7xx_HAL_Driver/Src/stm32f7xx_hal_crc.c ****   __HAL_CRC_DR_RESET(hcrc);
 350:Drivers/STM32F7xx_HAL_Driver/Src/stm32f7xx_hal_crc.c **** 
 351:Drivers/STM32F7xx_HAL_Driver/Src/stm32f7xx_hal_crc.c ****   switch (hcrc->InputDataFormat)
 352:Drivers/STM32F7xx_HAL_Driver/Src/stm32f7xx_hal_crc.c ****   {
 353:Drivers/STM32F7xx_HAL_Driver/Src/stm32f7xx_hal_crc.c ****     case CRC_INPUTDATA_FORMAT_WORDS:
 354:Drivers/STM32F7xx_HAL_Driver/Src/stm32f7xx_hal_crc.c ****       /* Enter 32-bit input data to the CRC calculator */
 355:Drivers/STM32F7xx_HAL_Driver/Src/stm32f7xx_hal_crc.c ****       for (index = 0U; index < BufferLength; index++)
 356:Drivers/STM32F7xx_HAL_Driver/Src/stm32f7xx_hal_crc.c ****       {
 357:Drivers/STM32F7xx_HAL_Driver/Src/stm32f7xx_hal_crc.c ****         hcrc->Instance->DR = pBuffer[index];
 358:Drivers/STM32F7xx_HAL_Driver/Src/stm32f7xx_hal_crc.c ****       }
 359:Drivers/STM32F7xx_HAL_Driver/Src/stm32f7xx_hal_crc.c ****       temp = hcrc->Instance->DR;
 360:Drivers/STM32F7xx_HAL_Driver/Src/stm32f7xx_hal_crc.c ****       break;
 361:Drivers/STM32F7xx_HAL_Driver/Src/stm32f7xx_hal_crc.c **** 
 362:Drivers/STM32F7xx_HAL_Driver/Src/stm32f7xx_hal_crc.c ****     case CRC_INPUTDATA_FORMAT_BYTES:
 363:Drivers/STM32F7xx_HAL_Driver/Src/stm32f7xx_hal_crc.c ****       /* Specific 8-bit input data handling  */
 364:Drivers/STM32F7xx_HAL_Driver/Src/stm32f7xx_hal_crc.c ****       temp = CRC_Handle_8(hcrc, (uint8_t *)pBuffer, BufferLength);
 365:Drivers/STM32F7xx_HAL_Driver/Src/stm32f7xx_hal_crc.c ****       break;
 366:Drivers/STM32F7xx_HAL_Driver/Src/stm32f7xx_hal_crc.c **** 
 367:Drivers/STM32F7xx_HAL_Driver/Src/stm32f7xx_hal_crc.c ****     case CRC_INPUTDATA_FORMAT_HALFWORDS:
 368:Drivers/STM32F7xx_HAL_Driver/Src/stm32f7xx_hal_crc.c ****       /* Specific 16-bit input data handling  */
 369:Drivers/STM32F7xx_HAL_Driver/Src/stm32f7xx_hal_crc.c ****       temp = CRC_Handle_16(hcrc, (uint16_t *)(void *)pBuffer, BufferLength);    /* Derogation Misra
 370:Drivers/STM32F7xx_HAL_Driver/Src/stm32f7xx_hal_crc.c ****       break;
 371:Drivers/STM32F7xx_HAL_Driver/Src/stm32f7xx_hal_crc.c **** 
 372:Drivers/STM32F7xx_HAL_Driver/Src/stm32f7xx_hal_crc.c ****     default:
 373:Drivers/STM32F7xx_HAL_Driver/Src/stm32f7xx_hal_crc.c ****       break;
ARM GAS  /var/folders/n6/c271nzx11xl4r4_m7sqjlt0m0000gn/T//ccZGdjcQ.s 			page 8


 374:Drivers/STM32F7xx_HAL_Driver/Src/stm32f7xx_hal_crc.c ****   }
 375:Drivers/STM32F7xx_HAL_Driver/Src/stm32f7xx_hal_crc.c **** 
 376:Drivers/STM32F7xx_HAL_Driver/Src/stm32f7xx_hal_crc.c ****   /* Change CRC peripheral state */
 377:Drivers/STM32F7xx_HAL_Driver/Src/stm32f7xx_hal_crc.c ****   hcrc->State = HAL_CRC_STATE_READY;
 378:Drivers/STM32F7xx_HAL_Driver/Src/stm32f7xx_hal_crc.c **** 
 379:Drivers/STM32F7xx_HAL_Driver/Src/stm32f7xx_hal_crc.c ****   /* Return the CRC computed value */
 380:Drivers/STM32F7xx_HAL_Driver/Src/stm32f7xx_hal_crc.c ****   return temp;
 381:Drivers/STM32F7xx_HAL_Driver/Src/stm32f7xx_hal_crc.c **** }
 382:Drivers/STM32F7xx_HAL_Driver/Src/stm32f7xx_hal_crc.c **** 
 383:Drivers/STM32F7xx_HAL_Driver/Src/stm32f7xx_hal_crc.c **** /**
 384:Drivers/STM32F7xx_HAL_Driver/Src/stm32f7xx_hal_crc.c ****   * @}
 385:Drivers/STM32F7xx_HAL_Driver/Src/stm32f7xx_hal_crc.c ****   */
 386:Drivers/STM32F7xx_HAL_Driver/Src/stm32f7xx_hal_crc.c **** 
 387:Drivers/STM32F7xx_HAL_Driver/Src/stm32f7xx_hal_crc.c **** /** @defgroup CRC_Exported_Functions_Group3 Peripheral State functions
 388:Drivers/STM32F7xx_HAL_Driver/Src/stm32f7xx_hal_crc.c ****   *  @brief    Peripheral State functions.
 389:Drivers/STM32F7xx_HAL_Driver/Src/stm32f7xx_hal_crc.c ****   *
 390:Drivers/STM32F7xx_HAL_Driver/Src/stm32f7xx_hal_crc.c **** @verbatim
 391:Drivers/STM32F7xx_HAL_Driver/Src/stm32f7xx_hal_crc.c ****  ===============================================================================
 392:Drivers/STM32F7xx_HAL_Driver/Src/stm32f7xx_hal_crc.c ****                       ##### Peripheral State functions #####
 393:Drivers/STM32F7xx_HAL_Driver/Src/stm32f7xx_hal_crc.c ****  ===============================================================================
 394:Drivers/STM32F7xx_HAL_Driver/Src/stm32f7xx_hal_crc.c ****     [..]
 395:Drivers/STM32F7xx_HAL_Driver/Src/stm32f7xx_hal_crc.c ****     This subsection permits to get in run-time the status of the peripheral.
 396:Drivers/STM32F7xx_HAL_Driver/Src/stm32f7xx_hal_crc.c **** 
 397:Drivers/STM32F7xx_HAL_Driver/Src/stm32f7xx_hal_crc.c **** @endverbatim
 398:Drivers/STM32F7xx_HAL_Driver/Src/stm32f7xx_hal_crc.c ****   * @{
 399:Drivers/STM32F7xx_HAL_Driver/Src/stm32f7xx_hal_crc.c ****   */
 400:Drivers/STM32F7xx_HAL_Driver/Src/stm32f7xx_hal_crc.c **** 
 401:Drivers/STM32F7xx_HAL_Driver/Src/stm32f7xx_hal_crc.c **** /**
 402:Drivers/STM32F7xx_HAL_Driver/Src/stm32f7xx_hal_crc.c ****   * @brief  Return the CRC handle state.
 403:Drivers/STM32F7xx_HAL_Driver/Src/stm32f7xx_hal_crc.c ****   * @param  hcrc CRC handle
 404:Drivers/STM32F7xx_HAL_Driver/Src/stm32f7xx_hal_crc.c ****   * @retval HAL state
 405:Drivers/STM32F7xx_HAL_Driver/Src/stm32f7xx_hal_crc.c ****   */
 406:Drivers/STM32F7xx_HAL_Driver/Src/stm32f7xx_hal_crc.c **** HAL_CRC_StateTypeDef HAL_CRC_GetState(const CRC_HandleTypeDef *hcrc)
 407:Drivers/STM32F7xx_HAL_Driver/Src/stm32f7xx_hal_crc.c **** {
 408:Drivers/STM32F7xx_HAL_Driver/Src/stm32f7xx_hal_crc.c ****   /* Return CRC handle state */
 409:Drivers/STM32F7xx_HAL_Driver/Src/stm32f7xx_hal_crc.c ****   return hcrc->State;
 410:Drivers/STM32F7xx_HAL_Driver/Src/stm32f7xx_hal_crc.c **** }
 411:Drivers/STM32F7xx_HAL_Driver/Src/stm32f7xx_hal_crc.c **** 
 412:Drivers/STM32F7xx_HAL_Driver/Src/stm32f7xx_hal_crc.c **** /**
 413:Drivers/STM32F7xx_HAL_Driver/Src/stm32f7xx_hal_crc.c ****   * @}
 414:Drivers/STM32F7xx_HAL_Driver/Src/stm32f7xx_hal_crc.c ****   */
 415:Drivers/STM32F7xx_HAL_Driver/Src/stm32f7xx_hal_crc.c **** 
 416:Drivers/STM32F7xx_HAL_Driver/Src/stm32f7xx_hal_crc.c **** /**
 417:Drivers/STM32F7xx_HAL_Driver/Src/stm32f7xx_hal_crc.c ****   * @}
 418:Drivers/STM32F7xx_HAL_Driver/Src/stm32f7xx_hal_crc.c ****   */
 419:Drivers/STM32F7xx_HAL_Driver/Src/stm32f7xx_hal_crc.c **** 
 420:Drivers/STM32F7xx_HAL_Driver/Src/stm32f7xx_hal_crc.c **** /** @addtogroup CRC_Private_Functions
 421:Drivers/STM32F7xx_HAL_Driver/Src/stm32f7xx_hal_crc.c ****   * @{
 422:Drivers/STM32F7xx_HAL_Driver/Src/stm32f7xx_hal_crc.c ****   */
 423:Drivers/STM32F7xx_HAL_Driver/Src/stm32f7xx_hal_crc.c **** 
 424:Drivers/STM32F7xx_HAL_Driver/Src/stm32f7xx_hal_crc.c **** /**
 425:Drivers/STM32F7xx_HAL_Driver/Src/stm32f7xx_hal_crc.c ****   * @brief  Enter 8-bit input data to the CRC calculator.
 426:Drivers/STM32F7xx_HAL_Driver/Src/stm32f7xx_hal_crc.c ****   *         Specific data handling to optimize processing time.
 427:Drivers/STM32F7xx_HAL_Driver/Src/stm32f7xx_hal_crc.c ****   * @param  hcrc CRC handle
 428:Drivers/STM32F7xx_HAL_Driver/Src/stm32f7xx_hal_crc.c ****   * @param  pBuffer pointer to the input data buffer
 429:Drivers/STM32F7xx_HAL_Driver/Src/stm32f7xx_hal_crc.c ****   * @param  BufferLength input data buffer length
 430:Drivers/STM32F7xx_HAL_Driver/Src/stm32f7xx_hal_crc.c ****   * @retval uint32_t CRC (returned value LSBs for CRC shorter than 32 bits)
ARM GAS  /var/folders/n6/c271nzx11xl4r4_m7sqjlt0m0000gn/T//ccZGdjcQ.s 			page 9


 431:Drivers/STM32F7xx_HAL_Driver/Src/stm32f7xx_hal_crc.c ****   */
 432:Drivers/STM32F7xx_HAL_Driver/Src/stm32f7xx_hal_crc.c **** static uint32_t CRC_Handle_8(CRC_HandleTypeDef *hcrc, uint8_t pBuffer[], uint32_t BufferLength)
 433:Drivers/STM32F7xx_HAL_Driver/Src/stm32f7xx_hal_crc.c **** {
  28              		.loc 1 433 1 view -0
  29              		.cfi_startproc
  30              		@ args = 0, pretend = 0, frame = 0
  31              		@ frame_needed = 0, uses_anonymous_args = 0
  32              		.loc 1 433 1 is_stmt 0 view .LVU1
  33 0000 10B5     		push	{r4, lr}
  34              		.cfi_def_cfa_offset 8
  35              		.cfi_offset 4, -8
  36              		.cfi_offset 14, -4
 434:Drivers/STM32F7xx_HAL_Driver/Src/stm32f7xx_hal_crc.c ****   uint32_t i; /* input data buffer index */
  37              		.loc 1 434 3 is_stmt 1 view .LVU2
 435:Drivers/STM32F7xx_HAL_Driver/Src/stm32f7xx_hal_crc.c ****   uint16_t data;
  38              		.loc 1 435 3 view .LVU3
 436:Drivers/STM32F7xx_HAL_Driver/Src/stm32f7xx_hal_crc.c ****   __IO uint16_t *pReg;
  39              		.loc 1 436 3 view .LVU4
 437:Drivers/STM32F7xx_HAL_Driver/Src/stm32f7xx_hal_crc.c **** 
 438:Drivers/STM32F7xx_HAL_Driver/Src/stm32f7xx_hal_crc.c ****   /* Processing time optimization: 4 bytes are entered in a row with a single word write,
 439:Drivers/STM32F7xx_HAL_Driver/Src/stm32f7xx_hal_crc.c ****    * last bytes must be carefully fed to the CRC calculator to ensure a correct type
 440:Drivers/STM32F7xx_HAL_Driver/Src/stm32f7xx_hal_crc.c ****    * handling by the peripheral */
 441:Drivers/STM32F7xx_HAL_Driver/Src/stm32f7xx_hal_crc.c ****   for (i = 0U; i < (BufferLength / 4U); i++)
  40              		.loc 1 441 3 view .LVU5
  41              	.LVL1:
  42              		.loc 1 441 10 is_stmt 0 view .LVU6
  43 0002 4FF0000C 		mov	ip, #0
  44              		.loc 1 441 3 view .LVU7
  45 0006 14E0     		b	.L2
  46              	.LVL2:
  47              	.L3:
 442:Drivers/STM32F7xx_HAL_Driver/Src/stm32f7xx_hal_crc.c ****   {
 443:Drivers/STM32F7xx_HAL_Driver/Src/stm32f7xx_hal_crc.c ****     hcrc->Instance->DR = ((uint32_t)pBuffer[4U * i] << 24U) | \
  48              		.loc 1 443 5 is_stmt 1 view .LVU8
  49              		.loc 1 443 44 is_stmt 0 view .LVU9
  50 0008 11F82C40 		ldrb	r4, [r1, ip, lsl #2]	@ zero_extendqisi2
 444:Drivers/STM32F7xx_HAL_Driver/Src/stm32f7xx_hal_crc.c ****                          ((uint32_t)pBuffer[(4U * i) + 1U] << 16U) | \
  51              		.loc 1 444 44 view .LVU10
  52 000c 01EB8C0E 		add	lr, r1, ip, lsl #2
  53 0010 9EF80130 		ldrb	r3, [lr, #1]	@ zero_extendqisi2
  54              		.loc 1 444 60 view .LVU11
  55 0014 1B04     		lsls	r3, r3, #16
 443:Drivers/STM32F7xx_HAL_Driver/Src/stm32f7xx_hal_crc.c ****                          ((uint32_t)pBuffer[(4U * i) + 1U] << 16U) | \
  56              		.loc 1 443 61 view .LVU12
  57 0016 43EA0463 		orr	r3, r3, r4, lsl #24
 445:Drivers/STM32F7xx_HAL_Driver/Src/stm32f7xx_hal_crc.c ****                          ((uint32_t)pBuffer[(4U * i) + 2U] << 8U)  | \
  58              		.loc 1 445 44 view .LVU13
  59 001a 9EF80240 		ldrb	r4, [lr, #2]	@ zero_extendqisi2
 444:Drivers/STM32F7xx_HAL_Driver/Src/stm32f7xx_hal_crc.c ****                          ((uint32_t)pBuffer[(4U * i) + 1U] << 16U) | \
  60              		.loc 1 444 68 view .LVU14
  61 001e 43EA0423 		orr	r3, r3, r4, lsl #8
 446:Drivers/STM32F7xx_HAL_Driver/Src/stm32f7xx_hal_crc.c ****                          (uint32_t)pBuffer[(4U * i) + 3U];
  62              		.loc 1 446 43 view .LVU15
  63 0022 9EF803E0 		ldrb	lr, [lr, #3]	@ zero_extendqisi2
 445:Drivers/STM32F7xx_HAL_Driver/Src/stm32f7xx_hal_crc.c ****                          ((uint32_t)pBuffer[(4U * i) + 2U] << 8U)  | \
  64              		.loc 1 445 68 view .LVU16
  65 0026 43EA0E03 		orr	r3, r3, lr
ARM GAS  /var/folders/n6/c271nzx11xl4r4_m7sqjlt0m0000gn/T//ccZGdjcQ.s 			page 10


 443:Drivers/STM32F7xx_HAL_Driver/Src/stm32f7xx_hal_crc.c ****                          ((uint32_t)pBuffer[(4U * i) + 1U] << 16U) | \
  66              		.loc 1 443 24 view .LVU17
  67 002a 0468     		ldr	r4, [r0]
  68 002c 2360     		str	r3, [r4]
 441:Drivers/STM32F7xx_HAL_Driver/Src/stm32f7xx_hal_crc.c ****   {
  69              		.loc 1 441 42 is_stmt 1 discriminator 3 view .LVU18
  70 002e 0CF1010C 		add	ip, ip, #1
  71              	.LVL3:
  72              	.L2:
 441:Drivers/STM32F7xx_HAL_Driver/Src/stm32f7xx_hal_crc.c ****   {
  73              		.loc 1 441 18 discriminator 1 view .LVU19
  74 0032 BCEB920F 		cmp	ip, r2, lsr #2
  75 0036 E7D3     		bcc	.L3
 447:Drivers/STM32F7xx_HAL_Driver/Src/stm32f7xx_hal_crc.c ****   }
 448:Drivers/STM32F7xx_HAL_Driver/Src/stm32f7xx_hal_crc.c ****   /* last bytes specific handling */
 449:Drivers/STM32F7xx_HAL_Driver/Src/stm32f7xx_hal_crc.c ****   if ((BufferLength % 4U) != 0U)
  76              		.loc 1 449 3 view .LVU20
  77              		.loc 1 449 6 is_stmt 0 view .LVU21
  78 0038 12F00302 		ands	r2, r2, #3
  79              	.LVL4:
  80              		.loc 1 449 6 view .LVU22
  81 003c 05D0     		beq	.L4
 450:Drivers/STM32F7xx_HAL_Driver/Src/stm32f7xx_hal_crc.c ****   {
 451:Drivers/STM32F7xx_HAL_Driver/Src/stm32f7xx_hal_crc.c ****     if ((BufferLength % 4U) == 1U)
  82              		.loc 1 451 5 is_stmt 1 view .LVU23
  83              		.loc 1 451 8 is_stmt 0 view .LVU24
  84 003e 012A     		cmp	r2, #1
  85 0040 06D0     		beq	.L8
  86              	.L5:
 452:Drivers/STM32F7xx_HAL_Driver/Src/stm32f7xx_hal_crc.c ****     {
 453:Drivers/STM32F7xx_HAL_Driver/Src/stm32f7xx_hal_crc.c ****       *(__IO uint8_t *)(__IO void *)(&hcrc->Instance->DR) = pBuffer[4U * i];         /* Derogation 
 454:Drivers/STM32F7xx_HAL_Driver/Src/stm32f7xx_hal_crc.c ****     }
 455:Drivers/STM32F7xx_HAL_Driver/Src/stm32f7xx_hal_crc.c ****     if ((BufferLength % 4U) == 2U)
  87              		.loc 1 455 5 is_stmt 1 view .LVU25
  88              		.loc 1 455 8 is_stmt 0 view .LVU26
  89 0042 022A     		cmp	r2, #2
  90 0044 09D0     		beq	.L9
  91              	.L6:
 456:Drivers/STM32F7xx_HAL_Driver/Src/stm32f7xx_hal_crc.c ****     {
 457:Drivers/STM32F7xx_HAL_Driver/Src/stm32f7xx_hal_crc.c ****       data = ((uint16_t)(pBuffer[4U * i]) << 8U) | (uint16_t)pBuffer[(4U * i) + 1U];
 458:Drivers/STM32F7xx_HAL_Driver/Src/stm32f7xx_hal_crc.c ****       pReg = (__IO uint16_t *)(__IO void *)(&hcrc->Instance->DR);                    /* Derogation 
 459:Drivers/STM32F7xx_HAL_Driver/Src/stm32f7xx_hal_crc.c ****       *pReg = data;
 460:Drivers/STM32F7xx_HAL_Driver/Src/stm32f7xx_hal_crc.c ****     }
 461:Drivers/STM32F7xx_HAL_Driver/Src/stm32f7xx_hal_crc.c ****     if ((BufferLength % 4U) == 3U)
  92              		.loc 1 461 5 is_stmt 1 view .LVU27
  93              		.loc 1 461 8 is_stmt 0 view .LVU28
  94 0046 032A     		cmp	r2, #3
  95 0048 11D0     		beq	.L10
  96              	.LVL5:
  97              	.L4:
 462:Drivers/STM32F7xx_HAL_Driver/Src/stm32f7xx_hal_crc.c ****     {
 463:Drivers/STM32F7xx_HAL_Driver/Src/stm32f7xx_hal_crc.c ****       data = ((uint16_t)(pBuffer[4U * i]) << 8U) | (uint16_t)pBuffer[(4U * i) + 1U];
 464:Drivers/STM32F7xx_HAL_Driver/Src/stm32f7xx_hal_crc.c ****       pReg = (__IO uint16_t *)(__IO void *)(&hcrc->Instance->DR);                    /* Derogation 
 465:Drivers/STM32F7xx_HAL_Driver/Src/stm32f7xx_hal_crc.c ****       *pReg = data;
 466:Drivers/STM32F7xx_HAL_Driver/Src/stm32f7xx_hal_crc.c **** 
 467:Drivers/STM32F7xx_HAL_Driver/Src/stm32f7xx_hal_crc.c ****       *(__IO uint8_t *)(__IO void *)(&hcrc->Instance->DR) = pBuffer[(4U * i) + 2U];  /* Derogation 
 468:Drivers/STM32F7xx_HAL_Driver/Src/stm32f7xx_hal_crc.c ****     }
ARM GAS  /var/folders/n6/c271nzx11xl4r4_m7sqjlt0m0000gn/T//ccZGdjcQ.s 			page 11


 469:Drivers/STM32F7xx_HAL_Driver/Src/stm32f7xx_hal_crc.c ****   }
 470:Drivers/STM32F7xx_HAL_Driver/Src/stm32f7xx_hal_crc.c **** 
 471:Drivers/STM32F7xx_HAL_Driver/Src/stm32f7xx_hal_crc.c ****   /* Return the CRC computed value */
 472:Drivers/STM32F7xx_HAL_Driver/Src/stm32f7xx_hal_crc.c ****   return hcrc->Instance->DR;
  98              		.loc 1 472 3 is_stmt 1 view .LVU29
  99              		.loc 1 472 14 is_stmt 0 view .LVU30
 100 004a 0368     		ldr	r3, [r0]
 101              		.loc 1 472 24 view .LVU31
 102 004c 1868     		ldr	r0, [r3]
 103              	.LVL6:
 473:Drivers/STM32F7xx_HAL_Driver/Src/stm32f7xx_hal_crc.c **** }
 104              		.loc 1 473 1 view .LVU32
 105 004e 10BD     		pop	{r4, pc}
 106              	.LVL7:
 107              	.L8:
 453:Drivers/STM32F7xx_HAL_Driver/Src/stm32f7xx_hal_crc.c ****     }
 108              		.loc 1 453 7 is_stmt 1 view .LVU33
 453:Drivers/STM32F7xx_HAL_Driver/Src/stm32f7xx_hal_crc.c ****     }
 109              		.loc 1 453 43 is_stmt 0 view .LVU34
 110 0050 0368     		ldr	r3, [r0]
 453:Drivers/STM32F7xx_HAL_Driver/Src/stm32f7xx_hal_crc.c ****     }
 111              		.loc 1 453 68 view .LVU35
 112 0052 11F82C40 		ldrb	r4, [r1, ip, lsl #2]	@ zero_extendqisi2
 453:Drivers/STM32F7xx_HAL_Driver/Src/stm32f7xx_hal_crc.c ****     }
 113              		.loc 1 453 59 view .LVU36
 114 0056 1C70     		strb	r4, [r3]
 115 0058 F3E7     		b	.L5
 116              	.L9:
 457:Drivers/STM32F7xx_HAL_Driver/Src/stm32f7xx_hal_crc.c ****       pReg = (__IO uint16_t *)(__IO void *)(&hcrc->Instance->DR);                    /* Derogation 
 117              		.loc 1 457 7 is_stmt 1 view .LVU37
 457:Drivers/STM32F7xx_HAL_Driver/Src/stm32f7xx_hal_crc.c ****       pReg = (__IO uint16_t *)(__IO void *)(&hcrc->Instance->DR);                    /* Derogation 
 118              		.loc 1 457 33 is_stmt 0 view .LVU38
 119 005a 11F82C40 		ldrb	r4, [r1, ip, lsl #2]	@ zero_extendqisi2
 457:Drivers/STM32F7xx_HAL_Driver/Src/stm32f7xx_hal_crc.c ****       pReg = (__IO uint16_t *)(__IO void *)(&hcrc->Instance->DR);                    /* Derogation 
 120              		.loc 1 457 69 view .LVU39
 121 005e 01EB8C03 		add	r3, r1, ip, lsl #2
 122 0062 5B78     		ldrb	r3, [r3, #1]	@ zero_extendqisi2
 457:Drivers/STM32F7xx_HAL_Driver/Src/stm32f7xx_hal_crc.c ****       pReg = (__IO uint16_t *)(__IO void *)(&hcrc->Instance->DR);                    /* Derogation 
 123              		.loc 1 457 12 view .LVU40
 124 0064 43EA0423 		orr	r3, r3, r4, lsl #8
 125              	.LVL8:
 458:Drivers/STM32F7xx_HAL_Driver/Src/stm32f7xx_hal_crc.c ****       *pReg = data;
 126              		.loc 1 458 7 is_stmt 1 view .LVU41
 458:Drivers/STM32F7xx_HAL_Driver/Src/stm32f7xx_hal_crc.c ****       *pReg = data;
 127              		.loc 1 458 50 is_stmt 0 view .LVU42
 128 0068 0468     		ldr	r4, [r0]
 129              	.LVL9:
 459:Drivers/STM32F7xx_HAL_Driver/Src/stm32f7xx_hal_crc.c ****     }
 130              		.loc 1 459 7 is_stmt 1 view .LVU43
 459:Drivers/STM32F7xx_HAL_Driver/Src/stm32f7xx_hal_crc.c ****     }
 131              		.loc 1 459 13 is_stmt 0 view .LVU44
 132 006a 2380     		strh	r3, [r4]	@ movhi
 133 006c EBE7     		b	.L6
 134              	.LVL10:
 135              	.L10:
 463:Drivers/STM32F7xx_HAL_Driver/Src/stm32f7xx_hal_crc.c ****       pReg = (__IO uint16_t *)(__IO void *)(&hcrc->Instance->DR);                    /* Derogation 
 136              		.loc 1 463 7 is_stmt 1 view .LVU45
ARM GAS  /var/folders/n6/c271nzx11xl4r4_m7sqjlt0m0000gn/T//ccZGdjcQ.s 			page 12


 463:Drivers/STM32F7xx_HAL_Driver/Src/stm32f7xx_hal_crc.c ****       pReg = (__IO uint16_t *)(__IO void *)(&hcrc->Instance->DR);                    /* Derogation 
 137              		.loc 1 463 33 is_stmt 0 view .LVU46
 138 006e 11F82C20 		ldrb	r2, [r1, ip, lsl #2]	@ zero_extendqisi2
 463:Drivers/STM32F7xx_HAL_Driver/Src/stm32f7xx_hal_crc.c ****       pReg = (__IO uint16_t *)(__IO void *)(&hcrc->Instance->DR);                    /* Derogation 
 139              		.loc 1 463 69 view .LVU47
 140 0072 01EB8C01 		add	r1, r1, ip, lsl #2
 141              	.LVL11:
 463:Drivers/STM32F7xx_HAL_Driver/Src/stm32f7xx_hal_crc.c ****       pReg = (__IO uint16_t *)(__IO void *)(&hcrc->Instance->DR);                    /* Derogation 
 142              		.loc 1 463 69 view .LVU48
 143 0076 4B78     		ldrb	r3, [r1, #1]	@ zero_extendqisi2
 463:Drivers/STM32F7xx_HAL_Driver/Src/stm32f7xx_hal_crc.c ****       pReg = (__IO uint16_t *)(__IO void *)(&hcrc->Instance->DR);                    /* Derogation 
 144              		.loc 1 463 12 view .LVU49
 145 0078 43EA0223 		orr	r3, r3, r2, lsl #8
 146              	.LVL12:
 464:Drivers/STM32F7xx_HAL_Driver/Src/stm32f7xx_hal_crc.c ****       *pReg = data;
 147              		.loc 1 464 7 is_stmt 1 view .LVU50
 464:Drivers/STM32F7xx_HAL_Driver/Src/stm32f7xx_hal_crc.c ****       *pReg = data;
 148              		.loc 1 464 50 is_stmt 0 view .LVU51
 149 007c 0268     		ldr	r2, [r0]
 150              	.LVL13:
 465:Drivers/STM32F7xx_HAL_Driver/Src/stm32f7xx_hal_crc.c **** 
 151              		.loc 1 465 7 is_stmt 1 view .LVU52
 465:Drivers/STM32F7xx_HAL_Driver/Src/stm32f7xx_hal_crc.c **** 
 152              		.loc 1 465 13 is_stmt 0 view .LVU53
 153 007e 1380     		strh	r3, [r2]	@ movhi
 467:Drivers/STM32F7xx_HAL_Driver/Src/stm32f7xx_hal_crc.c ****     }
 154              		.loc 1 467 7 is_stmt 1 view .LVU54
 467:Drivers/STM32F7xx_HAL_Driver/Src/stm32f7xx_hal_crc.c ****     }
 155              		.loc 1 467 43 is_stmt 0 view .LVU55
 156 0080 0368     		ldr	r3, [r0]
 157              	.LVL14:
 467:Drivers/STM32F7xx_HAL_Driver/Src/stm32f7xx_hal_crc.c ****     }
 158              		.loc 1 467 68 view .LVU56
 159 0082 8A78     		ldrb	r2, [r1, #2]	@ zero_extendqisi2
 160              	.LVL15:
 467:Drivers/STM32F7xx_HAL_Driver/Src/stm32f7xx_hal_crc.c ****     }
 161              		.loc 1 467 59 view .LVU57
 162 0084 1A70     		strb	r2, [r3]
 467:Drivers/STM32F7xx_HAL_Driver/Src/stm32f7xx_hal_crc.c ****     }
 163              		.loc 1 467 59 view .LVU58
 164 0086 E0E7     		b	.L4
 165              		.cfi_endproc
 166              	.LFE148:
 168              		.section	.text.CRC_Handle_16,"ax",%progbits
 169              		.align	1
 170              		.syntax unified
 171              		.thumb
 172              		.thumb_func
 174              	CRC_Handle_16:
 175              	.LVL16:
 176              	.LFB149:
 474:Drivers/STM32F7xx_HAL_Driver/Src/stm32f7xx_hal_crc.c **** 
 475:Drivers/STM32F7xx_HAL_Driver/Src/stm32f7xx_hal_crc.c **** /**
 476:Drivers/STM32F7xx_HAL_Driver/Src/stm32f7xx_hal_crc.c ****   * @brief  Enter 16-bit input data to the CRC calculator.
 477:Drivers/STM32F7xx_HAL_Driver/Src/stm32f7xx_hal_crc.c ****   *         Specific data handling to optimize processing time.
 478:Drivers/STM32F7xx_HAL_Driver/Src/stm32f7xx_hal_crc.c ****   * @param  hcrc CRC handle
 479:Drivers/STM32F7xx_HAL_Driver/Src/stm32f7xx_hal_crc.c ****   * @param  pBuffer pointer to the input data buffer
ARM GAS  /var/folders/n6/c271nzx11xl4r4_m7sqjlt0m0000gn/T//ccZGdjcQ.s 			page 13


 480:Drivers/STM32F7xx_HAL_Driver/Src/stm32f7xx_hal_crc.c ****   * @param  BufferLength input data buffer length
 481:Drivers/STM32F7xx_HAL_Driver/Src/stm32f7xx_hal_crc.c ****   * @retval uint32_t CRC (returned value LSBs for CRC shorter than 32 bits)
 482:Drivers/STM32F7xx_HAL_Driver/Src/stm32f7xx_hal_crc.c ****   */
 483:Drivers/STM32F7xx_HAL_Driver/Src/stm32f7xx_hal_crc.c **** static uint32_t CRC_Handle_16(CRC_HandleTypeDef *hcrc, uint16_t pBuffer[], uint32_t BufferLength)
 484:Drivers/STM32F7xx_HAL_Driver/Src/stm32f7xx_hal_crc.c **** {
 177              		.loc 1 484 1 is_stmt 1 view -0
 178              		.cfi_startproc
 179              		@ args = 0, pretend = 0, frame = 0
 180              		@ frame_needed = 0, uses_anonymous_args = 0
 181              		@ link register save eliminated.
 485:Drivers/STM32F7xx_HAL_Driver/Src/stm32f7xx_hal_crc.c ****   uint32_t i;  /* input data buffer index */
 182              		.loc 1 485 3 view .LVU60
 486:Drivers/STM32F7xx_HAL_Driver/Src/stm32f7xx_hal_crc.c ****   __IO uint16_t *pReg;
 183              		.loc 1 486 3 view .LVU61
 487:Drivers/STM32F7xx_HAL_Driver/Src/stm32f7xx_hal_crc.c **** 
 488:Drivers/STM32F7xx_HAL_Driver/Src/stm32f7xx_hal_crc.c ****   /* Processing time optimization: 2 HalfWords are entered in a row with a single word write,
 489:Drivers/STM32F7xx_HAL_Driver/Src/stm32f7xx_hal_crc.c ****    * in case of odd length, last HalfWord must be carefully fed to the CRC calculator to ensure
 490:Drivers/STM32F7xx_HAL_Driver/Src/stm32f7xx_hal_crc.c ****    * a correct type handling by the peripheral */
 491:Drivers/STM32F7xx_HAL_Driver/Src/stm32f7xx_hal_crc.c ****   for (i = 0U; i < (BufferLength / 2U); i++)
 184              		.loc 1 491 3 view .LVU62
 185              		.loc 1 491 10 is_stmt 0 view .LVU63
 186 0000 0023     		movs	r3, #0
 187              	.LVL17:
 188              		.loc 1 491 18 is_stmt 1 discriminator 1 view .LVU64
 189 0002 B3EB520F 		cmp	r3, r2, lsr #1
 190 0006 18D2     		bcs	.L21
 484:Drivers/STM32F7xx_HAL_Driver/Src/stm32f7xx_hal_crc.c ****   uint32_t i;  /* input data buffer index */
 191              		.loc 1 484 1 is_stmt 0 view .LVU65
 192 0008 30B4     		push	{r4, r5}
 193              		.cfi_def_cfa_offset 8
 194              		.cfi_offset 4, -8
 195              		.cfi_offset 5, -4
 196              	.L13:
 492:Drivers/STM32F7xx_HAL_Driver/Src/stm32f7xx_hal_crc.c ****   {
 493:Drivers/STM32F7xx_HAL_Driver/Src/stm32f7xx_hal_crc.c ****     hcrc->Instance->DR = ((uint32_t)pBuffer[2U * i] << 16U) | (uint32_t)pBuffer[(2U * i) + 1U];
 197              		.loc 1 493 5 is_stmt 1 view .LVU66
 198              		.loc 1 493 44 is_stmt 0 view .LVU67
 199 000a 31F823C0 		ldrh	ip, [r1, r3, lsl #2]
 200              		.loc 1 493 80 view .LVU68
 201 000e 01EB8304 		add	r4, r1, r3, lsl #2
 202 0012 6488     		ldrh	r4, [r4, #2]
 203              		.loc 1 493 61 view .LVU69
 204 0014 44EA0C44 		orr	r4, r4, ip, lsl #16
 205              		.loc 1 493 24 view .LVU70
 206 0018 0568     		ldr	r5, [r0]
 207 001a 2C60     		str	r4, [r5]
 491:Drivers/STM32F7xx_HAL_Driver/Src/stm32f7xx_hal_crc.c ****   {
 208              		.loc 1 491 42 is_stmt 1 discriminator 3 view .LVU71
 209 001c 0133     		adds	r3, r3, #1
 210              	.LVL18:
 491:Drivers/STM32F7xx_HAL_Driver/Src/stm32f7xx_hal_crc.c ****   {
 211              		.loc 1 491 18 discriminator 1 view .LVU72
 212 001e B3EB520F 		cmp	r3, r2, lsr #1
 213 0022 F2D3     		bcc	.L13
 494:Drivers/STM32F7xx_HAL_Driver/Src/stm32f7xx_hal_crc.c ****   }
 495:Drivers/STM32F7xx_HAL_Driver/Src/stm32f7xx_hal_crc.c ****   if ((BufferLength % 2U) != 0U)
 214              		.loc 1 495 3 view .LVU73
ARM GAS  /var/folders/n6/c271nzx11xl4r4_m7sqjlt0m0000gn/T//ccZGdjcQ.s 			page 14


 215              		.loc 1 495 6 is_stmt 0 view .LVU74
 216 0024 12F0010F 		tst	r2, #1
 217 0028 03D0     		beq	.L14
 496:Drivers/STM32F7xx_HAL_Driver/Src/stm32f7xx_hal_crc.c ****   {
 497:Drivers/STM32F7xx_HAL_Driver/Src/stm32f7xx_hal_crc.c ****     pReg = (__IO uint16_t *)(__IO void *)(&hcrc->Instance->DR);                 /* Derogation Misra
 218              		.loc 1 497 5 is_stmt 1 view .LVU75
 219              		.loc 1 497 48 is_stmt 0 view .LVU76
 220 002a 0268     		ldr	r2, [r0]
 221              	.LVL19:
 498:Drivers/STM32F7xx_HAL_Driver/Src/stm32f7xx_hal_crc.c ****     *pReg = pBuffer[2U * i];
 222              		.loc 1 498 5 is_stmt 1 view .LVU77
 223              		.loc 1 498 20 is_stmt 0 view .LVU78
 224 002c 31F82330 		ldrh	r3, [r1, r3, lsl #2]
 225              	.LVL20:
 226              		.loc 1 498 11 view .LVU79
 227 0030 1380     		strh	r3, [r2]	@ movhi
 228              	.LVL21:
 229              	.L14:
 499:Drivers/STM32F7xx_HAL_Driver/Src/stm32f7xx_hal_crc.c ****   }
 500:Drivers/STM32F7xx_HAL_Driver/Src/stm32f7xx_hal_crc.c **** 
 501:Drivers/STM32F7xx_HAL_Driver/Src/stm32f7xx_hal_crc.c ****   /* Return the CRC computed value */
 502:Drivers/STM32F7xx_HAL_Driver/Src/stm32f7xx_hal_crc.c ****   return hcrc->Instance->DR;
 230              		.loc 1 502 3 is_stmt 1 view .LVU80
 231              		.loc 1 502 14 is_stmt 0 view .LVU81
 232 0032 0368     		ldr	r3, [r0]
 233              		.loc 1 502 24 view .LVU82
 234 0034 1868     		ldr	r0, [r3]
 235              	.LVL22:
 503:Drivers/STM32F7xx_HAL_Driver/Src/stm32f7xx_hal_crc.c **** }
 236              		.loc 1 503 1 view .LVU83
 237 0036 30BC     		pop	{r4, r5}
 238              		.cfi_restore 5
 239              		.cfi_restore 4
 240              		.cfi_def_cfa_offset 0
 241 0038 7047     		bx	lr
 242              	.LVL23:
 243              	.L21:
 495:Drivers/STM32F7xx_HAL_Driver/Src/stm32f7xx_hal_crc.c ****   {
 244              		.loc 1 495 3 is_stmt 1 view .LVU84
 495:Drivers/STM32F7xx_HAL_Driver/Src/stm32f7xx_hal_crc.c ****   {
 245              		.loc 1 495 6 is_stmt 0 view .LVU85
 246 003a 12F0010F 		tst	r2, #1
 247 003e 03D0     		beq	.L19
 497:Drivers/STM32F7xx_HAL_Driver/Src/stm32f7xx_hal_crc.c ****     *pReg = pBuffer[2U * i];
 248              		.loc 1 497 5 is_stmt 1 view .LVU86
 497:Drivers/STM32F7xx_HAL_Driver/Src/stm32f7xx_hal_crc.c ****     *pReg = pBuffer[2U * i];
 249              		.loc 1 497 48 is_stmt 0 view .LVU87
 250 0040 0268     		ldr	r2, [r0]
 251              	.LVL24:
 498:Drivers/STM32F7xx_HAL_Driver/Src/stm32f7xx_hal_crc.c ****   }
 252              		.loc 1 498 5 is_stmt 1 view .LVU88
 498:Drivers/STM32F7xx_HAL_Driver/Src/stm32f7xx_hal_crc.c ****   }
 253              		.loc 1 498 20 is_stmt 0 view .LVU89
 254 0042 31F82330 		ldrh	r3, [r1, r3, lsl #2]
 255              	.LVL25:
 498:Drivers/STM32F7xx_HAL_Driver/Src/stm32f7xx_hal_crc.c ****   }
 256              		.loc 1 498 11 view .LVU90
ARM GAS  /var/folders/n6/c271nzx11xl4r4_m7sqjlt0m0000gn/T//ccZGdjcQ.s 			page 15


 257 0046 1380     		strh	r3, [r2]	@ movhi
 258              	.LVL26:
 259              	.L19:
 502:Drivers/STM32F7xx_HAL_Driver/Src/stm32f7xx_hal_crc.c **** }
 260              		.loc 1 502 3 is_stmt 1 view .LVU91
 502:Drivers/STM32F7xx_HAL_Driver/Src/stm32f7xx_hal_crc.c **** }
 261              		.loc 1 502 14 is_stmt 0 view .LVU92
 262 0048 0368     		ldr	r3, [r0]
 502:Drivers/STM32F7xx_HAL_Driver/Src/stm32f7xx_hal_crc.c **** }
 263              		.loc 1 502 24 view .LVU93
 264 004a 1868     		ldr	r0, [r3]
 265              	.LVL27:
 266              		.loc 1 503 1 view .LVU94
 267 004c 7047     		bx	lr
 268              		.cfi_endproc
 269              	.LFE149:
 271              		.section	.text.HAL_CRC_MspInit,"ax",%progbits
 272              		.align	1
 273              		.weak	HAL_CRC_MspInit
 274              		.syntax unified
 275              		.thumb
 276              		.thumb_func
 278              	HAL_CRC_MspInit:
 279              	.LVL28:
 280              	.LFB143:
 224:Drivers/STM32F7xx_HAL_Driver/Src/stm32f7xx_hal_crc.c ****   /* Prevent unused argument(s) compilation warning */
 281              		.loc 1 224 1 is_stmt 1 view -0
 282              		.cfi_startproc
 283              		@ args = 0, pretend = 0, frame = 0
 284              		@ frame_needed = 0, uses_anonymous_args = 0
 285              		@ link register save eliminated.
 226:Drivers/STM32F7xx_HAL_Driver/Src/stm32f7xx_hal_crc.c **** 
 286              		.loc 1 226 3 view .LVU96
 231:Drivers/STM32F7xx_HAL_Driver/Src/stm32f7xx_hal_crc.c **** 
 287              		.loc 1 231 1 is_stmt 0 view .LVU97
 288 0000 7047     		bx	lr
 289              		.cfi_endproc
 290              	.LFE143:
 292              		.section	.text.HAL_CRC_Init,"ax",%progbits
 293              		.align	1
 294              		.global	HAL_CRC_Init
 295              		.syntax unified
 296              		.thumb
 297              		.thumb_func
 299              	HAL_CRC_Init:
 300              	.LVL29:
 301              	.LFB141:
 104:Drivers/STM32F7xx_HAL_Driver/Src/stm32f7xx_hal_crc.c ****   /* Check the CRC handle allocation */
 302              		.loc 1 104 1 is_stmt 1 view -0
 303              		.cfi_startproc
 304              		@ args = 0, pretend = 0, frame = 0
 305              		@ frame_needed = 0, uses_anonymous_args = 0
 106:Drivers/STM32F7xx_HAL_Driver/Src/stm32f7xx_hal_crc.c ****   {
 306              		.loc 1 106 3 view .LVU99
 106:Drivers/STM32F7xx_HAL_Driver/Src/stm32f7xx_hal_crc.c ****   {
 307              		.loc 1 106 6 is_stmt 0 view .LVU100
 308 0000 0028     		cmp	r0, #0
ARM GAS  /var/folders/n6/c271nzx11xl4r4_m7sqjlt0m0000gn/T//ccZGdjcQ.s 			page 16


 309 0002 38D0     		beq	.L30
 104:Drivers/STM32F7xx_HAL_Driver/Src/stm32f7xx_hal_crc.c ****   /* Check the CRC handle allocation */
 310              		.loc 1 104 1 view .LVU101
 311 0004 10B5     		push	{r4, lr}
 312              		.cfi_def_cfa_offset 8
 313              		.cfi_offset 4, -8
 314              		.cfi_offset 14, -4
 315 0006 0446     		mov	r4, r0
 112:Drivers/STM32F7xx_HAL_Driver/Src/stm32f7xx_hal_crc.c **** 
 316              		.loc 1 112 3 is_stmt 1 view .LVU102
 114:Drivers/STM32F7xx_HAL_Driver/Src/stm32f7xx_hal_crc.c ****   {
 317              		.loc 1 114 3 view .LVU103
 114:Drivers/STM32F7xx_HAL_Driver/Src/stm32f7xx_hal_crc.c ****   {
 318              		.loc 1 114 11 is_stmt 0 view .LVU104
 319 0008 437F     		ldrb	r3, [r0, #29]	@ zero_extendqisi2
 114:Drivers/STM32F7xx_HAL_Driver/Src/stm32f7xx_hal_crc.c ****   {
 320              		.loc 1 114 6 view .LVU105
 321 000a 1BB3     		cbz	r3, .L36
 322              	.LVL30:
 323              	.L25:
 122:Drivers/STM32F7xx_HAL_Driver/Src/stm32f7xx_hal_crc.c **** 
 324              		.loc 1 122 3 is_stmt 1 view .LVU106
 122:Drivers/STM32F7xx_HAL_Driver/Src/stm32f7xx_hal_crc.c **** 
 325              		.loc 1 122 15 is_stmt 0 view .LVU107
 326 000c 0223     		movs	r3, #2
 327 000e 6377     		strb	r3, [r4, #29]
 126:Drivers/STM32F7xx_HAL_Driver/Src/stm32f7xx_hal_crc.c ****   if (hcrc->Init.DefaultPolynomialUse == DEFAULT_POLYNOMIAL_ENABLE)
 328              		.loc 1 126 3 is_stmt 1 view .LVU108
 127:Drivers/STM32F7xx_HAL_Driver/Src/stm32f7xx_hal_crc.c ****   {
 329              		.loc 1 127 3 view .LVU109
 127:Drivers/STM32F7xx_HAL_Driver/Src/stm32f7xx_hal_crc.c ****   {
 330              		.loc 1 127 17 is_stmt 0 view .LVU110
 331 0010 2379     		ldrb	r3, [r4, #4]	@ zero_extendqisi2
 127:Drivers/STM32F7xx_HAL_Driver/Src/stm32f7xx_hal_crc.c ****   {
 332              		.loc 1 127 6 view .LVU111
 333 0012 1BBB     		cbnz	r3, .L26
 130:Drivers/STM32F7xx_HAL_Driver/Src/stm32f7xx_hal_crc.c ****     MODIFY_REG(hcrc->Instance->CR, CRC_CR_POLYSIZE, CRC_POLYLENGTH_32B);
 334              		.loc 1 130 5 is_stmt 1 view .LVU112
 335 0014 2368     		ldr	r3, [r4]
 336 0016 194A     		ldr	r2, .L37
 337 0018 5A61     		str	r2, [r3, #20]
 131:Drivers/STM32F7xx_HAL_Driver/Src/stm32f7xx_hal_crc.c ****   }
 338              		.loc 1 131 5 view .LVU113
 339 001a 2268     		ldr	r2, [r4]
 340 001c 9368     		ldr	r3, [r2, #8]
 341 001e 23F01803 		bic	r3, r3, #24
 342 0022 9360     		str	r3, [r2, #8]
 343              	.L27:
 144:Drivers/STM32F7xx_HAL_Driver/Src/stm32f7xx_hal_crc.c ****   if (hcrc->Init.DefaultInitValueUse == DEFAULT_INIT_VALUE_ENABLE)
 344              		.loc 1 144 3 view .LVU114
 145:Drivers/STM32F7xx_HAL_Driver/Src/stm32f7xx_hal_crc.c ****   {
 345              		.loc 1 145 3 view .LVU115
 145:Drivers/STM32F7xx_HAL_Driver/Src/stm32f7xx_hal_crc.c ****   {
 346              		.loc 1 145 17 is_stmt 0 view .LVU116
 347 0024 6379     		ldrb	r3, [r4, #5]	@ zero_extendqisi2
 145:Drivers/STM32F7xx_HAL_Driver/Src/stm32f7xx_hal_crc.c ****   {
 348              		.loc 1 145 6 view .LVU117
ARM GAS  /var/folders/n6/c271nzx11xl4r4_m7sqjlt0m0000gn/T//ccZGdjcQ.s 			page 17


 349 0026 13BB     		cbnz	r3, .L28
 147:Drivers/STM32F7xx_HAL_Driver/Src/stm32f7xx_hal_crc.c ****   }
 350              		.loc 1 147 5 is_stmt 1 view .LVU118
 351 0028 2368     		ldr	r3, [r4]
 352 002a 4FF0FF32 		mov	r2, #-1
 353 002e 1A61     		str	r2, [r3, #16]
 354              	.L29:
 156:Drivers/STM32F7xx_HAL_Driver/Src/stm32f7xx_hal_crc.c ****   MODIFY_REG(hcrc->Instance->CR, CRC_CR_REV_IN, hcrc->Init.InputDataInversionMode);
 355              		.loc 1 156 3 view .LVU119
 157:Drivers/STM32F7xx_HAL_Driver/Src/stm32f7xx_hal_crc.c **** 
 356              		.loc 1 157 3 view .LVU120
 357 0030 2268     		ldr	r2, [r4]
 358 0032 9368     		ldr	r3, [r2, #8]
 359 0034 23F06003 		bic	r3, r3, #96
 360 0038 6169     		ldr	r1, [r4, #20]
 361 003a 0B43     		orrs	r3, r3, r1
 362 003c 9360     		str	r3, [r2, #8]
 160:Drivers/STM32F7xx_HAL_Driver/Src/stm32f7xx_hal_crc.c ****   MODIFY_REG(hcrc->Instance->CR, CRC_CR_REV_OUT, hcrc->Init.OutputDataInversionMode);
 363              		.loc 1 160 3 view .LVU121
 161:Drivers/STM32F7xx_HAL_Driver/Src/stm32f7xx_hal_crc.c **** 
 364              		.loc 1 161 3 view .LVU122
 365 003e 2268     		ldr	r2, [r4]
 366 0040 9368     		ldr	r3, [r2, #8]
 367 0042 23F08003 		bic	r3, r3, #128
 368 0046 A169     		ldr	r1, [r4, #24]
 369 0048 0B43     		orrs	r3, r3, r1
 370 004a 9360     		str	r3, [r2, #8]
 165:Drivers/STM32F7xx_HAL_Driver/Src/stm32f7xx_hal_crc.c **** 
 371              		.loc 1 165 3 view .LVU123
 168:Drivers/STM32F7xx_HAL_Driver/Src/stm32f7xx_hal_crc.c **** 
 372              		.loc 1 168 3 view .LVU124
 168:Drivers/STM32F7xx_HAL_Driver/Src/stm32f7xx_hal_crc.c **** 
 373              		.loc 1 168 15 is_stmt 0 view .LVU125
 374 004c 0123     		movs	r3, #1
 375 004e 6377     		strb	r3, [r4, #29]
 171:Drivers/STM32F7xx_HAL_Driver/Src/stm32f7xx_hal_crc.c **** }
 376              		.loc 1 171 3 is_stmt 1 view .LVU126
 171:Drivers/STM32F7xx_HAL_Driver/Src/stm32f7xx_hal_crc.c **** }
 377              		.loc 1 171 10 is_stmt 0 view .LVU127
 378 0050 0020     		movs	r0, #0
 379              	.L24:
 172:Drivers/STM32F7xx_HAL_Driver/Src/stm32f7xx_hal_crc.c **** 
 380              		.loc 1 172 1 view .LVU128
 381 0052 10BD     		pop	{r4, pc}
 382              	.LVL31:
 383              	.L36:
 117:Drivers/STM32F7xx_HAL_Driver/Src/stm32f7xx_hal_crc.c ****     /* Init the low level hardware */
 384              		.loc 1 117 5 is_stmt 1 view .LVU129
 117:Drivers/STM32F7xx_HAL_Driver/Src/stm32f7xx_hal_crc.c ****     /* Init the low level hardware */
 385              		.loc 1 117 16 is_stmt 0 view .LVU130
 386 0054 0377     		strb	r3, [r0, #28]
 119:Drivers/STM32F7xx_HAL_Driver/Src/stm32f7xx_hal_crc.c ****   }
 387              		.loc 1 119 5 is_stmt 1 view .LVU131
 388 0056 FFF7FEFF 		bl	HAL_CRC_MspInit
 389              	.LVL32:
 119:Drivers/STM32F7xx_HAL_Driver/Src/stm32f7xx_hal_crc.c ****   }
 390              		.loc 1 119 5 is_stmt 0 view .LVU132
ARM GAS  /var/folders/n6/c271nzx11xl4r4_m7sqjlt0m0000gn/T//ccZGdjcQ.s 			page 18


 391 005a D7E7     		b	.L25
 392              	.L26:
 136:Drivers/STM32F7xx_HAL_Driver/Src/stm32f7xx_hal_crc.c ****     {
 393              		.loc 1 136 5 is_stmt 1 view .LVU133
 136:Drivers/STM32F7xx_HAL_Driver/Src/stm32f7xx_hal_crc.c ****     {
 394              		.loc 1 136 9 is_stmt 0 view .LVU134
 395 005c E268     		ldr	r2, [r4, #12]
 396 005e A168     		ldr	r1, [r4, #8]
 397 0060 2046     		mov	r0, r4
 398 0062 FFF7FEFF 		bl	HAL_CRCEx_Polynomial_Set
 399              	.LVL33:
 136:Drivers/STM32F7xx_HAL_Driver/Src/stm32f7xx_hal_crc.c ****     {
 400              		.loc 1 136 8 discriminator 1 view .LVU135
 401 0066 0028     		cmp	r0, #0
 402 0068 DCD0     		beq	.L27
 138:Drivers/STM32F7xx_HAL_Driver/Src/stm32f7xx_hal_crc.c ****     }
 403              		.loc 1 138 14 view .LVU136
 404 006a 0120     		movs	r0, #1
 405 006c F1E7     		b	.L24
 406              	.L28:
 151:Drivers/STM32F7xx_HAL_Driver/Src/stm32f7xx_hal_crc.c ****   }
 407              		.loc 1 151 5 is_stmt 1 view .LVU137
 408 006e 2368     		ldr	r3, [r4]
 409 0070 2269     		ldr	r2, [r4, #16]
 410 0072 1A61     		str	r2, [r3, #16]
 411 0074 DCE7     		b	.L29
 412              	.LVL34:
 413              	.L30:
 414              		.cfi_def_cfa_offset 0
 415              		.cfi_restore 4
 416              		.cfi_restore 14
 108:Drivers/STM32F7xx_HAL_Driver/Src/stm32f7xx_hal_crc.c ****   }
 417              		.loc 1 108 12 is_stmt 0 view .LVU138
 418 0076 0120     		movs	r0, #1
 419              	.LVL35:
 172:Drivers/STM32F7xx_HAL_Driver/Src/stm32f7xx_hal_crc.c **** 
 420              		.loc 1 172 1 view .LVU139
 421 0078 7047     		bx	lr
 422              	.L38:
 423 007a 00BF     		.align	2
 424              	.L37:
 425 007c B71DC104 		.word	79764919
 426              		.cfi_endproc
 427              	.LFE141:
 429              		.section	.text.HAL_CRC_MspDeInit,"ax",%progbits
 430              		.align	1
 431              		.weak	HAL_CRC_MspDeInit
 432              		.syntax unified
 433              		.thumb
 434              		.thumb_func
 436              	HAL_CRC_MspDeInit:
 437              	.LVL36:
 438              	.LFB144:
 239:Drivers/STM32F7xx_HAL_Driver/Src/stm32f7xx_hal_crc.c ****   /* Prevent unused argument(s) compilation warning */
 439              		.loc 1 239 1 is_stmt 1 view -0
 440              		.cfi_startproc
 441              		@ args = 0, pretend = 0, frame = 0
ARM GAS  /var/folders/n6/c271nzx11xl4r4_m7sqjlt0m0000gn/T//ccZGdjcQ.s 			page 19


 442              		@ frame_needed = 0, uses_anonymous_args = 0
 443              		@ link register save eliminated.
 241:Drivers/STM32F7xx_HAL_Driver/Src/stm32f7xx_hal_crc.c **** 
 444              		.loc 1 241 3 view .LVU141
 246:Drivers/STM32F7xx_HAL_Driver/Src/stm32f7xx_hal_crc.c **** 
 445              		.loc 1 246 1 is_stmt 0 view .LVU142
 446 0000 7047     		bx	lr
 447              		.cfi_endproc
 448              	.LFE144:
 450              		.section	.text.HAL_CRC_DeInit,"ax",%progbits
 451              		.align	1
 452              		.global	HAL_CRC_DeInit
 453              		.syntax unified
 454              		.thumb
 455              		.thumb_func
 457              	HAL_CRC_DeInit:
 458              	.LVL37:
 459              	.LFB142:
 180:Drivers/STM32F7xx_HAL_Driver/Src/stm32f7xx_hal_crc.c ****   /* Check the CRC handle allocation */
 460              		.loc 1 180 1 is_stmt 1 view -0
 461              		.cfi_startproc
 462              		@ args = 0, pretend = 0, frame = 0
 463              		@ frame_needed = 0, uses_anonymous_args = 0
 182:Drivers/STM32F7xx_HAL_Driver/Src/stm32f7xx_hal_crc.c ****   {
 464              		.loc 1 182 3 view .LVU144
 182:Drivers/STM32F7xx_HAL_Driver/Src/stm32f7xx_hal_crc.c ****   {
 465              		.loc 1 182 6 is_stmt 0 view .LVU145
 466 0000 B0B1     		cbz	r0, .L42
 180:Drivers/STM32F7xx_HAL_Driver/Src/stm32f7xx_hal_crc.c ****   /* Check the CRC handle allocation */
 467              		.loc 1 180 1 view .LVU146
 468 0002 38B5     		push	{r3, r4, r5, lr}
 469              		.cfi_def_cfa_offset 16
 470              		.cfi_offset 3, -16
 471              		.cfi_offset 4, -12
 472              		.cfi_offset 5, -8
 473              		.cfi_offset 14, -4
 474 0004 0546     		mov	r5, r0
 188:Drivers/STM32F7xx_HAL_Driver/Src/stm32f7xx_hal_crc.c **** 
 475              		.loc 1 188 3 is_stmt 1 view .LVU147
 191:Drivers/STM32F7xx_HAL_Driver/Src/stm32f7xx_hal_crc.c ****   {
 476              		.loc 1 191 3 view .LVU148
 191:Drivers/STM32F7xx_HAL_Driver/Src/stm32f7xx_hal_crc.c ****   {
 477              		.loc 1 191 11 is_stmt 0 view .LVU149
 478 0006 407F     		ldrb	r0, [r0, #29]	@ zero_extendqisi2
 479              	.LVL38:
 191:Drivers/STM32F7xx_HAL_Driver/Src/stm32f7xx_hal_crc.c ****   {
 480              		.loc 1 191 11 view .LVU150
 481 0008 C0B2     		uxtb	r0, r0
 191:Drivers/STM32F7xx_HAL_Driver/Src/stm32f7xx_hal_crc.c ****   {
 482              		.loc 1 191 6 view .LVU151
 483 000a 0228     		cmp	r0, #2
 484 000c 0FD0     		beq	.L41
 197:Drivers/STM32F7xx_HAL_Driver/Src/stm32f7xx_hal_crc.c **** 
 485              		.loc 1 197 3 is_stmt 1 view .LVU152
 197:Drivers/STM32F7xx_HAL_Driver/Src/stm32f7xx_hal_crc.c **** 
 486              		.loc 1 197 15 is_stmt 0 view .LVU153
 487 000e 0223     		movs	r3, #2
ARM GAS  /var/folders/n6/c271nzx11xl4r4_m7sqjlt0m0000gn/T//ccZGdjcQ.s 			page 20


 488 0010 6B77     		strb	r3, [r5, #29]
 200:Drivers/STM32F7xx_HAL_Driver/Src/stm32f7xx_hal_crc.c **** 
 489              		.loc 1 200 3 is_stmt 1 view .LVU154
 490 0012 2A68     		ldr	r2, [r5]
 491 0014 9368     		ldr	r3, [r2, #8]
 492 0016 43F00103 		orr	r3, r3, #1
 493 001a 9360     		str	r3, [r2, #8]
 203:Drivers/STM32F7xx_HAL_Driver/Src/stm32f7xx_hal_crc.c **** 
 494              		.loc 1 203 3 view .LVU155
 495 001c 2B68     		ldr	r3, [r5]
 496 001e 0024     		movs	r4, #0
 497 0020 1C71     		strb	r4, [r3, #4]
 206:Drivers/STM32F7xx_HAL_Driver/Src/stm32f7xx_hal_crc.c **** 
 498              		.loc 1 206 3 view .LVU156
 499 0022 2846     		mov	r0, r5
 500 0024 FFF7FEFF 		bl	HAL_CRC_MspDeInit
 501              	.LVL39:
 209:Drivers/STM32F7xx_HAL_Driver/Src/stm32f7xx_hal_crc.c **** 
 502              		.loc 1 209 3 view .LVU157
 209:Drivers/STM32F7xx_HAL_Driver/Src/stm32f7xx_hal_crc.c **** 
 503              		.loc 1 209 15 is_stmt 0 view .LVU158
 504 0028 6C77     		strb	r4, [r5, #29]
 212:Drivers/STM32F7xx_HAL_Driver/Src/stm32f7xx_hal_crc.c **** 
 505              		.loc 1 212 3 is_stmt 1 view .LVU159
 212:Drivers/STM32F7xx_HAL_Driver/Src/stm32f7xx_hal_crc.c **** 
 506              		.loc 1 212 3 view .LVU160
 507 002a 2C77     		strb	r4, [r5, #28]
 212:Drivers/STM32F7xx_HAL_Driver/Src/stm32f7xx_hal_crc.c **** 
 508              		.loc 1 212 3 view .LVU161
 215:Drivers/STM32F7xx_HAL_Driver/Src/stm32f7xx_hal_crc.c **** }
 509              		.loc 1 215 3 view .LVU162
 215:Drivers/STM32F7xx_HAL_Driver/Src/stm32f7xx_hal_crc.c **** }
 510              		.loc 1 215 10 is_stmt 0 view .LVU163
 511 002c 2046     		mov	r0, r4
 512              	.L41:
 216:Drivers/STM32F7xx_HAL_Driver/Src/stm32f7xx_hal_crc.c **** 
 513              		.loc 1 216 1 view .LVU164
 514 002e 38BD     		pop	{r3, r4, r5, pc}
 515              	.LVL40:
 516              	.L42:
 517              		.cfi_def_cfa_offset 0
 518              		.cfi_restore 3
 519              		.cfi_restore 4
 520              		.cfi_restore 5
 521              		.cfi_restore 14
 184:Drivers/STM32F7xx_HAL_Driver/Src/stm32f7xx_hal_crc.c ****   }
 522              		.loc 1 184 12 view .LVU165
 523 0030 0120     		movs	r0, #1
 524              	.LVL41:
 216:Drivers/STM32F7xx_HAL_Driver/Src/stm32f7xx_hal_crc.c **** 
 525              		.loc 1 216 1 view .LVU166
 526 0032 7047     		bx	lr
 527              		.cfi_endproc
 528              	.LFE142:
 530              		.section	.text.HAL_CRC_Accumulate,"ax",%progbits
 531              		.align	1
 532              		.global	HAL_CRC_Accumulate
ARM GAS  /var/folders/n6/c271nzx11xl4r4_m7sqjlt0m0000gn/T//ccZGdjcQ.s 			page 21


 533              		.syntax unified
 534              		.thumb
 535              		.thumb_func
 537              	HAL_CRC_Accumulate:
 538              	.LVL42:
 539              	.LFB145:
 288:Drivers/STM32F7xx_HAL_Driver/Src/stm32f7xx_hal_crc.c ****   uint32_t index;      /* CRC input data buffer index */
 540              		.loc 1 288 1 is_stmt 1 view -0
 541              		.cfi_startproc
 542              		@ args = 0, pretend = 0, frame = 0
 543              		@ frame_needed = 0, uses_anonymous_args = 0
 288:Drivers/STM32F7xx_HAL_Driver/Src/stm32f7xx_hal_crc.c ****   uint32_t index;      /* CRC input data buffer index */
 544              		.loc 1 288 1 is_stmt 0 view .LVU168
 545 0000 38B5     		push	{r3, r4, r5, lr}
 546              		.cfi_def_cfa_offset 16
 547              		.cfi_offset 3, -16
 548              		.cfi_offset 4, -12
 549              		.cfi_offset 5, -8
 550              		.cfi_offset 14, -4
 551 0002 0446     		mov	r4, r0
 289:Drivers/STM32F7xx_HAL_Driver/Src/stm32f7xx_hal_crc.c ****   uint32_t temp = 0U;  /* CRC output (read from hcrc->Instance->DR register) */
 552              		.loc 1 289 3 is_stmt 1 view .LVU169
 290:Drivers/STM32F7xx_HAL_Driver/Src/stm32f7xx_hal_crc.c **** 
 553              		.loc 1 290 3 view .LVU170
 554              	.LVL43:
 293:Drivers/STM32F7xx_HAL_Driver/Src/stm32f7xx_hal_crc.c **** 
 555              		.loc 1 293 3 view .LVU171
 293:Drivers/STM32F7xx_HAL_Driver/Src/stm32f7xx_hal_crc.c **** 
 556              		.loc 1 293 15 is_stmt 0 view .LVU172
 557 0004 0223     		movs	r3, #2
 558 0006 4377     		strb	r3, [r0, #29]
 295:Drivers/STM32F7xx_HAL_Driver/Src/stm32f7xx_hal_crc.c ****   {
 559              		.loc 1 295 3 is_stmt 1 view .LVU173
 295:Drivers/STM32F7xx_HAL_Driver/Src/stm32f7xx_hal_crc.c ****   {
 560              		.loc 1 295 15 is_stmt 0 view .LVU174
 561 0008 036A     		ldr	r3, [r0, #32]
 295:Drivers/STM32F7xx_HAL_Driver/Src/stm32f7xx_hal_crc.c ****   {
 562              		.loc 1 295 3 view .LVU175
 563 000a 022B     		cmp	r3, #2
 564 000c 16D0     		beq	.L48
 565 000e 032B     		cmp	r3, #3
 566 0010 0FD0     		beq	.L53
 567 0012 012B     		cmp	r3, #1
 568 0014 0FD0     		beq	.L50
 569 0016 0020     		movs	r0, #0
 570              	.LVL44:
 571              	.L51:
 318:Drivers/STM32F7xx_HAL_Driver/Src/stm32f7xx_hal_crc.c **** 
 572              		.loc 1 318 3 is_stmt 1 view .LVU176
 318:Drivers/STM32F7xx_HAL_Driver/Src/stm32f7xx_hal_crc.c **** 
 573              		.loc 1 318 15 is_stmt 0 view .LVU177
 574 0018 0123     		movs	r3, #1
 575 001a 6377     		strb	r3, [r4, #29]
 321:Drivers/STM32F7xx_HAL_Driver/Src/stm32f7xx_hal_crc.c **** }
 576              		.loc 1 321 3 is_stmt 1 view .LVU178
 322:Drivers/STM32F7xx_HAL_Driver/Src/stm32f7xx_hal_crc.c **** 
 577              		.loc 1 322 1 is_stmt 0 view .LVU179
ARM GAS  /var/folders/n6/c271nzx11xl4r4_m7sqjlt0m0000gn/T//ccZGdjcQ.s 			page 22


 578 001c 38BD     		pop	{r3, r4, r5, pc}
 579              	.LVL45:
 580              	.L52:
 301:Drivers/STM32F7xx_HAL_Driver/Src/stm32f7xx_hal_crc.c ****       }
 581              		.loc 1 301 9 is_stmt 1 view .LVU180
 301:Drivers/STM32F7xx_HAL_Driver/Src/stm32f7xx_hal_crc.c ****       }
 582              		.loc 1 301 13 is_stmt 0 view .LVU181
 583 001e 2068     		ldr	r0, [r4]
 301:Drivers/STM32F7xx_HAL_Driver/Src/stm32f7xx_hal_crc.c ****       }
 584              		.loc 1 301 28 view .LVU182
 585 0020 51F82350 		ldr	r5, [r1, r3, lsl #2]
 586 0024 0560     		str	r5, [r0]
 299:Drivers/STM32F7xx_HAL_Driver/Src/stm32f7xx_hal_crc.c ****       {
 587              		.loc 1 299 51 is_stmt 1 discriminator 3 view .LVU183
 588 0026 0133     		adds	r3, r3, #1
 589              	.LVL46:
 590              	.L49:
 299:Drivers/STM32F7xx_HAL_Driver/Src/stm32f7xx_hal_crc.c ****       {
 591              		.loc 1 299 30 discriminator 1 view .LVU184
 592 0028 9342     		cmp	r3, r2
 593 002a F8D3     		bcc	.L52
 303:Drivers/STM32F7xx_HAL_Driver/Src/stm32f7xx_hal_crc.c ****       break;
 594              		.loc 1 303 7 view .LVU185
 303:Drivers/STM32F7xx_HAL_Driver/Src/stm32f7xx_hal_crc.c ****       break;
 595              		.loc 1 303 18 is_stmt 0 view .LVU186
 596 002c 2368     		ldr	r3, [r4]
 597              	.LVL47:
 303:Drivers/STM32F7xx_HAL_Driver/Src/stm32f7xx_hal_crc.c ****       break;
 598              		.loc 1 303 12 view .LVU187
 599 002e 1868     		ldr	r0, [r3]
 600              	.LVL48:
 304:Drivers/STM32F7xx_HAL_Driver/Src/stm32f7xx_hal_crc.c **** 
 601              		.loc 1 304 7 is_stmt 1 view .LVU188
 602 0030 F2E7     		b	.L51
 603              	.LVL49:
 604              	.L53:
 295:Drivers/STM32F7xx_HAL_Driver/Src/stm32f7xx_hal_crc.c ****   {
 605              		.loc 1 295 3 is_stmt 0 view .LVU189
 606 0032 0023     		movs	r3, #0
 607 0034 F8E7     		b	.L49
 608              	.L50:
 307:Drivers/STM32F7xx_HAL_Driver/Src/stm32f7xx_hal_crc.c ****       break;
 609              		.loc 1 307 7 is_stmt 1 view .LVU190
 307:Drivers/STM32F7xx_HAL_Driver/Src/stm32f7xx_hal_crc.c ****       break;
 610              		.loc 1 307 14 is_stmt 0 view .LVU191
 611 0036 FFF7FEFF 		bl	CRC_Handle_8
 612              	.LVL50:
 308:Drivers/STM32F7xx_HAL_Driver/Src/stm32f7xx_hal_crc.c **** 
 613              		.loc 1 308 7 is_stmt 1 view .LVU192
 614 003a EDE7     		b	.L51
 615              	.LVL51:
 616              	.L48:
 311:Drivers/STM32F7xx_HAL_Driver/Src/stm32f7xx_hal_crc.c ****       break;
 617              		.loc 1 311 7 view .LVU193
 311:Drivers/STM32F7xx_HAL_Driver/Src/stm32f7xx_hal_crc.c ****       break;
 618              		.loc 1 311 14 is_stmt 0 view .LVU194
 619 003c FFF7FEFF 		bl	CRC_Handle_16
ARM GAS  /var/folders/n6/c271nzx11xl4r4_m7sqjlt0m0000gn/T//ccZGdjcQ.s 			page 23


 620              	.LVL52:
 312:Drivers/STM32F7xx_HAL_Driver/Src/stm32f7xx_hal_crc.c ****     default:
 621              		.loc 1 312 7 is_stmt 1 view .LVU195
 622 0040 EAE7     		b	.L51
 623              		.cfi_endproc
 624              	.LFE145:
 626              		.section	.text.HAL_CRC_Calculate,"ax",%progbits
 627              		.align	1
 628              		.global	HAL_CRC_Calculate
 629              		.syntax unified
 630              		.thumb
 631              		.thumb_func
 633              	HAL_CRC_Calculate:
 634              	.LVL53:
 635              	.LFB146:
 340:Drivers/STM32F7xx_HAL_Driver/Src/stm32f7xx_hal_crc.c ****   uint32_t index;      /* CRC input data buffer index */
 636              		.loc 1 340 1 view -0
 637              		.cfi_startproc
 638              		@ args = 0, pretend = 0, frame = 0
 639              		@ frame_needed = 0, uses_anonymous_args = 0
 340:Drivers/STM32F7xx_HAL_Driver/Src/stm32f7xx_hal_crc.c ****   uint32_t index;      /* CRC input data buffer index */
 640              		.loc 1 340 1 is_stmt 0 view .LVU197
 641 0000 38B5     		push	{r3, r4, r5, lr}
 642              		.cfi_def_cfa_offset 16
 643              		.cfi_offset 3, -16
 644              		.cfi_offset 4, -12
 645              		.cfi_offset 5, -8
 646              		.cfi_offset 14, -4
 647 0002 0446     		mov	r4, r0
 341:Drivers/STM32F7xx_HAL_Driver/Src/stm32f7xx_hal_crc.c ****   uint32_t temp = 0U;  /* CRC output (read from hcrc->Instance->DR register) */
 648              		.loc 1 341 3 is_stmt 1 view .LVU198
 342:Drivers/STM32F7xx_HAL_Driver/Src/stm32f7xx_hal_crc.c **** 
 649              		.loc 1 342 3 view .LVU199
 650              	.LVL54:
 345:Drivers/STM32F7xx_HAL_Driver/Src/stm32f7xx_hal_crc.c **** 
 651              		.loc 1 345 3 view .LVU200
 345:Drivers/STM32F7xx_HAL_Driver/Src/stm32f7xx_hal_crc.c **** 
 652              		.loc 1 345 15 is_stmt 0 view .LVU201
 653 0004 0223     		movs	r3, #2
 654 0006 4377     		strb	r3, [r0, #29]
 349:Drivers/STM32F7xx_HAL_Driver/Src/stm32f7xx_hal_crc.c **** 
 655              		.loc 1 349 3 is_stmt 1 view .LVU202
 656 0008 0068     		ldr	r0, [r0]
 657              	.LVL55:
 349:Drivers/STM32F7xx_HAL_Driver/Src/stm32f7xx_hal_crc.c **** 
 658              		.loc 1 349 3 is_stmt 0 view .LVU203
 659 000a 8368     		ldr	r3, [r0, #8]
 660 000c 43F00103 		orr	r3, r3, #1
 661 0010 8360     		str	r3, [r0, #8]
 351:Drivers/STM32F7xx_HAL_Driver/Src/stm32f7xx_hal_crc.c ****   {
 662              		.loc 1 351 3 is_stmt 1 view .LVU204
 351:Drivers/STM32F7xx_HAL_Driver/Src/stm32f7xx_hal_crc.c ****   {
 663              		.loc 1 351 15 is_stmt 0 view .LVU205
 664 0012 236A     		ldr	r3, [r4, #32]
 351:Drivers/STM32F7xx_HAL_Driver/Src/stm32f7xx_hal_crc.c ****   {
 665              		.loc 1 351 3 view .LVU206
 666 0014 022B     		cmp	r3, #2
ARM GAS  /var/folders/n6/c271nzx11xl4r4_m7sqjlt0m0000gn/T//ccZGdjcQ.s 			page 24


 667 0016 17D0     		beq	.L56
 668 0018 032B     		cmp	r3, #3
 669 001a 0FD0     		beq	.L61
 670 001c 012B     		cmp	r3, #1
 671 001e 0FD0     		beq	.L58
 672 0020 0020     		movs	r0, #0
 673              	.LVL56:
 674              	.L59:
 377:Drivers/STM32F7xx_HAL_Driver/Src/stm32f7xx_hal_crc.c **** 
 675              		.loc 1 377 3 is_stmt 1 view .LVU207
 377:Drivers/STM32F7xx_HAL_Driver/Src/stm32f7xx_hal_crc.c **** 
 676              		.loc 1 377 15 is_stmt 0 view .LVU208
 677 0022 0123     		movs	r3, #1
 678 0024 6377     		strb	r3, [r4, #29]
 380:Drivers/STM32F7xx_HAL_Driver/Src/stm32f7xx_hal_crc.c **** }
 679              		.loc 1 380 3 is_stmt 1 view .LVU209
 381:Drivers/STM32F7xx_HAL_Driver/Src/stm32f7xx_hal_crc.c **** 
 680              		.loc 1 381 1 is_stmt 0 view .LVU210
 681 0026 38BD     		pop	{r3, r4, r5, pc}
 682              	.LVL57:
 683              	.L60:
 357:Drivers/STM32F7xx_HAL_Driver/Src/stm32f7xx_hal_crc.c ****       }
 684              		.loc 1 357 9 is_stmt 1 view .LVU211
 357:Drivers/STM32F7xx_HAL_Driver/Src/stm32f7xx_hal_crc.c ****       }
 685              		.loc 1 357 13 is_stmt 0 view .LVU212
 686 0028 2068     		ldr	r0, [r4]
 357:Drivers/STM32F7xx_HAL_Driver/Src/stm32f7xx_hal_crc.c ****       }
 687              		.loc 1 357 28 view .LVU213
 688 002a 51F82350 		ldr	r5, [r1, r3, lsl #2]
 689 002e 0560     		str	r5, [r0]
 355:Drivers/STM32F7xx_HAL_Driver/Src/stm32f7xx_hal_crc.c ****       {
 690              		.loc 1 355 51 is_stmt 1 discriminator 3 view .LVU214
 691 0030 0133     		adds	r3, r3, #1
 692              	.LVL58:
 693              	.L57:
 355:Drivers/STM32F7xx_HAL_Driver/Src/stm32f7xx_hal_crc.c ****       {
 694              		.loc 1 355 30 discriminator 1 view .LVU215
 695 0032 9342     		cmp	r3, r2
 696 0034 F8D3     		bcc	.L60
 359:Drivers/STM32F7xx_HAL_Driver/Src/stm32f7xx_hal_crc.c ****       break;
 697              		.loc 1 359 7 view .LVU216
 359:Drivers/STM32F7xx_HAL_Driver/Src/stm32f7xx_hal_crc.c ****       break;
 698              		.loc 1 359 18 is_stmt 0 view .LVU217
 699 0036 2368     		ldr	r3, [r4]
 700              	.LVL59:
 359:Drivers/STM32F7xx_HAL_Driver/Src/stm32f7xx_hal_crc.c ****       break;
 701              		.loc 1 359 12 view .LVU218
 702 0038 1868     		ldr	r0, [r3]
 703              	.LVL60:
 360:Drivers/STM32F7xx_HAL_Driver/Src/stm32f7xx_hal_crc.c **** 
 704              		.loc 1 360 7 is_stmt 1 view .LVU219
 705 003a F2E7     		b	.L59
 706              	.LVL61:
 707              	.L61:
 351:Drivers/STM32F7xx_HAL_Driver/Src/stm32f7xx_hal_crc.c ****   {
 708              		.loc 1 351 3 is_stmt 0 view .LVU220
 709 003c 0023     		movs	r3, #0
ARM GAS  /var/folders/n6/c271nzx11xl4r4_m7sqjlt0m0000gn/T//ccZGdjcQ.s 			page 25


 710 003e F8E7     		b	.L57
 711              	.L58:
 364:Drivers/STM32F7xx_HAL_Driver/Src/stm32f7xx_hal_crc.c ****       break;
 712              		.loc 1 364 7 is_stmt 1 view .LVU221
 364:Drivers/STM32F7xx_HAL_Driver/Src/stm32f7xx_hal_crc.c ****       break;
 713              		.loc 1 364 14 is_stmt 0 view .LVU222
 714 0040 2046     		mov	r0, r4
 715 0042 FFF7FEFF 		bl	CRC_Handle_8
 716              	.LVL62:
 365:Drivers/STM32F7xx_HAL_Driver/Src/stm32f7xx_hal_crc.c **** 
 717              		.loc 1 365 7 is_stmt 1 view .LVU223
 718 0046 ECE7     		b	.L59
 719              	.LVL63:
 720              	.L56:
 369:Drivers/STM32F7xx_HAL_Driver/Src/stm32f7xx_hal_crc.c ****       break;
 721              		.loc 1 369 7 view .LVU224
 369:Drivers/STM32F7xx_HAL_Driver/Src/stm32f7xx_hal_crc.c ****       break;
 722              		.loc 1 369 14 is_stmt 0 view .LVU225
 723 0048 2046     		mov	r0, r4
 724 004a FFF7FEFF 		bl	CRC_Handle_16
 725              	.LVL64:
 370:Drivers/STM32F7xx_HAL_Driver/Src/stm32f7xx_hal_crc.c **** 
 726              		.loc 1 370 7 is_stmt 1 view .LVU226
 727 004e E8E7     		b	.L59
 728              		.cfi_endproc
 729              	.LFE146:
 731              		.section	.text.HAL_CRC_GetState,"ax",%progbits
 732              		.align	1
 733              		.global	HAL_CRC_GetState
 734              		.syntax unified
 735              		.thumb
 736              		.thumb_func
 738              	HAL_CRC_GetState:
 739              	.LVL65:
 740              	.LFB147:
 407:Drivers/STM32F7xx_HAL_Driver/Src/stm32f7xx_hal_crc.c ****   /* Return CRC handle state */
 741              		.loc 1 407 1 view -0
 742              		.cfi_startproc
 743              		@ args = 0, pretend = 0, frame = 0
 744              		@ frame_needed = 0, uses_anonymous_args = 0
 745              		@ link register save eliminated.
 409:Drivers/STM32F7xx_HAL_Driver/Src/stm32f7xx_hal_crc.c **** }
 746              		.loc 1 409 3 view .LVU228
 409:Drivers/STM32F7xx_HAL_Driver/Src/stm32f7xx_hal_crc.c **** }
 747              		.loc 1 409 14 is_stmt 0 view .LVU229
 748 0000 407F     		ldrb	r0, [r0, #29]	@ zero_extendqisi2
 749              	.LVL66:
 410:Drivers/STM32F7xx_HAL_Driver/Src/stm32f7xx_hal_crc.c **** 
 750              		.loc 1 410 1 view .LVU230
 751 0002 7047     		bx	lr
 752              		.cfi_endproc
 753              	.LFE147:
 755              		.text
 756              	.Letext0:
 757              		.file 2 "/Users/killian/Library/Application Support/Code/User/globalStorage/bmd.stm32-for-vscode/@
 758              		.file 3 "/Users/killian/Library/Application Support/Code/User/globalStorage/bmd.stm32-for-vscode/@
 759              		.file 4 "Drivers/CMSIS/Device/ST/STM32F7xx/Include/stm32f769xx.h"
ARM GAS  /var/folders/n6/c271nzx11xl4r4_m7sqjlt0m0000gn/T//ccZGdjcQ.s 			page 26


 760              		.file 5 "Drivers/STM32F7xx_HAL_Driver/Inc/stm32f7xx_hal_def.h"
 761              		.file 6 "Drivers/STM32F7xx_HAL_Driver/Inc/stm32f7xx_hal_crc.h"
 762              		.file 7 "Drivers/STM32F7xx_HAL_Driver/Inc/stm32f7xx_hal_crc_ex.h"
ARM GAS  /var/folders/n6/c271nzx11xl4r4_m7sqjlt0m0000gn/T//ccZGdjcQ.s 			page 27

