ARM GAS  /var/folders/n6/c271nzx11xl4r4_m7sqjlt0m0000gn/T//cc22wCrs.s 			page 1


   1              		.cpu cortex-m7
   2              		.arch armv7e-m
   3              		.fpu fpv5-d16
   4              		.eabi_attribute 28, 1
   5              		.eabi_attribute 20, 1
   6              		.eabi_attribute 21, 1
   7              		.eabi_attribute 23, 3
   8              		.eabi_attribute 24, 1
   9              		.eabi_attribute 25, 1
  10              		.eabi_attribute 26, 1
  11              		.eabi_attribute 30, 1
  12              		.eabi_attribute 34, 1
  13              		.eabi_attribute 18, 4
  14              		.file	"stm32f769i_discovery_qspi.c"
  15              		.text
  16              	.Ltext0:
  17              		.cfi_sections	.debug_frame
  18              		.file 1 "Drivers/BSP/STM32F769I-Discovery/stm32f769i_discovery_qspi.c"
  19              		.section	.text.QSPI_ExitMemory_QPI,"ax",%progbits
  20              		.align	1
  21              		.syntax unified
  22              		.thumb
  23              		.thumb_func
  25              	QSPI_ExitMemory_QPI:
  26              	.LVL0:
  27              	.LFB156:
   1:Drivers/BSP/STM32F769I-Discovery/stm32f769i_discovery_qspi.c **** /**
   2:Drivers/BSP/STM32F769I-Discovery/stm32f769i_discovery_qspi.c ****   ******************************************************************************
   3:Drivers/BSP/STM32F769I-Discovery/stm32f769i_discovery_qspi.c ****   * @file    stm32f769i_discovery_qspi.c
   4:Drivers/BSP/STM32F769I-Discovery/stm32f769i_discovery_qspi.c ****   * @author  MCD Application Team
   5:Drivers/BSP/STM32F769I-Discovery/stm32f769i_discovery_qspi.c ****   * @brief   This file includes a standard driver for the MX25L512 QSPI
   6:Drivers/BSP/STM32F769I-Discovery/stm32f769i_discovery_qspi.c ****   *          memory mounted on STM32F769I-Discovery board.
   7:Drivers/BSP/STM32F769I-Discovery/stm32f769i_discovery_qspi.c ****   *
   8:Drivers/BSP/STM32F769I-Discovery/stm32f769i_discovery_qspi.c ****   ******************************************************************************
   9:Drivers/BSP/STM32F769I-Discovery/stm32f769i_discovery_qspi.c ****   * @attention
  10:Drivers/BSP/STM32F769I-Discovery/stm32f769i_discovery_qspi.c ****   *
  11:Drivers/BSP/STM32F769I-Discovery/stm32f769i_discovery_qspi.c ****   * Copyright (c) 2016 STMicroelectronics.
  12:Drivers/BSP/STM32F769I-Discovery/stm32f769i_discovery_qspi.c ****   * All rights reserved.
  13:Drivers/BSP/STM32F769I-Discovery/stm32f769i_discovery_qspi.c ****   *
  14:Drivers/BSP/STM32F769I-Discovery/stm32f769i_discovery_qspi.c ****   * This software is licensed under terms that can be found in the LICENSE file
  15:Drivers/BSP/STM32F769I-Discovery/stm32f769i_discovery_qspi.c ****   * in the root directory of this software component.
  16:Drivers/BSP/STM32F769I-Discovery/stm32f769i_discovery_qspi.c ****   * If no LICENSE file comes with this software, it is provided AS-IS.
  17:Drivers/BSP/STM32F769I-Discovery/stm32f769i_discovery_qspi.c ****   *
  18:Drivers/BSP/STM32F769I-Discovery/stm32f769i_discovery_qspi.c ****   ******************************************************************************
  19:Drivers/BSP/STM32F769I-Discovery/stm32f769i_discovery_qspi.c ****   @verbatim
  20:Drivers/BSP/STM32F769I-Discovery/stm32f769i_discovery_qspi.c ****   ==============================================================================
  21:Drivers/BSP/STM32F769I-Discovery/stm32f769i_discovery_qspi.c ****                      ##### How to use this driver #####
  22:Drivers/BSP/STM32F769I-Discovery/stm32f769i_discovery_qspi.c ****   ==============================================================================  
  23:Drivers/BSP/STM32F769I-Discovery/stm32f769i_discovery_qspi.c ****   [..] 
  24:Drivers/BSP/STM32F769I-Discovery/stm32f769i_discovery_qspi.c ****    (#) This driver is used to drive the MX25L512 QSPI external
  25:Drivers/BSP/STM32F769I-Discovery/stm32f769i_discovery_qspi.c ****        memory mounted on STM32F769I-Discovery board.
  26:Drivers/BSP/STM32F769I-Discovery/stm32f769i_discovery_qspi.c ****        
  27:Drivers/BSP/STM32F769I-Discovery/stm32f769i_discovery_qspi.c ****    (#) This driver need a specific component driver (MX25L51245G) to be included with.
  28:Drivers/BSP/STM32F769I-Discovery/stm32f769i_discovery_qspi.c **** 
  29:Drivers/BSP/STM32F769I-Discovery/stm32f769i_discovery_qspi.c ****    (#) Initialization steps:
  30:Drivers/BSP/STM32F769I-Discovery/stm32f769i_discovery_qspi.c ****        (++) Initialize the QPSI external memory using the BSP_QSPI_Init() function. This 
  31:Drivers/BSP/STM32F769I-Discovery/stm32f769i_discovery_qspi.c ****             function includes the MSP layer hardware resources initialization and the
ARM GAS  /var/folders/n6/c271nzx11xl4r4_m7sqjlt0m0000gn/T//cc22wCrs.s 			page 2


  32:Drivers/BSP/STM32F769I-Discovery/stm32f769i_discovery_qspi.c ****             QSPI interface with the external memory.
  33:Drivers/BSP/STM32F769I-Discovery/stm32f769i_discovery_qspi.c ****   
  34:Drivers/BSP/STM32F769I-Discovery/stm32f769i_discovery_qspi.c ****    (#) QSPI memory operations
  35:Drivers/BSP/STM32F769I-Discovery/stm32f769i_discovery_qspi.c ****        (++) QSPI memory can be accessed with read/write operations once it is
  36:Drivers/BSP/STM32F769I-Discovery/stm32f769i_discovery_qspi.c ****             initialized.
  37:Drivers/BSP/STM32F769I-Discovery/stm32f769i_discovery_qspi.c ****             Read/write operation can be performed with AHB access using the functions
  38:Drivers/BSP/STM32F769I-Discovery/stm32f769i_discovery_qspi.c ****             BSP_QSPI_Read()/BSP_QSPI_Write(). 
  39:Drivers/BSP/STM32F769I-Discovery/stm32f769i_discovery_qspi.c ****        (++) The function BSP_QSPI_GetInfo() returns the configuration of the QSPI memory. 
  40:Drivers/BSP/STM32F769I-Discovery/stm32f769i_discovery_qspi.c ****             (see the QSPI memory data sheet)
  41:Drivers/BSP/STM32F769I-Discovery/stm32f769i_discovery_qspi.c ****        (++) Perform erase block operation using the function BSP_QSPI_Erase_Block() and by
  42:Drivers/BSP/STM32F769I-Discovery/stm32f769i_discovery_qspi.c ****             specifying the block address. You can perform an erase operation of the whole 
  43:Drivers/BSP/STM32F769I-Discovery/stm32f769i_discovery_qspi.c ****             chip by calling the function BSP_QSPI_Erase_Chip(). 
  44:Drivers/BSP/STM32F769I-Discovery/stm32f769i_discovery_qspi.c ****        (++) The function BSP_QSPI_GetStatus() returns the current status of the QSPI memory. 
  45:Drivers/BSP/STM32F769I-Discovery/stm32f769i_discovery_qspi.c ****             (see the QSPI memory data sheet)
  46:Drivers/BSP/STM32F769I-Discovery/stm32f769i_discovery_qspi.c ****   @endverbatim
  47:Drivers/BSP/STM32F769I-Discovery/stm32f769i_discovery_qspi.c ****   ******************************************************************************
  48:Drivers/BSP/STM32F769I-Discovery/stm32f769i_discovery_qspi.c ****   */
  49:Drivers/BSP/STM32F769I-Discovery/stm32f769i_discovery_qspi.c **** 
  50:Drivers/BSP/STM32F769I-Discovery/stm32f769i_discovery_qspi.c **** /* Dependencies
  51:Drivers/BSP/STM32F769I-Discovery/stm32f769i_discovery_qspi.c **** - stm32f7xx_hal_qspi.c
  52:Drivers/BSP/STM32F769I-Discovery/stm32f769i_discovery_qspi.c **** - stm32f7xx_hal_gpio.c
  53:Drivers/BSP/STM32F769I-Discovery/stm32f769i_discovery_qspi.c **** - stm32f7xx_hal_cortex.c
  54:Drivers/BSP/STM32F769I-Discovery/stm32f769i_discovery_qspi.c **** - stm32f7xx_hal_rcc_ex.h
  55:Drivers/BSP/STM32F769I-Discovery/stm32f769i_discovery_qspi.c **** - mx25l512.h
  56:Drivers/BSP/STM32F769I-Discovery/stm32f769i_discovery_qspi.c **** EndDependencies */
  57:Drivers/BSP/STM32F769I-Discovery/stm32f769i_discovery_qspi.c **** 
  58:Drivers/BSP/STM32F769I-Discovery/stm32f769i_discovery_qspi.c **** /* Includes ------------------------------------------------------------------*/
  59:Drivers/BSP/STM32F769I-Discovery/stm32f769i_discovery_qspi.c **** #include "stm32f769i_discovery_qspi.h"
  60:Drivers/BSP/STM32F769I-Discovery/stm32f769i_discovery_qspi.c **** 
  61:Drivers/BSP/STM32F769I-Discovery/stm32f769i_discovery_qspi.c **** /** @addtogroup BSP
  62:Drivers/BSP/STM32F769I-Discovery/stm32f769i_discovery_qspi.c ****   * @{
  63:Drivers/BSP/STM32F769I-Discovery/stm32f769i_discovery_qspi.c ****   */
  64:Drivers/BSP/STM32F769I-Discovery/stm32f769i_discovery_qspi.c **** 
  65:Drivers/BSP/STM32F769I-Discovery/stm32f769i_discovery_qspi.c **** /** @addtogroup STM32F769I_DISCOVERY
  66:Drivers/BSP/STM32F769I-Discovery/stm32f769i_discovery_qspi.c ****   * @{
  67:Drivers/BSP/STM32F769I-Discovery/stm32f769i_discovery_qspi.c ****   */ 
  68:Drivers/BSP/STM32F769I-Discovery/stm32f769i_discovery_qspi.c ****   
  69:Drivers/BSP/STM32F769I-Discovery/stm32f769i_discovery_qspi.c **** /** @defgroup STM32F769I_DISCOVERY_QSPI STM32F769I_DISCOVERY QSPI
  70:Drivers/BSP/STM32F769I-Discovery/stm32f769i_discovery_qspi.c ****   * @{
  71:Drivers/BSP/STM32F769I-Discovery/stm32f769i_discovery_qspi.c ****   */ 
  72:Drivers/BSP/STM32F769I-Discovery/stm32f769i_discovery_qspi.c **** 
  73:Drivers/BSP/STM32F769I-Discovery/stm32f769i_discovery_qspi.c **** 
  74:Drivers/BSP/STM32F769I-Discovery/stm32f769i_discovery_qspi.c **** /* Private variables ---------------------------------------------------------*/
  75:Drivers/BSP/STM32F769I-Discovery/stm32f769i_discovery_qspi.c **** 
  76:Drivers/BSP/STM32F769I-Discovery/stm32f769i_discovery_qspi.c **** /** @defgroup STM32F769I_DISCOVERY_QSPI_Private_Variables STM32F769I_DISCOVERY QSPI Private Variabl
  77:Drivers/BSP/STM32F769I-Discovery/stm32f769i_discovery_qspi.c ****   * @{
  78:Drivers/BSP/STM32F769I-Discovery/stm32f769i_discovery_qspi.c ****   */       
  79:Drivers/BSP/STM32F769I-Discovery/stm32f769i_discovery_qspi.c **** QSPI_HandleTypeDef QSPIHandle;
  80:Drivers/BSP/STM32F769I-Discovery/stm32f769i_discovery_qspi.c **** 
  81:Drivers/BSP/STM32F769I-Discovery/stm32f769i_discovery_qspi.c **** /**
  82:Drivers/BSP/STM32F769I-Discovery/stm32f769i_discovery_qspi.c ****   * @}
  83:Drivers/BSP/STM32F769I-Discovery/stm32f769i_discovery_qspi.c ****   */ 
  84:Drivers/BSP/STM32F769I-Discovery/stm32f769i_discovery_qspi.c **** 
  85:Drivers/BSP/STM32F769I-Discovery/stm32f769i_discovery_qspi.c **** 
  86:Drivers/BSP/STM32F769I-Discovery/stm32f769i_discovery_qspi.c **** 
  87:Drivers/BSP/STM32F769I-Discovery/stm32f769i_discovery_qspi.c **** /* Private functions ---------------------------------------------------------*/
  88:Drivers/BSP/STM32F769I-Discovery/stm32f769i_discovery_qspi.c ****     
ARM GAS  /var/folders/n6/c271nzx11xl4r4_m7sqjlt0m0000gn/T//cc22wCrs.s 			page 3


  89:Drivers/BSP/STM32F769I-Discovery/stm32f769i_discovery_qspi.c **** /** @defgroup STM32F769I_DISCOVERY_QSPI_Private_Functions STM32F769I_DISCOVERY QSPI Private Functio
  90:Drivers/BSP/STM32F769I-Discovery/stm32f769i_discovery_qspi.c ****   * @{
  91:Drivers/BSP/STM32F769I-Discovery/stm32f769i_discovery_qspi.c ****   */ 
  92:Drivers/BSP/STM32F769I-Discovery/stm32f769i_discovery_qspi.c **** static uint8_t QSPI_ResetMemory(QSPI_HandleTypeDef *hqspi);
  93:Drivers/BSP/STM32F769I-Discovery/stm32f769i_discovery_qspi.c **** static uint8_t QSPI_EnterFourBytesAddress(QSPI_HandleTypeDef *hqspi);
  94:Drivers/BSP/STM32F769I-Discovery/stm32f769i_discovery_qspi.c **** static uint8_t QSPI_DummyCyclesCfg(QSPI_HandleTypeDef *hqspi);
  95:Drivers/BSP/STM32F769I-Discovery/stm32f769i_discovery_qspi.c **** static uint8_t QSPI_EnterMemory_QPI(QSPI_HandleTypeDef *hqspi);
  96:Drivers/BSP/STM32F769I-Discovery/stm32f769i_discovery_qspi.c **** static uint8_t QSPI_ExitMemory_QPI(QSPI_HandleTypeDef *hqspi);
  97:Drivers/BSP/STM32F769I-Discovery/stm32f769i_discovery_qspi.c **** static uint8_t QSPI_OutDrvStrengthCfg(QSPI_HandleTypeDef *hqspi);
  98:Drivers/BSP/STM32F769I-Discovery/stm32f769i_discovery_qspi.c **** static uint8_t QSPI_WriteEnable(QSPI_HandleTypeDef *hqspi);
  99:Drivers/BSP/STM32F769I-Discovery/stm32f769i_discovery_qspi.c **** static uint8_t QSPI_AutoPollingMemReady  (QSPI_HandleTypeDef *hqspi, uint32_t Timeout);
 100:Drivers/BSP/STM32F769I-Discovery/stm32f769i_discovery_qspi.c **** 
 101:Drivers/BSP/STM32F769I-Discovery/stm32f769i_discovery_qspi.c **** /**
 102:Drivers/BSP/STM32F769I-Discovery/stm32f769i_discovery_qspi.c ****   * @}
 103:Drivers/BSP/STM32F769I-Discovery/stm32f769i_discovery_qspi.c ****   */
 104:Drivers/BSP/STM32F769I-Discovery/stm32f769i_discovery_qspi.c ****     
 105:Drivers/BSP/STM32F769I-Discovery/stm32f769i_discovery_qspi.c **** /** @defgroup STM32F769I_DISCOVERY_QSPI_Exported_Functions STM32F769I_DISCOVERY QSPI Exported Funct
 106:Drivers/BSP/STM32F769I-Discovery/stm32f769i_discovery_qspi.c ****   * @{
 107:Drivers/BSP/STM32F769I-Discovery/stm32f769i_discovery_qspi.c ****   */ 
 108:Drivers/BSP/STM32F769I-Discovery/stm32f769i_discovery_qspi.c **** 
 109:Drivers/BSP/STM32F769I-Discovery/stm32f769i_discovery_qspi.c **** /**
 110:Drivers/BSP/STM32F769I-Discovery/stm32f769i_discovery_qspi.c ****   * @brief  Initializes the QSPI interface.
 111:Drivers/BSP/STM32F769I-Discovery/stm32f769i_discovery_qspi.c ****   * @retval QSPI memory status
 112:Drivers/BSP/STM32F769I-Discovery/stm32f769i_discovery_qspi.c ****   */
 113:Drivers/BSP/STM32F769I-Discovery/stm32f769i_discovery_qspi.c **** uint8_t BSP_QSPI_Init(void)
 114:Drivers/BSP/STM32F769I-Discovery/stm32f769i_discovery_qspi.c **** { 
 115:Drivers/BSP/STM32F769I-Discovery/stm32f769i_discovery_qspi.c ****   QSPIHandle.Instance = QUADSPI;
 116:Drivers/BSP/STM32F769I-Discovery/stm32f769i_discovery_qspi.c ****   
 117:Drivers/BSP/STM32F769I-Discovery/stm32f769i_discovery_qspi.c ****   /* Call the DeInit function to reset the driver */
 118:Drivers/BSP/STM32F769I-Discovery/stm32f769i_discovery_qspi.c ****   if (HAL_QSPI_DeInit(&QSPIHandle) != HAL_OK)
 119:Drivers/BSP/STM32F769I-Discovery/stm32f769i_discovery_qspi.c ****   {
 120:Drivers/BSP/STM32F769I-Discovery/stm32f769i_discovery_qspi.c ****     return QSPI_ERROR;
 121:Drivers/BSP/STM32F769I-Discovery/stm32f769i_discovery_qspi.c ****   }
 122:Drivers/BSP/STM32F769I-Discovery/stm32f769i_discovery_qspi.c ****   
 123:Drivers/BSP/STM32F769I-Discovery/stm32f769i_discovery_qspi.c ****   /* System level initialization */
 124:Drivers/BSP/STM32F769I-Discovery/stm32f769i_discovery_qspi.c ****   BSP_QSPI_MspInit(&QSPIHandle, NULL);
 125:Drivers/BSP/STM32F769I-Discovery/stm32f769i_discovery_qspi.c ****   
 126:Drivers/BSP/STM32F769I-Discovery/stm32f769i_discovery_qspi.c ****   /* QSPI initialization */
 127:Drivers/BSP/STM32F769I-Discovery/stm32f769i_discovery_qspi.c ****   /* QSPI freq = SYSCLK /(1 + ClockPrescaler) = 216 MHz/(1+1) = 108 Mhz */
 128:Drivers/BSP/STM32F769I-Discovery/stm32f769i_discovery_qspi.c ****   QSPIHandle.Init.ClockPrescaler     = 1;   /* QSPI freq = 216 MHz/(1+1) = 108 Mhz */
 129:Drivers/BSP/STM32F769I-Discovery/stm32f769i_discovery_qspi.c ****   QSPIHandle.Init.FifoThreshold      = 16;
 130:Drivers/BSP/STM32F769I-Discovery/stm32f769i_discovery_qspi.c ****   QSPIHandle.Init.SampleShifting     = QSPI_SAMPLE_SHIFTING_HALFCYCLE; 
 131:Drivers/BSP/STM32F769I-Discovery/stm32f769i_discovery_qspi.c ****   QSPIHandle.Init.FlashSize          = POSITION_VAL(MX25L512_FLASH_SIZE) - 1;
 132:Drivers/BSP/STM32F769I-Discovery/stm32f769i_discovery_qspi.c ****   QSPIHandle.Init.ChipSelectHighTime = QSPI_CS_HIGH_TIME_4_CYCLE; /* Min 30ns for nonRead */
 133:Drivers/BSP/STM32F769I-Discovery/stm32f769i_discovery_qspi.c ****   QSPIHandle.Init.ClockMode          = QSPI_CLOCK_MODE_0;
 134:Drivers/BSP/STM32F769I-Discovery/stm32f769i_discovery_qspi.c ****   QSPIHandle.Init.FlashID            = QSPI_FLASH_ID_1;
 135:Drivers/BSP/STM32F769I-Discovery/stm32f769i_discovery_qspi.c ****   QSPIHandle.Init.DualFlash          = QSPI_DUALFLASH_DISABLE;
 136:Drivers/BSP/STM32F769I-Discovery/stm32f769i_discovery_qspi.c ****   
 137:Drivers/BSP/STM32F769I-Discovery/stm32f769i_discovery_qspi.c ****   if (HAL_QSPI_Init(&QSPIHandle) != HAL_OK)
 138:Drivers/BSP/STM32F769I-Discovery/stm32f769i_discovery_qspi.c ****   {
 139:Drivers/BSP/STM32F769I-Discovery/stm32f769i_discovery_qspi.c ****     return QSPI_ERROR;
 140:Drivers/BSP/STM32F769I-Discovery/stm32f769i_discovery_qspi.c ****   }
 141:Drivers/BSP/STM32F769I-Discovery/stm32f769i_discovery_qspi.c ****   
 142:Drivers/BSP/STM32F769I-Discovery/stm32f769i_discovery_qspi.c ****   /* QSPI memory reset */
 143:Drivers/BSP/STM32F769I-Discovery/stm32f769i_discovery_qspi.c ****   if (QSPI_ResetMemory(&QSPIHandle) != QSPI_OK)
 144:Drivers/BSP/STM32F769I-Discovery/stm32f769i_discovery_qspi.c ****   {
 145:Drivers/BSP/STM32F769I-Discovery/stm32f769i_discovery_qspi.c ****     return QSPI_NOT_SUPPORTED;
ARM GAS  /var/folders/n6/c271nzx11xl4r4_m7sqjlt0m0000gn/T//cc22wCrs.s 			page 4


 146:Drivers/BSP/STM32F769I-Discovery/stm32f769i_discovery_qspi.c ****   }
 147:Drivers/BSP/STM32F769I-Discovery/stm32f769i_discovery_qspi.c ****   
 148:Drivers/BSP/STM32F769I-Discovery/stm32f769i_discovery_qspi.c ****   /* Put QSPI memory in QPI mode */
 149:Drivers/BSP/STM32F769I-Discovery/stm32f769i_discovery_qspi.c ****   if( QSPI_EnterMemory_QPI( &QSPIHandle )!=QSPI_OK )
 150:Drivers/BSP/STM32F769I-Discovery/stm32f769i_discovery_qspi.c ****   {
 151:Drivers/BSP/STM32F769I-Discovery/stm32f769i_discovery_qspi.c ****     return QSPI_NOT_SUPPORTED;
 152:Drivers/BSP/STM32F769I-Discovery/stm32f769i_discovery_qspi.c ****   }
 153:Drivers/BSP/STM32F769I-Discovery/stm32f769i_discovery_qspi.c ****   
 154:Drivers/BSP/STM32F769I-Discovery/stm32f769i_discovery_qspi.c ****   /* Set the QSPI memory in 4-bytes address mode */
 155:Drivers/BSP/STM32F769I-Discovery/stm32f769i_discovery_qspi.c ****   if (QSPI_EnterFourBytesAddress(&QSPIHandle) != QSPI_OK)
 156:Drivers/BSP/STM32F769I-Discovery/stm32f769i_discovery_qspi.c ****   {
 157:Drivers/BSP/STM32F769I-Discovery/stm32f769i_discovery_qspi.c ****     return QSPI_NOT_SUPPORTED;
 158:Drivers/BSP/STM32F769I-Discovery/stm32f769i_discovery_qspi.c ****   }
 159:Drivers/BSP/STM32F769I-Discovery/stm32f769i_discovery_qspi.c ****   
 160:Drivers/BSP/STM32F769I-Discovery/stm32f769i_discovery_qspi.c ****   /* Configuration of the dummy cycles on QSPI memory side */
 161:Drivers/BSP/STM32F769I-Discovery/stm32f769i_discovery_qspi.c ****   if (QSPI_DummyCyclesCfg(&QSPIHandle) != QSPI_OK)
 162:Drivers/BSP/STM32F769I-Discovery/stm32f769i_discovery_qspi.c ****   {
 163:Drivers/BSP/STM32F769I-Discovery/stm32f769i_discovery_qspi.c ****     return QSPI_NOT_SUPPORTED;
 164:Drivers/BSP/STM32F769I-Discovery/stm32f769i_discovery_qspi.c ****   }
 165:Drivers/BSP/STM32F769I-Discovery/stm32f769i_discovery_qspi.c ****   
 166:Drivers/BSP/STM32F769I-Discovery/stm32f769i_discovery_qspi.c ****   /* Configuration of the Output driver strength on memory side */
 167:Drivers/BSP/STM32F769I-Discovery/stm32f769i_discovery_qspi.c ****   if( QSPI_OutDrvStrengthCfg( &QSPIHandle ) != QSPI_OK )
 168:Drivers/BSP/STM32F769I-Discovery/stm32f769i_discovery_qspi.c ****   {
 169:Drivers/BSP/STM32F769I-Discovery/stm32f769i_discovery_qspi.c ****     return QSPI_NOT_SUPPORTED;
 170:Drivers/BSP/STM32F769I-Discovery/stm32f769i_discovery_qspi.c ****   }
 171:Drivers/BSP/STM32F769I-Discovery/stm32f769i_discovery_qspi.c ****   
 172:Drivers/BSP/STM32F769I-Discovery/stm32f769i_discovery_qspi.c ****   return QSPI_OK;
 173:Drivers/BSP/STM32F769I-Discovery/stm32f769i_discovery_qspi.c **** }
 174:Drivers/BSP/STM32F769I-Discovery/stm32f769i_discovery_qspi.c **** 
 175:Drivers/BSP/STM32F769I-Discovery/stm32f769i_discovery_qspi.c **** /**
 176:Drivers/BSP/STM32F769I-Discovery/stm32f769i_discovery_qspi.c ****   * @brief  De-Initializes the QSPI interface.
 177:Drivers/BSP/STM32F769I-Discovery/stm32f769i_discovery_qspi.c ****   * @retval QSPI memory status
 178:Drivers/BSP/STM32F769I-Discovery/stm32f769i_discovery_qspi.c ****   */
 179:Drivers/BSP/STM32F769I-Discovery/stm32f769i_discovery_qspi.c **** uint8_t BSP_QSPI_DeInit(void)
 180:Drivers/BSP/STM32F769I-Discovery/stm32f769i_discovery_qspi.c **** { 
 181:Drivers/BSP/STM32F769I-Discovery/stm32f769i_discovery_qspi.c ****   QSPIHandle.Instance = QUADSPI;
 182:Drivers/BSP/STM32F769I-Discovery/stm32f769i_discovery_qspi.c **** 
 183:Drivers/BSP/STM32F769I-Discovery/stm32f769i_discovery_qspi.c ****   /* Put QSPI memory in SPI mode */
 184:Drivers/BSP/STM32F769I-Discovery/stm32f769i_discovery_qspi.c ****   if( QSPI_ExitMemory_QPI(&QSPIHandle )!=QSPI_OK )
 185:Drivers/BSP/STM32F769I-Discovery/stm32f769i_discovery_qspi.c ****   {
 186:Drivers/BSP/STM32F769I-Discovery/stm32f769i_discovery_qspi.c ****     return QSPI_NOT_SUPPORTED;
 187:Drivers/BSP/STM32F769I-Discovery/stm32f769i_discovery_qspi.c ****   }
 188:Drivers/BSP/STM32F769I-Discovery/stm32f769i_discovery_qspi.c ****   
 189:Drivers/BSP/STM32F769I-Discovery/stm32f769i_discovery_qspi.c ****   /* Call the DeInit function to reset the driver */
 190:Drivers/BSP/STM32F769I-Discovery/stm32f769i_discovery_qspi.c ****   if (HAL_QSPI_DeInit(&QSPIHandle) != HAL_OK)
 191:Drivers/BSP/STM32F769I-Discovery/stm32f769i_discovery_qspi.c ****   {
 192:Drivers/BSP/STM32F769I-Discovery/stm32f769i_discovery_qspi.c ****     return QSPI_ERROR;
 193:Drivers/BSP/STM32F769I-Discovery/stm32f769i_discovery_qspi.c ****   }
 194:Drivers/BSP/STM32F769I-Discovery/stm32f769i_discovery_qspi.c ****         
 195:Drivers/BSP/STM32F769I-Discovery/stm32f769i_discovery_qspi.c ****   /* System level De-initialization */
 196:Drivers/BSP/STM32F769I-Discovery/stm32f769i_discovery_qspi.c ****   BSP_QSPI_MspDeInit(&QSPIHandle, NULL);
 197:Drivers/BSP/STM32F769I-Discovery/stm32f769i_discovery_qspi.c ****   
 198:Drivers/BSP/STM32F769I-Discovery/stm32f769i_discovery_qspi.c ****   return QSPI_OK;
 199:Drivers/BSP/STM32F769I-Discovery/stm32f769i_discovery_qspi.c **** }
 200:Drivers/BSP/STM32F769I-Discovery/stm32f769i_discovery_qspi.c **** 
 201:Drivers/BSP/STM32F769I-Discovery/stm32f769i_discovery_qspi.c **** /**
 202:Drivers/BSP/STM32F769I-Discovery/stm32f769i_discovery_qspi.c ****   * @brief  Reads an amount of data from the QSPI memory.
ARM GAS  /var/folders/n6/c271nzx11xl4r4_m7sqjlt0m0000gn/T//cc22wCrs.s 			page 5


 203:Drivers/BSP/STM32F769I-Discovery/stm32f769i_discovery_qspi.c ****   * @param  pData: Pointer to data to be read
 204:Drivers/BSP/STM32F769I-Discovery/stm32f769i_discovery_qspi.c ****   * @param  ReadAddr: Read start address
 205:Drivers/BSP/STM32F769I-Discovery/stm32f769i_discovery_qspi.c ****   * @param  Size: Size of data to read    
 206:Drivers/BSP/STM32F769I-Discovery/stm32f769i_discovery_qspi.c ****   * @retval QSPI memory status
 207:Drivers/BSP/STM32F769I-Discovery/stm32f769i_discovery_qspi.c ****   */
 208:Drivers/BSP/STM32F769I-Discovery/stm32f769i_discovery_qspi.c **** uint8_t BSP_QSPI_Read(uint8_t* pData, uint32_t ReadAddr, uint32_t Size)
 209:Drivers/BSP/STM32F769I-Discovery/stm32f769i_discovery_qspi.c **** {
 210:Drivers/BSP/STM32F769I-Discovery/stm32f769i_discovery_qspi.c ****   QSPI_CommandTypeDef s_command;
 211:Drivers/BSP/STM32F769I-Discovery/stm32f769i_discovery_qspi.c **** 
 212:Drivers/BSP/STM32F769I-Discovery/stm32f769i_discovery_qspi.c ****   /* Initialize the read command */
 213:Drivers/BSP/STM32F769I-Discovery/stm32f769i_discovery_qspi.c ****   s_command.InstructionMode   = QSPI_INSTRUCTION_4_LINES;
 214:Drivers/BSP/STM32F769I-Discovery/stm32f769i_discovery_qspi.c ****   s_command.Instruction       = QPI_READ_4_BYTE_ADDR_CMD;
 215:Drivers/BSP/STM32F769I-Discovery/stm32f769i_discovery_qspi.c ****   s_command.AddressMode       = QSPI_ADDRESS_4_LINES;
 216:Drivers/BSP/STM32F769I-Discovery/stm32f769i_discovery_qspi.c ****   s_command.AddressSize       = QSPI_ADDRESS_32_BITS;
 217:Drivers/BSP/STM32F769I-Discovery/stm32f769i_discovery_qspi.c ****   s_command.Address           = ReadAddr;
 218:Drivers/BSP/STM32F769I-Discovery/stm32f769i_discovery_qspi.c ****   s_command.AlternateByteMode = QSPI_ALTERNATE_BYTES_NONE;
 219:Drivers/BSP/STM32F769I-Discovery/stm32f769i_discovery_qspi.c ****   s_command.DataMode          = QSPI_DATA_4_LINES;
 220:Drivers/BSP/STM32F769I-Discovery/stm32f769i_discovery_qspi.c ****   s_command.DummyCycles       = MX25L512_DUMMY_CYCLES_READ_QUAD_IO;
 221:Drivers/BSP/STM32F769I-Discovery/stm32f769i_discovery_qspi.c ****   s_command.NbData            = Size;
 222:Drivers/BSP/STM32F769I-Discovery/stm32f769i_discovery_qspi.c ****   s_command.DdrMode           = QSPI_DDR_MODE_DISABLE;
 223:Drivers/BSP/STM32F769I-Discovery/stm32f769i_discovery_qspi.c ****   s_command.DdrHoldHalfCycle  = QSPI_DDR_HHC_ANALOG_DELAY;
 224:Drivers/BSP/STM32F769I-Discovery/stm32f769i_discovery_qspi.c ****   s_command.SIOOMode          = QSPI_SIOO_INST_EVERY_CMD;
 225:Drivers/BSP/STM32F769I-Discovery/stm32f769i_discovery_qspi.c ****   
 226:Drivers/BSP/STM32F769I-Discovery/stm32f769i_discovery_qspi.c ****   /* Configure the command */
 227:Drivers/BSP/STM32F769I-Discovery/stm32f769i_discovery_qspi.c ****   if (HAL_QSPI_Command(&QSPIHandle, &s_command, HAL_QPSI_TIMEOUT_DEFAULT_VALUE) != HAL_OK)
 228:Drivers/BSP/STM32F769I-Discovery/stm32f769i_discovery_qspi.c ****   {
 229:Drivers/BSP/STM32F769I-Discovery/stm32f769i_discovery_qspi.c ****     return QSPI_ERROR;
 230:Drivers/BSP/STM32F769I-Discovery/stm32f769i_discovery_qspi.c ****   }
 231:Drivers/BSP/STM32F769I-Discovery/stm32f769i_discovery_qspi.c ****   
 232:Drivers/BSP/STM32F769I-Discovery/stm32f769i_discovery_qspi.c ****   /* Set S# timing for Read command */
 233:Drivers/BSP/STM32F769I-Discovery/stm32f769i_discovery_qspi.c ****   MODIFY_REG(QSPIHandle.Instance->DCR, QUADSPI_DCR_CSHT, QSPI_CS_HIGH_TIME_1_CYCLE);
 234:Drivers/BSP/STM32F769I-Discovery/stm32f769i_discovery_qspi.c ****   
 235:Drivers/BSP/STM32F769I-Discovery/stm32f769i_discovery_qspi.c ****   /* Reception of the data */
 236:Drivers/BSP/STM32F769I-Discovery/stm32f769i_discovery_qspi.c ****   if (HAL_QSPI_Receive(&QSPIHandle, pData, HAL_QPSI_TIMEOUT_DEFAULT_VALUE) != HAL_OK)
 237:Drivers/BSP/STM32F769I-Discovery/stm32f769i_discovery_qspi.c ****   {
 238:Drivers/BSP/STM32F769I-Discovery/stm32f769i_discovery_qspi.c ****     return QSPI_ERROR;
 239:Drivers/BSP/STM32F769I-Discovery/stm32f769i_discovery_qspi.c ****   }
 240:Drivers/BSP/STM32F769I-Discovery/stm32f769i_discovery_qspi.c ****   
 241:Drivers/BSP/STM32F769I-Discovery/stm32f769i_discovery_qspi.c ****   /* Restore S# timing for nonRead commands */
 242:Drivers/BSP/STM32F769I-Discovery/stm32f769i_discovery_qspi.c ****   MODIFY_REG(QSPIHandle.Instance->DCR, QUADSPI_DCR_CSHT, QSPI_CS_HIGH_TIME_4_CYCLE);
 243:Drivers/BSP/STM32F769I-Discovery/stm32f769i_discovery_qspi.c **** 
 244:Drivers/BSP/STM32F769I-Discovery/stm32f769i_discovery_qspi.c ****   return QSPI_OK;
 245:Drivers/BSP/STM32F769I-Discovery/stm32f769i_discovery_qspi.c **** }
 246:Drivers/BSP/STM32F769I-Discovery/stm32f769i_discovery_qspi.c **** 
 247:Drivers/BSP/STM32F769I-Discovery/stm32f769i_discovery_qspi.c **** /**
 248:Drivers/BSP/STM32F769I-Discovery/stm32f769i_discovery_qspi.c ****   * @brief  Writes an amount of data to the QSPI memory.
 249:Drivers/BSP/STM32F769I-Discovery/stm32f769i_discovery_qspi.c ****   * @param  pData: Pointer to data to be written
 250:Drivers/BSP/STM32F769I-Discovery/stm32f769i_discovery_qspi.c ****   * @param  WriteAddr: Write start address
 251:Drivers/BSP/STM32F769I-Discovery/stm32f769i_discovery_qspi.c ****   * @param  Size: Size of data to write    
 252:Drivers/BSP/STM32F769I-Discovery/stm32f769i_discovery_qspi.c ****   * @retval QSPI memory status
 253:Drivers/BSP/STM32F769I-Discovery/stm32f769i_discovery_qspi.c ****   */
 254:Drivers/BSP/STM32F769I-Discovery/stm32f769i_discovery_qspi.c **** uint8_t BSP_QSPI_Write(uint8_t* pData, uint32_t WriteAddr, uint32_t Size)
 255:Drivers/BSP/STM32F769I-Discovery/stm32f769i_discovery_qspi.c **** {
 256:Drivers/BSP/STM32F769I-Discovery/stm32f769i_discovery_qspi.c ****   QSPI_CommandTypeDef s_command;
 257:Drivers/BSP/STM32F769I-Discovery/stm32f769i_discovery_qspi.c ****   uint32_t end_addr, current_size, current_addr;
 258:Drivers/BSP/STM32F769I-Discovery/stm32f769i_discovery_qspi.c **** 
 259:Drivers/BSP/STM32F769I-Discovery/stm32f769i_discovery_qspi.c ****   /* Calculation of the size between the write address and the end of the page */
ARM GAS  /var/folders/n6/c271nzx11xl4r4_m7sqjlt0m0000gn/T//cc22wCrs.s 			page 6


 260:Drivers/BSP/STM32F769I-Discovery/stm32f769i_discovery_qspi.c ****   current_size = MX25L512_PAGE_SIZE - (WriteAddr % MX25L512_PAGE_SIZE);
 261:Drivers/BSP/STM32F769I-Discovery/stm32f769i_discovery_qspi.c **** 
 262:Drivers/BSP/STM32F769I-Discovery/stm32f769i_discovery_qspi.c ****   /* Check if the size of the data is less than the remaining place in the page */
 263:Drivers/BSP/STM32F769I-Discovery/stm32f769i_discovery_qspi.c ****   if (current_size > Size)
 264:Drivers/BSP/STM32F769I-Discovery/stm32f769i_discovery_qspi.c ****   {
 265:Drivers/BSP/STM32F769I-Discovery/stm32f769i_discovery_qspi.c ****     current_size = Size;
 266:Drivers/BSP/STM32F769I-Discovery/stm32f769i_discovery_qspi.c ****   }
 267:Drivers/BSP/STM32F769I-Discovery/stm32f769i_discovery_qspi.c **** 
 268:Drivers/BSP/STM32F769I-Discovery/stm32f769i_discovery_qspi.c ****   /* Initialize the address variables */
 269:Drivers/BSP/STM32F769I-Discovery/stm32f769i_discovery_qspi.c ****   current_addr = WriteAddr;
 270:Drivers/BSP/STM32F769I-Discovery/stm32f769i_discovery_qspi.c ****   end_addr = WriteAddr + Size;
 271:Drivers/BSP/STM32F769I-Discovery/stm32f769i_discovery_qspi.c **** 
 272:Drivers/BSP/STM32F769I-Discovery/stm32f769i_discovery_qspi.c ****   /* Initialize the program command */
 273:Drivers/BSP/STM32F769I-Discovery/stm32f769i_discovery_qspi.c ****   s_command.InstructionMode   = QSPI_INSTRUCTION_4_LINES;
 274:Drivers/BSP/STM32F769I-Discovery/stm32f769i_discovery_qspi.c ****   s_command.Instruction       = QPI_PAGE_PROG_4_BYTE_ADDR_CMD;
 275:Drivers/BSP/STM32F769I-Discovery/stm32f769i_discovery_qspi.c ****   s_command.AddressMode       = QSPI_ADDRESS_4_LINES;
 276:Drivers/BSP/STM32F769I-Discovery/stm32f769i_discovery_qspi.c ****   s_command.AddressSize       = QSPI_ADDRESS_32_BITS;
 277:Drivers/BSP/STM32F769I-Discovery/stm32f769i_discovery_qspi.c ****   s_command.AlternateByteMode = QSPI_ALTERNATE_BYTES_NONE;
 278:Drivers/BSP/STM32F769I-Discovery/stm32f769i_discovery_qspi.c ****   s_command.DataMode          = QSPI_DATA_4_LINES;
 279:Drivers/BSP/STM32F769I-Discovery/stm32f769i_discovery_qspi.c ****   s_command.DummyCycles       = 0;
 280:Drivers/BSP/STM32F769I-Discovery/stm32f769i_discovery_qspi.c ****   s_command.DdrMode           = QSPI_DDR_MODE_DISABLE;
 281:Drivers/BSP/STM32F769I-Discovery/stm32f769i_discovery_qspi.c ****   s_command.DdrHoldHalfCycle  = QSPI_DDR_HHC_ANALOG_DELAY;
 282:Drivers/BSP/STM32F769I-Discovery/stm32f769i_discovery_qspi.c ****   s_command.SIOOMode          = QSPI_SIOO_INST_EVERY_CMD;
 283:Drivers/BSP/STM32F769I-Discovery/stm32f769i_discovery_qspi.c ****   
 284:Drivers/BSP/STM32F769I-Discovery/stm32f769i_discovery_qspi.c ****   /* Perform the write page by page */
 285:Drivers/BSP/STM32F769I-Discovery/stm32f769i_discovery_qspi.c ****   do
 286:Drivers/BSP/STM32F769I-Discovery/stm32f769i_discovery_qspi.c ****   {
 287:Drivers/BSP/STM32F769I-Discovery/stm32f769i_discovery_qspi.c ****     s_command.Address = current_addr;
 288:Drivers/BSP/STM32F769I-Discovery/stm32f769i_discovery_qspi.c ****     s_command.NbData  = current_size;
 289:Drivers/BSP/STM32F769I-Discovery/stm32f769i_discovery_qspi.c **** 
 290:Drivers/BSP/STM32F769I-Discovery/stm32f769i_discovery_qspi.c ****     /* Enable write operations */
 291:Drivers/BSP/STM32F769I-Discovery/stm32f769i_discovery_qspi.c ****     if (QSPI_WriteEnable(&QSPIHandle) != QSPI_OK)
 292:Drivers/BSP/STM32F769I-Discovery/stm32f769i_discovery_qspi.c ****     {
 293:Drivers/BSP/STM32F769I-Discovery/stm32f769i_discovery_qspi.c ****       return QSPI_ERROR;
 294:Drivers/BSP/STM32F769I-Discovery/stm32f769i_discovery_qspi.c ****     }
 295:Drivers/BSP/STM32F769I-Discovery/stm32f769i_discovery_qspi.c ****     
 296:Drivers/BSP/STM32F769I-Discovery/stm32f769i_discovery_qspi.c ****     /* Configure the command */
 297:Drivers/BSP/STM32F769I-Discovery/stm32f769i_discovery_qspi.c ****     if (HAL_QSPI_Command(&QSPIHandle, &s_command, HAL_QPSI_TIMEOUT_DEFAULT_VALUE) != HAL_OK)
 298:Drivers/BSP/STM32F769I-Discovery/stm32f769i_discovery_qspi.c ****     {
 299:Drivers/BSP/STM32F769I-Discovery/stm32f769i_discovery_qspi.c ****       return QSPI_ERROR;
 300:Drivers/BSP/STM32F769I-Discovery/stm32f769i_discovery_qspi.c ****     }
 301:Drivers/BSP/STM32F769I-Discovery/stm32f769i_discovery_qspi.c ****     
 302:Drivers/BSP/STM32F769I-Discovery/stm32f769i_discovery_qspi.c ****     /* Transmission of the data */
 303:Drivers/BSP/STM32F769I-Discovery/stm32f769i_discovery_qspi.c ****     if (HAL_QSPI_Transmit(&QSPIHandle, pData, HAL_QPSI_TIMEOUT_DEFAULT_VALUE) != HAL_OK)
 304:Drivers/BSP/STM32F769I-Discovery/stm32f769i_discovery_qspi.c ****     {
 305:Drivers/BSP/STM32F769I-Discovery/stm32f769i_discovery_qspi.c ****       return QSPI_ERROR;
 306:Drivers/BSP/STM32F769I-Discovery/stm32f769i_discovery_qspi.c ****     }
 307:Drivers/BSP/STM32F769I-Discovery/stm32f769i_discovery_qspi.c ****     
 308:Drivers/BSP/STM32F769I-Discovery/stm32f769i_discovery_qspi.c ****     /* Configure automatic polling mode to wait for end of program */  
 309:Drivers/BSP/STM32F769I-Discovery/stm32f769i_discovery_qspi.c ****     if (QSPI_AutoPollingMemReady(&QSPIHandle, HAL_QPSI_TIMEOUT_DEFAULT_VALUE) != QSPI_OK)
 310:Drivers/BSP/STM32F769I-Discovery/stm32f769i_discovery_qspi.c ****     {
 311:Drivers/BSP/STM32F769I-Discovery/stm32f769i_discovery_qspi.c ****       return QSPI_ERROR;
 312:Drivers/BSP/STM32F769I-Discovery/stm32f769i_discovery_qspi.c ****     }
 313:Drivers/BSP/STM32F769I-Discovery/stm32f769i_discovery_qspi.c ****     
 314:Drivers/BSP/STM32F769I-Discovery/stm32f769i_discovery_qspi.c ****     /* Update the address and size variables for next page programming */
 315:Drivers/BSP/STM32F769I-Discovery/stm32f769i_discovery_qspi.c ****     current_addr += current_size;
 316:Drivers/BSP/STM32F769I-Discovery/stm32f769i_discovery_qspi.c ****     pData += current_size;
ARM GAS  /var/folders/n6/c271nzx11xl4r4_m7sqjlt0m0000gn/T//cc22wCrs.s 			page 7


 317:Drivers/BSP/STM32F769I-Discovery/stm32f769i_discovery_qspi.c ****     current_size = ((current_addr + MX25L512_PAGE_SIZE) > end_addr) ? (end_addr - current_addr) : M
 318:Drivers/BSP/STM32F769I-Discovery/stm32f769i_discovery_qspi.c ****   } while (current_addr < end_addr);
 319:Drivers/BSP/STM32F769I-Discovery/stm32f769i_discovery_qspi.c ****   
 320:Drivers/BSP/STM32F769I-Discovery/stm32f769i_discovery_qspi.c ****   return QSPI_OK;
 321:Drivers/BSP/STM32F769I-Discovery/stm32f769i_discovery_qspi.c **** }
 322:Drivers/BSP/STM32F769I-Discovery/stm32f769i_discovery_qspi.c **** 
 323:Drivers/BSP/STM32F769I-Discovery/stm32f769i_discovery_qspi.c **** /**
 324:Drivers/BSP/STM32F769I-Discovery/stm32f769i_discovery_qspi.c ****   * @brief  Erases the specified block of the QSPI memory. 
 325:Drivers/BSP/STM32F769I-Discovery/stm32f769i_discovery_qspi.c ****   * @param  BlockAddress: Block address to erase  
 326:Drivers/BSP/STM32F769I-Discovery/stm32f769i_discovery_qspi.c ****   * @retval QSPI memory status
 327:Drivers/BSP/STM32F769I-Discovery/stm32f769i_discovery_qspi.c ****   */
 328:Drivers/BSP/STM32F769I-Discovery/stm32f769i_discovery_qspi.c **** uint8_t BSP_QSPI_Erase_Block(uint32_t BlockAddress)
 329:Drivers/BSP/STM32F769I-Discovery/stm32f769i_discovery_qspi.c **** {
 330:Drivers/BSP/STM32F769I-Discovery/stm32f769i_discovery_qspi.c ****   QSPI_CommandTypeDef s_command;
 331:Drivers/BSP/STM32F769I-Discovery/stm32f769i_discovery_qspi.c **** 
 332:Drivers/BSP/STM32F769I-Discovery/stm32f769i_discovery_qspi.c ****   /* Initialize the erase command */
 333:Drivers/BSP/STM32F769I-Discovery/stm32f769i_discovery_qspi.c ****   s_command.InstructionMode   = QSPI_INSTRUCTION_4_LINES;
 334:Drivers/BSP/STM32F769I-Discovery/stm32f769i_discovery_qspi.c ****   s_command.Instruction       = SUBSECTOR_ERASE_4_BYTE_ADDR_CMD;
 335:Drivers/BSP/STM32F769I-Discovery/stm32f769i_discovery_qspi.c ****   s_command.AddressMode       = QSPI_ADDRESS_4_LINES;
 336:Drivers/BSP/STM32F769I-Discovery/stm32f769i_discovery_qspi.c ****   s_command.AddressSize       = QSPI_ADDRESS_32_BITS;
 337:Drivers/BSP/STM32F769I-Discovery/stm32f769i_discovery_qspi.c ****   s_command.Address           = BlockAddress;
 338:Drivers/BSP/STM32F769I-Discovery/stm32f769i_discovery_qspi.c ****   s_command.AlternateByteMode = QSPI_ALTERNATE_BYTES_NONE;
 339:Drivers/BSP/STM32F769I-Discovery/stm32f769i_discovery_qspi.c ****   s_command.DataMode          = QSPI_DATA_NONE;
 340:Drivers/BSP/STM32F769I-Discovery/stm32f769i_discovery_qspi.c ****   s_command.DummyCycles       = 0;
 341:Drivers/BSP/STM32F769I-Discovery/stm32f769i_discovery_qspi.c ****   s_command.DdrMode           = QSPI_DDR_MODE_DISABLE;
 342:Drivers/BSP/STM32F769I-Discovery/stm32f769i_discovery_qspi.c ****   s_command.DdrHoldHalfCycle  = QSPI_DDR_HHC_ANALOG_DELAY;
 343:Drivers/BSP/STM32F769I-Discovery/stm32f769i_discovery_qspi.c ****   s_command.SIOOMode          = QSPI_SIOO_INST_EVERY_CMD;
 344:Drivers/BSP/STM32F769I-Discovery/stm32f769i_discovery_qspi.c **** 
 345:Drivers/BSP/STM32F769I-Discovery/stm32f769i_discovery_qspi.c ****   /* Enable write operations */
 346:Drivers/BSP/STM32F769I-Discovery/stm32f769i_discovery_qspi.c ****   if (QSPI_WriteEnable(&QSPIHandle) != QSPI_OK)
 347:Drivers/BSP/STM32F769I-Discovery/stm32f769i_discovery_qspi.c ****   {
 348:Drivers/BSP/STM32F769I-Discovery/stm32f769i_discovery_qspi.c ****     return QSPI_ERROR;
 349:Drivers/BSP/STM32F769I-Discovery/stm32f769i_discovery_qspi.c ****   }
 350:Drivers/BSP/STM32F769I-Discovery/stm32f769i_discovery_qspi.c **** 
 351:Drivers/BSP/STM32F769I-Discovery/stm32f769i_discovery_qspi.c ****   /* Send the command */
 352:Drivers/BSP/STM32F769I-Discovery/stm32f769i_discovery_qspi.c ****   if (HAL_QSPI_Command(&QSPIHandle, &s_command, HAL_QPSI_TIMEOUT_DEFAULT_VALUE) != HAL_OK)
 353:Drivers/BSP/STM32F769I-Discovery/stm32f769i_discovery_qspi.c ****   {
 354:Drivers/BSP/STM32F769I-Discovery/stm32f769i_discovery_qspi.c ****     return QSPI_ERROR;
 355:Drivers/BSP/STM32F769I-Discovery/stm32f769i_discovery_qspi.c ****   }
 356:Drivers/BSP/STM32F769I-Discovery/stm32f769i_discovery_qspi.c ****   
 357:Drivers/BSP/STM32F769I-Discovery/stm32f769i_discovery_qspi.c ****   /* Configure automatic polling mode to wait for end of erase */  
 358:Drivers/BSP/STM32F769I-Discovery/stm32f769i_discovery_qspi.c ****   if (QSPI_AutoPollingMemReady(&QSPIHandle, MX25L512_SUBSECTOR_ERASE_MAX_TIME) != QSPI_OK)
 359:Drivers/BSP/STM32F769I-Discovery/stm32f769i_discovery_qspi.c ****   {
 360:Drivers/BSP/STM32F769I-Discovery/stm32f769i_discovery_qspi.c ****     return QSPI_ERROR;
 361:Drivers/BSP/STM32F769I-Discovery/stm32f769i_discovery_qspi.c ****   }
 362:Drivers/BSP/STM32F769I-Discovery/stm32f769i_discovery_qspi.c **** 
 363:Drivers/BSP/STM32F769I-Discovery/stm32f769i_discovery_qspi.c ****   return QSPI_OK;
 364:Drivers/BSP/STM32F769I-Discovery/stm32f769i_discovery_qspi.c **** }
 365:Drivers/BSP/STM32F769I-Discovery/stm32f769i_discovery_qspi.c **** 
 366:Drivers/BSP/STM32F769I-Discovery/stm32f769i_discovery_qspi.c **** /**
 367:Drivers/BSP/STM32F769I-Discovery/stm32f769i_discovery_qspi.c ****   * @brief  Erases the entire QSPI memory.
 368:Drivers/BSP/STM32F769I-Discovery/stm32f769i_discovery_qspi.c ****   * @retval QSPI memory status
 369:Drivers/BSP/STM32F769I-Discovery/stm32f769i_discovery_qspi.c ****   */
 370:Drivers/BSP/STM32F769I-Discovery/stm32f769i_discovery_qspi.c **** uint8_t BSP_QSPI_Erase_Chip(void)
 371:Drivers/BSP/STM32F769I-Discovery/stm32f769i_discovery_qspi.c **** {
 372:Drivers/BSP/STM32F769I-Discovery/stm32f769i_discovery_qspi.c ****   QSPI_CommandTypeDef s_command;
 373:Drivers/BSP/STM32F769I-Discovery/stm32f769i_discovery_qspi.c **** 
ARM GAS  /var/folders/n6/c271nzx11xl4r4_m7sqjlt0m0000gn/T//cc22wCrs.s 			page 8


 374:Drivers/BSP/STM32F769I-Discovery/stm32f769i_discovery_qspi.c ****   /* Initialize the erase command */
 375:Drivers/BSP/STM32F769I-Discovery/stm32f769i_discovery_qspi.c ****   s_command.InstructionMode   = QSPI_INSTRUCTION_4_LINES;
 376:Drivers/BSP/STM32F769I-Discovery/stm32f769i_discovery_qspi.c ****   s_command.Instruction       = BULK_ERASE_CMD;
 377:Drivers/BSP/STM32F769I-Discovery/stm32f769i_discovery_qspi.c ****   s_command.AddressMode       = QSPI_ADDRESS_NONE;
 378:Drivers/BSP/STM32F769I-Discovery/stm32f769i_discovery_qspi.c ****   s_command.AlternateByteMode = QSPI_ALTERNATE_BYTES_NONE;
 379:Drivers/BSP/STM32F769I-Discovery/stm32f769i_discovery_qspi.c ****   s_command.DataMode          = QSPI_DATA_NONE;
 380:Drivers/BSP/STM32F769I-Discovery/stm32f769i_discovery_qspi.c ****   s_command.DummyCycles       = 0;
 381:Drivers/BSP/STM32F769I-Discovery/stm32f769i_discovery_qspi.c ****   s_command.DdrMode           = QSPI_DDR_MODE_DISABLE;
 382:Drivers/BSP/STM32F769I-Discovery/stm32f769i_discovery_qspi.c ****   s_command.DdrHoldHalfCycle  = QSPI_DDR_HHC_ANALOG_DELAY;
 383:Drivers/BSP/STM32F769I-Discovery/stm32f769i_discovery_qspi.c ****   s_command.SIOOMode          = QSPI_SIOO_INST_EVERY_CMD;
 384:Drivers/BSP/STM32F769I-Discovery/stm32f769i_discovery_qspi.c **** 
 385:Drivers/BSP/STM32F769I-Discovery/stm32f769i_discovery_qspi.c ****   /* Enable write operations */
 386:Drivers/BSP/STM32F769I-Discovery/stm32f769i_discovery_qspi.c ****   if (QSPI_WriteEnable(&QSPIHandle) != QSPI_OK)
 387:Drivers/BSP/STM32F769I-Discovery/stm32f769i_discovery_qspi.c ****   {
 388:Drivers/BSP/STM32F769I-Discovery/stm32f769i_discovery_qspi.c ****     return QSPI_ERROR;
 389:Drivers/BSP/STM32F769I-Discovery/stm32f769i_discovery_qspi.c ****   }
 390:Drivers/BSP/STM32F769I-Discovery/stm32f769i_discovery_qspi.c **** 
 391:Drivers/BSP/STM32F769I-Discovery/stm32f769i_discovery_qspi.c ****   /* Send the command */
 392:Drivers/BSP/STM32F769I-Discovery/stm32f769i_discovery_qspi.c ****   if (HAL_QSPI_Command(&QSPIHandle, &s_command, HAL_QPSI_TIMEOUT_DEFAULT_VALUE) != HAL_OK)
 393:Drivers/BSP/STM32F769I-Discovery/stm32f769i_discovery_qspi.c ****   {
 394:Drivers/BSP/STM32F769I-Discovery/stm32f769i_discovery_qspi.c ****     return QSPI_ERROR;
 395:Drivers/BSP/STM32F769I-Discovery/stm32f769i_discovery_qspi.c ****   }
 396:Drivers/BSP/STM32F769I-Discovery/stm32f769i_discovery_qspi.c ****   
 397:Drivers/BSP/STM32F769I-Discovery/stm32f769i_discovery_qspi.c ****   /* Configure automatic polling mode to wait for end of erase */  
 398:Drivers/BSP/STM32F769I-Discovery/stm32f769i_discovery_qspi.c ****   if (QSPI_AutoPollingMemReady(&QSPIHandle, MX25L512_BULK_ERASE_MAX_TIME) != QSPI_OK)
 399:Drivers/BSP/STM32F769I-Discovery/stm32f769i_discovery_qspi.c ****   {
 400:Drivers/BSP/STM32F769I-Discovery/stm32f769i_discovery_qspi.c ****     return QSPI_ERROR;
 401:Drivers/BSP/STM32F769I-Discovery/stm32f769i_discovery_qspi.c ****   }
 402:Drivers/BSP/STM32F769I-Discovery/stm32f769i_discovery_qspi.c **** 
 403:Drivers/BSP/STM32F769I-Discovery/stm32f769i_discovery_qspi.c ****   return QSPI_OK;
 404:Drivers/BSP/STM32F769I-Discovery/stm32f769i_discovery_qspi.c **** }
 405:Drivers/BSP/STM32F769I-Discovery/stm32f769i_discovery_qspi.c **** 
 406:Drivers/BSP/STM32F769I-Discovery/stm32f769i_discovery_qspi.c **** /**
 407:Drivers/BSP/STM32F769I-Discovery/stm32f769i_discovery_qspi.c ****   * @brief  Reads current status of the QSPI memory.
 408:Drivers/BSP/STM32F769I-Discovery/stm32f769i_discovery_qspi.c ****   * @retval QSPI memory status
 409:Drivers/BSP/STM32F769I-Discovery/stm32f769i_discovery_qspi.c ****   */
 410:Drivers/BSP/STM32F769I-Discovery/stm32f769i_discovery_qspi.c **** uint8_t BSP_QSPI_GetStatus(void)
 411:Drivers/BSP/STM32F769I-Discovery/stm32f769i_discovery_qspi.c **** {
 412:Drivers/BSP/STM32F769I-Discovery/stm32f769i_discovery_qspi.c ****   QSPI_CommandTypeDef s_command;
 413:Drivers/BSP/STM32F769I-Discovery/stm32f769i_discovery_qspi.c ****   uint8_t reg;
 414:Drivers/BSP/STM32F769I-Discovery/stm32f769i_discovery_qspi.c ****   
 415:Drivers/BSP/STM32F769I-Discovery/stm32f769i_discovery_qspi.c ****   /* Initialize the read flag status register command */
 416:Drivers/BSP/STM32F769I-Discovery/stm32f769i_discovery_qspi.c ****   s_command.InstructionMode   = QSPI_INSTRUCTION_4_LINES;
 417:Drivers/BSP/STM32F769I-Discovery/stm32f769i_discovery_qspi.c ****   s_command.Instruction       = READ_STATUS_REG_CMD;
 418:Drivers/BSP/STM32F769I-Discovery/stm32f769i_discovery_qspi.c ****   s_command.AddressMode       = QSPI_ADDRESS_NONE;
 419:Drivers/BSP/STM32F769I-Discovery/stm32f769i_discovery_qspi.c ****   s_command.AlternateByteMode = QSPI_ALTERNATE_BYTES_NONE;
 420:Drivers/BSP/STM32F769I-Discovery/stm32f769i_discovery_qspi.c ****   s_command.DataMode          = QSPI_DATA_4_LINES;
 421:Drivers/BSP/STM32F769I-Discovery/stm32f769i_discovery_qspi.c ****   s_command.DummyCycles       = 0;
 422:Drivers/BSP/STM32F769I-Discovery/stm32f769i_discovery_qspi.c ****   s_command.NbData            = 1;
 423:Drivers/BSP/STM32F769I-Discovery/stm32f769i_discovery_qspi.c ****   s_command.DdrMode           = QSPI_DDR_MODE_DISABLE;
 424:Drivers/BSP/STM32F769I-Discovery/stm32f769i_discovery_qspi.c ****   s_command.DdrHoldHalfCycle  = QSPI_DDR_HHC_ANALOG_DELAY;
 425:Drivers/BSP/STM32F769I-Discovery/stm32f769i_discovery_qspi.c ****   s_command.SIOOMode          = QSPI_SIOO_INST_EVERY_CMD;
 426:Drivers/BSP/STM32F769I-Discovery/stm32f769i_discovery_qspi.c ****   
 427:Drivers/BSP/STM32F769I-Discovery/stm32f769i_discovery_qspi.c ****   /* Configure the command */
 428:Drivers/BSP/STM32F769I-Discovery/stm32f769i_discovery_qspi.c ****   if (HAL_QSPI_Command(&QSPIHandle, &s_command, HAL_QPSI_TIMEOUT_DEFAULT_VALUE) != HAL_OK)
 429:Drivers/BSP/STM32F769I-Discovery/stm32f769i_discovery_qspi.c ****   {
 430:Drivers/BSP/STM32F769I-Discovery/stm32f769i_discovery_qspi.c ****     return QSPI_ERROR;
ARM GAS  /var/folders/n6/c271nzx11xl4r4_m7sqjlt0m0000gn/T//cc22wCrs.s 			page 9


 431:Drivers/BSP/STM32F769I-Discovery/stm32f769i_discovery_qspi.c ****   }
 432:Drivers/BSP/STM32F769I-Discovery/stm32f769i_discovery_qspi.c ****   
 433:Drivers/BSP/STM32F769I-Discovery/stm32f769i_discovery_qspi.c ****   /* Reception of the data */
 434:Drivers/BSP/STM32F769I-Discovery/stm32f769i_discovery_qspi.c ****   if (HAL_QSPI_Receive(&QSPIHandle, &reg, HAL_QPSI_TIMEOUT_DEFAULT_VALUE) != HAL_OK)
 435:Drivers/BSP/STM32F769I-Discovery/stm32f769i_discovery_qspi.c ****   {
 436:Drivers/BSP/STM32F769I-Discovery/stm32f769i_discovery_qspi.c ****     return QSPI_ERROR;
 437:Drivers/BSP/STM32F769I-Discovery/stm32f769i_discovery_qspi.c ****   }
 438:Drivers/BSP/STM32F769I-Discovery/stm32f769i_discovery_qspi.c ****   
 439:Drivers/BSP/STM32F769I-Discovery/stm32f769i_discovery_qspi.c ****   /* Check the value of the register*/ 
 440:Drivers/BSP/STM32F769I-Discovery/stm32f769i_discovery_qspi.c ****   if ((reg & MX25L512_SR_WIP) == 0)
 441:Drivers/BSP/STM32F769I-Discovery/stm32f769i_discovery_qspi.c ****   {
 442:Drivers/BSP/STM32F769I-Discovery/stm32f769i_discovery_qspi.c ****     return QSPI_OK;
 443:Drivers/BSP/STM32F769I-Discovery/stm32f769i_discovery_qspi.c ****   }
 444:Drivers/BSP/STM32F769I-Discovery/stm32f769i_discovery_qspi.c ****   else
 445:Drivers/BSP/STM32F769I-Discovery/stm32f769i_discovery_qspi.c ****   {
 446:Drivers/BSP/STM32F769I-Discovery/stm32f769i_discovery_qspi.c ****     return QSPI_BUSY;
 447:Drivers/BSP/STM32F769I-Discovery/stm32f769i_discovery_qspi.c ****   }
 448:Drivers/BSP/STM32F769I-Discovery/stm32f769i_discovery_qspi.c **** }
 449:Drivers/BSP/STM32F769I-Discovery/stm32f769i_discovery_qspi.c **** 
 450:Drivers/BSP/STM32F769I-Discovery/stm32f769i_discovery_qspi.c **** /**
 451:Drivers/BSP/STM32F769I-Discovery/stm32f769i_discovery_qspi.c ****   * @brief  Return the configuration of the QSPI memory.
 452:Drivers/BSP/STM32F769I-Discovery/stm32f769i_discovery_qspi.c ****   * @param  pInfo: pointer on the configuration structure  
 453:Drivers/BSP/STM32F769I-Discovery/stm32f769i_discovery_qspi.c ****   * @retval QSPI memory status
 454:Drivers/BSP/STM32F769I-Discovery/stm32f769i_discovery_qspi.c ****   */
 455:Drivers/BSP/STM32F769I-Discovery/stm32f769i_discovery_qspi.c **** uint8_t BSP_QSPI_GetInfo(QSPI_Info* pInfo)
 456:Drivers/BSP/STM32F769I-Discovery/stm32f769i_discovery_qspi.c **** {
 457:Drivers/BSP/STM32F769I-Discovery/stm32f769i_discovery_qspi.c ****   /* Configure the structure with the memory configuration */
 458:Drivers/BSP/STM32F769I-Discovery/stm32f769i_discovery_qspi.c ****   pInfo->FlashSize          = MX25L512_FLASH_SIZE;
 459:Drivers/BSP/STM32F769I-Discovery/stm32f769i_discovery_qspi.c ****   pInfo->EraseSectorSize    = MX25L512_SUBSECTOR_SIZE;
 460:Drivers/BSP/STM32F769I-Discovery/stm32f769i_discovery_qspi.c ****   pInfo->EraseSectorsNumber = (MX25L512_FLASH_SIZE/MX25L512_SUBSECTOR_SIZE);
 461:Drivers/BSP/STM32F769I-Discovery/stm32f769i_discovery_qspi.c ****   pInfo->ProgPageSize       = MX25L512_PAGE_SIZE;
 462:Drivers/BSP/STM32F769I-Discovery/stm32f769i_discovery_qspi.c ****   pInfo->ProgPagesNumber    = (MX25L512_FLASH_SIZE/MX25L512_PAGE_SIZE);
 463:Drivers/BSP/STM32F769I-Discovery/stm32f769i_discovery_qspi.c ****   
 464:Drivers/BSP/STM32F769I-Discovery/stm32f769i_discovery_qspi.c ****   return QSPI_OK;
 465:Drivers/BSP/STM32F769I-Discovery/stm32f769i_discovery_qspi.c **** }
 466:Drivers/BSP/STM32F769I-Discovery/stm32f769i_discovery_qspi.c **** 
 467:Drivers/BSP/STM32F769I-Discovery/stm32f769i_discovery_qspi.c **** /**
 468:Drivers/BSP/STM32F769I-Discovery/stm32f769i_discovery_qspi.c ****   * @brief  Configure the QSPI in memory-mapped mode
 469:Drivers/BSP/STM32F769I-Discovery/stm32f769i_discovery_qspi.c ****   * @retval QSPI memory status
 470:Drivers/BSP/STM32F769I-Discovery/stm32f769i_discovery_qspi.c ****   */
 471:Drivers/BSP/STM32F769I-Discovery/stm32f769i_discovery_qspi.c **** uint8_t BSP_QSPI_EnableMemoryMappedMode(void)
 472:Drivers/BSP/STM32F769I-Discovery/stm32f769i_discovery_qspi.c **** {
 473:Drivers/BSP/STM32F769I-Discovery/stm32f769i_discovery_qspi.c ****   QSPI_CommandTypeDef      s_command;
 474:Drivers/BSP/STM32F769I-Discovery/stm32f769i_discovery_qspi.c ****   QSPI_MemoryMappedTypeDef s_mem_mapped_cfg;
 475:Drivers/BSP/STM32F769I-Discovery/stm32f769i_discovery_qspi.c **** 
 476:Drivers/BSP/STM32F769I-Discovery/stm32f769i_discovery_qspi.c ****   /* Configure the command for the read instruction */
 477:Drivers/BSP/STM32F769I-Discovery/stm32f769i_discovery_qspi.c ****   s_command.InstructionMode   = QSPI_INSTRUCTION_4_LINES;
 478:Drivers/BSP/STM32F769I-Discovery/stm32f769i_discovery_qspi.c ****   s_command.Instruction       = QPI_READ_4_BYTE_ADDR_CMD;
 479:Drivers/BSP/STM32F769I-Discovery/stm32f769i_discovery_qspi.c ****   s_command.AddressMode       = QSPI_ADDRESS_4_LINES;
 480:Drivers/BSP/STM32F769I-Discovery/stm32f769i_discovery_qspi.c ****   s_command.AddressSize       = QSPI_ADDRESS_32_BITS;
 481:Drivers/BSP/STM32F769I-Discovery/stm32f769i_discovery_qspi.c ****   s_command.AlternateByteMode = QSPI_ALTERNATE_BYTES_NONE;
 482:Drivers/BSP/STM32F769I-Discovery/stm32f769i_discovery_qspi.c ****   s_command.DataMode          = QSPI_DATA_4_LINES;
 483:Drivers/BSP/STM32F769I-Discovery/stm32f769i_discovery_qspi.c ****   s_command.DummyCycles       = MX25L512_DUMMY_CYCLES_READ_QUAD_IO;
 484:Drivers/BSP/STM32F769I-Discovery/stm32f769i_discovery_qspi.c ****   s_command.DdrMode           = QSPI_DDR_MODE_DISABLE;
 485:Drivers/BSP/STM32F769I-Discovery/stm32f769i_discovery_qspi.c ****   s_command.DdrHoldHalfCycle  = QSPI_DDR_HHC_ANALOG_DELAY;
 486:Drivers/BSP/STM32F769I-Discovery/stm32f769i_discovery_qspi.c ****   s_command.SIOOMode          = QSPI_SIOO_INST_EVERY_CMD;
 487:Drivers/BSP/STM32F769I-Discovery/stm32f769i_discovery_qspi.c ****   
ARM GAS  /var/folders/n6/c271nzx11xl4r4_m7sqjlt0m0000gn/T//cc22wCrs.s 			page 10


 488:Drivers/BSP/STM32F769I-Discovery/stm32f769i_discovery_qspi.c ****   /* Configure the memory mapped mode */
 489:Drivers/BSP/STM32F769I-Discovery/stm32f769i_discovery_qspi.c ****   s_mem_mapped_cfg.TimeOutActivation = QSPI_TIMEOUT_COUNTER_DISABLE;
 490:Drivers/BSP/STM32F769I-Discovery/stm32f769i_discovery_qspi.c ****   s_mem_mapped_cfg.TimeOutPeriod     = 0;
 491:Drivers/BSP/STM32F769I-Discovery/stm32f769i_discovery_qspi.c ****   
 492:Drivers/BSP/STM32F769I-Discovery/stm32f769i_discovery_qspi.c ****   if (HAL_QSPI_MemoryMapped(&QSPIHandle, &s_command, &s_mem_mapped_cfg) != HAL_OK)
 493:Drivers/BSP/STM32F769I-Discovery/stm32f769i_discovery_qspi.c ****   {
 494:Drivers/BSP/STM32F769I-Discovery/stm32f769i_discovery_qspi.c ****     return QSPI_ERROR;
 495:Drivers/BSP/STM32F769I-Discovery/stm32f769i_discovery_qspi.c ****   }
 496:Drivers/BSP/STM32F769I-Discovery/stm32f769i_discovery_qspi.c **** 
 497:Drivers/BSP/STM32F769I-Discovery/stm32f769i_discovery_qspi.c ****   return QSPI_OK;
 498:Drivers/BSP/STM32F769I-Discovery/stm32f769i_discovery_qspi.c **** }
 499:Drivers/BSP/STM32F769I-Discovery/stm32f769i_discovery_qspi.c **** 
 500:Drivers/BSP/STM32F769I-Discovery/stm32f769i_discovery_qspi.c **** /**
 501:Drivers/BSP/STM32F769I-Discovery/stm32f769i_discovery_qspi.c ****   * @}
 502:Drivers/BSP/STM32F769I-Discovery/stm32f769i_discovery_qspi.c ****   */
 503:Drivers/BSP/STM32F769I-Discovery/stm32f769i_discovery_qspi.c **** 
 504:Drivers/BSP/STM32F769I-Discovery/stm32f769i_discovery_qspi.c **** /** @addtogroup STM32F769I_DISCOVERY_QSPI_Private_Functions
 505:Drivers/BSP/STM32F769I-Discovery/stm32f769i_discovery_qspi.c ****   * @{
 506:Drivers/BSP/STM32F769I-Discovery/stm32f769i_discovery_qspi.c ****   */ 
 507:Drivers/BSP/STM32F769I-Discovery/stm32f769i_discovery_qspi.c **** 
 508:Drivers/BSP/STM32F769I-Discovery/stm32f769i_discovery_qspi.c **** /**
 509:Drivers/BSP/STM32F769I-Discovery/stm32f769i_discovery_qspi.c ****   * @brief QSPI MSP Initialization
 510:Drivers/BSP/STM32F769I-Discovery/stm32f769i_discovery_qspi.c ****   *        This function configures the hardware resources used in this example:
 511:Drivers/BSP/STM32F769I-Discovery/stm32f769i_discovery_qspi.c ****   *           - Peripheral's clock enable
 512:Drivers/BSP/STM32F769I-Discovery/stm32f769i_discovery_qspi.c ****   *           - Peripheral's GPIO Configuration
 513:Drivers/BSP/STM32F769I-Discovery/stm32f769i_discovery_qspi.c ****   *           - NVIC configuration for QSPI interrupt
 514:Drivers/BSP/STM32F769I-Discovery/stm32f769i_discovery_qspi.c ****   * @retval None
 515:Drivers/BSP/STM32F769I-Discovery/stm32f769i_discovery_qspi.c ****   */
 516:Drivers/BSP/STM32F769I-Discovery/stm32f769i_discovery_qspi.c **** __weak void BSP_QSPI_MspInit(QSPI_HandleTypeDef *hqspi, void *Params)
 517:Drivers/BSP/STM32F769I-Discovery/stm32f769i_discovery_qspi.c **** {
 518:Drivers/BSP/STM32F769I-Discovery/stm32f769i_discovery_qspi.c ****   GPIO_InitTypeDef gpio_init_structure;
 519:Drivers/BSP/STM32F769I-Discovery/stm32f769i_discovery_qspi.c **** 
 520:Drivers/BSP/STM32F769I-Discovery/stm32f769i_discovery_qspi.c ****   /*##-1- Enable peripherals and GPIO Clocks #################################*/
 521:Drivers/BSP/STM32F769I-Discovery/stm32f769i_discovery_qspi.c ****   /* Enable the QuadSPI memory interface clock */
 522:Drivers/BSP/STM32F769I-Discovery/stm32f769i_discovery_qspi.c ****   QSPI_CLK_ENABLE();
 523:Drivers/BSP/STM32F769I-Discovery/stm32f769i_discovery_qspi.c ****   /* Reset the QuadSPI memory interface */
 524:Drivers/BSP/STM32F769I-Discovery/stm32f769i_discovery_qspi.c ****   QSPI_FORCE_RESET();
 525:Drivers/BSP/STM32F769I-Discovery/stm32f769i_discovery_qspi.c ****   QSPI_RELEASE_RESET();
 526:Drivers/BSP/STM32F769I-Discovery/stm32f769i_discovery_qspi.c ****   /* Enable GPIO clocks */
 527:Drivers/BSP/STM32F769I-Discovery/stm32f769i_discovery_qspi.c ****   QSPI_CS_GPIO_CLK_ENABLE();
 528:Drivers/BSP/STM32F769I-Discovery/stm32f769i_discovery_qspi.c ****   QSPI_CLK_GPIO_CLK_ENABLE();
 529:Drivers/BSP/STM32F769I-Discovery/stm32f769i_discovery_qspi.c ****   QSPI_D0_GPIO_CLK_ENABLE();
 530:Drivers/BSP/STM32F769I-Discovery/stm32f769i_discovery_qspi.c ****   QSPI_D1_GPIO_CLK_ENABLE();
 531:Drivers/BSP/STM32F769I-Discovery/stm32f769i_discovery_qspi.c ****   QSPI_D2_GPIO_CLK_ENABLE();
 532:Drivers/BSP/STM32F769I-Discovery/stm32f769i_discovery_qspi.c ****   QSPI_D3_GPIO_CLK_ENABLE();
 533:Drivers/BSP/STM32F769I-Discovery/stm32f769i_discovery_qspi.c **** 
 534:Drivers/BSP/STM32F769I-Discovery/stm32f769i_discovery_qspi.c ****   /*##-2- Configure peripheral GPIO ##########################################*/
 535:Drivers/BSP/STM32F769I-Discovery/stm32f769i_discovery_qspi.c ****   /* QSPI CS GPIO pin configuration  */
 536:Drivers/BSP/STM32F769I-Discovery/stm32f769i_discovery_qspi.c ****   gpio_init_structure.Pin       = QSPI_CS_PIN;
 537:Drivers/BSP/STM32F769I-Discovery/stm32f769i_discovery_qspi.c ****   gpio_init_structure.Alternate = QSPI_CS_PIN_AF;
 538:Drivers/BSP/STM32F769I-Discovery/stm32f769i_discovery_qspi.c ****   gpio_init_structure.Mode      = GPIO_MODE_AF_PP;
 539:Drivers/BSP/STM32F769I-Discovery/stm32f769i_discovery_qspi.c ****   gpio_init_structure.Pull      = GPIO_PULLUP;
 540:Drivers/BSP/STM32F769I-Discovery/stm32f769i_discovery_qspi.c ****   gpio_init_structure.Speed     = GPIO_SPEED_FREQ_HIGH;
 541:Drivers/BSP/STM32F769I-Discovery/stm32f769i_discovery_qspi.c ****   HAL_GPIO_Init(QSPI_CS_GPIO_PORT, &gpio_init_structure);
 542:Drivers/BSP/STM32F769I-Discovery/stm32f769i_discovery_qspi.c ****   /* QSPI CLK GPIO pin configuration  */
 543:Drivers/BSP/STM32F769I-Discovery/stm32f769i_discovery_qspi.c ****   gpio_init_structure.Pin       = QSPI_CLK_PIN;
 544:Drivers/BSP/STM32F769I-Discovery/stm32f769i_discovery_qspi.c ****   gpio_init_structure.Alternate = QSPI_CLK_PIN_AF;
ARM GAS  /var/folders/n6/c271nzx11xl4r4_m7sqjlt0m0000gn/T//cc22wCrs.s 			page 11


 545:Drivers/BSP/STM32F769I-Discovery/stm32f769i_discovery_qspi.c ****   gpio_init_structure.Pull      = GPIO_NOPULL;
 546:Drivers/BSP/STM32F769I-Discovery/stm32f769i_discovery_qspi.c ****   HAL_GPIO_Init(QSPI_CLK_GPIO_PORT, &gpio_init_structure);
 547:Drivers/BSP/STM32F769I-Discovery/stm32f769i_discovery_qspi.c ****   /* QSPI D0 GPIO pin configuration  */
 548:Drivers/BSP/STM32F769I-Discovery/stm32f769i_discovery_qspi.c ****   gpio_init_structure.Pin       = QSPI_D0_PIN;
 549:Drivers/BSP/STM32F769I-Discovery/stm32f769i_discovery_qspi.c ****   gpio_init_structure.Alternate = QSPI_D0_PIN_AF;
 550:Drivers/BSP/STM32F769I-Discovery/stm32f769i_discovery_qspi.c ****   HAL_GPIO_Init(QSPI_D0_GPIO_PORT, &gpio_init_structure);
 551:Drivers/BSP/STM32F769I-Discovery/stm32f769i_discovery_qspi.c ****   /* QSPI D1 GPIO pin configuration  */
 552:Drivers/BSP/STM32F769I-Discovery/stm32f769i_discovery_qspi.c ****   gpio_init_structure.Pin       = QSPI_D1_PIN;
 553:Drivers/BSP/STM32F769I-Discovery/stm32f769i_discovery_qspi.c ****   gpio_init_structure.Alternate = QSPI_D1_PIN_AF;
 554:Drivers/BSP/STM32F769I-Discovery/stm32f769i_discovery_qspi.c ****   HAL_GPIO_Init(QSPI_D1_GPIO_PORT, &gpio_init_structure);
 555:Drivers/BSP/STM32F769I-Discovery/stm32f769i_discovery_qspi.c ****   /* QSPI D2 GPIO pin configuration  */
 556:Drivers/BSP/STM32F769I-Discovery/stm32f769i_discovery_qspi.c ****   gpio_init_structure.Pin       = QSPI_D2_PIN;
 557:Drivers/BSP/STM32F769I-Discovery/stm32f769i_discovery_qspi.c ****   gpio_init_structure.Alternate = QSPI_D2_PIN_AF;
 558:Drivers/BSP/STM32F769I-Discovery/stm32f769i_discovery_qspi.c ****   HAL_GPIO_Init(QSPI_D2_GPIO_PORT, &gpio_init_structure);
 559:Drivers/BSP/STM32F769I-Discovery/stm32f769i_discovery_qspi.c ****   /* QSPI D3 GPIO pin configuration  */
 560:Drivers/BSP/STM32F769I-Discovery/stm32f769i_discovery_qspi.c ****   gpio_init_structure.Pin       = QSPI_D3_PIN;
 561:Drivers/BSP/STM32F769I-Discovery/stm32f769i_discovery_qspi.c ****   gpio_init_structure.Alternate = QSPI_D3_PIN_AF;
 562:Drivers/BSP/STM32F769I-Discovery/stm32f769i_discovery_qspi.c ****   HAL_GPIO_Init(QSPI_D3_GPIO_PORT, &gpio_init_structure);
 563:Drivers/BSP/STM32F769I-Discovery/stm32f769i_discovery_qspi.c **** 
 564:Drivers/BSP/STM32F769I-Discovery/stm32f769i_discovery_qspi.c ****   /*##-3- Configure the NVIC for QSPI #########################################*/
 565:Drivers/BSP/STM32F769I-Discovery/stm32f769i_discovery_qspi.c ****   /* NVIC configuration for QSPI interrupt */
 566:Drivers/BSP/STM32F769I-Discovery/stm32f769i_discovery_qspi.c ****   HAL_NVIC_SetPriority(QUADSPI_IRQn, 0x0F, 0);
 567:Drivers/BSP/STM32F769I-Discovery/stm32f769i_discovery_qspi.c ****   HAL_NVIC_EnableIRQ(QUADSPI_IRQn);
 568:Drivers/BSP/STM32F769I-Discovery/stm32f769i_discovery_qspi.c **** }
 569:Drivers/BSP/STM32F769I-Discovery/stm32f769i_discovery_qspi.c **** 
 570:Drivers/BSP/STM32F769I-Discovery/stm32f769i_discovery_qspi.c **** /**
 571:Drivers/BSP/STM32F769I-Discovery/stm32f769i_discovery_qspi.c ****   * @brief QSPI MSP De-Initialization
 572:Drivers/BSP/STM32F769I-Discovery/stm32f769i_discovery_qspi.c ****   *        This function frees the hardware resources used in this example:
 573:Drivers/BSP/STM32F769I-Discovery/stm32f769i_discovery_qspi.c ****   *          - Disable the Peripheral's clock
 574:Drivers/BSP/STM32F769I-Discovery/stm32f769i_discovery_qspi.c ****   *          - Revert GPIO and NVIC configuration to their default state
 575:Drivers/BSP/STM32F769I-Discovery/stm32f769i_discovery_qspi.c ****   * @retval None
 576:Drivers/BSP/STM32F769I-Discovery/stm32f769i_discovery_qspi.c ****   */
 577:Drivers/BSP/STM32F769I-Discovery/stm32f769i_discovery_qspi.c **** __weak void BSP_QSPI_MspDeInit(QSPI_HandleTypeDef *hqspi, void *Params)
 578:Drivers/BSP/STM32F769I-Discovery/stm32f769i_discovery_qspi.c **** {
 579:Drivers/BSP/STM32F769I-Discovery/stm32f769i_discovery_qspi.c ****   /*##-1- Disable the NVIC for QSPI ###########################################*/
 580:Drivers/BSP/STM32F769I-Discovery/stm32f769i_discovery_qspi.c ****   HAL_NVIC_DisableIRQ(QUADSPI_IRQn);
 581:Drivers/BSP/STM32F769I-Discovery/stm32f769i_discovery_qspi.c **** 
 582:Drivers/BSP/STM32F769I-Discovery/stm32f769i_discovery_qspi.c ****   /*##-2- Disable peripherals and GPIO Clocks ################################*/
 583:Drivers/BSP/STM32F769I-Discovery/stm32f769i_discovery_qspi.c ****   /* De-Configure QSPI pins */
 584:Drivers/BSP/STM32F769I-Discovery/stm32f769i_discovery_qspi.c ****   HAL_GPIO_DeInit(QSPI_CS_GPIO_PORT, QSPI_CS_PIN);
 585:Drivers/BSP/STM32F769I-Discovery/stm32f769i_discovery_qspi.c ****   HAL_GPIO_DeInit(QSPI_CLK_GPIO_PORT, QSPI_CLK_PIN);
 586:Drivers/BSP/STM32F769I-Discovery/stm32f769i_discovery_qspi.c ****   HAL_GPIO_DeInit(QSPI_D0_GPIO_PORT, QSPI_D0_PIN);
 587:Drivers/BSP/STM32F769I-Discovery/stm32f769i_discovery_qspi.c ****   HAL_GPIO_DeInit(QSPI_D1_GPIO_PORT, QSPI_D1_PIN);
 588:Drivers/BSP/STM32F769I-Discovery/stm32f769i_discovery_qspi.c ****   HAL_GPIO_DeInit(QSPI_D2_GPIO_PORT, QSPI_D2_PIN);
 589:Drivers/BSP/STM32F769I-Discovery/stm32f769i_discovery_qspi.c ****   HAL_GPIO_DeInit(QSPI_D3_GPIO_PORT, QSPI_D3_PIN);
 590:Drivers/BSP/STM32F769I-Discovery/stm32f769i_discovery_qspi.c **** 
 591:Drivers/BSP/STM32F769I-Discovery/stm32f769i_discovery_qspi.c ****   /*##-3- Reset peripherals ##################################################*/
 592:Drivers/BSP/STM32F769I-Discovery/stm32f769i_discovery_qspi.c ****   /* Reset the QuadSPI memory interface */
 593:Drivers/BSP/STM32F769I-Discovery/stm32f769i_discovery_qspi.c ****   QSPI_FORCE_RESET();
 594:Drivers/BSP/STM32F769I-Discovery/stm32f769i_discovery_qspi.c ****   QSPI_RELEASE_RESET();
 595:Drivers/BSP/STM32F769I-Discovery/stm32f769i_discovery_qspi.c **** 
 596:Drivers/BSP/STM32F769I-Discovery/stm32f769i_discovery_qspi.c ****   /* Disable the QuadSPI memory interface clock */
 597:Drivers/BSP/STM32F769I-Discovery/stm32f769i_discovery_qspi.c ****   QSPI_CLK_DISABLE();
 598:Drivers/BSP/STM32F769I-Discovery/stm32f769i_discovery_qspi.c **** }
 599:Drivers/BSP/STM32F769I-Discovery/stm32f769i_discovery_qspi.c **** 
 600:Drivers/BSP/STM32F769I-Discovery/stm32f769i_discovery_qspi.c **** /**
 601:Drivers/BSP/STM32F769I-Discovery/stm32f769i_discovery_qspi.c ****   * @brief  This function reset the QSPI memory.
ARM GAS  /var/folders/n6/c271nzx11xl4r4_m7sqjlt0m0000gn/T//cc22wCrs.s 			page 12


 602:Drivers/BSP/STM32F769I-Discovery/stm32f769i_discovery_qspi.c ****   * @param  hqspi: QSPI handle
 603:Drivers/BSP/STM32F769I-Discovery/stm32f769i_discovery_qspi.c ****   * @retval None
 604:Drivers/BSP/STM32F769I-Discovery/stm32f769i_discovery_qspi.c ****   */
 605:Drivers/BSP/STM32F769I-Discovery/stm32f769i_discovery_qspi.c **** static uint8_t QSPI_ResetMemory(QSPI_HandleTypeDef *hqspi)
 606:Drivers/BSP/STM32F769I-Discovery/stm32f769i_discovery_qspi.c **** {
 607:Drivers/BSP/STM32F769I-Discovery/stm32f769i_discovery_qspi.c ****   QSPI_CommandTypeDef      s_command;
 608:Drivers/BSP/STM32F769I-Discovery/stm32f769i_discovery_qspi.c ****   QSPI_AutoPollingTypeDef  s_config;
 609:Drivers/BSP/STM32F769I-Discovery/stm32f769i_discovery_qspi.c ****   uint8_t                  reg;
 610:Drivers/BSP/STM32F769I-Discovery/stm32f769i_discovery_qspi.c **** 
 611:Drivers/BSP/STM32F769I-Discovery/stm32f769i_discovery_qspi.c ****   /* Send command RESET command in QPI mode (QUAD I/Os) */
 612:Drivers/BSP/STM32F769I-Discovery/stm32f769i_discovery_qspi.c ****   /* Initialize the reset enable command */
 613:Drivers/BSP/STM32F769I-Discovery/stm32f769i_discovery_qspi.c ****   s_command.InstructionMode   = QSPI_INSTRUCTION_4_LINES;
 614:Drivers/BSP/STM32F769I-Discovery/stm32f769i_discovery_qspi.c ****   s_command.Instruction       = RESET_ENABLE_CMD;
 615:Drivers/BSP/STM32F769I-Discovery/stm32f769i_discovery_qspi.c ****   s_command.AddressMode       = QSPI_ADDRESS_NONE;
 616:Drivers/BSP/STM32F769I-Discovery/stm32f769i_discovery_qspi.c ****   s_command.AlternateByteMode = QSPI_ALTERNATE_BYTES_NONE;
 617:Drivers/BSP/STM32F769I-Discovery/stm32f769i_discovery_qspi.c ****   s_command.DataMode          = QSPI_DATA_NONE;
 618:Drivers/BSP/STM32F769I-Discovery/stm32f769i_discovery_qspi.c ****   s_command.DummyCycles       = 0;
 619:Drivers/BSP/STM32F769I-Discovery/stm32f769i_discovery_qspi.c ****   s_command.DdrMode           = QSPI_DDR_MODE_DISABLE;
 620:Drivers/BSP/STM32F769I-Discovery/stm32f769i_discovery_qspi.c ****   s_command.DdrHoldHalfCycle  = QSPI_DDR_HHC_ANALOG_DELAY;
 621:Drivers/BSP/STM32F769I-Discovery/stm32f769i_discovery_qspi.c ****   s_command.SIOOMode          = QSPI_SIOO_INST_EVERY_CMD;
 622:Drivers/BSP/STM32F769I-Discovery/stm32f769i_discovery_qspi.c ****   /* Send the command */
 623:Drivers/BSP/STM32F769I-Discovery/stm32f769i_discovery_qspi.c ****   if (HAL_QSPI_Command(hqspi, &s_command, HAL_QPSI_TIMEOUT_DEFAULT_VALUE) != HAL_OK)
 624:Drivers/BSP/STM32F769I-Discovery/stm32f769i_discovery_qspi.c ****   {
 625:Drivers/BSP/STM32F769I-Discovery/stm32f769i_discovery_qspi.c ****     return QSPI_ERROR;
 626:Drivers/BSP/STM32F769I-Discovery/stm32f769i_discovery_qspi.c ****   }
 627:Drivers/BSP/STM32F769I-Discovery/stm32f769i_discovery_qspi.c ****   /* Send the reset memory command */
 628:Drivers/BSP/STM32F769I-Discovery/stm32f769i_discovery_qspi.c ****   s_command.Instruction = RESET_MEMORY_CMD;
 629:Drivers/BSP/STM32F769I-Discovery/stm32f769i_discovery_qspi.c ****   if (HAL_QSPI_Command(hqspi, &s_command, HAL_QPSI_TIMEOUT_DEFAULT_VALUE) != HAL_OK)
 630:Drivers/BSP/STM32F769I-Discovery/stm32f769i_discovery_qspi.c ****   {
 631:Drivers/BSP/STM32F769I-Discovery/stm32f769i_discovery_qspi.c ****     return QSPI_ERROR;
 632:Drivers/BSP/STM32F769I-Discovery/stm32f769i_discovery_qspi.c ****   }  
 633:Drivers/BSP/STM32F769I-Discovery/stm32f769i_discovery_qspi.c **** 
 634:Drivers/BSP/STM32F769I-Discovery/stm32f769i_discovery_qspi.c ****   /* Send command RESET command in SPI mode */
 635:Drivers/BSP/STM32F769I-Discovery/stm32f769i_discovery_qspi.c ****   /* Initialize the reset enable command */
 636:Drivers/BSP/STM32F769I-Discovery/stm32f769i_discovery_qspi.c ****   s_command.InstructionMode   = QSPI_INSTRUCTION_1_LINE;
 637:Drivers/BSP/STM32F769I-Discovery/stm32f769i_discovery_qspi.c ****   s_command.Instruction       = RESET_ENABLE_CMD;
 638:Drivers/BSP/STM32F769I-Discovery/stm32f769i_discovery_qspi.c ****   /* Send the command */
 639:Drivers/BSP/STM32F769I-Discovery/stm32f769i_discovery_qspi.c ****   if (HAL_QSPI_Command(hqspi, &s_command, HAL_QPSI_TIMEOUT_DEFAULT_VALUE) != HAL_OK)
 640:Drivers/BSP/STM32F769I-Discovery/stm32f769i_discovery_qspi.c ****   {
 641:Drivers/BSP/STM32F769I-Discovery/stm32f769i_discovery_qspi.c ****     return QSPI_ERROR;
 642:Drivers/BSP/STM32F769I-Discovery/stm32f769i_discovery_qspi.c ****   }
 643:Drivers/BSP/STM32F769I-Discovery/stm32f769i_discovery_qspi.c ****   /* Send the reset memory command */
 644:Drivers/BSP/STM32F769I-Discovery/stm32f769i_discovery_qspi.c ****   s_command.Instruction = RESET_MEMORY_CMD;
 645:Drivers/BSP/STM32F769I-Discovery/stm32f769i_discovery_qspi.c ****   if (HAL_QSPI_Command(hqspi, &s_command, HAL_QPSI_TIMEOUT_DEFAULT_VALUE) != HAL_OK)
 646:Drivers/BSP/STM32F769I-Discovery/stm32f769i_discovery_qspi.c ****   {
 647:Drivers/BSP/STM32F769I-Discovery/stm32f769i_discovery_qspi.c ****     return QSPI_ERROR;
 648:Drivers/BSP/STM32F769I-Discovery/stm32f769i_discovery_qspi.c ****   }
 649:Drivers/BSP/STM32F769I-Discovery/stm32f769i_discovery_qspi.c **** 
 650:Drivers/BSP/STM32F769I-Discovery/stm32f769i_discovery_qspi.c ****   /* After reset CMD, 1000ms requested if QSPI memory SWReset occured during full chip erase operat
 651:Drivers/BSP/STM32F769I-Discovery/stm32f769i_discovery_qspi.c ****   HAL_Delay( 1000 );
 652:Drivers/BSP/STM32F769I-Discovery/stm32f769i_discovery_qspi.c **** 
 653:Drivers/BSP/STM32F769I-Discovery/stm32f769i_discovery_qspi.c ****   /* Configure automatic polling mode to wait the WIP bit=0 */
 654:Drivers/BSP/STM32F769I-Discovery/stm32f769i_discovery_qspi.c ****   s_config.Match           = 0;
 655:Drivers/BSP/STM32F769I-Discovery/stm32f769i_discovery_qspi.c ****   s_config.Mask            = MX25L512_SR_WIP;
 656:Drivers/BSP/STM32F769I-Discovery/stm32f769i_discovery_qspi.c ****   s_config.MatchMode       = QSPI_MATCH_MODE_AND;
 657:Drivers/BSP/STM32F769I-Discovery/stm32f769i_discovery_qspi.c ****   s_config.StatusBytesSize = 1;
 658:Drivers/BSP/STM32F769I-Discovery/stm32f769i_discovery_qspi.c ****   s_config.Interval        = 0x10;
ARM GAS  /var/folders/n6/c271nzx11xl4r4_m7sqjlt0m0000gn/T//cc22wCrs.s 			page 13


 659:Drivers/BSP/STM32F769I-Discovery/stm32f769i_discovery_qspi.c ****   s_config.AutomaticStop   = QSPI_AUTOMATIC_STOP_ENABLE;
 660:Drivers/BSP/STM32F769I-Discovery/stm32f769i_discovery_qspi.c **** 
 661:Drivers/BSP/STM32F769I-Discovery/stm32f769i_discovery_qspi.c ****   s_command.InstructionMode = QSPI_INSTRUCTION_1_LINE;
 662:Drivers/BSP/STM32F769I-Discovery/stm32f769i_discovery_qspi.c ****   s_command.Instruction     = READ_STATUS_REG_CMD;
 663:Drivers/BSP/STM32F769I-Discovery/stm32f769i_discovery_qspi.c ****   s_command.DataMode        = QSPI_DATA_1_LINE;
 664:Drivers/BSP/STM32F769I-Discovery/stm32f769i_discovery_qspi.c **** 
 665:Drivers/BSP/STM32F769I-Discovery/stm32f769i_discovery_qspi.c ****   if (HAL_QSPI_AutoPolling(hqspi, &s_command, &s_config, HAL_QPSI_TIMEOUT_DEFAULT_VALUE) != HAL_OK)
 666:Drivers/BSP/STM32F769I-Discovery/stm32f769i_discovery_qspi.c ****   {
 667:Drivers/BSP/STM32F769I-Discovery/stm32f769i_discovery_qspi.c ****     return QSPI_ERROR;
 668:Drivers/BSP/STM32F769I-Discovery/stm32f769i_discovery_qspi.c ****   }
 669:Drivers/BSP/STM32F769I-Discovery/stm32f769i_discovery_qspi.c **** 
 670:Drivers/BSP/STM32F769I-Discovery/stm32f769i_discovery_qspi.c ****   /* Initialize the reading of status register */
 671:Drivers/BSP/STM32F769I-Discovery/stm32f769i_discovery_qspi.c ****   s_command.InstructionMode   = QSPI_INSTRUCTION_1_LINE;
 672:Drivers/BSP/STM32F769I-Discovery/stm32f769i_discovery_qspi.c ****   s_command.Instruction       = READ_STATUS_REG_CMD;
 673:Drivers/BSP/STM32F769I-Discovery/stm32f769i_discovery_qspi.c ****   s_command.AddressMode       = QSPI_ADDRESS_NONE;
 674:Drivers/BSP/STM32F769I-Discovery/stm32f769i_discovery_qspi.c ****   s_command.AlternateByteMode = QSPI_ALTERNATE_BYTES_NONE;
 675:Drivers/BSP/STM32F769I-Discovery/stm32f769i_discovery_qspi.c ****   s_command.DataMode          = QSPI_DATA_1_LINE;
 676:Drivers/BSP/STM32F769I-Discovery/stm32f769i_discovery_qspi.c ****   s_command.DummyCycles       = 0;
 677:Drivers/BSP/STM32F769I-Discovery/stm32f769i_discovery_qspi.c ****   s_command.NbData            = 1;
 678:Drivers/BSP/STM32F769I-Discovery/stm32f769i_discovery_qspi.c ****   s_command.DdrMode           = QSPI_DDR_MODE_DISABLE;
 679:Drivers/BSP/STM32F769I-Discovery/stm32f769i_discovery_qspi.c ****   s_command.DdrHoldHalfCycle  = QSPI_DDR_HHC_ANALOG_DELAY;
 680:Drivers/BSP/STM32F769I-Discovery/stm32f769i_discovery_qspi.c ****   s_command.SIOOMode          = QSPI_SIOO_INST_EVERY_CMD;
 681:Drivers/BSP/STM32F769I-Discovery/stm32f769i_discovery_qspi.c **** 
 682:Drivers/BSP/STM32F769I-Discovery/stm32f769i_discovery_qspi.c ****   /* Configure the command */
 683:Drivers/BSP/STM32F769I-Discovery/stm32f769i_discovery_qspi.c ****   if (HAL_QSPI_Command(hqspi, &s_command, HAL_QPSI_TIMEOUT_DEFAULT_VALUE) != HAL_OK)
 684:Drivers/BSP/STM32F769I-Discovery/stm32f769i_discovery_qspi.c ****   {
 685:Drivers/BSP/STM32F769I-Discovery/stm32f769i_discovery_qspi.c ****     return QSPI_ERROR;
 686:Drivers/BSP/STM32F769I-Discovery/stm32f769i_discovery_qspi.c ****   }
 687:Drivers/BSP/STM32F769I-Discovery/stm32f769i_discovery_qspi.c **** 
 688:Drivers/BSP/STM32F769I-Discovery/stm32f769i_discovery_qspi.c ****   /* Reception of the data */
 689:Drivers/BSP/STM32F769I-Discovery/stm32f769i_discovery_qspi.c ****   if (HAL_QSPI_Receive(hqspi, &reg, HAL_QPSI_TIMEOUT_DEFAULT_VALUE) != HAL_OK)
 690:Drivers/BSP/STM32F769I-Discovery/stm32f769i_discovery_qspi.c ****   {
 691:Drivers/BSP/STM32F769I-Discovery/stm32f769i_discovery_qspi.c ****     return QSPI_ERROR;
 692:Drivers/BSP/STM32F769I-Discovery/stm32f769i_discovery_qspi.c ****   }
 693:Drivers/BSP/STM32F769I-Discovery/stm32f769i_discovery_qspi.c **** 
 694:Drivers/BSP/STM32F769I-Discovery/stm32f769i_discovery_qspi.c ****   /* Enable write operations, command in 1 bit */
 695:Drivers/BSP/STM32F769I-Discovery/stm32f769i_discovery_qspi.c ****   /* Enable write operations */
 696:Drivers/BSP/STM32F769I-Discovery/stm32f769i_discovery_qspi.c ****   s_command.InstructionMode   = QSPI_INSTRUCTION_1_LINE;
 697:Drivers/BSP/STM32F769I-Discovery/stm32f769i_discovery_qspi.c ****   s_command.Instruction       = WRITE_ENABLE_CMD;
 698:Drivers/BSP/STM32F769I-Discovery/stm32f769i_discovery_qspi.c ****   s_command.AddressMode       = QSPI_ADDRESS_NONE;
 699:Drivers/BSP/STM32F769I-Discovery/stm32f769i_discovery_qspi.c ****   s_command.AlternateByteMode = QSPI_ALTERNATE_BYTES_NONE;
 700:Drivers/BSP/STM32F769I-Discovery/stm32f769i_discovery_qspi.c ****   s_command.DataMode          = QSPI_DATA_NONE;
 701:Drivers/BSP/STM32F769I-Discovery/stm32f769i_discovery_qspi.c ****   s_command.DummyCycles       = 0;
 702:Drivers/BSP/STM32F769I-Discovery/stm32f769i_discovery_qspi.c ****   s_command.DdrMode           = QSPI_DDR_MODE_DISABLE;
 703:Drivers/BSP/STM32F769I-Discovery/stm32f769i_discovery_qspi.c ****   s_command.DdrHoldHalfCycle  = QSPI_DDR_HHC_ANALOG_DELAY;
 704:Drivers/BSP/STM32F769I-Discovery/stm32f769i_discovery_qspi.c ****   s_command.SIOOMode          = QSPI_SIOO_INST_EVERY_CMD;
 705:Drivers/BSP/STM32F769I-Discovery/stm32f769i_discovery_qspi.c **** 
 706:Drivers/BSP/STM32F769I-Discovery/stm32f769i_discovery_qspi.c ****   if (HAL_QSPI_Command(hqspi, &s_command, HAL_QPSI_TIMEOUT_DEFAULT_VALUE) != HAL_OK)
 707:Drivers/BSP/STM32F769I-Discovery/stm32f769i_discovery_qspi.c ****   {
 708:Drivers/BSP/STM32F769I-Discovery/stm32f769i_discovery_qspi.c ****     return QSPI_ERROR;
 709:Drivers/BSP/STM32F769I-Discovery/stm32f769i_discovery_qspi.c ****   }
 710:Drivers/BSP/STM32F769I-Discovery/stm32f769i_discovery_qspi.c ****   
 711:Drivers/BSP/STM32F769I-Discovery/stm32f769i_discovery_qspi.c ****   /* Configure automatic polling mode to wait for write enabling */  
 712:Drivers/BSP/STM32F769I-Discovery/stm32f769i_discovery_qspi.c ****   s_config.Match           = MX25L512_SR_WREN;
 713:Drivers/BSP/STM32F769I-Discovery/stm32f769i_discovery_qspi.c ****   s_config.Mask            = MX25L512_SR_WREN;
 714:Drivers/BSP/STM32F769I-Discovery/stm32f769i_discovery_qspi.c ****   s_config.MatchMode       = QSPI_MATCH_MODE_AND;
 715:Drivers/BSP/STM32F769I-Discovery/stm32f769i_discovery_qspi.c ****   s_config.StatusBytesSize = 1;
ARM GAS  /var/folders/n6/c271nzx11xl4r4_m7sqjlt0m0000gn/T//cc22wCrs.s 			page 14


 716:Drivers/BSP/STM32F769I-Discovery/stm32f769i_discovery_qspi.c ****   s_config.Interval        = 0x10;
 717:Drivers/BSP/STM32F769I-Discovery/stm32f769i_discovery_qspi.c ****   s_config.AutomaticStop   = QSPI_AUTOMATIC_STOP_ENABLE;
 718:Drivers/BSP/STM32F769I-Discovery/stm32f769i_discovery_qspi.c **** 
 719:Drivers/BSP/STM32F769I-Discovery/stm32f769i_discovery_qspi.c ****   s_command.Instruction    = READ_STATUS_REG_CMD;
 720:Drivers/BSP/STM32F769I-Discovery/stm32f769i_discovery_qspi.c ****   s_command.DataMode       = QSPI_DATA_1_LINE;
 721:Drivers/BSP/STM32F769I-Discovery/stm32f769i_discovery_qspi.c **** 
 722:Drivers/BSP/STM32F769I-Discovery/stm32f769i_discovery_qspi.c ****   if (HAL_QSPI_AutoPolling(hqspi, &s_command, &s_config, HAL_QPSI_TIMEOUT_DEFAULT_VALUE) != HAL_OK)
 723:Drivers/BSP/STM32F769I-Discovery/stm32f769i_discovery_qspi.c ****   {
 724:Drivers/BSP/STM32F769I-Discovery/stm32f769i_discovery_qspi.c ****     return QSPI_ERROR;
 725:Drivers/BSP/STM32F769I-Discovery/stm32f769i_discovery_qspi.c ****   }
 726:Drivers/BSP/STM32F769I-Discovery/stm32f769i_discovery_qspi.c **** 
 727:Drivers/BSP/STM32F769I-Discovery/stm32f769i_discovery_qspi.c ****   /* Update the configuration register with new dummy cycles */
 728:Drivers/BSP/STM32F769I-Discovery/stm32f769i_discovery_qspi.c ****   s_command.InstructionMode   = QSPI_INSTRUCTION_1_LINE;
 729:Drivers/BSP/STM32F769I-Discovery/stm32f769i_discovery_qspi.c ****   s_command.Instruction       = WRITE_STATUS_CFG_REG_CMD;
 730:Drivers/BSP/STM32F769I-Discovery/stm32f769i_discovery_qspi.c ****   s_command.AddressMode       = QSPI_ADDRESS_NONE;
 731:Drivers/BSP/STM32F769I-Discovery/stm32f769i_discovery_qspi.c ****   s_command.AlternateByteMode = QSPI_ALTERNATE_BYTES_NONE;
 732:Drivers/BSP/STM32F769I-Discovery/stm32f769i_discovery_qspi.c ****   s_command.DataMode          = QSPI_DATA_1_LINE;
 733:Drivers/BSP/STM32F769I-Discovery/stm32f769i_discovery_qspi.c ****   s_command.DummyCycles       = 0;
 734:Drivers/BSP/STM32F769I-Discovery/stm32f769i_discovery_qspi.c ****   s_command.NbData            = 1;
 735:Drivers/BSP/STM32F769I-Discovery/stm32f769i_discovery_qspi.c ****   s_command.DdrMode           = QSPI_DDR_MODE_DISABLE;
 736:Drivers/BSP/STM32F769I-Discovery/stm32f769i_discovery_qspi.c ****   s_command.DdrHoldHalfCycle  = QSPI_DDR_HHC_ANALOG_DELAY;
 737:Drivers/BSP/STM32F769I-Discovery/stm32f769i_discovery_qspi.c ****   s_command.SIOOMode          = QSPI_SIOO_INST_EVERY_CMD;
 738:Drivers/BSP/STM32F769I-Discovery/stm32f769i_discovery_qspi.c **** 
 739:Drivers/BSP/STM32F769I-Discovery/stm32f769i_discovery_qspi.c ****   /* Enable the Quad IO on the QSPI memory (Non-volatile bit) */
 740:Drivers/BSP/STM32F769I-Discovery/stm32f769i_discovery_qspi.c ****   reg |= MX25L512_SR_QUADEN;
 741:Drivers/BSP/STM32F769I-Discovery/stm32f769i_discovery_qspi.c **** 
 742:Drivers/BSP/STM32F769I-Discovery/stm32f769i_discovery_qspi.c ****   /* Configure the command */
 743:Drivers/BSP/STM32F769I-Discovery/stm32f769i_discovery_qspi.c ****   if (HAL_QSPI_Command(hqspi, &s_command, HAL_QPSI_TIMEOUT_DEFAULT_VALUE) != HAL_OK)
 744:Drivers/BSP/STM32F769I-Discovery/stm32f769i_discovery_qspi.c ****   {
 745:Drivers/BSP/STM32F769I-Discovery/stm32f769i_discovery_qspi.c ****     return QSPI_ERROR;
 746:Drivers/BSP/STM32F769I-Discovery/stm32f769i_discovery_qspi.c ****   }
 747:Drivers/BSP/STM32F769I-Discovery/stm32f769i_discovery_qspi.c ****   
 748:Drivers/BSP/STM32F769I-Discovery/stm32f769i_discovery_qspi.c ****   /* Transmission of the data */
 749:Drivers/BSP/STM32F769I-Discovery/stm32f769i_discovery_qspi.c ****   if (HAL_QSPI_Transmit(hqspi, &reg, HAL_QPSI_TIMEOUT_DEFAULT_VALUE) != HAL_OK)
 750:Drivers/BSP/STM32F769I-Discovery/stm32f769i_discovery_qspi.c ****   {
 751:Drivers/BSP/STM32F769I-Discovery/stm32f769i_discovery_qspi.c ****     return QSPI_ERROR;
 752:Drivers/BSP/STM32F769I-Discovery/stm32f769i_discovery_qspi.c ****   }
 753:Drivers/BSP/STM32F769I-Discovery/stm32f769i_discovery_qspi.c ****   
 754:Drivers/BSP/STM32F769I-Discovery/stm32f769i_discovery_qspi.c ****   /* 40ms  Write Status/Configuration Register Cycle Time */
 755:Drivers/BSP/STM32F769I-Discovery/stm32f769i_discovery_qspi.c ****   HAL_Delay( 40 );  
 756:Drivers/BSP/STM32F769I-Discovery/stm32f769i_discovery_qspi.c **** 
 757:Drivers/BSP/STM32F769I-Discovery/stm32f769i_discovery_qspi.c ****   return QSPI_OK;
 758:Drivers/BSP/STM32F769I-Discovery/stm32f769i_discovery_qspi.c **** }
 759:Drivers/BSP/STM32F769I-Discovery/stm32f769i_discovery_qspi.c **** 
 760:Drivers/BSP/STM32F769I-Discovery/stm32f769i_discovery_qspi.c **** /**
 761:Drivers/BSP/STM32F769I-Discovery/stm32f769i_discovery_qspi.c ****   * @brief  This function set the QSPI memory in 4-byte address mode
 762:Drivers/BSP/STM32F769I-Discovery/stm32f769i_discovery_qspi.c ****   * @param  hqspi: QSPI handle
 763:Drivers/BSP/STM32F769I-Discovery/stm32f769i_discovery_qspi.c ****   * @retval None
 764:Drivers/BSP/STM32F769I-Discovery/stm32f769i_discovery_qspi.c ****   */
 765:Drivers/BSP/STM32F769I-Discovery/stm32f769i_discovery_qspi.c **** static uint8_t QSPI_EnterFourBytesAddress(QSPI_HandleTypeDef *hqspi)
 766:Drivers/BSP/STM32F769I-Discovery/stm32f769i_discovery_qspi.c **** {
 767:Drivers/BSP/STM32F769I-Discovery/stm32f769i_discovery_qspi.c ****   QSPI_CommandTypeDef s_command;
 768:Drivers/BSP/STM32F769I-Discovery/stm32f769i_discovery_qspi.c **** 
 769:Drivers/BSP/STM32F769I-Discovery/stm32f769i_discovery_qspi.c ****   /* Initialize the command */
 770:Drivers/BSP/STM32F769I-Discovery/stm32f769i_discovery_qspi.c ****   s_command.InstructionMode   = QSPI_INSTRUCTION_4_LINES;
 771:Drivers/BSP/STM32F769I-Discovery/stm32f769i_discovery_qspi.c ****   s_command.Instruction       = ENTER_4_BYTE_ADDR_MODE_CMD;
 772:Drivers/BSP/STM32F769I-Discovery/stm32f769i_discovery_qspi.c ****   s_command.AddressMode       = QSPI_ADDRESS_NONE;
ARM GAS  /var/folders/n6/c271nzx11xl4r4_m7sqjlt0m0000gn/T//cc22wCrs.s 			page 15


 773:Drivers/BSP/STM32F769I-Discovery/stm32f769i_discovery_qspi.c ****   s_command.AlternateByteMode = QSPI_ALTERNATE_BYTES_NONE;
 774:Drivers/BSP/STM32F769I-Discovery/stm32f769i_discovery_qspi.c ****   s_command.DataMode          = QSPI_DATA_NONE;
 775:Drivers/BSP/STM32F769I-Discovery/stm32f769i_discovery_qspi.c ****   s_command.DummyCycles       = 0;
 776:Drivers/BSP/STM32F769I-Discovery/stm32f769i_discovery_qspi.c ****   s_command.DdrMode           = QSPI_DDR_MODE_DISABLE;
 777:Drivers/BSP/STM32F769I-Discovery/stm32f769i_discovery_qspi.c ****   s_command.DdrHoldHalfCycle  = QSPI_DDR_HHC_ANALOG_DELAY;
 778:Drivers/BSP/STM32F769I-Discovery/stm32f769i_discovery_qspi.c ****   s_command.SIOOMode          = QSPI_SIOO_INST_EVERY_CMD;
 779:Drivers/BSP/STM32F769I-Discovery/stm32f769i_discovery_qspi.c **** 
 780:Drivers/BSP/STM32F769I-Discovery/stm32f769i_discovery_qspi.c ****   /* Enable write operations */
 781:Drivers/BSP/STM32F769I-Discovery/stm32f769i_discovery_qspi.c ****   if (QSPI_WriteEnable(hqspi) != QSPI_OK)
 782:Drivers/BSP/STM32F769I-Discovery/stm32f769i_discovery_qspi.c ****   {
 783:Drivers/BSP/STM32F769I-Discovery/stm32f769i_discovery_qspi.c ****     return QSPI_ERROR;
 784:Drivers/BSP/STM32F769I-Discovery/stm32f769i_discovery_qspi.c ****   }
 785:Drivers/BSP/STM32F769I-Discovery/stm32f769i_discovery_qspi.c **** 
 786:Drivers/BSP/STM32F769I-Discovery/stm32f769i_discovery_qspi.c ****   /* Send the command */
 787:Drivers/BSP/STM32F769I-Discovery/stm32f769i_discovery_qspi.c ****   if (HAL_QSPI_Command(hqspi, &s_command, HAL_QPSI_TIMEOUT_DEFAULT_VALUE) != HAL_OK)
 788:Drivers/BSP/STM32F769I-Discovery/stm32f769i_discovery_qspi.c ****   {
 789:Drivers/BSP/STM32F769I-Discovery/stm32f769i_discovery_qspi.c ****     return QSPI_ERROR;
 790:Drivers/BSP/STM32F769I-Discovery/stm32f769i_discovery_qspi.c ****   }
 791:Drivers/BSP/STM32F769I-Discovery/stm32f769i_discovery_qspi.c **** 
 792:Drivers/BSP/STM32F769I-Discovery/stm32f769i_discovery_qspi.c ****   /* Configure automatic polling mode to wait the memory is ready */  
 793:Drivers/BSP/STM32F769I-Discovery/stm32f769i_discovery_qspi.c ****   if (QSPI_AutoPollingMemReady(hqspi, HAL_QPSI_TIMEOUT_DEFAULT_VALUE) != QSPI_OK)
 794:Drivers/BSP/STM32F769I-Discovery/stm32f769i_discovery_qspi.c ****   {
 795:Drivers/BSP/STM32F769I-Discovery/stm32f769i_discovery_qspi.c ****     return QSPI_ERROR;
 796:Drivers/BSP/STM32F769I-Discovery/stm32f769i_discovery_qspi.c ****   }
 797:Drivers/BSP/STM32F769I-Discovery/stm32f769i_discovery_qspi.c **** 
 798:Drivers/BSP/STM32F769I-Discovery/stm32f769i_discovery_qspi.c ****   return QSPI_OK;
 799:Drivers/BSP/STM32F769I-Discovery/stm32f769i_discovery_qspi.c **** }
 800:Drivers/BSP/STM32F769I-Discovery/stm32f769i_discovery_qspi.c **** 
 801:Drivers/BSP/STM32F769I-Discovery/stm32f769i_discovery_qspi.c **** /**
 802:Drivers/BSP/STM32F769I-Discovery/stm32f769i_discovery_qspi.c ****   * @brief  This function configure the dummy cycles on memory side.
 803:Drivers/BSP/STM32F769I-Discovery/stm32f769i_discovery_qspi.c ****   * @param  hqspi: QSPI handle
 804:Drivers/BSP/STM32F769I-Discovery/stm32f769i_discovery_qspi.c ****   * @retval None
 805:Drivers/BSP/STM32F769I-Discovery/stm32f769i_discovery_qspi.c ****   */
 806:Drivers/BSP/STM32F769I-Discovery/stm32f769i_discovery_qspi.c **** static uint8_t QSPI_DummyCyclesCfg(QSPI_HandleTypeDef *hqspi)
 807:Drivers/BSP/STM32F769I-Discovery/stm32f769i_discovery_qspi.c **** {
 808:Drivers/BSP/STM32F769I-Discovery/stm32f769i_discovery_qspi.c ****   QSPI_CommandTypeDef s_command;
 809:Drivers/BSP/STM32F769I-Discovery/stm32f769i_discovery_qspi.c ****   uint8_t reg[2];
 810:Drivers/BSP/STM32F769I-Discovery/stm32f769i_discovery_qspi.c ****   
 811:Drivers/BSP/STM32F769I-Discovery/stm32f769i_discovery_qspi.c ****   /* Initialize the reading of status register */
 812:Drivers/BSP/STM32F769I-Discovery/stm32f769i_discovery_qspi.c ****   s_command.InstructionMode   = QSPI_INSTRUCTION_4_LINES;
 813:Drivers/BSP/STM32F769I-Discovery/stm32f769i_discovery_qspi.c ****   s_command.Instruction       = READ_STATUS_REG_CMD;
 814:Drivers/BSP/STM32F769I-Discovery/stm32f769i_discovery_qspi.c ****   s_command.AddressMode       = QSPI_ADDRESS_NONE;
 815:Drivers/BSP/STM32F769I-Discovery/stm32f769i_discovery_qspi.c ****   s_command.AlternateByteMode = QSPI_ALTERNATE_BYTES_NONE;
 816:Drivers/BSP/STM32F769I-Discovery/stm32f769i_discovery_qspi.c ****   s_command.DataMode          = QSPI_DATA_4_LINES;
 817:Drivers/BSP/STM32F769I-Discovery/stm32f769i_discovery_qspi.c ****   s_command.DummyCycles       = 0;
 818:Drivers/BSP/STM32F769I-Discovery/stm32f769i_discovery_qspi.c ****   s_command.NbData            = 1;
 819:Drivers/BSP/STM32F769I-Discovery/stm32f769i_discovery_qspi.c ****   s_command.DdrMode           = QSPI_DDR_MODE_DISABLE;
 820:Drivers/BSP/STM32F769I-Discovery/stm32f769i_discovery_qspi.c ****   s_command.DdrHoldHalfCycle  = QSPI_DDR_HHC_ANALOG_DELAY;
 821:Drivers/BSP/STM32F769I-Discovery/stm32f769i_discovery_qspi.c ****   s_command.SIOOMode          = QSPI_SIOO_INST_EVERY_CMD;
 822:Drivers/BSP/STM32F769I-Discovery/stm32f769i_discovery_qspi.c ****   
 823:Drivers/BSP/STM32F769I-Discovery/stm32f769i_discovery_qspi.c ****   /* Configure the command */
 824:Drivers/BSP/STM32F769I-Discovery/stm32f769i_discovery_qspi.c ****   if (HAL_QSPI_Command(hqspi, &s_command, HAL_QPSI_TIMEOUT_DEFAULT_VALUE) != HAL_OK)
 825:Drivers/BSP/STM32F769I-Discovery/stm32f769i_discovery_qspi.c ****   {
 826:Drivers/BSP/STM32F769I-Discovery/stm32f769i_discovery_qspi.c ****     return QSPI_ERROR;
 827:Drivers/BSP/STM32F769I-Discovery/stm32f769i_discovery_qspi.c ****   }
 828:Drivers/BSP/STM32F769I-Discovery/stm32f769i_discovery_qspi.c ****   
 829:Drivers/BSP/STM32F769I-Discovery/stm32f769i_discovery_qspi.c ****   /* Reception of the data */
ARM GAS  /var/folders/n6/c271nzx11xl4r4_m7sqjlt0m0000gn/T//cc22wCrs.s 			page 16


 830:Drivers/BSP/STM32F769I-Discovery/stm32f769i_discovery_qspi.c ****   if (HAL_QSPI_Receive(hqspi, &(reg[0]), HAL_QPSI_TIMEOUT_DEFAULT_VALUE) != HAL_OK)
 831:Drivers/BSP/STM32F769I-Discovery/stm32f769i_discovery_qspi.c ****   {
 832:Drivers/BSP/STM32F769I-Discovery/stm32f769i_discovery_qspi.c ****     return QSPI_ERROR;
 833:Drivers/BSP/STM32F769I-Discovery/stm32f769i_discovery_qspi.c ****   }
 834:Drivers/BSP/STM32F769I-Discovery/stm32f769i_discovery_qspi.c ****   
 835:Drivers/BSP/STM32F769I-Discovery/stm32f769i_discovery_qspi.c ****   /* Initialize the reading of configuration register */
 836:Drivers/BSP/STM32F769I-Discovery/stm32f769i_discovery_qspi.c ****   s_command.InstructionMode   = QSPI_INSTRUCTION_4_LINES;
 837:Drivers/BSP/STM32F769I-Discovery/stm32f769i_discovery_qspi.c ****   s_command.Instruction       = READ_CFG_REG_CMD;
 838:Drivers/BSP/STM32F769I-Discovery/stm32f769i_discovery_qspi.c ****   s_command.AddressMode       = QSPI_ADDRESS_NONE;
 839:Drivers/BSP/STM32F769I-Discovery/stm32f769i_discovery_qspi.c ****   s_command.AlternateByteMode = QSPI_ALTERNATE_BYTES_NONE;
 840:Drivers/BSP/STM32F769I-Discovery/stm32f769i_discovery_qspi.c ****   s_command.DataMode          = QSPI_DATA_4_LINES;
 841:Drivers/BSP/STM32F769I-Discovery/stm32f769i_discovery_qspi.c ****   s_command.DummyCycles       = 0;
 842:Drivers/BSP/STM32F769I-Discovery/stm32f769i_discovery_qspi.c ****   s_command.NbData            = 1;
 843:Drivers/BSP/STM32F769I-Discovery/stm32f769i_discovery_qspi.c ****   s_command.DdrMode           = QSPI_DDR_MODE_DISABLE;
 844:Drivers/BSP/STM32F769I-Discovery/stm32f769i_discovery_qspi.c ****   s_command.DdrHoldHalfCycle  = QSPI_DDR_HHC_ANALOG_DELAY;
 845:Drivers/BSP/STM32F769I-Discovery/stm32f769i_discovery_qspi.c ****   s_command.SIOOMode          = QSPI_SIOO_INST_EVERY_CMD;
 846:Drivers/BSP/STM32F769I-Discovery/stm32f769i_discovery_qspi.c ****   
 847:Drivers/BSP/STM32F769I-Discovery/stm32f769i_discovery_qspi.c ****   /* Configure the command */
 848:Drivers/BSP/STM32F769I-Discovery/stm32f769i_discovery_qspi.c ****   if (HAL_QSPI_Command(hqspi, &s_command, HAL_QPSI_TIMEOUT_DEFAULT_VALUE) != HAL_OK)
 849:Drivers/BSP/STM32F769I-Discovery/stm32f769i_discovery_qspi.c ****   {
 850:Drivers/BSP/STM32F769I-Discovery/stm32f769i_discovery_qspi.c ****     return QSPI_ERROR;
 851:Drivers/BSP/STM32F769I-Discovery/stm32f769i_discovery_qspi.c ****   }
 852:Drivers/BSP/STM32F769I-Discovery/stm32f769i_discovery_qspi.c ****   
 853:Drivers/BSP/STM32F769I-Discovery/stm32f769i_discovery_qspi.c ****   /* Reception of the data */
 854:Drivers/BSP/STM32F769I-Discovery/stm32f769i_discovery_qspi.c ****   if (HAL_QSPI_Receive(hqspi, &(reg[1]), HAL_QPSI_TIMEOUT_DEFAULT_VALUE) != HAL_OK)
 855:Drivers/BSP/STM32F769I-Discovery/stm32f769i_discovery_qspi.c ****   {
 856:Drivers/BSP/STM32F769I-Discovery/stm32f769i_discovery_qspi.c ****     return QSPI_ERROR;
 857:Drivers/BSP/STM32F769I-Discovery/stm32f769i_discovery_qspi.c ****   }
 858:Drivers/BSP/STM32F769I-Discovery/stm32f769i_discovery_qspi.c ****   
 859:Drivers/BSP/STM32F769I-Discovery/stm32f769i_discovery_qspi.c ****   /* Enable write operations */
 860:Drivers/BSP/STM32F769I-Discovery/stm32f769i_discovery_qspi.c ****   if (QSPI_WriteEnable(hqspi) != QSPI_OK)
 861:Drivers/BSP/STM32F769I-Discovery/stm32f769i_discovery_qspi.c ****   {
 862:Drivers/BSP/STM32F769I-Discovery/stm32f769i_discovery_qspi.c ****     return QSPI_ERROR;
 863:Drivers/BSP/STM32F769I-Discovery/stm32f769i_discovery_qspi.c ****   }
 864:Drivers/BSP/STM32F769I-Discovery/stm32f769i_discovery_qspi.c ****   
 865:Drivers/BSP/STM32F769I-Discovery/stm32f769i_discovery_qspi.c ****   /* Update the configuration register with new dummy cycles */
 866:Drivers/BSP/STM32F769I-Discovery/stm32f769i_discovery_qspi.c ****   s_command.InstructionMode   = QSPI_INSTRUCTION_4_LINES;
 867:Drivers/BSP/STM32F769I-Discovery/stm32f769i_discovery_qspi.c ****   s_command.Instruction       = WRITE_STATUS_CFG_REG_CMD;
 868:Drivers/BSP/STM32F769I-Discovery/stm32f769i_discovery_qspi.c ****   s_command.AddressMode       = QSPI_ADDRESS_NONE;
 869:Drivers/BSP/STM32F769I-Discovery/stm32f769i_discovery_qspi.c ****   s_command.AlternateByteMode = QSPI_ALTERNATE_BYTES_NONE;
 870:Drivers/BSP/STM32F769I-Discovery/stm32f769i_discovery_qspi.c ****   s_command.DataMode          = QSPI_DATA_4_LINES;
 871:Drivers/BSP/STM32F769I-Discovery/stm32f769i_discovery_qspi.c ****   s_command.DummyCycles       = 0;
 872:Drivers/BSP/STM32F769I-Discovery/stm32f769i_discovery_qspi.c ****   s_command.NbData            = 2;
 873:Drivers/BSP/STM32F769I-Discovery/stm32f769i_discovery_qspi.c ****   s_command.DdrMode           = QSPI_DDR_MODE_DISABLE;
 874:Drivers/BSP/STM32F769I-Discovery/stm32f769i_discovery_qspi.c ****   s_command.DdrHoldHalfCycle  = QSPI_DDR_HHC_ANALOG_DELAY;
 875:Drivers/BSP/STM32F769I-Discovery/stm32f769i_discovery_qspi.c ****   s_command.SIOOMode          = QSPI_SIOO_INST_EVERY_CMD;
 876:Drivers/BSP/STM32F769I-Discovery/stm32f769i_discovery_qspi.c ****   
 877:Drivers/BSP/STM32F769I-Discovery/stm32f769i_discovery_qspi.c ****   /* MX25L512_DUMMY_CYCLES_READ_QUAD = 3 for 10 cycles in QPI mode */
 878:Drivers/BSP/STM32F769I-Discovery/stm32f769i_discovery_qspi.c ****   MODIFY_REG( reg[1], MX25L512_CR_NB_DUMMY, (MX25L512_DUMMY_CYCLES_READ_QUAD << POSITION_VAL(MX25L5
 879:Drivers/BSP/STM32F769I-Discovery/stm32f769i_discovery_qspi.c ****   
 880:Drivers/BSP/STM32F769I-Discovery/stm32f769i_discovery_qspi.c ****   /* Configure the write volatile configuration register command */
 881:Drivers/BSP/STM32F769I-Discovery/stm32f769i_discovery_qspi.c ****   if (HAL_QSPI_Command(hqspi, &s_command, HAL_QPSI_TIMEOUT_DEFAULT_VALUE) != HAL_OK)
 882:Drivers/BSP/STM32F769I-Discovery/stm32f769i_discovery_qspi.c ****   {
 883:Drivers/BSP/STM32F769I-Discovery/stm32f769i_discovery_qspi.c ****     return QSPI_ERROR;
 884:Drivers/BSP/STM32F769I-Discovery/stm32f769i_discovery_qspi.c ****   }
 885:Drivers/BSP/STM32F769I-Discovery/stm32f769i_discovery_qspi.c ****   
 886:Drivers/BSP/STM32F769I-Discovery/stm32f769i_discovery_qspi.c ****   /* Transmission of the data */
ARM GAS  /var/folders/n6/c271nzx11xl4r4_m7sqjlt0m0000gn/T//cc22wCrs.s 			page 17


 887:Drivers/BSP/STM32F769I-Discovery/stm32f769i_discovery_qspi.c ****   if (HAL_QSPI_Transmit(hqspi, &(reg[0]), HAL_QPSI_TIMEOUT_DEFAULT_VALUE) != HAL_OK)
 888:Drivers/BSP/STM32F769I-Discovery/stm32f769i_discovery_qspi.c ****   {
 889:Drivers/BSP/STM32F769I-Discovery/stm32f769i_discovery_qspi.c ****     return QSPI_ERROR;
 890:Drivers/BSP/STM32F769I-Discovery/stm32f769i_discovery_qspi.c ****   }
 891:Drivers/BSP/STM32F769I-Discovery/stm32f769i_discovery_qspi.c ****   
 892:Drivers/BSP/STM32F769I-Discovery/stm32f769i_discovery_qspi.c ****   /* 40ms  Write Status/Configuration Register Cycle Time */
 893:Drivers/BSP/STM32F769I-Discovery/stm32f769i_discovery_qspi.c ****   HAL_Delay( 40 );  
 894:Drivers/BSP/STM32F769I-Discovery/stm32f769i_discovery_qspi.c ****   
 895:Drivers/BSP/STM32F769I-Discovery/stm32f769i_discovery_qspi.c ****   return QSPI_OK;
 896:Drivers/BSP/STM32F769I-Discovery/stm32f769i_discovery_qspi.c **** }
 897:Drivers/BSP/STM32F769I-Discovery/stm32f769i_discovery_qspi.c **** 
 898:Drivers/BSP/STM32F769I-Discovery/stm32f769i_discovery_qspi.c **** /**
 899:Drivers/BSP/STM32F769I-Discovery/stm32f769i_discovery_qspi.c ****   * @brief  This function put QSPI memory in QPI mode (quad I/O).
 900:Drivers/BSP/STM32F769I-Discovery/stm32f769i_discovery_qspi.c ****   * @param  hqspi: QSPI handle
 901:Drivers/BSP/STM32F769I-Discovery/stm32f769i_discovery_qspi.c ****   * @retval None
 902:Drivers/BSP/STM32F769I-Discovery/stm32f769i_discovery_qspi.c ****   */
 903:Drivers/BSP/STM32F769I-Discovery/stm32f769i_discovery_qspi.c **** static uint8_t QSPI_EnterMemory_QPI( QSPI_HandleTypeDef *hqspi )
 904:Drivers/BSP/STM32F769I-Discovery/stm32f769i_discovery_qspi.c **** {
 905:Drivers/BSP/STM32F769I-Discovery/stm32f769i_discovery_qspi.c ****   QSPI_CommandTypeDef      s_command;
 906:Drivers/BSP/STM32F769I-Discovery/stm32f769i_discovery_qspi.c ****   QSPI_AutoPollingTypeDef  s_config;
 907:Drivers/BSP/STM32F769I-Discovery/stm32f769i_discovery_qspi.c **** 
 908:Drivers/BSP/STM32F769I-Discovery/stm32f769i_discovery_qspi.c ****   /* Initialize the QPI enable command */
 909:Drivers/BSP/STM32F769I-Discovery/stm32f769i_discovery_qspi.c ****   /* QSPI memory is supported to be in SPI mode, so CMD on 1 LINE */
 910:Drivers/BSP/STM32F769I-Discovery/stm32f769i_discovery_qspi.c ****   s_command.InstructionMode   = QSPI_INSTRUCTION_1_LINE;  
 911:Drivers/BSP/STM32F769I-Discovery/stm32f769i_discovery_qspi.c ****   s_command.Instruction       = ENTER_QUAD_CMD;
 912:Drivers/BSP/STM32F769I-Discovery/stm32f769i_discovery_qspi.c ****   s_command.AddressMode       = QSPI_ADDRESS_NONE;
 913:Drivers/BSP/STM32F769I-Discovery/stm32f769i_discovery_qspi.c ****   s_command.AlternateByteMode = QSPI_ALTERNATE_BYTES_NONE;
 914:Drivers/BSP/STM32F769I-Discovery/stm32f769i_discovery_qspi.c ****   s_command.DataMode          = QSPI_DATA_NONE;
 915:Drivers/BSP/STM32F769I-Discovery/stm32f769i_discovery_qspi.c ****   s_command.DummyCycles       = 0;
 916:Drivers/BSP/STM32F769I-Discovery/stm32f769i_discovery_qspi.c ****   s_command.DdrMode           = QSPI_DDR_MODE_DISABLE;
 917:Drivers/BSP/STM32F769I-Discovery/stm32f769i_discovery_qspi.c ****   s_command.DdrHoldHalfCycle  = QSPI_DDR_HHC_ANALOG_DELAY;
 918:Drivers/BSP/STM32F769I-Discovery/stm32f769i_discovery_qspi.c ****   s_command.SIOOMode          = QSPI_SIOO_INST_EVERY_CMD;
 919:Drivers/BSP/STM32F769I-Discovery/stm32f769i_discovery_qspi.c **** 
 920:Drivers/BSP/STM32F769I-Discovery/stm32f769i_discovery_qspi.c ****   /* Send the command */
 921:Drivers/BSP/STM32F769I-Discovery/stm32f769i_discovery_qspi.c ****   if (HAL_QSPI_Command(hqspi, &s_command, HAL_QPSI_TIMEOUT_DEFAULT_VALUE) != HAL_OK)
 922:Drivers/BSP/STM32F769I-Discovery/stm32f769i_discovery_qspi.c ****   {
 923:Drivers/BSP/STM32F769I-Discovery/stm32f769i_discovery_qspi.c ****     return QSPI_ERROR;
 924:Drivers/BSP/STM32F769I-Discovery/stm32f769i_discovery_qspi.c ****   }
 925:Drivers/BSP/STM32F769I-Discovery/stm32f769i_discovery_qspi.c **** 
 926:Drivers/BSP/STM32F769I-Discovery/stm32f769i_discovery_qspi.c ****   /* Configure automatic polling mode to wait the QUADEN bit=1 and WIP bit=0 */
 927:Drivers/BSP/STM32F769I-Discovery/stm32f769i_discovery_qspi.c ****   s_config.Match           = MX25L512_SR_QUADEN;
 928:Drivers/BSP/STM32F769I-Discovery/stm32f769i_discovery_qspi.c ****   s_config.Mask            = MX25L512_SR_QUADEN|MX25L512_SR_WIP;
 929:Drivers/BSP/STM32F769I-Discovery/stm32f769i_discovery_qspi.c ****   s_config.MatchMode       = QSPI_MATCH_MODE_AND;
 930:Drivers/BSP/STM32F769I-Discovery/stm32f769i_discovery_qspi.c ****   s_config.StatusBytesSize = 1;
 931:Drivers/BSP/STM32F769I-Discovery/stm32f769i_discovery_qspi.c ****   s_config.Interval        = 0x10;
 932:Drivers/BSP/STM32F769I-Discovery/stm32f769i_discovery_qspi.c ****   s_config.AutomaticStop   = QSPI_AUTOMATIC_STOP_ENABLE;
 933:Drivers/BSP/STM32F769I-Discovery/stm32f769i_discovery_qspi.c **** 
 934:Drivers/BSP/STM32F769I-Discovery/stm32f769i_discovery_qspi.c ****   s_command.InstructionMode   = QSPI_INSTRUCTION_4_LINES;
 935:Drivers/BSP/STM32F769I-Discovery/stm32f769i_discovery_qspi.c ****   s_command.Instruction       = READ_STATUS_REG_CMD;
 936:Drivers/BSP/STM32F769I-Discovery/stm32f769i_discovery_qspi.c ****   s_command.DataMode          = QSPI_DATA_4_LINES;
 937:Drivers/BSP/STM32F769I-Discovery/stm32f769i_discovery_qspi.c **** 
 938:Drivers/BSP/STM32F769I-Discovery/stm32f769i_discovery_qspi.c ****   if (HAL_QSPI_AutoPolling(hqspi, &s_command, &s_config, HAL_QPSI_TIMEOUT_DEFAULT_VALUE) != HAL_OK)
 939:Drivers/BSP/STM32F769I-Discovery/stm32f769i_discovery_qspi.c ****   {
 940:Drivers/BSP/STM32F769I-Discovery/stm32f769i_discovery_qspi.c ****     return QSPI_ERROR;
 941:Drivers/BSP/STM32F769I-Discovery/stm32f769i_discovery_qspi.c ****   }
 942:Drivers/BSP/STM32F769I-Discovery/stm32f769i_discovery_qspi.c **** 
 943:Drivers/BSP/STM32F769I-Discovery/stm32f769i_discovery_qspi.c ****   return QSPI_OK;
ARM GAS  /var/folders/n6/c271nzx11xl4r4_m7sqjlt0m0000gn/T//cc22wCrs.s 			page 18


 944:Drivers/BSP/STM32F769I-Discovery/stm32f769i_discovery_qspi.c **** }
 945:Drivers/BSP/STM32F769I-Discovery/stm32f769i_discovery_qspi.c **** 
 946:Drivers/BSP/STM32F769I-Discovery/stm32f769i_discovery_qspi.c **** /**
 947:Drivers/BSP/STM32F769I-Discovery/stm32f769i_discovery_qspi.c ****   * @brief  This function put QSPI memory in SPI mode.
 948:Drivers/BSP/STM32F769I-Discovery/stm32f769i_discovery_qspi.c ****   * @param  hqspi: QSPI handle
 949:Drivers/BSP/STM32F769I-Discovery/stm32f769i_discovery_qspi.c ****   * @retval None
 950:Drivers/BSP/STM32F769I-Discovery/stm32f769i_discovery_qspi.c ****   */
 951:Drivers/BSP/STM32F769I-Discovery/stm32f769i_discovery_qspi.c **** static uint8_t QSPI_ExitMemory_QPI( QSPI_HandleTypeDef *hqspi)
 952:Drivers/BSP/STM32F769I-Discovery/stm32f769i_discovery_qspi.c **** {
  28              		.loc 1 952 1 view -0
  29              		.cfi_startproc
  30              		@ args = 0, pretend = 0, frame = 56
  31              		@ frame_needed = 0, uses_anonymous_args = 0
  32              		.loc 1 952 1 is_stmt 0 view .LVU1
  33 0000 00B5     		push	{lr}
  34              		.cfi_def_cfa_offset 4
  35              		.cfi_offset 14, -4
  36 0002 8FB0     		sub	sp, sp, #60
  37              		.cfi_def_cfa_offset 64
 953:Drivers/BSP/STM32F769I-Discovery/stm32f769i_discovery_qspi.c ****   QSPI_CommandTypeDef      s_command;
  38              		.loc 1 953 3 is_stmt 1 view .LVU2
 954:Drivers/BSP/STM32F769I-Discovery/stm32f769i_discovery_qspi.c **** 
 955:Drivers/BSP/STM32F769I-Discovery/stm32f769i_discovery_qspi.c ****   /* Initialize the QPI enable command */
 956:Drivers/BSP/STM32F769I-Discovery/stm32f769i_discovery_qspi.c ****   /* QSPI memory is supported to be in QPI mode, so CMD on 4 LINES */
 957:Drivers/BSP/STM32F769I-Discovery/stm32f769i_discovery_qspi.c ****   s_command.InstructionMode   = QSPI_INSTRUCTION_4_LINES;  
  39              		.loc 1 957 3 view .LVU3
  40              		.loc 1 957 31 is_stmt 0 view .LVU4
  41 0004 4FF44073 		mov	r3, #768
  42 0008 0693     		str	r3, [sp, #24]
 958:Drivers/BSP/STM32F769I-Discovery/stm32f769i_discovery_qspi.c ****   s_command.Instruction       = EXIT_QUAD_CMD;
  43              		.loc 1 958 3 is_stmt 1 view .LVU5
  44              		.loc 1 958 31 is_stmt 0 view .LVU6
  45 000a F523     		movs	r3, #245
  46 000c 0093     		str	r3, [sp]
 959:Drivers/BSP/STM32F769I-Discovery/stm32f769i_discovery_qspi.c ****   s_command.AddressMode       = QSPI_ADDRESS_NONE;
  47              		.loc 1 959 3 is_stmt 1 view .LVU7
  48              		.loc 1 959 31 is_stmt 0 view .LVU8
  49 000e 0023     		movs	r3, #0
  50 0010 0793     		str	r3, [sp, #28]
 960:Drivers/BSP/STM32F769I-Discovery/stm32f769i_discovery_qspi.c ****   s_command.AlternateByteMode = QSPI_ALTERNATE_BYTES_NONE;
  51              		.loc 1 960 3 is_stmt 1 view .LVU9
  52              		.loc 1 960 31 is_stmt 0 view .LVU10
  53 0012 0893     		str	r3, [sp, #32]
 961:Drivers/BSP/STM32F769I-Discovery/stm32f769i_discovery_qspi.c ****   s_command.DataMode          = QSPI_DATA_NONE;
  54              		.loc 1 961 3 is_stmt 1 view .LVU11
  55              		.loc 1 961 31 is_stmt 0 view .LVU12
  56 0014 0993     		str	r3, [sp, #36]
 962:Drivers/BSP/STM32F769I-Discovery/stm32f769i_discovery_qspi.c ****   s_command.DummyCycles       = 0;
  57              		.loc 1 962 3 is_stmt 1 view .LVU13
  58              		.loc 1 962 31 is_stmt 0 view .LVU14
  59 0016 0593     		str	r3, [sp, #20]
 963:Drivers/BSP/STM32F769I-Discovery/stm32f769i_discovery_qspi.c ****   s_command.DdrMode           = QSPI_DDR_MODE_DISABLE;
  60              		.loc 1 963 3 is_stmt 1 view .LVU15
  61              		.loc 1 963 31 is_stmt 0 view .LVU16
  62 0018 0B93     		str	r3, [sp, #44]
 964:Drivers/BSP/STM32F769I-Discovery/stm32f769i_discovery_qspi.c ****   s_command.DdrHoldHalfCycle  = QSPI_DDR_HHC_ANALOG_DELAY;
  63              		.loc 1 964 3 is_stmt 1 view .LVU17
ARM GAS  /var/folders/n6/c271nzx11xl4r4_m7sqjlt0m0000gn/T//cc22wCrs.s 			page 19


  64              		.loc 1 964 31 is_stmt 0 view .LVU18
  65 001a 0C93     		str	r3, [sp, #48]
 965:Drivers/BSP/STM32F769I-Discovery/stm32f769i_discovery_qspi.c ****   s_command.SIOOMode          = QSPI_SIOO_INST_EVERY_CMD;
  66              		.loc 1 965 3 is_stmt 1 view .LVU19
  67              		.loc 1 965 31 is_stmt 0 view .LVU20
  68 001c 0D93     		str	r3, [sp, #52]
 966:Drivers/BSP/STM32F769I-Discovery/stm32f769i_discovery_qspi.c **** 
 967:Drivers/BSP/STM32F769I-Discovery/stm32f769i_discovery_qspi.c ****   /* Send the command */
 968:Drivers/BSP/STM32F769I-Discovery/stm32f769i_discovery_qspi.c ****   if (HAL_QSPI_Command(hqspi, &s_command, HAL_QPSI_TIMEOUT_DEFAULT_VALUE) != HAL_OK)
  69              		.loc 1 968 3 is_stmt 1 view .LVU21
  70              		.loc 1 968 7 is_stmt 0 view .LVU22
  71 001e 41F28832 		movw	r2, #5000
  72 0022 6946     		mov	r1, sp
  73 0024 FFF7FEFF 		bl	HAL_QSPI_Command
  74              	.LVL1:
  75              		.loc 1 968 6 discriminator 1 view .LVU23
  76 0028 10B9     		cbnz	r0, .L5
  77              	.L2:
 969:Drivers/BSP/STM32F769I-Discovery/stm32f769i_discovery_qspi.c ****   {
 970:Drivers/BSP/STM32F769I-Discovery/stm32f769i_discovery_qspi.c ****     return QSPI_ERROR;
 971:Drivers/BSP/STM32F769I-Discovery/stm32f769i_discovery_qspi.c ****   }
 972:Drivers/BSP/STM32F769I-Discovery/stm32f769i_discovery_qspi.c **** 
 973:Drivers/BSP/STM32F769I-Discovery/stm32f769i_discovery_qspi.c ****   return QSPI_OK;
 974:Drivers/BSP/STM32F769I-Discovery/stm32f769i_discovery_qspi.c **** }
  78              		.loc 1 974 1 view .LVU24
  79 002a 0FB0     		add	sp, sp, #60
  80              		.cfi_remember_state
  81              		.cfi_def_cfa_offset 4
  82              		@ sp needed
  83 002c 5DF804FB 		ldr	pc, [sp], #4
  84              	.L5:
  85              		.cfi_restore_state
 970:Drivers/BSP/STM32F769I-Discovery/stm32f769i_discovery_qspi.c ****   }
  86              		.loc 1 970 12 view .LVU25
  87 0030 0120     		movs	r0, #1
  88 0032 FAE7     		b	.L2
  89              		.cfi_endproc
  90              	.LFE156:
  92              		.section	.text.QSPI_EnterMemory_QPI,"ax",%progbits
  93              		.align	1
  94              		.syntax unified
  95              		.thumb
  96              		.thumb_func
  98              	QSPI_EnterMemory_QPI:
  99              	.LVL2:
 100              	.LFB155:
 904:Drivers/BSP/STM32F769I-Discovery/stm32f769i_discovery_qspi.c ****   QSPI_CommandTypeDef      s_command;
 101              		.loc 1 904 1 is_stmt 1 view -0
 102              		.cfi_startproc
 103              		@ args = 0, pretend = 0, frame = 80
 104              		@ frame_needed = 0, uses_anonymous_args = 0
 904:Drivers/BSP/STM32F769I-Discovery/stm32f769i_discovery_qspi.c ****   QSPI_CommandTypeDef      s_command;
 105              		.loc 1 904 1 is_stmt 0 view .LVU27
 106 0000 10B5     		push	{r4, lr}
 107              		.cfi_def_cfa_offset 8
 108              		.cfi_offset 4, -8
 109              		.cfi_offset 14, -4
ARM GAS  /var/folders/n6/c271nzx11xl4r4_m7sqjlt0m0000gn/T//cc22wCrs.s 			page 20


 110 0002 94B0     		sub	sp, sp, #80
 111              		.cfi_def_cfa_offset 88
 112 0004 0446     		mov	r4, r0
 905:Drivers/BSP/STM32F769I-Discovery/stm32f769i_discovery_qspi.c ****   QSPI_AutoPollingTypeDef  s_config;
 113              		.loc 1 905 3 is_stmt 1 view .LVU28
 906:Drivers/BSP/STM32F769I-Discovery/stm32f769i_discovery_qspi.c **** 
 114              		.loc 1 906 3 view .LVU29
 910:Drivers/BSP/STM32F769I-Discovery/stm32f769i_discovery_qspi.c ****   s_command.Instruction       = ENTER_QUAD_CMD;
 115              		.loc 1 910 3 view .LVU30
 910:Drivers/BSP/STM32F769I-Discovery/stm32f769i_discovery_qspi.c ****   s_command.Instruction       = ENTER_QUAD_CMD;
 116              		.loc 1 910 31 is_stmt 0 view .LVU31
 117 0006 4FF48073 		mov	r3, #256
 118 000a 0C93     		str	r3, [sp, #48]
 911:Drivers/BSP/STM32F769I-Discovery/stm32f769i_discovery_qspi.c ****   s_command.AddressMode       = QSPI_ADDRESS_NONE;
 119              		.loc 1 911 3 is_stmt 1 view .LVU32
 911:Drivers/BSP/STM32F769I-Discovery/stm32f769i_discovery_qspi.c ****   s_command.AddressMode       = QSPI_ADDRESS_NONE;
 120              		.loc 1 911 31 is_stmt 0 view .LVU33
 121 000c 3523     		movs	r3, #53
 122 000e 0693     		str	r3, [sp, #24]
 912:Drivers/BSP/STM32F769I-Discovery/stm32f769i_discovery_qspi.c ****   s_command.AlternateByteMode = QSPI_ALTERNATE_BYTES_NONE;
 123              		.loc 1 912 3 is_stmt 1 view .LVU34
 912:Drivers/BSP/STM32F769I-Discovery/stm32f769i_discovery_qspi.c ****   s_command.AlternateByteMode = QSPI_ALTERNATE_BYTES_NONE;
 124              		.loc 1 912 31 is_stmt 0 view .LVU35
 125 0010 0023     		movs	r3, #0
 126 0012 0D93     		str	r3, [sp, #52]
 913:Drivers/BSP/STM32F769I-Discovery/stm32f769i_discovery_qspi.c ****   s_command.DataMode          = QSPI_DATA_NONE;
 127              		.loc 1 913 3 is_stmt 1 view .LVU36
 913:Drivers/BSP/STM32F769I-Discovery/stm32f769i_discovery_qspi.c ****   s_command.DataMode          = QSPI_DATA_NONE;
 128              		.loc 1 913 31 is_stmt 0 view .LVU37
 129 0014 0E93     		str	r3, [sp, #56]
 914:Drivers/BSP/STM32F769I-Discovery/stm32f769i_discovery_qspi.c ****   s_command.DummyCycles       = 0;
 130              		.loc 1 914 3 is_stmt 1 view .LVU38
 914:Drivers/BSP/STM32F769I-Discovery/stm32f769i_discovery_qspi.c ****   s_command.DummyCycles       = 0;
 131              		.loc 1 914 31 is_stmt 0 view .LVU39
 132 0016 0F93     		str	r3, [sp, #60]
 915:Drivers/BSP/STM32F769I-Discovery/stm32f769i_discovery_qspi.c ****   s_command.DdrMode           = QSPI_DDR_MODE_DISABLE;
 133              		.loc 1 915 3 is_stmt 1 view .LVU40
 915:Drivers/BSP/STM32F769I-Discovery/stm32f769i_discovery_qspi.c ****   s_command.DdrMode           = QSPI_DDR_MODE_DISABLE;
 134              		.loc 1 915 31 is_stmt 0 view .LVU41
 135 0018 0B93     		str	r3, [sp, #44]
 916:Drivers/BSP/STM32F769I-Discovery/stm32f769i_discovery_qspi.c ****   s_command.DdrHoldHalfCycle  = QSPI_DDR_HHC_ANALOG_DELAY;
 136              		.loc 1 916 3 is_stmt 1 view .LVU42
 916:Drivers/BSP/STM32F769I-Discovery/stm32f769i_discovery_qspi.c ****   s_command.DdrHoldHalfCycle  = QSPI_DDR_HHC_ANALOG_DELAY;
 137              		.loc 1 916 31 is_stmt 0 view .LVU43
 138 001a 1193     		str	r3, [sp, #68]
 917:Drivers/BSP/STM32F769I-Discovery/stm32f769i_discovery_qspi.c ****   s_command.SIOOMode          = QSPI_SIOO_INST_EVERY_CMD;
 139              		.loc 1 917 3 is_stmt 1 view .LVU44
 917:Drivers/BSP/STM32F769I-Discovery/stm32f769i_discovery_qspi.c ****   s_command.SIOOMode          = QSPI_SIOO_INST_EVERY_CMD;
 140              		.loc 1 917 31 is_stmt 0 view .LVU45
 141 001c 1293     		str	r3, [sp, #72]
 918:Drivers/BSP/STM32F769I-Discovery/stm32f769i_discovery_qspi.c **** 
 142              		.loc 1 918 3 is_stmt 1 view .LVU46
 918:Drivers/BSP/STM32F769I-Discovery/stm32f769i_discovery_qspi.c **** 
 143              		.loc 1 918 31 is_stmt 0 view .LVU47
 144 001e 1393     		str	r3, [sp, #76]
 921:Drivers/BSP/STM32F769I-Discovery/stm32f769i_discovery_qspi.c ****   {
 145              		.loc 1 921 3 is_stmt 1 view .LVU48
ARM GAS  /var/folders/n6/c271nzx11xl4r4_m7sqjlt0m0000gn/T//cc22wCrs.s 			page 21


 921:Drivers/BSP/STM32F769I-Discovery/stm32f769i_discovery_qspi.c ****   {
 146              		.loc 1 921 7 is_stmt 0 view .LVU49
 147 0020 41F28832 		movw	r2, #5000
 148 0024 06A9     		add	r1, sp, #24
 149 0026 FFF7FEFF 		bl	HAL_QSPI_Command
 150              	.LVL3:
 921:Drivers/BSP/STM32F769I-Discovery/stm32f769i_discovery_qspi.c ****   {
 151              		.loc 1 921 6 discriminator 1 view .LVU50
 152 002a 10B1     		cbz	r0, .L11
 923:Drivers/BSP/STM32F769I-Discovery/stm32f769i_discovery_qspi.c ****   }
 153              		.loc 1 923 12 view .LVU51
 154 002c 0120     		movs	r0, #1
 155              	.L7:
 944:Drivers/BSP/STM32F769I-Discovery/stm32f769i_discovery_qspi.c **** 
 156              		.loc 1 944 1 view .LVU52
 157 002e 14B0     		add	sp, sp, #80
 158              		.cfi_remember_state
 159              		.cfi_def_cfa_offset 8
 160              		@ sp needed
 161 0030 10BD     		pop	{r4, pc}
 162              	.LVL4:
 163              	.L11:
 164              		.cfi_restore_state
 927:Drivers/BSP/STM32F769I-Discovery/stm32f769i_discovery_qspi.c ****   s_config.Mask            = MX25L512_SR_QUADEN|MX25L512_SR_WIP;
 165              		.loc 1 927 3 is_stmt 1 view .LVU53
 927:Drivers/BSP/STM32F769I-Discovery/stm32f769i_discovery_qspi.c ****   s_config.Mask            = MX25L512_SR_QUADEN|MX25L512_SR_WIP;
 166              		.loc 1 927 28 is_stmt 0 view .LVU54
 167 0032 4023     		movs	r3, #64
 168 0034 0093     		str	r3, [sp]
 928:Drivers/BSP/STM32F769I-Discovery/stm32f769i_discovery_qspi.c ****   s_config.MatchMode       = QSPI_MATCH_MODE_AND;
 169              		.loc 1 928 3 is_stmt 1 view .LVU55
 928:Drivers/BSP/STM32F769I-Discovery/stm32f769i_discovery_qspi.c ****   s_config.MatchMode       = QSPI_MATCH_MODE_AND;
 170              		.loc 1 928 28 is_stmt 0 view .LVU56
 171 0036 4123     		movs	r3, #65
 172 0038 0193     		str	r3, [sp, #4]
 929:Drivers/BSP/STM32F769I-Discovery/stm32f769i_discovery_qspi.c ****   s_config.StatusBytesSize = 1;
 173              		.loc 1 929 3 is_stmt 1 view .LVU57
 929:Drivers/BSP/STM32F769I-Discovery/stm32f769i_discovery_qspi.c ****   s_config.StatusBytesSize = 1;
 174              		.loc 1 929 28 is_stmt 0 view .LVU58
 175 003a 0023     		movs	r3, #0
 176 003c 0493     		str	r3, [sp, #16]
 930:Drivers/BSP/STM32F769I-Discovery/stm32f769i_discovery_qspi.c ****   s_config.Interval        = 0x10;
 177              		.loc 1 930 3 is_stmt 1 view .LVU59
 930:Drivers/BSP/STM32F769I-Discovery/stm32f769i_discovery_qspi.c ****   s_config.Interval        = 0x10;
 178              		.loc 1 930 28 is_stmt 0 view .LVU60
 179 003e 0123     		movs	r3, #1
 180 0040 0393     		str	r3, [sp, #12]
 931:Drivers/BSP/STM32F769I-Discovery/stm32f769i_discovery_qspi.c ****   s_config.AutomaticStop   = QSPI_AUTOMATIC_STOP_ENABLE;
 181              		.loc 1 931 3 is_stmt 1 view .LVU61
 931:Drivers/BSP/STM32F769I-Discovery/stm32f769i_discovery_qspi.c ****   s_config.AutomaticStop   = QSPI_AUTOMATIC_STOP_ENABLE;
 182              		.loc 1 931 28 is_stmt 0 view .LVU62
 183 0042 1023     		movs	r3, #16
 184 0044 0293     		str	r3, [sp, #8]
 932:Drivers/BSP/STM32F769I-Discovery/stm32f769i_discovery_qspi.c **** 
 185              		.loc 1 932 3 is_stmt 1 view .LVU63
 932:Drivers/BSP/STM32F769I-Discovery/stm32f769i_discovery_qspi.c **** 
 186              		.loc 1 932 28 is_stmt 0 view .LVU64
ARM GAS  /var/folders/n6/c271nzx11xl4r4_m7sqjlt0m0000gn/T//cc22wCrs.s 			page 22


 187 0046 4FF48003 		mov	r3, #4194304
 188 004a 0593     		str	r3, [sp, #20]
 934:Drivers/BSP/STM32F769I-Discovery/stm32f769i_discovery_qspi.c ****   s_command.Instruction       = READ_STATUS_REG_CMD;
 189              		.loc 1 934 3 is_stmt 1 view .LVU65
 934:Drivers/BSP/STM32F769I-Discovery/stm32f769i_discovery_qspi.c ****   s_command.Instruction       = READ_STATUS_REG_CMD;
 190              		.loc 1 934 31 is_stmt 0 view .LVU66
 191 004c 4FF44073 		mov	r3, #768
 192 0050 0C93     		str	r3, [sp, #48]
 935:Drivers/BSP/STM32F769I-Discovery/stm32f769i_discovery_qspi.c ****   s_command.DataMode          = QSPI_DATA_4_LINES;
 193              		.loc 1 935 3 is_stmt 1 view .LVU67
 935:Drivers/BSP/STM32F769I-Discovery/stm32f769i_discovery_qspi.c ****   s_command.DataMode          = QSPI_DATA_4_LINES;
 194              		.loc 1 935 31 is_stmt 0 view .LVU68
 195 0052 0523     		movs	r3, #5
 196 0054 0693     		str	r3, [sp, #24]
 936:Drivers/BSP/STM32F769I-Discovery/stm32f769i_discovery_qspi.c **** 
 197              		.loc 1 936 3 is_stmt 1 view .LVU69
 936:Drivers/BSP/STM32F769I-Discovery/stm32f769i_discovery_qspi.c **** 
 198              		.loc 1 936 31 is_stmt 0 view .LVU70
 199 0056 4FF04073 		mov	r3, #50331648
 200 005a 0F93     		str	r3, [sp, #60]
 938:Drivers/BSP/STM32F769I-Discovery/stm32f769i_discovery_qspi.c ****   {
 201              		.loc 1 938 3 is_stmt 1 view .LVU71
 938:Drivers/BSP/STM32F769I-Discovery/stm32f769i_discovery_qspi.c ****   {
 202              		.loc 1 938 7 is_stmt 0 view .LVU72
 203 005c 41F28833 		movw	r3, #5000
 204 0060 6A46     		mov	r2, sp
 205 0062 06A9     		add	r1, sp, #24
 206 0064 2046     		mov	r0, r4
 207 0066 FFF7FEFF 		bl	HAL_QSPI_AutoPolling
 208              	.LVL5:
 938:Drivers/BSP/STM32F769I-Discovery/stm32f769i_discovery_qspi.c ****   {
 209              		.loc 1 938 6 discriminator 1 view .LVU73
 210 006a 0028     		cmp	r0, #0
 211 006c DFD0     		beq	.L7
 940:Drivers/BSP/STM32F769I-Discovery/stm32f769i_discovery_qspi.c ****   }
 212              		.loc 1 940 12 view .LVU74
 213 006e 0120     		movs	r0, #1
 214 0070 DDE7     		b	.L7
 215              		.cfi_endproc
 216              	.LFE155:
 218              		.section	.text.QSPI_WriteEnable,"ax",%progbits
 219              		.align	1
 220              		.syntax unified
 221              		.thumb
 222              		.thumb_func
 224              	QSPI_WriteEnable:
 225              	.LVL6:
 226              	.LFB158:
 975:Drivers/BSP/STM32F769I-Discovery/stm32f769i_discovery_qspi.c **** 
 976:Drivers/BSP/STM32F769I-Discovery/stm32f769i_discovery_qspi.c **** /**
 977:Drivers/BSP/STM32F769I-Discovery/stm32f769i_discovery_qspi.c ****   * @brief  This function configure the Output driver strength on memory side.
 978:Drivers/BSP/STM32F769I-Discovery/stm32f769i_discovery_qspi.c ****   * @param  hqspi: QSPI handle
 979:Drivers/BSP/STM32F769I-Discovery/stm32f769i_discovery_qspi.c ****   * @retval None
 980:Drivers/BSP/STM32F769I-Discovery/stm32f769i_discovery_qspi.c ****   */
 981:Drivers/BSP/STM32F769I-Discovery/stm32f769i_discovery_qspi.c **** static uint8_t QSPI_OutDrvStrengthCfg( QSPI_HandleTypeDef *hqspi )
 982:Drivers/BSP/STM32F769I-Discovery/stm32f769i_discovery_qspi.c **** {
 983:Drivers/BSP/STM32F769I-Discovery/stm32f769i_discovery_qspi.c ****   QSPI_CommandTypeDef s_command;
ARM GAS  /var/folders/n6/c271nzx11xl4r4_m7sqjlt0m0000gn/T//cc22wCrs.s 			page 23


 984:Drivers/BSP/STM32F769I-Discovery/stm32f769i_discovery_qspi.c ****   uint8_t reg[2];
 985:Drivers/BSP/STM32F769I-Discovery/stm32f769i_discovery_qspi.c **** 
 986:Drivers/BSP/STM32F769I-Discovery/stm32f769i_discovery_qspi.c ****   /* Initialize the reading of status register */
 987:Drivers/BSP/STM32F769I-Discovery/stm32f769i_discovery_qspi.c ****   s_command.InstructionMode   = QSPI_INSTRUCTION_4_LINES;
 988:Drivers/BSP/STM32F769I-Discovery/stm32f769i_discovery_qspi.c ****   s_command.Instruction       = READ_STATUS_REG_CMD;
 989:Drivers/BSP/STM32F769I-Discovery/stm32f769i_discovery_qspi.c ****   s_command.AddressMode       = QSPI_ADDRESS_NONE;
 990:Drivers/BSP/STM32F769I-Discovery/stm32f769i_discovery_qspi.c ****   s_command.AlternateByteMode = QSPI_ALTERNATE_BYTES_NONE;
 991:Drivers/BSP/STM32F769I-Discovery/stm32f769i_discovery_qspi.c ****   s_command.DataMode          = QSPI_DATA_4_LINES;
 992:Drivers/BSP/STM32F769I-Discovery/stm32f769i_discovery_qspi.c ****   s_command.DummyCycles       = 0;
 993:Drivers/BSP/STM32F769I-Discovery/stm32f769i_discovery_qspi.c ****   s_command.NbData            = 1;
 994:Drivers/BSP/STM32F769I-Discovery/stm32f769i_discovery_qspi.c ****   s_command.DdrMode           = QSPI_DDR_MODE_DISABLE;
 995:Drivers/BSP/STM32F769I-Discovery/stm32f769i_discovery_qspi.c ****   s_command.DdrHoldHalfCycle  = QSPI_DDR_HHC_ANALOG_DELAY;
 996:Drivers/BSP/STM32F769I-Discovery/stm32f769i_discovery_qspi.c ****   s_command.SIOOMode          = QSPI_SIOO_INST_EVERY_CMD;
 997:Drivers/BSP/STM32F769I-Discovery/stm32f769i_discovery_qspi.c **** 
 998:Drivers/BSP/STM32F769I-Discovery/stm32f769i_discovery_qspi.c ****   /* Configure the command */
 999:Drivers/BSP/STM32F769I-Discovery/stm32f769i_discovery_qspi.c ****   if (HAL_QSPI_Command(hqspi, &s_command, HAL_QPSI_TIMEOUT_DEFAULT_VALUE) != HAL_OK)
1000:Drivers/BSP/STM32F769I-Discovery/stm32f769i_discovery_qspi.c ****   {
1001:Drivers/BSP/STM32F769I-Discovery/stm32f769i_discovery_qspi.c ****     return QSPI_ERROR;
1002:Drivers/BSP/STM32F769I-Discovery/stm32f769i_discovery_qspi.c ****   }
1003:Drivers/BSP/STM32F769I-Discovery/stm32f769i_discovery_qspi.c **** 
1004:Drivers/BSP/STM32F769I-Discovery/stm32f769i_discovery_qspi.c ****   /* Reception of the data */
1005:Drivers/BSP/STM32F769I-Discovery/stm32f769i_discovery_qspi.c ****   if (HAL_QSPI_Receive(hqspi, &(reg[0]), HAL_QPSI_TIMEOUT_DEFAULT_VALUE) != HAL_OK)
1006:Drivers/BSP/STM32F769I-Discovery/stm32f769i_discovery_qspi.c ****   {
1007:Drivers/BSP/STM32F769I-Discovery/stm32f769i_discovery_qspi.c ****     return QSPI_ERROR;
1008:Drivers/BSP/STM32F769I-Discovery/stm32f769i_discovery_qspi.c ****   }
1009:Drivers/BSP/STM32F769I-Discovery/stm32f769i_discovery_qspi.c **** 
1010:Drivers/BSP/STM32F769I-Discovery/stm32f769i_discovery_qspi.c ****   /* Initialize the reading of configuration register */
1011:Drivers/BSP/STM32F769I-Discovery/stm32f769i_discovery_qspi.c ****   s_command.InstructionMode   = QSPI_INSTRUCTION_4_LINES;
1012:Drivers/BSP/STM32F769I-Discovery/stm32f769i_discovery_qspi.c ****   s_command.Instruction       = READ_CFG_REG_CMD;
1013:Drivers/BSP/STM32F769I-Discovery/stm32f769i_discovery_qspi.c ****   s_command.AddressMode       = QSPI_ADDRESS_NONE;
1014:Drivers/BSP/STM32F769I-Discovery/stm32f769i_discovery_qspi.c ****   s_command.AlternateByteMode = QSPI_ALTERNATE_BYTES_NONE;
1015:Drivers/BSP/STM32F769I-Discovery/stm32f769i_discovery_qspi.c ****   s_command.DataMode          = QSPI_DATA_4_LINES;
1016:Drivers/BSP/STM32F769I-Discovery/stm32f769i_discovery_qspi.c ****   s_command.DummyCycles       = 0;
1017:Drivers/BSP/STM32F769I-Discovery/stm32f769i_discovery_qspi.c ****   s_command.NbData            = 1;
1018:Drivers/BSP/STM32F769I-Discovery/stm32f769i_discovery_qspi.c ****   s_command.DdrMode           = QSPI_DDR_MODE_DISABLE;
1019:Drivers/BSP/STM32F769I-Discovery/stm32f769i_discovery_qspi.c ****   s_command.DdrHoldHalfCycle  = QSPI_DDR_HHC_ANALOG_DELAY;
1020:Drivers/BSP/STM32F769I-Discovery/stm32f769i_discovery_qspi.c ****   s_command.SIOOMode          = QSPI_SIOO_INST_EVERY_CMD;
1021:Drivers/BSP/STM32F769I-Discovery/stm32f769i_discovery_qspi.c **** 
1022:Drivers/BSP/STM32F769I-Discovery/stm32f769i_discovery_qspi.c ****   /* Configure the command */
1023:Drivers/BSP/STM32F769I-Discovery/stm32f769i_discovery_qspi.c ****   if (HAL_QSPI_Command(hqspi, &s_command, HAL_QPSI_TIMEOUT_DEFAULT_VALUE) != HAL_OK)
1024:Drivers/BSP/STM32F769I-Discovery/stm32f769i_discovery_qspi.c ****   {
1025:Drivers/BSP/STM32F769I-Discovery/stm32f769i_discovery_qspi.c ****     return QSPI_ERROR;
1026:Drivers/BSP/STM32F769I-Discovery/stm32f769i_discovery_qspi.c ****   }
1027:Drivers/BSP/STM32F769I-Discovery/stm32f769i_discovery_qspi.c **** 
1028:Drivers/BSP/STM32F769I-Discovery/stm32f769i_discovery_qspi.c ****   /* Reception of the data */
1029:Drivers/BSP/STM32F769I-Discovery/stm32f769i_discovery_qspi.c ****   if (HAL_QSPI_Receive(hqspi, &(reg[1]), HAL_QPSI_TIMEOUT_DEFAULT_VALUE) != HAL_OK)
1030:Drivers/BSP/STM32F769I-Discovery/stm32f769i_discovery_qspi.c ****   {
1031:Drivers/BSP/STM32F769I-Discovery/stm32f769i_discovery_qspi.c ****     return QSPI_ERROR;
1032:Drivers/BSP/STM32F769I-Discovery/stm32f769i_discovery_qspi.c ****   }
1033:Drivers/BSP/STM32F769I-Discovery/stm32f769i_discovery_qspi.c **** 
1034:Drivers/BSP/STM32F769I-Discovery/stm32f769i_discovery_qspi.c ****   /* Enable write operations */
1035:Drivers/BSP/STM32F769I-Discovery/stm32f769i_discovery_qspi.c ****   if (QSPI_WriteEnable(&QSPIHandle) != QSPI_OK)
1036:Drivers/BSP/STM32F769I-Discovery/stm32f769i_discovery_qspi.c ****   {
1037:Drivers/BSP/STM32F769I-Discovery/stm32f769i_discovery_qspi.c ****     return QSPI_ERROR;
1038:Drivers/BSP/STM32F769I-Discovery/stm32f769i_discovery_qspi.c ****   }
1039:Drivers/BSP/STM32F769I-Discovery/stm32f769i_discovery_qspi.c **** 
1040:Drivers/BSP/STM32F769I-Discovery/stm32f769i_discovery_qspi.c ****   /* Update the configuration register with new output driver strength */
ARM GAS  /var/folders/n6/c271nzx11xl4r4_m7sqjlt0m0000gn/T//cc22wCrs.s 			page 24


1041:Drivers/BSP/STM32F769I-Discovery/stm32f769i_discovery_qspi.c ****   s_command.InstructionMode   = QSPI_INSTRUCTION_4_LINES;
1042:Drivers/BSP/STM32F769I-Discovery/stm32f769i_discovery_qspi.c ****   s_command.Instruction       = WRITE_STATUS_CFG_REG_CMD;
1043:Drivers/BSP/STM32F769I-Discovery/stm32f769i_discovery_qspi.c ****   s_command.AddressMode       = QSPI_ADDRESS_NONE;
1044:Drivers/BSP/STM32F769I-Discovery/stm32f769i_discovery_qspi.c ****   s_command.AlternateByteMode = QSPI_ALTERNATE_BYTES_NONE;
1045:Drivers/BSP/STM32F769I-Discovery/stm32f769i_discovery_qspi.c ****   s_command.DataMode          = QSPI_DATA_4_LINES;
1046:Drivers/BSP/STM32F769I-Discovery/stm32f769i_discovery_qspi.c ****   s_command.DummyCycles       = 0;
1047:Drivers/BSP/STM32F769I-Discovery/stm32f769i_discovery_qspi.c ****   s_command.NbData            = 2;
1048:Drivers/BSP/STM32F769I-Discovery/stm32f769i_discovery_qspi.c ****   s_command.DdrMode           = QSPI_DDR_MODE_DISABLE;
1049:Drivers/BSP/STM32F769I-Discovery/stm32f769i_discovery_qspi.c ****   s_command.DdrHoldHalfCycle  = QSPI_DDR_HHC_ANALOG_DELAY;
1050:Drivers/BSP/STM32F769I-Discovery/stm32f769i_discovery_qspi.c ****   s_command.SIOOMode          = QSPI_SIOO_INST_EVERY_CMD;
1051:Drivers/BSP/STM32F769I-Discovery/stm32f769i_discovery_qspi.c **** 
1052:Drivers/BSP/STM32F769I-Discovery/stm32f769i_discovery_qspi.c ****   /* Set Output Strength of the QSPI memory 15 ohms */
1053:Drivers/BSP/STM32F769I-Discovery/stm32f769i_discovery_qspi.c ****   MODIFY_REG( reg[1], MX25L512_CR_ODS, (MX25L512_CR_ODS_15 << POSITION_VAL(MX25L512_CR_ODS)));
1054:Drivers/BSP/STM32F769I-Discovery/stm32f769i_discovery_qspi.c **** 
1055:Drivers/BSP/STM32F769I-Discovery/stm32f769i_discovery_qspi.c ****   /* Configure the write volatile configuration register command */
1056:Drivers/BSP/STM32F769I-Discovery/stm32f769i_discovery_qspi.c ****   if (HAL_QSPI_Command(hqspi, &s_command, HAL_QPSI_TIMEOUT_DEFAULT_VALUE) != HAL_OK)
1057:Drivers/BSP/STM32F769I-Discovery/stm32f769i_discovery_qspi.c ****   {
1058:Drivers/BSP/STM32F769I-Discovery/stm32f769i_discovery_qspi.c ****     return QSPI_ERROR;
1059:Drivers/BSP/STM32F769I-Discovery/stm32f769i_discovery_qspi.c ****   }
1060:Drivers/BSP/STM32F769I-Discovery/stm32f769i_discovery_qspi.c **** 
1061:Drivers/BSP/STM32F769I-Discovery/stm32f769i_discovery_qspi.c ****   /* Transmission of the data */
1062:Drivers/BSP/STM32F769I-Discovery/stm32f769i_discovery_qspi.c ****   if (HAL_QSPI_Transmit(hqspi, &(reg[0]), HAL_QPSI_TIMEOUT_DEFAULT_VALUE) != HAL_OK)
1063:Drivers/BSP/STM32F769I-Discovery/stm32f769i_discovery_qspi.c ****   {
1064:Drivers/BSP/STM32F769I-Discovery/stm32f769i_discovery_qspi.c ****     return QSPI_ERROR;
1065:Drivers/BSP/STM32F769I-Discovery/stm32f769i_discovery_qspi.c ****   }
1066:Drivers/BSP/STM32F769I-Discovery/stm32f769i_discovery_qspi.c **** 
1067:Drivers/BSP/STM32F769I-Discovery/stm32f769i_discovery_qspi.c ****   return QSPI_OK;
1068:Drivers/BSP/STM32F769I-Discovery/stm32f769i_discovery_qspi.c **** }
1069:Drivers/BSP/STM32F769I-Discovery/stm32f769i_discovery_qspi.c **** 
1070:Drivers/BSP/STM32F769I-Discovery/stm32f769i_discovery_qspi.c **** /**
1071:Drivers/BSP/STM32F769I-Discovery/stm32f769i_discovery_qspi.c ****   * @brief  This function send a Write Enable and wait it is effective.
1072:Drivers/BSP/STM32F769I-Discovery/stm32f769i_discovery_qspi.c ****   * @param  hqspi: QSPI handle
1073:Drivers/BSP/STM32F769I-Discovery/stm32f769i_discovery_qspi.c ****   * @retval None
1074:Drivers/BSP/STM32F769I-Discovery/stm32f769i_discovery_qspi.c ****   */
1075:Drivers/BSP/STM32F769I-Discovery/stm32f769i_discovery_qspi.c **** static uint8_t QSPI_WriteEnable(QSPI_HandleTypeDef *hqspi)
1076:Drivers/BSP/STM32F769I-Discovery/stm32f769i_discovery_qspi.c **** {
 227              		.loc 1 1076 1 is_stmt 1 view -0
 228              		.cfi_startproc
 229              		@ args = 0, pretend = 0, frame = 80
 230              		@ frame_needed = 0, uses_anonymous_args = 0
 231              		.loc 1 1076 1 is_stmt 0 view .LVU76
 232 0000 10B5     		push	{r4, lr}
 233              		.cfi_def_cfa_offset 8
 234              		.cfi_offset 4, -8
 235              		.cfi_offset 14, -4
 236 0002 94B0     		sub	sp, sp, #80
 237              		.cfi_def_cfa_offset 88
 238 0004 0446     		mov	r4, r0
1077:Drivers/BSP/STM32F769I-Discovery/stm32f769i_discovery_qspi.c ****   QSPI_CommandTypeDef     s_command;
 239              		.loc 1 1077 3 is_stmt 1 view .LVU77
1078:Drivers/BSP/STM32F769I-Discovery/stm32f769i_discovery_qspi.c ****   QSPI_AutoPollingTypeDef s_config;
 240              		.loc 1 1078 3 view .LVU78
1079:Drivers/BSP/STM32F769I-Discovery/stm32f769i_discovery_qspi.c ****   
1080:Drivers/BSP/STM32F769I-Discovery/stm32f769i_discovery_qspi.c ****   /* Enable write operations */
1081:Drivers/BSP/STM32F769I-Discovery/stm32f769i_discovery_qspi.c ****   s_command.InstructionMode   = QSPI_INSTRUCTION_4_LINES;
 241              		.loc 1 1081 3 view .LVU79
 242              		.loc 1 1081 31 is_stmt 0 view .LVU80
ARM GAS  /var/folders/n6/c271nzx11xl4r4_m7sqjlt0m0000gn/T//cc22wCrs.s 			page 25


 243 0006 4FF44073 		mov	r3, #768
 244 000a 0C93     		str	r3, [sp, #48]
1082:Drivers/BSP/STM32F769I-Discovery/stm32f769i_discovery_qspi.c ****   s_command.Instruction       = WRITE_ENABLE_CMD;
 245              		.loc 1 1082 3 is_stmt 1 view .LVU81
 246              		.loc 1 1082 31 is_stmt 0 view .LVU82
 247 000c 0623     		movs	r3, #6
 248 000e 0693     		str	r3, [sp, #24]
1083:Drivers/BSP/STM32F769I-Discovery/stm32f769i_discovery_qspi.c ****   s_command.AddressMode       = QSPI_ADDRESS_NONE;
 249              		.loc 1 1083 3 is_stmt 1 view .LVU83
 250              		.loc 1 1083 31 is_stmt 0 view .LVU84
 251 0010 0023     		movs	r3, #0
 252 0012 0D93     		str	r3, [sp, #52]
1084:Drivers/BSP/STM32F769I-Discovery/stm32f769i_discovery_qspi.c ****   s_command.AlternateByteMode = QSPI_ALTERNATE_BYTES_NONE;
 253              		.loc 1 1084 3 is_stmt 1 view .LVU85
 254              		.loc 1 1084 31 is_stmt 0 view .LVU86
 255 0014 0E93     		str	r3, [sp, #56]
1085:Drivers/BSP/STM32F769I-Discovery/stm32f769i_discovery_qspi.c ****   s_command.DataMode          = QSPI_DATA_NONE;
 256              		.loc 1 1085 3 is_stmt 1 view .LVU87
 257              		.loc 1 1085 31 is_stmt 0 view .LVU88
 258 0016 0F93     		str	r3, [sp, #60]
1086:Drivers/BSP/STM32F769I-Discovery/stm32f769i_discovery_qspi.c ****   s_command.DummyCycles       = 0;
 259              		.loc 1 1086 3 is_stmt 1 view .LVU89
 260              		.loc 1 1086 31 is_stmt 0 view .LVU90
 261 0018 0B93     		str	r3, [sp, #44]
1087:Drivers/BSP/STM32F769I-Discovery/stm32f769i_discovery_qspi.c ****   s_command.DdrMode           = QSPI_DDR_MODE_DISABLE;
 262              		.loc 1 1087 3 is_stmt 1 view .LVU91
 263              		.loc 1 1087 31 is_stmt 0 view .LVU92
 264 001a 1193     		str	r3, [sp, #68]
1088:Drivers/BSP/STM32F769I-Discovery/stm32f769i_discovery_qspi.c ****   s_command.DdrHoldHalfCycle  = QSPI_DDR_HHC_ANALOG_DELAY;
 265              		.loc 1 1088 3 is_stmt 1 view .LVU93
 266              		.loc 1 1088 31 is_stmt 0 view .LVU94
 267 001c 1293     		str	r3, [sp, #72]
1089:Drivers/BSP/STM32F769I-Discovery/stm32f769i_discovery_qspi.c ****   s_command.SIOOMode          = QSPI_SIOO_INST_EVERY_CMD;
 268              		.loc 1 1089 3 is_stmt 1 view .LVU95
 269              		.loc 1 1089 31 is_stmt 0 view .LVU96
 270 001e 1393     		str	r3, [sp, #76]
1090:Drivers/BSP/STM32F769I-Discovery/stm32f769i_discovery_qspi.c ****   
1091:Drivers/BSP/STM32F769I-Discovery/stm32f769i_discovery_qspi.c ****   if (HAL_QSPI_Command(hqspi, &s_command, HAL_QPSI_TIMEOUT_DEFAULT_VALUE) != HAL_OK)
 271              		.loc 1 1091 3 is_stmt 1 view .LVU97
 272              		.loc 1 1091 7 is_stmt 0 view .LVU98
 273 0020 41F28832 		movw	r2, #5000
 274 0024 06A9     		add	r1, sp, #24
 275 0026 FFF7FEFF 		bl	HAL_QSPI_Command
 276              	.LVL7:
 277              		.loc 1 1091 6 discriminator 1 view .LVU99
 278 002a 10B1     		cbz	r0, .L17
1092:Drivers/BSP/STM32F769I-Discovery/stm32f769i_discovery_qspi.c ****   {
1093:Drivers/BSP/STM32F769I-Discovery/stm32f769i_discovery_qspi.c ****     return QSPI_ERROR;
 279              		.loc 1 1093 12 view .LVU100
 280 002c 0120     		movs	r0, #1
 281              	.L13:
1094:Drivers/BSP/STM32F769I-Discovery/stm32f769i_discovery_qspi.c ****   }
1095:Drivers/BSP/STM32F769I-Discovery/stm32f769i_discovery_qspi.c ****   
1096:Drivers/BSP/STM32F769I-Discovery/stm32f769i_discovery_qspi.c ****   /* Configure automatic polling mode to wait for write enabling */  
1097:Drivers/BSP/STM32F769I-Discovery/stm32f769i_discovery_qspi.c ****   s_config.Match           = MX25L512_SR_WREN;
1098:Drivers/BSP/STM32F769I-Discovery/stm32f769i_discovery_qspi.c ****   s_config.Mask            = MX25L512_SR_WREN;
1099:Drivers/BSP/STM32F769I-Discovery/stm32f769i_discovery_qspi.c ****   s_config.MatchMode       = QSPI_MATCH_MODE_AND;
ARM GAS  /var/folders/n6/c271nzx11xl4r4_m7sqjlt0m0000gn/T//cc22wCrs.s 			page 26


1100:Drivers/BSP/STM32F769I-Discovery/stm32f769i_discovery_qspi.c ****   s_config.StatusBytesSize = 1;
1101:Drivers/BSP/STM32F769I-Discovery/stm32f769i_discovery_qspi.c ****   s_config.Interval        = 0x10;
1102:Drivers/BSP/STM32F769I-Discovery/stm32f769i_discovery_qspi.c ****   s_config.AutomaticStop   = QSPI_AUTOMATIC_STOP_ENABLE;
1103:Drivers/BSP/STM32F769I-Discovery/stm32f769i_discovery_qspi.c ****   
1104:Drivers/BSP/STM32F769I-Discovery/stm32f769i_discovery_qspi.c ****   s_command.Instruction    = READ_STATUS_REG_CMD;
1105:Drivers/BSP/STM32F769I-Discovery/stm32f769i_discovery_qspi.c ****   s_command.DataMode       = QSPI_DATA_4_LINES;
1106:Drivers/BSP/STM32F769I-Discovery/stm32f769i_discovery_qspi.c ****   
1107:Drivers/BSP/STM32F769I-Discovery/stm32f769i_discovery_qspi.c ****   if (HAL_QSPI_AutoPolling(hqspi, &s_command, &s_config, HAL_QPSI_TIMEOUT_DEFAULT_VALUE) != HAL_OK)
1108:Drivers/BSP/STM32F769I-Discovery/stm32f769i_discovery_qspi.c ****   {
1109:Drivers/BSP/STM32F769I-Discovery/stm32f769i_discovery_qspi.c ****     return QSPI_ERROR;
1110:Drivers/BSP/STM32F769I-Discovery/stm32f769i_discovery_qspi.c ****   }
1111:Drivers/BSP/STM32F769I-Discovery/stm32f769i_discovery_qspi.c ****   
1112:Drivers/BSP/STM32F769I-Discovery/stm32f769i_discovery_qspi.c ****   return QSPI_OK;
1113:Drivers/BSP/STM32F769I-Discovery/stm32f769i_discovery_qspi.c **** }
 282              		.loc 1 1113 1 view .LVU101
 283 002e 14B0     		add	sp, sp, #80
 284              		.cfi_remember_state
 285              		.cfi_def_cfa_offset 8
 286              		@ sp needed
 287 0030 10BD     		pop	{r4, pc}
 288              	.LVL8:
 289              	.L17:
 290              		.cfi_restore_state
1097:Drivers/BSP/STM32F769I-Discovery/stm32f769i_discovery_qspi.c ****   s_config.Mask            = MX25L512_SR_WREN;
 291              		.loc 1 1097 3 is_stmt 1 view .LVU102
1097:Drivers/BSP/STM32F769I-Discovery/stm32f769i_discovery_qspi.c ****   s_config.Mask            = MX25L512_SR_WREN;
 292              		.loc 1 1097 28 is_stmt 0 view .LVU103
 293 0032 0223     		movs	r3, #2
 294 0034 0093     		str	r3, [sp]
1098:Drivers/BSP/STM32F769I-Discovery/stm32f769i_discovery_qspi.c ****   s_config.MatchMode       = QSPI_MATCH_MODE_AND;
 295              		.loc 1 1098 3 is_stmt 1 view .LVU104
1098:Drivers/BSP/STM32F769I-Discovery/stm32f769i_discovery_qspi.c ****   s_config.MatchMode       = QSPI_MATCH_MODE_AND;
 296              		.loc 1 1098 28 is_stmt 0 view .LVU105
 297 0036 0193     		str	r3, [sp, #4]
1099:Drivers/BSP/STM32F769I-Discovery/stm32f769i_discovery_qspi.c ****   s_config.StatusBytesSize = 1;
 298              		.loc 1 1099 3 is_stmt 1 view .LVU106
1099:Drivers/BSP/STM32F769I-Discovery/stm32f769i_discovery_qspi.c ****   s_config.StatusBytesSize = 1;
 299              		.loc 1 1099 28 is_stmt 0 view .LVU107
 300 0038 0023     		movs	r3, #0
 301 003a 0493     		str	r3, [sp, #16]
1100:Drivers/BSP/STM32F769I-Discovery/stm32f769i_discovery_qspi.c ****   s_config.Interval        = 0x10;
 302              		.loc 1 1100 3 is_stmt 1 view .LVU108
1100:Drivers/BSP/STM32F769I-Discovery/stm32f769i_discovery_qspi.c ****   s_config.Interval        = 0x10;
 303              		.loc 1 1100 28 is_stmt 0 view .LVU109
 304 003c 0123     		movs	r3, #1
 305 003e 0393     		str	r3, [sp, #12]
1101:Drivers/BSP/STM32F769I-Discovery/stm32f769i_discovery_qspi.c ****   s_config.AutomaticStop   = QSPI_AUTOMATIC_STOP_ENABLE;
 306              		.loc 1 1101 3 is_stmt 1 view .LVU110
1101:Drivers/BSP/STM32F769I-Discovery/stm32f769i_discovery_qspi.c ****   s_config.AutomaticStop   = QSPI_AUTOMATIC_STOP_ENABLE;
 307              		.loc 1 1101 28 is_stmt 0 view .LVU111
 308 0040 1023     		movs	r3, #16
 309 0042 0293     		str	r3, [sp, #8]
1102:Drivers/BSP/STM32F769I-Discovery/stm32f769i_discovery_qspi.c ****   
 310              		.loc 1 1102 3 is_stmt 1 view .LVU112
1102:Drivers/BSP/STM32F769I-Discovery/stm32f769i_discovery_qspi.c ****   
 311              		.loc 1 1102 28 is_stmt 0 view .LVU113
 312 0044 4FF48003 		mov	r3, #4194304
ARM GAS  /var/folders/n6/c271nzx11xl4r4_m7sqjlt0m0000gn/T//cc22wCrs.s 			page 27


 313 0048 0593     		str	r3, [sp, #20]
1104:Drivers/BSP/STM32F769I-Discovery/stm32f769i_discovery_qspi.c ****   s_command.DataMode       = QSPI_DATA_4_LINES;
 314              		.loc 1 1104 3 is_stmt 1 view .LVU114
1104:Drivers/BSP/STM32F769I-Discovery/stm32f769i_discovery_qspi.c ****   s_command.DataMode       = QSPI_DATA_4_LINES;
 315              		.loc 1 1104 28 is_stmt 0 view .LVU115
 316 004a 0523     		movs	r3, #5
 317 004c 0693     		str	r3, [sp, #24]
1105:Drivers/BSP/STM32F769I-Discovery/stm32f769i_discovery_qspi.c ****   
 318              		.loc 1 1105 3 is_stmt 1 view .LVU116
1105:Drivers/BSP/STM32F769I-Discovery/stm32f769i_discovery_qspi.c ****   
 319              		.loc 1 1105 28 is_stmt 0 view .LVU117
 320 004e 4FF04073 		mov	r3, #50331648
 321 0052 0F93     		str	r3, [sp, #60]
1107:Drivers/BSP/STM32F769I-Discovery/stm32f769i_discovery_qspi.c ****   {
 322              		.loc 1 1107 3 is_stmt 1 view .LVU118
1107:Drivers/BSP/STM32F769I-Discovery/stm32f769i_discovery_qspi.c ****   {
 323              		.loc 1 1107 7 is_stmt 0 view .LVU119
 324 0054 41F28833 		movw	r3, #5000
 325 0058 6A46     		mov	r2, sp
 326 005a 06A9     		add	r1, sp, #24
 327 005c 2046     		mov	r0, r4
 328 005e FFF7FEFF 		bl	HAL_QSPI_AutoPolling
 329              	.LVL9:
1107:Drivers/BSP/STM32F769I-Discovery/stm32f769i_discovery_qspi.c ****   {
 330              		.loc 1 1107 6 discriminator 1 view .LVU120
 331 0062 0028     		cmp	r0, #0
 332 0064 E3D0     		beq	.L13
1109:Drivers/BSP/STM32F769I-Discovery/stm32f769i_discovery_qspi.c ****   }
 333              		.loc 1 1109 12 view .LVU121
 334 0066 0120     		movs	r0, #1
 335 0068 E1E7     		b	.L13
 336              		.cfi_endproc
 337              	.LFE158:
 339              		.section	.text.QSPI_AutoPollingMemReady,"ax",%progbits
 340              		.align	1
 341              		.syntax unified
 342              		.thumb
 343              		.thumb_func
 345              	QSPI_AutoPollingMemReady:
 346              	.LVL10:
 347              	.LFB159:
1114:Drivers/BSP/STM32F769I-Discovery/stm32f769i_discovery_qspi.c **** 
1115:Drivers/BSP/STM32F769I-Discovery/stm32f769i_discovery_qspi.c **** /**
1116:Drivers/BSP/STM32F769I-Discovery/stm32f769i_discovery_qspi.c ****   * @brief  This function read the SR of the memory and wait the EOP.
1117:Drivers/BSP/STM32F769I-Discovery/stm32f769i_discovery_qspi.c ****   * @param  hqspi: QSPI handle
1118:Drivers/BSP/STM32F769I-Discovery/stm32f769i_discovery_qspi.c ****   * @param  Timeout
1119:Drivers/BSP/STM32F769I-Discovery/stm32f769i_discovery_qspi.c ****   * @retval None
1120:Drivers/BSP/STM32F769I-Discovery/stm32f769i_discovery_qspi.c ****   */
1121:Drivers/BSP/STM32F769I-Discovery/stm32f769i_discovery_qspi.c **** static uint8_t QSPI_AutoPollingMemReady(QSPI_HandleTypeDef *hqspi, uint32_t Timeout)
1122:Drivers/BSP/STM32F769I-Discovery/stm32f769i_discovery_qspi.c **** {
 348              		.loc 1 1122 1 is_stmt 1 view -0
 349              		.cfi_startproc
 350              		@ args = 0, pretend = 0, frame = 80
 351              		@ frame_needed = 0, uses_anonymous_args = 0
 352              		.loc 1 1122 1 is_stmt 0 view .LVU123
 353 0000 10B5     		push	{r4, lr}
 354              		.cfi_def_cfa_offset 8
ARM GAS  /var/folders/n6/c271nzx11xl4r4_m7sqjlt0m0000gn/T//cc22wCrs.s 			page 28


 355              		.cfi_offset 4, -8
 356              		.cfi_offset 14, -4
 357 0002 94B0     		sub	sp, sp, #80
 358              		.cfi_def_cfa_offset 88
 359 0004 0B46     		mov	r3, r1
1123:Drivers/BSP/STM32F769I-Discovery/stm32f769i_discovery_qspi.c ****   QSPI_CommandTypeDef     s_command;
 360              		.loc 1 1123 3 is_stmt 1 view .LVU124
1124:Drivers/BSP/STM32F769I-Discovery/stm32f769i_discovery_qspi.c ****   QSPI_AutoPollingTypeDef s_config;
 361              		.loc 1 1124 3 view .LVU125
1125:Drivers/BSP/STM32F769I-Discovery/stm32f769i_discovery_qspi.c **** 
1126:Drivers/BSP/STM32F769I-Discovery/stm32f769i_discovery_qspi.c ****   /* Configure automatic polling mode to wait for memory ready */  
1127:Drivers/BSP/STM32F769I-Discovery/stm32f769i_discovery_qspi.c ****   s_command.InstructionMode   = QSPI_INSTRUCTION_4_LINES;
 362              		.loc 1 1127 3 view .LVU126
 363              		.loc 1 1127 31 is_stmt 0 view .LVU127
 364 0006 4FF44072 		mov	r2, #768
 365 000a 0C92     		str	r2, [sp, #48]
1128:Drivers/BSP/STM32F769I-Discovery/stm32f769i_discovery_qspi.c ****   s_command.Instruction       = READ_STATUS_REG_CMD;
 366              		.loc 1 1128 3 is_stmt 1 view .LVU128
 367              		.loc 1 1128 31 is_stmt 0 view .LVU129
 368 000c 0522     		movs	r2, #5
 369 000e 0692     		str	r2, [sp, #24]
1129:Drivers/BSP/STM32F769I-Discovery/stm32f769i_discovery_qspi.c ****   s_command.AddressMode       = QSPI_ADDRESS_NONE;
 370              		.loc 1 1129 3 is_stmt 1 view .LVU130
 371              		.loc 1 1129 31 is_stmt 0 view .LVU131
 372 0010 0022     		movs	r2, #0
 373 0012 0D92     		str	r2, [sp, #52]
1130:Drivers/BSP/STM32F769I-Discovery/stm32f769i_discovery_qspi.c ****   s_command.AlternateByteMode = QSPI_ALTERNATE_BYTES_NONE;
 374              		.loc 1 1130 3 is_stmt 1 view .LVU132
 375              		.loc 1 1130 31 is_stmt 0 view .LVU133
 376 0014 0E92     		str	r2, [sp, #56]
1131:Drivers/BSP/STM32F769I-Discovery/stm32f769i_discovery_qspi.c ****   s_command.DataMode          = QSPI_DATA_4_LINES;
 377              		.loc 1 1131 3 is_stmt 1 view .LVU134
 378              		.loc 1 1131 31 is_stmt 0 view .LVU135
 379 0016 4FF04071 		mov	r1, #50331648
 380              	.LVL11:
 381              		.loc 1 1131 31 view .LVU136
 382 001a 0F91     		str	r1, [sp, #60]
1132:Drivers/BSP/STM32F769I-Discovery/stm32f769i_discovery_qspi.c ****   s_command.DummyCycles       = 0;
 383              		.loc 1 1132 3 is_stmt 1 view .LVU137
 384              		.loc 1 1132 31 is_stmt 0 view .LVU138
 385 001c 0B92     		str	r2, [sp, #44]
1133:Drivers/BSP/STM32F769I-Discovery/stm32f769i_discovery_qspi.c ****   s_command.DdrMode           = QSPI_DDR_MODE_DISABLE;
 386              		.loc 1 1133 3 is_stmt 1 view .LVU139
 387              		.loc 1 1133 31 is_stmt 0 view .LVU140
 388 001e 1192     		str	r2, [sp, #68]
1134:Drivers/BSP/STM32F769I-Discovery/stm32f769i_discovery_qspi.c ****   s_command.DdrHoldHalfCycle  = QSPI_DDR_HHC_ANALOG_DELAY;
 389              		.loc 1 1134 3 is_stmt 1 view .LVU141
 390              		.loc 1 1134 31 is_stmt 0 view .LVU142
 391 0020 1292     		str	r2, [sp, #72]
1135:Drivers/BSP/STM32F769I-Discovery/stm32f769i_discovery_qspi.c ****   s_command.SIOOMode          = QSPI_SIOO_INST_EVERY_CMD;
 392              		.loc 1 1135 3 is_stmt 1 view .LVU143
 393              		.loc 1 1135 31 is_stmt 0 view .LVU144
 394 0022 1392     		str	r2, [sp, #76]
1136:Drivers/BSP/STM32F769I-Discovery/stm32f769i_discovery_qspi.c **** 
1137:Drivers/BSP/STM32F769I-Discovery/stm32f769i_discovery_qspi.c ****   s_config.Match           = 0;
 395              		.loc 1 1137 3 is_stmt 1 view .LVU145
 396              		.loc 1 1137 28 is_stmt 0 view .LVU146
ARM GAS  /var/folders/n6/c271nzx11xl4r4_m7sqjlt0m0000gn/T//cc22wCrs.s 			page 29


 397 0024 0092     		str	r2, [sp]
1138:Drivers/BSP/STM32F769I-Discovery/stm32f769i_discovery_qspi.c ****   s_config.Mask            = MX25L512_SR_WIP;
 398              		.loc 1 1138 3 is_stmt 1 view .LVU147
 399              		.loc 1 1138 28 is_stmt 0 view .LVU148
 400 0026 0124     		movs	r4, #1
 401 0028 0194     		str	r4, [sp, #4]
1139:Drivers/BSP/STM32F769I-Discovery/stm32f769i_discovery_qspi.c ****   s_config.MatchMode       = QSPI_MATCH_MODE_AND;
 402              		.loc 1 1139 3 is_stmt 1 view .LVU149
 403              		.loc 1 1139 28 is_stmt 0 view .LVU150
 404 002a 0492     		str	r2, [sp, #16]
1140:Drivers/BSP/STM32F769I-Discovery/stm32f769i_discovery_qspi.c ****   s_config.StatusBytesSize = 1;
 405              		.loc 1 1140 3 is_stmt 1 view .LVU151
 406              		.loc 1 1140 28 is_stmt 0 view .LVU152
 407 002c 0394     		str	r4, [sp, #12]
1141:Drivers/BSP/STM32F769I-Discovery/stm32f769i_discovery_qspi.c ****   s_config.Interval        = 0x10;
 408              		.loc 1 1141 3 is_stmt 1 view .LVU153
 409              		.loc 1 1141 28 is_stmt 0 view .LVU154
 410 002e 1022     		movs	r2, #16
 411 0030 0292     		str	r2, [sp, #8]
1142:Drivers/BSP/STM32F769I-Discovery/stm32f769i_discovery_qspi.c ****   s_config.AutomaticStop   = QSPI_AUTOMATIC_STOP_ENABLE;
 412              		.loc 1 1142 3 is_stmt 1 view .LVU155
 413              		.loc 1 1142 28 is_stmt 0 view .LVU156
 414 0032 4FF48002 		mov	r2, #4194304
 415 0036 0592     		str	r2, [sp, #20]
1143:Drivers/BSP/STM32F769I-Discovery/stm32f769i_discovery_qspi.c **** 
1144:Drivers/BSP/STM32F769I-Discovery/stm32f769i_discovery_qspi.c ****   if (HAL_QSPI_AutoPolling(hqspi, &s_command, &s_config, Timeout) != HAL_OK)
 416              		.loc 1 1144 3 is_stmt 1 view .LVU157
 417              		.loc 1 1144 7 is_stmt 0 view .LVU158
 418 0038 6A46     		mov	r2, sp
 419 003a 06A9     		add	r1, sp, #24
 420 003c FFF7FEFF 		bl	HAL_QSPI_AutoPolling
 421              	.LVL12:
 422              		.loc 1 1144 6 discriminator 1 view .LVU159
 423 0040 08B9     		cbnz	r0, .L22
 424              	.L19:
1145:Drivers/BSP/STM32F769I-Discovery/stm32f769i_discovery_qspi.c ****   {
1146:Drivers/BSP/STM32F769I-Discovery/stm32f769i_discovery_qspi.c ****     return QSPI_ERROR;
1147:Drivers/BSP/STM32F769I-Discovery/stm32f769i_discovery_qspi.c ****   }
1148:Drivers/BSP/STM32F769I-Discovery/stm32f769i_discovery_qspi.c **** 
1149:Drivers/BSP/STM32F769I-Discovery/stm32f769i_discovery_qspi.c ****   return QSPI_OK;
1150:Drivers/BSP/STM32F769I-Discovery/stm32f769i_discovery_qspi.c **** }
 425              		.loc 1 1150 1 view .LVU160
 426 0042 14B0     		add	sp, sp, #80
 427              		.cfi_remember_state
 428              		.cfi_def_cfa_offset 8
 429              		@ sp needed
 430 0044 10BD     		pop	{r4, pc}
 431              	.L22:
 432              		.cfi_restore_state
1146:Drivers/BSP/STM32F769I-Discovery/stm32f769i_discovery_qspi.c ****   }
 433              		.loc 1 1146 12 view .LVU161
 434 0046 2046     		mov	r0, r4
 435 0048 FBE7     		b	.L19
 436              		.cfi_endproc
 437              	.LFE159:
 439              		.section	.text.QSPI_EnterFourBytesAddress,"ax",%progbits
 440              		.align	1
ARM GAS  /var/folders/n6/c271nzx11xl4r4_m7sqjlt0m0000gn/T//cc22wCrs.s 			page 30


 441              		.syntax unified
 442              		.thumb
 443              		.thumb_func
 445              	QSPI_EnterFourBytesAddress:
 446              	.LVL13:
 447              	.LFB153:
 766:Drivers/BSP/STM32F769I-Discovery/stm32f769i_discovery_qspi.c ****   QSPI_CommandTypeDef s_command;
 448              		.loc 1 766 1 is_stmt 1 view -0
 449              		.cfi_startproc
 450              		@ args = 0, pretend = 0, frame = 56
 451              		@ frame_needed = 0, uses_anonymous_args = 0
 766:Drivers/BSP/STM32F769I-Discovery/stm32f769i_discovery_qspi.c ****   QSPI_CommandTypeDef s_command;
 452              		.loc 1 766 1 is_stmt 0 view .LVU163
 453 0000 10B5     		push	{r4, lr}
 454              		.cfi_def_cfa_offset 8
 455              		.cfi_offset 4, -8
 456              		.cfi_offset 14, -4
 457 0002 8EB0     		sub	sp, sp, #56
 458              		.cfi_def_cfa_offset 64
 459 0004 0446     		mov	r4, r0
 767:Drivers/BSP/STM32F769I-Discovery/stm32f769i_discovery_qspi.c **** 
 460              		.loc 1 767 3 is_stmt 1 view .LVU164
 770:Drivers/BSP/STM32F769I-Discovery/stm32f769i_discovery_qspi.c ****   s_command.Instruction       = ENTER_4_BYTE_ADDR_MODE_CMD;
 461              		.loc 1 770 3 view .LVU165
 770:Drivers/BSP/STM32F769I-Discovery/stm32f769i_discovery_qspi.c ****   s_command.Instruction       = ENTER_4_BYTE_ADDR_MODE_CMD;
 462              		.loc 1 770 31 is_stmt 0 view .LVU166
 463 0006 4FF44073 		mov	r3, #768
 464 000a 0693     		str	r3, [sp, #24]
 771:Drivers/BSP/STM32F769I-Discovery/stm32f769i_discovery_qspi.c ****   s_command.AddressMode       = QSPI_ADDRESS_NONE;
 465              		.loc 1 771 3 is_stmt 1 view .LVU167
 771:Drivers/BSP/STM32F769I-Discovery/stm32f769i_discovery_qspi.c ****   s_command.AddressMode       = QSPI_ADDRESS_NONE;
 466              		.loc 1 771 31 is_stmt 0 view .LVU168
 467 000c B723     		movs	r3, #183
 468 000e 0093     		str	r3, [sp]
 772:Drivers/BSP/STM32F769I-Discovery/stm32f769i_discovery_qspi.c ****   s_command.AlternateByteMode = QSPI_ALTERNATE_BYTES_NONE;
 469              		.loc 1 772 3 is_stmt 1 view .LVU169
 772:Drivers/BSP/STM32F769I-Discovery/stm32f769i_discovery_qspi.c ****   s_command.AlternateByteMode = QSPI_ALTERNATE_BYTES_NONE;
 470              		.loc 1 772 31 is_stmt 0 view .LVU170
 471 0010 0023     		movs	r3, #0
 472 0012 0793     		str	r3, [sp, #28]
 773:Drivers/BSP/STM32F769I-Discovery/stm32f769i_discovery_qspi.c ****   s_command.DataMode          = QSPI_DATA_NONE;
 473              		.loc 1 773 3 is_stmt 1 view .LVU171
 773:Drivers/BSP/STM32F769I-Discovery/stm32f769i_discovery_qspi.c ****   s_command.DataMode          = QSPI_DATA_NONE;
 474              		.loc 1 773 31 is_stmt 0 view .LVU172
 475 0014 0893     		str	r3, [sp, #32]
 774:Drivers/BSP/STM32F769I-Discovery/stm32f769i_discovery_qspi.c ****   s_command.DummyCycles       = 0;
 476              		.loc 1 774 3 is_stmt 1 view .LVU173
 774:Drivers/BSP/STM32F769I-Discovery/stm32f769i_discovery_qspi.c ****   s_command.DummyCycles       = 0;
 477              		.loc 1 774 31 is_stmt 0 view .LVU174
 478 0016 0993     		str	r3, [sp, #36]
 775:Drivers/BSP/STM32F769I-Discovery/stm32f769i_discovery_qspi.c ****   s_command.DdrMode           = QSPI_DDR_MODE_DISABLE;
 479              		.loc 1 775 3 is_stmt 1 view .LVU175
 775:Drivers/BSP/STM32F769I-Discovery/stm32f769i_discovery_qspi.c ****   s_command.DdrMode           = QSPI_DDR_MODE_DISABLE;
 480              		.loc 1 775 31 is_stmt 0 view .LVU176
 481 0018 0593     		str	r3, [sp, #20]
 776:Drivers/BSP/STM32F769I-Discovery/stm32f769i_discovery_qspi.c ****   s_command.DdrHoldHalfCycle  = QSPI_DDR_HHC_ANALOG_DELAY;
 482              		.loc 1 776 3 is_stmt 1 view .LVU177
ARM GAS  /var/folders/n6/c271nzx11xl4r4_m7sqjlt0m0000gn/T//cc22wCrs.s 			page 31


 776:Drivers/BSP/STM32F769I-Discovery/stm32f769i_discovery_qspi.c ****   s_command.DdrHoldHalfCycle  = QSPI_DDR_HHC_ANALOG_DELAY;
 483              		.loc 1 776 31 is_stmt 0 view .LVU178
 484 001a 0B93     		str	r3, [sp, #44]
 777:Drivers/BSP/STM32F769I-Discovery/stm32f769i_discovery_qspi.c ****   s_command.SIOOMode          = QSPI_SIOO_INST_EVERY_CMD;
 485              		.loc 1 777 3 is_stmt 1 view .LVU179
 777:Drivers/BSP/STM32F769I-Discovery/stm32f769i_discovery_qspi.c ****   s_command.SIOOMode          = QSPI_SIOO_INST_EVERY_CMD;
 486              		.loc 1 777 31 is_stmt 0 view .LVU180
 487 001c 0C93     		str	r3, [sp, #48]
 778:Drivers/BSP/STM32F769I-Discovery/stm32f769i_discovery_qspi.c **** 
 488              		.loc 1 778 3 is_stmt 1 view .LVU181
 778:Drivers/BSP/STM32F769I-Discovery/stm32f769i_discovery_qspi.c **** 
 489              		.loc 1 778 31 is_stmt 0 view .LVU182
 490 001e 0D93     		str	r3, [sp, #52]
 781:Drivers/BSP/STM32F769I-Discovery/stm32f769i_discovery_qspi.c ****   {
 491              		.loc 1 781 3 is_stmt 1 view .LVU183
 781:Drivers/BSP/STM32F769I-Discovery/stm32f769i_discovery_qspi.c ****   {
 492              		.loc 1 781 7 is_stmt 0 view .LVU184
 493 0020 FFF7FEFF 		bl	QSPI_WriteEnable
 494              	.LVL14:
 781:Drivers/BSP/STM32F769I-Discovery/stm32f769i_discovery_qspi.c ****   {
 495              		.loc 1 781 6 discriminator 1 view .LVU185
 496 0024 10B1     		cbz	r0, .L29
 783:Drivers/BSP/STM32F769I-Discovery/stm32f769i_discovery_qspi.c ****   }
 497              		.loc 1 783 12 view .LVU186
 498 0026 0120     		movs	r0, #1
 499              	.L24:
 799:Drivers/BSP/STM32F769I-Discovery/stm32f769i_discovery_qspi.c **** 
 500              		.loc 1 799 1 view .LVU187
 501 0028 0EB0     		add	sp, sp, #56
 502              		.cfi_remember_state
 503              		.cfi_def_cfa_offset 8
 504              		@ sp needed
 505 002a 10BD     		pop	{r4, pc}
 506              	.LVL15:
 507              	.L29:
 508              		.cfi_restore_state
 787:Drivers/BSP/STM32F769I-Discovery/stm32f769i_discovery_qspi.c ****   {
 509              		.loc 1 787 3 is_stmt 1 view .LVU188
 787:Drivers/BSP/STM32F769I-Discovery/stm32f769i_discovery_qspi.c ****   {
 510              		.loc 1 787 7 is_stmt 0 view .LVU189
 511 002c 41F28832 		movw	r2, #5000
 512 0030 6946     		mov	r1, sp
 513 0032 2046     		mov	r0, r4
 514 0034 FFF7FEFF 		bl	HAL_QSPI_Command
 515              	.LVL16:
 787:Drivers/BSP/STM32F769I-Discovery/stm32f769i_discovery_qspi.c ****   {
 516              		.loc 1 787 6 discriminator 1 view .LVU190
 517 0038 08B1     		cbz	r0, .L30
 789:Drivers/BSP/STM32F769I-Discovery/stm32f769i_discovery_qspi.c ****   }
 518              		.loc 1 789 12 view .LVU191
 519 003a 0120     		movs	r0, #1
 520 003c F4E7     		b	.L24
 521              	.L30:
 793:Drivers/BSP/STM32F769I-Discovery/stm32f769i_discovery_qspi.c ****   {
 522              		.loc 1 793 3 is_stmt 1 view .LVU192
 793:Drivers/BSP/STM32F769I-Discovery/stm32f769i_discovery_qspi.c ****   {
 523              		.loc 1 793 7 is_stmt 0 view .LVU193
ARM GAS  /var/folders/n6/c271nzx11xl4r4_m7sqjlt0m0000gn/T//cc22wCrs.s 			page 32


 524 003e 41F28831 		movw	r1, #5000
 525 0042 2046     		mov	r0, r4
 526 0044 FFF7FEFF 		bl	QSPI_AutoPollingMemReady
 527              	.LVL17:
 793:Drivers/BSP/STM32F769I-Discovery/stm32f769i_discovery_qspi.c ****   {
 528              		.loc 1 793 6 discriminator 1 view .LVU194
 529 0048 0028     		cmp	r0, #0
 530 004a EDD0     		beq	.L24
 795:Drivers/BSP/STM32F769I-Discovery/stm32f769i_discovery_qspi.c ****   }
 531              		.loc 1 795 12 view .LVU195
 532 004c 0120     		movs	r0, #1
 533 004e EBE7     		b	.L24
 534              		.cfi_endproc
 535              	.LFE153:
 537              		.section	.text.QSPI_ResetMemory,"ax",%progbits
 538              		.align	1
 539              		.syntax unified
 540              		.thumb
 541              		.thumb_func
 543              	QSPI_ResetMemory:
 544              	.LVL18:
 545              	.LFB152:
 606:Drivers/BSP/STM32F769I-Discovery/stm32f769i_discovery_qspi.c ****   QSPI_CommandTypeDef      s_command;
 546              		.loc 1 606 1 is_stmt 1 view -0
 547              		.cfi_startproc
 548              		@ args = 0, pretend = 0, frame = 88
 549              		@ frame_needed = 0, uses_anonymous_args = 0
 606:Drivers/BSP/STM32F769I-Discovery/stm32f769i_discovery_qspi.c ****   QSPI_CommandTypeDef      s_command;
 550              		.loc 1 606 1 is_stmt 0 view .LVU197
 551 0000 10B5     		push	{r4, lr}
 552              		.cfi_def_cfa_offset 8
 553              		.cfi_offset 4, -8
 554              		.cfi_offset 14, -4
 555 0002 96B0     		sub	sp, sp, #88
 556              		.cfi_def_cfa_offset 96
 557 0004 0446     		mov	r4, r0
 607:Drivers/BSP/STM32F769I-Discovery/stm32f769i_discovery_qspi.c ****   QSPI_AutoPollingTypeDef  s_config;
 558              		.loc 1 607 3 is_stmt 1 view .LVU198
 608:Drivers/BSP/STM32F769I-Discovery/stm32f769i_discovery_qspi.c ****   uint8_t                  reg;
 559              		.loc 1 608 3 view .LVU199
 609:Drivers/BSP/STM32F769I-Discovery/stm32f769i_discovery_qspi.c **** 
 560              		.loc 1 609 3 view .LVU200
 613:Drivers/BSP/STM32F769I-Discovery/stm32f769i_discovery_qspi.c ****   s_command.Instruction       = RESET_ENABLE_CMD;
 561              		.loc 1 613 3 view .LVU201
 613:Drivers/BSP/STM32F769I-Discovery/stm32f769i_discovery_qspi.c ****   s_command.Instruction       = RESET_ENABLE_CMD;
 562              		.loc 1 613 31 is_stmt 0 view .LVU202
 563 0006 4FF44073 		mov	r3, #768
 564 000a 0E93     		str	r3, [sp, #56]
 614:Drivers/BSP/STM32F769I-Discovery/stm32f769i_discovery_qspi.c ****   s_command.AddressMode       = QSPI_ADDRESS_NONE;
 565              		.loc 1 614 3 is_stmt 1 view .LVU203
 614:Drivers/BSP/STM32F769I-Discovery/stm32f769i_discovery_qspi.c ****   s_command.AddressMode       = QSPI_ADDRESS_NONE;
 566              		.loc 1 614 31 is_stmt 0 view .LVU204
 567 000c 6623     		movs	r3, #102
 568 000e 0893     		str	r3, [sp, #32]
 615:Drivers/BSP/STM32F769I-Discovery/stm32f769i_discovery_qspi.c ****   s_command.AlternateByteMode = QSPI_ALTERNATE_BYTES_NONE;
 569              		.loc 1 615 3 is_stmt 1 view .LVU205
 615:Drivers/BSP/STM32F769I-Discovery/stm32f769i_discovery_qspi.c ****   s_command.AlternateByteMode = QSPI_ALTERNATE_BYTES_NONE;
ARM GAS  /var/folders/n6/c271nzx11xl4r4_m7sqjlt0m0000gn/T//cc22wCrs.s 			page 33


 570              		.loc 1 615 31 is_stmt 0 view .LVU206
 571 0010 0023     		movs	r3, #0
 572 0012 0F93     		str	r3, [sp, #60]
 616:Drivers/BSP/STM32F769I-Discovery/stm32f769i_discovery_qspi.c ****   s_command.DataMode          = QSPI_DATA_NONE;
 573              		.loc 1 616 3 is_stmt 1 view .LVU207
 616:Drivers/BSP/STM32F769I-Discovery/stm32f769i_discovery_qspi.c ****   s_command.DataMode          = QSPI_DATA_NONE;
 574              		.loc 1 616 31 is_stmt 0 view .LVU208
 575 0014 1093     		str	r3, [sp, #64]
 617:Drivers/BSP/STM32F769I-Discovery/stm32f769i_discovery_qspi.c ****   s_command.DummyCycles       = 0;
 576              		.loc 1 617 3 is_stmt 1 view .LVU209
 617:Drivers/BSP/STM32F769I-Discovery/stm32f769i_discovery_qspi.c ****   s_command.DummyCycles       = 0;
 577              		.loc 1 617 31 is_stmt 0 view .LVU210
 578 0016 1193     		str	r3, [sp, #68]
 618:Drivers/BSP/STM32F769I-Discovery/stm32f769i_discovery_qspi.c ****   s_command.DdrMode           = QSPI_DDR_MODE_DISABLE;
 579              		.loc 1 618 3 is_stmt 1 view .LVU211
 618:Drivers/BSP/STM32F769I-Discovery/stm32f769i_discovery_qspi.c ****   s_command.DdrMode           = QSPI_DDR_MODE_DISABLE;
 580              		.loc 1 618 31 is_stmt 0 view .LVU212
 581 0018 0D93     		str	r3, [sp, #52]
 619:Drivers/BSP/STM32F769I-Discovery/stm32f769i_discovery_qspi.c ****   s_command.DdrHoldHalfCycle  = QSPI_DDR_HHC_ANALOG_DELAY;
 582              		.loc 1 619 3 is_stmt 1 view .LVU213
 619:Drivers/BSP/STM32F769I-Discovery/stm32f769i_discovery_qspi.c ****   s_command.DdrHoldHalfCycle  = QSPI_DDR_HHC_ANALOG_DELAY;
 583              		.loc 1 619 31 is_stmt 0 view .LVU214
 584 001a 1393     		str	r3, [sp, #76]
 620:Drivers/BSP/STM32F769I-Discovery/stm32f769i_discovery_qspi.c ****   s_command.SIOOMode          = QSPI_SIOO_INST_EVERY_CMD;
 585              		.loc 1 620 3 is_stmt 1 view .LVU215
 620:Drivers/BSP/STM32F769I-Discovery/stm32f769i_discovery_qspi.c ****   s_command.SIOOMode          = QSPI_SIOO_INST_EVERY_CMD;
 586              		.loc 1 620 31 is_stmt 0 view .LVU216
 587 001c 1493     		str	r3, [sp, #80]
 621:Drivers/BSP/STM32F769I-Discovery/stm32f769i_discovery_qspi.c ****   /* Send the command */
 588              		.loc 1 621 3 is_stmt 1 view .LVU217
 621:Drivers/BSP/STM32F769I-Discovery/stm32f769i_discovery_qspi.c ****   /* Send the command */
 589              		.loc 1 621 31 is_stmt 0 view .LVU218
 590 001e 1593     		str	r3, [sp, #84]
 623:Drivers/BSP/STM32F769I-Discovery/stm32f769i_discovery_qspi.c ****   {
 591              		.loc 1 623 3 is_stmt 1 view .LVU219
 623:Drivers/BSP/STM32F769I-Discovery/stm32f769i_discovery_qspi.c ****   {
 592              		.loc 1 623 7 is_stmt 0 view .LVU220
 593 0020 41F28832 		movw	r2, #5000
 594 0024 08A9     		add	r1, sp, #32
 595 0026 FFF7FEFF 		bl	HAL_QSPI_Command
 596              	.LVL19:
 623:Drivers/BSP/STM32F769I-Discovery/stm32f769i_discovery_qspi.c ****   {
 597              		.loc 1 623 6 discriminator 1 view .LVU221
 598 002a 18B1     		cbz	r0, .L45
 625:Drivers/BSP/STM32F769I-Discovery/stm32f769i_discovery_qspi.c ****   }
 599              		.loc 1 625 12 view .LVU222
 600 002c 0124     		movs	r4, #1
 601              	.LVL20:
 602              	.L32:
 758:Drivers/BSP/STM32F769I-Discovery/stm32f769i_discovery_qspi.c **** 
 603              		.loc 1 758 1 view .LVU223
 604 002e 2046     		mov	r0, r4
 605 0030 16B0     		add	sp, sp, #88
 606              		.cfi_remember_state
 607              		.cfi_def_cfa_offset 8
 608              		@ sp needed
 609 0032 10BD     		pop	{r4, pc}
ARM GAS  /var/folders/n6/c271nzx11xl4r4_m7sqjlt0m0000gn/T//cc22wCrs.s 			page 34


 610              	.LVL21:
 611              	.L45:
 612              		.cfi_restore_state
 628:Drivers/BSP/STM32F769I-Discovery/stm32f769i_discovery_qspi.c ****   if (HAL_QSPI_Command(hqspi, &s_command, HAL_QPSI_TIMEOUT_DEFAULT_VALUE) != HAL_OK)
 613              		.loc 1 628 3 is_stmt 1 view .LVU224
 628:Drivers/BSP/STM32F769I-Discovery/stm32f769i_discovery_qspi.c ****   if (HAL_QSPI_Command(hqspi, &s_command, HAL_QPSI_TIMEOUT_DEFAULT_VALUE) != HAL_OK)
 614              		.loc 1 628 25 is_stmt 0 view .LVU225
 615 0034 9923     		movs	r3, #153
 616 0036 0893     		str	r3, [sp, #32]
 629:Drivers/BSP/STM32F769I-Discovery/stm32f769i_discovery_qspi.c ****   {
 617              		.loc 1 629 3 is_stmt 1 view .LVU226
 629:Drivers/BSP/STM32F769I-Discovery/stm32f769i_discovery_qspi.c ****   {
 618              		.loc 1 629 7 is_stmt 0 view .LVU227
 619 0038 41F28832 		movw	r2, #5000
 620 003c 08A9     		add	r1, sp, #32
 621 003e 2046     		mov	r0, r4
 622 0040 FFF7FEFF 		bl	HAL_QSPI_Command
 623              	.LVL22:
 629:Drivers/BSP/STM32F769I-Discovery/stm32f769i_discovery_qspi.c ****   {
 624              		.loc 1 629 6 discriminator 1 view .LVU228
 625 0044 08B1     		cbz	r0, .L46
 631:Drivers/BSP/STM32F769I-Discovery/stm32f769i_discovery_qspi.c ****   }  
 626              		.loc 1 631 12 view .LVU229
 627 0046 0124     		movs	r4, #1
 628              	.LVL23:
 631:Drivers/BSP/STM32F769I-Discovery/stm32f769i_discovery_qspi.c ****   }  
 629              		.loc 1 631 12 view .LVU230
 630 0048 F1E7     		b	.L32
 631              	.LVL24:
 632              	.L46:
 636:Drivers/BSP/STM32F769I-Discovery/stm32f769i_discovery_qspi.c ****   s_command.Instruction       = RESET_ENABLE_CMD;
 633              		.loc 1 636 3 is_stmt 1 view .LVU231
 636:Drivers/BSP/STM32F769I-Discovery/stm32f769i_discovery_qspi.c ****   s_command.Instruction       = RESET_ENABLE_CMD;
 634              		.loc 1 636 31 is_stmt 0 view .LVU232
 635 004a 4FF48073 		mov	r3, #256
 636 004e 0E93     		str	r3, [sp, #56]
 637:Drivers/BSP/STM32F769I-Discovery/stm32f769i_discovery_qspi.c ****   /* Send the command */
 637              		.loc 1 637 3 is_stmt 1 view .LVU233
 637:Drivers/BSP/STM32F769I-Discovery/stm32f769i_discovery_qspi.c ****   /* Send the command */
 638              		.loc 1 637 31 is_stmt 0 view .LVU234
 639 0050 6623     		movs	r3, #102
 640 0052 0893     		str	r3, [sp, #32]
 639:Drivers/BSP/STM32F769I-Discovery/stm32f769i_discovery_qspi.c ****   {
 641              		.loc 1 639 3 is_stmt 1 view .LVU235
 639:Drivers/BSP/STM32F769I-Discovery/stm32f769i_discovery_qspi.c ****   {
 642              		.loc 1 639 7 is_stmt 0 view .LVU236
 643 0054 41F28832 		movw	r2, #5000
 644 0058 08A9     		add	r1, sp, #32
 645 005a 2046     		mov	r0, r4
 646 005c FFF7FEFF 		bl	HAL_QSPI_Command
 647              	.LVL25:
 639:Drivers/BSP/STM32F769I-Discovery/stm32f769i_discovery_qspi.c ****   {
 648              		.loc 1 639 6 discriminator 1 view .LVU237
 649 0060 08B1     		cbz	r0, .L47
 641:Drivers/BSP/STM32F769I-Discovery/stm32f769i_discovery_qspi.c ****   }
 650              		.loc 1 641 12 view .LVU238
 651 0062 0124     		movs	r4, #1
ARM GAS  /var/folders/n6/c271nzx11xl4r4_m7sqjlt0m0000gn/T//cc22wCrs.s 			page 35


 652              	.LVL26:
 641:Drivers/BSP/STM32F769I-Discovery/stm32f769i_discovery_qspi.c ****   }
 653              		.loc 1 641 12 view .LVU239
 654 0064 E3E7     		b	.L32
 655              	.LVL27:
 656              	.L47:
 644:Drivers/BSP/STM32F769I-Discovery/stm32f769i_discovery_qspi.c ****   if (HAL_QSPI_Command(hqspi, &s_command, HAL_QPSI_TIMEOUT_DEFAULT_VALUE) != HAL_OK)
 657              		.loc 1 644 3 is_stmt 1 view .LVU240
 644:Drivers/BSP/STM32F769I-Discovery/stm32f769i_discovery_qspi.c ****   if (HAL_QSPI_Command(hqspi, &s_command, HAL_QPSI_TIMEOUT_DEFAULT_VALUE) != HAL_OK)
 658              		.loc 1 644 25 is_stmt 0 view .LVU241
 659 0066 9923     		movs	r3, #153
 660 0068 0893     		str	r3, [sp, #32]
 645:Drivers/BSP/STM32F769I-Discovery/stm32f769i_discovery_qspi.c ****   {
 661              		.loc 1 645 3 is_stmt 1 view .LVU242
 645:Drivers/BSP/STM32F769I-Discovery/stm32f769i_discovery_qspi.c ****   {
 662              		.loc 1 645 7 is_stmt 0 view .LVU243
 663 006a 41F28832 		movw	r2, #5000
 664 006e 08A9     		add	r1, sp, #32
 665 0070 2046     		mov	r0, r4
 666 0072 FFF7FEFF 		bl	HAL_QSPI_Command
 667              	.LVL28:
 645:Drivers/BSP/STM32F769I-Discovery/stm32f769i_discovery_qspi.c ****   {
 668              		.loc 1 645 6 discriminator 1 view .LVU244
 669 0076 08B1     		cbz	r0, .L48
 647:Drivers/BSP/STM32F769I-Discovery/stm32f769i_discovery_qspi.c ****   }
 670              		.loc 1 647 12 view .LVU245
 671 0078 0124     		movs	r4, #1
 672              	.LVL29:
 647:Drivers/BSP/STM32F769I-Discovery/stm32f769i_discovery_qspi.c ****   }
 673              		.loc 1 647 12 view .LVU246
 674 007a D8E7     		b	.L32
 675              	.LVL30:
 676              	.L48:
 651:Drivers/BSP/STM32F769I-Discovery/stm32f769i_discovery_qspi.c **** 
 677              		.loc 1 651 3 is_stmt 1 view .LVU247
 678 007c 4FF47A70 		mov	r0, #1000
 679 0080 FFF7FEFF 		bl	HAL_Delay
 680              	.LVL31:
 654:Drivers/BSP/STM32F769I-Discovery/stm32f769i_discovery_qspi.c ****   s_config.Mask            = MX25L512_SR_WIP;
 681              		.loc 1 654 3 view .LVU248
 654:Drivers/BSP/STM32F769I-Discovery/stm32f769i_discovery_qspi.c ****   s_config.Mask            = MX25L512_SR_WIP;
 682              		.loc 1 654 28 is_stmt 0 view .LVU249
 683 0084 0022     		movs	r2, #0
 684 0086 0292     		str	r2, [sp, #8]
 655:Drivers/BSP/STM32F769I-Discovery/stm32f769i_discovery_qspi.c ****   s_config.MatchMode       = QSPI_MATCH_MODE_AND;
 685              		.loc 1 655 3 is_stmt 1 view .LVU250
 655:Drivers/BSP/STM32F769I-Discovery/stm32f769i_discovery_qspi.c ****   s_config.MatchMode       = QSPI_MATCH_MODE_AND;
 686              		.loc 1 655 28 is_stmt 0 view .LVU251
 687 0088 0123     		movs	r3, #1
 688 008a 0393     		str	r3, [sp, #12]
 656:Drivers/BSP/STM32F769I-Discovery/stm32f769i_discovery_qspi.c ****   s_config.StatusBytesSize = 1;
 689              		.loc 1 656 3 is_stmt 1 view .LVU252
 656:Drivers/BSP/STM32F769I-Discovery/stm32f769i_discovery_qspi.c ****   s_config.StatusBytesSize = 1;
 690              		.loc 1 656 28 is_stmt 0 view .LVU253
 691 008c 0692     		str	r2, [sp, #24]
 657:Drivers/BSP/STM32F769I-Discovery/stm32f769i_discovery_qspi.c ****   s_config.Interval        = 0x10;
 692              		.loc 1 657 3 is_stmt 1 view .LVU254
ARM GAS  /var/folders/n6/c271nzx11xl4r4_m7sqjlt0m0000gn/T//cc22wCrs.s 			page 36


 657:Drivers/BSP/STM32F769I-Discovery/stm32f769i_discovery_qspi.c ****   s_config.Interval        = 0x10;
 693              		.loc 1 657 28 is_stmt 0 view .LVU255
 694 008e 0593     		str	r3, [sp, #20]
 658:Drivers/BSP/STM32F769I-Discovery/stm32f769i_discovery_qspi.c ****   s_config.AutomaticStop   = QSPI_AUTOMATIC_STOP_ENABLE;
 695              		.loc 1 658 3 is_stmt 1 view .LVU256
 658:Drivers/BSP/STM32F769I-Discovery/stm32f769i_discovery_qspi.c ****   s_config.AutomaticStop   = QSPI_AUTOMATIC_STOP_ENABLE;
 696              		.loc 1 658 28 is_stmt 0 view .LVU257
 697 0090 1023     		movs	r3, #16
 698 0092 0493     		str	r3, [sp, #16]
 659:Drivers/BSP/STM32F769I-Discovery/stm32f769i_discovery_qspi.c **** 
 699              		.loc 1 659 3 is_stmt 1 view .LVU258
 659:Drivers/BSP/STM32F769I-Discovery/stm32f769i_discovery_qspi.c **** 
 700              		.loc 1 659 28 is_stmt 0 view .LVU259
 701 0094 4FF48003 		mov	r3, #4194304
 702 0098 0793     		str	r3, [sp, #28]
 661:Drivers/BSP/STM32F769I-Discovery/stm32f769i_discovery_qspi.c ****   s_command.Instruction     = READ_STATUS_REG_CMD;
 703              		.loc 1 661 3 is_stmt 1 view .LVU260
 661:Drivers/BSP/STM32F769I-Discovery/stm32f769i_discovery_qspi.c ****   s_command.Instruction     = READ_STATUS_REG_CMD;
 704              		.loc 1 661 29 is_stmt 0 view .LVU261
 705 009a 4FF48073 		mov	r3, #256
 706 009e 0E93     		str	r3, [sp, #56]
 662:Drivers/BSP/STM32F769I-Discovery/stm32f769i_discovery_qspi.c ****   s_command.DataMode        = QSPI_DATA_1_LINE;
 707              		.loc 1 662 3 is_stmt 1 view .LVU262
 662:Drivers/BSP/STM32F769I-Discovery/stm32f769i_discovery_qspi.c ****   s_command.DataMode        = QSPI_DATA_1_LINE;
 708              		.loc 1 662 29 is_stmt 0 view .LVU263
 709 00a0 0523     		movs	r3, #5
 710 00a2 0893     		str	r3, [sp, #32]
 663:Drivers/BSP/STM32F769I-Discovery/stm32f769i_discovery_qspi.c **** 
 711              		.loc 1 663 3 is_stmt 1 view .LVU264
 663:Drivers/BSP/STM32F769I-Discovery/stm32f769i_discovery_qspi.c **** 
 712              		.loc 1 663 29 is_stmt 0 view .LVU265
 713 00a4 4FF08073 		mov	r3, #16777216
 714 00a8 1193     		str	r3, [sp, #68]
 665:Drivers/BSP/STM32F769I-Discovery/stm32f769i_discovery_qspi.c ****   {
 715              		.loc 1 665 3 is_stmt 1 view .LVU266
 665:Drivers/BSP/STM32F769I-Discovery/stm32f769i_discovery_qspi.c ****   {
 716              		.loc 1 665 7 is_stmt 0 view .LVU267
 717 00aa 41F28833 		movw	r3, #5000
 718 00ae 02AA     		add	r2, sp, #8
 719 00b0 08A9     		add	r1, sp, #32
 720 00b2 2046     		mov	r0, r4
 721 00b4 FFF7FEFF 		bl	HAL_QSPI_AutoPolling
 722              	.LVL32:
 665:Drivers/BSP/STM32F769I-Discovery/stm32f769i_discovery_qspi.c ****   {
 723              		.loc 1 665 6 discriminator 1 view .LVU268
 724 00b8 08B1     		cbz	r0, .L49
 667:Drivers/BSP/STM32F769I-Discovery/stm32f769i_discovery_qspi.c ****   }
 725              		.loc 1 667 12 view .LVU269
 726 00ba 0124     		movs	r4, #1
 727              	.LVL33:
 667:Drivers/BSP/STM32F769I-Discovery/stm32f769i_discovery_qspi.c ****   }
 728              		.loc 1 667 12 view .LVU270
 729 00bc B7E7     		b	.L32
 730              	.LVL34:
 731              	.L49:
 671:Drivers/BSP/STM32F769I-Discovery/stm32f769i_discovery_qspi.c ****   s_command.Instruction       = READ_STATUS_REG_CMD;
 732              		.loc 1 671 3 is_stmt 1 view .LVU271
ARM GAS  /var/folders/n6/c271nzx11xl4r4_m7sqjlt0m0000gn/T//cc22wCrs.s 			page 37


 671:Drivers/BSP/STM32F769I-Discovery/stm32f769i_discovery_qspi.c ****   s_command.Instruction       = READ_STATUS_REG_CMD;
 733              		.loc 1 671 31 is_stmt 0 view .LVU272
 734 00be 4FF48073 		mov	r3, #256
 735 00c2 0E93     		str	r3, [sp, #56]
 672:Drivers/BSP/STM32F769I-Discovery/stm32f769i_discovery_qspi.c ****   s_command.AddressMode       = QSPI_ADDRESS_NONE;
 736              		.loc 1 672 3 is_stmt 1 view .LVU273
 672:Drivers/BSP/STM32F769I-Discovery/stm32f769i_discovery_qspi.c ****   s_command.AddressMode       = QSPI_ADDRESS_NONE;
 737              		.loc 1 672 31 is_stmt 0 view .LVU274
 738 00c4 0523     		movs	r3, #5
 739 00c6 0893     		str	r3, [sp, #32]
 673:Drivers/BSP/STM32F769I-Discovery/stm32f769i_discovery_qspi.c ****   s_command.AlternateByteMode = QSPI_ALTERNATE_BYTES_NONE;
 740              		.loc 1 673 3 is_stmt 1 view .LVU275
 673:Drivers/BSP/STM32F769I-Discovery/stm32f769i_discovery_qspi.c ****   s_command.AlternateByteMode = QSPI_ALTERNATE_BYTES_NONE;
 741              		.loc 1 673 31 is_stmt 0 view .LVU276
 742 00c8 0023     		movs	r3, #0
 743 00ca 0F93     		str	r3, [sp, #60]
 674:Drivers/BSP/STM32F769I-Discovery/stm32f769i_discovery_qspi.c ****   s_command.DataMode          = QSPI_DATA_1_LINE;
 744              		.loc 1 674 3 is_stmt 1 view .LVU277
 674:Drivers/BSP/STM32F769I-Discovery/stm32f769i_discovery_qspi.c ****   s_command.DataMode          = QSPI_DATA_1_LINE;
 745              		.loc 1 674 31 is_stmt 0 view .LVU278
 746 00cc 1093     		str	r3, [sp, #64]
 675:Drivers/BSP/STM32F769I-Discovery/stm32f769i_discovery_qspi.c ****   s_command.DummyCycles       = 0;
 747              		.loc 1 675 3 is_stmt 1 view .LVU279
 675:Drivers/BSP/STM32F769I-Discovery/stm32f769i_discovery_qspi.c ****   s_command.DummyCycles       = 0;
 748              		.loc 1 675 31 is_stmt 0 view .LVU280
 749 00ce 4FF08072 		mov	r2, #16777216
 750 00d2 1192     		str	r2, [sp, #68]
 676:Drivers/BSP/STM32F769I-Discovery/stm32f769i_discovery_qspi.c ****   s_command.NbData            = 1;
 751              		.loc 1 676 3 is_stmt 1 view .LVU281
 676:Drivers/BSP/STM32F769I-Discovery/stm32f769i_discovery_qspi.c ****   s_command.NbData            = 1;
 752              		.loc 1 676 31 is_stmt 0 view .LVU282
 753 00d4 0D93     		str	r3, [sp, #52]
 677:Drivers/BSP/STM32F769I-Discovery/stm32f769i_discovery_qspi.c ****   s_command.DdrMode           = QSPI_DDR_MODE_DISABLE;
 754              		.loc 1 677 3 is_stmt 1 view .LVU283
 677:Drivers/BSP/STM32F769I-Discovery/stm32f769i_discovery_qspi.c ****   s_command.DdrMode           = QSPI_DDR_MODE_DISABLE;
 755              		.loc 1 677 31 is_stmt 0 view .LVU284
 756 00d6 0122     		movs	r2, #1
 757 00d8 1292     		str	r2, [sp, #72]
 678:Drivers/BSP/STM32F769I-Discovery/stm32f769i_discovery_qspi.c ****   s_command.DdrHoldHalfCycle  = QSPI_DDR_HHC_ANALOG_DELAY;
 758              		.loc 1 678 3 is_stmt 1 view .LVU285
 678:Drivers/BSP/STM32F769I-Discovery/stm32f769i_discovery_qspi.c ****   s_command.DdrHoldHalfCycle  = QSPI_DDR_HHC_ANALOG_DELAY;
 759              		.loc 1 678 31 is_stmt 0 view .LVU286
 760 00da 1393     		str	r3, [sp, #76]
 679:Drivers/BSP/STM32F769I-Discovery/stm32f769i_discovery_qspi.c ****   s_command.SIOOMode          = QSPI_SIOO_INST_EVERY_CMD;
 761              		.loc 1 679 3 is_stmt 1 view .LVU287
 679:Drivers/BSP/STM32F769I-Discovery/stm32f769i_discovery_qspi.c ****   s_command.SIOOMode          = QSPI_SIOO_INST_EVERY_CMD;
 762              		.loc 1 679 31 is_stmt 0 view .LVU288
 763 00dc 1493     		str	r3, [sp, #80]
 680:Drivers/BSP/STM32F769I-Discovery/stm32f769i_discovery_qspi.c **** 
 764              		.loc 1 680 3 is_stmt 1 view .LVU289
 680:Drivers/BSP/STM32F769I-Discovery/stm32f769i_discovery_qspi.c **** 
 765              		.loc 1 680 31 is_stmt 0 view .LVU290
 766 00de 1593     		str	r3, [sp, #84]
 683:Drivers/BSP/STM32F769I-Discovery/stm32f769i_discovery_qspi.c ****   {
 767              		.loc 1 683 3 is_stmt 1 view .LVU291
 683:Drivers/BSP/STM32F769I-Discovery/stm32f769i_discovery_qspi.c ****   {
 768              		.loc 1 683 7 is_stmt 0 view .LVU292
ARM GAS  /var/folders/n6/c271nzx11xl4r4_m7sqjlt0m0000gn/T//cc22wCrs.s 			page 38


 769 00e0 41F28832 		movw	r2, #5000
 770 00e4 08A9     		add	r1, sp, #32
 771 00e6 2046     		mov	r0, r4
 772 00e8 FFF7FEFF 		bl	HAL_QSPI_Command
 773              	.LVL35:
 683:Drivers/BSP/STM32F769I-Discovery/stm32f769i_discovery_qspi.c ****   {
 774              		.loc 1 683 6 discriminator 1 view .LVU293
 775 00ec 08B1     		cbz	r0, .L50
 685:Drivers/BSP/STM32F769I-Discovery/stm32f769i_discovery_qspi.c ****   }
 776              		.loc 1 685 12 view .LVU294
 777 00ee 0124     		movs	r4, #1
 778              	.LVL36:
 685:Drivers/BSP/STM32F769I-Discovery/stm32f769i_discovery_qspi.c ****   }
 779              		.loc 1 685 12 view .LVU295
 780 00f0 9DE7     		b	.L32
 781              	.LVL37:
 782              	.L50:
 689:Drivers/BSP/STM32F769I-Discovery/stm32f769i_discovery_qspi.c ****   {
 783              		.loc 1 689 3 is_stmt 1 view .LVU296
 689:Drivers/BSP/STM32F769I-Discovery/stm32f769i_discovery_qspi.c ****   {
 784              		.loc 1 689 7 is_stmt 0 view .LVU297
 785 00f2 41F28832 		movw	r2, #5000
 786 00f6 0DF10701 		add	r1, sp, #7
 787 00fa 2046     		mov	r0, r4
 788 00fc FFF7FEFF 		bl	HAL_QSPI_Receive
 789              	.LVL38:
 689:Drivers/BSP/STM32F769I-Discovery/stm32f769i_discovery_qspi.c ****   {
 790              		.loc 1 689 6 discriminator 1 view .LVU298
 791 0100 08B1     		cbz	r0, .L51
 691:Drivers/BSP/STM32F769I-Discovery/stm32f769i_discovery_qspi.c ****   }
 792              		.loc 1 691 12 view .LVU299
 793 0102 0124     		movs	r4, #1
 794              	.LVL39:
 691:Drivers/BSP/STM32F769I-Discovery/stm32f769i_discovery_qspi.c ****   }
 795              		.loc 1 691 12 view .LVU300
 796 0104 93E7     		b	.L32
 797              	.LVL40:
 798              	.L51:
 696:Drivers/BSP/STM32F769I-Discovery/stm32f769i_discovery_qspi.c ****   s_command.Instruction       = WRITE_ENABLE_CMD;
 799              		.loc 1 696 3 is_stmt 1 view .LVU301
 696:Drivers/BSP/STM32F769I-Discovery/stm32f769i_discovery_qspi.c ****   s_command.Instruction       = WRITE_ENABLE_CMD;
 800              		.loc 1 696 31 is_stmt 0 view .LVU302
 801 0106 4FF48073 		mov	r3, #256
 802 010a 0E93     		str	r3, [sp, #56]
 697:Drivers/BSP/STM32F769I-Discovery/stm32f769i_discovery_qspi.c ****   s_command.AddressMode       = QSPI_ADDRESS_NONE;
 803              		.loc 1 697 3 is_stmt 1 view .LVU303
 697:Drivers/BSP/STM32F769I-Discovery/stm32f769i_discovery_qspi.c ****   s_command.AddressMode       = QSPI_ADDRESS_NONE;
 804              		.loc 1 697 31 is_stmt 0 view .LVU304
 805 010c 0623     		movs	r3, #6
 806 010e 0893     		str	r3, [sp, #32]
 698:Drivers/BSP/STM32F769I-Discovery/stm32f769i_discovery_qspi.c ****   s_command.AlternateByteMode = QSPI_ALTERNATE_BYTES_NONE;
 807              		.loc 1 698 3 is_stmt 1 view .LVU305
 698:Drivers/BSP/STM32F769I-Discovery/stm32f769i_discovery_qspi.c ****   s_command.AlternateByteMode = QSPI_ALTERNATE_BYTES_NONE;
 808              		.loc 1 698 31 is_stmt 0 view .LVU306
 809 0110 0023     		movs	r3, #0
 810 0112 0F93     		str	r3, [sp, #60]
 699:Drivers/BSP/STM32F769I-Discovery/stm32f769i_discovery_qspi.c ****   s_command.DataMode          = QSPI_DATA_NONE;
ARM GAS  /var/folders/n6/c271nzx11xl4r4_m7sqjlt0m0000gn/T//cc22wCrs.s 			page 39


 811              		.loc 1 699 3 is_stmt 1 view .LVU307
 699:Drivers/BSP/STM32F769I-Discovery/stm32f769i_discovery_qspi.c ****   s_command.DataMode          = QSPI_DATA_NONE;
 812              		.loc 1 699 31 is_stmt 0 view .LVU308
 813 0114 1093     		str	r3, [sp, #64]
 700:Drivers/BSP/STM32F769I-Discovery/stm32f769i_discovery_qspi.c ****   s_command.DummyCycles       = 0;
 814              		.loc 1 700 3 is_stmt 1 view .LVU309
 700:Drivers/BSP/STM32F769I-Discovery/stm32f769i_discovery_qspi.c ****   s_command.DummyCycles       = 0;
 815              		.loc 1 700 31 is_stmt 0 view .LVU310
 816 0116 1193     		str	r3, [sp, #68]
 701:Drivers/BSP/STM32F769I-Discovery/stm32f769i_discovery_qspi.c ****   s_command.DdrMode           = QSPI_DDR_MODE_DISABLE;
 817              		.loc 1 701 3 is_stmt 1 view .LVU311
 701:Drivers/BSP/STM32F769I-Discovery/stm32f769i_discovery_qspi.c ****   s_command.DdrMode           = QSPI_DDR_MODE_DISABLE;
 818              		.loc 1 701 31 is_stmt 0 view .LVU312
 819 0118 0D93     		str	r3, [sp, #52]
 702:Drivers/BSP/STM32F769I-Discovery/stm32f769i_discovery_qspi.c ****   s_command.DdrHoldHalfCycle  = QSPI_DDR_HHC_ANALOG_DELAY;
 820              		.loc 1 702 3 is_stmt 1 view .LVU313
 702:Drivers/BSP/STM32F769I-Discovery/stm32f769i_discovery_qspi.c ****   s_command.DdrHoldHalfCycle  = QSPI_DDR_HHC_ANALOG_DELAY;
 821              		.loc 1 702 31 is_stmt 0 view .LVU314
 822 011a 1393     		str	r3, [sp, #76]
 703:Drivers/BSP/STM32F769I-Discovery/stm32f769i_discovery_qspi.c ****   s_command.SIOOMode          = QSPI_SIOO_INST_EVERY_CMD;
 823              		.loc 1 703 3 is_stmt 1 view .LVU315
 703:Drivers/BSP/STM32F769I-Discovery/stm32f769i_discovery_qspi.c ****   s_command.SIOOMode          = QSPI_SIOO_INST_EVERY_CMD;
 824              		.loc 1 703 31 is_stmt 0 view .LVU316
 825 011c 1493     		str	r3, [sp, #80]
 704:Drivers/BSP/STM32F769I-Discovery/stm32f769i_discovery_qspi.c **** 
 826              		.loc 1 704 3 is_stmt 1 view .LVU317
 704:Drivers/BSP/STM32F769I-Discovery/stm32f769i_discovery_qspi.c **** 
 827              		.loc 1 704 31 is_stmt 0 view .LVU318
 828 011e 1593     		str	r3, [sp, #84]
 706:Drivers/BSP/STM32F769I-Discovery/stm32f769i_discovery_qspi.c ****   {
 829              		.loc 1 706 3 is_stmt 1 view .LVU319
 706:Drivers/BSP/STM32F769I-Discovery/stm32f769i_discovery_qspi.c ****   {
 830              		.loc 1 706 7 is_stmt 0 view .LVU320
 831 0120 41F28832 		movw	r2, #5000
 832 0124 08A9     		add	r1, sp, #32
 833 0126 2046     		mov	r0, r4
 834 0128 FFF7FEFF 		bl	HAL_QSPI_Command
 835              	.LVL41:
 706:Drivers/BSP/STM32F769I-Discovery/stm32f769i_discovery_qspi.c ****   {
 836              		.loc 1 706 6 discriminator 1 view .LVU321
 837 012c 08B1     		cbz	r0, .L52
 708:Drivers/BSP/STM32F769I-Discovery/stm32f769i_discovery_qspi.c ****   }
 838              		.loc 1 708 12 view .LVU322
 839 012e 0124     		movs	r4, #1
 840              	.LVL42:
 708:Drivers/BSP/STM32F769I-Discovery/stm32f769i_discovery_qspi.c ****   }
 841              		.loc 1 708 12 view .LVU323
 842 0130 7DE7     		b	.L32
 843              	.LVL43:
 844              	.L52:
 712:Drivers/BSP/STM32F769I-Discovery/stm32f769i_discovery_qspi.c ****   s_config.Mask            = MX25L512_SR_WREN;
 845              		.loc 1 712 3 is_stmt 1 view .LVU324
 712:Drivers/BSP/STM32F769I-Discovery/stm32f769i_discovery_qspi.c ****   s_config.Mask            = MX25L512_SR_WREN;
 846              		.loc 1 712 28 is_stmt 0 view .LVU325
 847 0132 0223     		movs	r3, #2
 848 0134 0293     		str	r3, [sp, #8]
 713:Drivers/BSP/STM32F769I-Discovery/stm32f769i_discovery_qspi.c ****   s_config.MatchMode       = QSPI_MATCH_MODE_AND;
ARM GAS  /var/folders/n6/c271nzx11xl4r4_m7sqjlt0m0000gn/T//cc22wCrs.s 			page 40


 849              		.loc 1 713 3 is_stmt 1 view .LVU326
 713:Drivers/BSP/STM32F769I-Discovery/stm32f769i_discovery_qspi.c ****   s_config.MatchMode       = QSPI_MATCH_MODE_AND;
 850              		.loc 1 713 28 is_stmt 0 view .LVU327
 851 0136 0393     		str	r3, [sp, #12]
 714:Drivers/BSP/STM32F769I-Discovery/stm32f769i_discovery_qspi.c ****   s_config.StatusBytesSize = 1;
 852              		.loc 1 714 3 is_stmt 1 view .LVU328
 714:Drivers/BSP/STM32F769I-Discovery/stm32f769i_discovery_qspi.c ****   s_config.StatusBytesSize = 1;
 853              		.loc 1 714 28 is_stmt 0 view .LVU329
 854 0138 0023     		movs	r3, #0
 855 013a 0693     		str	r3, [sp, #24]
 715:Drivers/BSP/STM32F769I-Discovery/stm32f769i_discovery_qspi.c ****   s_config.Interval        = 0x10;
 856              		.loc 1 715 3 is_stmt 1 view .LVU330
 715:Drivers/BSP/STM32F769I-Discovery/stm32f769i_discovery_qspi.c ****   s_config.Interval        = 0x10;
 857              		.loc 1 715 28 is_stmt 0 view .LVU331
 858 013c 0123     		movs	r3, #1
 859 013e 0593     		str	r3, [sp, #20]
 716:Drivers/BSP/STM32F769I-Discovery/stm32f769i_discovery_qspi.c ****   s_config.AutomaticStop   = QSPI_AUTOMATIC_STOP_ENABLE;
 860              		.loc 1 716 3 is_stmt 1 view .LVU332
 716:Drivers/BSP/STM32F769I-Discovery/stm32f769i_discovery_qspi.c ****   s_config.AutomaticStop   = QSPI_AUTOMATIC_STOP_ENABLE;
 861              		.loc 1 716 28 is_stmt 0 view .LVU333
 862 0140 1023     		movs	r3, #16
 863 0142 0493     		str	r3, [sp, #16]
 717:Drivers/BSP/STM32F769I-Discovery/stm32f769i_discovery_qspi.c **** 
 864              		.loc 1 717 3 is_stmt 1 view .LVU334
 717:Drivers/BSP/STM32F769I-Discovery/stm32f769i_discovery_qspi.c **** 
 865              		.loc 1 717 28 is_stmt 0 view .LVU335
 866 0144 4FF48003 		mov	r3, #4194304
 867 0148 0793     		str	r3, [sp, #28]
 719:Drivers/BSP/STM32F769I-Discovery/stm32f769i_discovery_qspi.c ****   s_command.DataMode       = QSPI_DATA_1_LINE;
 868              		.loc 1 719 3 is_stmt 1 view .LVU336
 719:Drivers/BSP/STM32F769I-Discovery/stm32f769i_discovery_qspi.c ****   s_command.DataMode       = QSPI_DATA_1_LINE;
 869              		.loc 1 719 28 is_stmt 0 view .LVU337
 870 014a 0523     		movs	r3, #5
 871 014c 0893     		str	r3, [sp, #32]
 720:Drivers/BSP/STM32F769I-Discovery/stm32f769i_discovery_qspi.c **** 
 872              		.loc 1 720 3 is_stmt 1 view .LVU338
 720:Drivers/BSP/STM32F769I-Discovery/stm32f769i_discovery_qspi.c **** 
 873              		.loc 1 720 28 is_stmt 0 view .LVU339
 874 014e 4FF08073 		mov	r3, #16777216
 875 0152 1193     		str	r3, [sp, #68]
 722:Drivers/BSP/STM32F769I-Discovery/stm32f769i_discovery_qspi.c ****   {
 876              		.loc 1 722 3 is_stmt 1 view .LVU340
 722:Drivers/BSP/STM32F769I-Discovery/stm32f769i_discovery_qspi.c ****   {
 877              		.loc 1 722 7 is_stmt 0 view .LVU341
 878 0154 41F28833 		movw	r3, #5000
 879 0158 02AA     		add	r2, sp, #8
 880 015a 08A9     		add	r1, sp, #32
 881 015c 2046     		mov	r0, r4
 882 015e FFF7FEFF 		bl	HAL_QSPI_AutoPolling
 883              	.LVL44:
 722:Drivers/BSP/STM32F769I-Discovery/stm32f769i_discovery_qspi.c ****   {
 884              		.loc 1 722 6 discriminator 1 view .LVU342
 885 0162 08B1     		cbz	r0, .L53
 724:Drivers/BSP/STM32F769I-Discovery/stm32f769i_discovery_qspi.c ****   }
 886              		.loc 1 724 12 view .LVU343
 887 0164 0124     		movs	r4, #1
 888              	.LVL45:
ARM GAS  /var/folders/n6/c271nzx11xl4r4_m7sqjlt0m0000gn/T//cc22wCrs.s 			page 41


 724:Drivers/BSP/STM32F769I-Discovery/stm32f769i_discovery_qspi.c ****   }
 889              		.loc 1 724 12 view .LVU344
 890 0166 62E7     		b	.L32
 891              	.LVL46:
 892              	.L53:
 728:Drivers/BSP/STM32F769I-Discovery/stm32f769i_discovery_qspi.c ****   s_command.Instruction       = WRITE_STATUS_CFG_REG_CMD;
 893              		.loc 1 728 3 is_stmt 1 view .LVU345
 728:Drivers/BSP/STM32F769I-Discovery/stm32f769i_discovery_qspi.c ****   s_command.Instruction       = WRITE_STATUS_CFG_REG_CMD;
 894              		.loc 1 728 31 is_stmt 0 view .LVU346
 895 0168 4FF48073 		mov	r3, #256
 896 016c 0E93     		str	r3, [sp, #56]
 729:Drivers/BSP/STM32F769I-Discovery/stm32f769i_discovery_qspi.c ****   s_command.AddressMode       = QSPI_ADDRESS_NONE;
 897              		.loc 1 729 3 is_stmt 1 view .LVU347
 729:Drivers/BSP/STM32F769I-Discovery/stm32f769i_discovery_qspi.c ****   s_command.AddressMode       = QSPI_ADDRESS_NONE;
 898              		.loc 1 729 31 is_stmt 0 view .LVU348
 899 016e 0122     		movs	r2, #1
 900 0170 0892     		str	r2, [sp, #32]
 730:Drivers/BSP/STM32F769I-Discovery/stm32f769i_discovery_qspi.c ****   s_command.AlternateByteMode = QSPI_ALTERNATE_BYTES_NONE;
 901              		.loc 1 730 3 is_stmt 1 view .LVU349
 730:Drivers/BSP/STM32F769I-Discovery/stm32f769i_discovery_qspi.c ****   s_command.AlternateByteMode = QSPI_ALTERNATE_BYTES_NONE;
 902              		.loc 1 730 31 is_stmt 0 view .LVU350
 903 0172 0023     		movs	r3, #0
 904 0174 0F93     		str	r3, [sp, #60]
 731:Drivers/BSP/STM32F769I-Discovery/stm32f769i_discovery_qspi.c ****   s_command.DataMode          = QSPI_DATA_1_LINE;
 905              		.loc 1 731 3 is_stmt 1 view .LVU351
 731:Drivers/BSP/STM32F769I-Discovery/stm32f769i_discovery_qspi.c ****   s_command.DataMode          = QSPI_DATA_1_LINE;
 906              		.loc 1 731 31 is_stmt 0 view .LVU352
 907 0176 1093     		str	r3, [sp, #64]
 732:Drivers/BSP/STM32F769I-Discovery/stm32f769i_discovery_qspi.c ****   s_command.DummyCycles       = 0;
 908              		.loc 1 732 3 is_stmt 1 view .LVU353
 732:Drivers/BSP/STM32F769I-Discovery/stm32f769i_discovery_qspi.c ****   s_command.DummyCycles       = 0;
 909              		.loc 1 732 31 is_stmt 0 view .LVU354
 910 0178 4FF08071 		mov	r1, #16777216
 911 017c 1191     		str	r1, [sp, #68]
 733:Drivers/BSP/STM32F769I-Discovery/stm32f769i_discovery_qspi.c ****   s_command.NbData            = 1;
 912              		.loc 1 733 3 is_stmt 1 view .LVU355
 733:Drivers/BSP/STM32F769I-Discovery/stm32f769i_discovery_qspi.c ****   s_command.NbData            = 1;
 913              		.loc 1 733 31 is_stmt 0 view .LVU356
 914 017e 0D93     		str	r3, [sp, #52]
 734:Drivers/BSP/STM32F769I-Discovery/stm32f769i_discovery_qspi.c ****   s_command.DdrMode           = QSPI_DDR_MODE_DISABLE;
 915              		.loc 1 734 3 is_stmt 1 view .LVU357
 734:Drivers/BSP/STM32F769I-Discovery/stm32f769i_discovery_qspi.c ****   s_command.DdrMode           = QSPI_DDR_MODE_DISABLE;
 916              		.loc 1 734 31 is_stmt 0 view .LVU358
 917 0180 1292     		str	r2, [sp, #72]
 735:Drivers/BSP/STM32F769I-Discovery/stm32f769i_discovery_qspi.c ****   s_command.DdrHoldHalfCycle  = QSPI_DDR_HHC_ANALOG_DELAY;
 918              		.loc 1 735 3 is_stmt 1 view .LVU359
 735:Drivers/BSP/STM32F769I-Discovery/stm32f769i_discovery_qspi.c ****   s_command.DdrHoldHalfCycle  = QSPI_DDR_HHC_ANALOG_DELAY;
 919              		.loc 1 735 31 is_stmt 0 view .LVU360
 920 0182 1393     		str	r3, [sp, #76]
 736:Drivers/BSP/STM32F769I-Discovery/stm32f769i_discovery_qspi.c ****   s_command.SIOOMode          = QSPI_SIOO_INST_EVERY_CMD;
 921              		.loc 1 736 3 is_stmt 1 view .LVU361
 736:Drivers/BSP/STM32F769I-Discovery/stm32f769i_discovery_qspi.c ****   s_command.SIOOMode          = QSPI_SIOO_INST_EVERY_CMD;
 922              		.loc 1 736 31 is_stmt 0 view .LVU362
 923 0184 1493     		str	r3, [sp, #80]
 737:Drivers/BSP/STM32F769I-Discovery/stm32f769i_discovery_qspi.c **** 
 924              		.loc 1 737 3 is_stmt 1 view .LVU363
 737:Drivers/BSP/STM32F769I-Discovery/stm32f769i_discovery_qspi.c **** 
ARM GAS  /var/folders/n6/c271nzx11xl4r4_m7sqjlt0m0000gn/T//cc22wCrs.s 			page 42


 925              		.loc 1 737 31 is_stmt 0 view .LVU364
 926 0186 1593     		str	r3, [sp, #84]
 740:Drivers/BSP/STM32F769I-Discovery/stm32f769i_discovery_qspi.c **** 
 927              		.loc 1 740 3 is_stmt 1 view .LVU365
 740:Drivers/BSP/STM32F769I-Discovery/stm32f769i_discovery_qspi.c **** 
 928              		.loc 1 740 7 is_stmt 0 view .LVU366
 929 0188 9DF80730 		ldrb	r3, [sp, #7]	@ zero_extendqisi2
 930 018c 43F04003 		orr	r3, r3, #64
 931 0190 8DF80730 		strb	r3, [sp, #7]
 743:Drivers/BSP/STM32F769I-Discovery/stm32f769i_discovery_qspi.c ****   {
 932              		.loc 1 743 3 is_stmt 1 view .LVU367
 743:Drivers/BSP/STM32F769I-Discovery/stm32f769i_discovery_qspi.c ****   {
 933              		.loc 1 743 7 is_stmt 0 view .LVU368
 934 0194 41F28832 		movw	r2, #5000
 935 0198 08A9     		add	r1, sp, #32
 936 019a 2046     		mov	r0, r4
 937 019c FFF7FEFF 		bl	HAL_QSPI_Command
 938              	.LVL47:
 743:Drivers/BSP/STM32F769I-Discovery/stm32f769i_discovery_qspi.c ****   {
 939              		.loc 1 743 6 discriminator 1 view .LVU369
 940 01a0 08B1     		cbz	r0, .L54
 745:Drivers/BSP/STM32F769I-Discovery/stm32f769i_discovery_qspi.c ****   }
 941              		.loc 1 745 12 view .LVU370
 942 01a2 0124     		movs	r4, #1
 943              	.LVL48:
 745:Drivers/BSP/STM32F769I-Discovery/stm32f769i_discovery_qspi.c ****   }
 944              		.loc 1 745 12 view .LVU371
 945 01a4 43E7     		b	.L32
 946              	.LVL49:
 947              	.L54:
 749:Drivers/BSP/STM32F769I-Discovery/stm32f769i_discovery_qspi.c ****   {
 948              		.loc 1 749 3 is_stmt 1 view .LVU372
 749:Drivers/BSP/STM32F769I-Discovery/stm32f769i_discovery_qspi.c ****   {
 949              		.loc 1 749 7 is_stmt 0 view .LVU373
 950 01a6 41F28832 		movw	r2, #5000
 951 01aa 0DF10701 		add	r1, sp, #7
 952 01ae 2046     		mov	r0, r4
 953 01b0 FFF7FEFF 		bl	HAL_QSPI_Transmit
 954              	.LVL50:
 749:Drivers/BSP/STM32F769I-Discovery/stm32f769i_discovery_qspi.c ****   {
 955              		.loc 1 749 6 discriminator 1 view .LVU374
 956 01b4 0446     		mov	r4, r0
 957              	.LVL51:
 749:Drivers/BSP/STM32F769I-Discovery/stm32f769i_discovery_qspi.c ****   {
 958              		.loc 1 749 6 discriminator 1 view .LVU375
 959 01b6 08B1     		cbz	r0, .L55
 751:Drivers/BSP/STM32F769I-Discovery/stm32f769i_discovery_qspi.c ****   }
 960              		.loc 1 751 12 view .LVU376
 961 01b8 0124     		movs	r4, #1
 962 01ba 38E7     		b	.L32
 963              	.L55:
 755:Drivers/BSP/STM32F769I-Discovery/stm32f769i_discovery_qspi.c **** 
 964              		.loc 1 755 3 is_stmt 1 view .LVU377
 965 01bc 2820     		movs	r0, #40
 966 01be FFF7FEFF 		bl	HAL_Delay
 967              	.LVL52:
 757:Drivers/BSP/STM32F769I-Discovery/stm32f769i_discovery_qspi.c **** }
ARM GAS  /var/folders/n6/c271nzx11xl4r4_m7sqjlt0m0000gn/T//cc22wCrs.s 			page 43


 968              		.loc 1 757 3 view .LVU378
 757:Drivers/BSP/STM32F769I-Discovery/stm32f769i_discovery_qspi.c **** }
 969              		.loc 1 757 10 is_stmt 0 view .LVU379
 970 01c2 34E7     		b	.L32
 971              		.cfi_endproc
 972              	.LFE152:
 974              		.section	.text.QSPI_DummyCyclesCfg,"ax",%progbits
 975              		.align	1
 976              		.syntax unified
 977              		.thumb
 978              		.thumb_func
 980              	QSPI_DummyCyclesCfg:
 981              	.LVL53:
 982              	.LFB154:
 807:Drivers/BSP/STM32F769I-Discovery/stm32f769i_discovery_qspi.c ****   QSPI_CommandTypeDef s_command;
 983              		.loc 1 807 1 is_stmt 1 view -0
 984              		.cfi_startproc
 985              		@ args = 0, pretend = 0, frame = 64
 986              		@ frame_needed = 0, uses_anonymous_args = 0
 807:Drivers/BSP/STM32F769I-Discovery/stm32f769i_discovery_qspi.c ****   QSPI_CommandTypeDef s_command;
 987              		.loc 1 807 1 is_stmt 0 view .LVU381
 988 0000 10B5     		push	{r4, lr}
 989              		.cfi_def_cfa_offset 8
 990              		.cfi_offset 4, -8
 991              		.cfi_offset 14, -4
 992 0002 90B0     		sub	sp, sp, #64
 993              		.cfi_def_cfa_offset 72
 994 0004 0446     		mov	r4, r0
 808:Drivers/BSP/STM32F769I-Discovery/stm32f769i_discovery_qspi.c ****   uint8_t reg[2];
 995              		.loc 1 808 3 is_stmt 1 view .LVU382
 809:Drivers/BSP/STM32F769I-Discovery/stm32f769i_discovery_qspi.c ****   
 996              		.loc 1 809 3 view .LVU383
 812:Drivers/BSP/STM32F769I-Discovery/stm32f769i_discovery_qspi.c ****   s_command.Instruction       = READ_STATUS_REG_CMD;
 997              		.loc 1 812 3 view .LVU384
 812:Drivers/BSP/STM32F769I-Discovery/stm32f769i_discovery_qspi.c ****   s_command.Instruction       = READ_STATUS_REG_CMD;
 998              		.loc 1 812 31 is_stmt 0 view .LVU385
 999 0006 4FF44073 		mov	r3, #768
 1000 000a 0893     		str	r3, [sp, #32]
 813:Drivers/BSP/STM32F769I-Discovery/stm32f769i_discovery_qspi.c ****   s_command.AddressMode       = QSPI_ADDRESS_NONE;
 1001              		.loc 1 813 3 is_stmt 1 view .LVU386
 813:Drivers/BSP/STM32F769I-Discovery/stm32f769i_discovery_qspi.c ****   s_command.AddressMode       = QSPI_ADDRESS_NONE;
 1002              		.loc 1 813 31 is_stmt 0 view .LVU387
 1003 000c 0523     		movs	r3, #5
 1004 000e 0293     		str	r3, [sp, #8]
 814:Drivers/BSP/STM32F769I-Discovery/stm32f769i_discovery_qspi.c ****   s_command.AlternateByteMode = QSPI_ALTERNATE_BYTES_NONE;
 1005              		.loc 1 814 3 is_stmt 1 view .LVU388
 814:Drivers/BSP/STM32F769I-Discovery/stm32f769i_discovery_qspi.c ****   s_command.AlternateByteMode = QSPI_ALTERNATE_BYTES_NONE;
 1006              		.loc 1 814 31 is_stmt 0 view .LVU389
 1007 0010 0023     		movs	r3, #0
 1008 0012 0993     		str	r3, [sp, #36]
 815:Drivers/BSP/STM32F769I-Discovery/stm32f769i_discovery_qspi.c ****   s_command.DataMode          = QSPI_DATA_4_LINES;
 1009              		.loc 1 815 3 is_stmt 1 view .LVU390
 815:Drivers/BSP/STM32F769I-Discovery/stm32f769i_discovery_qspi.c ****   s_command.DataMode          = QSPI_DATA_4_LINES;
 1010              		.loc 1 815 31 is_stmt 0 view .LVU391
 1011 0014 0A93     		str	r3, [sp, #40]
 816:Drivers/BSP/STM32F769I-Discovery/stm32f769i_discovery_qspi.c ****   s_command.DummyCycles       = 0;
 1012              		.loc 1 816 3 is_stmt 1 view .LVU392
ARM GAS  /var/folders/n6/c271nzx11xl4r4_m7sqjlt0m0000gn/T//cc22wCrs.s 			page 44


 816:Drivers/BSP/STM32F769I-Discovery/stm32f769i_discovery_qspi.c ****   s_command.DummyCycles       = 0;
 1013              		.loc 1 816 31 is_stmt 0 view .LVU393
 1014 0016 4FF04072 		mov	r2, #50331648
 1015 001a 0B92     		str	r2, [sp, #44]
 817:Drivers/BSP/STM32F769I-Discovery/stm32f769i_discovery_qspi.c ****   s_command.NbData            = 1;
 1016              		.loc 1 817 3 is_stmt 1 view .LVU394
 817:Drivers/BSP/STM32F769I-Discovery/stm32f769i_discovery_qspi.c ****   s_command.NbData            = 1;
 1017              		.loc 1 817 31 is_stmt 0 view .LVU395
 1018 001c 0793     		str	r3, [sp, #28]
 818:Drivers/BSP/STM32F769I-Discovery/stm32f769i_discovery_qspi.c ****   s_command.DdrMode           = QSPI_DDR_MODE_DISABLE;
 1019              		.loc 1 818 3 is_stmt 1 view .LVU396
 818:Drivers/BSP/STM32F769I-Discovery/stm32f769i_discovery_qspi.c ****   s_command.DdrMode           = QSPI_DDR_MODE_DISABLE;
 1020              		.loc 1 818 31 is_stmt 0 view .LVU397
 1021 001e 0122     		movs	r2, #1
 1022 0020 0C92     		str	r2, [sp, #48]
 819:Drivers/BSP/STM32F769I-Discovery/stm32f769i_discovery_qspi.c ****   s_command.DdrHoldHalfCycle  = QSPI_DDR_HHC_ANALOG_DELAY;
 1023              		.loc 1 819 3 is_stmt 1 view .LVU398
 819:Drivers/BSP/STM32F769I-Discovery/stm32f769i_discovery_qspi.c ****   s_command.DdrHoldHalfCycle  = QSPI_DDR_HHC_ANALOG_DELAY;
 1024              		.loc 1 819 31 is_stmt 0 view .LVU399
 1025 0022 0D93     		str	r3, [sp, #52]
 820:Drivers/BSP/STM32F769I-Discovery/stm32f769i_discovery_qspi.c ****   s_command.SIOOMode          = QSPI_SIOO_INST_EVERY_CMD;
 1026              		.loc 1 820 3 is_stmt 1 view .LVU400
 820:Drivers/BSP/STM32F769I-Discovery/stm32f769i_discovery_qspi.c ****   s_command.SIOOMode          = QSPI_SIOO_INST_EVERY_CMD;
 1027              		.loc 1 820 31 is_stmt 0 view .LVU401
 1028 0024 0E93     		str	r3, [sp, #56]
 821:Drivers/BSP/STM32F769I-Discovery/stm32f769i_discovery_qspi.c ****   
 1029              		.loc 1 821 3 is_stmt 1 view .LVU402
 821:Drivers/BSP/STM32F769I-Discovery/stm32f769i_discovery_qspi.c ****   
 1030              		.loc 1 821 31 is_stmt 0 view .LVU403
 1031 0026 0F93     		str	r3, [sp, #60]
 824:Drivers/BSP/STM32F769I-Discovery/stm32f769i_discovery_qspi.c ****   {
 1032              		.loc 1 824 3 is_stmt 1 view .LVU404
 824:Drivers/BSP/STM32F769I-Discovery/stm32f769i_discovery_qspi.c ****   {
 1033              		.loc 1 824 7 is_stmt 0 view .LVU405
 1034 0028 41F28832 		movw	r2, #5000
 1035 002c 02A9     		add	r1, sp, #8
 1036 002e FFF7FEFF 		bl	HAL_QSPI_Command
 1037              	.LVL54:
 824:Drivers/BSP/STM32F769I-Discovery/stm32f769i_discovery_qspi.c ****   {
 1038              		.loc 1 824 6 discriminator 1 view .LVU406
 1039 0032 18B1     		cbz	r0, .L66
 826:Drivers/BSP/STM32F769I-Discovery/stm32f769i_discovery_qspi.c ****   }
 1040              		.loc 1 826 12 view .LVU407
 1041 0034 0124     		movs	r4, #1
 1042              	.LVL55:
 1043              	.L57:
 896:Drivers/BSP/STM32F769I-Discovery/stm32f769i_discovery_qspi.c **** 
 1044              		.loc 1 896 1 view .LVU408
 1045 0036 2046     		mov	r0, r4
 1046 0038 10B0     		add	sp, sp, #64
 1047              		.cfi_remember_state
 1048              		.cfi_def_cfa_offset 8
 1049              		@ sp needed
 1050 003a 10BD     		pop	{r4, pc}
 1051              	.LVL56:
 1052              	.L66:
 1053              		.cfi_restore_state
ARM GAS  /var/folders/n6/c271nzx11xl4r4_m7sqjlt0m0000gn/T//cc22wCrs.s 			page 45


 830:Drivers/BSP/STM32F769I-Discovery/stm32f769i_discovery_qspi.c ****   {
 1054              		.loc 1 830 3 is_stmt 1 view .LVU409
 830:Drivers/BSP/STM32F769I-Discovery/stm32f769i_discovery_qspi.c ****   {
 1055              		.loc 1 830 7 is_stmt 0 view .LVU410
 1056 003c 41F28832 		movw	r2, #5000
 1057 0040 01A9     		add	r1, sp, #4
 1058 0042 2046     		mov	r0, r4
 1059 0044 FFF7FEFF 		bl	HAL_QSPI_Receive
 1060              	.LVL57:
 830:Drivers/BSP/STM32F769I-Discovery/stm32f769i_discovery_qspi.c ****   {
 1061              		.loc 1 830 6 discriminator 1 view .LVU411
 1062 0048 08B1     		cbz	r0, .L67
 832:Drivers/BSP/STM32F769I-Discovery/stm32f769i_discovery_qspi.c ****   }
 1063              		.loc 1 832 12 view .LVU412
 1064 004a 0124     		movs	r4, #1
 1065              	.LVL58:
 832:Drivers/BSP/STM32F769I-Discovery/stm32f769i_discovery_qspi.c ****   }
 1066              		.loc 1 832 12 view .LVU413
 1067 004c F3E7     		b	.L57
 1068              	.LVL59:
 1069              	.L67:
 836:Drivers/BSP/STM32F769I-Discovery/stm32f769i_discovery_qspi.c ****   s_command.Instruction       = READ_CFG_REG_CMD;
 1070              		.loc 1 836 3 is_stmt 1 view .LVU414
 836:Drivers/BSP/STM32F769I-Discovery/stm32f769i_discovery_qspi.c ****   s_command.Instruction       = READ_CFG_REG_CMD;
 1071              		.loc 1 836 31 is_stmt 0 view .LVU415
 1072 004e 4FF44073 		mov	r3, #768
 1073 0052 0893     		str	r3, [sp, #32]
 837:Drivers/BSP/STM32F769I-Discovery/stm32f769i_discovery_qspi.c ****   s_command.AddressMode       = QSPI_ADDRESS_NONE;
 1074              		.loc 1 837 3 is_stmt 1 view .LVU416
 837:Drivers/BSP/STM32F769I-Discovery/stm32f769i_discovery_qspi.c ****   s_command.AddressMode       = QSPI_ADDRESS_NONE;
 1075              		.loc 1 837 31 is_stmt 0 view .LVU417
 1076 0054 1523     		movs	r3, #21
 1077 0056 0293     		str	r3, [sp, #8]
 838:Drivers/BSP/STM32F769I-Discovery/stm32f769i_discovery_qspi.c ****   s_command.AlternateByteMode = QSPI_ALTERNATE_BYTES_NONE;
 1078              		.loc 1 838 3 is_stmt 1 view .LVU418
 838:Drivers/BSP/STM32F769I-Discovery/stm32f769i_discovery_qspi.c ****   s_command.AlternateByteMode = QSPI_ALTERNATE_BYTES_NONE;
 1079              		.loc 1 838 31 is_stmt 0 view .LVU419
 1080 0058 0023     		movs	r3, #0
 1081 005a 0993     		str	r3, [sp, #36]
 839:Drivers/BSP/STM32F769I-Discovery/stm32f769i_discovery_qspi.c ****   s_command.DataMode          = QSPI_DATA_4_LINES;
 1082              		.loc 1 839 3 is_stmt 1 view .LVU420
 839:Drivers/BSP/STM32F769I-Discovery/stm32f769i_discovery_qspi.c ****   s_command.DataMode          = QSPI_DATA_4_LINES;
 1083              		.loc 1 839 31 is_stmt 0 view .LVU421
 1084 005c 0A93     		str	r3, [sp, #40]
 840:Drivers/BSP/STM32F769I-Discovery/stm32f769i_discovery_qspi.c ****   s_command.DummyCycles       = 0;
 1085              		.loc 1 840 3 is_stmt 1 view .LVU422
 840:Drivers/BSP/STM32F769I-Discovery/stm32f769i_discovery_qspi.c ****   s_command.DummyCycles       = 0;
 1086              		.loc 1 840 31 is_stmt 0 view .LVU423
 1087 005e 4FF04072 		mov	r2, #50331648
 1088 0062 0B92     		str	r2, [sp, #44]
 841:Drivers/BSP/STM32F769I-Discovery/stm32f769i_discovery_qspi.c ****   s_command.NbData            = 1;
 1089              		.loc 1 841 3 is_stmt 1 view .LVU424
 841:Drivers/BSP/STM32F769I-Discovery/stm32f769i_discovery_qspi.c ****   s_command.NbData            = 1;
 1090              		.loc 1 841 31 is_stmt 0 view .LVU425
 1091 0064 0793     		str	r3, [sp, #28]
 842:Drivers/BSP/STM32F769I-Discovery/stm32f769i_discovery_qspi.c ****   s_command.DdrMode           = QSPI_DDR_MODE_DISABLE;
 1092              		.loc 1 842 3 is_stmt 1 view .LVU426
ARM GAS  /var/folders/n6/c271nzx11xl4r4_m7sqjlt0m0000gn/T//cc22wCrs.s 			page 46


 842:Drivers/BSP/STM32F769I-Discovery/stm32f769i_discovery_qspi.c ****   s_command.DdrMode           = QSPI_DDR_MODE_DISABLE;
 1093              		.loc 1 842 31 is_stmt 0 view .LVU427
 1094 0066 0122     		movs	r2, #1
 1095 0068 0C92     		str	r2, [sp, #48]
 843:Drivers/BSP/STM32F769I-Discovery/stm32f769i_discovery_qspi.c ****   s_command.DdrHoldHalfCycle  = QSPI_DDR_HHC_ANALOG_DELAY;
 1096              		.loc 1 843 3 is_stmt 1 view .LVU428
 843:Drivers/BSP/STM32F769I-Discovery/stm32f769i_discovery_qspi.c ****   s_command.DdrHoldHalfCycle  = QSPI_DDR_HHC_ANALOG_DELAY;
 1097              		.loc 1 843 31 is_stmt 0 view .LVU429
 1098 006a 0D93     		str	r3, [sp, #52]
 844:Drivers/BSP/STM32F769I-Discovery/stm32f769i_discovery_qspi.c ****   s_command.SIOOMode          = QSPI_SIOO_INST_EVERY_CMD;
 1099              		.loc 1 844 3 is_stmt 1 view .LVU430
 844:Drivers/BSP/STM32F769I-Discovery/stm32f769i_discovery_qspi.c ****   s_command.SIOOMode          = QSPI_SIOO_INST_EVERY_CMD;
 1100              		.loc 1 844 31 is_stmt 0 view .LVU431
 1101 006c 0E93     		str	r3, [sp, #56]
 845:Drivers/BSP/STM32F769I-Discovery/stm32f769i_discovery_qspi.c ****   
 1102              		.loc 1 845 3 is_stmt 1 view .LVU432
 845:Drivers/BSP/STM32F769I-Discovery/stm32f769i_discovery_qspi.c ****   
 1103              		.loc 1 845 31 is_stmt 0 view .LVU433
 1104 006e 0F93     		str	r3, [sp, #60]
 848:Drivers/BSP/STM32F769I-Discovery/stm32f769i_discovery_qspi.c ****   {
 1105              		.loc 1 848 3 is_stmt 1 view .LVU434
 848:Drivers/BSP/STM32F769I-Discovery/stm32f769i_discovery_qspi.c ****   {
 1106              		.loc 1 848 7 is_stmt 0 view .LVU435
 1107 0070 41F28832 		movw	r2, #5000
 1108 0074 02A9     		add	r1, sp, #8
 1109 0076 2046     		mov	r0, r4
 1110 0078 FFF7FEFF 		bl	HAL_QSPI_Command
 1111              	.LVL60:
 848:Drivers/BSP/STM32F769I-Discovery/stm32f769i_discovery_qspi.c ****   {
 1112              		.loc 1 848 6 discriminator 1 view .LVU436
 1113 007c 08B1     		cbz	r0, .L68
 850:Drivers/BSP/STM32F769I-Discovery/stm32f769i_discovery_qspi.c ****   }
 1114              		.loc 1 850 12 view .LVU437
 1115 007e 0124     		movs	r4, #1
 1116              	.LVL61:
 850:Drivers/BSP/STM32F769I-Discovery/stm32f769i_discovery_qspi.c ****   }
 1117              		.loc 1 850 12 view .LVU438
 1118 0080 D9E7     		b	.L57
 1119              	.LVL62:
 1120              	.L68:
 854:Drivers/BSP/STM32F769I-Discovery/stm32f769i_discovery_qspi.c ****   {
 1121              		.loc 1 854 3 is_stmt 1 view .LVU439
 854:Drivers/BSP/STM32F769I-Discovery/stm32f769i_discovery_qspi.c ****   {
 1122              		.loc 1 854 7 is_stmt 0 view .LVU440
 1123 0082 41F28832 		movw	r2, #5000
 1124 0086 0DF10501 		add	r1, sp, #5
 1125 008a 2046     		mov	r0, r4
 1126 008c FFF7FEFF 		bl	HAL_QSPI_Receive
 1127              	.LVL63:
 854:Drivers/BSP/STM32F769I-Discovery/stm32f769i_discovery_qspi.c ****   {
 1128              		.loc 1 854 6 discriminator 1 view .LVU441
 1129 0090 08B1     		cbz	r0, .L69
 856:Drivers/BSP/STM32F769I-Discovery/stm32f769i_discovery_qspi.c ****   }
 1130              		.loc 1 856 12 view .LVU442
 1131 0092 0124     		movs	r4, #1
 1132              	.LVL64:
 856:Drivers/BSP/STM32F769I-Discovery/stm32f769i_discovery_qspi.c ****   }
ARM GAS  /var/folders/n6/c271nzx11xl4r4_m7sqjlt0m0000gn/T//cc22wCrs.s 			page 47


 1133              		.loc 1 856 12 view .LVU443
 1134 0094 CFE7     		b	.L57
 1135              	.LVL65:
 1136              	.L69:
 860:Drivers/BSP/STM32F769I-Discovery/stm32f769i_discovery_qspi.c ****   {
 1137              		.loc 1 860 3 is_stmt 1 view .LVU444
 860:Drivers/BSP/STM32F769I-Discovery/stm32f769i_discovery_qspi.c ****   {
 1138              		.loc 1 860 7 is_stmt 0 view .LVU445
 1139 0096 2046     		mov	r0, r4
 1140 0098 FFF7FEFF 		bl	QSPI_WriteEnable
 1141              	.LVL66:
 860:Drivers/BSP/STM32F769I-Discovery/stm32f769i_discovery_qspi.c ****   {
 1142              		.loc 1 860 6 discriminator 1 view .LVU446
 1143 009c 08B1     		cbz	r0, .L70
 862:Drivers/BSP/STM32F769I-Discovery/stm32f769i_discovery_qspi.c ****   }
 1144              		.loc 1 862 12 view .LVU447
 1145 009e 0124     		movs	r4, #1
 1146              	.LVL67:
 862:Drivers/BSP/STM32F769I-Discovery/stm32f769i_discovery_qspi.c ****   }
 1147              		.loc 1 862 12 view .LVU448
 1148 00a0 C9E7     		b	.L57
 1149              	.LVL68:
 1150              	.L70:
 866:Drivers/BSP/STM32F769I-Discovery/stm32f769i_discovery_qspi.c ****   s_command.Instruction       = WRITE_STATUS_CFG_REG_CMD;
 1151              		.loc 1 866 3 is_stmt 1 view .LVU449
 866:Drivers/BSP/STM32F769I-Discovery/stm32f769i_discovery_qspi.c ****   s_command.Instruction       = WRITE_STATUS_CFG_REG_CMD;
 1152              		.loc 1 866 31 is_stmt 0 view .LVU450
 1153 00a2 4FF44073 		mov	r3, #768
 1154 00a6 0893     		str	r3, [sp, #32]
 867:Drivers/BSP/STM32F769I-Discovery/stm32f769i_discovery_qspi.c ****   s_command.AddressMode       = QSPI_ADDRESS_NONE;
 1155              		.loc 1 867 3 is_stmt 1 view .LVU451
 867:Drivers/BSP/STM32F769I-Discovery/stm32f769i_discovery_qspi.c ****   s_command.AddressMode       = QSPI_ADDRESS_NONE;
 1156              		.loc 1 867 31 is_stmt 0 view .LVU452
 1157 00a8 0123     		movs	r3, #1
 1158 00aa 0293     		str	r3, [sp, #8]
 868:Drivers/BSP/STM32F769I-Discovery/stm32f769i_discovery_qspi.c ****   s_command.AlternateByteMode = QSPI_ALTERNATE_BYTES_NONE;
 1159              		.loc 1 868 3 is_stmt 1 view .LVU453
 868:Drivers/BSP/STM32F769I-Discovery/stm32f769i_discovery_qspi.c ****   s_command.AlternateByteMode = QSPI_ALTERNATE_BYTES_NONE;
 1160              		.loc 1 868 31 is_stmt 0 view .LVU454
 1161 00ac 0023     		movs	r3, #0
 1162 00ae 0993     		str	r3, [sp, #36]
 869:Drivers/BSP/STM32F769I-Discovery/stm32f769i_discovery_qspi.c ****   s_command.DataMode          = QSPI_DATA_4_LINES;
 1163              		.loc 1 869 3 is_stmt 1 view .LVU455
 869:Drivers/BSP/STM32F769I-Discovery/stm32f769i_discovery_qspi.c ****   s_command.DataMode          = QSPI_DATA_4_LINES;
 1164              		.loc 1 869 31 is_stmt 0 view .LVU456
 1165 00b0 0A93     		str	r3, [sp, #40]
 870:Drivers/BSP/STM32F769I-Discovery/stm32f769i_discovery_qspi.c ****   s_command.DummyCycles       = 0;
 1166              		.loc 1 870 3 is_stmt 1 view .LVU457
 870:Drivers/BSP/STM32F769I-Discovery/stm32f769i_discovery_qspi.c ****   s_command.DummyCycles       = 0;
 1167              		.loc 1 870 31 is_stmt 0 view .LVU458
 1168 00b2 4FF04072 		mov	r2, #50331648
 1169 00b6 0B92     		str	r2, [sp, #44]
 871:Drivers/BSP/STM32F769I-Discovery/stm32f769i_discovery_qspi.c ****   s_command.NbData            = 2;
 1170              		.loc 1 871 3 is_stmt 1 view .LVU459
 871:Drivers/BSP/STM32F769I-Discovery/stm32f769i_discovery_qspi.c ****   s_command.NbData            = 2;
 1171              		.loc 1 871 31 is_stmt 0 view .LVU460
 1172 00b8 0793     		str	r3, [sp, #28]
ARM GAS  /var/folders/n6/c271nzx11xl4r4_m7sqjlt0m0000gn/T//cc22wCrs.s 			page 48


 872:Drivers/BSP/STM32F769I-Discovery/stm32f769i_discovery_qspi.c ****   s_command.DdrMode           = QSPI_DDR_MODE_DISABLE;
 1173              		.loc 1 872 3 is_stmt 1 view .LVU461
 872:Drivers/BSP/STM32F769I-Discovery/stm32f769i_discovery_qspi.c ****   s_command.DdrMode           = QSPI_DDR_MODE_DISABLE;
 1174              		.loc 1 872 31 is_stmt 0 view .LVU462
 1175 00ba 0222     		movs	r2, #2
 1176 00bc 0C92     		str	r2, [sp, #48]
 873:Drivers/BSP/STM32F769I-Discovery/stm32f769i_discovery_qspi.c ****   s_command.DdrHoldHalfCycle  = QSPI_DDR_HHC_ANALOG_DELAY;
 1177              		.loc 1 873 3 is_stmt 1 view .LVU463
 873:Drivers/BSP/STM32F769I-Discovery/stm32f769i_discovery_qspi.c ****   s_command.DdrHoldHalfCycle  = QSPI_DDR_HHC_ANALOG_DELAY;
 1178              		.loc 1 873 31 is_stmt 0 view .LVU464
 1179 00be 0D93     		str	r3, [sp, #52]
 874:Drivers/BSP/STM32F769I-Discovery/stm32f769i_discovery_qspi.c ****   s_command.SIOOMode          = QSPI_SIOO_INST_EVERY_CMD;
 1180              		.loc 1 874 3 is_stmt 1 view .LVU465
 874:Drivers/BSP/STM32F769I-Discovery/stm32f769i_discovery_qspi.c ****   s_command.SIOOMode          = QSPI_SIOO_INST_EVERY_CMD;
 1181              		.loc 1 874 31 is_stmt 0 view .LVU466
 1182 00c0 0E93     		str	r3, [sp, #56]
 875:Drivers/BSP/STM32F769I-Discovery/stm32f769i_discovery_qspi.c ****   
 1183              		.loc 1 875 3 is_stmt 1 view .LVU467
 875:Drivers/BSP/STM32F769I-Discovery/stm32f769i_discovery_qspi.c ****   
 1184              		.loc 1 875 31 is_stmt 0 view .LVU468
 1185 00c2 0F93     		str	r3, [sp, #60]
 878:Drivers/BSP/STM32F769I-Discovery/stm32f769i_discovery_qspi.c ****   
 1186              		.loc 1 878 3 is_stmt 1 view .LVU469
 1187 00c4 9DF80530 		ldrb	r3, [sp, #5]	@ zero_extendqisi2
 1188              	.LVL69:
 1189              	.LBB8:
 1190              	.LBI8:
 1191              		.file 2 "Drivers/CMSIS/Include/cmsis_gcc.h"
   1:Drivers/CMSIS/Include/cmsis_gcc.h **** /**************************************************************************//**
   2:Drivers/CMSIS/Include/cmsis_gcc.h ****  * @file     cmsis_gcc.h
   3:Drivers/CMSIS/Include/cmsis_gcc.h ****  * @brief    CMSIS compiler GCC header file
   4:Drivers/CMSIS/Include/cmsis_gcc.h ****  * @version  V5.0.4
   5:Drivers/CMSIS/Include/cmsis_gcc.h ****  * @date     09. April 2018
   6:Drivers/CMSIS/Include/cmsis_gcc.h ****  ******************************************************************************/
   7:Drivers/CMSIS/Include/cmsis_gcc.h **** /*
   8:Drivers/CMSIS/Include/cmsis_gcc.h ****  * Copyright (c) 2009-2018 Arm Limited. All rights reserved.
   9:Drivers/CMSIS/Include/cmsis_gcc.h ****  *
  10:Drivers/CMSIS/Include/cmsis_gcc.h ****  * SPDX-License-Identifier: Apache-2.0
  11:Drivers/CMSIS/Include/cmsis_gcc.h ****  *
  12:Drivers/CMSIS/Include/cmsis_gcc.h ****  * Licensed under the Apache License, Version 2.0 (the License); you may
  13:Drivers/CMSIS/Include/cmsis_gcc.h ****  * not use this file except in compliance with the License.
  14:Drivers/CMSIS/Include/cmsis_gcc.h ****  * You may obtain a copy of the License at
  15:Drivers/CMSIS/Include/cmsis_gcc.h ****  *
  16:Drivers/CMSIS/Include/cmsis_gcc.h ****  * www.apache.org/licenses/LICENSE-2.0
  17:Drivers/CMSIS/Include/cmsis_gcc.h ****  *
  18:Drivers/CMSIS/Include/cmsis_gcc.h ****  * Unless required by applicable law or agreed to in writing, software
  19:Drivers/CMSIS/Include/cmsis_gcc.h ****  * distributed under the License is distributed on an AS IS BASIS, WITHOUT
  20:Drivers/CMSIS/Include/cmsis_gcc.h ****  * WARRANTIES OR CONDITIONS OF ANY KIND, either express or implied.
  21:Drivers/CMSIS/Include/cmsis_gcc.h ****  * See the License for the specific language governing permissions and
  22:Drivers/CMSIS/Include/cmsis_gcc.h ****  * limitations under the License.
  23:Drivers/CMSIS/Include/cmsis_gcc.h ****  */
  24:Drivers/CMSIS/Include/cmsis_gcc.h **** 
  25:Drivers/CMSIS/Include/cmsis_gcc.h **** #ifndef __CMSIS_GCC_H
  26:Drivers/CMSIS/Include/cmsis_gcc.h **** #define __CMSIS_GCC_H
  27:Drivers/CMSIS/Include/cmsis_gcc.h **** 
  28:Drivers/CMSIS/Include/cmsis_gcc.h **** /* ignore some GCC warnings */
  29:Drivers/CMSIS/Include/cmsis_gcc.h **** #pragma GCC diagnostic push
ARM GAS  /var/folders/n6/c271nzx11xl4r4_m7sqjlt0m0000gn/T//cc22wCrs.s 			page 49


  30:Drivers/CMSIS/Include/cmsis_gcc.h **** #pragma GCC diagnostic ignored "-Wsign-conversion"
  31:Drivers/CMSIS/Include/cmsis_gcc.h **** #pragma GCC diagnostic ignored "-Wconversion"
  32:Drivers/CMSIS/Include/cmsis_gcc.h **** #pragma GCC diagnostic ignored "-Wunused-parameter"
  33:Drivers/CMSIS/Include/cmsis_gcc.h **** 
  34:Drivers/CMSIS/Include/cmsis_gcc.h **** /* Fallback for __has_builtin */
  35:Drivers/CMSIS/Include/cmsis_gcc.h **** #ifndef __has_builtin
  36:Drivers/CMSIS/Include/cmsis_gcc.h ****   #define __has_builtin(x) (0)
  37:Drivers/CMSIS/Include/cmsis_gcc.h **** #endif
  38:Drivers/CMSIS/Include/cmsis_gcc.h **** 
  39:Drivers/CMSIS/Include/cmsis_gcc.h **** /* CMSIS compiler specific defines */
  40:Drivers/CMSIS/Include/cmsis_gcc.h **** #ifndef   __ASM
  41:Drivers/CMSIS/Include/cmsis_gcc.h ****   #define __ASM                                  __asm
  42:Drivers/CMSIS/Include/cmsis_gcc.h **** #endif
  43:Drivers/CMSIS/Include/cmsis_gcc.h **** #ifndef   __INLINE
  44:Drivers/CMSIS/Include/cmsis_gcc.h ****   #define __INLINE                               inline
  45:Drivers/CMSIS/Include/cmsis_gcc.h **** #endif
  46:Drivers/CMSIS/Include/cmsis_gcc.h **** #ifndef   __STATIC_INLINE
  47:Drivers/CMSIS/Include/cmsis_gcc.h ****   #define __STATIC_INLINE                        static inline
  48:Drivers/CMSIS/Include/cmsis_gcc.h **** #endif
  49:Drivers/CMSIS/Include/cmsis_gcc.h **** #ifndef   __STATIC_FORCEINLINE                 
  50:Drivers/CMSIS/Include/cmsis_gcc.h ****   #define __STATIC_FORCEINLINE                   __attribute__((always_inline)) static inline
  51:Drivers/CMSIS/Include/cmsis_gcc.h **** #endif                                           
  52:Drivers/CMSIS/Include/cmsis_gcc.h **** #ifndef   __NO_RETURN
  53:Drivers/CMSIS/Include/cmsis_gcc.h ****   #define __NO_RETURN                            __attribute__((__noreturn__))
  54:Drivers/CMSIS/Include/cmsis_gcc.h **** #endif
  55:Drivers/CMSIS/Include/cmsis_gcc.h **** #ifndef   __USED
  56:Drivers/CMSIS/Include/cmsis_gcc.h ****   #define __USED                                 __attribute__((used))
  57:Drivers/CMSIS/Include/cmsis_gcc.h **** #endif
  58:Drivers/CMSIS/Include/cmsis_gcc.h **** #ifndef   __WEAK
  59:Drivers/CMSIS/Include/cmsis_gcc.h ****   #define __WEAK                                 __attribute__((weak))
  60:Drivers/CMSIS/Include/cmsis_gcc.h **** #endif
  61:Drivers/CMSIS/Include/cmsis_gcc.h **** #ifndef   __PACKED
  62:Drivers/CMSIS/Include/cmsis_gcc.h ****   #define __PACKED                               __attribute__((packed, aligned(1)))
  63:Drivers/CMSIS/Include/cmsis_gcc.h **** #endif
  64:Drivers/CMSIS/Include/cmsis_gcc.h **** #ifndef   __PACKED_STRUCT
  65:Drivers/CMSIS/Include/cmsis_gcc.h ****   #define __PACKED_STRUCT                        struct __attribute__((packed, aligned(1)))
  66:Drivers/CMSIS/Include/cmsis_gcc.h **** #endif
  67:Drivers/CMSIS/Include/cmsis_gcc.h **** #ifndef   __PACKED_UNION
  68:Drivers/CMSIS/Include/cmsis_gcc.h ****   #define __PACKED_UNION                         union __attribute__((packed, aligned(1)))
  69:Drivers/CMSIS/Include/cmsis_gcc.h **** #endif
  70:Drivers/CMSIS/Include/cmsis_gcc.h **** #ifndef   __UNALIGNED_UINT32        /* deprecated */
  71:Drivers/CMSIS/Include/cmsis_gcc.h ****   #pragma GCC diagnostic push
  72:Drivers/CMSIS/Include/cmsis_gcc.h ****   #pragma GCC diagnostic ignored "-Wpacked"
  73:Drivers/CMSIS/Include/cmsis_gcc.h ****   #pragma GCC diagnostic ignored "-Wattributes"
  74:Drivers/CMSIS/Include/cmsis_gcc.h ****   struct __attribute__((packed)) T_UINT32 { uint32_t v; };
  75:Drivers/CMSIS/Include/cmsis_gcc.h ****   #pragma GCC diagnostic pop
  76:Drivers/CMSIS/Include/cmsis_gcc.h ****   #define __UNALIGNED_UINT32(x)                  (((struct T_UINT32 *)(x))->v)
  77:Drivers/CMSIS/Include/cmsis_gcc.h **** #endif
  78:Drivers/CMSIS/Include/cmsis_gcc.h **** #ifndef   __UNALIGNED_UINT16_WRITE
  79:Drivers/CMSIS/Include/cmsis_gcc.h ****   #pragma GCC diagnostic push
  80:Drivers/CMSIS/Include/cmsis_gcc.h ****   #pragma GCC diagnostic ignored "-Wpacked"
  81:Drivers/CMSIS/Include/cmsis_gcc.h ****   #pragma GCC diagnostic ignored "-Wattributes"
  82:Drivers/CMSIS/Include/cmsis_gcc.h ****   __PACKED_STRUCT T_UINT16_WRITE { uint16_t v; };
  83:Drivers/CMSIS/Include/cmsis_gcc.h ****   #pragma GCC diagnostic pop
  84:Drivers/CMSIS/Include/cmsis_gcc.h ****   #define __UNALIGNED_UINT16_WRITE(addr, val)    (void)((((struct T_UINT16_WRITE *)(void *)(addr))-
  85:Drivers/CMSIS/Include/cmsis_gcc.h **** #endif
  86:Drivers/CMSIS/Include/cmsis_gcc.h **** #ifndef   __UNALIGNED_UINT16_READ
ARM GAS  /var/folders/n6/c271nzx11xl4r4_m7sqjlt0m0000gn/T//cc22wCrs.s 			page 50


  87:Drivers/CMSIS/Include/cmsis_gcc.h ****   #pragma GCC diagnostic push
  88:Drivers/CMSIS/Include/cmsis_gcc.h ****   #pragma GCC diagnostic ignored "-Wpacked"
  89:Drivers/CMSIS/Include/cmsis_gcc.h ****   #pragma GCC diagnostic ignored "-Wattributes"
  90:Drivers/CMSIS/Include/cmsis_gcc.h ****   __PACKED_STRUCT T_UINT16_READ { uint16_t v; };
  91:Drivers/CMSIS/Include/cmsis_gcc.h ****   #pragma GCC diagnostic pop
  92:Drivers/CMSIS/Include/cmsis_gcc.h ****   #define __UNALIGNED_UINT16_READ(addr)          (((const struct T_UINT16_READ *)(const void *)(add
  93:Drivers/CMSIS/Include/cmsis_gcc.h **** #endif
  94:Drivers/CMSIS/Include/cmsis_gcc.h **** #ifndef   __UNALIGNED_UINT32_WRITE
  95:Drivers/CMSIS/Include/cmsis_gcc.h ****   #pragma GCC diagnostic push
  96:Drivers/CMSIS/Include/cmsis_gcc.h ****   #pragma GCC diagnostic ignored "-Wpacked"
  97:Drivers/CMSIS/Include/cmsis_gcc.h ****   #pragma GCC diagnostic ignored "-Wattributes"
  98:Drivers/CMSIS/Include/cmsis_gcc.h ****   __PACKED_STRUCT T_UINT32_WRITE { uint32_t v; };
  99:Drivers/CMSIS/Include/cmsis_gcc.h ****   #pragma GCC diagnostic pop
 100:Drivers/CMSIS/Include/cmsis_gcc.h ****   #define __UNALIGNED_UINT32_WRITE(addr, val)    (void)((((struct T_UINT32_WRITE *)(void *)(addr))-
 101:Drivers/CMSIS/Include/cmsis_gcc.h **** #endif
 102:Drivers/CMSIS/Include/cmsis_gcc.h **** #ifndef   __UNALIGNED_UINT32_READ
 103:Drivers/CMSIS/Include/cmsis_gcc.h ****   #pragma GCC diagnostic push
 104:Drivers/CMSIS/Include/cmsis_gcc.h ****   #pragma GCC diagnostic ignored "-Wpacked"
 105:Drivers/CMSIS/Include/cmsis_gcc.h ****   #pragma GCC diagnostic ignored "-Wattributes"
 106:Drivers/CMSIS/Include/cmsis_gcc.h ****   __PACKED_STRUCT T_UINT32_READ { uint32_t v; };
 107:Drivers/CMSIS/Include/cmsis_gcc.h ****   #pragma GCC diagnostic pop
 108:Drivers/CMSIS/Include/cmsis_gcc.h ****   #define __UNALIGNED_UINT32_READ(addr)          (((const struct T_UINT32_READ *)(const void *)(add
 109:Drivers/CMSIS/Include/cmsis_gcc.h **** #endif
 110:Drivers/CMSIS/Include/cmsis_gcc.h **** #ifndef   __ALIGNED
 111:Drivers/CMSIS/Include/cmsis_gcc.h ****   #define __ALIGNED(x)                           __attribute__((aligned(x)))
 112:Drivers/CMSIS/Include/cmsis_gcc.h **** #endif
 113:Drivers/CMSIS/Include/cmsis_gcc.h **** #ifndef   __RESTRICT
 114:Drivers/CMSIS/Include/cmsis_gcc.h ****   #define __RESTRICT                             __restrict
 115:Drivers/CMSIS/Include/cmsis_gcc.h **** #endif
 116:Drivers/CMSIS/Include/cmsis_gcc.h **** 
 117:Drivers/CMSIS/Include/cmsis_gcc.h **** 
 118:Drivers/CMSIS/Include/cmsis_gcc.h **** /* ###########################  Core Function Access  ########################### */
 119:Drivers/CMSIS/Include/cmsis_gcc.h **** /** \ingroup  CMSIS_Core_FunctionInterface
 120:Drivers/CMSIS/Include/cmsis_gcc.h ****     \defgroup CMSIS_Core_RegAccFunctions CMSIS Core Register Access Functions
 121:Drivers/CMSIS/Include/cmsis_gcc.h ****   @{
 122:Drivers/CMSIS/Include/cmsis_gcc.h ****  */
 123:Drivers/CMSIS/Include/cmsis_gcc.h **** 
 124:Drivers/CMSIS/Include/cmsis_gcc.h **** /**
 125:Drivers/CMSIS/Include/cmsis_gcc.h ****   \brief   Enable IRQ Interrupts
 126:Drivers/CMSIS/Include/cmsis_gcc.h ****   \details Enables IRQ interrupts by clearing the I-bit in the CPSR.
 127:Drivers/CMSIS/Include/cmsis_gcc.h ****            Can only be executed in Privileged modes.
 128:Drivers/CMSIS/Include/cmsis_gcc.h ****  */
 129:Drivers/CMSIS/Include/cmsis_gcc.h **** __STATIC_FORCEINLINE void __enable_irq(void)
 130:Drivers/CMSIS/Include/cmsis_gcc.h **** {
 131:Drivers/CMSIS/Include/cmsis_gcc.h ****   __ASM volatile ("cpsie i" : : : "memory");
 132:Drivers/CMSIS/Include/cmsis_gcc.h **** }
 133:Drivers/CMSIS/Include/cmsis_gcc.h **** 
 134:Drivers/CMSIS/Include/cmsis_gcc.h **** 
 135:Drivers/CMSIS/Include/cmsis_gcc.h **** /**
 136:Drivers/CMSIS/Include/cmsis_gcc.h ****   \brief   Disable IRQ Interrupts
 137:Drivers/CMSIS/Include/cmsis_gcc.h ****   \details Disables IRQ interrupts by setting the I-bit in the CPSR.
 138:Drivers/CMSIS/Include/cmsis_gcc.h ****            Can only be executed in Privileged modes.
 139:Drivers/CMSIS/Include/cmsis_gcc.h ****  */
 140:Drivers/CMSIS/Include/cmsis_gcc.h **** __STATIC_FORCEINLINE void __disable_irq(void)
 141:Drivers/CMSIS/Include/cmsis_gcc.h **** {
 142:Drivers/CMSIS/Include/cmsis_gcc.h ****   __ASM volatile ("cpsid i" : : : "memory");
 143:Drivers/CMSIS/Include/cmsis_gcc.h **** }
ARM GAS  /var/folders/n6/c271nzx11xl4r4_m7sqjlt0m0000gn/T//cc22wCrs.s 			page 51


 144:Drivers/CMSIS/Include/cmsis_gcc.h **** 
 145:Drivers/CMSIS/Include/cmsis_gcc.h **** 
 146:Drivers/CMSIS/Include/cmsis_gcc.h **** /**
 147:Drivers/CMSIS/Include/cmsis_gcc.h ****   \brief   Get Control Register
 148:Drivers/CMSIS/Include/cmsis_gcc.h ****   \details Returns the content of the Control Register.
 149:Drivers/CMSIS/Include/cmsis_gcc.h ****   \return               Control Register value
 150:Drivers/CMSIS/Include/cmsis_gcc.h ****  */
 151:Drivers/CMSIS/Include/cmsis_gcc.h **** __STATIC_FORCEINLINE uint32_t __get_CONTROL(void)
 152:Drivers/CMSIS/Include/cmsis_gcc.h **** {
 153:Drivers/CMSIS/Include/cmsis_gcc.h ****   uint32_t result;
 154:Drivers/CMSIS/Include/cmsis_gcc.h **** 
 155:Drivers/CMSIS/Include/cmsis_gcc.h ****   __ASM volatile ("MRS %0, control" : "=r" (result) );
 156:Drivers/CMSIS/Include/cmsis_gcc.h ****   return(result);
 157:Drivers/CMSIS/Include/cmsis_gcc.h **** }
 158:Drivers/CMSIS/Include/cmsis_gcc.h **** 
 159:Drivers/CMSIS/Include/cmsis_gcc.h **** 
 160:Drivers/CMSIS/Include/cmsis_gcc.h **** #if (defined (__ARM_FEATURE_CMSE ) && (__ARM_FEATURE_CMSE == 3))
 161:Drivers/CMSIS/Include/cmsis_gcc.h **** /**
 162:Drivers/CMSIS/Include/cmsis_gcc.h ****   \brief   Get Control Register (non-secure)
 163:Drivers/CMSIS/Include/cmsis_gcc.h ****   \details Returns the content of the non-secure Control Register when in secure mode.
 164:Drivers/CMSIS/Include/cmsis_gcc.h ****   \return               non-secure Control Register value
 165:Drivers/CMSIS/Include/cmsis_gcc.h ****  */
 166:Drivers/CMSIS/Include/cmsis_gcc.h **** __STATIC_FORCEINLINE uint32_t __TZ_get_CONTROL_NS(void)
 167:Drivers/CMSIS/Include/cmsis_gcc.h **** {
 168:Drivers/CMSIS/Include/cmsis_gcc.h ****   uint32_t result;
 169:Drivers/CMSIS/Include/cmsis_gcc.h **** 
 170:Drivers/CMSIS/Include/cmsis_gcc.h ****   __ASM volatile ("MRS %0, control_ns" : "=r" (result) );
 171:Drivers/CMSIS/Include/cmsis_gcc.h ****   return(result);
 172:Drivers/CMSIS/Include/cmsis_gcc.h **** }
 173:Drivers/CMSIS/Include/cmsis_gcc.h **** #endif
 174:Drivers/CMSIS/Include/cmsis_gcc.h **** 
 175:Drivers/CMSIS/Include/cmsis_gcc.h **** 
 176:Drivers/CMSIS/Include/cmsis_gcc.h **** /**
 177:Drivers/CMSIS/Include/cmsis_gcc.h ****   \brief   Set Control Register
 178:Drivers/CMSIS/Include/cmsis_gcc.h ****   \details Writes the given value to the Control Register.
 179:Drivers/CMSIS/Include/cmsis_gcc.h ****   \param [in]    control  Control Register value to set
 180:Drivers/CMSIS/Include/cmsis_gcc.h ****  */
 181:Drivers/CMSIS/Include/cmsis_gcc.h **** __STATIC_FORCEINLINE void __set_CONTROL(uint32_t control)
 182:Drivers/CMSIS/Include/cmsis_gcc.h **** {
 183:Drivers/CMSIS/Include/cmsis_gcc.h ****   __ASM volatile ("MSR control, %0" : : "r" (control) : "memory");
 184:Drivers/CMSIS/Include/cmsis_gcc.h **** }
 185:Drivers/CMSIS/Include/cmsis_gcc.h **** 
 186:Drivers/CMSIS/Include/cmsis_gcc.h **** 
 187:Drivers/CMSIS/Include/cmsis_gcc.h **** #if (defined (__ARM_FEATURE_CMSE ) && (__ARM_FEATURE_CMSE == 3))
 188:Drivers/CMSIS/Include/cmsis_gcc.h **** /**
 189:Drivers/CMSIS/Include/cmsis_gcc.h ****   \brief   Set Control Register (non-secure)
 190:Drivers/CMSIS/Include/cmsis_gcc.h ****   \details Writes the given value to the non-secure Control Register when in secure state.
 191:Drivers/CMSIS/Include/cmsis_gcc.h ****   \param [in]    control  Control Register value to set
 192:Drivers/CMSIS/Include/cmsis_gcc.h ****  */
 193:Drivers/CMSIS/Include/cmsis_gcc.h **** __STATIC_FORCEINLINE void __TZ_set_CONTROL_NS(uint32_t control)
 194:Drivers/CMSIS/Include/cmsis_gcc.h **** {
 195:Drivers/CMSIS/Include/cmsis_gcc.h ****   __ASM volatile ("MSR control_ns, %0" : : "r" (control) : "memory");
 196:Drivers/CMSIS/Include/cmsis_gcc.h **** }
 197:Drivers/CMSIS/Include/cmsis_gcc.h **** #endif
 198:Drivers/CMSIS/Include/cmsis_gcc.h **** 
 199:Drivers/CMSIS/Include/cmsis_gcc.h **** 
 200:Drivers/CMSIS/Include/cmsis_gcc.h **** /**
ARM GAS  /var/folders/n6/c271nzx11xl4r4_m7sqjlt0m0000gn/T//cc22wCrs.s 			page 52


 201:Drivers/CMSIS/Include/cmsis_gcc.h ****   \brief   Get IPSR Register
 202:Drivers/CMSIS/Include/cmsis_gcc.h ****   \details Returns the content of the IPSR Register.
 203:Drivers/CMSIS/Include/cmsis_gcc.h ****   \return               IPSR Register value
 204:Drivers/CMSIS/Include/cmsis_gcc.h ****  */
 205:Drivers/CMSIS/Include/cmsis_gcc.h **** __STATIC_FORCEINLINE uint32_t __get_IPSR(void)
 206:Drivers/CMSIS/Include/cmsis_gcc.h **** {
 207:Drivers/CMSIS/Include/cmsis_gcc.h ****   uint32_t result;
 208:Drivers/CMSIS/Include/cmsis_gcc.h **** 
 209:Drivers/CMSIS/Include/cmsis_gcc.h ****   __ASM volatile ("MRS %0, ipsr" : "=r" (result) );
 210:Drivers/CMSIS/Include/cmsis_gcc.h ****   return(result);
 211:Drivers/CMSIS/Include/cmsis_gcc.h **** }
 212:Drivers/CMSIS/Include/cmsis_gcc.h **** 
 213:Drivers/CMSIS/Include/cmsis_gcc.h **** 
 214:Drivers/CMSIS/Include/cmsis_gcc.h **** /**
 215:Drivers/CMSIS/Include/cmsis_gcc.h ****   \brief   Get APSR Register
 216:Drivers/CMSIS/Include/cmsis_gcc.h ****   \details Returns the content of the APSR Register.
 217:Drivers/CMSIS/Include/cmsis_gcc.h ****   \return               APSR Register value
 218:Drivers/CMSIS/Include/cmsis_gcc.h ****  */
 219:Drivers/CMSIS/Include/cmsis_gcc.h **** __STATIC_FORCEINLINE uint32_t __get_APSR(void)
 220:Drivers/CMSIS/Include/cmsis_gcc.h **** {
 221:Drivers/CMSIS/Include/cmsis_gcc.h ****   uint32_t result;
 222:Drivers/CMSIS/Include/cmsis_gcc.h **** 
 223:Drivers/CMSIS/Include/cmsis_gcc.h ****   __ASM volatile ("MRS %0, apsr" : "=r" (result) );
 224:Drivers/CMSIS/Include/cmsis_gcc.h ****   return(result);
 225:Drivers/CMSIS/Include/cmsis_gcc.h **** }
 226:Drivers/CMSIS/Include/cmsis_gcc.h **** 
 227:Drivers/CMSIS/Include/cmsis_gcc.h **** 
 228:Drivers/CMSIS/Include/cmsis_gcc.h **** /**
 229:Drivers/CMSIS/Include/cmsis_gcc.h ****   \brief   Get xPSR Register
 230:Drivers/CMSIS/Include/cmsis_gcc.h ****   \details Returns the content of the xPSR Register.
 231:Drivers/CMSIS/Include/cmsis_gcc.h ****   \return               xPSR Register value
 232:Drivers/CMSIS/Include/cmsis_gcc.h ****  */
 233:Drivers/CMSIS/Include/cmsis_gcc.h **** __STATIC_FORCEINLINE uint32_t __get_xPSR(void)
 234:Drivers/CMSIS/Include/cmsis_gcc.h **** {
 235:Drivers/CMSIS/Include/cmsis_gcc.h ****   uint32_t result;
 236:Drivers/CMSIS/Include/cmsis_gcc.h **** 
 237:Drivers/CMSIS/Include/cmsis_gcc.h ****   __ASM volatile ("MRS %0, xpsr" : "=r" (result) );
 238:Drivers/CMSIS/Include/cmsis_gcc.h ****   return(result);
 239:Drivers/CMSIS/Include/cmsis_gcc.h **** }
 240:Drivers/CMSIS/Include/cmsis_gcc.h **** 
 241:Drivers/CMSIS/Include/cmsis_gcc.h **** 
 242:Drivers/CMSIS/Include/cmsis_gcc.h **** /**
 243:Drivers/CMSIS/Include/cmsis_gcc.h ****   \brief   Get Process Stack Pointer
 244:Drivers/CMSIS/Include/cmsis_gcc.h ****   \details Returns the current value of the Process Stack Pointer (PSP).
 245:Drivers/CMSIS/Include/cmsis_gcc.h ****   \return               PSP Register value
 246:Drivers/CMSIS/Include/cmsis_gcc.h ****  */
 247:Drivers/CMSIS/Include/cmsis_gcc.h **** __STATIC_FORCEINLINE uint32_t __get_PSP(void)
 248:Drivers/CMSIS/Include/cmsis_gcc.h **** {
 249:Drivers/CMSIS/Include/cmsis_gcc.h ****   uint32_t result;
 250:Drivers/CMSIS/Include/cmsis_gcc.h **** 
 251:Drivers/CMSIS/Include/cmsis_gcc.h ****   __ASM volatile ("MRS %0, psp"  : "=r" (result) );
 252:Drivers/CMSIS/Include/cmsis_gcc.h ****   return(result);
 253:Drivers/CMSIS/Include/cmsis_gcc.h **** }
 254:Drivers/CMSIS/Include/cmsis_gcc.h **** 
 255:Drivers/CMSIS/Include/cmsis_gcc.h **** 
 256:Drivers/CMSIS/Include/cmsis_gcc.h **** #if (defined (__ARM_FEATURE_CMSE ) && (__ARM_FEATURE_CMSE == 3))
 257:Drivers/CMSIS/Include/cmsis_gcc.h **** /**
ARM GAS  /var/folders/n6/c271nzx11xl4r4_m7sqjlt0m0000gn/T//cc22wCrs.s 			page 53


 258:Drivers/CMSIS/Include/cmsis_gcc.h ****   \brief   Get Process Stack Pointer (non-secure)
 259:Drivers/CMSIS/Include/cmsis_gcc.h ****   \details Returns the current value of the non-secure Process Stack Pointer (PSP) when in secure s
 260:Drivers/CMSIS/Include/cmsis_gcc.h ****   \return               PSP Register value
 261:Drivers/CMSIS/Include/cmsis_gcc.h ****  */
 262:Drivers/CMSIS/Include/cmsis_gcc.h **** __STATIC_FORCEINLINE uint32_t __TZ_get_PSP_NS(void)
 263:Drivers/CMSIS/Include/cmsis_gcc.h **** {
 264:Drivers/CMSIS/Include/cmsis_gcc.h ****   uint32_t result;
 265:Drivers/CMSIS/Include/cmsis_gcc.h **** 
 266:Drivers/CMSIS/Include/cmsis_gcc.h ****   __ASM volatile ("MRS %0, psp_ns"  : "=r" (result) );
 267:Drivers/CMSIS/Include/cmsis_gcc.h ****   return(result);
 268:Drivers/CMSIS/Include/cmsis_gcc.h **** }
 269:Drivers/CMSIS/Include/cmsis_gcc.h **** #endif
 270:Drivers/CMSIS/Include/cmsis_gcc.h **** 
 271:Drivers/CMSIS/Include/cmsis_gcc.h **** 
 272:Drivers/CMSIS/Include/cmsis_gcc.h **** /**
 273:Drivers/CMSIS/Include/cmsis_gcc.h ****   \brief   Set Process Stack Pointer
 274:Drivers/CMSIS/Include/cmsis_gcc.h ****   \details Assigns the given value to the Process Stack Pointer (PSP).
 275:Drivers/CMSIS/Include/cmsis_gcc.h ****   \param [in]    topOfProcStack  Process Stack Pointer value to set
 276:Drivers/CMSIS/Include/cmsis_gcc.h ****  */
 277:Drivers/CMSIS/Include/cmsis_gcc.h **** __STATIC_FORCEINLINE void __set_PSP(uint32_t topOfProcStack)
 278:Drivers/CMSIS/Include/cmsis_gcc.h **** {
 279:Drivers/CMSIS/Include/cmsis_gcc.h ****   __ASM volatile ("MSR psp, %0" : : "r" (topOfProcStack) : );
 280:Drivers/CMSIS/Include/cmsis_gcc.h **** }
 281:Drivers/CMSIS/Include/cmsis_gcc.h **** 
 282:Drivers/CMSIS/Include/cmsis_gcc.h **** 
 283:Drivers/CMSIS/Include/cmsis_gcc.h **** #if (defined (__ARM_FEATURE_CMSE ) && (__ARM_FEATURE_CMSE == 3))
 284:Drivers/CMSIS/Include/cmsis_gcc.h **** /**
 285:Drivers/CMSIS/Include/cmsis_gcc.h ****   \brief   Set Process Stack Pointer (non-secure)
 286:Drivers/CMSIS/Include/cmsis_gcc.h ****   \details Assigns the given value to the non-secure Process Stack Pointer (PSP) when in secure sta
 287:Drivers/CMSIS/Include/cmsis_gcc.h ****   \param [in]    topOfProcStack  Process Stack Pointer value to set
 288:Drivers/CMSIS/Include/cmsis_gcc.h ****  */
 289:Drivers/CMSIS/Include/cmsis_gcc.h **** __STATIC_FORCEINLINE void __TZ_set_PSP_NS(uint32_t topOfProcStack)
 290:Drivers/CMSIS/Include/cmsis_gcc.h **** {
 291:Drivers/CMSIS/Include/cmsis_gcc.h ****   __ASM volatile ("MSR psp_ns, %0" : : "r" (topOfProcStack) : );
 292:Drivers/CMSIS/Include/cmsis_gcc.h **** }
 293:Drivers/CMSIS/Include/cmsis_gcc.h **** #endif
 294:Drivers/CMSIS/Include/cmsis_gcc.h **** 
 295:Drivers/CMSIS/Include/cmsis_gcc.h **** 
 296:Drivers/CMSIS/Include/cmsis_gcc.h **** /**
 297:Drivers/CMSIS/Include/cmsis_gcc.h ****   \brief   Get Main Stack Pointer
 298:Drivers/CMSIS/Include/cmsis_gcc.h ****   \details Returns the current value of the Main Stack Pointer (MSP).
 299:Drivers/CMSIS/Include/cmsis_gcc.h ****   \return               MSP Register value
 300:Drivers/CMSIS/Include/cmsis_gcc.h ****  */
 301:Drivers/CMSIS/Include/cmsis_gcc.h **** __STATIC_FORCEINLINE uint32_t __get_MSP(void)
 302:Drivers/CMSIS/Include/cmsis_gcc.h **** {
 303:Drivers/CMSIS/Include/cmsis_gcc.h ****   uint32_t result;
 304:Drivers/CMSIS/Include/cmsis_gcc.h **** 
 305:Drivers/CMSIS/Include/cmsis_gcc.h ****   __ASM volatile ("MRS %0, msp" : "=r" (result) );
 306:Drivers/CMSIS/Include/cmsis_gcc.h ****   return(result);
 307:Drivers/CMSIS/Include/cmsis_gcc.h **** }
 308:Drivers/CMSIS/Include/cmsis_gcc.h **** 
 309:Drivers/CMSIS/Include/cmsis_gcc.h **** 
 310:Drivers/CMSIS/Include/cmsis_gcc.h **** #if (defined (__ARM_FEATURE_CMSE ) && (__ARM_FEATURE_CMSE == 3))
 311:Drivers/CMSIS/Include/cmsis_gcc.h **** /**
 312:Drivers/CMSIS/Include/cmsis_gcc.h ****   \brief   Get Main Stack Pointer (non-secure)
 313:Drivers/CMSIS/Include/cmsis_gcc.h ****   \details Returns the current value of the non-secure Main Stack Pointer (MSP) when in secure stat
 314:Drivers/CMSIS/Include/cmsis_gcc.h ****   \return               MSP Register value
ARM GAS  /var/folders/n6/c271nzx11xl4r4_m7sqjlt0m0000gn/T//cc22wCrs.s 			page 54


 315:Drivers/CMSIS/Include/cmsis_gcc.h ****  */
 316:Drivers/CMSIS/Include/cmsis_gcc.h **** __STATIC_FORCEINLINE uint32_t __TZ_get_MSP_NS(void)
 317:Drivers/CMSIS/Include/cmsis_gcc.h **** {
 318:Drivers/CMSIS/Include/cmsis_gcc.h ****   uint32_t result;
 319:Drivers/CMSIS/Include/cmsis_gcc.h **** 
 320:Drivers/CMSIS/Include/cmsis_gcc.h ****   __ASM volatile ("MRS %0, msp_ns" : "=r" (result) );
 321:Drivers/CMSIS/Include/cmsis_gcc.h ****   return(result);
 322:Drivers/CMSIS/Include/cmsis_gcc.h **** }
 323:Drivers/CMSIS/Include/cmsis_gcc.h **** #endif
 324:Drivers/CMSIS/Include/cmsis_gcc.h **** 
 325:Drivers/CMSIS/Include/cmsis_gcc.h **** 
 326:Drivers/CMSIS/Include/cmsis_gcc.h **** /**
 327:Drivers/CMSIS/Include/cmsis_gcc.h ****   \brief   Set Main Stack Pointer
 328:Drivers/CMSIS/Include/cmsis_gcc.h ****   \details Assigns the given value to the Main Stack Pointer (MSP).
 329:Drivers/CMSIS/Include/cmsis_gcc.h ****   \param [in]    topOfMainStack  Main Stack Pointer value to set
 330:Drivers/CMSIS/Include/cmsis_gcc.h ****  */
 331:Drivers/CMSIS/Include/cmsis_gcc.h **** __STATIC_FORCEINLINE void __set_MSP(uint32_t topOfMainStack)
 332:Drivers/CMSIS/Include/cmsis_gcc.h **** {
 333:Drivers/CMSIS/Include/cmsis_gcc.h ****   __ASM volatile ("MSR msp, %0" : : "r" (topOfMainStack) : );
 334:Drivers/CMSIS/Include/cmsis_gcc.h **** }
 335:Drivers/CMSIS/Include/cmsis_gcc.h **** 
 336:Drivers/CMSIS/Include/cmsis_gcc.h **** 
 337:Drivers/CMSIS/Include/cmsis_gcc.h **** #if (defined (__ARM_FEATURE_CMSE ) && (__ARM_FEATURE_CMSE == 3))
 338:Drivers/CMSIS/Include/cmsis_gcc.h **** /**
 339:Drivers/CMSIS/Include/cmsis_gcc.h ****   \brief   Set Main Stack Pointer (non-secure)
 340:Drivers/CMSIS/Include/cmsis_gcc.h ****   \details Assigns the given value to the non-secure Main Stack Pointer (MSP) when in secure state.
 341:Drivers/CMSIS/Include/cmsis_gcc.h ****   \param [in]    topOfMainStack  Main Stack Pointer value to set
 342:Drivers/CMSIS/Include/cmsis_gcc.h ****  */
 343:Drivers/CMSIS/Include/cmsis_gcc.h **** __STATIC_FORCEINLINE void __TZ_set_MSP_NS(uint32_t topOfMainStack)
 344:Drivers/CMSIS/Include/cmsis_gcc.h **** {
 345:Drivers/CMSIS/Include/cmsis_gcc.h ****   __ASM volatile ("MSR msp_ns, %0" : : "r" (topOfMainStack) : );
 346:Drivers/CMSIS/Include/cmsis_gcc.h **** }
 347:Drivers/CMSIS/Include/cmsis_gcc.h **** #endif
 348:Drivers/CMSIS/Include/cmsis_gcc.h **** 
 349:Drivers/CMSIS/Include/cmsis_gcc.h **** 
 350:Drivers/CMSIS/Include/cmsis_gcc.h **** #if (defined (__ARM_FEATURE_CMSE ) && (__ARM_FEATURE_CMSE == 3))
 351:Drivers/CMSIS/Include/cmsis_gcc.h **** /**
 352:Drivers/CMSIS/Include/cmsis_gcc.h ****   \brief   Get Stack Pointer (non-secure)
 353:Drivers/CMSIS/Include/cmsis_gcc.h ****   \details Returns the current value of the non-secure Stack Pointer (SP) when in secure state.
 354:Drivers/CMSIS/Include/cmsis_gcc.h ****   \return               SP Register value
 355:Drivers/CMSIS/Include/cmsis_gcc.h ****  */
 356:Drivers/CMSIS/Include/cmsis_gcc.h **** __STATIC_FORCEINLINE uint32_t __TZ_get_SP_NS(void)
 357:Drivers/CMSIS/Include/cmsis_gcc.h **** {
 358:Drivers/CMSIS/Include/cmsis_gcc.h ****   uint32_t result;
 359:Drivers/CMSIS/Include/cmsis_gcc.h **** 
 360:Drivers/CMSIS/Include/cmsis_gcc.h ****   __ASM volatile ("MRS %0, sp_ns" : "=r" (result) );
 361:Drivers/CMSIS/Include/cmsis_gcc.h ****   return(result);
 362:Drivers/CMSIS/Include/cmsis_gcc.h **** }
 363:Drivers/CMSIS/Include/cmsis_gcc.h **** 
 364:Drivers/CMSIS/Include/cmsis_gcc.h **** 
 365:Drivers/CMSIS/Include/cmsis_gcc.h **** /**
 366:Drivers/CMSIS/Include/cmsis_gcc.h ****   \brief   Set Stack Pointer (non-secure)
 367:Drivers/CMSIS/Include/cmsis_gcc.h ****   \details Assigns the given value to the non-secure Stack Pointer (SP) when in secure state.
 368:Drivers/CMSIS/Include/cmsis_gcc.h ****   \param [in]    topOfStack  Stack Pointer value to set
 369:Drivers/CMSIS/Include/cmsis_gcc.h ****  */
 370:Drivers/CMSIS/Include/cmsis_gcc.h **** __STATIC_FORCEINLINE void __TZ_set_SP_NS(uint32_t topOfStack)
 371:Drivers/CMSIS/Include/cmsis_gcc.h **** {
ARM GAS  /var/folders/n6/c271nzx11xl4r4_m7sqjlt0m0000gn/T//cc22wCrs.s 			page 55


 372:Drivers/CMSIS/Include/cmsis_gcc.h ****   __ASM volatile ("MSR sp_ns, %0" : : "r" (topOfStack) : );
 373:Drivers/CMSIS/Include/cmsis_gcc.h **** }
 374:Drivers/CMSIS/Include/cmsis_gcc.h **** #endif
 375:Drivers/CMSIS/Include/cmsis_gcc.h **** 
 376:Drivers/CMSIS/Include/cmsis_gcc.h **** 
 377:Drivers/CMSIS/Include/cmsis_gcc.h **** /**
 378:Drivers/CMSIS/Include/cmsis_gcc.h ****   \brief   Get Priority Mask
 379:Drivers/CMSIS/Include/cmsis_gcc.h ****   \details Returns the current state of the priority mask bit from the Priority Mask Register.
 380:Drivers/CMSIS/Include/cmsis_gcc.h ****   \return               Priority Mask value
 381:Drivers/CMSIS/Include/cmsis_gcc.h ****  */
 382:Drivers/CMSIS/Include/cmsis_gcc.h **** __STATIC_FORCEINLINE uint32_t __get_PRIMASK(void)
 383:Drivers/CMSIS/Include/cmsis_gcc.h **** {
 384:Drivers/CMSIS/Include/cmsis_gcc.h ****   uint32_t result;
 385:Drivers/CMSIS/Include/cmsis_gcc.h **** 
 386:Drivers/CMSIS/Include/cmsis_gcc.h ****   __ASM volatile ("MRS %0, primask" : "=r" (result) :: "memory");
 387:Drivers/CMSIS/Include/cmsis_gcc.h ****   return(result);
 388:Drivers/CMSIS/Include/cmsis_gcc.h **** }
 389:Drivers/CMSIS/Include/cmsis_gcc.h **** 
 390:Drivers/CMSIS/Include/cmsis_gcc.h **** 
 391:Drivers/CMSIS/Include/cmsis_gcc.h **** #if (defined (__ARM_FEATURE_CMSE ) && (__ARM_FEATURE_CMSE == 3))
 392:Drivers/CMSIS/Include/cmsis_gcc.h **** /**
 393:Drivers/CMSIS/Include/cmsis_gcc.h ****   \brief   Get Priority Mask (non-secure)
 394:Drivers/CMSIS/Include/cmsis_gcc.h ****   \details Returns the current state of the non-secure priority mask bit from the Priority Mask Reg
 395:Drivers/CMSIS/Include/cmsis_gcc.h ****   \return               Priority Mask value
 396:Drivers/CMSIS/Include/cmsis_gcc.h ****  */
 397:Drivers/CMSIS/Include/cmsis_gcc.h **** __STATIC_FORCEINLINE uint32_t __TZ_get_PRIMASK_NS(void)
 398:Drivers/CMSIS/Include/cmsis_gcc.h **** {
 399:Drivers/CMSIS/Include/cmsis_gcc.h ****   uint32_t result;
 400:Drivers/CMSIS/Include/cmsis_gcc.h **** 
 401:Drivers/CMSIS/Include/cmsis_gcc.h ****   __ASM volatile ("MRS %0, primask_ns" : "=r" (result) :: "memory");
 402:Drivers/CMSIS/Include/cmsis_gcc.h ****   return(result);
 403:Drivers/CMSIS/Include/cmsis_gcc.h **** }
 404:Drivers/CMSIS/Include/cmsis_gcc.h **** #endif
 405:Drivers/CMSIS/Include/cmsis_gcc.h **** 
 406:Drivers/CMSIS/Include/cmsis_gcc.h **** 
 407:Drivers/CMSIS/Include/cmsis_gcc.h **** /**
 408:Drivers/CMSIS/Include/cmsis_gcc.h ****   \brief   Set Priority Mask
 409:Drivers/CMSIS/Include/cmsis_gcc.h ****   \details Assigns the given value to the Priority Mask Register.
 410:Drivers/CMSIS/Include/cmsis_gcc.h ****   \param [in]    priMask  Priority Mask
 411:Drivers/CMSIS/Include/cmsis_gcc.h ****  */
 412:Drivers/CMSIS/Include/cmsis_gcc.h **** __STATIC_FORCEINLINE void __set_PRIMASK(uint32_t priMask)
 413:Drivers/CMSIS/Include/cmsis_gcc.h **** {
 414:Drivers/CMSIS/Include/cmsis_gcc.h ****   __ASM volatile ("MSR primask, %0" : : "r" (priMask) : "memory");
 415:Drivers/CMSIS/Include/cmsis_gcc.h **** }
 416:Drivers/CMSIS/Include/cmsis_gcc.h **** 
 417:Drivers/CMSIS/Include/cmsis_gcc.h **** 
 418:Drivers/CMSIS/Include/cmsis_gcc.h **** #if (defined (__ARM_FEATURE_CMSE ) && (__ARM_FEATURE_CMSE == 3))
 419:Drivers/CMSIS/Include/cmsis_gcc.h **** /**
 420:Drivers/CMSIS/Include/cmsis_gcc.h ****   \brief   Set Priority Mask (non-secure)
 421:Drivers/CMSIS/Include/cmsis_gcc.h ****   \details Assigns the given value to the non-secure Priority Mask Register when in secure state.
 422:Drivers/CMSIS/Include/cmsis_gcc.h ****   \param [in]    priMask  Priority Mask
 423:Drivers/CMSIS/Include/cmsis_gcc.h ****  */
 424:Drivers/CMSIS/Include/cmsis_gcc.h **** __STATIC_FORCEINLINE void __TZ_set_PRIMASK_NS(uint32_t priMask)
 425:Drivers/CMSIS/Include/cmsis_gcc.h **** {
 426:Drivers/CMSIS/Include/cmsis_gcc.h ****   __ASM volatile ("MSR primask_ns, %0" : : "r" (priMask) : "memory");
 427:Drivers/CMSIS/Include/cmsis_gcc.h **** }
 428:Drivers/CMSIS/Include/cmsis_gcc.h **** #endif
ARM GAS  /var/folders/n6/c271nzx11xl4r4_m7sqjlt0m0000gn/T//cc22wCrs.s 			page 56


 429:Drivers/CMSIS/Include/cmsis_gcc.h **** 
 430:Drivers/CMSIS/Include/cmsis_gcc.h **** 
 431:Drivers/CMSIS/Include/cmsis_gcc.h **** #if ((defined (__ARM_ARCH_7M__      ) && (__ARM_ARCH_7M__      == 1)) || \
 432:Drivers/CMSIS/Include/cmsis_gcc.h ****      (defined (__ARM_ARCH_7EM__     ) && (__ARM_ARCH_7EM__     == 1)) || \
 433:Drivers/CMSIS/Include/cmsis_gcc.h ****      (defined (__ARM_ARCH_8M_MAIN__ ) && (__ARM_ARCH_8M_MAIN__ == 1))    )
 434:Drivers/CMSIS/Include/cmsis_gcc.h **** /**
 435:Drivers/CMSIS/Include/cmsis_gcc.h ****   \brief   Enable FIQ
 436:Drivers/CMSIS/Include/cmsis_gcc.h ****   \details Enables FIQ interrupts by clearing the F-bit in the CPSR.
 437:Drivers/CMSIS/Include/cmsis_gcc.h ****            Can only be executed in Privileged modes.
 438:Drivers/CMSIS/Include/cmsis_gcc.h ****  */
 439:Drivers/CMSIS/Include/cmsis_gcc.h **** __STATIC_FORCEINLINE void __enable_fault_irq(void)
 440:Drivers/CMSIS/Include/cmsis_gcc.h **** {
 441:Drivers/CMSIS/Include/cmsis_gcc.h ****   __ASM volatile ("cpsie f" : : : "memory");
 442:Drivers/CMSIS/Include/cmsis_gcc.h **** }
 443:Drivers/CMSIS/Include/cmsis_gcc.h **** 
 444:Drivers/CMSIS/Include/cmsis_gcc.h **** 
 445:Drivers/CMSIS/Include/cmsis_gcc.h **** /**
 446:Drivers/CMSIS/Include/cmsis_gcc.h ****   \brief   Disable FIQ
 447:Drivers/CMSIS/Include/cmsis_gcc.h ****   \details Disables FIQ interrupts by setting the F-bit in the CPSR.
 448:Drivers/CMSIS/Include/cmsis_gcc.h ****            Can only be executed in Privileged modes.
 449:Drivers/CMSIS/Include/cmsis_gcc.h ****  */
 450:Drivers/CMSIS/Include/cmsis_gcc.h **** __STATIC_FORCEINLINE void __disable_fault_irq(void)
 451:Drivers/CMSIS/Include/cmsis_gcc.h **** {
 452:Drivers/CMSIS/Include/cmsis_gcc.h ****   __ASM volatile ("cpsid f" : : : "memory");
 453:Drivers/CMSIS/Include/cmsis_gcc.h **** }
 454:Drivers/CMSIS/Include/cmsis_gcc.h **** 
 455:Drivers/CMSIS/Include/cmsis_gcc.h **** 
 456:Drivers/CMSIS/Include/cmsis_gcc.h **** /**
 457:Drivers/CMSIS/Include/cmsis_gcc.h ****   \brief   Get Base Priority
 458:Drivers/CMSIS/Include/cmsis_gcc.h ****   \details Returns the current value of the Base Priority register.
 459:Drivers/CMSIS/Include/cmsis_gcc.h ****   \return               Base Priority register value
 460:Drivers/CMSIS/Include/cmsis_gcc.h ****  */
 461:Drivers/CMSIS/Include/cmsis_gcc.h **** __STATIC_FORCEINLINE uint32_t __get_BASEPRI(void)
 462:Drivers/CMSIS/Include/cmsis_gcc.h **** {
 463:Drivers/CMSIS/Include/cmsis_gcc.h ****   uint32_t result;
 464:Drivers/CMSIS/Include/cmsis_gcc.h **** 
 465:Drivers/CMSIS/Include/cmsis_gcc.h ****   __ASM volatile ("MRS %0, basepri" : "=r" (result) );
 466:Drivers/CMSIS/Include/cmsis_gcc.h ****   return(result);
 467:Drivers/CMSIS/Include/cmsis_gcc.h **** }
 468:Drivers/CMSIS/Include/cmsis_gcc.h **** 
 469:Drivers/CMSIS/Include/cmsis_gcc.h **** 
 470:Drivers/CMSIS/Include/cmsis_gcc.h **** #if (defined (__ARM_FEATURE_CMSE ) && (__ARM_FEATURE_CMSE == 3))
 471:Drivers/CMSIS/Include/cmsis_gcc.h **** /**
 472:Drivers/CMSIS/Include/cmsis_gcc.h ****   \brief   Get Base Priority (non-secure)
 473:Drivers/CMSIS/Include/cmsis_gcc.h ****   \details Returns the current value of the non-secure Base Priority register when in secure state.
 474:Drivers/CMSIS/Include/cmsis_gcc.h ****   \return               Base Priority register value
 475:Drivers/CMSIS/Include/cmsis_gcc.h ****  */
 476:Drivers/CMSIS/Include/cmsis_gcc.h **** __STATIC_FORCEINLINE uint32_t __TZ_get_BASEPRI_NS(void)
 477:Drivers/CMSIS/Include/cmsis_gcc.h **** {
 478:Drivers/CMSIS/Include/cmsis_gcc.h ****   uint32_t result;
 479:Drivers/CMSIS/Include/cmsis_gcc.h **** 
 480:Drivers/CMSIS/Include/cmsis_gcc.h ****   __ASM volatile ("MRS %0, basepri_ns" : "=r" (result) );
 481:Drivers/CMSIS/Include/cmsis_gcc.h ****   return(result);
 482:Drivers/CMSIS/Include/cmsis_gcc.h **** }
 483:Drivers/CMSIS/Include/cmsis_gcc.h **** #endif
 484:Drivers/CMSIS/Include/cmsis_gcc.h **** 
 485:Drivers/CMSIS/Include/cmsis_gcc.h **** 
ARM GAS  /var/folders/n6/c271nzx11xl4r4_m7sqjlt0m0000gn/T//cc22wCrs.s 			page 57


 486:Drivers/CMSIS/Include/cmsis_gcc.h **** /**
 487:Drivers/CMSIS/Include/cmsis_gcc.h ****   \brief   Set Base Priority
 488:Drivers/CMSIS/Include/cmsis_gcc.h ****   \details Assigns the given value to the Base Priority register.
 489:Drivers/CMSIS/Include/cmsis_gcc.h ****   \param [in]    basePri  Base Priority value to set
 490:Drivers/CMSIS/Include/cmsis_gcc.h ****  */
 491:Drivers/CMSIS/Include/cmsis_gcc.h **** __STATIC_FORCEINLINE void __set_BASEPRI(uint32_t basePri)
 492:Drivers/CMSIS/Include/cmsis_gcc.h **** {
 493:Drivers/CMSIS/Include/cmsis_gcc.h ****   __ASM volatile ("MSR basepri, %0" : : "r" (basePri) : "memory");
 494:Drivers/CMSIS/Include/cmsis_gcc.h **** }
 495:Drivers/CMSIS/Include/cmsis_gcc.h **** 
 496:Drivers/CMSIS/Include/cmsis_gcc.h **** 
 497:Drivers/CMSIS/Include/cmsis_gcc.h **** #if (defined (__ARM_FEATURE_CMSE ) && (__ARM_FEATURE_CMSE == 3))
 498:Drivers/CMSIS/Include/cmsis_gcc.h **** /**
 499:Drivers/CMSIS/Include/cmsis_gcc.h ****   \brief   Set Base Priority (non-secure)
 500:Drivers/CMSIS/Include/cmsis_gcc.h ****   \details Assigns the given value to the non-secure Base Priority register when in secure state.
 501:Drivers/CMSIS/Include/cmsis_gcc.h ****   \param [in]    basePri  Base Priority value to set
 502:Drivers/CMSIS/Include/cmsis_gcc.h ****  */
 503:Drivers/CMSIS/Include/cmsis_gcc.h **** __STATIC_FORCEINLINE void __TZ_set_BASEPRI_NS(uint32_t basePri)
 504:Drivers/CMSIS/Include/cmsis_gcc.h **** {
 505:Drivers/CMSIS/Include/cmsis_gcc.h ****   __ASM volatile ("MSR basepri_ns, %0" : : "r" (basePri) : "memory");
 506:Drivers/CMSIS/Include/cmsis_gcc.h **** }
 507:Drivers/CMSIS/Include/cmsis_gcc.h **** #endif
 508:Drivers/CMSIS/Include/cmsis_gcc.h **** 
 509:Drivers/CMSIS/Include/cmsis_gcc.h **** 
 510:Drivers/CMSIS/Include/cmsis_gcc.h **** /**
 511:Drivers/CMSIS/Include/cmsis_gcc.h ****   \brief   Set Base Priority with condition
 512:Drivers/CMSIS/Include/cmsis_gcc.h ****   \details Assigns the given value to the Base Priority register only if BASEPRI masking is disable
 513:Drivers/CMSIS/Include/cmsis_gcc.h ****            or the new value increases the BASEPRI priority level.
 514:Drivers/CMSIS/Include/cmsis_gcc.h ****   \param [in]    basePri  Base Priority value to set
 515:Drivers/CMSIS/Include/cmsis_gcc.h ****  */
 516:Drivers/CMSIS/Include/cmsis_gcc.h **** __STATIC_FORCEINLINE void __set_BASEPRI_MAX(uint32_t basePri)
 517:Drivers/CMSIS/Include/cmsis_gcc.h **** {
 518:Drivers/CMSIS/Include/cmsis_gcc.h ****   __ASM volatile ("MSR basepri_max, %0" : : "r" (basePri) : "memory");
 519:Drivers/CMSIS/Include/cmsis_gcc.h **** }
 520:Drivers/CMSIS/Include/cmsis_gcc.h **** 
 521:Drivers/CMSIS/Include/cmsis_gcc.h **** 
 522:Drivers/CMSIS/Include/cmsis_gcc.h **** /**
 523:Drivers/CMSIS/Include/cmsis_gcc.h ****   \brief   Get Fault Mask
 524:Drivers/CMSIS/Include/cmsis_gcc.h ****   \details Returns the current value of the Fault Mask register.
 525:Drivers/CMSIS/Include/cmsis_gcc.h ****   \return               Fault Mask register value
 526:Drivers/CMSIS/Include/cmsis_gcc.h ****  */
 527:Drivers/CMSIS/Include/cmsis_gcc.h **** __STATIC_FORCEINLINE uint32_t __get_FAULTMASK(void)
 528:Drivers/CMSIS/Include/cmsis_gcc.h **** {
 529:Drivers/CMSIS/Include/cmsis_gcc.h ****   uint32_t result;
 530:Drivers/CMSIS/Include/cmsis_gcc.h **** 
 531:Drivers/CMSIS/Include/cmsis_gcc.h ****   __ASM volatile ("MRS %0, faultmask" : "=r" (result) );
 532:Drivers/CMSIS/Include/cmsis_gcc.h ****   return(result);
 533:Drivers/CMSIS/Include/cmsis_gcc.h **** }
 534:Drivers/CMSIS/Include/cmsis_gcc.h **** 
 535:Drivers/CMSIS/Include/cmsis_gcc.h **** 
 536:Drivers/CMSIS/Include/cmsis_gcc.h **** #if (defined (__ARM_FEATURE_CMSE ) && (__ARM_FEATURE_CMSE == 3))
 537:Drivers/CMSIS/Include/cmsis_gcc.h **** /**
 538:Drivers/CMSIS/Include/cmsis_gcc.h ****   \brief   Get Fault Mask (non-secure)
 539:Drivers/CMSIS/Include/cmsis_gcc.h ****   \details Returns the current value of the non-secure Fault Mask register when in secure state.
 540:Drivers/CMSIS/Include/cmsis_gcc.h ****   \return               Fault Mask register value
 541:Drivers/CMSIS/Include/cmsis_gcc.h ****  */
 542:Drivers/CMSIS/Include/cmsis_gcc.h **** __STATIC_FORCEINLINE uint32_t __TZ_get_FAULTMASK_NS(void)
ARM GAS  /var/folders/n6/c271nzx11xl4r4_m7sqjlt0m0000gn/T//cc22wCrs.s 			page 58


 543:Drivers/CMSIS/Include/cmsis_gcc.h **** {
 544:Drivers/CMSIS/Include/cmsis_gcc.h ****   uint32_t result;
 545:Drivers/CMSIS/Include/cmsis_gcc.h **** 
 546:Drivers/CMSIS/Include/cmsis_gcc.h ****   __ASM volatile ("MRS %0, faultmask_ns" : "=r" (result) );
 547:Drivers/CMSIS/Include/cmsis_gcc.h ****   return(result);
 548:Drivers/CMSIS/Include/cmsis_gcc.h **** }
 549:Drivers/CMSIS/Include/cmsis_gcc.h **** #endif
 550:Drivers/CMSIS/Include/cmsis_gcc.h **** 
 551:Drivers/CMSIS/Include/cmsis_gcc.h **** 
 552:Drivers/CMSIS/Include/cmsis_gcc.h **** /**
 553:Drivers/CMSIS/Include/cmsis_gcc.h ****   \brief   Set Fault Mask
 554:Drivers/CMSIS/Include/cmsis_gcc.h ****   \details Assigns the given value to the Fault Mask register.
 555:Drivers/CMSIS/Include/cmsis_gcc.h ****   \param [in]    faultMask  Fault Mask value to set
 556:Drivers/CMSIS/Include/cmsis_gcc.h ****  */
 557:Drivers/CMSIS/Include/cmsis_gcc.h **** __STATIC_FORCEINLINE void __set_FAULTMASK(uint32_t faultMask)
 558:Drivers/CMSIS/Include/cmsis_gcc.h **** {
 559:Drivers/CMSIS/Include/cmsis_gcc.h ****   __ASM volatile ("MSR faultmask, %0" : : "r" (faultMask) : "memory");
 560:Drivers/CMSIS/Include/cmsis_gcc.h **** }
 561:Drivers/CMSIS/Include/cmsis_gcc.h **** 
 562:Drivers/CMSIS/Include/cmsis_gcc.h **** 
 563:Drivers/CMSIS/Include/cmsis_gcc.h **** #if (defined (__ARM_FEATURE_CMSE ) && (__ARM_FEATURE_CMSE == 3))
 564:Drivers/CMSIS/Include/cmsis_gcc.h **** /**
 565:Drivers/CMSIS/Include/cmsis_gcc.h ****   \brief   Set Fault Mask (non-secure)
 566:Drivers/CMSIS/Include/cmsis_gcc.h ****   \details Assigns the given value to the non-secure Fault Mask register when in secure state.
 567:Drivers/CMSIS/Include/cmsis_gcc.h ****   \param [in]    faultMask  Fault Mask value to set
 568:Drivers/CMSIS/Include/cmsis_gcc.h ****  */
 569:Drivers/CMSIS/Include/cmsis_gcc.h **** __STATIC_FORCEINLINE void __TZ_set_FAULTMASK_NS(uint32_t faultMask)
 570:Drivers/CMSIS/Include/cmsis_gcc.h **** {
 571:Drivers/CMSIS/Include/cmsis_gcc.h ****   __ASM volatile ("MSR faultmask_ns, %0" : : "r" (faultMask) : "memory");
 572:Drivers/CMSIS/Include/cmsis_gcc.h **** }
 573:Drivers/CMSIS/Include/cmsis_gcc.h **** #endif
 574:Drivers/CMSIS/Include/cmsis_gcc.h **** 
 575:Drivers/CMSIS/Include/cmsis_gcc.h **** #endif /* ((defined (__ARM_ARCH_7M__      ) && (__ARM_ARCH_7M__      == 1)) || \
 576:Drivers/CMSIS/Include/cmsis_gcc.h ****            (defined (__ARM_ARCH_7EM__     ) && (__ARM_ARCH_7EM__     == 1)) || \
 577:Drivers/CMSIS/Include/cmsis_gcc.h ****            (defined (__ARM_ARCH_8M_MAIN__ ) && (__ARM_ARCH_8M_MAIN__ == 1))    ) */
 578:Drivers/CMSIS/Include/cmsis_gcc.h **** 
 579:Drivers/CMSIS/Include/cmsis_gcc.h **** 
 580:Drivers/CMSIS/Include/cmsis_gcc.h **** #if ((defined (__ARM_ARCH_8M_MAIN__ ) && (__ARM_ARCH_8M_MAIN__ == 1)) || \
 581:Drivers/CMSIS/Include/cmsis_gcc.h ****      (defined (__ARM_ARCH_8M_BASE__ ) && (__ARM_ARCH_8M_BASE__ == 1))    )
 582:Drivers/CMSIS/Include/cmsis_gcc.h **** 
 583:Drivers/CMSIS/Include/cmsis_gcc.h **** /**
 584:Drivers/CMSIS/Include/cmsis_gcc.h ****   \brief   Get Process Stack Pointer Limit
 585:Drivers/CMSIS/Include/cmsis_gcc.h ****   Devices without ARMv8-M Main Extensions (i.e. Cortex-M23) lack the non-secure
 586:Drivers/CMSIS/Include/cmsis_gcc.h ****   Stack Pointer Limit register hence zero is returned always in non-secure
 587:Drivers/CMSIS/Include/cmsis_gcc.h ****   mode.
 588:Drivers/CMSIS/Include/cmsis_gcc.h ****   
 589:Drivers/CMSIS/Include/cmsis_gcc.h ****   \details Returns the current value of the Process Stack Pointer Limit (PSPLIM).
 590:Drivers/CMSIS/Include/cmsis_gcc.h ****   \return               PSPLIM Register value
 591:Drivers/CMSIS/Include/cmsis_gcc.h ****  */
 592:Drivers/CMSIS/Include/cmsis_gcc.h **** __STATIC_FORCEINLINE uint32_t __get_PSPLIM(void)
 593:Drivers/CMSIS/Include/cmsis_gcc.h **** {
 594:Drivers/CMSIS/Include/cmsis_gcc.h **** #if (!(defined (__ARM_ARCH_8M_MAIN__ ) && (__ARM_ARCH_8M_MAIN__ == 1)) && \
 595:Drivers/CMSIS/Include/cmsis_gcc.h ****     (!defined (__ARM_FEATURE_CMSE) || (__ARM_FEATURE_CMSE < 3)))
 596:Drivers/CMSIS/Include/cmsis_gcc.h ****     // without main extensions, the non-secure PSPLIM is RAZ/WI
 597:Drivers/CMSIS/Include/cmsis_gcc.h ****   return 0U;
 598:Drivers/CMSIS/Include/cmsis_gcc.h **** #else
 599:Drivers/CMSIS/Include/cmsis_gcc.h ****   uint32_t result;
ARM GAS  /var/folders/n6/c271nzx11xl4r4_m7sqjlt0m0000gn/T//cc22wCrs.s 			page 59


 600:Drivers/CMSIS/Include/cmsis_gcc.h ****   __ASM volatile ("MRS %0, psplim"  : "=r" (result) );
 601:Drivers/CMSIS/Include/cmsis_gcc.h ****   return result;
 602:Drivers/CMSIS/Include/cmsis_gcc.h **** #endif
 603:Drivers/CMSIS/Include/cmsis_gcc.h **** }
 604:Drivers/CMSIS/Include/cmsis_gcc.h **** 
 605:Drivers/CMSIS/Include/cmsis_gcc.h **** #if (defined (__ARM_FEATURE_CMSE) && (__ARM_FEATURE_CMSE == 3))
 606:Drivers/CMSIS/Include/cmsis_gcc.h **** /**
 607:Drivers/CMSIS/Include/cmsis_gcc.h ****   \brief   Get Process Stack Pointer Limit (non-secure)
 608:Drivers/CMSIS/Include/cmsis_gcc.h ****   Devices without ARMv8-M Main Extensions (i.e. Cortex-M23) lack the non-secure
 609:Drivers/CMSIS/Include/cmsis_gcc.h ****   Stack Pointer Limit register hence zero is returned always.
 610:Drivers/CMSIS/Include/cmsis_gcc.h **** 
 611:Drivers/CMSIS/Include/cmsis_gcc.h ****   \details Returns the current value of the non-secure Process Stack Pointer Limit (PSPLIM) when in
 612:Drivers/CMSIS/Include/cmsis_gcc.h ****   \return               PSPLIM Register value
 613:Drivers/CMSIS/Include/cmsis_gcc.h ****  */
 614:Drivers/CMSIS/Include/cmsis_gcc.h **** __STATIC_FORCEINLINE uint32_t __TZ_get_PSPLIM_NS(void)
 615:Drivers/CMSIS/Include/cmsis_gcc.h **** {
 616:Drivers/CMSIS/Include/cmsis_gcc.h **** #if (!(defined (__ARM_ARCH_8M_MAIN__ ) && (__ARM_ARCH_8M_MAIN__ == 1)))
 617:Drivers/CMSIS/Include/cmsis_gcc.h ****   // without main extensions, the non-secure PSPLIM is RAZ/WI
 618:Drivers/CMSIS/Include/cmsis_gcc.h ****   return 0U;
 619:Drivers/CMSIS/Include/cmsis_gcc.h **** #else
 620:Drivers/CMSIS/Include/cmsis_gcc.h ****   uint32_t result;
 621:Drivers/CMSIS/Include/cmsis_gcc.h ****   __ASM volatile ("MRS %0, psplim_ns"  : "=r" (result) );
 622:Drivers/CMSIS/Include/cmsis_gcc.h ****   return result;
 623:Drivers/CMSIS/Include/cmsis_gcc.h **** #endif
 624:Drivers/CMSIS/Include/cmsis_gcc.h **** }
 625:Drivers/CMSIS/Include/cmsis_gcc.h **** #endif
 626:Drivers/CMSIS/Include/cmsis_gcc.h **** 
 627:Drivers/CMSIS/Include/cmsis_gcc.h **** 
 628:Drivers/CMSIS/Include/cmsis_gcc.h **** /**
 629:Drivers/CMSIS/Include/cmsis_gcc.h ****   \brief   Set Process Stack Pointer Limit
 630:Drivers/CMSIS/Include/cmsis_gcc.h ****   Devices without ARMv8-M Main Extensions (i.e. Cortex-M23) lack the non-secure
 631:Drivers/CMSIS/Include/cmsis_gcc.h ****   Stack Pointer Limit register hence the write is silently ignored in non-secure
 632:Drivers/CMSIS/Include/cmsis_gcc.h ****   mode.
 633:Drivers/CMSIS/Include/cmsis_gcc.h ****   
 634:Drivers/CMSIS/Include/cmsis_gcc.h ****   \details Assigns the given value to the Process Stack Pointer Limit (PSPLIM).
 635:Drivers/CMSIS/Include/cmsis_gcc.h ****   \param [in]    ProcStackPtrLimit  Process Stack Pointer Limit value to set
 636:Drivers/CMSIS/Include/cmsis_gcc.h ****  */
 637:Drivers/CMSIS/Include/cmsis_gcc.h **** __STATIC_FORCEINLINE void __set_PSPLIM(uint32_t ProcStackPtrLimit)
 638:Drivers/CMSIS/Include/cmsis_gcc.h **** {
 639:Drivers/CMSIS/Include/cmsis_gcc.h **** #if (!(defined (__ARM_ARCH_8M_MAIN__ ) && (__ARM_ARCH_8M_MAIN__ == 1)) && \
 640:Drivers/CMSIS/Include/cmsis_gcc.h ****     (!defined (__ARM_FEATURE_CMSE) || (__ARM_FEATURE_CMSE < 3)))
 641:Drivers/CMSIS/Include/cmsis_gcc.h ****   // without main extensions, the non-secure PSPLIM is RAZ/WI
 642:Drivers/CMSIS/Include/cmsis_gcc.h ****   (void)ProcStackPtrLimit;
 643:Drivers/CMSIS/Include/cmsis_gcc.h **** #else
 644:Drivers/CMSIS/Include/cmsis_gcc.h ****   __ASM volatile ("MSR psplim, %0" : : "r" (ProcStackPtrLimit));
 645:Drivers/CMSIS/Include/cmsis_gcc.h **** #endif
 646:Drivers/CMSIS/Include/cmsis_gcc.h **** }
 647:Drivers/CMSIS/Include/cmsis_gcc.h **** 
 648:Drivers/CMSIS/Include/cmsis_gcc.h **** 
 649:Drivers/CMSIS/Include/cmsis_gcc.h **** #if (defined (__ARM_FEATURE_CMSE  ) && (__ARM_FEATURE_CMSE   == 3))
 650:Drivers/CMSIS/Include/cmsis_gcc.h **** /**
 651:Drivers/CMSIS/Include/cmsis_gcc.h ****   \brief   Set Process Stack Pointer (non-secure)
 652:Drivers/CMSIS/Include/cmsis_gcc.h ****   Devices without ARMv8-M Main Extensions (i.e. Cortex-M23) lack the non-secure
 653:Drivers/CMSIS/Include/cmsis_gcc.h ****   Stack Pointer Limit register hence the write is silently ignored.
 654:Drivers/CMSIS/Include/cmsis_gcc.h **** 
 655:Drivers/CMSIS/Include/cmsis_gcc.h ****   \details Assigns the given value to the non-secure Process Stack Pointer Limit (PSPLIM) when in s
 656:Drivers/CMSIS/Include/cmsis_gcc.h ****   \param [in]    ProcStackPtrLimit  Process Stack Pointer Limit value to set
ARM GAS  /var/folders/n6/c271nzx11xl4r4_m7sqjlt0m0000gn/T//cc22wCrs.s 			page 60


 657:Drivers/CMSIS/Include/cmsis_gcc.h ****  */
 658:Drivers/CMSIS/Include/cmsis_gcc.h **** __STATIC_FORCEINLINE void __TZ_set_PSPLIM_NS(uint32_t ProcStackPtrLimit)
 659:Drivers/CMSIS/Include/cmsis_gcc.h **** {
 660:Drivers/CMSIS/Include/cmsis_gcc.h **** #if (!(defined (__ARM_ARCH_8M_MAIN__ ) && (__ARM_ARCH_8M_MAIN__ == 1)))
 661:Drivers/CMSIS/Include/cmsis_gcc.h ****   // without main extensions, the non-secure PSPLIM is RAZ/WI
 662:Drivers/CMSIS/Include/cmsis_gcc.h ****   (void)ProcStackPtrLimit;
 663:Drivers/CMSIS/Include/cmsis_gcc.h **** #else
 664:Drivers/CMSIS/Include/cmsis_gcc.h ****   __ASM volatile ("MSR psplim_ns, %0\n" : : "r" (ProcStackPtrLimit));
 665:Drivers/CMSIS/Include/cmsis_gcc.h **** #endif
 666:Drivers/CMSIS/Include/cmsis_gcc.h **** }
 667:Drivers/CMSIS/Include/cmsis_gcc.h **** #endif
 668:Drivers/CMSIS/Include/cmsis_gcc.h **** 
 669:Drivers/CMSIS/Include/cmsis_gcc.h **** 
 670:Drivers/CMSIS/Include/cmsis_gcc.h **** /**
 671:Drivers/CMSIS/Include/cmsis_gcc.h ****   \brief   Get Main Stack Pointer Limit
 672:Drivers/CMSIS/Include/cmsis_gcc.h ****   Devices without ARMv8-M Main Extensions (i.e. Cortex-M23) lack the non-secure
 673:Drivers/CMSIS/Include/cmsis_gcc.h ****   Stack Pointer Limit register hence zero is returned always in non-secure
 674:Drivers/CMSIS/Include/cmsis_gcc.h ****   mode.
 675:Drivers/CMSIS/Include/cmsis_gcc.h **** 
 676:Drivers/CMSIS/Include/cmsis_gcc.h ****   \details Returns the current value of the Main Stack Pointer Limit (MSPLIM).
 677:Drivers/CMSIS/Include/cmsis_gcc.h ****   \return               MSPLIM Register value
 678:Drivers/CMSIS/Include/cmsis_gcc.h ****  */
 679:Drivers/CMSIS/Include/cmsis_gcc.h **** __STATIC_FORCEINLINE uint32_t __get_MSPLIM(void)
 680:Drivers/CMSIS/Include/cmsis_gcc.h **** {
 681:Drivers/CMSIS/Include/cmsis_gcc.h **** #if (!(defined (__ARM_ARCH_8M_MAIN__ ) && (__ARM_ARCH_8M_MAIN__ == 1)) && \
 682:Drivers/CMSIS/Include/cmsis_gcc.h ****     (!defined (__ARM_FEATURE_CMSE) || (__ARM_FEATURE_CMSE < 3)))
 683:Drivers/CMSIS/Include/cmsis_gcc.h ****   // without main extensions, the non-secure MSPLIM is RAZ/WI
 684:Drivers/CMSIS/Include/cmsis_gcc.h ****   return 0U;
 685:Drivers/CMSIS/Include/cmsis_gcc.h **** #else
 686:Drivers/CMSIS/Include/cmsis_gcc.h ****   uint32_t result;
 687:Drivers/CMSIS/Include/cmsis_gcc.h ****   __ASM volatile ("MRS %0, msplim" : "=r" (result) );
 688:Drivers/CMSIS/Include/cmsis_gcc.h ****   return result;
 689:Drivers/CMSIS/Include/cmsis_gcc.h **** #endif
 690:Drivers/CMSIS/Include/cmsis_gcc.h **** }
 691:Drivers/CMSIS/Include/cmsis_gcc.h **** 
 692:Drivers/CMSIS/Include/cmsis_gcc.h **** 
 693:Drivers/CMSIS/Include/cmsis_gcc.h **** #if (defined (__ARM_FEATURE_CMSE  ) && (__ARM_FEATURE_CMSE   == 3))
 694:Drivers/CMSIS/Include/cmsis_gcc.h **** /**
 695:Drivers/CMSIS/Include/cmsis_gcc.h ****   \brief   Get Main Stack Pointer Limit (non-secure)
 696:Drivers/CMSIS/Include/cmsis_gcc.h ****   Devices without ARMv8-M Main Extensions (i.e. Cortex-M23) lack the non-secure
 697:Drivers/CMSIS/Include/cmsis_gcc.h ****   Stack Pointer Limit register hence zero is returned always.
 698:Drivers/CMSIS/Include/cmsis_gcc.h **** 
 699:Drivers/CMSIS/Include/cmsis_gcc.h ****   \details Returns the current value of the non-secure Main Stack Pointer Limit(MSPLIM) when in sec
 700:Drivers/CMSIS/Include/cmsis_gcc.h ****   \return               MSPLIM Register value
 701:Drivers/CMSIS/Include/cmsis_gcc.h ****  */
 702:Drivers/CMSIS/Include/cmsis_gcc.h **** __STATIC_FORCEINLINE uint32_t __TZ_get_MSPLIM_NS(void)
 703:Drivers/CMSIS/Include/cmsis_gcc.h **** {
 704:Drivers/CMSIS/Include/cmsis_gcc.h **** #if (!(defined (__ARM_ARCH_8M_MAIN__ ) && (__ARM_ARCH_8M_MAIN__ == 1)))
 705:Drivers/CMSIS/Include/cmsis_gcc.h ****   // without main extensions, the non-secure MSPLIM is RAZ/WI
 706:Drivers/CMSIS/Include/cmsis_gcc.h ****   return 0U;
 707:Drivers/CMSIS/Include/cmsis_gcc.h **** #else
 708:Drivers/CMSIS/Include/cmsis_gcc.h ****   uint32_t result;
 709:Drivers/CMSIS/Include/cmsis_gcc.h ****   __ASM volatile ("MRS %0, msplim_ns" : "=r" (result) );
 710:Drivers/CMSIS/Include/cmsis_gcc.h ****   return result;
 711:Drivers/CMSIS/Include/cmsis_gcc.h **** #endif
 712:Drivers/CMSIS/Include/cmsis_gcc.h **** }
 713:Drivers/CMSIS/Include/cmsis_gcc.h **** #endif
ARM GAS  /var/folders/n6/c271nzx11xl4r4_m7sqjlt0m0000gn/T//cc22wCrs.s 			page 61


 714:Drivers/CMSIS/Include/cmsis_gcc.h **** 
 715:Drivers/CMSIS/Include/cmsis_gcc.h **** 
 716:Drivers/CMSIS/Include/cmsis_gcc.h **** /**
 717:Drivers/CMSIS/Include/cmsis_gcc.h ****   \brief   Set Main Stack Pointer Limit
 718:Drivers/CMSIS/Include/cmsis_gcc.h ****   Devices without ARMv8-M Main Extensions (i.e. Cortex-M23) lack the non-secure
 719:Drivers/CMSIS/Include/cmsis_gcc.h ****   Stack Pointer Limit register hence the write is silently ignored in non-secure
 720:Drivers/CMSIS/Include/cmsis_gcc.h ****   mode.
 721:Drivers/CMSIS/Include/cmsis_gcc.h **** 
 722:Drivers/CMSIS/Include/cmsis_gcc.h ****   \details Assigns the given value to the Main Stack Pointer Limit (MSPLIM).
 723:Drivers/CMSIS/Include/cmsis_gcc.h ****   \param [in]    MainStackPtrLimit  Main Stack Pointer Limit value to set
 724:Drivers/CMSIS/Include/cmsis_gcc.h ****  */
 725:Drivers/CMSIS/Include/cmsis_gcc.h **** __STATIC_FORCEINLINE void __set_MSPLIM(uint32_t MainStackPtrLimit)
 726:Drivers/CMSIS/Include/cmsis_gcc.h **** {
 727:Drivers/CMSIS/Include/cmsis_gcc.h **** #if (!(defined (__ARM_ARCH_8M_MAIN__ ) && (__ARM_ARCH_8M_MAIN__ == 1)) && \
 728:Drivers/CMSIS/Include/cmsis_gcc.h ****     (!defined (__ARM_FEATURE_CMSE) || (__ARM_FEATURE_CMSE < 3)))
 729:Drivers/CMSIS/Include/cmsis_gcc.h ****   // without main extensions, the non-secure MSPLIM is RAZ/WI
 730:Drivers/CMSIS/Include/cmsis_gcc.h ****   (void)MainStackPtrLimit;
 731:Drivers/CMSIS/Include/cmsis_gcc.h **** #else
 732:Drivers/CMSIS/Include/cmsis_gcc.h ****   __ASM volatile ("MSR msplim, %0" : : "r" (MainStackPtrLimit));
 733:Drivers/CMSIS/Include/cmsis_gcc.h **** #endif
 734:Drivers/CMSIS/Include/cmsis_gcc.h **** }
 735:Drivers/CMSIS/Include/cmsis_gcc.h **** 
 736:Drivers/CMSIS/Include/cmsis_gcc.h **** 
 737:Drivers/CMSIS/Include/cmsis_gcc.h **** #if (defined (__ARM_FEATURE_CMSE  ) && (__ARM_FEATURE_CMSE   == 3))
 738:Drivers/CMSIS/Include/cmsis_gcc.h **** /**
 739:Drivers/CMSIS/Include/cmsis_gcc.h ****   \brief   Set Main Stack Pointer Limit (non-secure)
 740:Drivers/CMSIS/Include/cmsis_gcc.h ****   Devices without ARMv8-M Main Extensions (i.e. Cortex-M23) lack the non-secure
 741:Drivers/CMSIS/Include/cmsis_gcc.h ****   Stack Pointer Limit register hence the write is silently ignored.
 742:Drivers/CMSIS/Include/cmsis_gcc.h **** 
 743:Drivers/CMSIS/Include/cmsis_gcc.h ****   \details Assigns the given value to the non-secure Main Stack Pointer Limit (MSPLIM) when in secu
 744:Drivers/CMSIS/Include/cmsis_gcc.h ****   \param [in]    MainStackPtrLimit  Main Stack Pointer value to set
 745:Drivers/CMSIS/Include/cmsis_gcc.h ****  */
 746:Drivers/CMSIS/Include/cmsis_gcc.h **** __STATIC_FORCEINLINE void __TZ_set_MSPLIM_NS(uint32_t MainStackPtrLimit)
 747:Drivers/CMSIS/Include/cmsis_gcc.h **** {
 748:Drivers/CMSIS/Include/cmsis_gcc.h **** #if (!(defined (__ARM_ARCH_8M_MAIN__ ) && (__ARM_ARCH_8M_MAIN__ == 1)))
 749:Drivers/CMSIS/Include/cmsis_gcc.h ****   // without main extensions, the non-secure MSPLIM is RAZ/WI
 750:Drivers/CMSIS/Include/cmsis_gcc.h ****   (void)MainStackPtrLimit;
 751:Drivers/CMSIS/Include/cmsis_gcc.h **** #else
 752:Drivers/CMSIS/Include/cmsis_gcc.h ****   __ASM volatile ("MSR msplim_ns, %0" : : "r" (MainStackPtrLimit));
 753:Drivers/CMSIS/Include/cmsis_gcc.h **** #endif
 754:Drivers/CMSIS/Include/cmsis_gcc.h **** }
 755:Drivers/CMSIS/Include/cmsis_gcc.h **** #endif
 756:Drivers/CMSIS/Include/cmsis_gcc.h **** 
 757:Drivers/CMSIS/Include/cmsis_gcc.h **** #endif /* ((defined (__ARM_ARCH_8M_MAIN__ ) && (__ARM_ARCH_8M_MAIN__ == 1)) || \
 758:Drivers/CMSIS/Include/cmsis_gcc.h ****            (defined (__ARM_ARCH_8M_BASE__ ) && (__ARM_ARCH_8M_BASE__ == 1))    ) */
 759:Drivers/CMSIS/Include/cmsis_gcc.h **** 
 760:Drivers/CMSIS/Include/cmsis_gcc.h **** 
 761:Drivers/CMSIS/Include/cmsis_gcc.h **** /**
 762:Drivers/CMSIS/Include/cmsis_gcc.h ****   \brief   Get FPSCR
 763:Drivers/CMSIS/Include/cmsis_gcc.h ****   \details Returns the current value of the Floating Point Status/Control register.
 764:Drivers/CMSIS/Include/cmsis_gcc.h ****   \return               Floating Point Status/Control register value
 765:Drivers/CMSIS/Include/cmsis_gcc.h ****  */
 766:Drivers/CMSIS/Include/cmsis_gcc.h **** __STATIC_FORCEINLINE uint32_t __get_FPSCR(void)
 767:Drivers/CMSIS/Include/cmsis_gcc.h **** {
 768:Drivers/CMSIS/Include/cmsis_gcc.h **** #if ((defined (__FPU_PRESENT) && (__FPU_PRESENT == 1U)) && \
 769:Drivers/CMSIS/Include/cmsis_gcc.h ****      (defined (__FPU_USED   ) && (__FPU_USED    == 1U))     )
 770:Drivers/CMSIS/Include/cmsis_gcc.h **** #if __has_builtin(__builtin_arm_get_fpscr) 
ARM GAS  /var/folders/n6/c271nzx11xl4r4_m7sqjlt0m0000gn/T//cc22wCrs.s 			page 62


 771:Drivers/CMSIS/Include/cmsis_gcc.h **** // Re-enable using built-in when GCC has been fixed
 772:Drivers/CMSIS/Include/cmsis_gcc.h **** // || (__GNUC__ > 7) || (__GNUC__ == 7 && __GNUC_MINOR__ >= 2)
 773:Drivers/CMSIS/Include/cmsis_gcc.h ****   /* see https://gcc.gnu.org/ml/gcc-patches/2017-04/msg00443.html */
 774:Drivers/CMSIS/Include/cmsis_gcc.h ****   return __builtin_arm_get_fpscr();
 775:Drivers/CMSIS/Include/cmsis_gcc.h **** #else
 776:Drivers/CMSIS/Include/cmsis_gcc.h ****   uint32_t result;
 777:Drivers/CMSIS/Include/cmsis_gcc.h **** 
 778:Drivers/CMSIS/Include/cmsis_gcc.h ****   __ASM volatile ("VMRS %0, fpscr" : "=r" (result) );
 779:Drivers/CMSIS/Include/cmsis_gcc.h ****   return(result);
 780:Drivers/CMSIS/Include/cmsis_gcc.h **** #endif
 781:Drivers/CMSIS/Include/cmsis_gcc.h **** #else
 782:Drivers/CMSIS/Include/cmsis_gcc.h ****   return(0U);
 783:Drivers/CMSIS/Include/cmsis_gcc.h **** #endif
 784:Drivers/CMSIS/Include/cmsis_gcc.h **** }
 785:Drivers/CMSIS/Include/cmsis_gcc.h **** 
 786:Drivers/CMSIS/Include/cmsis_gcc.h **** 
 787:Drivers/CMSIS/Include/cmsis_gcc.h **** /**
 788:Drivers/CMSIS/Include/cmsis_gcc.h ****   \brief   Set FPSCR
 789:Drivers/CMSIS/Include/cmsis_gcc.h ****   \details Assigns the given value to the Floating Point Status/Control register.
 790:Drivers/CMSIS/Include/cmsis_gcc.h ****   \param [in]    fpscr  Floating Point Status/Control value to set
 791:Drivers/CMSIS/Include/cmsis_gcc.h ****  */
 792:Drivers/CMSIS/Include/cmsis_gcc.h **** __STATIC_FORCEINLINE void __set_FPSCR(uint32_t fpscr)
 793:Drivers/CMSIS/Include/cmsis_gcc.h **** {
 794:Drivers/CMSIS/Include/cmsis_gcc.h **** #if ((defined (__FPU_PRESENT) && (__FPU_PRESENT == 1U)) && \
 795:Drivers/CMSIS/Include/cmsis_gcc.h ****      (defined (__FPU_USED   ) && (__FPU_USED    == 1U))     )
 796:Drivers/CMSIS/Include/cmsis_gcc.h **** #if __has_builtin(__builtin_arm_set_fpscr)
 797:Drivers/CMSIS/Include/cmsis_gcc.h **** // Re-enable using built-in when GCC has been fixed
 798:Drivers/CMSIS/Include/cmsis_gcc.h **** // || (__GNUC__ > 7) || (__GNUC__ == 7 && __GNUC_MINOR__ >= 2)
 799:Drivers/CMSIS/Include/cmsis_gcc.h ****   /* see https://gcc.gnu.org/ml/gcc-patches/2017-04/msg00443.html */
 800:Drivers/CMSIS/Include/cmsis_gcc.h ****   __builtin_arm_set_fpscr(fpscr);
 801:Drivers/CMSIS/Include/cmsis_gcc.h **** #else
 802:Drivers/CMSIS/Include/cmsis_gcc.h ****   __ASM volatile ("VMSR fpscr, %0" : : "r" (fpscr) : "vfpcc", "memory");
 803:Drivers/CMSIS/Include/cmsis_gcc.h **** #endif
 804:Drivers/CMSIS/Include/cmsis_gcc.h **** #else
 805:Drivers/CMSIS/Include/cmsis_gcc.h ****   (void)fpscr;
 806:Drivers/CMSIS/Include/cmsis_gcc.h **** #endif
 807:Drivers/CMSIS/Include/cmsis_gcc.h **** }
 808:Drivers/CMSIS/Include/cmsis_gcc.h **** 
 809:Drivers/CMSIS/Include/cmsis_gcc.h **** 
 810:Drivers/CMSIS/Include/cmsis_gcc.h **** /*@} end of CMSIS_Core_RegAccFunctions */
 811:Drivers/CMSIS/Include/cmsis_gcc.h **** 
 812:Drivers/CMSIS/Include/cmsis_gcc.h **** 
 813:Drivers/CMSIS/Include/cmsis_gcc.h **** /* ##########################  Core Instruction Access  ######################### */
 814:Drivers/CMSIS/Include/cmsis_gcc.h **** /** \defgroup CMSIS_Core_InstructionInterface CMSIS Core Instruction Interface
 815:Drivers/CMSIS/Include/cmsis_gcc.h ****   Access to dedicated instructions
 816:Drivers/CMSIS/Include/cmsis_gcc.h ****   @{
 817:Drivers/CMSIS/Include/cmsis_gcc.h **** */
 818:Drivers/CMSIS/Include/cmsis_gcc.h **** 
 819:Drivers/CMSIS/Include/cmsis_gcc.h **** /* Define macros for porting to both thumb1 and thumb2.
 820:Drivers/CMSIS/Include/cmsis_gcc.h ****  * For thumb1, use low register (r0-r7), specified by constraint "l"
 821:Drivers/CMSIS/Include/cmsis_gcc.h ****  * Otherwise, use general registers, specified by constraint "r" */
 822:Drivers/CMSIS/Include/cmsis_gcc.h **** #if defined (__thumb__) && !defined (__thumb2__)
 823:Drivers/CMSIS/Include/cmsis_gcc.h **** #define __CMSIS_GCC_OUT_REG(r) "=l" (r)
 824:Drivers/CMSIS/Include/cmsis_gcc.h **** #define __CMSIS_GCC_RW_REG(r) "+l" (r)
 825:Drivers/CMSIS/Include/cmsis_gcc.h **** #define __CMSIS_GCC_USE_REG(r) "l" (r)
 826:Drivers/CMSIS/Include/cmsis_gcc.h **** #else
 827:Drivers/CMSIS/Include/cmsis_gcc.h **** #define __CMSIS_GCC_OUT_REG(r) "=r" (r)
ARM GAS  /var/folders/n6/c271nzx11xl4r4_m7sqjlt0m0000gn/T//cc22wCrs.s 			page 63


 828:Drivers/CMSIS/Include/cmsis_gcc.h **** #define __CMSIS_GCC_RW_REG(r) "+r" (r)
 829:Drivers/CMSIS/Include/cmsis_gcc.h **** #define __CMSIS_GCC_USE_REG(r) "r" (r)
 830:Drivers/CMSIS/Include/cmsis_gcc.h **** #endif
 831:Drivers/CMSIS/Include/cmsis_gcc.h **** 
 832:Drivers/CMSIS/Include/cmsis_gcc.h **** /**
 833:Drivers/CMSIS/Include/cmsis_gcc.h ****   \brief   No Operation
 834:Drivers/CMSIS/Include/cmsis_gcc.h ****   \details No Operation does nothing. This instruction can be used for code alignment purposes.
 835:Drivers/CMSIS/Include/cmsis_gcc.h ****  */
 836:Drivers/CMSIS/Include/cmsis_gcc.h **** #define __NOP()                             __ASM volatile ("nop")
 837:Drivers/CMSIS/Include/cmsis_gcc.h **** 
 838:Drivers/CMSIS/Include/cmsis_gcc.h **** /**
 839:Drivers/CMSIS/Include/cmsis_gcc.h ****   \brief   Wait For Interrupt
 840:Drivers/CMSIS/Include/cmsis_gcc.h ****   \details Wait For Interrupt is a hint instruction that suspends execution until one of a number o
 841:Drivers/CMSIS/Include/cmsis_gcc.h ****  */
 842:Drivers/CMSIS/Include/cmsis_gcc.h **** #define __WFI()                             __ASM volatile ("wfi")
 843:Drivers/CMSIS/Include/cmsis_gcc.h **** 
 844:Drivers/CMSIS/Include/cmsis_gcc.h **** 
 845:Drivers/CMSIS/Include/cmsis_gcc.h **** /**
 846:Drivers/CMSIS/Include/cmsis_gcc.h ****   \brief   Wait For Event
 847:Drivers/CMSIS/Include/cmsis_gcc.h ****   \details Wait For Event is a hint instruction that permits the processor to enter
 848:Drivers/CMSIS/Include/cmsis_gcc.h ****            a low-power state until one of a number of events occurs.
 849:Drivers/CMSIS/Include/cmsis_gcc.h ****  */
 850:Drivers/CMSIS/Include/cmsis_gcc.h **** #define __WFE()                             __ASM volatile ("wfe")
 851:Drivers/CMSIS/Include/cmsis_gcc.h **** 
 852:Drivers/CMSIS/Include/cmsis_gcc.h **** 
 853:Drivers/CMSIS/Include/cmsis_gcc.h **** /**
 854:Drivers/CMSIS/Include/cmsis_gcc.h ****   \brief   Send Event
 855:Drivers/CMSIS/Include/cmsis_gcc.h ****   \details Send Event is a hint instruction. It causes an event to be signaled to the CPU.
 856:Drivers/CMSIS/Include/cmsis_gcc.h ****  */
 857:Drivers/CMSIS/Include/cmsis_gcc.h **** #define __SEV()                             __ASM volatile ("sev")
 858:Drivers/CMSIS/Include/cmsis_gcc.h **** 
 859:Drivers/CMSIS/Include/cmsis_gcc.h **** 
 860:Drivers/CMSIS/Include/cmsis_gcc.h **** /**
 861:Drivers/CMSIS/Include/cmsis_gcc.h ****   \brief   Instruction Synchronization Barrier
 862:Drivers/CMSIS/Include/cmsis_gcc.h ****   \details Instruction Synchronization Barrier flushes the pipeline in the processor,
 863:Drivers/CMSIS/Include/cmsis_gcc.h ****            so that all instructions following the ISB are fetched from cache or memory,
 864:Drivers/CMSIS/Include/cmsis_gcc.h ****            after the instruction has been completed.
 865:Drivers/CMSIS/Include/cmsis_gcc.h ****  */
 866:Drivers/CMSIS/Include/cmsis_gcc.h **** __STATIC_FORCEINLINE void __ISB(void)
 867:Drivers/CMSIS/Include/cmsis_gcc.h **** {
 868:Drivers/CMSIS/Include/cmsis_gcc.h ****   __ASM volatile ("isb 0xF":::"memory");
 869:Drivers/CMSIS/Include/cmsis_gcc.h **** }
 870:Drivers/CMSIS/Include/cmsis_gcc.h **** 
 871:Drivers/CMSIS/Include/cmsis_gcc.h **** 
 872:Drivers/CMSIS/Include/cmsis_gcc.h **** /**
 873:Drivers/CMSIS/Include/cmsis_gcc.h ****   \brief   Data Synchronization Barrier
 874:Drivers/CMSIS/Include/cmsis_gcc.h ****   \details Acts as a special kind of Data Memory Barrier.
 875:Drivers/CMSIS/Include/cmsis_gcc.h ****            It completes when all explicit memory accesses before this instruction complete.
 876:Drivers/CMSIS/Include/cmsis_gcc.h ****  */
 877:Drivers/CMSIS/Include/cmsis_gcc.h **** __STATIC_FORCEINLINE void __DSB(void)
 878:Drivers/CMSIS/Include/cmsis_gcc.h **** {
 879:Drivers/CMSIS/Include/cmsis_gcc.h ****   __ASM volatile ("dsb 0xF":::"memory");
 880:Drivers/CMSIS/Include/cmsis_gcc.h **** }
 881:Drivers/CMSIS/Include/cmsis_gcc.h **** 
 882:Drivers/CMSIS/Include/cmsis_gcc.h **** 
 883:Drivers/CMSIS/Include/cmsis_gcc.h **** /**
 884:Drivers/CMSIS/Include/cmsis_gcc.h ****   \brief   Data Memory Barrier
ARM GAS  /var/folders/n6/c271nzx11xl4r4_m7sqjlt0m0000gn/T//cc22wCrs.s 			page 64


 885:Drivers/CMSIS/Include/cmsis_gcc.h ****   \details Ensures the apparent order of the explicit memory operations before
 886:Drivers/CMSIS/Include/cmsis_gcc.h ****            and after the instruction, without ensuring their completion.
 887:Drivers/CMSIS/Include/cmsis_gcc.h ****  */
 888:Drivers/CMSIS/Include/cmsis_gcc.h **** __STATIC_FORCEINLINE void __DMB(void)
 889:Drivers/CMSIS/Include/cmsis_gcc.h **** {
 890:Drivers/CMSIS/Include/cmsis_gcc.h ****   __ASM volatile ("dmb 0xF":::"memory");
 891:Drivers/CMSIS/Include/cmsis_gcc.h **** }
 892:Drivers/CMSIS/Include/cmsis_gcc.h **** 
 893:Drivers/CMSIS/Include/cmsis_gcc.h **** 
 894:Drivers/CMSIS/Include/cmsis_gcc.h **** /**
 895:Drivers/CMSIS/Include/cmsis_gcc.h ****   \brief   Reverse byte order (32 bit)
 896:Drivers/CMSIS/Include/cmsis_gcc.h ****   \details Reverses the byte order in unsigned integer value. For example, 0x12345678 becomes 0x785
 897:Drivers/CMSIS/Include/cmsis_gcc.h ****   \param [in]    value  Value to reverse
 898:Drivers/CMSIS/Include/cmsis_gcc.h ****   \return               Reversed value
 899:Drivers/CMSIS/Include/cmsis_gcc.h ****  */
 900:Drivers/CMSIS/Include/cmsis_gcc.h **** __STATIC_FORCEINLINE uint32_t __REV(uint32_t value)
 901:Drivers/CMSIS/Include/cmsis_gcc.h **** {
 902:Drivers/CMSIS/Include/cmsis_gcc.h **** #if (__GNUC__ > 4) || (__GNUC__ == 4 && __GNUC_MINOR__ >= 5)
 903:Drivers/CMSIS/Include/cmsis_gcc.h ****   return __builtin_bswap32(value);
 904:Drivers/CMSIS/Include/cmsis_gcc.h **** #else
 905:Drivers/CMSIS/Include/cmsis_gcc.h ****   uint32_t result;
 906:Drivers/CMSIS/Include/cmsis_gcc.h **** 
 907:Drivers/CMSIS/Include/cmsis_gcc.h ****   __ASM volatile ("rev %0, %1" : __CMSIS_GCC_OUT_REG (result) : __CMSIS_GCC_USE_REG (value) );
 908:Drivers/CMSIS/Include/cmsis_gcc.h ****   return result;
 909:Drivers/CMSIS/Include/cmsis_gcc.h **** #endif
 910:Drivers/CMSIS/Include/cmsis_gcc.h **** }
 911:Drivers/CMSIS/Include/cmsis_gcc.h **** 
 912:Drivers/CMSIS/Include/cmsis_gcc.h **** 
 913:Drivers/CMSIS/Include/cmsis_gcc.h **** /**
 914:Drivers/CMSIS/Include/cmsis_gcc.h ****   \brief   Reverse byte order (16 bit)
 915:Drivers/CMSIS/Include/cmsis_gcc.h ****   \details Reverses the byte order within each halfword of a word. For example, 0x12345678 becomes 
 916:Drivers/CMSIS/Include/cmsis_gcc.h ****   \param [in]    value  Value to reverse
 917:Drivers/CMSIS/Include/cmsis_gcc.h ****   \return               Reversed value
 918:Drivers/CMSIS/Include/cmsis_gcc.h ****  */
 919:Drivers/CMSIS/Include/cmsis_gcc.h **** __STATIC_FORCEINLINE uint32_t __REV16(uint32_t value)
 920:Drivers/CMSIS/Include/cmsis_gcc.h **** {
 921:Drivers/CMSIS/Include/cmsis_gcc.h ****   uint32_t result;
 922:Drivers/CMSIS/Include/cmsis_gcc.h **** 
 923:Drivers/CMSIS/Include/cmsis_gcc.h ****   __ASM volatile ("rev16 %0, %1" : __CMSIS_GCC_OUT_REG (result) : __CMSIS_GCC_USE_REG (value) );
 924:Drivers/CMSIS/Include/cmsis_gcc.h ****   return result;
 925:Drivers/CMSIS/Include/cmsis_gcc.h **** }
 926:Drivers/CMSIS/Include/cmsis_gcc.h **** 
 927:Drivers/CMSIS/Include/cmsis_gcc.h **** 
 928:Drivers/CMSIS/Include/cmsis_gcc.h **** /**
 929:Drivers/CMSIS/Include/cmsis_gcc.h ****   \brief   Reverse byte order (16 bit)
 930:Drivers/CMSIS/Include/cmsis_gcc.h ****   \details Reverses the byte order in a 16-bit value and returns the signed 16-bit result. For exam
 931:Drivers/CMSIS/Include/cmsis_gcc.h ****   \param [in]    value  Value to reverse
 932:Drivers/CMSIS/Include/cmsis_gcc.h ****   \return               Reversed value
 933:Drivers/CMSIS/Include/cmsis_gcc.h ****  */
 934:Drivers/CMSIS/Include/cmsis_gcc.h **** __STATIC_FORCEINLINE int16_t __REVSH(int16_t value)
 935:Drivers/CMSIS/Include/cmsis_gcc.h **** {
 936:Drivers/CMSIS/Include/cmsis_gcc.h **** #if (__GNUC__ > 4) || (__GNUC__ == 4 && __GNUC_MINOR__ >= 8)
 937:Drivers/CMSIS/Include/cmsis_gcc.h ****   return (int16_t)__builtin_bswap16(value);
 938:Drivers/CMSIS/Include/cmsis_gcc.h **** #else
 939:Drivers/CMSIS/Include/cmsis_gcc.h ****   int16_t result;
 940:Drivers/CMSIS/Include/cmsis_gcc.h **** 
 941:Drivers/CMSIS/Include/cmsis_gcc.h ****   __ASM volatile ("revsh %0, %1" : __CMSIS_GCC_OUT_REG (result) : __CMSIS_GCC_USE_REG (value) );
ARM GAS  /var/folders/n6/c271nzx11xl4r4_m7sqjlt0m0000gn/T//cc22wCrs.s 			page 65


 942:Drivers/CMSIS/Include/cmsis_gcc.h ****   return result;
 943:Drivers/CMSIS/Include/cmsis_gcc.h **** #endif
 944:Drivers/CMSIS/Include/cmsis_gcc.h **** }
 945:Drivers/CMSIS/Include/cmsis_gcc.h **** 
 946:Drivers/CMSIS/Include/cmsis_gcc.h **** 
 947:Drivers/CMSIS/Include/cmsis_gcc.h **** /**
 948:Drivers/CMSIS/Include/cmsis_gcc.h ****   \brief   Rotate Right in unsigned value (32 bit)
 949:Drivers/CMSIS/Include/cmsis_gcc.h ****   \details Rotate Right (immediate) provides the value of the contents of a register rotated by a v
 950:Drivers/CMSIS/Include/cmsis_gcc.h ****   \param [in]    op1  Value to rotate
 951:Drivers/CMSIS/Include/cmsis_gcc.h ****   \param [in]    op2  Number of Bits to rotate
 952:Drivers/CMSIS/Include/cmsis_gcc.h ****   \return               Rotated value
 953:Drivers/CMSIS/Include/cmsis_gcc.h ****  */
 954:Drivers/CMSIS/Include/cmsis_gcc.h **** __STATIC_FORCEINLINE uint32_t __ROR(uint32_t op1, uint32_t op2)
 955:Drivers/CMSIS/Include/cmsis_gcc.h **** {
 956:Drivers/CMSIS/Include/cmsis_gcc.h ****   op2 %= 32U;
 957:Drivers/CMSIS/Include/cmsis_gcc.h ****   if (op2 == 0U)
 958:Drivers/CMSIS/Include/cmsis_gcc.h ****   {
 959:Drivers/CMSIS/Include/cmsis_gcc.h ****     return op1;
 960:Drivers/CMSIS/Include/cmsis_gcc.h ****   }
 961:Drivers/CMSIS/Include/cmsis_gcc.h ****   return (op1 >> op2) | (op1 << (32U - op2));
 962:Drivers/CMSIS/Include/cmsis_gcc.h **** }
 963:Drivers/CMSIS/Include/cmsis_gcc.h **** 
 964:Drivers/CMSIS/Include/cmsis_gcc.h **** 
 965:Drivers/CMSIS/Include/cmsis_gcc.h **** /**
 966:Drivers/CMSIS/Include/cmsis_gcc.h ****   \brief   Breakpoint
 967:Drivers/CMSIS/Include/cmsis_gcc.h ****   \details Causes the processor to enter Debug state.
 968:Drivers/CMSIS/Include/cmsis_gcc.h ****            Debug tools can use this to investigate system state when the instruction at a particula
 969:Drivers/CMSIS/Include/cmsis_gcc.h ****   \param [in]    value  is ignored by the processor.
 970:Drivers/CMSIS/Include/cmsis_gcc.h ****                  If required, a debugger can use it to store additional information about the break
 971:Drivers/CMSIS/Include/cmsis_gcc.h ****  */
 972:Drivers/CMSIS/Include/cmsis_gcc.h **** #define __BKPT(value)                       __ASM volatile ("bkpt "#value)
 973:Drivers/CMSIS/Include/cmsis_gcc.h **** 
 974:Drivers/CMSIS/Include/cmsis_gcc.h **** 
 975:Drivers/CMSIS/Include/cmsis_gcc.h **** /**
 976:Drivers/CMSIS/Include/cmsis_gcc.h ****   \brief   Reverse bit order of value
 977:Drivers/CMSIS/Include/cmsis_gcc.h ****   \details Reverses the bit order of the given value.
 978:Drivers/CMSIS/Include/cmsis_gcc.h ****   \param [in]    value  Value to reverse
 979:Drivers/CMSIS/Include/cmsis_gcc.h ****   \return               Reversed value
 980:Drivers/CMSIS/Include/cmsis_gcc.h ****  */
 981:Drivers/CMSIS/Include/cmsis_gcc.h **** __STATIC_FORCEINLINE uint32_t __RBIT(uint32_t value)
 1192              		.loc 2 981 31 view .LVU470
 1193              	.LBB9:
 982:Drivers/CMSIS/Include/cmsis_gcc.h **** {
 983:Drivers/CMSIS/Include/cmsis_gcc.h ****   uint32_t result;
 1194              		.loc 2 983 3 view .LVU471
 984:Drivers/CMSIS/Include/cmsis_gcc.h **** 
 985:Drivers/CMSIS/Include/cmsis_gcc.h **** #if ((defined (__ARM_ARCH_7M__      ) && (__ARM_ARCH_7M__      == 1)) || \
 986:Drivers/CMSIS/Include/cmsis_gcc.h ****      (defined (__ARM_ARCH_7EM__     ) && (__ARM_ARCH_7EM__     == 1)) || \
 987:Drivers/CMSIS/Include/cmsis_gcc.h ****      (defined (__ARM_ARCH_8M_MAIN__ ) && (__ARM_ARCH_8M_MAIN__ == 1))    )
 988:Drivers/CMSIS/Include/cmsis_gcc.h ****    __ASM volatile ("rbit %0, %1" : "=r" (result) : "r" (value) );
 1195              		.loc 2 988 4 view .LVU472
 1196 00c8 C022     		movs	r2, #192
 1197              		.syntax unified
 1198              	@ 988 "Drivers/CMSIS/Include/cmsis_gcc.h" 1
 1199 00ca 92FAA2F2 		rbit r2, r2
 1200              	@ 0 "" 2
 1201              	.LVL70:
ARM GAS  /var/folders/n6/c271nzx11xl4r4_m7sqjlt0m0000gn/T//cc22wCrs.s 			page 66


 989:Drivers/CMSIS/Include/cmsis_gcc.h **** #else
 990:Drivers/CMSIS/Include/cmsis_gcc.h ****   uint32_t s = (4U /*sizeof(v)*/ * 8U) - 1U; /* extra shift needed at end */
 991:Drivers/CMSIS/Include/cmsis_gcc.h **** 
 992:Drivers/CMSIS/Include/cmsis_gcc.h ****   result = value;                      /* r will be reversed bits of v; first get LSB of v */
 993:Drivers/CMSIS/Include/cmsis_gcc.h ****   for (value >>= 1U; value != 0U; value >>= 1U)
 994:Drivers/CMSIS/Include/cmsis_gcc.h ****   {
 995:Drivers/CMSIS/Include/cmsis_gcc.h ****     result <<= 1U;
 996:Drivers/CMSIS/Include/cmsis_gcc.h ****     result |= value & 1U;
 997:Drivers/CMSIS/Include/cmsis_gcc.h ****     s--;
 998:Drivers/CMSIS/Include/cmsis_gcc.h ****   }
 999:Drivers/CMSIS/Include/cmsis_gcc.h ****   result <<= s;                        /* shift when v's highest bits are zero */
1000:Drivers/CMSIS/Include/cmsis_gcc.h **** #endif
1001:Drivers/CMSIS/Include/cmsis_gcc.h ****   return result;
 1202              		.loc 2 1001 3 view .LVU473
 1203              		.loc 2 1001 3 is_stmt 0 view .LVU474
 1204              		.thumb
 1205              		.syntax unified
 1206              	.LBE9:
 1207              	.LBE8:
 878:Drivers/BSP/STM32F769I-Discovery/stm32f769i_discovery_qspi.c ****   
 1208              		.loc 1 878 3 discriminator 2 view .LVU475
 1209 00ce B2FA82F2 		clz	r2, r2
 1210 00d2 0321     		movs	r1, #3
 1211 00d4 01FA02F2 		lsl	r2, r1, r2
 1212 00d8 03F03F03 		and	r3, r3, #63
 1213 00dc 1343     		orrs	r3, r3, r2
 1214 00de 8DF80530 		strb	r3, [sp, #5]
 881:Drivers/BSP/STM32F769I-Discovery/stm32f769i_discovery_qspi.c ****   {
 1215              		.loc 1 881 3 is_stmt 1 view .LVU476
 881:Drivers/BSP/STM32F769I-Discovery/stm32f769i_discovery_qspi.c ****   {
 1216              		.loc 1 881 7 is_stmt 0 view .LVU477
 1217 00e2 41F28832 		movw	r2, #5000
 1218 00e6 02A9     		add	r1, sp, #8
 1219 00e8 2046     		mov	r0, r4
 1220 00ea FFF7FEFF 		bl	HAL_QSPI_Command
 1221              	.LVL71:
 881:Drivers/BSP/STM32F769I-Discovery/stm32f769i_discovery_qspi.c ****   {
 1222              		.loc 1 881 6 discriminator 1 view .LVU478
 1223 00ee 08B1     		cbz	r0, .L71
 883:Drivers/BSP/STM32F769I-Discovery/stm32f769i_discovery_qspi.c ****   }
 1224              		.loc 1 883 12 view .LVU479
 1225 00f0 0124     		movs	r4, #1
 1226              	.LVL72:
 883:Drivers/BSP/STM32F769I-Discovery/stm32f769i_discovery_qspi.c ****   }
 1227              		.loc 1 883 12 view .LVU480
 1228 00f2 A0E7     		b	.L57
 1229              	.LVL73:
 1230              	.L71:
 887:Drivers/BSP/STM32F769I-Discovery/stm32f769i_discovery_qspi.c ****   {
 1231              		.loc 1 887 3 is_stmt 1 view .LVU481
 887:Drivers/BSP/STM32F769I-Discovery/stm32f769i_discovery_qspi.c ****   {
 1232              		.loc 1 887 7 is_stmt 0 view .LVU482
 1233 00f4 41F28832 		movw	r2, #5000
 1234 00f8 01A9     		add	r1, sp, #4
 1235 00fa 2046     		mov	r0, r4
 1236 00fc FFF7FEFF 		bl	HAL_QSPI_Transmit
 1237              	.LVL74:
ARM GAS  /var/folders/n6/c271nzx11xl4r4_m7sqjlt0m0000gn/T//cc22wCrs.s 			page 67


 887:Drivers/BSP/STM32F769I-Discovery/stm32f769i_discovery_qspi.c ****   {
 1238              		.loc 1 887 6 discriminator 1 view .LVU483
 1239 0100 0446     		mov	r4, r0
 1240              	.LVL75:
 887:Drivers/BSP/STM32F769I-Discovery/stm32f769i_discovery_qspi.c ****   {
 1241              		.loc 1 887 6 discriminator 1 view .LVU484
 1242 0102 08B1     		cbz	r0, .L72
 889:Drivers/BSP/STM32F769I-Discovery/stm32f769i_discovery_qspi.c ****   }
 1243              		.loc 1 889 12 view .LVU485
 1244 0104 0124     		movs	r4, #1
 1245 0106 96E7     		b	.L57
 1246              	.L72:
 893:Drivers/BSP/STM32F769I-Discovery/stm32f769i_discovery_qspi.c ****   
 1247              		.loc 1 893 3 is_stmt 1 view .LVU486
 1248 0108 2820     		movs	r0, #40
 1249 010a FFF7FEFF 		bl	HAL_Delay
 1250              	.LVL76:
 895:Drivers/BSP/STM32F769I-Discovery/stm32f769i_discovery_qspi.c **** }
 1251              		.loc 1 895 3 view .LVU487
 895:Drivers/BSP/STM32F769I-Discovery/stm32f769i_discovery_qspi.c **** }
 1252              		.loc 1 895 10 is_stmt 0 view .LVU488
 1253 010e 92E7     		b	.L57
 1254              		.cfi_endproc
 1255              	.LFE154:
 1257              		.section	.text.QSPI_OutDrvStrengthCfg,"ax",%progbits
 1258              		.align	1
 1259              		.syntax unified
 1260              		.thumb
 1261              		.thumb_func
 1263              	QSPI_OutDrvStrengthCfg:
 1264              	.LVL77:
 1265              	.LFB157:
 982:Drivers/BSP/STM32F769I-Discovery/stm32f769i_discovery_qspi.c ****   QSPI_CommandTypeDef s_command;
 1266              		.loc 1 982 1 is_stmt 1 view -0
 1267              		.cfi_startproc
 1268              		@ args = 0, pretend = 0, frame = 64
 1269              		@ frame_needed = 0, uses_anonymous_args = 0
 982:Drivers/BSP/STM32F769I-Discovery/stm32f769i_discovery_qspi.c ****   QSPI_CommandTypeDef s_command;
 1270              		.loc 1 982 1 is_stmt 0 view .LVU490
 1271 0000 10B5     		push	{r4, lr}
 1272              		.cfi_def_cfa_offset 8
 1273              		.cfi_offset 4, -8
 1274              		.cfi_offset 14, -4
 1275 0002 90B0     		sub	sp, sp, #64
 1276              		.cfi_def_cfa_offset 72
 1277 0004 0446     		mov	r4, r0
 983:Drivers/BSP/STM32F769I-Discovery/stm32f769i_discovery_qspi.c ****   uint8_t reg[2];
 1278              		.loc 1 983 3 is_stmt 1 view .LVU491
 984:Drivers/BSP/STM32F769I-Discovery/stm32f769i_discovery_qspi.c **** 
 1279              		.loc 1 984 3 view .LVU492
 987:Drivers/BSP/STM32F769I-Discovery/stm32f769i_discovery_qspi.c ****   s_command.Instruction       = READ_STATUS_REG_CMD;
 1280              		.loc 1 987 3 view .LVU493
 987:Drivers/BSP/STM32F769I-Discovery/stm32f769i_discovery_qspi.c ****   s_command.Instruction       = READ_STATUS_REG_CMD;
 1281              		.loc 1 987 31 is_stmt 0 view .LVU494
 1282 0006 4FF44073 		mov	r3, #768
 1283 000a 0893     		str	r3, [sp, #32]
 988:Drivers/BSP/STM32F769I-Discovery/stm32f769i_discovery_qspi.c ****   s_command.AddressMode       = QSPI_ADDRESS_NONE;
ARM GAS  /var/folders/n6/c271nzx11xl4r4_m7sqjlt0m0000gn/T//cc22wCrs.s 			page 68


 1284              		.loc 1 988 3 is_stmt 1 view .LVU495
 988:Drivers/BSP/STM32F769I-Discovery/stm32f769i_discovery_qspi.c ****   s_command.AddressMode       = QSPI_ADDRESS_NONE;
 1285              		.loc 1 988 31 is_stmt 0 view .LVU496
 1286 000c 0523     		movs	r3, #5
 1287 000e 0293     		str	r3, [sp, #8]
 989:Drivers/BSP/STM32F769I-Discovery/stm32f769i_discovery_qspi.c ****   s_command.AlternateByteMode = QSPI_ALTERNATE_BYTES_NONE;
 1288              		.loc 1 989 3 is_stmt 1 view .LVU497
 989:Drivers/BSP/STM32F769I-Discovery/stm32f769i_discovery_qspi.c ****   s_command.AlternateByteMode = QSPI_ALTERNATE_BYTES_NONE;
 1289              		.loc 1 989 31 is_stmt 0 view .LVU498
 1290 0010 0023     		movs	r3, #0
 1291 0012 0993     		str	r3, [sp, #36]
 990:Drivers/BSP/STM32F769I-Discovery/stm32f769i_discovery_qspi.c ****   s_command.DataMode          = QSPI_DATA_4_LINES;
 1292              		.loc 1 990 3 is_stmt 1 view .LVU499
 990:Drivers/BSP/STM32F769I-Discovery/stm32f769i_discovery_qspi.c ****   s_command.DataMode          = QSPI_DATA_4_LINES;
 1293              		.loc 1 990 31 is_stmt 0 view .LVU500
 1294 0014 0A93     		str	r3, [sp, #40]
 991:Drivers/BSP/STM32F769I-Discovery/stm32f769i_discovery_qspi.c ****   s_command.DummyCycles       = 0;
 1295              		.loc 1 991 3 is_stmt 1 view .LVU501
 991:Drivers/BSP/STM32F769I-Discovery/stm32f769i_discovery_qspi.c ****   s_command.DummyCycles       = 0;
 1296              		.loc 1 991 31 is_stmt 0 view .LVU502
 1297 0016 4FF04072 		mov	r2, #50331648
 1298 001a 0B92     		str	r2, [sp, #44]
 992:Drivers/BSP/STM32F769I-Discovery/stm32f769i_discovery_qspi.c ****   s_command.NbData            = 1;
 1299              		.loc 1 992 3 is_stmt 1 view .LVU503
 992:Drivers/BSP/STM32F769I-Discovery/stm32f769i_discovery_qspi.c ****   s_command.NbData            = 1;
 1300              		.loc 1 992 31 is_stmt 0 view .LVU504
 1301 001c 0793     		str	r3, [sp, #28]
 993:Drivers/BSP/STM32F769I-Discovery/stm32f769i_discovery_qspi.c ****   s_command.DdrMode           = QSPI_DDR_MODE_DISABLE;
 1302              		.loc 1 993 3 is_stmt 1 view .LVU505
 993:Drivers/BSP/STM32F769I-Discovery/stm32f769i_discovery_qspi.c ****   s_command.DdrMode           = QSPI_DDR_MODE_DISABLE;
 1303              		.loc 1 993 31 is_stmt 0 view .LVU506
 1304 001e 0122     		movs	r2, #1
 1305 0020 0C92     		str	r2, [sp, #48]
 994:Drivers/BSP/STM32F769I-Discovery/stm32f769i_discovery_qspi.c ****   s_command.DdrHoldHalfCycle  = QSPI_DDR_HHC_ANALOG_DELAY;
 1306              		.loc 1 994 3 is_stmt 1 view .LVU507
 994:Drivers/BSP/STM32F769I-Discovery/stm32f769i_discovery_qspi.c ****   s_command.DdrHoldHalfCycle  = QSPI_DDR_HHC_ANALOG_DELAY;
 1307              		.loc 1 994 31 is_stmt 0 view .LVU508
 1308 0022 0D93     		str	r3, [sp, #52]
 995:Drivers/BSP/STM32F769I-Discovery/stm32f769i_discovery_qspi.c ****   s_command.SIOOMode          = QSPI_SIOO_INST_EVERY_CMD;
 1309              		.loc 1 995 3 is_stmt 1 view .LVU509
 995:Drivers/BSP/STM32F769I-Discovery/stm32f769i_discovery_qspi.c ****   s_command.SIOOMode          = QSPI_SIOO_INST_EVERY_CMD;
 1310              		.loc 1 995 31 is_stmt 0 view .LVU510
 1311 0024 0E93     		str	r3, [sp, #56]
 996:Drivers/BSP/STM32F769I-Discovery/stm32f769i_discovery_qspi.c **** 
 1312              		.loc 1 996 3 is_stmt 1 view .LVU511
 996:Drivers/BSP/STM32F769I-Discovery/stm32f769i_discovery_qspi.c **** 
 1313              		.loc 1 996 31 is_stmt 0 view .LVU512
 1314 0026 0F93     		str	r3, [sp, #60]
 999:Drivers/BSP/STM32F769I-Discovery/stm32f769i_discovery_qspi.c ****   {
 1315              		.loc 1 999 3 is_stmt 1 view .LVU513
 999:Drivers/BSP/STM32F769I-Discovery/stm32f769i_discovery_qspi.c ****   {
 1316              		.loc 1 999 7 is_stmt 0 view .LVU514
 1317 0028 41F28832 		movw	r2, #5000
 1318 002c 02A9     		add	r1, sp, #8
 1319 002e FFF7FEFF 		bl	HAL_QSPI_Command
 1320              	.LVL78:
 999:Drivers/BSP/STM32F769I-Discovery/stm32f769i_discovery_qspi.c ****   {
ARM GAS  /var/folders/n6/c271nzx11xl4r4_m7sqjlt0m0000gn/T//cc22wCrs.s 			page 69


 1321              		.loc 1 999 6 discriminator 1 view .LVU515
 1322 0032 10B1     		cbz	r0, .L83
1001:Drivers/BSP/STM32F769I-Discovery/stm32f769i_discovery_qspi.c ****   }
 1323              		.loc 1 1001 12 view .LVU516
 1324 0034 0120     		movs	r0, #1
 1325              	.L74:
1068:Drivers/BSP/STM32F769I-Discovery/stm32f769i_discovery_qspi.c **** 
 1326              		.loc 1 1068 1 view .LVU517
 1327 0036 10B0     		add	sp, sp, #64
 1328              		.cfi_remember_state
 1329              		.cfi_def_cfa_offset 8
 1330              		@ sp needed
 1331 0038 10BD     		pop	{r4, pc}
 1332              	.LVL79:
 1333              	.L83:
 1334              		.cfi_restore_state
1005:Drivers/BSP/STM32F769I-Discovery/stm32f769i_discovery_qspi.c ****   {
 1335              		.loc 1 1005 3 is_stmt 1 view .LVU518
1005:Drivers/BSP/STM32F769I-Discovery/stm32f769i_discovery_qspi.c ****   {
 1336              		.loc 1 1005 7 is_stmt 0 view .LVU519
 1337 003a 41F28832 		movw	r2, #5000
 1338 003e 01A9     		add	r1, sp, #4
 1339 0040 2046     		mov	r0, r4
 1340 0042 FFF7FEFF 		bl	HAL_QSPI_Receive
 1341              	.LVL80:
1005:Drivers/BSP/STM32F769I-Discovery/stm32f769i_discovery_qspi.c ****   {
 1342              		.loc 1 1005 6 discriminator 1 view .LVU520
 1343 0046 08B1     		cbz	r0, .L84
1007:Drivers/BSP/STM32F769I-Discovery/stm32f769i_discovery_qspi.c ****   }
 1344              		.loc 1 1007 12 view .LVU521
 1345 0048 0120     		movs	r0, #1
 1346 004a F4E7     		b	.L74
 1347              	.L84:
1011:Drivers/BSP/STM32F769I-Discovery/stm32f769i_discovery_qspi.c ****   s_command.Instruction       = READ_CFG_REG_CMD;
 1348              		.loc 1 1011 3 is_stmt 1 view .LVU522
1011:Drivers/BSP/STM32F769I-Discovery/stm32f769i_discovery_qspi.c ****   s_command.Instruction       = READ_CFG_REG_CMD;
 1349              		.loc 1 1011 31 is_stmt 0 view .LVU523
 1350 004c 4FF44073 		mov	r3, #768
 1351 0050 0893     		str	r3, [sp, #32]
1012:Drivers/BSP/STM32F769I-Discovery/stm32f769i_discovery_qspi.c ****   s_command.AddressMode       = QSPI_ADDRESS_NONE;
 1352              		.loc 1 1012 3 is_stmt 1 view .LVU524
1012:Drivers/BSP/STM32F769I-Discovery/stm32f769i_discovery_qspi.c ****   s_command.AddressMode       = QSPI_ADDRESS_NONE;
 1353              		.loc 1 1012 31 is_stmt 0 view .LVU525
 1354 0052 1523     		movs	r3, #21
 1355 0054 0293     		str	r3, [sp, #8]
1013:Drivers/BSP/STM32F769I-Discovery/stm32f769i_discovery_qspi.c ****   s_command.AlternateByteMode = QSPI_ALTERNATE_BYTES_NONE;
 1356              		.loc 1 1013 3 is_stmt 1 view .LVU526
1013:Drivers/BSP/STM32F769I-Discovery/stm32f769i_discovery_qspi.c ****   s_command.AlternateByteMode = QSPI_ALTERNATE_BYTES_NONE;
 1357              		.loc 1 1013 31 is_stmt 0 view .LVU527
 1358 0056 0023     		movs	r3, #0
 1359 0058 0993     		str	r3, [sp, #36]
1014:Drivers/BSP/STM32F769I-Discovery/stm32f769i_discovery_qspi.c ****   s_command.DataMode          = QSPI_DATA_4_LINES;
 1360              		.loc 1 1014 3 is_stmt 1 view .LVU528
1014:Drivers/BSP/STM32F769I-Discovery/stm32f769i_discovery_qspi.c ****   s_command.DataMode          = QSPI_DATA_4_LINES;
 1361              		.loc 1 1014 31 is_stmt 0 view .LVU529
 1362 005a 0A93     		str	r3, [sp, #40]
1015:Drivers/BSP/STM32F769I-Discovery/stm32f769i_discovery_qspi.c ****   s_command.DummyCycles       = 0;
ARM GAS  /var/folders/n6/c271nzx11xl4r4_m7sqjlt0m0000gn/T//cc22wCrs.s 			page 70


 1363              		.loc 1 1015 3 is_stmt 1 view .LVU530
1015:Drivers/BSP/STM32F769I-Discovery/stm32f769i_discovery_qspi.c ****   s_command.DummyCycles       = 0;
 1364              		.loc 1 1015 31 is_stmt 0 view .LVU531
 1365 005c 4FF04072 		mov	r2, #50331648
 1366 0060 0B92     		str	r2, [sp, #44]
1016:Drivers/BSP/STM32F769I-Discovery/stm32f769i_discovery_qspi.c ****   s_command.NbData            = 1;
 1367              		.loc 1 1016 3 is_stmt 1 view .LVU532
1016:Drivers/BSP/STM32F769I-Discovery/stm32f769i_discovery_qspi.c ****   s_command.NbData            = 1;
 1368              		.loc 1 1016 31 is_stmt 0 view .LVU533
 1369 0062 0793     		str	r3, [sp, #28]
1017:Drivers/BSP/STM32F769I-Discovery/stm32f769i_discovery_qspi.c ****   s_command.DdrMode           = QSPI_DDR_MODE_DISABLE;
 1370              		.loc 1 1017 3 is_stmt 1 view .LVU534
1017:Drivers/BSP/STM32F769I-Discovery/stm32f769i_discovery_qspi.c ****   s_command.DdrMode           = QSPI_DDR_MODE_DISABLE;
 1371              		.loc 1 1017 31 is_stmt 0 view .LVU535
 1372 0064 0122     		movs	r2, #1
 1373 0066 0C92     		str	r2, [sp, #48]
1018:Drivers/BSP/STM32F769I-Discovery/stm32f769i_discovery_qspi.c ****   s_command.DdrHoldHalfCycle  = QSPI_DDR_HHC_ANALOG_DELAY;
 1374              		.loc 1 1018 3 is_stmt 1 view .LVU536
1018:Drivers/BSP/STM32F769I-Discovery/stm32f769i_discovery_qspi.c ****   s_command.DdrHoldHalfCycle  = QSPI_DDR_HHC_ANALOG_DELAY;
 1375              		.loc 1 1018 31 is_stmt 0 view .LVU537
 1376 0068 0D93     		str	r3, [sp, #52]
1019:Drivers/BSP/STM32F769I-Discovery/stm32f769i_discovery_qspi.c ****   s_command.SIOOMode          = QSPI_SIOO_INST_EVERY_CMD;
 1377              		.loc 1 1019 3 is_stmt 1 view .LVU538
1019:Drivers/BSP/STM32F769I-Discovery/stm32f769i_discovery_qspi.c ****   s_command.SIOOMode          = QSPI_SIOO_INST_EVERY_CMD;
 1378              		.loc 1 1019 31 is_stmt 0 view .LVU539
 1379 006a 0E93     		str	r3, [sp, #56]
1020:Drivers/BSP/STM32F769I-Discovery/stm32f769i_discovery_qspi.c **** 
 1380              		.loc 1 1020 3 is_stmt 1 view .LVU540
1020:Drivers/BSP/STM32F769I-Discovery/stm32f769i_discovery_qspi.c **** 
 1381              		.loc 1 1020 31 is_stmt 0 view .LVU541
 1382 006c 0F93     		str	r3, [sp, #60]
1023:Drivers/BSP/STM32F769I-Discovery/stm32f769i_discovery_qspi.c ****   {
 1383              		.loc 1 1023 3 is_stmt 1 view .LVU542
1023:Drivers/BSP/STM32F769I-Discovery/stm32f769i_discovery_qspi.c ****   {
 1384              		.loc 1 1023 7 is_stmt 0 view .LVU543
 1385 006e 41F28832 		movw	r2, #5000
 1386 0072 02A9     		add	r1, sp, #8
 1387 0074 2046     		mov	r0, r4
 1388 0076 FFF7FEFF 		bl	HAL_QSPI_Command
 1389              	.LVL81:
1023:Drivers/BSP/STM32F769I-Discovery/stm32f769i_discovery_qspi.c ****   {
 1390              		.loc 1 1023 6 discriminator 1 view .LVU544
 1391 007a 08B1     		cbz	r0, .L85
1025:Drivers/BSP/STM32F769I-Discovery/stm32f769i_discovery_qspi.c ****   }
 1392              		.loc 1 1025 12 view .LVU545
 1393 007c 0120     		movs	r0, #1
 1394 007e DAE7     		b	.L74
 1395              	.L85:
1029:Drivers/BSP/STM32F769I-Discovery/stm32f769i_discovery_qspi.c ****   {
 1396              		.loc 1 1029 3 is_stmt 1 view .LVU546
1029:Drivers/BSP/STM32F769I-Discovery/stm32f769i_discovery_qspi.c ****   {
 1397              		.loc 1 1029 7 is_stmt 0 view .LVU547
 1398 0080 41F28832 		movw	r2, #5000
 1399 0084 0DF10501 		add	r1, sp, #5
 1400 0088 2046     		mov	r0, r4
 1401 008a FFF7FEFF 		bl	HAL_QSPI_Receive
 1402              	.LVL82:
ARM GAS  /var/folders/n6/c271nzx11xl4r4_m7sqjlt0m0000gn/T//cc22wCrs.s 			page 71


1029:Drivers/BSP/STM32F769I-Discovery/stm32f769i_discovery_qspi.c ****   {
 1403              		.loc 1 1029 6 discriminator 1 view .LVU548
 1404 008e 08B1     		cbz	r0, .L86
1031:Drivers/BSP/STM32F769I-Discovery/stm32f769i_discovery_qspi.c ****   }
 1405              		.loc 1 1031 12 view .LVU549
 1406 0090 0120     		movs	r0, #1
 1407 0092 D0E7     		b	.L74
 1408              	.L86:
1035:Drivers/BSP/STM32F769I-Discovery/stm32f769i_discovery_qspi.c ****   {
 1409              		.loc 1 1035 3 is_stmt 1 view .LVU550
1035:Drivers/BSP/STM32F769I-Discovery/stm32f769i_discovery_qspi.c ****   {
 1410              		.loc 1 1035 7 is_stmt 0 view .LVU551
 1411 0094 1C48     		ldr	r0, .L89
 1412 0096 FFF7FEFF 		bl	QSPI_WriteEnable
 1413              	.LVL83:
1035:Drivers/BSP/STM32F769I-Discovery/stm32f769i_discovery_qspi.c ****   {
 1414              		.loc 1 1035 6 discriminator 1 view .LVU552
 1415 009a 08B1     		cbz	r0, .L87
1037:Drivers/BSP/STM32F769I-Discovery/stm32f769i_discovery_qspi.c ****   }
 1416              		.loc 1 1037 12 view .LVU553
 1417 009c 0120     		movs	r0, #1
 1418 009e CAE7     		b	.L74
 1419              	.L87:
1041:Drivers/BSP/STM32F769I-Discovery/stm32f769i_discovery_qspi.c ****   s_command.Instruction       = WRITE_STATUS_CFG_REG_CMD;
 1420              		.loc 1 1041 3 is_stmt 1 view .LVU554
1041:Drivers/BSP/STM32F769I-Discovery/stm32f769i_discovery_qspi.c ****   s_command.Instruction       = WRITE_STATUS_CFG_REG_CMD;
 1421              		.loc 1 1041 31 is_stmt 0 view .LVU555
 1422 00a0 4FF44073 		mov	r3, #768
 1423 00a4 0893     		str	r3, [sp, #32]
1042:Drivers/BSP/STM32F769I-Discovery/stm32f769i_discovery_qspi.c ****   s_command.AddressMode       = QSPI_ADDRESS_NONE;
 1424              		.loc 1 1042 3 is_stmt 1 view .LVU556
1042:Drivers/BSP/STM32F769I-Discovery/stm32f769i_discovery_qspi.c ****   s_command.AddressMode       = QSPI_ADDRESS_NONE;
 1425              		.loc 1 1042 31 is_stmt 0 view .LVU557
 1426 00a6 0123     		movs	r3, #1
 1427 00a8 0293     		str	r3, [sp, #8]
1043:Drivers/BSP/STM32F769I-Discovery/stm32f769i_discovery_qspi.c ****   s_command.AlternateByteMode = QSPI_ALTERNATE_BYTES_NONE;
 1428              		.loc 1 1043 3 is_stmt 1 view .LVU558
1043:Drivers/BSP/STM32F769I-Discovery/stm32f769i_discovery_qspi.c ****   s_command.AlternateByteMode = QSPI_ALTERNATE_BYTES_NONE;
 1429              		.loc 1 1043 31 is_stmt 0 view .LVU559
 1430 00aa 0023     		movs	r3, #0
 1431 00ac 0993     		str	r3, [sp, #36]
1044:Drivers/BSP/STM32F769I-Discovery/stm32f769i_discovery_qspi.c ****   s_command.DataMode          = QSPI_DATA_4_LINES;
 1432              		.loc 1 1044 3 is_stmt 1 view .LVU560
1044:Drivers/BSP/STM32F769I-Discovery/stm32f769i_discovery_qspi.c ****   s_command.DataMode          = QSPI_DATA_4_LINES;
 1433              		.loc 1 1044 31 is_stmt 0 view .LVU561
 1434 00ae 0A93     		str	r3, [sp, #40]
1045:Drivers/BSP/STM32F769I-Discovery/stm32f769i_discovery_qspi.c ****   s_command.DummyCycles       = 0;
 1435              		.loc 1 1045 3 is_stmt 1 view .LVU562
1045:Drivers/BSP/STM32F769I-Discovery/stm32f769i_discovery_qspi.c ****   s_command.DummyCycles       = 0;
 1436              		.loc 1 1045 31 is_stmt 0 view .LVU563
 1437 00b0 4FF04072 		mov	r2, #50331648
 1438 00b4 0B92     		str	r2, [sp, #44]
1046:Drivers/BSP/STM32F769I-Discovery/stm32f769i_discovery_qspi.c ****   s_command.NbData            = 2;
 1439              		.loc 1 1046 3 is_stmt 1 view .LVU564
1046:Drivers/BSP/STM32F769I-Discovery/stm32f769i_discovery_qspi.c ****   s_command.NbData            = 2;
 1440              		.loc 1 1046 31 is_stmt 0 view .LVU565
 1441 00b6 0793     		str	r3, [sp, #28]
ARM GAS  /var/folders/n6/c271nzx11xl4r4_m7sqjlt0m0000gn/T//cc22wCrs.s 			page 72


1047:Drivers/BSP/STM32F769I-Discovery/stm32f769i_discovery_qspi.c ****   s_command.DdrMode           = QSPI_DDR_MODE_DISABLE;
 1442              		.loc 1 1047 3 is_stmt 1 view .LVU566
1047:Drivers/BSP/STM32F769I-Discovery/stm32f769i_discovery_qspi.c ****   s_command.DdrMode           = QSPI_DDR_MODE_DISABLE;
 1443              		.loc 1 1047 31 is_stmt 0 view .LVU567
 1444 00b8 0222     		movs	r2, #2
 1445 00ba 0C92     		str	r2, [sp, #48]
1048:Drivers/BSP/STM32F769I-Discovery/stm32f769i_discovery_qspi.c ****   s_command.DdrHoldHalfCycle  = QSPI_DDR_HHC_ANALOG_DELAY;
 1446              		.loc 1 1048 3 is_stmt 1 view .LVU568
1048:Drivers/BSP/STM32F769I-Discovery/stm32f769i_discovery_qspi.c ****   s_command.DdrHoldHalfCycle  = QSPI_DDR_HHC_ANALOG_DELAY;
 1447              		.loc 1 1048 31 is_stmt 0 view .LVU569
 1448 00bc 0D93     		str	r3, [sp, #52]
1049:Drivers/BSP/STM32F769I-Discovery/stm32f769i_discovery_qspi.c ****   s_command.SIOOMode          = QSPI_SIOO_INST_EVERY_CMD;
 1449              		.loc 1 1049 3 is_stmt 1 view .LVU570
1049:Drivers/BSP/STM32F769I-Discovery/stm32f769i_discovery_qspi.c ****   s_command.SIOOMode          = QSPI_SIOO_INST_EVERY_CMD;
 1450              		.loc 1 1049 31 is_stmt 0 view .LVU571
 1451 00be 0E93     		str	r3, [sp, #56]
1050:Drivers/BSP/STM32F769I-Discovery/stm32f769i_discovery_qspi.c **** 
 1452              		.loc 1 1050 3 is_stmt 1 view .LVU572
1050:Drivers/BSP/STM32F769I-Discovery/stm32f769i_discovery_qspi.c **** 
 1453              		.loc 1 1050 31 is_stmt 0 view .LVU573
 1454 00c0 0F93     		str	r3, [sp, #60]
1053:Drivers/BSP/STM32F769I-Discovery/stm32f769i_discovery_qspi.c **** 
 1455              		.loc 1 1053 3 is_stmt 1 view .LVU574
 1456 00c2 9DF80530 		ldrb	r3, [sp, #5]	@ zero_extendqisi2
 1457              	.LVL84:
 1458              	.LBB10:
 1459              	.LBI10:
 981:Drivers/CMSIS/Include/cmsis_gcc.h **** {
 1460              		.loc 2 981 31 view .LVU575
 1461              	.LBB11:
 983:Drivers/CMSIS/Include/cmsis_gcc.h **** 
 1462              		.loc 2 983 3 view .LVU576
 988:Drivers/CMSIS/Include/cmsis_gcc.h **** #else
 1463              		.loc 2 988 4 view .LVU577
 1464 00c6 0722     		movs	r2, #7
 1465              		.syntax unified
 1466              	@ 988 "Drivers/CMSIS/Include/cmsis_gcc.h" 1
 1467 00c8 92FAA2F2 		rbit r2, r2
 1468              	@ 0 "" 2
 1469              	.LVL85:
 1470              		.loc 2 1001 3 view .LVU578
 1471              		.loc 2 1001 3 is_stmt 0 view .LVU579
 1472              		.thumb
 1473              		.syntax unified
 1474              	.LBE11:
 1475              	.LBE10:
1053:Drivers/BSP/STM32F769I-Discovery/stm32f769i_discovery_qspi.c **** 
 1476              		.loc 1 1053 3 discriminator 2 view .LVU580
 1477 00cc B2FA82F2 		clz	r2, r2
 1478 00d0 0621     		movs	r1, #6
 1479 00d2 01FA02F2 		lsl	r2, r1, r2
 1480 00d6 23F00703 		bic	r3, r3, #7
 1481 00da 1343     		orrs	r3, r3, r2
 1482 00dc 8DF80530 		strb	r3, [sp, #5]
1056:Drivers/BSP/STM32F769I-Discovery/stm32f769i_discovery_qspi.c ****   {
 1483              		.loc 1 1056 3 is_stmt 1 view .LVU581
1056:Drivers/BSP/STM32F769I-Discovery/stm32f769i_discovery_qspi.c ****   {
ARM GAS  /var/folders/n6/c271nzx11xl4r4_m7sqjlt0m0000gn/T//cc22wCrs.s 			page 73


 1484              		.loc 1 1056 7 is_stmt 0 view .LVU582
 1485 00e0 41F28832 		movw	r2, #5000
 1486 00e4 02A9     		add	r1, sp, #8
 1487 00e6 2046     		mov	r0, r4
 1488 00e8 FFF7FEFF 		bl	HAL_QSPI_Command
 1489              	.LVL86:
1056:Drivers/BSP/STM32F769I-Discovery/stm32f769i_discovery_qspi.c ****   {
 1490              		.loc 1 1056 6 discriminator 1 view .LVU583
 1491 00ec 08B1     		cbz	r0, .L88
1058:Drivers/BSP/STM32F769I-Discovery/stm32f769i_discovery_qspi.c ****   }
 1492              		.loc 1 1058 12 view .LVU584
 1493 00ee 0120     		movs	r0, #1
 1494 00f0 A1E7     		b	.L74
 1495              	.L88:
1062:Drivers/BSP/STM32F769I-Discovery/stm32f769i_discovery_qspi.c ****   {
 1496              		.loc 1 1062 3 is_stmt 1 view .LVU585
1062:Drivers/BSP/STM32F769I-Discovery/stm32f769i_discovery_qspi.c ****   {
 1497              		.loc 1 1062 7 is_stmt 0 view .LVU586
 1498 00f2 41F28832 		movw	r2, #5000
 1499 00f6 01A9     		add	r1, sp, #4
 1500 00f8 2046     		mov	r0, r4
 1501 00fa FFF7FEFF 		bl	HAL_QSPI_Transmit
 1502              	.LVL87:
1062:Drivers/BSP/STM32F769I-Discovery/stm32f769i_discovery_qspi.c ****   {
 1503              		.loc 1 1062 6 discriminator 1 view .LVU587
 1504 00fe 0028     		cmp	r0, #0
 1505 0100 99D0     		beq	.L74
1064:Drivers/BSP/STM32F769I-Discovery/stm32f769i_discovery_qspi.c ****   }
 1506              		.loc 1 1064 12 view .LVU588
 1507 0102 0120     		movs	r0, #1
 1508 0104 97E7     		b	.L74
 1509              	.L90:
 1510 0106 00BF     		.align	2
 1511              	.L89:
 1512 0108 00000000 		.word	QSPIHandle
 1513              		.cfi_endproc
 1514              	.LFE157:
 1516              		.section	.text.BSP_QSPI_Read,"ax",%progbits
 1517              		.align	1
 1518              		.global	BSP_QSPI_Read
 1519              		.syntax unified
 1520              		.thumb
 1521              		.thumb_func
 1523              	BSP_QSPI_Read:
 1524              	.LVL88:
 1525              	.LFB143:
 209:Drivers/BSP/STM32F769I-Discovery/stm32f769i_discovery_qspi.c ****   QSPI_CommandTypeDef s_command;
 1526              		.loc 1 209 1 is_stmt 1 view -0
 1527              		.cfi_startproc
 1528              		@ args = 0, pretend = 0, frame = 56
 1529              		@ frame_needed = 0, uses_anonymous_args = 0
 209:Drivers/BSP/STM32F769I-Discovery/stm32f769i_discovery_qspi.c ****   QSPI_CommandTypeDef s_command;
 1530              		.loc 1 209 1 is_stmt 0 view .LVU590
 1531 0000 10B5     		push	{r4, lr}
 1532              		.cfi_def_cfa_offset 8
 1533              		.cfi_offset 4, -8
 1534              		.cfi_offset 14, -4
ARM GAS  /var/folders/n6/c271nzx11xl4r4_m7sqjlt0m0000gn/T//cc22wCrs.s 			page 74


 1535 0002 8EB0     		sub	sp, sp, #56
 1536              		.cfi_def_cfa_offset 64
 1537 0004 0446     		mov	r4, r0
 210:Drivers/BSP/STM32F769I-Discovery/stm32f769i_discovery_qspi.c **** 
 1538              		.loc 1 210 3 is_stmt 1 view .LVU591
 213:Drivers/BSP/STM32F769I-Discovery/stm32f769i_discovery_qspi.c ****   s_command.Instruction       = QPI_READ_4_BYTE_ADDR_CMD;
 1539              		.loc 1 213 3 view .LVU592
 213:Drivers/BSP/STM32F769I-Discovery/stm32f769i_discovery_qspi.c ****   s_command.Instruction       = QPI_READ_4_BYTE_ADDR_CMD;
 1540              		.loc 1 213 31 is_stmt 0 view .LVU593
 1541 0006 4FF44073 		mov	r3, #768
 1542 000a 0693     		str	r3, [sp, #24]
 214:Drivers/BSP/STM32F769I-Discovery/stm32f769i_discovery_qspi.c ****   s_command.AddressMode       = QSPI_ADDRESS_4_LINES;
 1543              		.loc 1 214 3 is_stmt 1 view .LVU594
 214:Drivers/BSP/STM32F769I-Discovery/stm32f769i_discovery_qspi.c ****   s_command.AddressMode       = QSPI_ADDRESS_4_LINES;
 1544              		.loc 1 214 31 is_stmt 0 view .LVU595
 1545 000c EC23     		movs	r3, #236
 1546 000e 0093     		str	r3, [sp]
 215:Drivers/BSP/STM32F769I-Discovery/stm32f769i_discovery_qspi.c ****   s_command.AddressSize       = QSPI_ADDRESS_32_BITS;
 1547              		.loc 1 215 3 is_stmt 1 view .LVU596
 215:Drivers/BSP/STM32F769I-Discovery/stm32f769i_discovery_qspi.c ****   s_command.AddressSize       = QSPI_ADDRESS_32_BITS;
 1548              		.loc 1 215 31 is_stmt 0 view .LVU597
 1549 0010 4FF44063 		mov	r3, #3072
 1550 0014 0793     		str	r3, [sp, #28]
 216:Drivers/BSP/STM32F769I-Discovery/stm32f769i_discovery_qspi.c ****   s_command.Address           = ReadAddr;
 1551              		.loc 1 216 3 is_stmt 1 view .LVU598
 216:Drivers/BSP/STM32F769I-Discovery/stm32f769i_discovery_qspi.c ****   s_command.Address           = ReadAddr;
 1552              		.loc 1 216 31 is_stmt 0 view .LVU599
 1553 0016 4FF44053 		mov	r3, #12288
 1554 001a 0393     		str	r3, [sp, #12]
 217:Drivers/BSP/STM32F769I-Discovery/stm32f769i_discovery_qspi.c ****   s_command.AlternateByteMode = QSPI_ALTERNATE_BYTES_NONE;
 1555              		.loc 1 217 3 is_stmt 1 view .LVU600
 217:Drivers/BSP/STM32F769I-Discovery/stm32f769i_discovery_qspi.c ****   s_command.AlternateByteMode = QSPI_ALTERNATE_BYTES_NONE;
 1556              		.loc 1 217 31 is_stmt 0 view .LVU601
 1557 001c 0191     		str	r1, [sp, #4]
 218:Drivers/BSP/STM32F769I-Discovery/stm32f769i_discovery_qspi.c ****   s_command.DataMode          = QSPI_DATA_4_LINES;
 1558              		.loc 1 218 3 is_stmt 1 view .LVU602
 218:Drivers/BSP/STM32F769I-Discovery/stm32f769i_discovery_qspi.c ****   s_command.DataMode          = QSPI_DATA_4_LINES;
 1559              		.loc 1 218 31 is_stmt 0 view .LVU603
 1560 001e 0023     		movs	r3, #0
 1561 0020 0893     		str	r3, [sp, #32]
 219:Drivers/BSP/STM32F769I-Discovery/stm32f769i_discovery_qspi.c ****   s_command.DummyCycles       = MX25L512_DUMMY_CYCLES_READ_QUAD_IO;
 1562              		.loc 1 219 3 is_stmt 1 view .LVU604
 219:Drivers/BSP/STM32F769I-Discovery/stm32f769i_discovery_qspi.c ****   s_command.DummyCycles       = MX25L512_DUMMY_CYCLES_READ_QUAD_IO;
 1563              		.loc 1 219 31 is_stmt 0 view .LVU605
 1564 0022 4FF04071 		mov	r1, #50331648
 1565              	.LVL89:
 219:Drivers/BSP/STM32F769I-Discovery/stm32f769i_discovery_qspi.c ****   s_command.DummyCycles       = MX25L512_DUMMY_CYCLES_READ_QUAD_IO;
 1566              		.loc 1 219 31 view .LVU606
 1567 0026 0991     		str	r1, [sp, #36]
 220:Drivers/BSP/STM32F769I-Discovery/stm32f769i_discovery_qspi.c ****   s_command.NbData            = Size;
 1568              		.loc 1 220 3 is_stmt 1 view .LVU607
 220:Drivers/BSP/STM32F769I-Discovery/stm32f769i_discovery_qspi.c ****   s_command.NbData            = Size;
 1569              		.loc 1 220 31 is_stmt 0 view .LVU608
 1570 0028 0A21     		movs	r1, #10
 1571 002a 0591     		str	r1, [sp, #20]
 221:Drivers/BSP/STM32F769I-Discovery/stm32f769i_discovery_qspi.c ****   s_command.DdrMode           = QSPI_DDR_MODE_DISABLE;
 1572              		.loc 1 221 3 is_stmt 1 view .LVU609
ARM GAS  /var/folders/n6/c271nzx11xl4r4_m7sqjlt0m0000gn/T//cc22wCrs.s 			page 75


 221:Drivers/BSP/STM32F769I-Discovery/stm32f769i_discovery_qspi.c ****   s_command.DdrMode           = QSPI_DDR_MODE_DISABLE;
 1573              		.loc 1 221 31 is_stmt 0 view .LVU610
 1574 002c 0A92     		str	r2, [sp, #40]
 222:Drivers/BSP/STM32F769I-Discovery/stm32f769i_discovery_qspi.c ****   s_command.DdrHoldHalfCycle  = QSPI_DDR_HHC_ANALOG_DELAY;
 1575              		.loc 1 222 3 is_stmt 1 view .LVU611
 222:Drivers/BSP/STM32F769I-Discovery/stm32f769i_discovery_qspi.c ****   s_command.DdrHoldHalfCycle  = QSPI_DDR_HHC_ANALOG_DELAY;
 1576              		.loc 1 222 31 is_stmt 0 view .LVU612
 1577 002e 0B93     		str	r3, [sp, #44]
 223:Drivers/BSP/STM32F769I-Discovery/stm32f769i_discovery_qspi.c ****   s_command.SIOOMode          = QSPI_SIOO_INST_EVERY_CMD;
 1578              		.loc 1 223 3 is_stmt 1 view .LVU613
 223:Drivers/BSP/STM32F769I-Discovery/stm32f769i_discovery_qspi.c ****   s_command.SIOOMode          = QSPI_SIOO_INST_EVERY_CMD;
 1579              		.loc 1 223 31 is_stmt 0 view .LVU614
 1580 0030 0C93     		str	r3, [sp, #48]
 224:Drivers/BSP/STM32F769I-Discovery/stm32f769i_discovery_qspi.c ****   
 1581              		.loc 1 224 3 is_stmt 1 view .LVU615
 224:Drivers/BSP/STM32F769I-Discovery/stm32f769i_discovery_qspi.c ****   
 1582              		.loc 1 224 31 is_stmt 0 view .LVU616
 1583 0032 0D93     		str	r3, [sp, #52]
 227:Drivers/BSP/STM32F769I-Discovery/stm32f769i_discovery_qspi.c ****   {
 1584              		.loc 1 227 3 is_stmt 1 view .LVU617
 227:Drivers/BSP/STM32F769I-Discovery/stm32f769i_discovery_qspi.c ****   {
 1585              		.loc 1 227 7 is_stmt 0 view .LVU618
 1586 0034 41F28832 		movw	r2, #5000
 1587              	.LVL90:
 227:Drivers/BSP/STM32F769I-Discovery/stm32f769i_discovery_qspi.c ****   {
 1588              		.loc 1 227 7 view .LVU619
 1589 0038 6946     		mov	r1, sp
 1590 003a 0F48     		ldr	r0, .L97
 1591              	.LVL91:
 227:Drivers/BSP/STM32F769I-Discovery/stm32f769i_discovery_qspi.c ****   {
 1592              		.loc 1 227 7 view .LVU620
 1593 003c FFF7FEFF 		bl	HAL_QSPI_Command
 1594              	.LVL92:
 227:Drivers/BSP/STM32F769I-Discovery/stm32f769i_discovery_qspi.c ****   {
 1595              		.loc 1 227 6 discriminator 1 view .LVU621
 1596 0040 10B1     		cbz	r0, .L96
 229:Drivers/BSP/STM32F769I-Discovery/stm32f769i_discovery_qspi.c ****   }
 1597              		.loc 1 229 12 view .LVU622
 1598 0042 0120     		movs	r0, #1
 1599              	.L92:
 245:Drivers/BSP/STM32F769I-Discovery/stm32f769i_discovery_qspi.c **** 
 1600              		.loc 1 245 1 view .LVU623
 1601 0044 0EB0     		add	sp, sp, #56
 1602              		.cfi_remember_state
 1603              		.cfi_def_cfa_offset 8
 1604              		@ sp needed
 1605 0046 10BD     		pop	{r4, pc}
 1606              	.LVL93:
 1607              	.L96:
 1608              		.cfi_restore_state
 233:Drivers/BSP/STM32F769I-Discovery/stm32f769i_discovery_qspi.c ****   
 1609              		.loc 1 233 3 is_stmt 1 view .LVU624
 1610 0048 0B48     		ldr	r0, .L97
 1611 004a 0268     		ldr	r2, [r0]
 1612 004c 5368     		ldr	r3, [r2, #4]
 1613 004e 23F4E063 		bic	r3, r3, #1792
 1614 0052 5360     		str	r3, [r2, #4]
ARM GAS  /var/folders/n6/c271nzx11xl4r4_m7sqjlt0m0000gn/T//cc22wCrs.s 			page 76


 236:Drivers/BSP/STM32F769I-Discovery/stm32f769i_discovery_qspi.c ****   {
 1615              		.loc 1 236 3 view .LVU625
 236:Drivers/BSP/STM32F769I-Discovery/stm32f769i_discovery_qspi.c ****   {
 1616              		.loc 1 236 7 is_stmt 0 view .LVU626
 1617 0054 41F28832 		movw	r2, #5000
 1618 0058 2146     		mov	r1, r4
 1619 005a FFF7FEFF 		bl	HAL_QSPI_Receive
 1620              	.LVL94:
 236:Drivers/BSP/STM32F769I-Discovery/stm32f769i_discovery_qspi.c ****   {
 1621              		.loc 1 236 6 discriminator 1 view .LVU627
 1622 005e 40B9     		cbnz	r0, .L94
 242:Drivers/BSP/STM32F769I-Discovery/stm32f769i_discovery_qspi.c **** 
 1623              		.loc 1 242 3 is_stmt 1 view .LVU628
 1624 0060 054B     		ldr	r3, .L97
 1625 0062 1A68     		ldr	r2, [r3]
 1626 0064 5368     		ldr	r3, [r2, #4]
 1627 0066 23F4E063 		bic	r3, r3, #1792
 1628 006a 43F44073 		orr	r3, r3, #768
 1629 006e 5360     		str	r3, [r2, #4]
 244:Drivers/BSP/STM32F769I-Discovery/stm32f769i_discovery_qspi.c **** }
 1630              		.loc 1 244 3 view .LVU629
 244:Drivers/BSP/STM32F769I-Discovery/stm32f769i_discovery_qspi.c **** }
 1631              		.loc 1 244 10 is_stmt 0 view .LVU630
 1632 0070 E8E7     		b	.L92
 1633              	.L94:
 238:Drivers/BSP/STM32F769I-Discovery/stm32f769i_discovery_qspi.c ****   }
 1634              		.loc 1 238 12 view .LVU631
 1635 0072 0120     		movs	r0, #1
 1636 0074 E6E7     		b	.L92
 1637              	.L98:
 1638 0076 00BF     		.align	2
 1639              	.L97:
 1640 0078 00000000 		.word	QSPIHandle
 1641              		.cfi_endproc
 1642              	.LFE143:
 1644              		.section	.text.BSP_QSPI_Write,"ax",%progbits
 1645              		.align	1
 1646              		.global	BSP_QSPI_Write
 1647              		.syntax unified
 1648              		.thumb
 1649              		.thumb_func
 1651              	BSP_QSPI_Write:
 1652              	.LVL95:
 1653              	.LFB144:
 255:Drivers/BSP/STM32F769I-Discovery/stm32f769i_discovery_qspi.c ****   QSPI_CommandTypeDef s_command;
 1654              		.loc 1 255 1 is_stmt 1 view -0
 1655              		.cfi_startproc
 1656              		@ args = 0, pretend = 0, frame = 56
 1657              		@ frame_needed = 0, uses_anonymous_args = 0
 255:Drivers/BSP/STM32F769I-Discovery/stm32f769i_discovery_qspi.c ****   QSPI_CommandTypeDef s_command;
 1658              		.loc 1 255 1 is_stmt 0 view .LVU633
 1659 0000 F0B5     		push	{r4, r5, r6, r7, lr}
 1660              		.cfi_def_cfa_offset 20
 1661              		.cfi_offset 4, -20
 1662              		.cfi_offset 5, -16
 1663              		.cfi_offset 6, -12
 1664              		.cfi_offset 7, -8
ARM GAS  /var/folders/n6/c271nzx11xl4r4_m7sqjlt0m0000gn/T//cc22wCrs.s 			page 77


 1665              		.cfi_offset 14, -4
 1666 0002 8FB0     		sub	sp, sp, #60
 1667              		.cfi_def_cfa_offset 80
 1668 0004 0646     		mov	r6, r0
 1669 0006 0C46     		mov	r4, r1
 256:Drivers/BSP/STM32F769I-Discovery/stm32f769i_discovery_qspi.c ****   uint32_t end_addr, current_size, current_addr;
 1670              		.loc 1 256 3 is_stmt 1 view .LVU634
 257:Drivers/BSP/STM32F769I-Discovery/stm32f769i_discovery_qspi.c **** 
 1671              		.loc 1 257 3 view .LVU635
 260:Drivers/BSP/STM32F769I-Discovery/stm32f769i_discovery_qspi.c **** 
 1672              		.loc 1 260 3 view .LVU636
 260:Drivers/BSP/STM32F769I-Discovery/stm32f769i_discovery_qspi.c **** 
 1673              		.loc 1 260 50 is_stmt 0 view .LVU637
 1674 0008 CDB2     		uxtb	r5, r1
 260:Drivers/BSP/STM32F769I-Discovery/stm32f769i_discovery_qspi.c **** 
 1675              		.loc 1 260 16 view .LVU638
 1676 000a C5F58075 		rsb	r5, r5, #256
 1677              	.LVL96:
 263:Drivers/BSP/STM32F769I-Discovery/stm32f769i_discovery_qspi.c ****   {
 1678              		.loc 1 263 3 is_stmt 1 view .LVU639
 263:Drivers/BSP/STM32F769I-Discovery/stm32f769i_discovery_qspi.c ****   {
 1679              		.loc 1 263 6 is_stmt 0 view .LVU640
 1680 000e 9542     		cmp	r5, r2
 1681 0010 00D9     		bls	.L100
 265:Drivers/BSP/STM32F769I-Discovery/stm32f769i_discovery_qspi.c ****   }
 1682              		.loc 1 265 18 view .LVU641
 1683 0012 1546     		mov	r5, r2
 1684              	.LVL97:
 1685              	.L100:
 269:Drivers/BSP/STM32F769I-Discovery/stm32f769i_discovery_qspi.c ****   end_addr = WriteAddr + Size;
 1686              		.loc 1 269 3 is_stmt 1 view .LVU642
 270:Drivers/BSP/STM32F769I-Discovery/stm32f769i_discovery_qspi.c **** 
 1687              		.loc 1 270 3 view .LVU643
 270:Drivers/BSP/STM32F769I-Discovery/stm32f769i_discovery_qspi.c **** 
 1688              		.loc 1 270 12 is_stmt 0 view .LVU644
 1689 0014 A718     		adds	r7, r4, r2
 1690              	.LVL98:
 273:Drivers/BSP/STM32F769I-Discovery/stm32f769i_discovery_qspi.c ****   s_command.Instruction       = QPI_PAGE_PROG_4_BYTE_ADDR_CMD;
 1691              		.loc 1 273 3 is_stmt 1 view .LVU645
 273:Drivers/BSP/STM32F769I-Discovery/stm32f769i_discovery_qspi.c ****   s_command.Instruction       = QPI_PAGE_PROG_4_BYTE_ADDR_CMD;
 1692              		.loc 1 273 31 is_stmt 0 view .LVU646
 1693 0016 4FF44073 		mov	r3, #768
 1694 001a 0693     		str	r3, [sp, #24]
 274:Drivers/BSP/STM32F769I-Discovery/stm32f769i_discovery_qspi.c ****   s_command.AddressMode       = QSPI_ADDRESS_4_LINES;
 1695              		.loc 1 274 3 is_stmt 1 view .LVU647
 274:Drivers/BSP/STM32F769I-Discovery/stm32f769i_discovery_qspi.c ****   s_command.AddressMode       = QSPI_ADDRESS_4_LINES;
 1696              		.loc 1 274 31 is_stmt 0 view .LVU648
 1697 001c 1223     		movs	r3, #18
 1698 001e 0093     		str	r3, [sp]
 275:Drivers/BSP/STM32F769I-Discovery/stm32f769i_discovery_qspi.c ****   s_command.AddressSize       = QSPI_ADDRESS_32_BITS;
 1699              		.loc 1 275 3 is_stmt 1 view .LVU649
 275:Drivers/BSP/STM32F769I-Discovery/stm32f769i_discovery_qspi.c ****   s_command.AddressSize       = QSPI_ADDRESS_32_BITS;
 1700              		.loc 1 275 31 is_stmt 0 view .LVU650
 1701 0020 4FF44063 		mov	r3, #3072
 1702 0024 0793     		str	r3, [sp, #28]
 276:Drivers/BSP/STM32F769I-Discovery/stm32f769i_discovery_qspi.c ****   s_command.AlternateByteMode = QSPI_ALTERNATE_BYTES_NONE;
 1703              		.loc 1 276 3 is_stmt 1 view .LVU651
ARM GAS  /var/folders/n6/c271nzx11xl4r4_m7sqjlt0m0000gn/T//cc22wCrs.s 			page 78


 276:Drivers/BSP/STM32F769I-Discovery/stm32f769i_discovery_qspi.c ****   s_command.AlternateByteMode = QSPI_ALTERNATE_BYTES_NONE;
 1704              		.loc 1 276 31 is_stmt 0 view .LVU652
 1705 0026 4FF44053 		mov	r3, #12288
 1706 002a 0393     		str	r3, [sp, #12]
 277:Drivers/BSP/STM32F769I-Discovery/stm32f769i_discovery_qspi.c ****   s_command.DataMode          = QSPI_DATA_4_LINES;
 1707              		.loc 1 277 3 is_stmt 1 view .LVU653
 277:Drivers/BSP/STM32F769I-Discovery/stm32f769i_discovery_qspi.c ****   s_command.DataMode          = QSPI_DATA_4_LINES;
 1708              		.loc 1 277 31 is_stmt 0 view .LVU654
 1709 002c 0023     		movs	r3, #0
 1710 002e 0893     		str	r3, [sp, #32]
 278:Drivers/BSP/STM32F769I-Discovery/stm32f769i_discovery_qspi.c ****   s_command.DummyCycles       = 0;
 1711              		.loc 1 278 3 is_stmt 1 view .LVU655
 278:Drivers/BSP/STM32F769I-Discovery/stm32f769i_discovery_qspi.c ****   s_command.DummyCycles       = 0;
 1712              		.loc 1 278 31 is_stmt 0 view .LVU656
 1713 0030 4FF04072 		mov	r2, #50331648
 1714              	.LVL99:
 278:Drivers/BSP/STM32F769I-Discovery/stm32f769i_discovery_qspi.c ****   s_command.DummyCycles       = 0;
 1715              		.loc 1 278 31 view .LVU657
 1716 0034 0992     		str	r2, [sp, #36]
 279:Drivers/BSP/STM32F769I-Discovery/stm32f769i_discovery_qspi.c ****   s_command.DdrMode           = QSPI_DDR_MODE_DISABLE;
 1717              		.loc 1 279 3 is_stmt 1 view .LVU658
 279:Drivers/BSP/STM32F769I-Discovery/stm32f769i_discovery_qspi.c ****   s_command.DdrMode           = QSPI_DDR_MODE_DISABLE;
 1718              		.loc 1 279 31 is_stmt 0 view .LVU659
 1719 0036 0593     		str	r3, [sp, #20]
 280:Drivers/BSP/STM32F769I-Discovery/stm32f769i_discovery_qspi.c ****   s_command.DdrHoldHalfCycle  = QSPI_DDR_HHC_ANALOG_DELAY;
 1720              		.loc 1 280 3 is_stmt 1 view .LVU660
 280:Drivers/BSP/STM32F769I-Discovery/stm32f769i_discovery_qspi.c ****   s_command.DdrHoldHalfCycle  = QSPI_DDR_HHC_ANALOG_DELAY;
 1721              		.loc 1 280 31 is_stmt 0 view .LVU661
 1722 0038 0B93     		str	r3, [sp, #44]
 281:Drivers/BSP/STM32F769I-Discovery/stm32f769i_discovery_qspi.c ****   s_command.SIOOMode          = QSPI_SIOO_INST_EVERY_CMD;
 1723              		.loc 1 281 3 is_stmt 1 view .LVU662
 281:Drivers/BSP/STM32F769I-Discovery/stm32f769i_discovery_qspi.c ****   s_command.SIOOMode          = QSPI_SIOO_INST_EVERY_CMD;
 1724              		.loc 1 281 31 is_stmt 0 view .LVU663
 1725 003a 0C93     		str	r3, [sp, #48]
 282:Drivers/BSP/STM32F769I-Discovery/stm32f769i_discovery_qspi.c ****   
 1726              		.loc 1 282 3 is_stmt 1 view .LVU664
 282:Drivers/BSP/STM32F769I-Discovery/stm32f769i_discovery_qspi.c ****   
 1727              		.loc 1 282 31 is_stmt 0 view .LVU665
 1728 003c 0D93     		str	r3, [sp, #52]
 1729 003e 03E0     		b	.L103
 1730              	.LVL100:
 1731              	.L109:
 317:Drivers/BSP/STM32F769I-Discovery/stm32f769i_discovery_qspi.c ****   } while (current_addr < end_addr);
 1732              		.loc 1 317 97 discriminator 2 view .LVU666
 1733 0040 4FF48075 		mov	r5, #256
 1734              	.LVL101:
 1735              	.L102:
 318:Drivers/BSP/STM32F769I-Discovery/stm32f769i_discovery_qspi.c ****   
 1736              		.loc 1 318 25 is_stmt 1 view .LVU667
 1737 0044 A742     		cmp	r7, r4
 1738 0046 23D9     		bls	.L101
 1739              	.L103:
 285:Drivers/BSP/STM32F769I-Discovery/stm32f769i_discovery_qspi.c ****   {
 1740              		.loc 1 285 3 view .LVU668
 287:Drivers/BSP/STM32F769I-Discovery/stm32f769i_discovery_qspi.c ****     s_command.NbData  = current_size;
 1741              		.loc 1 287 5 view .LVU669
 287:Drivers/BSP/STM32F769I-Discovery/stm32f769i_discovery_qspi.c ****     s_command.NbData  = current_size;
ARM GAS  /var/folders/n6/c271nzx11xl4r4_m7sqjlt0m0000gn/T//cc22wCrs.s 			page 79


 1742              		.loc 1 287 23 is_stmt 0 view .LVU670
 1743 0048 0194     		str	r4, [sp, #4]
 288:Drivers/BSP/STM32F769I-Discovery/stm32f769i_discovery_qspi.c **** 
 1744              		.loc 1 288 5 is_stmt 1 view .LVU671
 288:Drivers/BSP/STM32F769I-Discovery/stm32f769i_discovery_qspi.c **** 
 1745              		.loc 1 288 23 is_stmt 0 view .LVU672
 1746 004a 0A95     		str	r5, [sp, #40]
 291:Drivers/BSP/STM32F769I-Discovery/stm32f769i_discovery_qspi.c ****     {
 1747              		.loc 1 291 5 is_stmt 1 view .LVU673
 291:Drivers/BSP/STM32F769I-Discovery/stm32f769i_discovery_qspi.c ****     {
 1748              		.loc 1 291 9 is_stmt 0 view .LVU674
 1749 004c 1548     		ldr	r0, .L111
 1750 004e FFF7FEFF 		bl	QSPI_WriteEnable
 1751              	.LVL102:
 291:Drivers/BSP/STM32F769I-Discovery/stm32f769i_discovery_qspi.c ****     {
 1752              		.loc 1 291 8 discriminator 1 view .LVU675
 1753 0052 E0B9     		cbnz	r0, .L105
 297:Drivers/BSP/STM32F769I-Discovery/stm32f769i_discovery_qspi.c ****     {
 1754              		.loc 1 297 5 is_stmt 1 view .LVU676
 297:Drivers/BSP/STM32F769I-Discovery/stm32f769i_discovery_qspi.c ****     {
 1755              		.loc 1 297 9 is_stmt 0 view .LVU677
 1756 0054 41F28832 		movw	r2, #5000
 1757 0058 6946     		mov	r1, sp
 1758 005a 1248     		ldr	r0, .L111
 1759 005c FFF7FEFF 		bl	HAL_QSPI_Command
 1760              	.LVL103:
 297:Drivers/BSP/STM32F769I-Discovery/stm32f769i_discovery_qspi.c ****     {
 1761              		.loc 1 297 8 discriminator 1 view .LVU678
 1762 0060 C8B9     		cbnz	r0, .L106
 303:Drivers/BSP/STM32F769I-Discovery/stm32f769i_discovery_qspi.c ****     {
 1763              		.loc 1 303 5 is_stmt 1 view .LVU679
 303:Drivers/BSP/STM32F769I-Discovery/stm32f769i_discovery_qspi.c ****     {
 1764              		.loc 1 303 9 is_stmt 0 view .LVU680
 1765 0062 41F28832 		movw	r2, #5000
 1766 0066 3146     		mov	r1, r6
 1767 0068 0E48     		ldr	r0, .L111
 1768 006a FFF7FEFF 		bl	HAL_QSPI_Transmit
 1769              	.LVL104:
 303:Drivers/BSP/STM32F769I-Discovery/stm32f769i_discovery_qspi.c ****     {
 1770              		.loc 1 303 8 discriminator 1 view .LVU681
 1771 006e A0B9     		cbnz	r0, .L107
 309:Drivers/BSP/STM32F769I-Discovery/stm32f769i_discovery_qspi.c ****     {
 1772              		.loc 1 309 5 is_stmt 1 view .LVU682
 309:Drivers/BSP/STM32F769I-Discovery/stm32f769i_discovery_qspi.c ****     {
 1773              		.loc 1 309 9 is_stmt 0 view .LVU683
 1774 0070 41F28831 		movw	r1, #5000
 1775 0074 0B48     		ldr	r0, .L111
 1776 0076 FFF7FEFF 		bl	QSPI_AutoPollingMemReady
 1777              	.LVL105:
 309:Drivers/BSP/STM32F769I-Discovery/stm32f769i_discovery_qspi.c ****     {
 1778              		.loc 1 309 8 discriminator 1 view .LVU684
 1779 007a 0246     		mov	r2, r0
 1780 007c 78B9     		cbnz	r0, .L108
 315:Drivers/BSP/STM32F769I-Discovery/stm32f769i_discovery_qspi.c ****     pData += current_size;
 1781              		.loc 1 315 5 is_stmt 1 view .LVU685
 315:Drivers/BSP/STM32F769I-Discovery/stm32f769i_discovery_qspi.c ****     pData += current_size;
 1782              		.loc 1 315 18 is_stmt 0 view .LVU686
ARM GAS  /var/folders/n6/c271nzx11xl4r4_m7sqjlt0m0000gn/T//cc22wCrs.s 			page 80


 1783 007e 2C44     		add	r4, r4, r5
 1784              	.LVL106:
 316:Drivers/BSP/STM32F769I-Discovery/stm32f769i_discovery_qspi.c ****     current_size = ((current_addr + MX25L512_PAGE_SIZE) > end_addr) ? (end_addr - current_addr) : M
 1785              		.loc 1 316 5 is_stmt 1 view .LVU687
 316:Drivers/BSP/STM32F769I-Discovery/stm32f769i_discovery_qspi.c ****     current_size = ((current_addr + MX25L512_PAGE_SIZE) > end_addr) ? (end_addr - current_addr) : M
 1786              		.loc 1 316 11 is_stmt 0 view .LVU688
 1787 0080 2E44     		add	r6, r6, r5
 1788              	.LVL107:
 317:Drivers/BSP/STM32F769I-Discovery/stm32f769i_discovery_qspi.c ****   } while (current_addr < end_addr);
 1789              		.loc 1 317 5 is_stmt 1 view .LVU689
 317:Drivers/BSP/STM32F769I-Discovery/stm32f769i_discovery_qspi.c ****   } while (current_addr < end_addr);
 1790              		.loc 1 317 35 is_stmt 0 view .LVU690
 1791 0082 04F58073 		add	r3, r4, #256
 317:Drivers/BSP/STM32F769I-Discovery/stm32f769i_discovery_qspi.c ****   } while (current_addr < end_addr);
 1792              		.loc 1 317 97 view .LVU691
 1793 0086 BB42     		cmp	r3, r7
 1794 0088 DAD9     		bls	.L109
 317:Drivers/BSP/STM32F769I-Discovery/stm32f769i_discovery_qspi.c ****   } while (current_addr < end_addr);
 1795              		.loc 1 317 97 discriminator 1 view .LVU692
 1796 008a 3D1B     		subs	r5, r7, r4
 1797              	.LVL108:
 317:Drivers/BSP/STM32F769I-Discovery/stm32f769i_discovery_qspi.c ****   } while (current_addr < end_addr);
 1798              		.loc 1 317 97 discriminator 1 view .LVU693
 1799 008c DAE7     		b	.L102
 1800              	.LVL109:
 1801              	.L105:
 293:Drivers/BSP/STM32F769I-Discovery/stm32f769i_discovery_qspi.c ****     }
 1802              		.loc 1 293 14 view .LVU694
 1803 008e 0122     		movs	r2, #1
 1804              	.L101:
 321:Drivers/BSP/STM32F769I-Discovery/stm32f769i_discovery_qspi.c **** 
 1805              		.loc 1 321 1 view .LVU695
 1806 0090 1046     		mov	r0, r2
 1807 0092 0FB0     		add	sp, sp, #60
 1808              		.cfi_remember_state
 1809              		.cfi_def_cfa_offset 20
 1810              		@ sp needed
 1811 0094 F0BD     		pop	{r4, r5, r6, r7, pc}
 1812              	.LVL110:
 1813              	.L106:
 1814              		.cfi_restore_state
 299:Drivers/BSP/STM32F769I-Discovery/stm32f769i_discovery_qspi.c ****     }
 1815              		.loc 1 299 14 view .LVU696
 1816 0096 0122     		movs	r2, #1
 1817 0098 FAE7     		b	.L101
 1818              	.L107:
 305:Drivers/BSP/STM32F769I-Discovery/stm32f769i_discovery_qspi.c ****     }
 1819              		.loc 1 305 14 view .LVU697
 1820 009a 0122     		movs	r2, #1
 1821 009c F8E7     		b	.L101
 1822              	.L108:
 311:Drivers/BSP/STM32F769I-Discovery/stm32f769i_discovery_qspi.c ****     }
 1823              		.loc 1 311 14 view .LVU698
 1824 009e 0122     		movs	r2, #1
 1825 00a0 F6E7     		b	.L101
 1826              	.L112:
 1827 00a2 00BF     		.align	2
ARM GAS  /var/folders/n6/c271nzx11xl4r4_m7sqjlt0m0000gn/T//cc22wCrs.s 			page 81


 1828              	.L111:
 1829 00a4 00000000 		.word	QSPIHandle
 1830              		.cfi_endproc
 1831              	.LFE144:
 1833              		.section	.text.BSP_QSPI_Erase_Block,"ax",%progbits
 1834              		.align	1
 1835              		.global	BSP_QSPI_Erase_Block
 1836              		.syntax unified
 1837              		.thumb
 1838              		.thumb_func
 1840              	BSP_QSPI_Erase_Block:
 1841              	.LVL111:
 1842              	.LFB145:
 329:Drivers/BSP/STM32F769I-Discovery/stm32f769i_discovery_qspi.c ****   QSPI_CommandTypeDef s_command;
 1843              		.loc 1 329 1 is_stmt 1 view -0
 1844              		.cfi_startproc
 1845              		@ args = 0, pretend = 0, frame = 56
 1846              		@ frame_needed = 0, uses_anonymous_args = 0
 329:Drivers/BSP/STM32F769I-Discovery/stm32f769i_discovery_qspi.c ****   QSPI_CommandTypeDef s_command;
 1847              		.loc 1 329 1 is_stmt 0 view .LVU700
 1848 0000 00B5     		push	{lr}
 1849              		.cfi_def_cfa_offset 4
 1850              		.cfi_offset 14, -4
 1851 0002 8FB0     		sub	sp, sp, #60
 1852              		.cfi_def_cfa_offset 64
 330:Drivers/BSP/STM32F769I-Discovery/stm32f769i_discovery_qspi.c **** 
 1853              		.loc 1 330 3 is_stmt 1 view .LVU701
 333:Drivers/BSP/STM32F769I-Discovery/stm32f769i_discovery_qspi.c ****   s_command.Instruction       = SUBSECTOR_ERASE_4_BYTE_ADDR_CMD;
 1854              		.loc 1 333 3 view .LVU702
 333:Drivers/BSP/STM32F769I-Discovery/stm32f769i_discovery_qspi.c ****   s_command.Instruction       = SUBSECTOR_ERASE_4_BYTE_ADDR_CMD;
 1855              		.loc 1 333 31 is_stmt 0 view .LVU703
 1856 0004 4FF44073 		mov	r3, #768
 1857 0008 0693     		str	r3, [sp, #24]
 334:Drivers/BSP/STM32F769I-Discovery/stm32f769i_discovery_qspi.c ****   s_command.AddressMode       = QSPI_ADDRESS_4_LINES;
 1858              		.loc 1 334 3 is_stmt 1 view .LVU704
 334:Drivers/BSP/STM32F769I-Discovery/stm32f769i_discovery_qspi.c ****   s_command.AddressMode       = QSPI_ADDRESS_4_LINES;
 1859              		.loc 1 334 31 is_stmt 0 view .LVU705
 1860 000a 2123     		movs	r3, #33
 1861 000c 0093     		str	r3, [sp]
 335:Drivers/BSP/STM32F769I-Discovery/stm32f769i_discovery_qspi.c ****   s_command.AddressSize       = QSPI_ADDRESS_32_BITS;
 1862              		.loc 1 335 3 is_stmt 1 view .LVU706
 335:Drivers/BSP/STM32F769I-Discovery/stm32f769i_discovery_qspi.c ****   s_command.AddressSize       = QSPI_ADDRESS_32_BITS;
 1863              		.loc 1 335 31 is_stmt 0 view .LVU707
 1864 000e 4FF44063 		mov	r3, #3072
 1865 0012 0793     		str	r3, [sp, #28]
 336:Drivers/BSP/STM32F769I-Discovery/stm32f769i_discovery_qspi.c ****   s_command.Address           = BlockAddress;
 1866              		.loc 1 336 3 is_stmt 1 view .LVU708
 336:Drivers/BSP/STM32F769I-Discovery/stm32f769i_discovery_qspi.c ****   s_command.Address           = BlockAddress;
 1867              		.loc 1 336 31 is_stmt 0 view .LVU709
 1868 0014 4FF44053 		mov	r3, #12288
 1869 0018 0393     		str	r3, [sp, #12]
 337:Drivers/BSP/STM32F769I-Discovery/stm32f769i_discovery_qspi.c ****   s_command.AlternateByteMode = QSPI_ALTERNATE_BYTES_NONE;
 1870              		.loc 1 337 3 is_stmt 1 view .LVU710
 337:Drivers/BSP/STM32F769I-Discovery/stm32f769i_discovery_qspi.c ****   s_command.AlternateByteMode = QSPI_ALTERNATE_BYTES_NONE;
 1871              		.loc 1 337 31 is_stmt 0 view .LVU711
 1872 001a 0190     		str	r0, [sp, #4]
 338:Drivers/BSP/STM32F769I-Discovery/stm32f769i_discovery_qspi.c ****   s_command.DataMode          = QSPI_DATA_NONE;
ARM GAS  /var/folders/n6/c271nzx11xl4r4_m7sqjlt0m0000gn/T//cc22wCrs.s 			page 82


 1873              		.loc 1 338 3 is_stmt 1 view .LVU712
 338:Drivers/BSP/STM32F769I-Discovery/stm32f769i_discovery_qspi.c ****   s_command.DataMode          = QSPI_DATA_NONE;
 1874              		.loc 1 338 31 is_stmt 0 view .LVU713
 1875 001c 0023     		movs	r3, #0
 1876 001e 0893     		str	r3, [sp, #32]
 339:Drivers/BSP/STM32F769I-Discovery/stm32f769i_discovery_qspi.c ****   s_command.DummyCycles       = 0;
 1877              		.loc 1 339 3 is_stmt 1 view .LVU714
 339:Drivers/BSP/STM32F769I-Discovery/stm32f769i_discovery_qspi.c ****   s_command.DummyCycles       = 0;
 1878              		.loc 1 339 31 is_stmt 0 view .LVU715
 1879 0020 0993     		str	r3, [sp, #36]
 340:Drivers/BSP/STM32F769I-Discovery/stm32f769i_discovery_qspi.c ****   s_command.DdrMode           = QSPI_DDR_MODE_DISABLE;
 1880              		.loc 1 340 3 is_stmt 1 view .LVU716
 340:Drivers/BSP/STM32F769I-Discovery/stm32f769i_discovery_qspi.c ****   s_command.DdrMode           = QSPI_DDR_MODE_DISABLE;
 1881              		.loc 1 340 31 is_stmt 0 view .LVU717
 1882 0022 0593     		str	r3, [sp, #20]
 341:Drivers/BSP/STM32F769I-Discovery/stm32f769i_discovery_qspi.c ****   s_command.DdrHoldHalfCycle  = QSPI_DDR_HHC_ANALOG_DELAY;
 1883              		.loc 1 341 3 is_stmt 1 view .LVU718
 341:Drivers/BSP/STM32F769I-Discovery/stm32f769i_discovery_qspi.c ****   s_command.DdrHoldHalfCycle  = QSPI_DDR_HHC_ANALOG_DELAY;
 1884              		.loc 1 341 31 is_stmt 0 view .LVU719
 1885 0024 0B93     		str	r3, [sp, #44]
 342:Drivers/BSP/STM32F769I-Discovery/stm32f769i_discovery_qspi.c ****   s_command.SIOOMode          = QSPI_SIOO_INST_EVERY_CMD;
 1886              		.loc 1 342 3 is_stmt 1 view .LVU720
 342:Drivers/BSP/STM32F769I-Discovery/stm32f769i_discovery_qspi.c ****   s_command.SIOOMode          = QSPI_SIOO_INST_EVERY_CMD;
 1887              		.loc 1 342 31 is_stmt 0 view .LVU721
 1888 0026 0C93     		str	r3, [sp, #48]
 343:Drivers/BSP/STM32F769I-Discovery/stm32f769i_discovery_qspi.c **** 
 1889              		.loc 1 343 3 is_stmt 1 view .LVU722
 343:Drivers/BSP/STM32F769I-Discovery/stm32f769i_discovery_qspi.c **** 
 1890              		.loc 1 343 31 is_stmt 0 view .LVU723
 1891 0028 0D93     		str	r3, [sp, #52]
 346:Drivers/BSP/STM32F769I-Discovery/stm32f769i_discovery_qspi.c ****   {
 1892              		.loc 1 346 3 is_stmt 1 view .LVU724
 346:Drivers/BSP/STM32F769I-Discovery/stm32f769i_discovery_qspi.c ****   {
 1893              		.loc 1 346 7 is_stmt 0 view .LVU725
 1894 002a 0D48     		ldr	r0, .L121
 1895              	.LVL112:
 346:Drivers/BSP/STM32F769I-Discovery/stm32f769i_discovery_qspi.c ****   {
 1896              		.loc 1 346 7 view .LVU726
 1897 002c FFF7FEFF 		bl	QSPI_WriteEnable
 1898              	.LVL113:
 346:Drivers/BSP/STM32F769I-Discovery/stm32f769i_discovery_qspi.c ****   {
 1899              		.loc 1 346 6 discriminator 1 view .LVU727
 1900 0030 18B1     		cbz	r0, .L119
 348:Drivers/BSP/STM32F769I-Discovery/stm32f769i_discovery_qspi.c ****   }
 1901              		.loc 1 348 12 view .LVU728
 1902 0032 0120     		movs	r0, #1
 1903              	.L114:
 364:Drivers/BSP/STM32F769I-Discovery/stm32f769i_discovery_qspi.c **** 
 1904              		.loc 1 364 1 view .LVU729
 1905 0034 0FB0     		add	sp, sp, #60
 1906              		.cfi_remember_state
 1907              		.cfi_def_cfa_offset 4
 1908              		@ sp needed
 1909 0036 5DF804FB 		ldr	pc, [sp], #4
 1910              	.L119:
 1911              		.cfi_restore_state
 352:Drivers/BSP/STM32F769I-Discovery/stm32f769i_discovery_qspi.c ****   {
ARM GAS  /var/folders/n6/c271nzx11xl4r4_m7sqjlt0m0000gn/T//cc22wCrs.s 			page 83


 1912              		.loc 1 352 3 is_stmt 1 view .LVU730
 352:Drivers/BSP/STM32F769I-Discovery/stm32f769i_discovery_qspi.c ****   {
 1913              		.loc 1 352 7 is_stmt 0 view .LVU731
 1914 003a 41F28832 		movw	r2, #5000
 1915 003e 6946     		mov	r1, sp
 1916 0040 0748     		ldr	r0, .L121
 1917 0042 FFF7FEFF 		bl	HAL_QSPI_Command
 1918              	.LVL114:
 352:Drivers/BSP/STM32F769I-Discovery/stm32f769i_discovery_qspi.c ****   {
 1919              		.loc 1 352 6 discriminator 1 view .LVU732
 1920 0046 08B1     		cbz	r0, .L120
 354:Drivers/BSP/STM32F769I-Discovery/stm32f769i_discovery_qspi.c ****   }
 1921              		.loc 1 354 12 view .LVU733
 1922 0048 0120     		movs	r0, #1
 1923 004a F3E7     		b	.L114
 1924              	.L120:
 358:Drivers/BSP/STM32F769I-Discovery/stm32f769i_discovery_qspi.c ****   {
 1925              		.loc 1 358 3 is_stmt 1 view .LVU734
 358:Drivers/BSP/STM32F769I-Discovery/stm32f769i_discovery_qspi.c ****   {
 1926              		.loc 1 358 7 is_stmt 0 view .LVU735
 1927 004c 4FF44871 		mov	r1, #800
 1928 0050 0348     		ldr	r0, .L121
 1929 0052 FFF7FEFF 		bl	QSPI_AutoPollingMemReady
 1930              	.LVL115:
 358:Drivers/BSP/STM32F769I-Discovery/stm32f769i_discovery_qspi.c ****   {
 1931              		.loc 1 358 6 discriminator 1 view .LVU736
 1932 0056 0028     		cmp	r0, #0
 1933 0058 ECD0     		beq	.L114
 360:Drivers/BSP/STM32F769I-Discovery/stm32f769i_discovery_qspi.c ****   }
 1934              		.loc 1 360 12 view .LVU737
 1935 005a 0120     		movs	r0, #1
 1936 005c EAE7     		b	.L114
 1937              	.L122:
 1938 005e 00BF     		.align	2
 1939              	.L121:
 1940 0060 00000000 		.word	QSPIHandle
 1941              		.cfi_endproc
 1942              	.LFE145:
 1944              		.section	.text.BSP_QSPI_Erase_Chip,"ax",%progbits
 1945              		.align	1
 1946              		.global	BSP_QSPI_Erase_Chip
 1947              		.syntax unified
 1948              		.thumb
 1949              		.thumb_func
 1951              	BSP_QSPI_Erase_Chip:
 1952              	.LFB146:
 371:Drivers/BSP/STM32F769I-Discovery/stm32f769i_discovery_qspi.c ****   QSPI_CommandTypeDef s_command;
 1953              		.loc 1 371 1 is_stmt 1 view -0
 1954              		.cfi_startproc
 1955              		@ args = 0, pretend = 0, frame = 56
 1956              		@ frame_needed = 0, uses_anonymous_args = 0
 1957 0000 00B5     		push	{lr}
 1958              		.cfi_def_cfa_offset 4
 1959              		.cfi_offset 14, -4
 1960 0002 8FB0     		sub	sp, sp, #60
 1961              		.cfi_def_cfa_offset 64
 372:Drivers/BSP/STM32F769I-Discovery/stm32f769i_discovery_qspi.c **** 
ARM GAS  /var/folders/n6/c271nzx11xl4r4_m7sqjlt0m0000gn/T//cc22wCrs.s 			page 84


 1962              		.loc 1 372 3 view .LVU739
 375:Drivers/BSP/STM32F769I-Discovery/stm32f769i_discovery_qspi.c ****   s_command.Instruction       = BULK_ERASE_CMD;
 1963              		.loc 1 375 3 view .LVU740
 375:Drivers/BSP/STM32F769I-Discovery/stm32f769i_discovery_qspi.c ****   s_command.Instruction       = BULK_ERASE_CMD;
 1964              		.loc 1 375 31 is_stmt 0 view .LVU741
 1965 0004 4FF44073 		mov	r3, #768
 1966 0008 0693     		str	r3, [sp, #24]
 376:Drivers/BSP/STM32F769I-Discovery/stm32f769i_discovery_qspi.c ****   s_command.AddressMode       = QSPI_ADDRESS_NONE;
 1967              		.loc 1 376 3 is_stmt 1 view .LVU742
 376:Drivers/BSP/STM32F769I-Discovery/stm32f769i_discovery_qspi.c ****   s_command.AddressMode       = QSPI_ADDRESS_NONE;
 1968              		.loc 1 376 31 is_stmt 0 view .LVU743
 1969 000a C723     		movs	r3, #199
 1970 000c 0093     		str	r3, [sp]
 377:Drivers/BSP/STM32F769I-Discovery/stm32f769i_discovery_qspi.c ****   s_command.AlternateByteMode = QSPI_ALTERNATE_BYTES_NONE;
 1971              		.loc 1 377 3 is_stmt 1 view .LVU744
 377:Drivers/BSP/STM32F769I-Discovery/stm32f769i_discovery_qspi.c ****   s_command.AlternateByteMode = QSPI_ALTERNATE_BYTES_NONE;
 1972              		.loc 1 377 31 is_stmt 0 view .LVU745
 1973 000e 0023     		movs	r3, #0
 1974 0010 0793     		str	r3, [sp, #28]
 378:Drivers/BSP/STM32F769I-Discovery/stm32f769i_discovery_qspi.c ****   s_command.DataMode          = QSPI_DATA_NONE;
 1975              		.loc 1 378 3 is_stmt 1 view .LVU746
 378:Drivers/BSP/STM32F769I-Discovery/stm32f769i_discovery_qspi.c ****   s_command.DataMode          = QSPI_DATA_NONE;
 1976              		.loc 1 378 31 is_stmt 0 view .LVU747
 1977 0012 0893     		str	r3, [sp, #32]
 379:Drivers/BSP/STM32F769I-Discovery/stm32f769i_discovery_qspi.c ****   s_command.DummyCycles       = 0;
 1978              		.loc 1 379 3 is_stmt 1 view .LVU748
 379:Drivers/BSP/STM32F769I-Discovery/stm32f769i_discovery_qspi.c ****   s_command.DummyCycles       = 0;
 1979              		.loc 1 379 31 is_stmt 0 view .LVU749
 1980 0014 0993     		str	r3, [sp, #36]
 380:Drivers/BSP/STM32F769I-Discovery/stm32f769i_discovery_qspi.c ****   s_command.DdrMode           = QSPI_DDR_MODE_DISABLE;
 1981              		.loc 1 380 3 is_stmt 1 view .LVU750
 380:Drivers/BSP/STM32F769I-Discovery/stm32f769i_discovery_qspi.c ****   s_command.DdrMode           = QSPI_DDR_MODE_DISABLE;
 1982              		.loc 1 380 31 is_stmt 0 view .LVU751
 1983 0016 0593     		str	r3, [sp, #20]
 381:Drivers/BSP/STM32F769I-Discovery/stm32f769i_discovery_qspi.c ****   s_command.DdrHoldHalfCycle  = QSPI_DDR_HHC_ANALOG_DELAY;
 1984              		.loc 1 381 3 is_stmt 1 view .LVU752
 381:Drivers/BSP/STM32F769I-Discovery/stm32f769i_discovery_qspi.c ****   s_command.DdrHoldHalfCycle  = QSPI_DDR_HHC_ANALOG_DELAY;
 1985              		.loc 1 381 31 is_stmt 0 view .LVU753
 1986 0018 0B93     		str	r3, [sp, #44]
 382:Drivers/BSP/STM32F769I-Discovery/stm32f769i_discovery_qspi.c ****   s_command.SIOOMode          = QSPI_SIOO_INST_EVERY_CMD;
 1987              		.loc 1 382 3 is_stmt 1 view .LVU754
 382:Drivers/BSP/STM32F769I-Discovery/stm32f769i_discovery_qspi.c ****   s_command.SIOOMode          = QSPI_SIOO_INST_EVERY_CMD;
 1988              		.loc 1 382 31 is_stmt 0 view .LVU755
 1989 001a 0C93     		str	r3, [sp, #48]
 383:Drivers/BSP/STM32F769I-Discovery/stm32f769i_discovery_qspi.c **** 
 1990              		.loc 1 383 3 is_stmt 1 view .LVU756
 383:Drivers/BSP/STM32F769I-Discovery/stm32f769i_discovery_qspi.c **** 
 1991              		.loc 1 383 31 is_stmt 0 view .LVU757
 1992 001c 0D93     		str	r3, [sp, #52]
 386:Drivers/BSP/STM32F769I-Discovery/stm32f769i_discovery_qspi.c ****   {
 1993              		.loc 1 386 3 is_stmt 1 view .LVU758
 386:Drivers/BSP/STM32F769I-Discovery/stm32f769i_discovery_qspi.c ****   {
 1994              		.loc 1 386 7 is_stmt 0 view .LVU759
 1995 001e 0C48     		ldr	r0, .L131
 1996 0020 FFF7FEFF 		bl	QSPI_WriteEnable
 1997              	.LVL116:
 386:Drivers/BSP/STM32F769I-Discovery/stm32f769i_discovery_qspi.c ****   {
ARM GAS  /var/folders/n6/c271nzx11xl4r4_m7sqjlt0m0000gn/T//cc22wCrs.s 			page 85


 1998              		.loc 1 386 6 discriminator 1 view .LVU760
 1999 0024 18B1     		cbz	r0, .L129
 388:Drivers/BSP/STM32F769I-Discovery/stm32f769i_discovery_qspi.c ****   }
 2000              		.loc 1 388 12 view .LVU761
 2001 0026 0120     		movs	r0, #1
 2002              	.L124:
 404:Drivers/BSP/STM32F769I-Discovery/stm32f769i_discovery_qspi.c **** 
 2003              		.loc 1 404 1 view .LVU762
 2004 0028 0FB0     		add	sp, sp, #60
 2005              		.cfi_remember_state
 2006              		.cfi_def_cfa_offset 4
 2007              		@ sp needed
 2008 002a 5DF804FB 		ldr	pc, [sp], #4
 2009              	.L129:
 2010              		.cfi_restore_state
 392:Drivers/BSP/STM32F769I-Discovery/stm32f769i_discovery_qspi.c ****   {
 2011              		.loc 1 392 3 is_stmt 1 view .LVU763
 392:Drivers/BSP/STM32F769I-Discovery/stm32f769i_discovery_qspi.c ****   {
 2012              		.loc 1 392 7 is_stmt 0 view .LVU764
 2013 002e 41F28832 		movw	r2, #5000
 2014 0032 6946     		mov	r1, sp
 2015 0034 0648     		ldr	r0, .L131
 2016 0036 FFF7FEFF 		bl	HAL_QSPI_Command
 2017              	.LVL117:
 392:Drivers/BSP/STM32F769I-Discovery/stm32f769i_discovery_qspi.c ****   {
 2018              		.loc 1 392 6 discriminator 1 view .LVU765
 2019 003a 08B1     		cbz	r0, .L130
 394:Drivers/BSP/STM32F769I-Discovery/stm32f769i_discovery_qspi.c ****   }
 2020              		.loc 1 394 12 view .LVU766
 2021 003c 0120     		movs	r0, #1
 2022 003e F3E7     		b	.L124
 2023              	.L130:
 398:Drivers/BSP/STM32F769I-Discovery/stm32f769i_discovery_qspi.c ****   {
 2024              		.loc 1 398 3 is_stmt 1 view .LVU767
 398:Drivers/BSP/STM32F769I-Discovery/stm32f769i_discovery_qspi.c ****   {
 2025              		.loc 1 398 7 is_stmt 0 view .LVU768
 2026 0040 0449     		ldr	r1, .L131+4
 2027 0042 0348     		ldr	r0, .L131
 2028 0044 FFF7FEFF 		bl	QSPI_AutoPollingMemReady
 2029              	.LVL118:
 398:Drivers/BSP/STM32F769I-Discovery/stm32f769i_discovery_qspi.c ****   {
 2030              		.loc 1 398 6 discriminator 1 view .LVU769
 2031 0048 0028     		cmp	r0, #0
 2032 004a EDD0     		beq	.L124
 400:Drivers/BSP/STM32F769I-Discovery/stm32f769i_discovery_qspi.c ****   }
 2033              		.loc 1 400 12 view .LVU770
 2034 004c 0120     		movs	r0, #1
 2035 004e EBE7     		b	.L124
 2036              	.L132:
 2037              		.align	2
 2038              	.L131:
 2039 0050 00000000 		.word	QSPIHandle
 2040 0054 C0270900 		.word	600000
 2041              		.cfi_endproc
 2042              	.LFE146:
 2044              		.section	.text.BSP_QSPI_GetStatus,"ax",%progbits
 2045              		.align	1
ARM GAS  /var/folders/n6/c271nzx11xl4r4_m7sqjlt0m0000gn/T//cc22wCrs.s 			page 86


 2046              		.global	BSP_QSPI_GetStatus
 2047              		.syntax unified
 2048              		.thumb
 2049              		.thumb_func
 2051              	BSP_QSPI_GetStatus:
 2052              	.LFB147:
 411:Drivers/BSP/STM32F769I-Discovery/stm32f769i_discovery_qspi.c ****   QSPI_CommandTypeDef s_command;
 2053              		.loc 1 411 1 is_stmt 1 view -0
 2054              		.cfi_startproc
 2055              		@ args = 0, pretend = 0, frame = 64
 2056              		@ frame_needed = 0, uses_anonymous_args = 0
 2057 0000 00B5     		push	{lr}
 2058              		.cfi_def_cfa_offset 4
 2059              		.cfi_offset 14, -4
 2060 0002 91B0     		sub	sp, sp, #68
 2061              		.cfi_def_cfa_offset 72
 412:Drivers/BSP/STM32F769I-Discovery/stm32f769i_discovery_qspi.c ****   uint8_t reg;
 2062              		.loc 1 412 3 view .LVU772
 413:Drivers/BSP/STM32F769I-Discovery/stm32f769i_discovery_qspi.c ****   
 2063              		.loc 1 413 3 view .LVU773
 416:Drivers/BSP/STM32F769I-Discovery/stm32f769i_discovery_qspi.c ****   s_command.Instruction       = READ_STATUS_REG_CMD;
 2064              		.loc 1 416 3 view .LVU774
 416:Drivers/BSP/STM32F769I-Discovery/stm32f769i_discovery_qspi.c ****   s_command.Instruction       = READ_STATUS_REG_CMD;
 2065              		.loc 1 416 31 is_stmt 0 view .LVU775
 2066 0004 4FF44073 		mov	r3, #768
 2067 0008 0893     		str	r3, [sp, #32]
 417:Drivers/BSP/STM32F769I-Discovery/stm32f769i_discovery_qspi.c ****   s_command.AddressMode       = QSPI_ADDRESS_NONE;
 2068              		.loc 1 417 3 is_stmt 1 view .LVU776
 417:Drivers/BSP/STM32F769I-Discovery/stm32f769i_discovery_qspi.c ****   s_command.AddressMode       = QSPI_ADDRESS_NONE;
 2069              		.loc 1 417 31 is_stmt 0 view .LVU777
 2070 000a 0523     		movs	r3, #5
 2071 000c 0293     		str	r3, [sp, #8]
 418:Drivers/BSP/STM32F769I-Discovery/stm32f769i_discovery_qspi.c ****   s_command.AlternateByteMode = QSPI_ALTERNATE_BYTES_NONE;
 2072              		.loc 1 418 3 is_stmt 1 view .LVU778
 418:Drivers/BSP/STM32F769I-Discovery/stm32f769i_discovery_qspi.c ****   s_command.AlternateByteMode = QSPI_ALTERNATE_BYTES_NONE;
 2073              		.loc 1 418 31 is_stmt 0 view .LVU779
 2074 000e 0023     		movs	r3, #0
 2075 0010 0993     		str	r3, [sp, #36]
 419:Drivers/BSP/STM32F769I-Discovery/stm32f769i_discovery_qspi.c ****   s_command.DataMode          = QSPI_DATA_4_LINES;
 2076              		.loc 1 419 3 is_stmt 1 view .LVU780
 419:Drivers/BSP/STM32F769I-Discovery/stm32f769i_discovery_qspi.c ****   s_command.DataMode          = QSPI_DATA_4_LINES;
 2077              		.loc 1 419 31 is_stmt 0 view .LVU781
 2078 0012 0A93     		str	r3, [sp, #40]
 420:Drivers/BSP/STM32F769I-Discovery/stm32f769i_discovery_qspi.c ****   s_command.DummyCycles       = 0;
 2079              		.loc 1 420 3 is_stmt 1 view .LVU782
 420:Drivers/BSP/STM32F769I-Discovery/stm32f769i_discovery_qspi.c ****   s_command.DummyCycles       = 0;
 2080              		.loc 1 420 31 is_stmt 0 view .LVU783
 2081 0014 4FF04072 		mov	r2, #50331648
 2082 0018 0B92     		str	r2, [sp, #44]
 421:Drivers/BSP/STM32F769I-Discovery/stm32f769i_discovery_qspi.c ****   s_command.NbData            = 1;
 2083              		.loc 1 421 3 is_stmt 1 view .LVU784
 421:Drivers/BSP/STM32F769I-Discovery/stm32f769i_discovery_qspi.c ****   s_command.NbData            = 1;
 2084              		.loc 1 421 31 is_stmt 0 view .LVU785
 2085 001a 0793     		str	r3, [sp, #28]
 422:Drivers/BSP/STM32F769I-Discovery/stm32f769i_discovery_qspi.c ****   s_command.DdrMode           = QSPI_DDR_MODE_DISABLE;
 2086              		.loc 1 422 3 is_stmt 1 view .LVU786
 422:Drivers/BSP/STM32F769I-Discovery/stm32f769i_discovery_qspi.c ****   s_command.DdrMode           = QSPI_DDR_MODE_DISABLE;
ARM GAS  /var/folders/n6/c271nzx11xl4r4_m7sqjlt0m0000gn/T//cc22wCrs.s 			page 87


 2087              		.loc 1 422 31 is_stmt 0 view .LVU787
 2088 001c 0122     		movs	r2, #1
 2089 001e 0C92     		str	r2, [sp, #48]
 423:Drivers/BSP/STM32F769I-Discovery/stm32f769i_discovery_qspi.c ****   s_command.DdrHoldHalfCycle  = QSPI_DDR_HHC_ANALOG_DELAY;
 2090              		.loc 1 423 3 is_stmt 1 view .LVU788
 423:Drivers/BSP/STM32F769I-Discovery/stm32f769i_discovery_qspi.c ****   s_command.DdrHoldHalfCycle  = QSPI_DDR_HHC_ANALOG_DELAY;
 2091              		.loc 1 423 31 is_stmt 0 view .LVU789
 2092 0020 0D93     		str	r3, [sp, #52]
 424:Drivers/BSP/STM32F769I-Discovery/stm32f769i_discovery_qspi.c ****   s_command.SIOOMode          = QSPI_SIOO_INST_EVERY_CMD;
 2093              		.loc 1 424 3 is_stmt 1 view .LVU790
 424:Drivers/BSP/STM32F769I-Discovery/stm32f769i_discovery_qspi.c ****   s_command.SIOOMode          = QSPI_SIOO_INST_EVERY_CMD;
 2094              		.loc 1 424 31 is_stmt 0 view .LVU791
 2095 0022 0E93     		str	r3, [sp, #56]
 425:Drivers/BSP/STM32F769I-Discovery/stm32f769i_discovery_qspi.c ****   
 2096              		.loc 1 425 3 is_stmt 1 view .LVU792
 425:Drivers/BSP/STM32F769I-Discovery/stm32f769i_discovery_qspi.c ****   
 2097              		.loc 1 425 31 is_stmt 0 view .LVU793
 2098 0024 0F93     		str	r3, [sp, #60]
 428:Drivers/BSP/STM32F769I-Discovery/stm32f769i_discovery_qspi.c ****   {
 2099              		.loc 1 428 3 is_stmt 1 view .LVU794
 428:Drivers/BSP/STM32F769I-Discovery/stm32f769i_discovery_qspi.c ****   {
 2100              		.loc 1 428 7 is_stmt 0 view .LVU795
 2101 0026 41F28832 		movw	r2, #5000
 2102 002a 02A9     		add	r1, sp, #8
 2103 002c 0C48     		ldr	r0, .L140
 2104 002e FFF7FEFF 		bl	HAL_QSPI_Command
 2105              	.LVL119:
 428:Drivers/BSP/STM32F769I-Discovery/stm32f769i_discovery_qspi.c ****   {
 2106              		.loc 1 428 6 discriminator 1 view .LVU796
 2107 0032 18B1     		cbz	r0, .L139
 430:Drivers/BSP/STM32F769I-Discovery/stm32f769i_discovery_qspi.c ****   }
 2108              		.loc 1 430 12 view .LVU797
 2109 0034 0120     		movs	r0, #1
 2110              	.L134:
 448:Drivers/BSP/STM32F769I-Discovery/stm32f769i_discovery_qspi.c **** 
 2111              		.loc 1 448 1 view .LVU798
 2112 0036 11B0     		add	sp, sp, #68
 2113              		.cfi_remember_state
 2114              		.cfi_def_cfa_offset 4
 2115              		@ sp needed
 2116 0038 5DF804FB 		ldr	pc, [sp], #4
 2117              	.L139:
 2118              		.cfi_restore_state
 434:Drivers/BSP/STM32F769I-Discovery/stm32f769i_discovery_qspi.c ****   {
 2119              		.loc 1 434 3 is_stmt 1 view .LVU799
 434:Drivers/BSP/STM32F769I-Discovery/stm32f769i_discovery_qspi.c ****   {
 2120              		.loc 1 434 7 is_stmt 0 view .LVU800
 2121 003c 41F28832 		movw	r2, #5000
 2122 0040 0DF10701 		add	r1, sp, #7
 2123 0044 0648     		ldr	r0, .L140
 2124 0046 FFF7FEFF 		bl	HAL_QSPI_Receive
 2125              	.LVL120:
 434:Drivers/BSP/STM32F769I-Discovery/stm32f769i_discovery_qspi.c ****   {
 2126              		.loc 1 434 6 discriminator 1 view .LVU801
 2127 004a 30B9     		cbnz	r0, .L136
 440:Drivers/BSP/STM32F769I-Discovery/stm32f769i_discovery_qspi.c ****   {
 2128              		.loc 1 440 3 is_stmt 1 view .LVU802
ARM GAS  /var/folders/n6/c271nzx11xl4r4_m7sqjlt0m0000gn/T//cc22wCrs.s 			page 88


 440:Drivers/BSP/STM32F769I-Discovery/stm32f769i_discovery_qspi.c ****   {
 2129              		.loc 1 440 12 is_stmt 0 view .LVU803
 2130 004c 9DF80700 		ldrb	r0, [sp, #7]	@ zero_extendqisi2
 440:Drivers/BSP/STM32F769I-Discovery/stm32f769i_discovery_qspi.c ****   {
 2131              		.loc 1 440 6 view .LVU804
 2132 0050 10F00100 		ands	r0, r0, #1
 2133 0054 EFD0     		beq	.L134
 446:Drivers/BSP/STM32F769I-Discovery/stm32f769i_discovery_qspi.c ****   }
 2134              		.loc 1 446 12 view .LVU805
 2135 0056 0220     		movs	r0, #2
 2136 0058 EDE7     		b	.L134
 2137              	.L136:
 436:Drivers/BSP/STM32F769I-Discovery/stm32f769i_discovery_qspi.c ****   }
 2138              		.loc 1 436 12 view .LVU806
 2139 005a 0120     		movs	r0, #1
 2140 005c EBE7     		b	.L134
 2141              	.L141:
 2142 005e 00BF     		.align	2
 2143              	.L140:
 2144 0060 00000000 		.word	QSPIHandle
 2145              		.cfi_endproc
 2146              	.LFE147:
 2148              		.section	.text.BSP_QSPI_GetInfo,"ax",%progbits
 2149              		.align	1
 2150              		.global	BSP_QSPI_GetInfo
 2151              		.syntax unified
 2152              		.thumb
 2153              		.thumb_func
 2155              	BSP_QSPI_GetInfo:
 2156              	.LVL121:
 2157              	.LFB148:
 456:Drivers/BSP/STM32F769I-Discovery/stm32f769i_discovery_qspi.c ****   /* Configure the structure with the memory configuration */
 2158              		.loc 1 456 1 is_stmt 1 view -0
 2159              		.cfi_startproc
 2160              		@ args = 0, pretend = 0, frame = 0
 2161              		@ frame_needed = 0, uses_anonymous_args = 0
 2162              		@ link register save eliminated.
 458:Drivers/BSP/STM32F769I-Discovery/stm32f769i_discovery_qspi.c ****   pInfo->EraseSectorSize    = MX25L512_SUBSECTOR_SIZE;
 2163              		.loc 1 458 3 view .LVU808
 458:Drivers/BSP/STM32F769I-Discovery/stm32f769i_discovery_qspi.c ****   pInfo->EraseSectorSize    = MX25L512_SUBSECTOR_SIZE;
 2164              		.loc 1 458 29 is_stmt 0 view .LVU809
 2165 0000 4FF08063 		mov	r3, #67108864
 2166 0004 0360     		str	r3, [r0]
 459:Drivers/BSP/STM32F769I-Discovery/stm32f769i_discovery_qspi.c ****   pInfo->EraseSectorsNumber = (MX25L512_FLASH_SIZE/MX25L512_SUBSECTOR_SIZE);
 2167              		.loc 1 459 3 is_stmt 1 view .LVU810
 459:Drivers/BSP/STM32F769I-Discovery/stm32f769i_discovery_qspi.c ****   pInfo->EraseSectorsNumber = (MX25L512_FLASH_SIZE/MX25L512_SUBSECTOR_SIZE);
 2168              		.loc 1 459 29 is_stmt 0 view .LVU811
 2169 0006 4FF48053 		mov	r3, #4096
 2170 000a 4360     		str	r3, [r0, #4]
 460:Drivers/BSP/STM32F769I-Discovery/stm32f769i_discovery_qspi.c ****   pInfo->ProgPageSize       = MX25L512_PAGE_SIZE;
 2171              		.loc 1 460 3 is_stmt 1 view .LVU812
 460:Drivers/BSP/STM32F769I-Discovery/stm32f769i_discovery_qspi.c ****   pInfo->ProgPageSize       = MX25L512_PAGE_SIZE;
 2172              		.loc 1 460 29 is_stmt 0 view .LVU813
 2173 000c 4FF48043 		mov	r3, #16384
 2174 0010 8360     		str	r3, [r0, #8]
 461:Drivers/BSP/STM32F769I-Discovery/stm32f769i_discovery_qspi.c ****   pInfo->ProgPagesNumber    = (MX25L512_FLASH_SIZE/MX25L512_PAGE_SIZE);
 2175              		.loc 1 461 3 is_stmt 1 view .LVU814
ARM GAS  /var/folders/n6/c271nzx11xl4r4_m7sqjlt0m0000gn/T//cc22wCrs.s 			page 89


 461:Drivers/BSP/STM32F769I-Discovery/stm32f769i_discovery_qspi.c ****   pInfo->ProgPagesNumber    = (MX25L512_FLASH_SIZE/MX25L512_PAGE_SIZE);
 2176              		.loc 1 461 29 is_stmt 0 view .LVU815
 2177 0012 4FF48073 		mov	r3, #256
 2178 0016 C360     		str	r3, [r0, #12]
 462:Drivers/BSP/STM32F769I-Discovery/stm32f769i_discovery_qspi.c ****   
 2179              		.loc 1 462 3 is_stmt 1 view .LVU816
 462:Drivers/BSP/STM32F769I-Discovery/stm32f769i_discovery_qspi.c ****   
 2180              		.loc 1 462 29 is_stmt 0 view .LVU817
 2181 0018 4FF48023 		mov	r3, #262144
 2182 001c 0361     		str	r3, [r0, #16]
 464:Drivers/BSP/STM32F769I-Discovery/stm32f769i_discovery_qspi.c **** }
 2183              		.loc 1 464 3 is_stmt 1 view .LVU818
 465:Drivers/BSP/STM32F769I-Discovery/stm32f769i_discovery_qspi.c **** 
 2184              		.loc 1 465 1 is_stmt 0 view .LVU819
 2185 001e 0020     		movs	r0, #0
 2186              	.LVL122:
 465:Drivers/BSP/STM32F769I-Discovery/stm32f769i_discovery_qspi.c **** 
 2187              		.loc 1 465 1 view .LVU820
 2188 0020 7047     		bx	lr
 2189              		.cfi_endproc
 2190              	.LFE148:
 2192              		.section	.text.BSP_QSPI_EnableMemoryMappedMode,"ax",%progbits
 2193              		.align	1
 2194              		.global	BSP_QSPI_EnableMemoryMappedMode
 2195              		.syntax unified
 2196              		.thumb
 2197              		.thumb_func
 2199              	BSP_QSPI_EnableMemoryMappedMode:
 2200              	.LFB149:
 472:Drivers/BSP/STM32F769I-Discovery/stm32f769i_discovery_qspi.c ****   QSPI_CommandTypeDef      s_command;
 2201              		.loc 1 472 1 is_stmt 1 view -0
 2202              		.cfi_startproc
 2203              		@ args = 0, pretend = 0, frame = 64
 2204              		@ frame_needed = 0, uses_anonymous_args = 0
 2205 0000 00B5     		push	{lr}
 2206              		.cfi_def_cfa_offset 4
 2207              		.cfi_offset 14, -4
 2208 0002 91B0     		sub	sp, sp, #68
 2209              		.cfi_def_cfa_offset 72
 473:Drivers/BSP/STM32F769I-Discovery/stm32f769i_discovery_qspi.c ****   QSPI_MemoryMappedTypeDef s_mem_mapped_cfg;
 2210              		.loc 1 473 3 view .LVU822
 474:Drivers/BSP/STM32F769I-Discovery/stm32f769i_discovery_qspi.c **** 
 2211              		.loc 1 474 3 view .LVU823
 477:Drivers/BSP/STM32F769I-Discovery/stm32f769i_discovery_qspi.c ****   s_command.Instruction       = QPI_READ_4_BYTE_ADDR_CMD;
 2212              		.loc 1 477 3 view .LVU824
 477:Drivers/BSP/STM32F769I-Discovery/stm32f769i_discovery_qspi.c ****   s_command.Instruction       = QPI_READ_4_BYTE_ADDR_CMD;
 2213              		.loc 1 477 31 is_stmt 0 view .LVU825
 2214 0004 4FF44073 		mov	r3, #768
 2215 0008 0893     		str	r3, [sp, #32]
 478:Drivers/BSP/STM32F769I-Discovery/stm32f769i_discovery_qspi.c ****   s_command.AddressMode       = QSPI_ADDRESS_4_LINES;
 2216              		.loc 1 478 3 is_stmt 1 view .LVU826
 478:Drivers/BSP/STM32F769I-Discovery/stm32f769i_discovery_qspi.c ****   s_command.AddressMode       = QSPI_ADDRESS_4_LINES;
 2217              		.loc 1 478 31 is_stmt 0 view .LVU827
 2218 000a EC23     		movs	r3, #236
 2219 000c 0293     		str	r3, [sp, #8]
 479:Drivers/BSP/STM32F769I-Discovery/stm32f769i_discovery_qspi.c ****   s_command.AddressSize       = QSPI_ADDRESS_32_BITS;
 2220              		.loc 1 479 3 is_stmt 1 view .LVU828
ARM GAS  /var/folders/n6/c271nzx11xl4r4_m7sqjlt0m0000gn/T//cc22wCrs.s 			page 90


 479:Drivers/BSP/STM32F769I-Discovery/stm32f769i_discovery_qspi.c ****   s_command.AddressSize       = QSPI_ADDRESS_32_BITS;
 2221              		.loc 1 479 31 is_stmt 0 view .LVU829
 2222 000e 4FF44063 		mov	r3, #3072
 2223 0012 0993     		str	r3, [sp, #36]
 480:Drivers/BSP/STM32F769I-Discovery/stm32f769i_discovery_qspi.c ****   s_command.AlternateByteMode = QSPI_ALTERNATE_BYTES_NONE;
 2224              		.loc 1 480 3 is_stmt 1 view .LVU830
 480:Drivers/BSP/STM32F769I-Discovery/stm32f769i_discovery_qspi.c ****   s_command.AlternateByteMode = QSPI_ALTERNATE_BYTES_NONE;
 2225              		.loc 1 480 31 is_stmt 0 view .LVU831
 2226 0014 4FF44053 		mov	r3, #12288
 2227 0018 0593     		str	r3, [sp, #20]
 481:Drivers/BSP/STM32F769I-Discovery/stm32f769i_discovery_qspi.c ****   s_command.DataMode          = QSPI_DATA_4_LINES;
 2228              		.loc 1 481 3 is_stmt 1 view .LVU832
 481:Drivers/BSP/STM32F769I-Discovery/stm32f769i_discovery_qspi.c ****   s_command.DataMode          = QSPI_DATA_4_LINES;
 2229              		.loc 1 481 31 is_stmt 0 view .LVU833
 2230 001a 0023     		movs	r3, #0
 2231 001c 0A93     		str	r3, [sp, #40]
 482:Drivers/BSP/STM32F769I-Discovery/stm32f769i_discovery_qspi.c ****   s_command.DummyCycles       = MX25L512_DUMMY_CYCLES_READ_QUAD_IO;
 2232              		.loc 1 482 3 is_stmt 1 view .LVU834
 482:Drivers/BSP/STM32F769I-Discovery/stm32f769i_discovery_qspi.c ****   s_command.DummyCycles       = MX25L512_DUMMY_CYCLES_READ_QUAD_IO;
 2233              		.loc 1 482 31 is_stmt 0 view .LVU835
 2234 001e 4FF04072 		mov	r2, #50331648
 2235 0022 0B92     		str	r2, [sp, #44]
 483:Drivers/BSP/STM32F769I-Discovery/stm32f769i_discovery_qspi.c ****   s_command.DdrMode           = QSPI_DDR_MODE_DISABLE;
 2236              		.loc 1 483 3 is_stmt 1 view .LVU836
 483:Drivers/BSP/STM32F769I-Discovery/stm32f769i_discovery_qspi.c ****   s_command.DdrMode           = QSPI_DDR_MODE_DISABLE;
 2237              		.loc 1 483 31 is_stmt 0 view .LVU837
 2238 0024 0A22     		movs	r2, #10
 2239 0026 0792     		str	r2, [sp, #28]
 484:Drivers/BSP/STM32F769I-Discovery/stm32f769i_discovery_qspi.c ****   s_command.DdrHoldHalfCycle  = QSPI_DDR_HHC_ANALOG_DELAY;
 2240              		.loc 1 484 3 is_stmt 1 view .LVU838
 484:Drivers/BSP/STM32F769I-Discovery/stm32f769i_discovery_qspi.c ****   s_command.DdrHoldHalfCycle  = QSPI_DDR_HHC_ANALOG_DELAY;
 2241              		.loc 1 484 31 is_stmt 0 view .LVU839
 2242 0028 0D93     		str	r3, [sp, #52]
 485:Drivers/BSP/STM32F769I-Discovery/stm32f769i_discovery_qspi.c ****   s_command.SIOOMode          = QSPI_SIOO_INST_EVERY_CMD;
 2243              		.loc 1 485 3 is_stmt 1 view .LVU840
 485:Drivers/BSP/STM32F769I-Discovery/stm32f769i_discovery_qspi.c ****   s_command.SIOOMode          = QSPI_SIOO_INST_EVERY_CMD;
 2244              		.loc 1 485 31 is_stmt 0 view .LVU841
 2245 002a 0E93     		str	r3, [sp, #56]
 486:Drivers/BSP/STM32F769I-Discovery/stm32f769i_discovery_qspi.c ****   
 2246              		.loc 1 486 3 is_stmt 1 view .LVU842
 486:Drivers/BSP/STM32F769I-Discovery/stm32f769i_discovery_qspi.c ****   
 2247              		.loc 1 486 31 is_stmt 0 view .LVU843
 2248 002c 0F93     		str	r3, [sp, #60]
 489:Drivers/BSP/STM32F769I-Discovery/stm32f769i_discovery_qspi.c ****   s_mem_mapped_cfg.TimeOutPeriod     = 0;
 2249              		.loc 1 489 3 is_stmt 1 view .LVU844
 489:Drivers/BSP/STM32F769I-Discovery/stm32f769i_discovery_qspi.c ****   s_mem_mapped_cfg.TimeOutPeriod     = 0;
 2250              		.loc 1 489 38 is_stmt 0 view .LVU845
 2251 002e 0193     		str	r3, [sp, #4]
 490:Drivers/BSP/STM32F769I-Discovery/stm32f769i_discovery_qspi.c ****   
 2252              		.loc 1 490 3 is_stmt 1 view .LVU846
 490:Drivers/BSP/STM32F769I-Discovery/stm32f769i_discovery_qspi.c ****   
 2253              		.loc 1 490 38 is_stmt 0 view .LVU847
 2254 0030 0093     		str	r3, [sp]
 492:Drivers/BSP/STM32F769I-Discovery/stm32f769i_discovery_qspi.c ****   {
 2255              		.loc 1 492 3 is_stmt 1 view .LVU848
 492:Drivers/BSP/STM32F769I-Discovery/stm32f769i_discovery_qspi.c ****   {
 2256              		.loc 1 492 7 is_stmt 0 view .LVU849
ARM GAS  /var/folders/n6/c271nzx11xl4r4_m7sqjlt0m0000gn/T//cc22wCrs.s 			page 91


 2257 0032 6A46     		mov	r2, sp
 2258 0034 02A9     		add	r1, sp, #8
 2259 0036 0448     		ldr	r0, .L148
 2260 0038 FFF7FEFF 		bl	HAL_QSPI_MemoryMapped
 2261              	.LVL123:
 492:Drivers/BSP/STM32F769I-Discovery/stm32f769i_discovery_qspi.c ****   {
 2262              		.loc 1 492 6 discriminator 1 view .LVU850
 2263 003c 10B9     		cbnz	r0, .L147
 2264              	.L144:
 498:Drivers/BSP/STM32F769I-Discovery/stm32f769i_discovery_qspi.c **** 
 2265              		.loc 1 498 1 view .LVU851
 2266 003e 11B0     		add	sp, sp, #68
 2267              		.cfi_remember_state
 2268              		.cfi_def_cfa_offset 4
 2269              		@ sp needed
 2270 0040 5DF804FB 		ldr	pc, [sp], #4
 2271              	.L147:
 2272              		.cfi_restore_state
 494:Drivers/BSP/STM32F769I-Discovery/stm32f769i_discovery_qspi.c ****   }
 2273              		.loc 1 494 12 view .LVU852
 2274 0044 0120     		movs	r0, #1
 2275 0046 FAE7     		b	.L144
 2276              	.L149:
 2277              		.align	2
 2278              	.L148:
 2279 0048 00000000 		.word	QSPIHandle
 2280              		.cfi_endproc
 2281              	.LFE149:
 2283              		.section	.text.BSP_QSPI_MspInit,"ax",%progbits
 2284              		.align	1
 2285              		.weak	BSP_QSPI_MspInit
 2286              		.syntax unified
 2287              		.thumb
 2288              		.thumb_func
 2290              	BSP_QSPI_MspInit:
 2291              	.LVL124:
 2292              	.LFB150:
 517:Drivers/BSP/STM32F769I-Discovery/stm32f769i_discovery_qspi.c ****   GPIO_InitTypeDef gpio_init_structure;
 2293              		.loc 1 517 1 is_stmt 1 view -0
 2294              		.cfi_startproc
 2295              		@ args = 0, pretend = 0, frame = 48
 2296              		@ frame_needed = 0, uses_anonymous_args = 0
 517:Drivers/BSP/STM32F769I-Discovery/stm32f769i_discovery_qspi.c ****   GPIO_InitTypeDef gpio_init_structure;
 2297              		.loc 1 517 1 is_stmt 0 view .LVU854
 2298 0000 F0B5     		push	{r4, r5, r6, r7, lr}
 2299              		.cfi_def_cfa_offset 20
 2300              		.cfi_offset 4, -20
 2301              		.cfi_offset 5, -16
 2302              		.cfi_offset 6, -12
 2303              		.cfi_offset 7, -8
 2304              		.cfi_offset 14, -4
 2305 0002 8DB0     		sub	sp, sp, #52
 2306              		.cfi_def_cfa_offset 72
 518:Drivers/BSP/STM32F769I-Discovery/stm32f769i_discovery_qspi.c **** 
 2307              		.loc 1 518 3 is_stmt 1 view .LVU855
 522:Drivers/BSP/STM32F769I-Discovery/stm32f769i_discovery_qspi.c ****   /* Reset the QuadSPI memory interface */
 2308              		.loc 1 522 3 view .LVU856
ARM GAS  /var/folders/n6/c271nzx11xl4r4_m7sqjlt0m0000gn/T//cc22wCrs.s 			page 92


 2309              	.LBB12:
 522:Drivers/BSP/STM32F769I-Discovery/stm32f769i_discovery_qspi.c ****   /* Reset the QuadSPI memory interface */
 2310              		.loc 1 522 3 view .LVU857
 522:Drivers/BSP/STM32F769I-Discovery/stm32f769i_discovery_qspi.c ****   /* Reset the QuadSPI memory interface */
 2311              		.loc 1 522 3 view .LVU858
 2312 0004 444B     		ldr	r3, .L152
 2313 0006 9A6B     		ldr	r2, [r3, #56]
 2314 0008 42F00202 		orr	r2, r2, #2
 2315 000c 9A63     		str	r2, [r3, #56]
 522:Drivers/BSP/STM32F769I-Discovery/stm32f769i_discovery_qspi.c ****   /* Reset the QuadSPI memory interface */
 2316              		.loc 1 522 3 view .LVU859
 2317 000e 9A6B     		ldr	r2, [r3, #56]
 2318 0010 02F00202 		and	r2, r2, #2
 2319 0014 0092     		str	r2, [sp]
 522:Drivers/BSP/STM32F769I-Discovery/stm32f769i_discovery_qspi.c ****   /* Reset the QuadSPI memory interface */
 2320              		.loc 1 522 3 view .LVU860
 2321 0016 009A     		ldr	r2, [sp]
 2322              	.LBE12:
 522:Drivers/BSP/STM32F769I-Discovery/stm32f769i_discovery_qspi.c ****   /* Reset the QuadSPI memory interface */
 2323              		.loc 1 522 3 view .LVU861
 524:Drivers/BSP/STM32F769I-Discovery/stm32f769i_discovery_qspi.c ****   QSPI_RELEASE_RESET();
 2324              		.loc 1 524 3 view .LVU862
 2325 0018 9A69     		ldr	r2, [r3, #24]
 2326 001a 42F00202 		orr	r2, r2, #2
 2327 001e 9A61     		str	r2, [r3, #24]
 525:Drivers/BSP/STM32F769I-Discovery/stm32f769i_discovery_qspi.c ****   /* Enable GPIO clocks */
 2328              		.loc 1 525 3 view .LVU863
 2329 0020 9A69     		ldr	r2, [r3, #24]
 2330 0022 22F00202 		bic	r2, r2, #2
 2331 0026 9A61     		str	r2, [r3, #24]
 527:Drivers/BSP/STM32F769I-Discovery/stm32f769i_discovery_qspi.c ****   QSPI_CLK_GPIO_CLK_ENABLE();
 2332              		.loc 1 527 3 view .LVU864
 2333              	.LBB13:
 527:Drivers/BSP/STM32F769I-Discovery/stm32f769i_discovery_qspi.c ****   QSPI_CLK_GPIO_CLK_ENABLE();
 2334              		.loc 1 527 3 view .LVU865
 527:Drivers/BSP/STM32F769I-Discovery/stm32f769i_discovery_qspi.c ****   QSPI_CLK_GPIO_CLK_ENABLE();
 2335              		.loc 1 527 3 view .LVU866
 2336 0028 1A6B     		ldr	r2, [r3, #48]
 2337 002a 42F00202 		orr	r2, r2, #2
 2338 002e 1A63     		str	r2, [r3, #48]
 527:Drivers/BSP/STM32F769I-Discovery/stm32f769i_discovery_qspi.c ****   QSPI_CLK_GPIO_CLK_ENABLE();
 2339              		.loc 1 527 3 view .LVU867
 2340 0030 1A6B     		ldr	r2, [r3, #48]
 2341 0032 02F00202 		and	r2, r2, #2
 2342 0036 0192     		str	r2, [sp, #4]
 527:Drivers/BSP/STM32F769I-Discovery/stm32f769i_discovery_qspi.c ****   QSPI_CLK_GPIO_CLK_ENABLE();
 2343              		.loc 1 527 3 view .LVU868
 2344 0038 019A     		ldr	r2, [sp, #4]
 2345              	.LBE13:
 527:Drivers/BSP/STM32F769I-Discovery/stm32f769i_discovery_qspi.c ****   QSPI_CLK_GPIO_CLK_ENABLE();
 2346              		.loc 1 527 3 view .LVU869
 528:Drivers/BSP/STM32F769I-Discovery/stm32f769i_discovery_qspi.c ****   QSPI_D0_GPIO_CLK_ENABLE();
 2347              		.loc 1 528 3 view .LVU870
 2348              	.LBB14:
 528:Drivers/BSP/STM32F769I-Discovery/stm32f769i_discovery_qspi.c ****   QSPI_D0_GPIO_CLK_ENABLE();
 2349              		.loc 1 528 3 view .LVU871
 528:Drivers/BSP/STM32F769I-Discovery/stm32f769i_discovery_qspi.c ****   QSPI_D0_GPIO_CLK_ENABLE();
ARM GAS  /var/folders/n6/c271nzx11xl4r4_m7sqjlt0m0000gn/T//cc22wCrs.s 			page 93


 2350              		.loc 1 528 3 view .LVU872
 2351 003a 1A6B     		ldr	r2, [r3, #48]
 2352 003c 42F00202 		orr	r2, r2, #2
 2353 0040 1A63     		str	r2, [r3, #48]
 528:Drivers/BSP/STM32F769I-Discovery/stm32f769i_discovery_qspi.c ****   QSPI_D0_GPIO_CLK_ENABLE();
 2354              		.loc 1 528 3 view .LVU873
 2355 0042 1A6B     		ldr	r2, [r3, #48]
 2356 0044 02F00202 		and	r2, r2, #2
 2357 0048 0292     		str	r2, [sp, #8]
 528:Drivers/BSP/STM32F769I-Discovery/stm32f769i_discovery_qspi.c ****   QSPI_D0_GPIO_CLK_ENABLE();
 2358              		.loc 1 528 3 view .LVU874
 2359 004a 029A     		ldr	r2, [sp, #8]
 2360              	.LBE14:
 528:Drivers/BSP/STM32F769I-Discovery/stm32f769i_discovery_qspi.c ****   QSPI_D0_GPIO_CLK_ENABLE();
 2361              		.loc 1 528 3 view .LVU875
 529:Drivers/BSP/STM32F769I-Discovery/stm32f769i_discovery_qspi.c ****   QSPI_D1_GPIO_CLK_ENABLE();
 2362              		.loc 1 529 3 view .LVU876
 2363              	.LBB15:
 529:Drivers/BSP/STM32F769I-Discovery/stm32f769i_discovery_qspi.c ****   QSPI_D1_GPIO_CLK_ENABLE();
 2364              		.loc 1 529 3 view .LVU877
 529:Drivers/BSP/STM32F769I-Discovery/stm32f769i_discovery_qspi.c ****   QSPI_D1_GPIO_CLK_ENABLE();
 2365              		.loc 1 529 3 view .LVU878
 2366 004c 1A6B     		ldr	r2, [r3, #48]
 2367 004e 42F00402 		orr	r2, r2, #4
 2368 0052 1A63     		str	r2, [r3, #48]
 529:Drivers/BSP/STM32F769I-Discovery/stm32f769i_discovery_qspi.c ****   QSPI_D1_GPIO_CLK_ENABLE();
 2369              		.loc 1 529 3 view .LVU879
 2370 0054 1A6B     		ldr	r2, [r3, #48]
 2371 0056 02F00402 		and	r2, r2, #4
 2372 005a 0392     		str	r2, [sp, #12]
 529:Drivers/BSP/STM32F769I-Discovery/stm32f769i_discovery_qspi.c ****   QSPI_D1_GPIO_CLK_ENABLE();
 2373              		.loc 1 529 3 view .LVU880
 2374 005c 039A     		ldr	r2, [sp, #12]
 2375              	.LBE15:
 529:Drivers/BSP/STM32F769I-Discovery/stm32f769i_discovery_qspi.c ****   QSPI_D1_GPIO_CLK_ENABLE();
 2376              		.loc 1 529 3 view .LVU881
 530:Drivers/BSP/STM32F769I-Discovery/stm32f769i_discovery_qspi.c ****   QSPI_D2_GPIO_CLK_ENABLE();
 2377              		.loc 1 530 3 view .LVU882
 2378              	.LBB16:
 530:Drivers/BSP/STM32F769I-Discovery/stm32f769i_discovery_qspi.c ****   QSPI_D2_GPIO_CLK_ENABLE();
 2379              		.loc 1 530 3 view .LVU883
 530:Drivers/BSP/STM32F769I-Discovery/stm32f769i_discovery_qspi.c ****   QSPI_D2_GPIO_CLK_ENABLE();
 2380              		.loc 1 530 3 view .LVU884
 2381 005e 1A6B     		ldr	r2, [r3, #48]
 2382 0060 42F00402 		orr	r2, r2, #4
 2383 0064 1A63     		str	r2, [r3, #48]
 530:Drivers/BSP/STM32F769I-Discovery/stm32f769i_discovery_qspi.c ****   QSPI_D2_GPIO_CLK_ENABLE();
 2384              		.loc 1 530 3 view .LVU885
 2385 0066 1A6B     		ldr	r2, [r3, #48]
 2386 0068 02F00402 		and	r2, r2, #4
 2387 006c 0492     		str	r2, [sp, #16]
 530:Drivers/BSP/STM32F769I-Discovery/stm32f769i_discovery_qspi.c ****   QSPI_D2_GPIO_CLK_ENABLE();
 2388              		.loc 1 530 3 view .LVU886
 2389 006e 049A     		ldr	r2, [sp, #16]
 2390              	.LBE16:
 530:Drivers/BSP/STM32F769I-Discovery/stm32f769i_discovery_qspi.c ****   QSPI_D2_GPIO_CLK_ENABLE();
 2391              		.loc 1 530 3 view .LVU887
ARM GAS  /var/folders/n6/c271nzx11xl4r4_m7sqjlt0m0000gn/T//cc22wCrs.s 			page 94


 531:Drivers/BSP/STM32F769I-Discovery/stm32f769i_discovery_qspi.c ****   QSPI_D3_GPIO_CLK_ENABLE();
 2392              		.loc 1 531 3 view .LVU888
 2393              	.LBB17:
 531:Drivers/BSP/STM32F769I-Discovery/stm32f769i_discovery_qspi.c ****   QSPI_D3_GPIO_CLK_ENABLE();
 2394              		.loc 1 531 3 view .LVU889
 531:Drivers/BSP/STM32F769I-Discovery/stm32f769i_discovery_qspi.c ****   QSPI_D3_GPIO_CLK_ENABLE();
 2395              		.loc 1 531 3 view .LVU890
 2396 0070 1A6B     		ldr	r2, [r3, #48]
 2397 0072 42F01002 		orr	r2, r2, #16
 2398 0076 1A63     		str	r2, [r3, #48]
 531:Drivers/BSP/STM32F769I-Discovery/stm32f769i_discovery_qspi.c ****   QSPI_D3_GPIO_CLK_ENABLE();
 2399              		.loc 1 531 3 view .LVU891
 2400 0078 1A6B     		ldr	r2, [r3, #48]
 2401 007a 02F01002 		and	r2, r2, #16
 2402 007e 0592     		str	r2, [sp, #20]
 531:Drivers/BSP/STM32F769I-Discovery/stm32f769i_discovery_qspi.c ****   QSPI_D3_GPIO_CLK_ENABLE();
 2403              		.loc 1 531 3 view .LVU892
 2404 0080 059A     		ldr	r2, [sp, #20]
 2405              	.LBE17:
 531:Drivers/BSP/STM32F769I-Discovery/stm32f769i_discovery_qspi.c ****   QSPI_D3_GPIO_CLK_ENABLE();
 2406              		.loc 1 531 3 view .LVU893
 532:Drivers/BSP/STM32F769I-Discovery/stm32f769i_discovery_qspi.c **** 
 2407              		.loc 1 532 3 view .LVU894
 2408              	.LBB18:
 532:Drivers/BSP/STM32F769I-Discovery/stm32f769i_discovery_qspi.c **** 
 2409              		.loc 1 532 3 view .LVU895
 532:Drivers/BSP/STM32F769I-Discovery/stm32f769i_discovery_qspi.c **** 
 2410              		.loc 1 532 3 view .LVU896
 2411 0082 1A6B     		ldr	r2, [r3, #48]
 2412 0084 42F00802 		orr	r2, r2, #8
 2413 0088 1A63     		str	r2, [r3, #48]
 532:Drivers/BSP/STM32F769I-Discovery/stm32f769i_discovery_qspi.c **** 
 2414              		.loc 1 532 3 view .LVU897
 2415 008a 1B6B     		ldr	r3, [r3, #48]
 2416 008c 03F00803 		and	r3, r3, #8
 2417 0090 0693     		str	r3, [sp, #24]
 532:Drivers/BSP/STM32F769I-Discovery/stm32f769i_discovery_qspi.c **** 
 2418              		.loc 1 532 3 view .LVU898
 2419 0092 069B     		ldr	r3, [sp, #24]
 2420              	.LBE18:
 532:Drivers/BSP/STM32F769I-Discovery/stm32f769i_discovery_qspi.c **** 
 2421              		.loc 1 532 3 view .LVU899
 536:Drivers/BSP/STM32F769I-Discovery/stm32f769i_discovery_qspi.c ****   gpio_init_structure.Alternate = QSPI_CS_PIN_AF;
 2422              		.loc 1 536 3 view .LVU900
 536:Drivers/BSP/STM32F769I-Discovery/stm32f769i_discovery_qspi.c ****   gpio_init_structure.Alternate = QSPI_CS_PIN_AF;
 2423              		.loc 1 536 33 is_stmt 0 view .LVU901
 2424 0094 4023     		movs	r3, #64
 2425 0096 0793     		str	r3, [sp, #28]
 537:Drivers/BSP/STM32F769I-Discovery/stm32f769i_discovery_qspi.c ****   gpio_init_structure.Mode      = GPIO_MODE_AF_PP;
 2426              		.loc 1 537 3 is_stmt 1 view .LVU902
 537:Drivers/BSP/STM32F769I-Discovery/stm32f769i_discovery_qspi.c ****   gpio_init_structure.Mode      = GPIO_MODE_AF_PP;
 2427              		.loc 1 537 33 is_stmt 0 view .LVU903
 2428 0098 0A23     		movs	r3, #10
 2429 009a 0B93     		str	r3, [sp, #44]
 538:Drivers/BSP/STM32F769I-Discovery/stm32f769i_discovery_qspi.c ****   gpio_init_structure.Pull      = GPIO_PULLUP;
 2430              		.loc 1 538 3 is_stmt 1 view .LVU904
 538:Drivers/BSP/STM32F769I-Discovery/stm32f769i_discovery_qspi.c ****   gpio_init_structure.Pull      = GPIO_PULLUP;
ARM GAS  /var/folders/n6/c271nzx11xl4r4_m7sqjlt0m0000gn/T//cc22wCrs.s 			page 95


 2431              		.loc 1 538 33 is_stmt 0 view .LVU905
 2432 009c 0223     		movs	r3, #2
 2433 009e 0893     		str	r3, [sp, #32]
 539:Drivers/BSP/STM32F769I-Discovery/stm32f769i_discovery_qspi.c ****   gpio_init_structure.Speed     = GPIO_SPEED_FREQ_HIGH;
 2434              		.loc 1 539 3 is_stmt 1 view .LVU906
 539:Drivers/BSP/STM32F769I-Discovery/stm32f769i_discovery_qspi.c ****   gpio_init_structure.Speed     = GPIO_SPEED_FREQ_HIGH;
 2435              		.loc 1 539 33 is_stmt 0 view .LVU907
 2436 00a0 0122     		movs	r2, #1
 2437 00a2 0992     		str	r2, [sp, #36]
 540:Drivers/BSP/STM32F769I-Discovery/stm32f769i_discovery_qspi.c ****   HAL_GPIO_Init(QSPI_CS_GPIO_PORT, &gpio_init_structure);
 2438              		.loc 1 540 3 is_stmt 1 view .LVU908
 540:Drivers/BSP/STM32F769I-Discovery/stm32f769i_discovery_qspi.c ****   HAL_GPIO_Init(QSPI_CS_GPIO_PORT, &gpio_init_structure);
 2439              		.loc 1 540 33 is_stmt 0 view .LVU909
 2440 00a4 0A93     		str	r3, [sp, #40]
 541:Drivers/BSP/STM32F769I-Discovery/stm32f769i_discovery_qspi.c ****   /* QSPI CLK GPIO pin configuration  */
 2441              		.loc 1 541 3 is_stmt 1 view .LVU910
 2442 00a6 1D4F     		ldr	r7, .L152+4
 2443 00a8 07A9     		add	r1, sp, #28
 2444              	.LVL125:
 541:Drivers/BSP/STM32F769I-Discovery/stm32f769i_discovery_qspi.c ****   /* QSPI CLK GPIO pin configuration  */
 2445              		.loc 1 541 3 is_stmt 0 view .LVU911
 2446 00aa 3846     		mov	r0, r7
 2447              	.LVL126:
 541:Drivers/BSP/STM32F769I-Discovery/stm32f769i_discovery_qspi.c ****   /* QSPI CLK GPIO pin configuration  */
 2448              		.loc 1 541 3 view .LVU912
 2449 00ac FFF7FEFF 		bl	HAL_GPIO_Init
 2450              	.LVL127:
 543:Drivers/BSP/STM32F769I-Discovery/stm32f769i_discovery_qspi.c ****   gpio_init_structure.Alternate = QSPI_CLK_PIN_AF;
 2451              		.loc 1 543 3 is_stmt 1 view .LVU913
 543:Drivers/BSP/STM32F769I-Discovery/stm32f769i_discovery_qspi.c ****   gpio_init_structure.Alternate = QSPI_CLK_PIN_AF;
 2452              		.loc 1 543 33 is_stmt 0 view .LVU914
 2453 00b0 0426     		movs	r6, #4
 2454 00b2 0796     		str	r6, [sp, #28]
 544:Drivers/BSP/STM32F769I-Discovery/stm32f769i_discovery_qspi.c ****   gpio_init_structure.Pull      = GPIO_NOPULL;
 2455              		.loc 1 544 3 is_stmt 1 view .LVU915
 544:Drivers/BSP/STM32F769I-Discovery/stm32f769i_discovery_qspi.c ****   gpio_init_structure.Pull      = GPIO_NOPULL;
 2456              		.loc 1 544 33 is_stmt 0 view .LVU916
 2457 00b4 0924     		movs	r4, #9
 2458 00b6 0B94     		str	r4, [sp, #44]
 545:Drivers/BSP/STM32F769I-Discovery/stm32f769i_discovery_qspi.c ****   HAL_GPIO_Init(QSPI_CLK_GPIO_PORT, &gpio_init_structure);
 2459              		.loc 1 545 3 is_stmt 1 view .LVU917
 545:Drivers/BSP/STM32F769I-Discovery/stm32f769i_discovery_qspi.c ****   HAL_GPIO_Init(QSPI_CLK_GPIO_PORT, &gpio_init_structure);
 2460              		.loc 1 545 33 is_stmt 0 view .LVU918
 2461 00b8 0025     		movs	r5, #0
 2462 00ba 0995     		str	r5, [sp, #36]
 546:Drivers/BSP/STM32F769I-Discovery/stm32f769i_discovery_qspi.c ****   /* QSPI D0 GPIO pin configuration  */
 2463              		.loc 1 546 3 is_stmt 1 view .LVU919
 2464 00bc 07A9     		add	r1, sp, #28
 2465 00be 3846     		mov	r0, r7
 2466 00c0 FFF7FEFF 		bl	HAL_GPIO_Init
 2467              	.LVL128:
 548:Drivers/BSP/STM32F769I-Discovery/stm32f769i_discovery_qspi.c ****   gpio_init_structure.Alternate = QSPI_D0_PIN_AF;
 2468              		.loc 1 548 3 view .LVU920
 548:Drivers/BSP/STM32F769I-Discovery/stm32f769i_discovery_qspi.c ****   gpio_init_structure.Alternate = QSPI_D0_PIN_AF;
 2469              		.loc 1 548 33 is_stmt 0 view .LVU921
 2470 00c4 4FF40073 		mov	r3, #512
 2471 00c8 0793     		str	r3, [sp, #28]
ARM GAS  /var/folders/n6/c271nzx11xl4r4_m7sqjlt0m0000gn/T//cc22wCrs.s 			page 96


 549:Drivers/BSP/STM32F769I-Discovery/stm32f769i_discovery_qspi.c ****   HAL_GPIO_Init(QSPI_D0_GPIO_PORT, &gpio_init_structure);
 2472              		.loc 1 549 3 is_stmt 1 view .LVU922
 549:Drivers/BSP/STM32F769I-Discovery/stm32f769i_discovery_qspi.c ****   HAL_GPIO_Init(QSPI_D0_GPIO_PORT, &gpio_init_structure);
 2473              		.loc 1 549 33 is_stmt 0 view .LVU923
 2474 00ca 0B94     		str	r4, [sp, #44]
 550:Drivers/BSP/STM32F769I-Discovery/stm32f769i_discovery_qspi.c ****   /* QSPI D1 GPIO pin configuration  */
 2475              		.loc 1 550 3 is_stmt 1 view .LVU924
 2476 00cc 07F58067 		add	r7, r7, #1024
 2477 00d0 07A9     		add	r1, sp, #28
 2478 00d2 3846     		mov	r0, r7
 2479 00d4 FFF7FEFF 		bl	HAL_GPIO_Init
 2480              	.LVL129:
 552:Drivers/BSP/STM32F769I-Discovery/stm32f769i_discovery_qspi.c ****   gpio_init_structure.Alternate = QSPI_D1_PIN_AF;
 2481              		.loc 1 552 3 view .LVU925
 552:Drivers/BSP/STM32F769I-Discovery/stm32f769i_discovery_qspi.c ****   gpio_init_structure.Alternate = QSPI_D1_PIN_AF;
 2482              		.loc 1 552 33 is_stmt 0 view .LVU926
 2483 00d8 4FF48063 		mov	r3, #1024
 2484 00dc 0793     		str	r3, [sp, #28]
 553:Drivers/BSP/STM32F769I-Discovery/stm32f769i_discovery_qspi.c ****   HAL_GPIO_Init(QSPI_D1_GPIO_PORT, &gpio_init_structure);
 2485              		.loc 1 553 3 is_stmt 1 view .LVU927
 553:Drivers/BSP/STM32F769I-Discovery/stm32f769i_discovery_qspi.c ****   HAL_GPIO_Init(QSPI_D1_GPIO_PORT, &gpio_init_structure);
 2486              		.loc 1 553 33 is_stmt 0 view .LVU928
 2487 00de 0B94     		str	r4, [sp, #44]
 554:Drivers/BSP/STM32F769I-Discovery/stm32f769i_discovery_qspi.c ****   /* QSPI D2 GPIO pin configuration  */
 2488              		.loc 1 554 3 is_stmt 1 view .LVU929
 2489 00e0 07A9     		add	r1, sp, #28
 2490 00e2 3846     		mov	r0, r7
 2491 00e4 FFF7FEFF 		bl	HAL_GPIO_Init
 2492              	.LVL130:
 556:Drivers/BSP/STM32F769I-Discovery/stm32f769i_discovery_qspi.c ****   gpio_init_structure.Alternate = QSPI_D2_PIN_AF;
 2493              		.loc 1 556 3 view .LVU930
 556:Drivers/BSP/STM32F769I-Discovery/stm32f769i_discovery_qspi.c ****   gpio_init_structure.Alternate = QSPI_D2_PIN_AF;
 2494              		.loc 1 556 33 is_stmt 0 view .LVU931
 2495 00e8 0796     		str	r6, [sp, #28]
 557:Drivers/BSP/STM32F769I-Discovery/stm32f769i_discovery_qspi.c ****   HAL_GPIO_Init(QSPI_D2_GPIO_PORT, &gpio_init_structure);
 2496              		.loc 1 557 3 is_stmt 1 view .LVU932
 557:Drivers/BSP/STM32F769I-Discovery/stm32f769i_discovery_qspi.c ****   HAL_GPIO_Init(QSPI_D2_GPIO_PORT, &gpio_init_structure);
 2497              		.loc 1 557 33 is_stmt 0 view .LVU933
 2498 00ea 0B94     		str	r4, [sp, #44]
 558:Drivers/BSP/STM32F769I-Discovery/stm32f769i_discovery_qspi.c ****   /* QSPI D3 GPIO pin configuration  */
 2499              		.loc 1 558 3 is_stmt 1 view .LVU934
 2500 00ec 07A9     		add	r1, sp, #28
 2501 00ee 0C48     		ldr	r0, .L152+8
 2502 00f0 FFF7FEFF 		bl	HAL_GPIO_Init
 2503              	.LVL131:
 560:Drivers/BSP/STM32F769I-Discovery/stm32f769i_discovery_qspi.c ****   gpio_init_structure.Alternate = QSPI_D3_PIN_AF;
 2504              		.loc 1 560 3 view .LVU935
 560:Drivers/BSP/STM32F769I-Discovery/stm32f769i_discovery_qspi.c ****   gpio_init_structure.Alternate = QSPI_D3_PIN_AF;
 2505              		.loc 1 560 33 is_stmt 0 view .LVU936
 2506 00f4 4FF40053 		mov	r3, #8192
 2507 00f8 0793     		str	r3, [sp, #28]
 561:Drivers/BSP/STM32F769I-Discovery/stm32f769i_discovery_qspi.c ****   HAL_GPIO_Init(QSPI_D3_GPIO_PORT, &gpio_init_structure);
 2508              		.loc 1 561 3 is_stmt 1 view .LVU937
 561:Drivers/BSP/STM32F769I-Discovery/stm32f769i_discovery_qspi.c ****   HAL_GPIO_Init(QSPI_D3_GPIO_PORT, &gpio_init_structure);
 2509              		.loc 1 561 33 is_stmt 0 view .LVU938
 2510 00fa 0B94     		str	r4, [sp, #44]
 562:Drivers/BSP/STM32F769I-Discovery/stm32f769i_discovery_qspi.c **** 
ARM GAS  /var/folders/n6/c271nzx11xl4r4_m7sqjlt0m0000gn/T//cc22wCrs.s 			page 97


 2511              		.loc 1 562 3 is_stmt 1 view .LVU939
 2512 00fc 07A9     		add	r1, sp, #28
 2513 00fe 0948     		ldr	r0, .L152+12
 2514 0100 FFF7FEFF 		bl	HAL_GPIO_Init
 2515              	.LVL132:
 566:Drivers/BSP/STM32F769I-Discovery/stm32f769i_discovery_qspi.c ****   HAL_NVIC_EnableIRQ(QUADSPI_IRQn);
 2516              		.loc 1 566 3 view .LVU940
 2517 0104 2A46     		mov	r2, r5
 2518 0106 0F21     		movs	r1, #15
 2519 0108 5C20     		movs	r0, #92
 2520 010a FFF7FEFF 		bl	HAL_NVIC_SetPriority
 2521              	.LVL133:
 567:Drivers/BSP/STM32F769I-Discovery/stm32f769i_discovery_qspi.c **** }
 2522              		.loc 1 567 3 view .LVU941
 2523 010e 5C20     		movs	r0, #92
 2524 0110 FFF7FEFF 		bl	HAL_NVIC_EnableIRQ
 2525              	.LVL134:
 568:Drivers/BSP/STM32F769I-Discovery/stm32f769i_discovery_qspi.c **** 
 2526              		.loc 1 568 1 is_stmt 0 view .LVU942
 2527 0114 0DB0     		add	sp, sp, #52
 2528              		.cfi_def_cfa_offset 20
 2529              		@ sp needed
 2530 0116 F0BD     		pop	{r4, r5, r6, r7, pc}
 2531              	.L153:
 2532              		.align	2
 2533              	.L152:
 2534 0118 00380240 		.word	1073887232
 2535 011c 00040240 		.word	1073873920
 2536 0120 00100240 		.word	1073876992
 2537 0124 000C0240 		.word	1073875968
 2538              		.cfi_endproc
 2539              	.LFE150:
 2541              		.section	.text.BSP_QSPI_Init,"ax",%progbits
 2542              		.align	1
 2543              		.global	BSP_QSPI_Init
 2544              		.syntax unified
 2545              		.thumb
 2546              		.thumb_func
 2548              	BSP_QSPI_Init:
 2549              	.LFB141:
 114:Drivers/BSP/STM32F769I-Discovery/stm32f769i_discovery_qspi.c ****   QSPIHandle.Instance = QUADSPI;
 2550              		.loc 1 114 1 is_stmt 1 view -0
 2551              		.cfi_startproc
 2552              		@ args = 0, pretend = 0, frame = 0
 2553              		@ frame_needed = 0, uses_anonymous_args = 0
 2554 0000 10B5     		push	{r4, lr}
 2555              		.cfi_def_cfa_offset 8
 2556              		.cfi_offset 4, -8
 2557              		.cfi_offset 14, -4
 115:Drivers/BSP/STM32F769I-Discovery/stm32f769i_discovery_qspi.c ****   
 2558              		.loc 1 115 3 view .LVU944
 115:Drivers/BSP/STM32F769I-Discovery/stm32f769i_discovery_qspi.c ****   
 2559              		.loc 1 115 23 is_stmt 0 view .LVU945
 2560 0002 2348     		ldr	r0, .L166
 2561 0004 234B     		ldr	r3, .L166+4
 2562 0006 0360     		str	r3, [r0]
 118:Drivers/BSP/STM32F769I-Discovery/stm32f769i_discovery_qspi.c ****   {
ARM GAS  /var/folders/n6/c271nzx11xl4r4_m7sqjlt0m0000gn/T//cc22wCrs.s 			page 98


 2563              		.loc 1 118 3 is_stmt 1 view .LVU946
 118:Drivers/BSP/STM32F769I-Discovery/stm32f769i_discovery_qspi.c ****   {
 2564              		.loc 1 118 7 is_stmt 0 view .LVU947
 2565 0008 FFF7FEFF 		bl	HAL_QSPI_DeInit
 2566              	.LVL135:
 118:Drivers/BSP/STM32F769I-Discovery/stm32f769i_discovery_qspi.c ****   {
 2567              		.loc 1 118 6 discriminator 1 view .LVU948
 2568 000c 08B1     		cbz	r0, .L164
 120:Drivers/BSP/STM32F769I-Discovery/stm32f769i_discovery_qspi.c ****   }
 2569              		.loc 1 120 12 view .LVU949
 2570 000e 0120     		movs	r0, #1
 2571              	.L155:
 173:Drivers/BSP/STM32F769I-Discovery/stm32f769i_discovery_qspi.c **** 
 2572              		.loc 1 173 1 view .LVU950
 2573 0010 10BD     		pop	{r4, pc}
 2574              	.L164:
 124:Drivers/BSP/STM32F769I-Discovery/stm32f769i_discovery_qspi.c ****   
 2575              		.loc 1 124 3 is_stmt 1 view .LVU951
 2576 0012 1F4C     		ldr	r4, .L166
 2577 0014 0021     		movs	r1, #0
 2578 0016 2046     		mov	r0, r4
 2579 0018 FFF7FEFF 		bl	BSP_QSPI_MspInit
 2580              	.LVL136:
 128:Drivers/BSP/STM32F769I-Discovery/stm32f769i_discovery_qspi.c ****   QSPIHandle.Init.FifoThreshold      = 16;
 2581              		.loc 1 128 3 view .LVU952
 128:Drivers/BSP/STM32F769I-Discovery/stm32f769i_discovery_qspi.c ****   QSPIHandle.Init.FifoThreshold      = 16;
 2582              		.loc 1 128 38 is_stmt 0 view .LVU953
 2583 001c 0123     		movs	r3, #1
 2584 001e 6360     		str	r3, [r4, #4]
 129:Drivers/BSP/STM32F769I-Discovery/stm32f769i_discovery_qspi.c ****   QSPIHandle.Init.SampleShifting     = QSPI_SAMPLE_SHIFTING_HALFCYCLE; 
 2585              		.loc 1 129 3 is_stmt 1 view .LVU954
 129:Drivers/BSP/STM32F769I-Discovery/stm32f769i_discovery_qspi.c ****   QSPIHandle.Init.SampleShifting     = QSPI_SAMPLE_SHIFTING_HALFCYCLE; 
 2586              		.loc 1 129 38 is_stmt 0 view .LVU955
 2587 0020 1023     		movs	r3, #16
 2588 0022 A360     		str	r3, [r4, #8]
 130:Drivers/BSP/STM32F769I-Discovery/stm32f769i_discovery_qspi.c ****   QSPIHandle.Init.FlashSize          = POSITION_VAL(MX25L512_FLASH_SIZE) - 1;
 2589              		.loc 1 130 3 is_stmt 1 view .LVU956
 130:Drivers/BSP/STM32F769I-Discovery/stm32f769i_discovery_qspi.c ****   QSPIHandle.Init.FlashSize          = POSITION_VAL(MX25L512_FLASH_SIZE) - 1;
 2590              		.loc 1 130 38 is_stmt 0 view .LVU957
 2591 0024 E360     		str	r3, [r4, #12]
 131:Drivers/BSP/STM32F769I-Discovery/stm32f769i_discovery_qspi.c ****   QSPIHandle.Init.ChipSelectHighTime = QSPI_CS_HIGH_TIME_4_CYCLE; /* Min 30ns for nonRead */
 2592              		.loc 1 131 3 is_stmt 1 view .LVU958
 2593              	.LVL137:
 2594              	.LBB19:
 2595              	.LBI19:
 981:Drivers/CMSIS/Include/cmsis_gcc.h **** {
 2596              		.loc 2 981 31 view .LVU959
 2597              	.LBB20:
 983:Drivers/CMSIS/Include/cmsis_gcc.h **** 
 2598              		.loc 2 983 3 view .LVU960
 988:Drivers/CMSIS/Include/cmsis_gcc.h **** #else
 2599              		.loc 2 988 4 view .LVU961
 2600 0026 4FF08063 		mov	r3, #67108864
 2601              		.syntax unified
 2602              	@ 988 "Drivers/CMSIS/Include/cmsis_gcc.h" 1
 2603 002a 93FAA3F3 		rbit r3, r3
 2604              	@ 0 "" 2
ARM GAS  /var/folders/n6/c271nzx11xl4r4_m7sqjlt0m0000gn/T//cc22wCrs.s 			page 99


 2605              	.LVL138:
 2606              		.loc 2 1001 3 view .LVU962
 2607              		.loc 2 1001 3 is_stmt 0 view .LVU963
 2608              		.thumb
 2609              		.syntax unified
 2610              	.LBE20:
 2611              	.LBE19:
 131:Drivers/BSP/STM32F769I-Discovery/stm32f769i_discovery_qspi.c ****   QSPIHandle.Init.ChipSelectHighTime = QSPI_CS_HIGH_TIME_4_CYCLE; /* Min 30ns for nonRead */
 2612              		.loc 1 131 74 discriminator 2 view .LVU964
 2613 002e B3FA83F3 		clz	r3, r3
 2614 0032 013B     		subs	r3, r3, #1
 131:Drivers/BSP/STM32F769I-Discovery/stm32f769i_discovery_qspi.c ****   QSPIHandle.Init.ChipSelectHighTime = QSPI_CS_HIGH_TIME_4_CYCLE; /* Min 30ns for nonRead */
 2615              		.loc 1 131 38 discriminator 2 view .LVU965
 2616 0034 2361     		str	r3, [r4, #16]
 132:Drivers/BSP/STM32F769I-Discovery/stm32f769i_discovery_qspi.c ****   QSPIHandle.Init.ClockMode          = QSPI_CLOCK_MODE_0;
 2617              		.loc 1 132 3 is_stmt 1 view .LVU966
 132:Drivers/BSP/STM32F769I-Discovery/stm32f769i_discovery_qspi.c ****   QSPIHandle.Init.ClockMode          = QSPI_CLOCK_MODE_0;
 2618              		.loc 1 132 38 is_stmt 0 view .LVU967
 2619 0036 4FF44073 		mov	r3, #768
 2620 003a 6361     		str	r3, [r4, #20]
 133:Drivers/BSP/STM32F769I-Discovery/stm32f769i_discovery_qspi.c ****   QSPIHandle.Init.FlashID            = QSPI_FLASH_ID_1;
 2621              		.loc 1 133 3 is_stmt 1 view .LVU968
 133:Drivers/BSP/STM32F769I-Discovery/stm32f769i_discovery_qspi.c ****   QSPIHandle.Init.FlashID            = QSPI_FLASH_ID_1;
 2622              		.loc 1 133 38 is_stmt 0 view .LVU969
 2623 003c 0023     		movs	r3, #0
 2624 003e A361     		str	r3, [r4, #24]
 134:Drivers/BSP/STM32F769I-Discovery/stm32f769i_discovery_qspi.c ****   QSPIHandle.Init.DualFlash          = QSPI_DUALFLASH_DISABLE;
 2625              		.loc 1 134 3 is_stmt 1 view .LVU970
 134:Drivers/BSP/STM32F769I-Discovery/stm32f769i_discovery_qspi.c ****   QSPIHandle.Init.DualFlash          = QSPI_DUALFLASH_DISABLE;
 2626              		.loc 1 134 38 is_stmt 0 view .LVU971
 2627 0040 E361     		str	r3, [r4, #28]
 135:Drivers/BSP/STM32F769I-Discovery/stm32f769i_discovery_qspi.c ****   
 2628              		.loc 1 135 3 is_stmt 1 view .LVU972
 135:Drivers/BSP/STM32F769I-Discovery/stm32f769i_discovery_qspi.c ****   
 2629              		.loc 1 135 38 is_stmt 0 view .LVU973
 2630 0042 2362     		str	r3, [r4, #32]
 137:Drivers/BSP/STM32F769I-Discovery/stm32f769i_discovery_qspi.c ****   {
 2631              		.loc 1 137 3 is_stmt 1 view .LVU974
 137:Drivers/BSP/STM32F769I-Discovery/stm32f769i_discovery_qspi.c ****   {
 2632              		.loc 1 137 7 is_stmt 0 view .LVU975
 2633 0044 2046     		mov	r0, r4
 2634 0046 FFF7FEFF 		bl	HAL_QSPI_Init
 2635              	.LVL139:
 137:Drivers/BSP/STM32F769I-Discovery/stm32f769i_discovery_qspi.c ****   {
 2636              		.loc 1 137 6 discriminator 1 view .LVU976
 2637 004a 08B1     		cbz	r0, .L165
 139:Drivers/BSP/STM32F769I-Discovery/stm32f769i_discovery_qspi.c ****   }
 2638              		.loc 1 139 12 view .LVU977
 2639 004c 0120     		movs	r0, #1
 2640 004e DFE7     		b	.L155
 2641              	.L165:
 143:Drivers/BSP/STM32F769I-Discovery/stm32f769i_discovery_qspi.c ****   {
 2642              		.loc 1 143 3 is_stmt 1 view .LVU978
 143:Drivers/BSP/STM32F769I-Discovery/stm32f769i_discovery_qspi.c ****   {
 2643              		.loc 1 143 7 is_stmt 0 view .LVU979
 2644 0050 2046     		mov	r0, r4
 2645 0052 FFF7FEFF 		bl	QSPI_ResetMemory
ARM GAS  /var/folders/n6/c271nzx11xl4r4_m7sqjlt0m0000gn/T//cc22wCrs.s 			page 100


 2646              	.LVL140:
 143:Drivers/BSP/STM32F769I-Discovery/stm32f769i_discovery_qspi.c ****   {
 2647              		.loc 1 143 6 discriminator 1 view .LVU980
 2648 0056 90B9     		cbnz	r0, .L158
 149:Drivers/BSP/STM32F769I-Discovery/stm32f769i_discovery_qspi.c ****   {
 2649              		.loc 1 149 3 is_stmt 1 view .LVU981
 149:Drivers/BSP/STM32F769I-Discovery/stm32f769i_discovery_qspi.c ****   {
 2650              		.loc 1 149 7 is_stmt 0 view .LVU982
 2651 0058 2046     		mov	r0, r4
 2652 005a FFF7FEFF 		bl	QSPI_EnterMemory_QPI
 2653              	.LVL141:
 149:Drivers/BSP/STM32F769I-Discovery/stm32f769i_discovery_qspi.c ****   {
 2654              		.loc 1 149 5 discriminator 1 view .LVU983
 2655 005e 80B9     		cbnz	r0, .L159
 155:Drivers/BSP/STM32F769I-Discovery/stm32f769i_discovery_qspi.c ****   {
 2656              		.loc 1 155 3 is_stmt 1 view .LVU984
 155:Drivers/BSP/STM32F769I-Discovery/stm32f769i_discovery_qspi.c ****   {
 2657              		.loc 1 155 7 is_stmt 0 view .LVU985
 2658 0060 2046     		mov	r0, r4
 2659 0062 FFF7FEFF 		bl	QSPI_EnterFourBytesAddress
 2660              	.LVL142:
 155:Drivers/BSP/STM32F769I-Discovery/stm32f769i_discovery_qspi.c ****   {
 2661              		.loc 1 155 6 discriminator 1 view .LVU986
 2662 0066 70B9     		cbnz	r0, .L160
 161:Drivers/BSP/STM32F769I-Discovery/stm32f769i_discovery_qspi.c ****   {
 2663              		.loc 1 161 3 is_stmt 1 view .LVU987
 161:Drivers/BSP/STM32F769I-Discovery/stm32f769i_discovery_qspi.c ****   {
 2664              		.loc 1 161 7 is_stmt 0 view .LVU988
 2665 0068 2046     		mov	r0, r4
 2666 006a FFF7FEFF 		bl	QSPI_DummyCyclesCfg
 2667              	.LVL143:
 161:Drivers/BSP/STM32F769I-Discovery/stm32f769i_discovery_qspi.c ****   {
 2668              		.loc 1 161 6 discriminator 1 view .LVU989
 2669 006e 60B9     		cbnz	r0, .L161
 167:Drivers/BSP/STM32F769I-Discovery/stm32f769i_discovery_qspi.c ****   {
 2670              		.loc 1 167 3 is_stmt 1 view .LVU990
 167:Drivers/BSP/STM32F769I-Discovery/stm32f769i_discovery_qspi.c ****   {
 2671              		.loc 1 167 7 is_stmt 0 view .LVU991
 2672 0070 2046     		mov	r0, r4
 2673 0072 FFF7FEFF 		bl	QSPI_OutDrvStrengthCfg
 2674              	.LVL144:
 167:Drivers/BSP/STM32F769I-Discovery/stm32f769i_discovery_qspi.c ****   {
 2675              		.loc 1 167 5 discriminator 1 view .LVU992
 2676 0076 0028     		cmp	r0, #0
 2677 0078 CAD0     		beq	.L155
 169:Drivers/BSP/STM32F769I-Discovery/stm32f769i_discovery_qspi.c ****   }
 2678              		.loc 1 169 12 view .LVU993
 2679 007a 0420     		movs	r0, #4
 2680 007c C8E7     		b	.L155
 2681              	.L158:
 145:Drivers/BSP/STM32F769I-Discovery/stm32f769i_discovery_qspi.c ****   }
 2682              		.loc 1 145 12 view .LVU994
 2683 007e 0420     		movs	r0, #4
 2684 0080 C6E7     		b	.L155
 2685              	.L159:
 151:Drivers/BSP/STM32F769I-Discovery/stm32f769i_discovery_qspi.c ****   }
 2686              		.loc 1 151 12 view .LVU995
ARM GAS  /var/folders/n6/c271nzx11xl4r4_m7sqjlt0m0000gn/T//cc22wCrs.s 			page 101


 2687 0082 0420     		movs	r0, #4
 2688 0084 C4E7     		b	.L155
 2689              	.L160:
 157:Drivers/BSP/STM32F769I-Discovery/stm32f769i_discovery_qspi.c ****   }
 2690              		.loc 1 157 12 view .LVU996
 2691 0086 0420     		movs	r0, #4
 2692 0088 C2E7     		b	.L155
 2693              	.L161:
 163:Drivers/BSP/STM32F769I-Discovery/stm32f769i_discovery_qspi.c ****   }
 2694              		.loc 1 163 12 view .LVU997
 2695 008a 0420     		movs	r0, #4
 2696 008c C0E7     		b	.L155
 2697              	.L167:
 2698 008e 00BF     		.align	2
 2699              	.L166:
 2700 0090 00000000 		.word	QSPIHandle
 2701 0094 001000A0 		.word	-1610608640
 2702              		.cfi_endproc
 2703              	.LFE141:
 2705              		.section	.text.BSP_QSPI_MspDeInit,"ax",%progbits
 2706              		.align	1
 2707              		.weak	BSP_QSPI_MspDeInit
 2708              		.syntax unified
 2709              		.thumb
 2710              		.thumb_func
 2712              	BSP_QSPI_MspDeInit:
 2713              	.LVL145:
 2714              	.LFB151:
 578:Drivers/BSP/STM32F769I-Discovery/stm32f769i_discovery_qspi.c ****   /*##-1- Disable the NVIC for QSPI ###########################################*/
 2715              		.loc 1 578 1 is_stmt 1 view -0
 2716              		.cfi_startproc
 2717              		@ args = 0, pretend = 0, frame = 0
 2718              		@ frame_needed = 0, uses_anonymous_args = 0
 578:Drivers/BSP/STM32F769I-Discovery/stm32f769i_discovery_qspi.c ****   /*##-1- Disable the NVIC for QSPI ###########################################*/
 2719              		.loc 1 578 1 is_stmt 0 view .LVU999
 2720 0000 10B5     		push	{r4, lr}
 2721              		.cfi_def_cfa_offset 8
 2722              		.cfi_offset 4, -8
 2723              		.cfi_offset 14, -4
 580:Drivers/BSP/STM32F769I-Discovery/stm32f769i_discovery_qspi.c **** 
 2724              		.loc 1 580 3 is_stmt 1 view .LVU1000
 2725 0002 5C20     		movs	r0, #92
 2726              	.LVL146:
 580:Drivers/BSP/STM32F769I-Discovery/stm32f769i_discovery_qspi.c **** 
 2727              		.loc 1 580 3 is_stmt 0 view .LVU1001
 2728 0004 FFF7FEFF 		bl	HAL_NVIC_DisableIRQ
 2729              	.LVL147:
 584:Drivers/BSP/STM32F769I-Discovery/stm32f769i_discovery_qspi.c ****   HAL_GPIO_DeInit(QSPI_CLK_GPIO_PORT, QSPI_CLK_PIN);
 2730              		.loc 1 584 3 is_stmt 1 view .LVU1002
 2731 0008 154C     		ldr	r4, .L170
 2732 000a 4021     		movs	r1, #64
 2733 000c 2046     		mov	r0, r4
 2734 000e FFF7FEFF 		bl	HAL_GPIO_DeInit
 2735              	.LVL148:
 585:Drivers/BSP/STM32F769I-Discovery/stm32f769i_discovery_qspi.c ****   HAL_GPIO_DeInit(QSPI_D0_GPIO_PORT, QSPI_D0_PIN);
 2736              		.loc 1 585 3 view .LVU1003
 2737 0012 0421     		movs	r1, #4
ARM GAS  /var/folders/n6/c271nzx11xl4r4_m7sqjlt0m0000gn/T//cc22wCrs.s 			page 102


 2738 0014 2046     		mov	r0, r4
 2739 0016 FFF7FEFF 		bl	HAL_GPIO_DeInit
 2740              	.LVL149:
 586:Drivers/BSP/STM32F769I-Discovery/stm32f769i_discovery_qspi.c ****   HAL_GPIO_DeInit(QSPI_D1_GPIO_PORT, QSPI_D1_PIN);
 2741              		.loc 1 586 3 view .LVU1004
 2742 001a 04F58064 		add	r4, r4, #1024
 2743 001e 4FF40071 		mov	r1, #512
 2744 0022 2046     		mov	r0, r4
 2745 0024 FFF7FEFF 		bl	HAL_GPIO_DeInit
 2746              	.LVL150:
 587:Drivers/BSP/STM32F769I-Discovery/stm32f769i_discovery_qspi.c ****   HAL_GPIO_DeInit(QSPI_D2_GPIO_PORT, QSPI_D2_PIN);
 2747              		.loc 1 587 3 view .LVU1005
 2748 0028 4FF48061 		mov	r1, #1024
 2749 002c 2046     		mov	r0, r4
 2750 002e FFF7FEFF 		bl	HAL_GPIO_DeInit
 2751              	.LVL151:
 588:Drivers/BSP/STM32F769I-Discovery/stm32f769i_discovery_qspi.c ****   HAL_GPIO_DeInit(QSPI_D3_GPIO_PORT, QSPI_D3_PIN);
 2752              		.loc 1 588 3 view .LVU1006
 2753 0032 0421     		movs	r1, #4
 2754 0034 0B48     		ldr	r0, .L170+4
 2755 0036 FFF7FEFF 		bl	HAL_GPIO_DeInit
 2756              	.LVL152:
 589:Drivers/BSP/STM32F769I-Discovery/stm32f769i_discovery_qspi.c **** 
 2757              		.loc 1 589 3 view .LVU1007
 2758 003a 4FF40051 		mov	r1, #8192
 2759 003e 0A48     		ldr	r0, .L170+8
 2760 0040 FFF7FEFF 		bl	HAL_GPIO_DeInit
 2761              	.LVL153:
 593:Drivers/BSP/STM32F769I-Discovery/stm32f769i_discovery_qspi.c ****   QSPI_RELEASE_RESET();
 2762              		.loc 1 593 3 view .LVU1008
 2763 0044 094B     		ldr	r3, .L170+12
 2764 0046 9A69     		ldr	r2, [r3, #24]
 2765 0048 42F00202 		orr	r2, r2, #2
 2766 004c 9A61     		str	r2, [r3, #24]
 594:Drivers/BSP/STM32F769I-Discovery/stm32f769i_discovery_qspi.c **** 
 2767              		.loc 1 594 3 view .LVU1009
 2768 004e 9A69     		ldr	r2, [r3, #24]
 2769 0050 22F00202 		bic	r2, r2, #2
 2770 0054 9A61     		str	r2, [r3, #24]
 597:Drivers/BSP/STM32F769I-Discovery/stm32f769i_discovery_qspi.c **** }
 2771              		.loc 1 597 3 view .LVU1010
 2772 0056 9A6B     		ldr	r2, [r3, #56]
 2773 0058 22F00202 		bic	r2, r2, #2
 2774 005c 9A63     		str	r2, [r3, #56]
 598:Drivers/BSP/STM32F769I-Discovery/stm32f769i_discovery_qspi.c **** 
 2775              		.loc 1 598 1 is_stmt 0 view .LVU1011
 2776 005e 10BD     		pop	{r4, pc}
 2777              	.L171:
 2778              		.align	2
 2779              	.L170:
 2780 0060 00040240 		.word	1073873920
 2781 0064 00100240 		.word	1073876992
 2782 0068 000C0240 		.word	1073875968
 2783 006c 00380240 		.word	1073887232
 2784              		.cfi_endproc
 2785              	.LFE151:
 2787              		.section	.text.BSP_QSPI_DeInit,"ax",%progbits
ARM GAS  /var/folders/n6/c271nzx11xl4r4_m7sqjlt0m0000gn/T//cc22wCrs.s 			page 103


 2788              		.align	1
 2789              		.global	BSP_QSPI_DeInit
 2790              		.syntax unified
 2791              		.thumb
 2792              		.thumb_func
 2794              	BSP_QSPI_DeInit:
 2795              	.LFB142:
 180:Drivers/BSP/STM32F769I-Discovery/stm32f769i_discovery_qspi.c ****   QSPIHandle.Instance = QUADSPI;
 2796              		.loc 1 180 1 is_stmt 1 view -0
 2797              		.cfi_startproc
 2798              		@ args = 0, pretend = 0, frame = 0
 2799              		@ frame_needed = 0, uses_anonymous_args = 0
 2800 0000 10B5     		push	{r4, lr}
 2801              		.cfi_def_cfa_offset 8
 2802              		.cfi_offset 4, -8
 2803              		.cfi_offset 14, -4
 181:Drivers/BSP/STM32F769I-Discovery/stm32f769i_discovery_qspi.c **** 
 2804              		.loc 1 181 3 view .LVU1013
 181:Drivers/BSP/STM32F769I-Discovery/stm32f769i_discovery_qspi.c **** 
 2805              		.loc 1 181 23 is_stmt 0 view .LVU1014
 2806 0002 0A48     		ldr	r0, .L178
 2807 0004 0A4B     		ldr	r3, .L178+4
 2808 0006 0360     		str	r3, [r0]
 184:Drivers/BSP/STM32F769I-Discovery/stm32f769i_discovery_qspi.c ****   {
 2809              		.loc 1 184 3 is_stmt 1 view .LVU1015
 184:Drivers/BSP/STM32F769I-Discovery/stm32f769i_discovery_qspi.c ****   {
 2810              		.loc 1 184 7 is_stmt 0 view .LVU1016
 2811 0008 FFF7FEFF 		bl	QSPI_ExitMemory_QPI
 2812              	.LVL154:
 184:Drivers/BSP/STM32F769I-Discovery/stm32f769i_discovery_qspi.c ****   {
 2813              		.loc 1 184 5 discriminator 1 view .LVU1017
 2814 000c 58B9     		cbnz	r0, .L174
 190:Drivers/BSP/STM32F769I-Discovery/stm32f769i_discovery_qspi.c ****   {
 2815              		.loc 1 190 3 is_stmt 1 view .LVU1018
 190:Drivers/BSP/STM32F769I-Discovery/stm32f769i_discovery_qspi.c ****   {
 2816              		.loc 1 190 7 is_stmt 0 view .LVU1019
 2817 000e 0748     		ldr	r0, .L178
 2818 0010 FFF7FEFF 		bl	HAL_QSPI_DeInit
 2819              	.LVL155:
 190:Drivers/BSP/STM32F769I-Discovery/stm32f769i_discovery_qspi.c ****   {
 2820              		.loc 1 190 6 discriminator 1 view .LVU1020
 2821 0014 0446     		mov	r4, r0
 2822 0016 08B1     		cbz	r0, .L177
 192:Drivers/BSP/STM32F769I-Discovery/stm32f769i_discovery_qspi.c ****   }
 2823              		.loc 1 192 12 view .LVU1021
 2824 0018 0124     		movs	r4, #1
 2825 001a 05E0     		b	.L173
 2826              	.L177:
 196:Drivers/BSP/STM32F769I-Discovery/stm32f769i_discovery_qspi.c ****   
 2827              		.loc 1 196 3 is_stmt 1 view .LVU1022
 2828 001c 0021     		movs	r1, #0
 2829 001e 0348     		ldr	r0, .L178
 2830 0020 FFF7FEFF 		bl	BSP_QSPI_MspDeInit
 2831              	.LVL156:
 198:Drivers/BSP/STM32F769I-Discovery/stm32f769i_discovery_qspi.c **** }
 2832              		.loc 1 198 3 view .LVU1023
 198:Drivers/BSP/STM32F769I-Discovery/stm32f769i_discovery_qspi.c **** }
ARM GAS  /var/folders/n6/c271nzx11xl4r4_m7sqjlt0m0000gn/T//cc22wCrs.s 			page 104


 2833              		.loc 1 198 10 is_stmt 0 view .LVU1024
 2834 0024 00E0     		b	.L173
 2835              	.L174:
 186:Drivers/BSP/STM32F769I-Discovery/stm32f769i_discovery_qspi.c ****   }
 2836              		.loc 1 186 12 view .LVU1025
 2837 0026 0424     		movs	r4, #4
 2838              	.L173:
 199:Drivers/BSP/STM32F769I-Discovery/stm32f769i_discovery_qspi.c **** 
 2839              		.loc 1 199 1 view .LVU1026
 2840 0028 2046     		mov	r0, r4
 2841 002a 10BD     		pop	{r4, pc}
 2842              	.L179:
 2843              		.align	2
 2844              	.L178:
 2845 002c 00000000 		.word	QSPIHandle
 2846 0030 001000A0 		.word	-1610608640
 2847              		.cfi_endproc
 2848              	.LFE142:
 2850              		.global	QSPIHandle
 2851              		.section	.bss.QSPIHandle,"aw",%nobits
 2852              		.align	2
 2855              	QSPIHandle:
 2856 0000 00000000 		.space	76
 2856      00000000 
 2856      00000000 
 2856      00000000 
 2856      00000000 
 2857              		.text
 2858              	.Letext0:
 2859              		.file 3 "Drivers/CMSIS/Device/ST/STM32F7xx/Include/stm32f769xx.h"
 2860              		.file 4 "/Users/killian/Library/Application Support/Code/User/globalStorage/bmd.stm32-for-vscode/@
 2861              		.file 5 "/Users/killian/Library/Application Support/Code/User/globalStorage/bmd.stm32-for-vscode/@
 2862              		.file 6 "Drivers/STM32F7xx_HAL_Driver/Inc/stm32f7xx_hal_def.h"
 2863              		.file 7 "Drivers/STM32F7xx_HAL_Driver/Inc/stm32f7xx_hal_gpio.h"
 2864              		.file 8 "Drivers/STM32F7xx_HAL_Driver/Inc/stm32f7xx_hal_dma.h"
 2865              		.file 9 "Drivers/STM32F7xx_HAL_Driver/Inc/stm32f7xx_hal_qspi.h"
 2866              		.file 10 "Drivers/BSP/STM32F769I-Discovery/stm32f769i_discovery_qspi.h"
 2867              		.file 11 "Drivers/STM32F7xx_HAL_Driver/Inc/stm32f7xx_hal_cortex.h"
 2868              		.file 12 "Drivers/STM32F7xx_HAL_Driver/Inc/stm32f7xx_hal.h"
ARM GAS  /var/folders/n6/c271nzx11xl4r4_m7sqjlt0m0000gn/T//cc22wCrs.s 			page 105


DEFINED SYMBOLS
                            *ABS*:00000000 stm32f769i_discovery_qspi.c
/var/folders/n6/c271nzx11xl4r4_m7sqjlt0m0000gn/T//cc22wCrs.s:20     .text.QSPI_ExitMemory_QPI:00000000 $t
/var/folders/n6/c271nzx11xl4r4_m7sqjlt0m0000gn/T//cc22wCrs.s:25     .text.QSPI_ExitMemory_QPI:00000000 QSPI_ExitMemory_QPI
/var/folders/n6/c271nzx11xl4r4_m7sqjlt0m0000gn/T//cc22wCrs.s:93     .text.QSPI_EnterMemory_QPI:00000000 $t
/var/folders/n6/c271nzx11xl4r4_m7sqjlt0m0000gn/T//cc22wCrs.s:98     .text.QSPI_EnterMemory_QPI:00000000 QSPI_EnterMemory_QPI
/var/folders/n6/c271nzx11xl4r4_m7sqjlt0m0000gn/T//cc22wCrs.s:219    .text.QSPI_WriteEnable:00000000 $t
/var/folders/n6/c271nzx11xl4r4_m7sqjlt0m0000gn/T//cc22wCrs.s:224    .text.QSPI_WriteEnable:00000000 QSPI_WriteEnable
/var/folders/n6/c271nzx11xl4r4_m7sqjlt0m0000gn/T//cc22wCrs.s:340    .text.QSPI_AutoPollingMemReady:00000000 $t
/var/folders/n6/c271nzx11xl4r4_m7sqjlt0m0000gn/T//cc22wCrs.s:345    .text.QSPI_AutoPollingMemReady:00000000 QSPI_AutoPollingMemReady
/var/folders/n6/c271nzx11xl4r4_m7sqjlt0m0000gn/T//cc22wCrs.s:440    .text.QSPI_EnterFourBytesAddress:00000000 $t
/var/folders/n6/c271nzx11xl4r4_m7sqjlt0m0000gn/T//cc22wCrs.s:445    .text.QSPI_EnterFourBytesAddress:00000000 QSPI_EnterFourBytesAddress
/var/folders/n6/c271nzx11xl4r4_m7sqjlt0m0000gn/T//cc22wCrs.s:538    .text.QSPI_ResetMemory:00000000 $t
/var/folders/n6/c271nzx11xl4r4_m7sqjlt0m0000gn/T//cc22wCrs.s:543    .text.QSPI_ResetMemory:00000000 QSPI_ResetMemory
/var/folders/n6/c271nzx11xl4r4_m7sqjlt0m0000gn/T//cc22wCrs.s:975    .text.QSPI_DummyCyclesCfg:00000000 $t
/var/folders/n6/c271nzx11xl4r4_m7sqjlt0m0000gn/T//cc22wCrs.s:980    .text.QSPI_DummyCyclesCfg:00000000 QSPI_DummyCyclesCfg
/var/folders/n6/c271nzx11xl4r4_m7sqjlt0m0000gn/T//cc22wCrs.s:1258   .text.QSPI_OutDrvStrengthCfg:00000000 $t
/var/folders/n6/c271nzx11xl4r4_m7sqjlt0m0000gn/T//cc22wCrs.s:1263   .text.QSPI_OutDrvStrengthCfg:00000000 QSPI_OutDrvStrengthCfg
/var/folders/n6/c271nzx11xl4r4_m7sqjlt0m0000gn/T//cc22wCrs.s:1512   .text.QSPI_OutDrvStrengthCfg:00000108 $d
/var/folders/n6/c271nzx11xl4r4_m7sqjlt0m0000gn/T//cc22wCrs.s:2855   .bss.QSPIHandle:00000000 QSPIHandle
/var/folders/n6/c271nzx11xl4r4_m7sqjlt0m0000gn/T//cc22wCrs.s:1517   .text.BSP_QSPI_Read:00000000 $t
/var/folders/n6/c271nzx11xl4r4_m7sqjlt0m0000gn/T//cc22wCrs.s:1523   .text.BSP_QSPI_Read:00000000 BSP_QSPI_Read
/var/folders/n6/c271nzx11xl4r4_m7sqjlt0m0000gn/T//cc22wCrs.s:1640   .text.BSP_QSPI_Read:00000078 $d
/var/folders/n6/c271nzx11xl4r4_m7sqjlt0m0000gn/T//cc22wCrs.s:1645   .text.BSP_QSPI_Write:00000000 $t
/var/folders/n6/c271nzx11xl4r4_m7sqjlt0m0000gn/T//cc22wCrs.s:1651   .text.BSP_QSPI_Write:00000000 BSP_QSPI_Write
/var/folders/n6/c271nzx11xl4r4_m7sqjlt0m0000gn/T//cc22wCrs.s:1829   .text.BSP_QSPI_Write:000000a4 $d
/var/folders/n6/c271nzx11xl4r4_m7sqjlt0m0000gn/T//cc22wCrs.s:1834   .text.BSP_QSPI_Erase_Block:00000000 $t
/var/folders/n6/c271nzx11xl4r4_m7sqjlt0m0000gn/T//cc22wCrs.s:1840   .text.BSP_QSPI_Erase_Block:00000000 BSP_QSPI_Erase_Block
/var/folders/n6/c271nzx11xl4r4_m7sqjlt0m0000gn/T//cc22wCrs.s:1940   .text.BSP_QSPI_Erase_Block:00000060 $d
/var/folders/n6/c271nzx11xl4r4_m7sqjlt0m0000gn/T//cc22wCrs.s:1945   .text.BSP_QSPI_Erase_Chip:00000000 $t
/var/folders/n6/c271nzx11xl4r4_m7sqjlt0m0000gn/T//cc22wCrs.s:1951   .text.BSP_QSPI_Erase_Chip:00000000 BSP_QSPI_Erase_Chip
/var/folders/n6/c271nzx11xl4r4_m7sqjlt0m0000gn/T//cc22wCrs.s:2039   .text.BSP_QSPI_Erase_Chip:00000050 $d
/var/folders/n6/c271nzx11xl4r4_m7sqjlt0m0000gn/T//cc22wCrs.s:2045   .text.BSP_QSPI_GetStatus:00000000 $t
/var/folders/n6/c271nzx11xl4r4_m7sqjlt0m0000gn/T//cc22wCrs.s:2051   .text.BSP_QSPI_GetStatus:00000000 BSP_QSPI_GetStatus
/var/folders/n6/c271nzx11xl4r4_m7sqjlt0m0000gn/T//cc22wCrs.s:2144   .text.BSP_QSPI_GetStatus:00000060 $d
/var/folders/n6/c271nzx11xl4r4_m7sqjlt0m0000gn/T//cc22wCrs.s:2149   .text.BSP_QSPI_GetInfo:00000000 $t
/var/folders/n6/c271nzx11xl4r4_m7sqjlt0m0000gn/T//cc22wCrs.s:2155   .text.BSP_QSPI_GetInfo:00000000 BSP_QSPI_GetInfo
/var/folders/n6/c271nzx11xl4r4_m7sqjlt0m0000gn/T//cc22wCrs.s:2193   .text.BSP_QSPI_EnableMemoryMappedMode:00000000 $t
/var/folders/n6/c271nzx11xl4r4_m7sqjlt0m0000gn/T//cc22wCrs.s:2199   .text.BSP_QSPI_EnableMemoryMappedMode:00000000 BSP_QSPI_EnableMemoryMappedMode
/var/folders/n6/c271nzx11xl4r4_m7sqjlt0m0000gn/T//cc22wCrs.s:2279   .text.BSP_QSPI_EnableMemoryMappedMode:00000048 $d
/var/folders/n6/c271nzx11xl4r4_m7sqjlt0m0000gn/T//cc22wCrs.s:2284   .text.BSP_QSPI_MspInit:00000000 $t
/var/folders/n6/c271nzx11xl4r4_m7sqjlt0m0000gn/T//cc22wCrs.s:2290   .text.BSP_QSPI_MspInit:00000000 BSP_QSPI_MspInit
/var/folders/n6/c271nzx11xl4r4_m7sqjlt0m0000gn/T//cc22wCrs.s:2534   .text.BSP_QSPI_MspInit:00000118 $d
/var/folders/n6/c271nzx11xl4r4_m7sqjlt0m0000gn/T//cc22wCrs.s:2542   .text.BSP_QSPI_Init:00000000 $t
/var/folders/n6/c271nzx11xl4r4_m7sqjlt0m0000gn/T//cc22wCrs.s:2548   .text.BSP_QSPI_Init:00000000 BSP_QSPI_Init
/var/folders/n6/c271nzx11xl4r4_m7sqjlt0m0000gn/T//cc22wCrs.s:2700   .text.BSP_QSPI_Init:00000090 $d
/var/folders/n6/c271nzx11xl4r4_m7sqjlt0m0000gn/T//cc22wCrs.s:2706   .text.BSP_QSPI_MspDeInit:00000000 $t
/var/folders/n6/c271nzx11xl4r4_m7sqjlt0m0000gn/T//cc22wCrs.s:2712   .text.BSP_QSPI_MspDeInit:00000000 BSP_QSPI_MspDeInit
/var/folders/n6/c271nzx11xl4r4_m7sqjlt0m0000gn/T//cc22wCrs.s:2780   .text.BSP_QSPI_MspDeInit:00000060 $d
/var/folders/n6/c271nzx11xl4r4_m7sqjlt0m0000gn/T//cc22wCrs.s:2788   .text.BSP_QSPI_DeInit:00000000 $t
/var/folders/n6/c271nzx11xl4r4_m7sqjlt0m0000gn/T//cc22wCrs.s:2794   .text.BSP_QSPI_DeInit:00000000 BSP_QSPI_DeInit
/var/folders/n6/c271nzx11xl4r4_m7sqjlt0m0000gn/T//cc22wCrs.s:2845   .text.BSP_QSPI_DeInit:0000002c $d
/var/folders/n6/c271nzx11xl4r4_m7sqjlt0m0000gn/T//cc22wCrs.s:2852   .bss.QSPIHandle:00000000 $d

UNDEFINED SYMBOLS
HAL_QSPI_Command
HAL_QSPI_AutoPolling
ARM GAS  /var/folders/n6/c271nzx11xl4r4_m7sqjlt0m0000gn/T//cc22wCrs.s 			page 106


HAL_Delay
HAL_QSPI_Receive
HAL_QSPI_Transmit
HAL_QSPI_MemoryMapped
HAL_GPIO_Init
HAL_NVIC_SetPriority
HAL_NVIC_EnableIRQ
HAL_QSPI_DeInit
HAL_QSPI_Init
HAL_NVIC_DisableIRQ
HAL_GPIO_DeInit
