ARM GAS  /var/folders/n6/c271nzx11xl4r4_m7sqjlt0m0000gn/T//cchiqZf1.s 			page 1


   1              		.cpu cortex-m7
   2              		.arch armv7e-m
   3              		.fpu fpv5-d16
   4              		.eabi_attribute 28, 1
   5              		.eabi_attribute 20, 1
   6              		.eabi_attribute 21, 1
   7              		.eabi_attribute 23, 3
   8              		.eabi_attribute 24, 1
   9              		.eabi_attribute 25, 1
  10              		.eabi_attribute 26, 1
  11              		.eabi_attribute 30, 1
  12              		.eabi_attribute 34, 1
  13              		.eabi_attribute 18, 4
  14              		.file	"stm32f769i_discovery_sdram.c"
  15              		.text
  16              	.Ltext0:
  17              		.cfi_sections	.debug_frame
  18              		.file 1 "Drivers/BSP/STM32F769I-Discovery/stm32f769i_discovery_sdram.c"
  19              		.section	.text.BSP_SDRAM_Initialization_sequence,"ax",%progbits
  20              		.align	1
  21              		.global	BSP_SDRAM_Initialization_sequence
  22              		.syntax unified
  23              		.thumb
  24              		.thumb_func
  26              	BSP_SDRAM_Initialization_sequence:
  27              	.LVL0:
  28              	.LFB143:
   1:Drivers/BSP/STM32F769I-Discovery/stm32f769i_discovery_sdram.c **** /**
   2:Drivers/BSP/STM32F769I-Discovery/stm32f769i_discovery_sdram.c ****   ******************************************************************************
   3:Drivers/BSP/STM32F769I-Discovery/stm32f769i_discovery_sdram.c ****   * @file    stm32f769i_discovery_sdram.c
   4:Drivers/BSP/STM32F769I-Discovery/stm32f769i_discovery_sdram.c ****   * @author  MCD Application Team
   5:Drivers/BSP/STM32F769I-Discovery/stm32f769i_discovery_sdram.c ****   * @brief   This file includes the SDRAM driver for the MT48LC4M32B2B5-6A memory 
   6:Drivers/BSP/STM32F769I-Discovery/stm32f769i_discovery_sdram.c ****   *          device mounted on STM32F769I-DISCOVERY boards.
   7:Drivers/BSP/STM32F769I-Discovery/stm32f769i_discovery_sdram.c ****   *
   8:Drivers/BSP/STM32F769I-Discovery/stm32f769i_discovery_sdram.c ****   ******************************************************************************
   9:Drivers/BSP/STM32F769I-Discovery/stm32f769i_discovery_sdram.c ****   * @attention
  10:Drivers/BSP/STM32F769I-Discovery/stm32f769i_discovery_sdram.c ****   *
  11:Drivers/BSP/STM32F769I-Discovery/stm32f769i_discovery_sdram.c ****   * Copyright (c) 2016 STMicroelectronics.
  12:Drivers/BSP/STM32F769I-Discovery/stm32f769i_discovery_sdram.c ****   * All rights reserved.
  13:Drivers/BSP/STM32F769I-Discovery/stm32f769i_discovery_sdram.c ****   *
  14:Drivers/BSP/STM32F769I-Discovery/stm32f769i_discovery_sdram.c ****   * This software is licensed under terms that can be found in the LICENSE file
  15:Drivers/BSP/STM32F769I-Discovery/stm32f769i_discovery_sdram.c ****   * in the root directory of this software component.
  16:Drivers/BSP/STM32F769I-Discovery/stm32f769i_discovery_sdram.c ****   * If no LICENSE file comes with this software, it is provided AS-IS.
  17:Drivers/BSP/STM32F769I-Discovery/stm32f769i_discovery_sdram.c ****   *
  18:Drivers/BSP/STM32F769I-Discovery/stm32f769i_discovery_sdram.c ****   ******************************************************************************
  19:Drivers/BSP/STM32F769I-Discovery/stm32f769i_discovery_sdram.c ****   @verbatim
  20:Drivers/BSP/STM32F769I-Discovery/stm32f769i_discovery_sdram.c ****   How To use this driver:
  21:Drivers/BSP/STM32F769I-Discovery/stm32f769i_discovery_sdram.c ****   -----------------------
  22:Drivers/BSP/STM32F769I-Discovery/stm32f769i_discovery_sdram.c ****    - This driver is used to drive the MT48LC4M32B2B5-6A SDRAM external memory mounted
  23:Drivers/BSP/STM32F769I-Discovery/stm32f769i_discovery_sdram.c ****      on STM32F769I-DISCOVERY board.
  24:Drivers/BSP/STM32F769I-Discovery/stm32f769i_discovery_sdram.c ****    - This driver does not need a specific component driver for the SDRAM device
  25:Drivers/BSP/STM32F769I-Discovery/stm32f769i_discovery_sdram.c ****      to be included with.
  26:Drivers/BSP/STM32F769I-Discovery/stm32f769i_discovery_sdram.c **** 
  27:Drivers/BSP/STM32F769I-Discovery/stm32f769i_discovery_sdram.c ****   Driver description:
  28:Drivers/BSP/STM32F769I-Discovery/stm32f769i_discovery_sdram.c ****   ------------------
  29:Drivers/BSP/STM32F769I-Discovery/stm32f769i_discovery_sdram.c ****   + Initialization steps:
  30:Drivers/BSP/STM32F769I-Discovery/stm32f769i_discovery_sdram.c ****      o Initialize the SDRAM external memory using the BSP_SDRAM_Init() function. This 
ARM GAS  /var/folders/n6/c271nzx11xl4r4_m7sqjlt0m0000gn/T//cchiqZf1.s 			page 2


  31:Drivers/BSP/STM32F769I-Discovery/stm32f769i_discovery_sdram.c ****        function includes the MSP layer hardware resources initialization and the
  32:Drivers/BSP/STM32F769I-Discovery/stm32f769i_discovery_sdram.c ****        FMC controller configuration to interface with the external SDRAM memory.
  33:Drivers/BSP/STM32F769I-Discovery/stm32f769i_discovery_sdram.c ****      o It contains the SDRAM initialization sequence to program the SDRAM external 
  34:Drivers/BSP/STM32F769I-Discovery/stm32f769i_discovery_sdram.c ****        device using the function BSP_SDRAM_Initialization_sequence(). Note that this 
  35:Drivers/BSP/STM32F769I-Discovery/stm32f769i_discovery_sdram.c ****        sequence is standard for all SDRAM devices, but can include some differences
  36:Drivers/BSP/STM32F769I-Discovery/stm32f769i_discovery_sdram.c ****        from a device to another. If it is the case, the right sequence should be 
  37:Drivers/BSP/STM32F769I-Discovery/stm32f769i_discovery_sdram.c ****        implemented separately.
  38:Drivers/BSP/STM32F769I-Discovery/stm32f769i_discovery_sdram.c ****   
  39:Drivers/BSP/STM32F769I-Discovery/stm32f769i_discovery_sdram.c ****   + SDRAM read/write operations
  40:Drivers/BSP/STM32F769I-Discovery/stm32f769i_discovery_sdram.c ****      o SDRAM external memory can be accessed with read/write operations once it is
  41:Drivers/BSP/STM32F769I-Discovery/stm32f769i_discovery_sdram.c ****        initialized.
  42:Drivers/BSP/STM32F769I-Discovery/stm32f769i_discovery_sdram.c ****        Read/write operation can be performed with AHB access using the functions
  43:Drivers/BSP/STM32F769I-Discovery/stm32f769i_discovery_sdram.c ****        BSP_SDRAM_ReadData()/BSP_SDRAM_WriteData(), or by DMA transfer using the functions
  44:Drivers/BSP/STM32F769I-Discovery/stm32f769i_discovery_sdram.c ****        BSP_SDRAM_ReadData_DMA()/BSP_SDRAM_WriteData_DMA().
  45:Drivers/BSP/STM32F769I-Discovery/stm32f769i_discovery_sdram.c ****      o The AHB access is performed with 32-bit width transaction, the DMA transfer
  46:Drivers/BSP/STM32F769I-Discovery/stm32f769i_discovery_sdram.c ****        configuration is fixed at single (no burst) word transfer (see the 
  47:Drivers/BSP/STM32F769I-Discovery/stm32f769i_discovery_sdram.c ****        SDRAM_MspInit() static function).
  48:Drivers/BSP/STM32F769I-Discovery/stm32f769i_discovery_sdram.c ****      o User can implement his own functions for read/write access with his desired 
  49:Drivers/BSP/STM32F769I-Discovery/stm32f769i_discovery_sdram.c ****        configurations.
  50:Drivers/BSP/STM32F769I-Discovery/stm32f769i_discovery_sdram.c ****      o If interrupt mode is used for DMA transfer, the function BSP_SDRAM_DMA_IRQHandler()
  51:Drivers/BSP/STM32F769I-Discovery/stm32f769i_discovery_sdram.c ****        is called in IRQ handler file, to serve the generated interrupt once the DMA 
  52:Drivers/BSP/STM32F769I-Discovery/stm32f769i_discovery_sdram.c ****        transfer is complete.
  53:Drivers/BSP/STM32F769I-Discovery/stm32f769i_discovery_sdram.c ****      o You can send a command to the SDRAM device in runtime using the function 
  54:Drivers/BSP/STM32F769I-Discovery/stm32f769i_discovery_sdram.c ****        BSP_SDRAM_Sendcmd(), and giving the desired command as parameter chosen between 
  55:Drivers/BSP/STM32F769I-Discovery/stm32f769i_discovery_sdram.c ****        the predefined commands of the "FMC_SDRAM_CommandTypeDef" structure. 
  56:Drivers/BSP/STM32F769I-Discovery/stm32f769i_discovery_sdram.c ****   @endverbatim
  57:Drivers/BSP/STM32F769I-Discovery/stm32f769i_discovery_sdram.c ****   ******************************************************************************
  58:Drivers/BSP/STM32F769I-Discovery/stm32f769i_discovery_sdram.c ****   */
  59:Drivers/BSP/STM32F769I-Discovery/stm32f769i_discovery_sdram.c **** 
  60:Drivers/BSP/STM32F769I-Discovery/stm32f769i_discovery_sdram.c **** /* Dependencies
  61:Drivers/BSP/STM32F769I-Discovery/stm32f769i_discovery_sdram.c **** - stm32f7xx_hal_sdram.c
  62:Drivers/BSP/STM32F769I-Discovery/stm32f769i_discovery_sdram.c **** - stm32f7xx_ll_fmc.c
  63:Drivers/BSP/STM32F769I-Discovery/stm32f769i_discovery_sdram.c **** - stm32f7xx_hal_dma.c  
  64:Drivers/BSP/STM32F769I-Discovery/stm32f769i_discovery_sdram.c **** - stm32f7xx_hal_gpio.c
  65:Drivers/BSP/STM32F769I-Discovery/stm32f769i_discovery_sdram.c **** - stm32f7xx_hal_cortex.c
  66:Drivers/BSP/STM32F769I-Discovery/stm32f769i_discovery_sdram.c **** - stm32f7xx_hal_rcc_ex.h
  67:Drivers/BSP/STM32F769I-Discovery/stm32f769i_discovery_sdram.c **** EndDependencies */
  68:Drivers/BSP/STM32F769I-Discovery/stm32f769i_discovery_sdram.c **** 
  69:Drivers/BSP/STM32F769I-Discovery/stm32f769i_discovery_sdram.c **** /* Includes ------------------------------------------------------------------*/
  70:Drivers/BSP/STM32F769I-Discovery/stm32f769i_discovery_sdram.c **** #include "stm32f769i_discovery_sdram.h"
  71:Drivers/BSP/STM32F769I-Discovery/stm32f769i_discovery_sdram.c **** 
  72:Drivers/BSP/STM32F769I-Discovery/stm32f769i_discovery_sdram.c **** /** @addtogroup BSP
  73:Drivers/BSP/STM32F769I-Discovery/stm32f769i_discovery_sdram.c ****   * @{
  74:Drivers/BSP/STM32F769I-Discovery/stm32f769i_discovery_sdram.c ****   */
  75:Drivers/BSP/STM32F769I-Discovery/stm32f769i_discovery_sdram.c **** 
  76:Drivers/BSP/STM32F769I-Discovery/stm32f769i_discovery_sdram.c **** /** @addtogroup STM32F769I_DISCOVERY
  77:Drivers/BSP/STM32F769I-Discovery/stm32f769i_discovery_sdram.c ****   * @{
  78:Drivers/BSP/STM32F769I-Discovery/stm32f769i_discovery_sdram.c ****   */ 
  79:Drivers/BSP/STM32F769I-Discovery/stm32f769i_discovery_sdram.c ****   
  80:Drivers/BSP/STM32F769I-Discovery/stm32f769i_discovery_sdram.c **** /** @defgroup STM32F769I_DISCOVERY_SDRAM STM32F769I_DISCOVERY SDRAM
  81:Drivers/BSP/STM32F769I-Discovery/stm32f769i_discovery_sdram.c ****   * @{
  82:Drivers/BSP/STM32F769I-Discovery/stm32f769i_discovery_sdram.c ****   */ 
  83:Drivers/BSP/STM32F769I-Discovery/stm32f769i_discovery_sdram.c **** 
  84:Drivers/BSP/STM32F769I-Discovery/stm32f769i_discovery_sdram.c **** /** @defgroup STM32F769I_DISCOVERY_SDRAM_Private_Types_Definitions SDRAM Private Types Definitions
  85:Drivers/BSP/STM32F769I-Discovery/stm32f769i_discovery_sdram.c ****   * @{
  86:Drivers/BSP/STM32F769I-Discovery/stm32f769i_discovery_sdram.c ****   */ 
  87:Drivers/BSP/STM32F769I-Discovery/stm32f769i_discovery_sdram.c **** /**
ARM GAS  /var/folders/n6/c271nzx11xl4r4_m7sqjlt0m0000gn/T//cchiqZf1.s 			page 3


  88:Drivers/BSP/STM32F769I-Discovery/stm32f769i_discovery_sdram.c ****   * @}
  89:Drivers/BSP/STM32F769I-Discovery/stm32f769i_discovery_sdram.c ****   */
  90:Drivers/BSP/STM32F769I-Discovery/stm32f769i_discovery_sdram.c **** 
  91:Drivers/BSP/STM32F769I-Discovery/stm32f769i_discovery_sdram.c **** /** @defgroup STM32F769I_DISCOVERY_SDRAM_Private_Defines SDRAM Private Defines
  92:Drivers/BSP/STM32F769I-Discovery/stm32f769i_discovery_sdram.c ****   * @{
  93:Drivers/BSP/STM32F769I-Discovery/stm32f769i_discovery_sdram.c ****   */
  94:Drivers/BSP/STM32F769I-Discovery/stm32f769i_discovery_sdram.c **** /**
  95:Drivers/BSP/STM32F769I-Discovery/stm32f769i_discovery_sdram.c ****   * @}
  96:Drivers/BSP/STM32F769I-Discovery/stm32f769i_discovery_sdram.c ****   */
  97:Drivers/BSP/STM32F769I-Discovery/stm32f769i_discovery_sdram.c **** 
  98:Drivers/BSP/STM32F769I-Discovery/stm32f769i_discovery_sdram.c **** /** @defgroup STM32F769I_DISCOVERY_SDRAM_Private_Macros SDRAM Private Macros
  99:Drivers/BSP/STM32F769I-Discovery/stm32f769i_discovery_sdram.c ****   * @{
 100:Drivers/BSP/STM32F769I-Discovery/stm32f769i_discovery_sdram.c ****   */  
 101:Drivers/BSP/STM32F769I-Discovery/stm32f769i_discovery_sdram.c **** /**
 102:Drivers/BSP/STM32F769I-Discovery/stm32f769i_discovery_sdram.c ****   * @}
 103:Drivers/BSP/STM32F769I-Discovery/stm32f769i_discovery_sdram.c ****   */
 104:Drivers/BSP/STM32F769I-Discovery/stm32f769i_discovery_sdram.c **** 
 105:Drivers/BSP/STM32F769I-Discovery/stm32f769i_discovery_sdram.c **** /** @defgroup STM32F769I_DISCOVERY_SDRAM_Private_Variables SDRAM Private Variables
 106:Drivers/BSP/STM32F769I-Discovery/stm32f769i_discovery_sdram.c ****   * @{
 107:Drivers/BSP/STM32F769I-Discovery/stm32f769i_discovery_sdram.c ****   */       
 108:Drivers/BSP/STM32F769I-Discovery/stm32f769i_discovery_sdram.c **** SDRAM_HandleTypeDef sdramHandle;
 109:Drivers/BSP/STM32F769I-Discovery/stm32f769i_discovery_sdram.c **** static FMC_SDRAM_TimingTypeDef Timing;
 110:Drivers/BSP/STM32F769I-Discovery/stm32f769i_discovery_sdram.c **** static FMC_SDRAM_CommandTypeDef Command;
 111:Drivers/BSP/STM32F769I-Discovery/stm32f769i_discovery_sdram.c **** /**
 112:Drivers/BSP/STM32F769I-Discovery/stm32f769i_discovery_sdram.c ****   * @}
 113:Drivers/BSP/STM32F769I-Discovery/stm32f769i_discovery_sdram.c ****   */ 
 114:Drivers/BSP/STM32F769I-Discovery/stm32f769i_discovery_sdram.c **** 
 115:Drivers/BSP/STM32F769I-Discovery/stm32f769i_discovery_sdram.c **** /** @defgroup STM32F769I_DISCOVERY_SDRAM_Private_Function_Prototypes SDRAM Private Function Prototy
 116:Drivers/BSP/STM32F769I-Discovery/stm32f769i_discovery_sdram.c ****   * @{
 117:Drivers/BSP/STM32F769I-Discovery/stm32f769i_discovery_sdram.c ****   */ 
 118:Drivers/BSP/STM32F769I-Discovery/stm32f769i_discovery_sdram.c **** /**
 119:Drivers/BSP/STM32F769I-Discovery/stm32f769i_discovery_sdram.c ****   * @}
 120:Drivers/BSP/STM32F769I-Discovery/stm32f769i_discovery_sdram.c ****   */
 121:Drivers/BSP/STM32F769I-Discovery/stm32f769i_discovery_sdram.c ****     
 122:Drivers/BSP/STM32F769I-Discovery/stm32f769i_discovery_sdram.c **** /** @defgroup STM32F769I_DISCOVERY_SDRAM_Private_Functions SDRAM Private Functions
 123:Drivers/BSP/STM32F769I-Discovery/stm32f769i_discovery_sdram.c ****   * @{
 124:Drivers/BSP/STM32F769I-Discovery/stm32f769i_discovery_sdram.c ****   */ 
 125:Drivers/BSP/STM32F769I-Discovery/stm32f769i_discovery_sdram.c **** 
 126:Drivers/BSP/STM32F769I-Discovery/stm32f769i_discovery_sdram.c **** /**
 127:Drivers/BSP/STM32F769I-Discovery/stm32f769i_discovery_sdram.c ****   * @brief  Initializes the SDRAM device.
 128:Drivers/BSP/STM32F769I-Discovery/stm32f769i_discovery_sdram.c ****   * @retval SDRAM status
 129:Drivers/BSP/STM32F769I-Discovery/stm32f769i_discovery_sdram.c ****   */
 130:Drivers/BSP/STM32F769I-Discovery/stm32f769i_discovery_sdram.c **** uint8_t BSP_SDRAM_Init(void)
 131:Drivers/BSP/STM32F769I-Discovery/stm32f769i_discovery_sdram.c **** { 
 132:Drivers/BSP/STM32F769I-Discovery/stm32f769i_discovery_sdram.c ****   static uint8_t sdramstatus = SDRAM_ERROR;
 133:Drivers/BSP/STM32F769I-Discovery/stm32f769i_discovery_sdram.c ****   /* SDRAM device configuration */
 134:Drivers/BSP/STM32F769I-Discovery/stm32f769i_discovery_sdram.c ****   sdramHandle.Instance = FMC_SDRAM_DEVICE;
 135:Drivers/BSP/STM32F769I-Discovery/stm32f769i_discovery_sdram.c ****     
 136:Drivers/BSP/STM32F769I-Discovery/stm32f769i_discovery_sdram.c ****   /* Timing configuration for 100Mhz as SDRAM clock frequency (System clock is up to 200Mhz) */
 137:Drivers/BSP/STM32F769I-Discovery/stm32f769i_discovery_sdram.c ****   Timing.LoadToActiveDelay    = 2;
 138:Drivers/BSP/STM32F769I-Discovery/stm32f769i_discovery_sdram.c ****   Timing.ExitSelfRefreshDelay = 7;
 139:Drivers/BSP/STM32F769I-Discovery/stm32f769i_discovery_sdram.c ****   Timing.SelfRefreshTime      = 4;
 140:Drivers/BSP/STM32F769I-Discovery/stm32f769i_discovery_sdram.c ****   Timing.RowCycleDelay        = 7;
 141:Drivers/BSP/STM32F769I-Discovery/stm32f769i_discovery_sdram.c ****   Timing.WriteRecoveryTime    = 2;
 142:Drivers/BSP/STM32F769I-Discovery/stm32f769i_discovery_sdram.c ****   Timing.RPDelay              = 2;
 143:Drivers/BSP/STM32F769I-Discovery/stm32f769i_discovery_sdram.c ****   Timing.RCDDelay             = 2;
 144:Drivers/BSP/STM32F769I-Discovery/stm32f769i_discovery_sdram.c ****   
ARM GAS  /var/folders/n6/c271nzx11xl4r4_m7sqjlt0m0000gn/T//cchiqZf1.s 			page 4


 145:Drivers/BSP/STM32F769I-Discovery/stm32f769i_discovery_sdram.c ****   sdramHandle.Init.SDBank             = FMC_SDRAM_BANK1;
 146:Drivers/BSP/STM32F769I-Discovery/stm32f769i_discovery_sdram.c ****   sdramHandle.Init.ColumnBitsNumber   = FMC_SDRAM_COLUMN_BITS_NUM_8;
 147:Drivers/BSP/STM32F769I-Discovery/stm32f769i_discovery_sdram.c ****   sdramHandle.Init.RowBitsNumber      = FMC_SDRAM_ROW_BITS_NUM_12;
 148:Drivers/BSP/STM32F769I-Discovery/stm32f769i_discovery_sdram.c ****   sdramHandle.Init.MemoryDataWidth    = SDRAM_MEMORY_WIDTH;
 149:Drivers/BSP/STM32F769I-Discovery/stm32f769i_discovery_sdram.c ****   sdramHandle.Init.InternalBankNumber = FMC_SDRAM_INTERN_BANKS_NUM_4;
 150:Drivers/BSP/STM32F769I-Discovery/stm32f769i_discovery_sdram.c ****   sdramHandle.Init.CASLatency         = FMC_SDRAM_CAS_LATENCY_3;
 151:Drivers/BSP/STM32F769I-Discovery/stm32f769i_discovery_sdram.c ****   sdramHandle.Init.WriteProtection    = FMC_SDRAM_WRITE_PROTECTION_DISABLE;
 152:Drivers/BSP/STM32F769I-Discovery/stm32f769i_discovery_sdram.c ****   sdramHandle.Init.SDClockPeriod      = SDCLOCK_PERIOD;
 153:Drivers/BSP/STM32F769I-Discovery/stm32f769i_discovery_sdram.c ****   sdramHandle.Init.ReadBurst          = FMC_SDRAM_RBURST_ENABLE;
 154:Drivers/BSP/STM32F769I-Discovery/stm32f769i_discovery_sdram.c ****   sdramHandle.Init.ReadPipeDelay      = FMC_SDRAM_RPIPE_DELAY_0;
 155:Drivers/BSP/STM32F769I-Discovery/stm32f769i_discovery_sdram.c ****   
 156:Drivers/BSP/STM32F769I-Discovery/stm32f769i_discovery_sdram.c ****   /* SDRAM controller initialization */
 157:Drivers/BSP/STM32F769I-Discovery/stm32f769i_discovery_sdram.c **** 
 158:Drivers/BSP/STM32F769I-Discovery/stm32f769i_discovery_sdram.c ****   BSP_SDRAM_MspInit(&sdramHandle, NULL); /* __weak function can be rewritten by the application */
 159:Drivers/BSP/STM32F769I-Discovery/stm32f769i_discovery_sdram.c **** 
 160:Drivers/BSP/STM32F769I-Discovery/stm32f769i_discovery_sdram.c ****   if(HAL_SDRAM_Init(&sdramHandle, &Timing) != HAL_OK)
 161:Drivers/BSP/STM32F769I-Discovery/stm32f769i_discovery_sdram.c ****   {
 162:Drivers/BSP/STM32F769I-Discovery/stm32f769i_discovery_sdram.c ****     sdramstatus = SDRAM_ERROR;
 163:Drivers/BSP/STM32F769I-Discovery/stm32f769i_discovery_sdram.c ****   }
 164:Drivers/BSP/STM32F769I-Discovery/stm32f769i_discovery_sdram.c ****   else
 165:Drivers/BSP/STM32F769I-Discovery/stm32f769i_discovery_sdram.c ****   {
 166:Drivers/BSP/STM32F769I-Discovery/stm32f769i_discovery_sdram.c ****     sdramstatus = SDRAM_OK;
 167:Drivers/BSP/STM32F769I-Discovery/stm32f769i_discovery_sdram.c ****   }
 168:Drivers/BSP/STM32F769I-Discovery/stm32f769i_discovery_sdram.c ****   
 169:Drivers/BSP/STM32F769I-Discovery/stm32f769i_discovery_sdram.c ****   /* SDRAM initialization sequence */
 170:Drivers/BSP/STM32F769I-Discovery/stm32f769i_discovery_sdram.c ****   BSP_SDRAM_Initialization_sequence(REFRESH_COUNT);
 171:Drivers/BSP/STM32F769I-Discovery/stm32f769i_discovery_sdram.c ****   
 172:Drivers/BSP/STM32F769I-Discovery/stm32f769i_discovery_sdram.c ****   return sdramstatus;
 173:Drivers/BSP/STM32F769I-Discovery/stm32f769i_discovery_sdram.c **** }
 174:Drivers/BSP/STM32F769I-Discovery/stm32f769i_discovery_sdram.c **** 
 175:Drivers/BSP/STM32F769I-Discovery/stm32f769i_discovery_sdram.c **** /**
 176:Drivers/BSP/STM32F769I-Discovery/stm32f769i_discovery_sdram.c ****   * @brief  DeInitializes the SDRAM device.
 177:Drivers/BSP/STM32F769I-Discovery/stm32f769i_discovery_sdram.c ****   * @retval SDRAM status
 178:Drivers/BSP/STM32F769I-Discovery/stm32f769i_discovery_sdram.c ****   */
 179:Drivers/BSP/STM32F769I-Discovery/stm32f769i_discovery_sdram.c **** uint8_t BSP_SDRAM_DeInit(void)
 180:Drivers/BSP/STM32F769I-Discovery/stm32f769i_discovery_sdram.c **** { 
 181:Drivers/BSP/STM32F769I-Discovery/stm32f769i_discovery_sdram.c ****   static uint8_t sdramstatus = SDRAM_ERROR;
 182:Drivers/BSP/STM32F769I-Discovery/stm32f769i_discovery_sdram.c ****   /* SDRAM device de-initialization */
 183:Drivers/BSP/STM32F769I-Discovery/stm32f769i_discovery_sdram.c ****   sdramHandle.Instance = FMC_SDRAM_DEVICE;
 184:Drivers/BSP/STM32F769I-Discovery/stm32f769i_discovery_sdram.c **** 
 185:Drivers/BSP/STM32F769I-Discovery/stm32f769i_discovery_sdram.c ****   if(HAL_SDRAM_DeInit(&sdramHandle) != HAL_OK)
 186:Drivers/BSP/STM32F769I-Discovery/stm32f769i_discovery_sdram.c ****   {
 187:Drivers/BSP/STM32F769I-Discovery/stm32f769i_discovery_sdram.c ****     sdramstatus = SDRAM_ERROR;
 188:Drivers/BSP/STM32F769I-Discovery/stm32f769i_discovery_sdram.c ****   }
 189:Drivers/BSP/STM32F769I-Discovery/stm32f769i_discovery_sdram.c ****   else
 190:Drivers/BSP/STM32F769I-Discovery/stm32f769i_discovery_sdram.c ****   {
 191:Drivers/BSP/STM32F769I-Discovery/stm32f769i_discovery_sdram.c ****     sdramstatus = SDRAM_OK;
 192:Drivers/BSP/STM32F769I-Discovery/stm32f769i_discovery_sdram.c ****   }
 193:Drivers/BSP/STM32F769I-Discovery/stm32f769i_discovery_sdram.c ****   
 194:Drivers/BSP/STM32F769I-Discovery/stm32f769i_discovery_sdram.c ****   /* SDRAM controller de-initialization */
 195:Drivers/BSP/STM32F769I-Discovery/stm32f769i_discovery_sdram.c ****   BSP_SDRAM_MspDeInit(&sdramHandle, NULL);
 196:Drivers/BSP/STM32F769I-Discovery/stm32f769i_discovery_sdram.c ****   
 197:Drivers/BSP/STM32F769I-Discovery/stm32f769i_discovery_sdram.c ****   return sdramstatus;
 198:Drivers/BSP/STM32F769I-Discovery/stm32f769i_discovery_sdram.c **** }
 199:Drivers/BSP/STM32F769I-Discovery/stm32f769i_discovery_sdram.c **** 
 200:Drivers/BSP/STM32F769I-Discovery/stm32f769i_discovery_sdram.c **** /**
 201:Drivers/BSP/STM32F769I-Discovery/stm32f769i_discovery_sdram.c ****   * @brief  Programs the SDRAM device.
ARM GAS  /var/folders/n6/c271nzx11xl4r4_m7sqjlt0m0000gn/T//cchiqZf1.s 			page 5


 202:Drivers/BSP/STM32F769I-Discovery/stm32f769i_discovery_sdram.c ****   * @param  RefreshCount: SDRAM refresh counter value 
 203:Drivers/BSP/STM32F769I-Discovery/stm32f769i_discovery_sdram.c ****   * @retval None
 204:Drivers/BSP/STM32F769I-Discovery/stm32f769i_discovery_sdram.c ****   */
 205:Drivers/BSP/STM32F769I-Discovery/stm32f769i_discovery_sdram.c **** void BSP_SDRAM_Initialization_sequence(uint32_t RefreshCount)
 206:Drivers/BSP/STM32F769I-Discovery/stm32f769i_discovery_sdram.c **** {
  29              		.loc 1 206 1 view -0
  30              		.cfi_startproc
  31              		@ args = 0, pretend = 0, frame = 8
  32              		@ frame_needed = 0, uses_anonymous_args = 0
  33              		.loc 1 206 1 is_stmt 0 view .LVU1
  34 0000 2DE9F043 		push	{r4, r5, r6, r7, r8, r9, lr}
  35              		.cfi_def_cfa_offset 28
  36              		.cfi_offset 4, -28
  37              		.cfi_offset 5, -24
  38              		.cfi_offset 6, -20
  39              		.cfi_offset 7, -16
  40              		.cfi_offset 8, -12
  41              		.cfi_offset 9, -8
  42              		.cfi_offset 14, -4
  43 0004 83B0     		sub	sp, sp, #12
  44              		.cfi_def_cfa_offset 40
  45 0006 8146     		mov	r9, r0
 207:Drivers/BSP/STM32F769I-Discovery/stm32f769i_discovery_sdram.c ****   __IO uint32_t tmpmrd = 0;
  46              		.loc 1 207 3 is_stmt 1 view .LVU2
  47              		.loc 1 207 17 is_stmt 0 view .LVU3
  48 0008 4FF00008 		mov	r8, #0
  49 000c CDF80480 		str	r8, [sp, #4]
 208:Drivers/BSP/STM32F769I-Discovery/stm32f769i_discovery_sdram.c ****   
 209:Drivers/BSP/STM32F769I-Discovery/stm32f769i_discovery_sdram.c ****   /* Step 1: Configure a clock configuration enable command */
 210:Drivers/BSP/STM32F769I-Discovery/stm32f769i_discovery_sdram.c ****   Command.CommandMode            = FMC_SDRAM_CMD_CLK_ENABLE;
  50              		.loc 1 210 3 is_stmt 1 view .LVU4
  51              		.loc 1 210 34 is_stmt 0 view .LVU5
  52 0010 204C     		ldr	r4, .L3
  53 0012 0126     		movs	r6, #1
  54 0014 2660     		str	r6, [r4]
 211:Drivers/BSP/STM32F769I-Discovery/stm32f769i_discovery_sdram.c ****   Command.CommandTarget          = FMC_SDRAM_CMD_TARGET_BANK1;
  55              		.loc 1 211 3 is_stmt 1 view .LVU6
  56              		.loc 1 211 34 is_stmt 0 view .LVU7
  57 0016 1027     		movs	r7, #16
  58 0018 6760     		str	r7, [r4, #4]
 212:Drivers/BSP/STM32F769I-Discovery/stm32f769i_discovery_sdram.c ****   Command.AutoRefreshNumber      = 1;
  59              		.loc 1 212 3 is_stmt 1 view .LVU8
  60              		.loc 1 212 34 is_stmt 0 view .LVU9
  61 001a A660     		str	r6, [r4, #8]
 213:Drivers/BSP/STM32F769I-Discovery/stm32f769i_discovery_sdram.c ****   Command.ModeRegisterDefinition = 0;
  62              		.loc 1 213 3 is_stmt 1 view .LVU10
  63              		.loc 1 213 34 is_stmt 0 view .LVU11
  64 001c C4F80C80 		str	r8, [r4, #12]
 214:Drivers/BSP/STM32F769I-Discovery/stm32f769i_discovery_sdram.c **** 
 215:Drivers/BSP/STM32F769I-Discovery/stm32f769i_discovery_sdram.c ****   /* Send the command */
 216:Drivers/BSP/STM32F769I-Discovery/stm32f769i_discovery_sdram.c ****   HAL_SDRAM_SendCommand(&sdramHandle, &Command, SDRAM_TIMEOUT);
  65              		.loc 1 216 3 is_stmt 1 view .LVU12
  66 0020 1D4D     		ldr	r5, .L3+4
  67 0022 4FF6FF72 		movw	r2, #65535
  68 0026 2146     		mov	r1, r4
  69 0028 2846     		mov	r0, r5
  70              	.LVL1:
ARM GAS  /var/folders/n6/c271nzx11xl4r4_m7sqjlt0m0000gn/T//cchiqZf1.s 			page 6


  71              		.loc 1 216 3 is_stmt 0 view .LVU13
  72 002a FFF7FEFF 		bl	HAL_SDRAM_SendCommand
  73              	.LVL2:
 217:Drivers/BSP/STM32F769I-Discovery/stm32f769i_discovery_sdram.c **** 
 218:Drivers/BSP/STM32F769I-Discovery/stm32f769i_discovery_sdram.c ****   /* Step 2: Insert 100 us minimum delay */ 
 219:Drivers/BSP/STM32F769I-Discovery/stm32f769i_discovery_sdram.c ****   /* Inserted delay is equal to 1 ms due to systick time base unit (ms) */
 220:Drivers/BSP/STM32F769I-Discovery/stm32f769i_discovery_sdram.c ****   HAL_Delay(1);
  74              		.loc 1 220 3 is_stmt 1 view .LVU14
  75 002e 3046     		mov	r0, r6
  76 0030 FFF7FEFF 		bl	HAL_Delay
  77              	.LVL3:
 221:Drivers/BSP/STM32F769I-Discovery/stm32f769i_discovery_sdram.c ****     
 222:Drivers/BSP/STM32F769I-Discovery/stm32f769i_discovery_sdram.c ****   /* Step 3: Configure a PALL (precharge all) command */ 
 223:Drivers/BSP/STM32F769I-Discovery/stm32f769i_discovery_sdram.c ****   Command.CommandMode            = FMC_SDRAM_CMD_PALL;
  78              		.loc 1 223 3 view .LVU15
  79              		.loc 1 223 34 is_stmt 0 view .LVU16
  80 0034 0223     		movs	r3, #2
  81 0036 2360     		str	r3, [r4]
 224:Drivers/BSP/STM32F769I-Discovery/stm32f769i_discovery_sdram.c ****   Command.CommandTarget          = FMC_SDRAM_CMD_TARGET_BANK1;
  82              		.loc 1 224 3 is_stmt 1 view .LVU17
  83              		.loc 1 224 34 is_stmt 0 view .LVU18
  84 0038 6760     		str	r7, [r4, #4]
 225:Drivers/BSP/STM32F769I-Discovery/stm32f769i_discovery_sdram.c ****   Command.AutoRefreshNumber      = 1;
  85              		.loc 1 225 3 is_stmt 1 view .LVU19
  86              		.loc 1 225 34 is_stmt 0 view .LVU20
  87 003a A660     		str	r6, [r4, #8]
 226:Drivers/BSP/STM32F769I-Discovery/stm32f769i_discovery_sdram.c ****   Command.ModeRegisterDefinition = 0;
  88              		.loc 1 226 3 is_stmt 1 view .LVU21
  89              		.loc 1 226 34 is_stmt 0 view .LVU22
  90 003c C4F80C80 		str	r8, [r4, #12]
 227:Drivers/BSP/STM32F769I-Discovery/stm32f769i_discovery_sdram.c **** 
 228:Drivers/BSP/STM32F769I-Discovery/stm32f769i_discovery_sdram.c ****   /* Send the command */
 229:Drivers/BSP/STM32F769I-Discovery/stm32f769i_discovery_sdram.c ****   HAL_SDRAM_SendCommand(&sdramHandle, &Command, SDRAM_TIMEOUT);  
  91              		.loc 1 229 3 is_stmt 1 view .LVU23
  92 0040 4FF6FF72 		movw	r2, #65535
  93 0044 2146     		mov	r1, r4
  94 0046 2846     		mov	r0, r5
  95 0048 FFF7FEFF 		bl	HAL_SDRAM_SendCommand
  96              	.LVL4:
 230:Drivers/BSP/STM32F769I-Discovery/stm32f769i_discovery_sdram.c ****   
 231:Drivers/BSP/STM32F769I-Discovery/stm32f769i_discovery_sdram.c ****   /* Step 4: Configure an Auto Refresh command */ 
 232:Drivers/BSP/STM32F769I-Discovery/stm32f769i_discovery_sdram.c ****   Command.CommandMode            = FMC_SDRAM_CMD_AUTOREFRESH_MODE;
  97              		.loc 1 232 3 view .LVU24
  98              		.loc 1 232 34 is_stmt 0 view .LVU25
  99 004c 0323     		movs	r3, #3
 100 004e 2360     		str	r3, [r4]
 233:Drivers/BSP/STM32F769I-Discovery/stm32f769i_discovery_sdram.c ****   Command.CommandTarget          = FMC_SDRAM_CMD_TARGET_BANK1;
 101              		.loc 1 233 3 is_stmt 1 view .LVU26
 102              		.loc 1 233 34 is_stmt 0 view .LVU27
 103 0050 6760     		str	r7, [r4, #4]
 234:Drivers/BSP/STM32F769I-Discovery/stm32f769i_discovery_sdram.c ****   Command.AutoRefreshNumber      = 8;
 104              		.loc 1 234 3 is_stmt 1 view .LVU28
 105              		.loc 1 234 34 is_stmt 0 view .LVU29
 106 0052 0823     		movs	r3, #8
 107 0054 A360     		str	r3, [r4, #8]
 235:Drivers/BSP/STM32F769I-Discovery/stm32f769i_discovery_sdram.c ****   Command.ModeRegisterDefinition = 0;
 108              		.loc 1 235 3 is_stmt 1 view .LVU30
ARM GAS  /var/folders/n6/c271nzx11xl4r4_m7sqjlt0m0000gn/T//cchiqZf1.s 			page 7


 109              		.loc 1 235 34 is_stmt 0 view .LVU31
 110 0056 C4F80C80 		str	r8, [r4, #12]
 236:Drivers/BSP/STM32F769I-Discovery/stm32f769i_discovery_sdram.c **** 
 237:Drivers/BSP/STM32F769I-Discovery/stm32f769i_discovery_sdram.c ****   /* Send the command */
 238:Drivers/BSP/STM32F769I-Discovery/stm32f769i_discovery_sdram.c ****   HAL_SDRAM_SendCommand(&sdramHandle, &Command, SDRAM_TIMEOUT);
 111              		.loc 1 238 3 is_stmt 1 view .LVU32
 112 005a 4FF6FF72 		movw	r2, #65535
 113 005e 2146     		mov	r1, r4
 114 0060 2846     		mov	r0, r5
 115 0062 FFF7FEFF 		bl	HAL_SDRAM_SendCommand
 116              	.LVL5:
 239:Drivers/BSP/STM32F769I-Discovery/stm32f769i_discovery_sdram.c ****   
 240:Drivers/BSP/STM32F769I-Discovery/stm32f769i_discovery_sdram.c ****   /* Step 5: Program the external memory mode register */
 241:Drivers/BSP/STM32F769I-Discovery/stm32f769i_discovery_sdram.c ****   tmpmrd = (uint32_t)SDRAM_MODEREG_BURST_LENGTH_1          |\
 117              		.loc 1 241 3 view .LVU33
 118              		.loc 1 241 10 is_stmt 0 view .LVU34
 119 0066 4FF40C73 		mov	r3, #560
 120 006a 0193     		str	r3, [sp, #4]
 242:Drivers/BSP/STM32F769I-Discovery/stm32f769i_discovery_sdram.c ****                      SDRAM_MODEREG_BURST_TYPE_SEQUENTIAL   |\
 243:Drivers/BSP/STM32F769I-Discovery/stm32f769i_discovery_sdram.c ****                      SDRAM_MODEREG_CAS_LATENCY_3           |\
 244:Drivers/BSP/STM32F769I-Discovery/stm32f769i_discovery_sdram.c ****                      SDRAM_MODEREG_OPERATING_MODE_STANDARD |\
 245:Drivers/BSP/STM32F769I-Discovery/stm32f769i_discovery_sdram.c ****                      SDRAM_MODEREG_WRITEBURST_MODE_SINGLE;
 246:Drivers/BSP/STM32F769I-Discovery/stm32f769i_discovery_sdram.c ****   
 247:Drivers/BSP/STM32F769I-Discovery/stm32f769i_discovery_sdram.c ****   Command.CommandMode            = FMC_SDRAM_CMD_LOAD_MODE;
 121              		.loc 1 247 3 is_stmt 1 view .LVU35
 122              		.loc 1 247 34 is_stmt 0 view .LVU36
 123 006c 0423     		movs	r3, #4
 124 006e 2360     		str	r3, [r4]
 248:Drivers/BSP/STM32F769I-Discovery/stm32f769i_discovery_sdram.c ****   Command.CommandTarget          = FMC_SDRAM_CMD_TARGET_BANK1;
 125              		.loc 1 248 3 is_stmt 1 view .LVU37
 126              		.loc 1 248 34 is_stmt 0 view .LVU38
 127 0070 6760     		str	r7, [r4, #4]
 249:Drivers/BSP/STM32F769I-Discovery/stm32f769i_discovery_sdram.c ****   Command.AutoRefreshNumber      = 1;
 128              		.loc 1 249 3 is_stmt 1 view .LVU39
 129              		.loc 1 249 34 is_stmt 0 view .LVU40
 130 0072 A660     		str	r6, [r4, #8]
 250:Drivers/BSP/STM32F769I-Discovery/stm32f769i_discovery_sdram.c ****   Command.ModeRegisterDefinition = tmpmrd;
 131              		.loc 1 250 3 is_stmt 1 view .LVU41
 132              		.loc 1 250 34 is_stmt 0 view .LVU42
 133 0074 019B     		ldr	r3, [sp, #4]
 134 0076 E360     		str	r3, [r4, #12]
 251:Drivers/BSP/STM32F769I-Discovery/stm32f769i_discovery_sdram.c **** 
 252:Drivers/BSP/STM32F769I-Discovery/stm32f769i_discovery_sdram.c ****   /* Send the command */
 253:Drivers/BSP/STM32F769I-Discovery/stm32f769i_discovery_sdram.c ****   HAL_SDRAM_SendCommand(&sdramHandle, &Command, SDRAM_TIMEOUT);
 135              		.loc 1 253 3 is_stmt 1 view .LVU43
 136 0078 4FF6FF72 		movw	r2, #65535
 137 007c 2146     		mov	r1, r4
 138 007e 2846     		mov	r0, r5
 139 0080 FFF7FEFF 		bl	HAL_SDRAM_SendCommand
 140              	.LVL6:
 254:Drivers/BSP/STM32F769I-Discovery/stm32f769i_discovery_sdram.c ****   
 255:Drivers/BSP/STM32F769I-Discovery/stm32f769i_discovery_sdram.c ****   /* Step 6: Set the refresh rate counter */
 256:Drivers/BSP/STM32F769I-Discovery/stm32f769i_discovery_sdram.c ****   /* Set the device refresh rate */
 257:Drivers/BSP/STM32F769I-Discovery/stm32f769i_discovery_sdram.c ****   HAL_SDRAM_ProgramRefreshRate(&sdramHandle, RefreshCount); 
 141              		.loc 1 257 3 view .LVU44
 142 0084 4946     		mov	r1, r9
 143 0086 2846     		mov	r0, r5
ARM GAS  /var/folders/n6/c271nzx11xl4r4_m7sqjlt0m0000gn/T//cchiqZf1.s 			page 8


 144 0088 FFF7FEFF 		bl	HAL_SDRAM_ProgramRefreshRate
 145              	.LVL7:
 258:Drivers/BSP/STM32F769I-Discovery/stm32f769i_discovery_sdram.c **** }
 146              		.loc 1 258 1 is_stmt 0 view .LVU45
 147 008c 03B0     		add	sp, sp, #12
 148              		.cfi_def_cfa_offset 28
 149              		@ sp needed
 150 008e BDE8F083 		pop	{r4, r5, r6, r7, r8, r9, pc}
 151              	.LVL8:
 152              	.L4:
 153              		.loc 1 258 1 view .LVU46
 154 0092 00BF     		.align	2
 155              	.L3:
 156 0094 00000000 		.word	Command
 157 0098 00000000 		.word	sdramHandle
 158              		.cfi_endproc
 159              	.LFE143:
 161              		.section	.text.BSP_SDRAM_ReadData,"ax",%progbits
 162              		.align	1
 163              		.global	BSP_SDRAM_ReadData
 164              		.syntax unified
 165              		.thumb
 166              		.thumb_func
 168              	BSP_SDRAM_ReadData:
 169              	.LVL9:
 170              	.LFB144:
 259:Drivers/BSP/STM32F769I-Discovery/stm32f769i_discovery_sdram.c **** 
 260:Drivers/BSP/STM32F769I-Discovery/stm32f769i_discovery_sdram.c **** /**
 261:Drivers/BSP/STM32F769I-Discovery/stm32f769i_discovery_sdram.c ****   * @brief  Reads an amount of data from the SDRAM memory in polling mode.
 262:Drivers/BSP/STM32F769I-Discovery/stm32f769i_discovery_sdram.c ****   * @param  uwStartAddress: Read start address
 263:Drivers/BSP/STM32F769I-Discovery/stm32f769i_discovery_sdram.c ****   * @param  pData: Pointer to data to be read  
 264:Drivers/BSP/STM32F769I-Discovery/stm32f769i_discovery_sdram.c ****   * @param  uwDataSize: Size of read data from the memory
 265:Drivers/BSP/STM32F769I-Discovery/stm32f769i_discovery_sdram.c ****   * @retval SDRAM status
 266:Drivers/BSP/STM32F769I-Discovery/stm32f769i_discovery_sdram.c ****   */
 267:Drivers/BSP/STM32F769I-Discovery/stm32f769i_discovery_sdram.c **** uint8_t BSP_SDRAM_ReadData(uint32_t uwStartAddress, uint32_t *pData, uint32_t uwDataSize)
 268:Drivers/BSP/STM32F769I-Discovery/stm32f769i_discovery_sdram.c **** {
 171              		.loc 1 268 1 is_stmt 1 view -0
 172              		.cfi_startproc
 173              		@ args = 0, pretend = 0, frame = 0
 174              		@ frame_needed = 0, uses_anonymous_args = 0
 175              		.loc 1 268 1 is_stmt 0 view .LVU48
 176 0000 08B5     		push	{r3, lr}
 177              		.cfi_def_cfa_offset 8
 178              		.cfi_offset 3, -8
 179              		.cfi_offset 14, -4
 180 0002 1346     		mov	r3, r2
 269:Drivers/BSP/STM32F769I-Discovery/stm32f769i_discovery_sdram.c ****   if(HAL_SDRAM_Read_32b(&sdramHandle, (uint32_t *)uwStartAddress, pData, uwDataSize) != HAL_OK)
 181              		.loc 1 269 3 is_stmt 1 view .LVU49
 182              		.loc 1 269 6 is_stmt 0 view .LVU50
 183 0004 0A46     		mov	r2, r1
 184              	.LVL10:
 185              		.loc 1 269 6 view .LVU51
 186 0006 0146     		mov	r1, r0
 187              	.LVL11:
 188              		.loc 1 269 6 view .LVU52
 189 0008 0248     		ldr	r0, .L8
 190              	.LVL12:
ARM GAS  /var/folders/n6/c271nzx11xl4r4_m7sqjlt0m0000gn/T//cchiqZf1.s 			page 9


 191              		.loc 1 269 6 view .LVU53
 192 000a FFF7FEFF 		bl	HAL_SDRAM_Read_32b
 193              	.LVL13:
 194              		.loc 1 269 5 discriminator 1 view .LVU54
 195 000e 00B1     		cbz	r0, .L6
 270:Drivers/BSP/STM32F769I-Discovery/stm32f769i_discovery_sdram.c ****   {
 271:Drivers/BSP/STM32F769I-Discovery/stm32f769i_discovery_sdram.c ****     return SDRAM_ERROR;
 196              		.loc 1 271 12 view .LVU55
 197 0010 0120     		movs	r0, #1
 198              	.L6:
 272:Drivers/BSP/STM32F769I-Discovery/stm32f769i_discovery_sdram.c ****   }
 273:Drivers/BSP/STM32F769I-Discovery/stm32f769i_discovery_sdram.c ****   else
 274:Drivers/BSP/STM32F769I-Discovery/stm32f769i_discovery_sdram.c ****   {
 275:Drivers/BSP/STM32F769I-Discovery/stm32f769i_discovery_sdram.c ****     return SDRAM_OK;
 276:Drivers/BSP/STM32F769I-Discovery/stm32f769i_discovery_sdram.c ****   } 
 277:Drivers/BSP/STM32F769I-Discovery/stm32f769i_discovery_sdram.c **** }
 199              		.loc 1 277 1 view .LVU56
 200 0012 08BD     		pop	{r3, pc}
 201              	.L9:
 202              		.align	2
 203              	.L8:
 204 0014 00000000 		.word	sdramHandle
 205              		.cfi_endproc
 206              	.LFE144:
 208              		.section	.text.BSP_SDRAM_ReadData_DMA,"ax",%progbits
 209              		.align	1
 210              		.global	BSP_SDRAM_ReadData_DMA
 211              		.syntax unified
 212              		.thumb
 213              		.thumb_func
 215              	BSP_SDRAM_ReadData_DMA:
 216              	.LVL14:
 217              	.LFB145:
 278:Drivers/BSP/STM32F769I-Discovery/stm32f769i_discovery_sdram.c **** 
 279:Drivers/BSP/STM32F769I-Discovery/stm32f769i_discovery_sdram.c **** /**
 280:Drivers/BSP/STM32F769I-Discovery/stm32f769i_discovery_sdram.c ****   * @brief  Reads an amount of data from the SDRAM memory in DMA mode.
 281:Drivers/BSP/STM32F769I-Discovery/stm32f769i_discovery_sdram.c ****   * @param  uwStartAddress: Read start address
 282:Drivers/BSP/STM32F769I-Discovery/stm32f769i_discovery_sdram.c ****   * @param  pData: Pointer to data to be read  
 283:Drivers/BSP/STM32F769I-Discovery/stm32f769i_discovery_sdram.c ****   * @param  uwDataSize: Size of read data from the memory
 284:Drivers/BSP/STM32F769I-Discovery/stm32f769i_discovery_sdram.c ****   * @retval SDRAM status
 285:Drivers/BSP/STM32F769I-Discovery/stm32f769i_discovery_sdram.c ****   */
 286:Drivers/BSP/STM32F769I-Discovery/stm32f769i_discovery_sdram.c **** uint8_t BSP_SDRAM_ReadData_DMA(uint32_t uwStartAddress, uint32_t *pData, uint32_t uwDataSize)
 287:Drivers/BSP/STM32F769I-Discovery/stm32f769i_discovery_sdram.c **** {
 218              		.loc 1 287 1 is_stmt 1 view -0
 219              		.cfi_startproc
 220              		@ args = 0, pretend = 0, frame = 0
 221              		@ frame_needed = 0, uses_anonymous_args = 0
 222              		.loc 1 287 1 is_stmt 0 view .LVU58
 223 0000 08B5     		push	{r3, lr}
 224              		.cfi_def_cfa_offset 8
 225              		.cfi_offset 3, -8
 226              		.cfi_offset 14, -4
 227 0002 1346     		mov	r3, r2
 288:Drivers/BSP/STM32F769I-Discovery/stm32f769i_discovery_sdram.c ****   if(HAL_SDRAM_Read_DMA(&sdramHandle, (uint32_t *)uwStartAddress, pData, uwDataSize) != HAL_OK)
 228              		.loc 1 288 3 is_stmt 1 view .LVU59
 229              		.loc 1 288 6 is_stmt 0 view .LVU60
 230 0004 0A46     		mov	r2, r1
ARM GAS  /var/folders/n6/c271nzx11xl4r4_m7sqjlt0m0000gn/T//cchiqZf1.s 			page 10


 231              	.LVL15:
 232              		.loc 1 288 6 view .LVU61
 233 0006 0146     		mov	r1, r0
 234              	.LVL16:
 235              		.loc 1 288 6 view .LVU62
 236 0008 0248     		ldr	r0, .L13
 237              	.LVL17:
 238              		.loc 1 288 6 view .LVU63
 239 000a FFF7FEFF 		bl	HAL_SDRAM_Read_DMA
 240              	.LVL18:
 241              		.loc 1 288 5 discriminator 1 view .LVU64
 242 000e 00B1     		cbz	r0, .L11
 289:Drivers/BSP/STM32F769I-Discovery/stm32f769i_discovery_sdram.c ****   {
 290:Drivers/BSP/STM32F769I-Discovery/stm32f769i_discovery_sdram.c ****     return SDRAM_ERROR;
 243              		.loc 1 290 12 view .LVU65
 244 0010 0120     		movs	r0, #1
 245              	.L11:
 291:Drivers/BSP/STM32F769I-Discovery/stm32f769i_discovery_sdram.c ****   }
 292:Drivers/BSP/STM32F769I-Discovery/stm32f769i_discovery_sdram.c ****   else
 293:Drivers/BSP/STM32F769I-Discovery/stm32f769i_discovery_sdram.c ****   {
 294:Drivers/BSP/STM32F769I-Discovery/stm32f769i_discovery_sdram.c ****     return SDRAM_OK;
 295:Drivers/BSP/STM32F769I-Discovery/stm32f769i_discovery_sdram.c ****   }     
 296:Drivers/BSP/STM32F769I-Discovery/stm32f769i_discovery_sdram.c **** }
 246              		.loc 1 296 1 view .LVU66
 247 0012 08BD     		pop	{r3, pc}
 248              	.L14:
 249              		.align	2
 250              	.L13:
 251 0014 00000000 		.word	sdramHandle
 252              		.cfi_endproc
 253              	.LFE145:
 255              		.section	.text.BSP_SDRAM_WriteData,"ax",%progbits
 256              		.align	1
 257              		.global	BSP_SDRAM_WriteData
 258              		.syntax unified
 259              		.thumb
 260              		.thumb_func
 262              	BSP_SDRAM_WriteData:
 263              	.LVL19:
 264              	.LFB146:
 297:Drivers/BSP/STM32F769I-Discovery/stm32f769i_discovery_sdram.c **** 
 298:Drivers/BSP/STM32F769I-Discovery/stm32f769i_discovery_sdram.c **** /**
 299:Drivers/BSP/STM32F769I-Discovery/stm32f769i_discovery_sdram.c ****   * @brief  Writes an amount of data to the SDRAM memory in polling mode.
 300:Drivers/BSP/STM32F769I-Discovery/stm32f769i_discovery_sdram.c ****   * @param  uwStartAddress: Write start address
 301:Drivers/BSP/STM32F769I-Discovery/stm32f769i_discovery_sdram.c ****   * @param  pData: Pointer to data to be written  
 302:Drivers/BSP/STM32F769I-Discovery/stm32f769i_discovery_sdram.c ****   * @param  uwDataSize: Size of written data from the memory
 303:Drivers/BSP/STM32F769I-Discovery/stm32f769i_discovery_sdram.c ****   * @retval SDRAM status
 304:Drivers/BSP/STM32F769I-Discovery/stm32f769i_discovery_sdram.c ****   */
 305:Drivers/BSP/STM32F769I-Discovery/stm32f769i_discovery_sdram.c **** uint8_t BSP_SDRAM_WriteData(uint32_t uwStartAddress, uint32_t *pData, uint32_t uwDataSize) 
 306:Drivers/BSP/STM32F769I-Discovery/stm32f769i_discovery_sdram.c **** {
 265              		.loc 1 306 1 is_stmt 1 view -0
 266              		.cfi_startproc
 267              		@ args = 0, pretend = 0, frame = 0
 268              		@ frame_needed = 0, uses_anonymous_args = 0
 269              		.loc 1 306 1 is_stmt 0 view .LVU68
 270 0000 08B5     		push	{r3, lr}
 271              		.cfi_def_cfa_offset 8
ARM GAS  /var/folders/n6/c271nzx11xl4r4_m7sqjlt0m0000gn/T//cchiqZf1.s 			page 11


 272              		.cfi_offset 3, -8
 273              		.cfi_offset 14, -4
 274 0002 1346     		mov	r3, r2
 307:Drivers/BSP/STM32F769I-Discovery/stm32f769i_discovery_sdram.c ****   if(HAL_SDRAM_Write_32b(&sdramHandle, (uint32_t *)uwStartAddress, pData, uwDataSize) != HAL_OK)
 275              		.loc 1 307 3 is_stmt 1 view .LVU69
 276              		.loc 1 307 6 is_stmt 0 view .LVU70
 277 0004 0A46     		mov	r2, r1
 278              	.LVL20:
 279              		.loc 1 307 6 view .LVU71
 280 0006 0146     		mov	r1, r0
 281              	.LVL21:
 282              		.loc 1 307 6 view .LVU72
 283 0008 0248     		ldr	r0, .L18
 284              	.LVL22:
 285              		.loc 1 307 6 view .LVU73
 286 000a FFF7FEFF 		bl	HAL_SDRAM_Write_32b
 287              	.LVL23:
 288              		.loc 1 307 5 discriminator 1 view .LVU74
 289 000e 00B1     		cbz	r0, .L16
 308:Drivers/BSP/STM32F769I-Discovery/stm32f769i_discovery_sdram.c ****   {
 309:Drivers/BSP/STM32F769I-Discovery/stm32f769i_discovery_sdram.c ****     return SDRAM_ERROR;
 290              		.loc 1 309 12 view .LVU75
 291 0010 0120     		movs	r0, #1
 292              	.L16:
 310:Drivers/BSP/STM32F769I-Discovery/stm32f769i_discovery_sdram.c ****   }
 311:Drivers/BSP/STM32F769I-Discovery/stm32f769i_discovery_sdram.c ****   else
 312:Drivers/BSP/STM32F769I-Discovery/stm32f769i_discovery_sdram.c ****   {
 313:Drivers/BSP/STM32F769I-Discovery/stm32f769i_discovery_sdram.c ****     return SDRAM_OK;
 314:Drivers/BSP/STM32F769I-Discovery/stm32f769i_discovery_sdram.c ****   }
 315:Drivers/BSP/STM32F769I-Discovery/stm32f769i_discovery_sdram.c **** }
 293              		.loc 1 315 1 view .LVU76
 294 0012 08BD     		pop	{r3, pc}
 295              	.L19:
 296              		.align	2
 297              	.L18:
 298 0014 00000000 		.word	sdramHandle
 299              		.cfi_endproc
 300              	.LFE146:
 302              		.section	.text.BSP_SDRAM_WriteData_DMA,"ax",%progbits
 303              		.align	1
 304              		.global	BSP_SDRAM_WriteData_DMA
 305              		.syntax unified
 306              		.thumb
 307              		.thumb_func
 309              	BSP_SDRAM_WriteData_DMA:
 310              	.LVL24:
 311              	.LFB147:
 316:Drivers/BSP/STM32F769I-Discovery/stm32f769i_discovery_sdram.c **** 
 317:Drivers/BSP/STM32F769I-Discovery/stm32f769i_discovery_sdram.c **** /**
 318:Drivers/BSP/STM32F769I-Discovery/stm32f769i_discovery_sdram.c ****   * @brief  Writes an amount of data to the SDRAM memory in DMA mode.
 319:Drivers/BSP/STM32F769I-Discovery/stm32f769i_discovery_sdram.c ****   * @param  uwStartAddress: Write start address
 320:Drivers/BSP/STM32F769I-Discovery/stm32f769i_discovery_sdram.c ****   * @param  pData: Pointer to data to be written  
 321:Drivers/BSP/STM32F769I-Discovery/stm32f769i_discovery_sdram.c ****   * @param  uwDataSize: Size of written data from the memory
 322:Drivers/BSP/STM32F769I-Discovery/stm32f769i_discovery_sdram.c ****   * @retval SDRAM status
 323:Drivers/BSP/STM32F769I-Discovery/stm32f769i_discovery_sdram.c ****   */
 324:Drivers/BSP/STM32F769I-Discovery/stm32f769i_discovery_sdram.c **** uint8_t BSP_SDRAM_WriteData_DMA(uint32_t uwStartAddress, uint32_t *pData, uint32_t uwDataSize) 
 325:Drivers/BSP/STM32F769I-Discovery/stm32f769i_discovery_sdram.c **** {
ARM GAS  /var/folders/n6/c271nzx11xl4r4_m7sqjlt0m0000gn/T//cchiqZf1.s 			page 12


 312              		.loc 1 325 1 is_stmt 1 view -0
 313              		.cfi_startproc
 314              		@ args = 0, pretend = 0, frame = 0
 315              		@ frame_needed = 0, uses_anonymous_args = 0
 316              		.loc 1 325 1 is_stmt 0 view .LVU78
 317 0000 08B5     		push	{r3, lr}
 318              		.cfi_def_cfa_offset 8
 319              		.cfi_offset 3, -8
 320              		.cfi_offset 14, -4
 321 0002 1346     		mov	r3, r2
 326:Drivers/BSP/STM32F769I-Discovery/stm32f769i_discovery_sdram.c ****   if(HAL_SDRAM_Write_DMA(&sdramHandle, (uint32_t *)uwStartAddress, pData, uwDataSize) != HAL_OK)
 322              		.loc 1 326 3 is_stmt 1 view .LVU79
 323              		.loc 1 326 6 is_stmt 0 view .LVU80
 324 0004 0A46     		mov	r2, r1
 325              	.LVL25:
 326              		.loc 1 326 6 view .LVU81
 327 0006 0146     		mov	r1, r0
 328              	.LVL26:
 329              		.loc 1 326 6 view .LVU82
 330 0008 0248     		ldr	r0, .L23
 331              	.LVL27:
 332              		.loc 1 326 6 view .LVU83
 333 000a FFF7FEFF 		bl	HAL_SDRAM_Write_DMA
 334              	.LVL28:
 335              		.loc 1 326 5 discriminator 1 view .LVU84
 336 000e 00B1     		cbz	r0, .L21
 327:Drivers/BSP/STM32F769I-Discovery/stm32f769i_discovery_sdram.c ****   {
 328:Drivers/BSP/STM32F769I-Discovery/stm32f769i_discovery_sdram.c ****     return SDRAM_ERROR;
 337              		.loc 1 328 12 view .LVU85
 338 0010 0120     		movs	r0, #1
 339              	.L21:
 329:Drivers/BSP/STM32F769I-Discovery/stm32f769i_discovery_sdram.c ****   }
 330:Drivers/BSP/STM32F769I-Discovery/stm32f769i_discovery_sdram.c ****   else
 331:Drivers/BSP/STM32F769I-Discovery/stm32f769i_discovery_sdram.c ****   {
 332:Drivers/BSP/STM32F769I-Discovery/stm32f769i_discovery_sdram.c ****     return SDRAM_OK;
 333:Drivers/BSP/STM32F769I-Discovery/stm32f769i_discovery_sdram.c ****   } 
 334:Drivers/BSP/STM32F769I-Discovery/stm32f769i_discovery_sdram.c **** }
 340              		.loc 1 334 1 view .LVU86
 341 0012 08BD     		pop	{r3, pc}
 342              	.L24:
 343              		.align	2
 344              	.L23:
 345 0014 00000000 		.word	sdramHandle
 346              		.cfi_endproc
 347              	.LFE147:
 349              		.section	.text.BSP_SDRAM_Sendcmd,"ax",%progbits
 350              		.align	1
 351              		.global	BSP_SDRAM_Sendcmd
 352              		.syntax unified
 353              		.thumb
 354              		.thumb_func
 356              	BSP_SDRAM_Sendcmd:
 357              	.LVL29:
 358              	.LFB148:
 335:Drivers/BSP/STM32F769I-Discovery/stm32f769i_discovery_sdram.c **** 
 336:Drivers/BSP/STM32F769I-Discovery/stm32f769i_discovery_sdram.c **** /**
 337:Drivers/BSP/STM32F769I-Discovery/stm32f769i_discovery_sdram.c ****   * @brief  Sends command to the SDRAM bank.
ARM GAS  /var/folders/n6/c271nzx11xl4r4_m7sqjlt0m0000gn/T//cchiqZf1.s 			page 13


 338:Drivers/BSP/STM32F769I-Discovery/stm32f769i_discovery_sdram.c ****   * @param  SdramCmd: Pointer to SDRAM command structure 
 339:Drivers/BSP/STM32F769I-Discovery/stm32f769i_discovery_sdram.c ****   * @retval SDRAM status
 340:Drivers/BSP/STM32F769I-Discovery/stm32f769i_discovery_sdram.c ****   */  
 341:Drivers/BSP/STM32F769I-Discovery/stm32f769i_discovery_sdram.c **** uint8_t BSP_SDRAM_Sendcmd(FMC_SDRAM_CommandTypeDef *SdramCmd)
 342:Drivers/BSP/STM32F769I-Discovery/stm32f769i_discovery_sdram.c **** {
 359              		.loc 1 342 1 is_stmt 1 view -0
 360              		.cfi_startproc
 361              		@ args = 0, pretend = 0, frame = 0
 362              		@ frame_needed = 0, uses_anonymous_args = 0
 363              		.loc 1 342 1 is_stmt 0 view .LVU88
 364 0000 08B5     		push	{r3, lr}
 365              		.cfi_def_cfa_offset 8
 366              		.cfi_offset 3, -8
 367              		.cfi_offset 14, -4
 368 0002 0146     		mov	r1, r0
 343:Drivers/BSP/STM32F769I-Discovery/stm32f769i_discovery_sdram.c ****   if(HAL_SDRAM_SendCommand(&sdramHandle, SdramCmd, SDRAM_TIMEOUT) != HAL_OK)
 369              		.loc 1 343 3 is_stmt 1 view .LVU89
 370              		.loc 1 343 6 is_stmt 0 view .LVU90
 371 0004 4FF6FF72 		movw	r2, #65535
 372 0008 0248     		ldr	r0, .L28
 373              	.LVL30:
 374              		.loc 1 343 6 view .LVU91
 375 000a FFF7FEFF 		bl	HAL_SDRAM_SendCommand
 376              	.LVL31:
 377              		.loc 1 343 5 discriminator 1 view .LVU92
 378 000e 00B1     		cbz	r0, .L26
 344:Drivers/BSP/STM32F769I-Discovery/stm32f769i_discovery_sdram.c ****   {
 345:Drivers/BSP/STM32F769I-Discovery/stm32f769i_discovery_sdram.c ****     return SDRAM_ERROR;
 379              		.loc 1 345 12 view .LVU93
 380 0010 0120     		movs	r0, #1
 381              	.L26:
 346:Drivers/BSP/STM32F769I-Discovery/stm32f769i_discovery_sdram.c ****   }
 347:Drivers/BSP/STM32F769I-Discovery/stm32f769i_discovery_sdram.c ****   else
 348:Drivers/BSP/STM32F769I-Discovery/stm32f769i_discovery_sdram.c ****   {
 349:Drivers/BSP/STM32F769I-Discovery/stm32f769i_discovery_sdram.c ****     return SDRAM_OK;
 350:Drivers/BSP/STM32F769I-Discovery/stm32f769i_discovery_sdram.c ****   }
 351:Drivers/BSP/STM32F769I-Discovery/stm32f769i_discovery_sdram.c **** }
 382              		.loc 1 351 1 view .LVU94
 383 0012 08BD     		pop	{r3, pc}
 384              	.L29:
 385              		.align	2
 386              	.L28:
 387 0014 00000000 		.word	sdramHandle
 388              		.cfi_endproc
 389              	.LFE148:
 391              		.section	.text.BSP_SDRAM_MspInit,"ax",%progbits
 392              		.align	1
 393              		.weak	BSP_SDRAM_MspInit
 394              		.syntax unified
 395              		.thumb
 396              		.thumb_func
 398              	BSP_SDRAM_MspInit:
 399              	.LVL32:
 400              	.LFB149:
 352:Drivers/BSP/STM32F769I-Discovery/stm32f769i_discovery_sdram.c **** 
 353:Drivers/BSP/STM32F769I-Discovery/stm32f769i_discovery_sdram.c **** /**
 354:Drivers/BSP/STM32F769I-Discovery/stm32f769i_discovery_sdram.c ****   * @brief  Initializes SDRAM MSP.
ARM GAS  /var/folders/n6/c271nzx11xl4r4_m7sqjlt0m0000gn/T//cchiqZf1.s 			page 14


 355:Drivers/BSP/STM32F769I-Discovery/stm32f769i_discovery_sdram.c ****   * @param  hsdram: SDRAM handle
 356:Drivers/BSP/STM32F769I-Discovery/stm32f769i_discovery_sdram.c ****   * @param  Params  
 357:Drivers/BSP/STM32F769I-Discovery/stm32f769i_discovery_sdram.c ****   * @retval None
 358:Drivers/BSP/STM32F769I-Discovery/stm32f769i_discovery_sdram.c ****   */
 359:Drivers/BSP/STM32F769I-Discovery/stm32f769i_discovery_sdram.c **** __weak void BSP_SDRAM_MspInit(SDRAM_HandleTypeDef  *hsdram, void *Params)
 360:Drivers/BSP/STM32F769I-Discovery/stm32f769i_discovery_sdram.c **** {  
 401              		.loc 1 360 1 is_stmt 1 view -0
 402              		.cfi_startproc
 403              		@ args = 0, pretend = 0, frame = 56
 404              		@ frame_needed = 0, uses_anonymous_args = 0
 405              		.loc 1 360 1 is_stmt 0 view .LVU96
 406 0000 F0B5     		push	{r4, r5, r6, r7, lr}
 407              		.cfi_def_cfa_offset 20
 408              		.cfi_offset 4, -20
 409              		.cfi_offset 5, -16
 410              		.cfi_offset 6, -12
 411              		.cfi_offset 7, -8
 412              		.cfi_offset 14, -4
 413 0002 8FB0     		sub	sp, sp, #60
 414              		.cfi_def_cfa_offset 80
 415 0004 0646     		mov	r6, r0
 361:Drivers/BSP/STM32F769I-Discovery/stm32f769i_discovery_sdram.c ****   static DMA_HandleTypeDef dma_handle;
 416              		.loc 1 361 3 is_stmt 1 view .LVU97
 362:Drivers/BSP/STM32F769I-Discovery/stm32f769i_discovery_sdram.c ****   GPIO_InitTypeDef gpio_init_structure;
 417              		.loc 1 362 3 view .LVU98
 363:Drivers/BSP/STM32F769I-Discovery/stm32f769i_discovery_sdram.c ****   
 364:Drivers/BSP/STM32F769I-Discovery/stm32f769i_discovery_sdram.c ****   /* Enable FMC clock */
 365:Drivers/BSP/STM32F769I-Discovery/stm32f769i_discovery_sdram.c ****   __HAL_RCC_FMC_CLK_ENABLE();
 418              		.loc 1 365 3 view .LVU99
 419              	.LBB2:
 420              		.loc 1 365 3 view .LVU100
 421              		.loc 1 365 3 view .LVU101
 422 0006 544B     		ldr	r3, .L32
 423 0008 9A6B     		ldr	r2, [r3, #56]
 424 000a 42F00102 		orr	r2, r2, #1
 425 000e 9A63     		str	r2, [r3, #56]
 426              		.loc 1 365 3 view .LVU102
 427 0010 9A6B     		ldr	r2, [r3, #56]
 428 0012 02F00102 		and	r2, r2, #1
 429 0016 0192     		str	r2, [sp, #4]
 430              		.loc 1 365 3 view .LVU103
 431 0018 019A     		ldr	r2, [sp, #4]
 432              	.LBE2:
 433              		.loc 1 365 3 view .LVU104
 366:Drivers/BSP/STM32F769I-Discovery/stm32f769i_discovery_sdram.c ****   
 367:Drivers/BSP/STM32F769I-Discovery/stm32f769i_discovery_sdram.c ****   /* Enable chosen DMAx clock */
 368:Drivers/BSP/STM32F769I-Discovery/stm32f769i_discovery_sdram.c ****   __DMAx_CLK_ENABLE();
 434              		.loc 1 368 3 view .LVU105
 435              	.LBB3:
 436              		.loc 1 368 3 view .LVU106
 437              		.loc 1 368 3 view .LVU107
 438 001a 1A6B     		ldr	r2, [r3, #48]
 439 001c 42F48002 		orr	r2, r2, #4194304
 440 0020 1A63     		str	r2, [r3, #48]
 441              		.loc 1 368 3 view .LVU108
 442 0022 1A6B     		ldr	r2, [r3, #48]
 443 0024 02F48002 		and	r2, r2, #4194304
ARM GAS  /var/folders/n6/c271nzx11xl4r4_m7sqjlt0m0000gn/T//cchiqZf1.s 			page 15


 444 0028 0292     		str	r2, [sp, #8]
 445              		.loc 1 368 3 view .LVU109
 446 002a 029A     		ldr	r2, [sp, #8]
 447              	.LBE3:
 448              		.loc 1 368 3 view .LVU110
 369:Drivers/BSP/STM32F769I-Discovery/stm32f769i_discovery_sdram.c **** 
 370:Drivers/BSP/STM32F769I-Discovery/stm32f769i_discovery_sdram.c ****   /* Enable GPIOs clock */
 371:Drivers/BSP/STM32F769I-Discovery/stm32f769i_discovery_sdram.c ****   __HAL_RCC_GPIOD_CLK_ENABLE();
 449              		.loc 1 371 3 view .LVU111
 450              	.LBB4:
 451              		.loc 1 371 3 view .LVU112
 452              		.loc 1 371 3 view .LVU113
 453 002c 1A6B     		ldr	r2, [r3, #48]
 454 002e 42F00802 		orr	r2, r2, #8
 455 0032 1A63     		str	r2, [r3, #48]
 456              		.loc 1 371 3 view .LVU114
 457 0034 1A6B     		ldr	r2, [r3, #48]
 458 0036 02F00802 		and	r2, r2, #8
 459 003a 0392     		str	r2, [sp, #12]
 460              		.loc 1 371 3 view .LVU115
 461 003c 039A     		ldr	r2, [sp, #12]
 462              	.LBE4:
 463              		.loc 1 371 3 view .LVU116
 372:Drivers/BSP/STM32F769I-Discovery/stm32f769i_discovery_sdram.c ****   __HAL_RCC_GPIOE_CLK_ENABLE();
 464              		.loc 1 372 3 view .LVU117
 465              	.LBB5:
 466              		.loc 1 372 3 view .LVU118
 467              		.loc 1 372 3 view .LVU119
 468 003e 1A6B     		ldr	r2, [r3, #48]
 469 0040 42F01002 		orr	r2, r2, #16
 470 0044 1A63     		str	r2, [r3, #48]
 471              		.loc 1 372 3 view .LVU120
 472 0046 1A6B     		ldr	r2, [r3, #48]
 473 0048 02F01002 		and	r2, r2, #16
 474 004c 0492     		str	r2, [sp, #16]
 475              		.loc 1 372 3 view .LVU121
 476 004e 049A     		ldr	r2, [sp, #16]
 477              	.LBE5:
 478              		.loc 1 372 3 view .LVU122
 373:Drivers/BSP/STM32F769I-Discovery/stm32f769i_discovery_sdram.c ****   __HAL_RCC_GPIOF_CLK_ENABLE();
 479              		.loc 1 373 3 view .LVU123
 480              	.LBB6:
 481              		.loc 1 373 3 view .LVU124
 482              		.loc 1 373 3 view .LVU125
 483 0050 1A6B     		ldr	r2, [r3, #48]
 484 0052 42F02002 		orr	r2, r2, #32
 485 0056 1A63     		str	r2, [r3, #48]
 486              		.loc 1 373 3 view .LVU126
 487 0058 1A6B     		ldr	r2, [r3, #48]
 488 005a 02F02002 		and	r2, r2, #32
 489 005e 0592     		str	r2, [sp, #20]
 490              		.loc 1 373 3 view .LVU127
 491 0060 059A     		ldr	r2, [sp, #20]
 492              	.LBE6:
 493              		.loc 1 373 3 view .LVU128
 374:Drivers/BSP/STM32F769I-Discovery/stm32f769i_discovery_sdram.c ****   __HAL_RCC_GPIOG_CLK_ENABLE();
 494              		.loc 1 374 3 view .LVU129
ARM GAS  /var/folders/n6/c271nzx11xl4r4_m7sqjlt0m0000gn/T//cchiqZf1.s 			page 16


 495              	.LBB7:
 496              		.loc 1 374 3 view .LVU130
 497              		.loc 1 374 3 view .LVU131
 498 0062 1A6B     		ldr	r2, [r3, #48]
 499 0064 42F04002 		orr	r2, r2, #64
 500 0068 1A63     		str	r2, [r3, #48]
 501              		.loc 1 374 3 view .LVU132
 502 006a 1A6B     		ldr	r2, [r3, #48]
 503 006c 02F04002 		and	r2, r2, #64
 504 0070 0692     		str	r2, [sp, #24]
 505              		.loc 1 374 3 view .LVU133
 506 0072 069A     		ldr	r2, [sp, #24]
 507              	.LBE7:
 508              		.loc 1 374 3 view .LVU134
 375:Drivers/BSP/STM32F769I-Discovery/stm32f769i_discovery_sdram.c ****   __HAL_RCC_GPIOH_CLK_ENABLE();
 509              		.loc 1 375 3 view .LVU135
 510              	.LBB8:
 511              		.loc 1 375 3 view .LVU136
 512              		.loc 1 375 3 view .LVU137
 513 0074 1A6B     		ldr	r2, [r3, #48]
 514 0076 42F08002 		orr	r2, r2, #128
 515 007a 1A63     		str	r2, [r3, #48]
 516              		.loc 1 375 3 view .LVU138
 517 007c 1A6B     		ldr	r2, [r3, #48]
 518 007e 02F08002 		and	r2, r2, #128
 519 0082 0792     		str	r2, [sp, #28]
 520              		.loc 1 375 3 view .LVU139
 521 0084 079A     		ldr	r2, [sp, #28]
 522              	.LBE8:
 523              		.loc 1 375 3 view .LVU140
 376:Drivers/BSP/STM32F769I-Discovery/stm32f769i_discovery_sdram.c ****   __HAL_RCC_GPIOI_CLK_ENABLE();
 524              		.loc 1 376 3 view .LVU141
 525              	.LBB9:
 526              		.loc 1 376 3 view .LVU142
 527              		.loc 1 376 3 view .LVU143
 528 0086 1A6B     		ldr	r2, [r3, #48]
 529 0088 42F48072 		orr	r2, r2, #256
 530 008c 1A63     		str	r2, [r3, #48]
 531              		.loc 1 376 3 view .LVU144
 532 008e 1B6B     		ldr	r3, [r3, #48]
 533 0090 03F48073 		and	r3, r3, #256
 534 0094 0893     		str	r3, [sp, #32]
 535              		.loc 1 376 3 view .LVU145
 536 0096 089B     		ldr	r3, [sp, #32]
 537              	.LBE9:
 538              		.loc 1 376 3 view .LVU146
 377:Drivers/BSP/STM32F769I-Discovery/stm32f769i_discovery_sdram.c ****   
 378:Drivers/BSP/STM32F769I-Discovery/stm32f769i_discovery_sdram.c ****   /* Common GPIO configuration */
 379:Drivers/BSP/STM32F769I-Discovery/stm32f769i_discovery_sdram.c ****   gpio_init_structure.Mode      = GPIO_MODE_AF_PP;
 539              		.loc 1 379 3 view .LVU147
 540              		.loc 1 379 33 is_stmt 0 view .LVU148
 541 0098 0223     		movs	r3, #2
 542 009a 0A93     		str	r3, [sp, #40]
 380:Drivers/BSP/STM32F769I-Discovery/stm32f769i_discovery_sdram.c ****   gpio_init_structure.Pull      = GPIO_PULLUP;
 543              		.loc 1 380 3 is_stmt 1 view .LVU149
 544              		.loc 1 380 33 is_stmt 0 view .LVU150
 545 009c 0123     		movs	r3, #1
ARM GAS  /var/folders/n6/c271nzx11xl4r4_m7sqjlt0m0000gn/T//cchiqZf1.s 			page 17


 546 009e 0B93     		str	r3, [sp, #44]
 381:Drivers/BSP/STM32F769I-Discovery/stm32f769i_discovery_sdram.c ****   gpio_init_structure.Speed     = GPIO_SPEED_HIGH;
 547              		.loc 1 381 3 is_stmt 1 view .LVU151
 548              		.loc 1 381 33 is_stmt 0 view .LVU152
 549 00a0 0327     		movs	r7, #3
 550 00a2 0C97     		str	r7, [sp, #48]
 382:Drivers/BSP/STM32F769I-Discovery/stm32f769i_discovery_sdram.c ****   gpio_init_structure.Alternate = GPIO_AF12_FMC;
 551              		.loc 1 382 3 is_stmt 1 view .LVU153
 552              		.loc 1 382 33 is_stmt 0 view .LVU154
 553 00a4 0C23     		movs	r3, #12
 554 00a6 0D93     		str	r3, [sp, #52]
 383:Drivers/BSP/STM32F769I-Discovery/stm32f769i_discovery_sdram.c ****   
 384:Drivers/BSP/STM32F769I-Discovery/stm32f769i_discovery_sdram.c ****   /* GPIOD configuration */
 385:Drivers/BSP/STM32F769I-Discovery/stm32f769i_discovery_sdram.c ****   gpio_init_structure.Pin   = GPIO_PIN_0 | GPIO_PIN_1 | GPIO_PIN_8| GPIO_PIN_9 | GPIO_PIN_10 |\
 555              		.loc 1 385 3 is_stmt 1 view .LVU155
 556              		.loc 1 385 29 is_stmt 0 view .LVU156
 557 00a8 4CF20373 		movw	r3, #50947
 558 00ac 0993     		str	r3, [sp, #36]
 386:Drivers/BSP/STM32F769I-Discovery/stm32f769i_discovery_sdram.c ****                               GPIO_PIN_14 | GPIO_PIN_15;
 387:Drivers/BSP/STM32F769I-Discovery/stm32f769i_discovery_sdram.c ****  
 388:Drivers/BSP/STM32F769I-Discovery/stm32f769i_discovery_sdram.c ****    
 389:Drivers/BSP/STM32F769I-Discovery/stm32f769i_discovery_sdram.c ****   HAL_GPIO_Init(GPIOD, &gpio_init_structure);
 559              		.loc 1 389 3 is_stmt 1 view .LVU157
 560 00ae 09A9     		add	r1, sp, #36
 561              	.LVL33:
 562              		.loc 1 389 3 is_stmt 0 view .LVU158
 563 00b0 2A48     		ldr	r0, .L32+4
 564              	.LVL34:
 565              		.loc 1 389 3 view .LVU159
 566 00b2 FFF7FEFF 		bl	HAL_GPIO_Init
 567              	.LVL35:
 390:Drivers/BSP/STM32F769I-Discovery/stm32f769i_discovery_sdram.c **** 
 391:Drivers/BSP/STM32F769I-Discovery/stm32f769i_discovery_sdram.c ****   /* GPIOE configuration */  
 392:Drivers/BSP/STM32F769I-Discovery/stm32f769i_discovery_sdram.c ****   gpio_init_structure.Pin   = GPIO_PIN_0 | GPIO_PIN_1 | GPIO_PIN_7| GPIO_PIN_8 | GPIO_PIN_9 |\
 568              		.loc 1 392 3 is_stmt 1 view .LVU160
 569              		.loc 1 392 29 is_stmt 0 view .LVU161
 570 00b6 4FF68373 		movw	r3, #65411
 571 00ba 0993     		str	r3, [sp, #36]
 393:Drivers/BSP/STM32F769I-Discovery/stm32f769i_discovery_sdram.c ****                               GPIO_PIN_10 | GPIO_PIN_11 | GPIO_PIN_12 | GPIO_PIN_13 | GPIO_PIN_14 |
 394:Drivers/BSP/STM32F769I-Discovery/stm32f769i_discovery_sdram.c ****                               GPIO_PIN_15;
 395:Drivers/BSP/STM32F769I-Discovery/stm32f769i_discovery_sdram.c ****       
 396:Drivers/BSP/STM32F769I-Discovery/stm32f769i_discovery_sdram.c ****   HAL_GPIO_Init(GPIOE, &gpio_init_structure);
 572              		.loc 1 396 3 is_stmt 1 view .LVU162
 573 00bc 09A9     		add	r1, sp, #36
 574 00be 2848     		ldr	r0, .L32+8
 575 00c0 FFF7FEFF 		bl	HAL_GPIO_Init
 576              	.LVL36:
 397:Drivers/BSP/STM32F769I-Discovery/stm32f769i_discovery_sdram.c ****   
 398:Drivers/BSP/STM32F769I-Discovery/stm32f769i_discovery_sdram.c ****   /* GPIOF configuration */  
 399:Drivers/BSP/STM32F769I-Discovery/stm32f769i_discovery_sdram.c ****   gpio_init_structure.Pin   = GPIO_PIN_0 | GPIO_PIN_1 | GPIO_PIN_2| GPIO_PIN_3 | GPIO_PIN_4 |\
 577              		.loc 1 399 3 view .LVU163
 578              		.loc 1 399 29 is_stmt 0 view .LVU164
 579 00c4 4FF63F03 		movw	r3, #63551
 580 00c8 0993     		str	r3, [sp, #36]
 400:Drivers/BSP/STM32F769I-Discovery/stm32f769i_discovery_sdram.c ****                               GPIO_PIN_5 | GPIO_PIN_11 | GPIO_PIN_12 | GPIO_PIN_13 | GPIO_PIN_14 |\
 401:Drivers/BSP/STM32F769I-Discovery/stm32f769i_discovery_sdram.c ****                               GPIO_PIN_15;
 402:Drivers/BSP/STM32F769I-Discovery/stm32f769i_discovery_sdram.c ****     
ARM GAS  /var/folders/n6/c271nzx11xl4r4_m7sqjlt0m0000gn/T//cchiqZf1.s 			page 18


 403:Drivers/BSP/STM32F769I-Discovery/stm32f769i_discovery_sdram.c ****   HAL_GPIO_Init(GPIOF, &gpio_init_structure);
 581              		.loc 1 403 3 is_stmt 1 view .LVU165
 582 00ca 09A9     		add	r1, sp, #36
 583 00cc 2548     		ldr	r0, .L32+12
 584 00ce FFF7FEFF 		bl	HAL_GPIO_Init
 585              	.LVL37:
 404:Drivers/BSP/STM32F769I-Discovery/stm32f769i_discovery_sdram.c ****   
 405:Drivers/BSP/STM32F769I-Discovery/stm32f769i_discovery_sdram.c ****   /* GPIOG configuration */  
 406:Drivers/BSP/STM32F769I-Discovery/stm32f769i_discovery_sdram.c ****   gpio_init_structure.Pin   = GPIO_PIN_0 | GPIO_PIN_1 | GPIO_PIN_2 | GPIO_PIN_4|\
 586              		.loc 1 406 3 view .LVU166
 587              		.loc 1 406 29 is_stmt 0 view .LVU167
 588 00d2 48F23713 		movw	r3, #33079
 589 00d6 0993     		str	r3, [sp, #36]
 407:Drivers/BSP/STM32F769I-Discovery/stm32f769i_discovery_sdram.c ****                               GPIO_PIN_5 | GPIO_PIN_8 | GPIO_PIN_15;
 408:Drivers/BSP/STM32F769I-Discovery/stm32f769i_discovery_sdram.c ****   HAL_GPIO_Init(GPIOG, &gpio_init_structure);
 590              		.loc 1 408 3 is_stmt 1 view .LVU168
 591 00d8 09A9     		add	r1, sp, #36
 592 00da 2348     		ldr	r0, .L32+16
 593 00dc FFF7FEFF 		bl	HAL_GPIO_Init
 594              	.LVL38:
 409:Drivers/BSP/STM32F769I-Discovery/stm32f769i_discovery_sdram.c **** 
 410:Drivers/BSP/STM32F769I-Discovery/stm32f769i_discovery_sdram.c ****   /* GPIOH configuration */  
 411:Drivers/BSP/STM32F769I-Discovery/stm32f769i_discovery_sdram.c ****   gpio_init_structure.Pin   = GPIO_PIN_2 | GPIO_PIN_3 | GPIO_PIN_5 | GPIO_PIN_8 | GPIO_PIN_9 |\
 595              		.loc 1 411 3 view .LVU169
 596              		.loc 1 411 29 is_stmt 0 view .LVU170
 597 00e0 4FF62C73 		movw	r3, #65324
 598 00e4 0993     		str	r3, [sp, #36]
 412:Drivers/BSP/STM32F769I-Discovery/stm32f769i_discovery_sdram.c ****                               GPIO_PIN_10 | GPIO_PIN_11 | GPIO_PIN_12 | GPIO_PIN_13 | GPIO_PIN_14 |
 413:Drivers/BSP/STM32F769I-Discovery/stm32f769i_discovery_sdram.c ****                               GPIO_PIN_15;
 414:Drivers/BSP/STM32F769I-Discovery/stm32f769i_discovery_sdram.c ****   HAL_GPIO_Init(GPIOH, &gpio_init_structure); 
 599              		.loc 1 414 3 is_stmt 1 view .LVU171
 600 00e6 09A9     		add	r1, sp, #36
 601 00e8 2048     		ldr	r0, .L32+20
 602 00ea FFF7FEFF 		bl	HAL_GPIO_Init
 603              	.LVL39:
 415:Drivers/BSP/STM32F769I-Discovery/stm32f769i_discovery_sdram.c ****   
 416:Drivers/BSP/STM32F769I-Discovery/stm32f769i_discovery_sdram.c ****   /* GPIOI configuration */  
 417:Drivers/BSP/STM32F769I-Discovery/stm32f769i_discovery_sdram.c ****   gpio_init_structure.Pin   = GPIO_PIN_0 | GPIO_PIN_1 | GPIO_PIN_2 | GPIO_PIN_3 | GPIO_PIN_4 |\
 604              		.loc 1 417 3 view .LVU172
 605              		.loc 1 417 29 is_stmt 0 view .LVU173
 606 00ee 40F2FF63 		movw	r3, #1791
 607 00f2 0993     		str	r3, [sp, #36]
 418:Drivers/BSP/STM32F769I-Discovery/stm32f769i_discovery_sdram.c ****                               GPIO_PIN_5 | GPIO_PIN_6 | GPIO_PIN_7 | GPIO_PIN_9 | GPIO_PIN_10;
 419:Drivers/BSP/STM32F769I-Discovery/stm32f769i_discovery_sdram.c ****   HAL_GPIO_Init(GPIOI, &gpio_init_structure);  
 608              		.loc 1 419 3 is_stmt 1 view .LVU174
 609 00f4 09A9     		add	r1, sp, #36
 610 00f6 1E48     		ldr	r0, .L32+24
 611 00f8 FFF7FEFF 		bl	HAL_GPIO_Init
 612              	.LVL40:
 420:Drivers/BSP/STM32F769I-Discovery/stm32f769i_discovery_sdram.c ****   
 421:Drivers/BSP/STM32F769I-Discovery/stm32f769i_discovery_sdram.c ****   /* Configure common DMA parameters */
 422:Drivers/BSP/STM32F769I-Discovery/stm32f769i_discovery_sdram.c ****   dma_handle.Init.Channel             = SDRAM_DMAx_CHANNEL;
 613              		.loc 1 422 3 view .LVU175
 614              		.loc 1 422 39 is_stmt 0 view .LVU176
 615 00fc 1D4C     		ldr	r4, .L32+28
 616 00fe 0025     		movs	r5, #0
 617 0100 6560     		str	r5, [r4, #4]
ARM GAS  /var/folders/n6/c271nzx11xl4r4_m7sqjlt0m0000gn/T//cchiqZf1.s 			page 19


 423:Drivers/BSP/STM32F769I-Discovery/stm32f769i_discovery_sdram.c ****   dma_handle.Init.Direction           = DMA_MEMORY_TO_MEMORY;
 618              		.loc 1 423 3 is_stmt 1 view .LVU177
 619              		.loc 1 423 39 is_stmt 0 view .LVU178
 620 0102 8023     		movs	r3, #128
 621 0104 A360     		str	r3, [r4, #8]
 424:Drivers/BSP/STM32F769I-Discovery/stm32f769i_discovery_sdram.c ****   dma_handle.Init.PeriphInc           = DMA_PINC_ENABLE;
 622              		.loc 1 424 3 is_stmt 1 view .LVU179
 623              		.loc 1 424 39 is_stmt 0 view .LVU180
 624 0106 4FF40073 		mov	r3, #512
 625 010a E360     		str	r3, [r4, #12]
 425:Drivers/BSP/STM32F769I-Discovery/stm32f769i_discovery_sdram.c ****   dma_handle.Init.MemInc              = DMA_MINC_ENABLE;
 626              		.loc 1 425 3 is_stmt 1 view .LVU181
 627              		.loc 1 425 39 is_stmt 0 view .LVU182
 628 010c 4FF48063 		mov	r3, #1024
 629 0110 2361     		str	r3, [r4, #16]
 426:Drivers/BSP/STM32F769I-Discovery/stm32f769i_discovery_sdram.c ****   dma_handle.Init.PeriphDataAlignment = DMA_PDATAALIGN_WORD;
 630              		.loc 1 426 3 is_stmt 1 view .LVU183
 631              		.loc 1 426 39 is_stmt 0 view .LVU184
 632 0112 4FF48053 		mov	r3, #4096
 633 0116 6361     		str	r3, [r4, #20]
 427:Drivers/BSP/STM32F769I-Discovery/stm32f769i_discovery_sdram.c ****   dma_handle.Init.MemDataAlignment    = DMA_MDATAALIGN_WORD;
 634              		.loc 1 427 3 is_stmt 1 view .LVU185
 635              		.loc 1 427 39 is_stmt 0 view .LVU186
 636 0118 4FF48043 		mov	r3, #16384
 637 011c A361     		str	r3, [r4, #24]
 428:Drivers/BSP/STM32F769I-Discovery/stm32f769i_discovery_sdram.c ****   dma_handle.Init.Mode                = DMA_NORMAL;
 638              		.loc 1 428 3 is_stmt 1 view .LVU187
 639              		.loc 1 428 39 is_stmt 0 view .LVU188
 640 011e E561     		str	r5, [r4, #28]
 429:Drivers/BSP/STM32F769I-Discovery/stm32f769i_discovery_sdram.c ****   dma_handle.Init.Priority            = DMA_PRIORITY_HIGH;
 641              		.loc 1 429 3 is_stmt 1 view .LVU189
 642              		.loc 1 429 39 is_stmt 0 view .LVU190
 643 0120 4FF40033 		mov	r3, #131072
 644 0124 2362     		str	r3, [r4, #32]
 430:Drivers/BSP/STM32F769I-Discovery/stm32f769i_discovery_sdram.c ****   dma_handle.Init.FIFOMode            = DMA_FIFOMODE_DISABLE;         
 645              		.loc 1 430 3 is_stmt 1 view .LVU191
 646              		.loc 1 430 39 is_stmt 0 view .LVU192
 647 0126 6562     		str	r5, [r4, #36]
 431:Drivers/BSP/STM32F769I-Discovery/stm32f769i_discovery_sdram.c ****   dma_handle.Init.FIFOThreshold       = DMA_FIFO_THRESHOLD_FULL;
 648              		.loc 1 431 3 is_stmt 1 view .LVU193
 649              		.loc 1 431 39 is_stmt 0 view .LVU194
 650 0128 A762     		str	r7, [r4, #40]
 432:Drivers/BSP/STM32F769I-Discovery/stm32f769i_discovery_sdram.c ****   dma_handle.Init.MemBurst            = DMA_MBURST_SINGLE;
 651              		.loc 1 432 3 is_stmt 1 view .LVU195
 652              		.loc 1 432 39 is_stmt 0 view .LVU196
 653 012a E562     		str	r5, [r4, #44]
 433:Drivers/BSP/STM32F769I-Discovery/stm32f769i_discovery_sdram.c ****   dma_handle.Init.PeriphBurst         = DMA_PBURST_SINGLE; 
 654              		.loc 1 433 3 is_stmt 1 view .LVU197
 655              		.loc 1 433 39 is_stmt 0 view .LVU198
 656 012c 2563     		str	r5, [r4, #48]
 434:Drivers/BSP/STM32F769I-Discovery/stm32f769i_discovery_sdram.c ****   
 435:Drivers/BSP/STM32F769I-Discovery/stm32f769i_discovery_sdram.c ****   dma_handle.Instance = SDRAM_DMAx_STREAM;
 657              		.loc 1 435 3 is_stmt 1 view .LVU199
 658              		.loc 1 435 23 is_stmt 0 view .LVU200
 659 012e 124B     		ldr	r3, .L32+32
 660 0130 2360     		str	r3, [r4]
 436:Drivers/BSP/STM32F769I-Discovery/stm32f769i_discovery_sdram.c ****   
ARM GAS  /var/folders/n6/c271nzx11xl4r4_m7sqjlt0m0000gn/T//cchiqZf1.s 			page 20


 437:Drivers/BSP/STM32F769I-Discovery/stm32f769i_discovery_sdram.c ****    /* Associate the DMA handle */
 438:Drivers/BSP/STM32F769I-Discovery/stm32f769i_discovery_sdram.c ****   __HAL_LINKDMA(hsdram, hdma, dma_handle);
 661              		.loc 1 438 3 is_stmt 1 view .LVU201
 662              		.loc 1 438 3 view .LVU202
 663 0132 3463     		str	r4, [r6, #48]
 664              		.loc 1 438 3 view .LVU203
 665 0134 A663     		str	r6, [r4, #56]
 666              		.loc 1 438 3 view .LVU204
 439:Drivers/BSP/STM32F769I-Discovery/stm32f769i_discovery_sdram.c ****   
 440:Drivers/BSP/STM32F769I-Discovery/stm32f769i_discovery_sdram.c ****   /* Deinitialize the stream for new transfer */
 441:Drivers/BSP/STM32F769I-Discovery/stm32f769i_discovery_sdram.c ****   HAL_DMA_DeInit(&dma_handle);
 667              		.loc 1 441 3 view .LVU205
 668 0136 2046     		mov	r0, r4
 669 0138 FFF7FEFF 		bl	HAL_DMA_DeInit
 670              	.LVL41:
 442:Drivers/BSP/STM32F769I-Discovery/stm32f769i_discovery_sdram.c ****   
 443:Drivers/BSP/STM32F769I-Discovery/stm32f769i_discovery_sdram.c ****   /* Configure the DMA stream */
 444:Drivers/BSP/STM32F769I-Discovery/stm32f769i_discovery_sdram.c ****   HAL_DMA_Init(&dma_handle); 
 671              		.loc 1 444 3 view .LVU206
 672 013c 2046     		mov	r0, r4
 673 013e FFF7FEFF 		bl	HAL_DMA_Init
 674              	.LVL42:
 445:Drivers/BSP/STM32F769I-Discovery/stm32f769i_discovery_sdram.c ****   
 446:Drivers/BSP/STM32F769I-Discovery/stm32f769i_discovery_sdram.c ****   /* NVIC configuration for DMA transfer complete interrupt */
 447:Drivers/BSP/STM32F769I-Discovery/stm32f769i_discovery_sdram.c ****   HAL_NVIC_SetPriority(SDRAM_DMAx_IRQn, 0x0F, 0);
 675              		.loc 1 447 3 view .LVU207
 676 0142 2A46     		mov	r2, r5
 677 0144 0F21     		movs	r1, #15
 678 0146 3820     		movs	r0, #56
 679 0148 FFF7FEFF 		bl	HAL_NVIC_SetPriority
 680              	.LVL43:
 448:Drivers/BSP/STM32F769I-Discovery/stm32f769i_discovery_sdram.c ****   HAL_NVIC_EnableIRQ(SDRAM_DMAx_IRQn);
 681              		.loc 1 448 3 view .LVU208
 682 014c 3820     		movs	r0, #56
 683 014e FFF7FEFF 		bl	HAL_NVIC_EnableIRQ
 684              	.LVL44:
 449:Drivers/BSP/STM32F769I-Discovery/stm32f769i_discovery_sdram.c **** }
 685              		.loc 1 449 1 is_stmt 0 view .LVU209
 686 0152 0FB0     		add	sp, sp, #60
 687              		.cfi_def_cfa_offset 20
 688              		@ sp needed
 689 0154 F0BD     		pop	{r4, r5, r6, r7, pc}
 690              	.LVL45:
 691              	.L33:
 692              		.loc 1 449 1 view .LVU210
 693 0156 00BF     		.align	2
 694              	.L32:
 695 0158 00380240 		.word	1073887232
 696 015c 000C0240 		.word	1073875968
 697 0160 00100240 		.word	1073876992
 698 0164 00140240 		.word	1073878016
 699 0168 00180240 		.word	1073879040
 700 016c 001C0240 		.word	1073880064
 701 0170 00200240 		.word	1073881088
 702 0174 00000000 		.word	dma_handle.1
 703 0178 10640240 		.word	1073898512
 704              		.cfi_endproc
ARM GAS  /var/folders/n6/c271nzx11xl4r4_m7sqjlt0m0000gn/T//cchiqZf1.s 			page 21


 705              	.LFE149:
 707              		.section	.text.BSP_SDRAM_Init,"ax",%progbits
 708              		.align	1
 709              		.global	BSP_SDRAM_Init
 710              		.syntax unified
 711              		.thumb
 712              		.thumb_func
 714              	BSP_SDRAM_Init:
 715              	.LFB141:
 131:Drivers/BSP/STM32F769I-Discovery/stm32f769i_discovery_sdram.c ****   static uint8_t sdramstatus = SDRAM_ERROR;
 716              		.loc 1 131 1 is_stmt 1 view -0
 717              		.cfi_startproc
 718              		@ args = 0, pretend = 0, frame = 0
 719              		@ frame_needed = 0, uses_anonymous_args = 0
 720 0000 38B5     		push	{r3, r4, r5, lr}
 721              		.cfi_def_cfa_offset 16
 722              		.cfi_offset 3, -16
 723              		.cfi_offset 4, -12
 724              		.cfi_offset 5, -8
 725              		.cfi_offset 14, -4
 132:Drivers/BSP/STM32F769I-Discovery/stm32f769i_discovery_sdram.c ****   /* SDRAM device configuration */
 726              		.loc 1 132 3 view .LVU212
 134:Drivers/BSP/STM32F769I-Discovery/stm32f769i_discovery_sdram.c ****     
 727              		.loc 1 134 3 view .LVU213
 134:Drivers/BSP/STM32F769I-Discovery/stm32f769i_discovery_sdram.c ****     
 728              		.loc 1 134 24 is_stmt 0 view .LVU214
 729 0002 1B4C     		ldr	r4, .L38
 730 0004 1B4B     		ldr	r3, .L38+4
 731 0006 2360     		str	r3, [r4]
 137:Drivers/BSP/STM32F769I-Discovery/stm32f769i_discovery_sdram.c ****   Timing.ExitSelfRefreshDelay = 7;
 732              		.loc 1 137 3 is_stmt 1 view .LVU215
 137:Drivers/BSP/STM32F769I-Discovery/stm32f769i_discovery_sdram.c ****   Timing.ExitSelfRefreshDelay = 7;
 733              		.loc 1 137 31 is_stmt 0 view .LVU216
 734 0008 1B4D     		ldr	r5, .L38+8
 735 000a 0223     		movs	r3, #2
 736 000c 2B60     		str	r3, [r5]
 138:Drivers/BSP/STM32F769I-Discovery/stm32f769i_discovery_sdram.c ****   Timing.SelfRefreshTime      = 4;
 737              		.loc 1 138 3 is_stmt 1 view .LVU217
 138:Drivers/BSP/STM32F769I-Discovery/stm32f769i_discovery_sdram.c ****   Timing.SelfRefreshTime      = 4;
 738              		.loc 1 138 31 is_stmt 0 view .LVU218
 739 000e 0721     		movs	r1, #7
 740 0010 6960     		str	r1, [r5, #4]
 139:Drivers/BSP/STM32F769I-Discovery/stm32f769i_discovery_sdram.c ****   Timing.RowCycleDelay        = 7;
 741              		.loc 1 139 3 is_stmt 1 view .LVU219
 139:Drivers/BSP/STM32F769I-Discovery/stm32f769i_discovery_sdram.c ****   Timing.RowCycleDelay        = 7;
 742              		.loc 1 139 31 is_stmt 0 view .LVU220
 743 0012 0422     		movs	r2, #4
 744 0014 AA60     		str	r2, [r5, #8]
 140:Drivers/BSP/STM32F769I-Discovery/stm32f769i_discovery_sdram.c ****   Timing.WriteRecoveryTime    = 2;
 745              		.loc 1 140 3 is_stmt 1 view .LVU221
 140:Drivers/BSP/STM32F769I-Discovery/stm32f769i_discovery_sdram.c ****   Timing.WriteRecoveryTime    = 2;
 746              		.loc 1 140 31 is_stmt 0 view .LVU222
 747 0016 E960     		str	r1, [r5, #12]
 141:Drivers/BSP/STM32F769I-Discovery/stm32f769i_discovery_sdram.c ****   Timing.RPDelay              = 2;
 748              		.loc 1 141 3 is_stmt 1 view .LVU223
 141:Drivers/BSP/STM32F769I-Discovery/stm32f769i_discovery_sdram.c ****   Timing.RPDelay              = 2;
 749              		.loc 1 141 31 is_stmt 0 view .LVU224
ARM GAS  /var/folders/n6/c271nzx11xl4r4_m7sqjlt0m0000gn/T//cchiqZf1.s 			page 22


 750 0018 2B61     		str	r3, [r5, #16]
 142:Drivers/BSP/STM32F769I-Discovery/stm32f769i_discovery_sdram.c ****   Timing.RCDDelay             = 2;
 751              		.loc 1 142 3 is_stmt 1 view .LVU225
 142:Drivers/BSP/STM32F769I-Discovery/stm32f769i_discovery_sdram.c ****   Timing.RCDDelay             = 2;
 752              		.loc 1 142 31 is_stmt 0 view .LVU226
 753 001a 6B61     		str	r3, [r5, #20]
 143:Drivers/BSP/STM32F769I-Discovery/stm32f769i_discovery_sdram.c ****   
 754              		.loc 1 143 3 is_stmt 1 view .LVU227
 143:Drivers/BSP/STM32F769I-Discovery/stm32f769i_discovery_sdram.c ****   
 755              		.loc 1 143 31 is_stmt 0 view .LVU228
 756 001c AB61     		str	r3, [r5, #24]
 145:Drivers/BSP/STM32F769I-Discovery/stm32f769i_discovery_sdram.c ****   sdramHandle.Init.ColumnBitsNumber   = FMC_SDRAM_COLUMN_BITS_NUM_8;
 757              		.loc 1 145 3 is_stmt 1 view .LVU229
 145:Drivers/BSP/STM32F769I-Discovery/stm32f769i_discovery_sdram.c ****   sdramHandle.Init.ColumnBitsNumber   = FMC_SDRAM_COLUMN_BITS_NUM_8;
 758              		.loc 1 145 39 is_stmt 0 view .LVU230
 759 001e 0021     		movs	r1, #0
 760 0020 6160     		str	r1, [r4, #4]
 146:Drivers/BSP/STM32F769I-Discovery/stm32f769i_discovery_sdram.c ****   sdramHandle.Init.RowBitsNumber      = FMC_SDRAM_ROW_BITS_NUM_12;
 761              		.loc 1 146 3 is_stmt 1 view .LVU231
 146:Drivers/BSP/STM32F769I-Discovery/stm32f769i_discovery_sdram.c ****   sdramHandle.Init.RowBitsNumber      = FMC_SDRAM_ROW_BITS_NUM_12;
 762              		.loc 1 146 39 is_stmt 0 view .LVU232
 763 0022 A160     		str	r1, [r4, #8]
 147:Drivers/BSP/STM32F769I-Discovery/stm32f769i_discovery_sdram.c ****   sdramHandle.Init.MemoryDataWidth    = SDRAM_MEMORY_WIDTH;
 764              		.loc 1 147 3 is_stmt 1 view .LVU233
 147:Drivers/BSP/STM32F769I-Discovery/stm32f769i_discovery_sdram.c ****   sdramHandle.Init.MemoryDataWidth    = SDRAM_MEMORY_WIDTH;
 765              		.loc 1 147 39 is_stmt 0 view .LVU234
 766 0024 E260     		str	r2, [r4, #12]
 148:Drivers/BSP/STM32F769I-Discovery/stm32f769i_discovery_sdram.c ****   sdramHandle.Init.InternalBankNumber = FMC_SDRAM_INTERN_BANKS_NUM_4;
 767              		.loc 1 148 3 is_stmt 1 view .LVU235
 148:Drivers/BSP/STM32F769I-Discovery/stm32f769i_discovery_sdram.c ****   sdramHandle.Init.InternalBankNumber = FMC_SDRAM_INTERN_BANKS_NUM_4;
 768              		.loc 1 148 39 is_stmt 0 view .LVU236
 769 0026 2023     		movs	r3, #32
 770 0028 2361     		str	r3, [r4, #16]
 149:Drivers/BSP/STM32F769I-Discovery/stm32f769i_discovery_sdram.c ****   sdramHandle.Init.CASLatency         = FMC_SDRAM_CAS_LATENCY_3;
 771              		.loc 1 149 3 is_stmt 1 view .LVU237
 149:Drivers/BSP/STM32F769I-Discovery/stm32f769i_discovery_sdram.c ****   sdramHandle.Init.CASLatency         = FMC_SDRAM_CAS_LATENCY_3;
 772              		.loc 1 149 39 is_stmt 0 view .LVU238
 773 002a 4023     		movs	r3, #64
 774 002c 6361     		str	r3, [r4, #20]
 150:Drivers/BSP/STM32F769I-Discovery/stm32f769i_discovery_sdram.c ****   sdramHandle.Init.WriteProtection    = FMC_SDRAM_WRITE_PROTECTION_DISABLE;
 775              		.loc 1 150 3 is_stmt 1 view .LVU239
 150:Drivers/BSP/STM32F769I-Discovery/stm32f769i_discovery_sdram.c ****   sdramHandle.Init.WriteProtection    = FMC_SDRAM_WRITE_PROTECTION_DISABLE;
 776              		.loc 1 150 39 is_stmt 0 view .LVU240
 777 002e 4FF4C073 		mov	r3, #384
 778 0032 A361     		str	r3, [r4, #24]
 151:Drivers/BSP/STM32F769I-Discovery/stm32f769i_discovery_sdram.c ****   sdramHandle.Init.SDClockPeriod      = SDCLOCK_PERIOD;
 779              		.loc 1 151 3 is_stmt 1 view .LVU241
 151:Drivers/BSP/STM32F769I-Discovery/stm32f769i_discovery_sdram.c ****   sdramHandle.Init.SDClockPeriod      = SDCLOCK_PERIOD;
 780              		.loc 1 151 39 is_stmt 0 view .LVU242
 781 0034 E161     		str	r1, [r4, #28]
 152:Drivers/BSP/STM32F769I-Discovery/stm32f769i_discovery_sdram.c ****   sdramHandle.Init.ReadBurst          = FMC_SDRAM_RBURST_ENABLE;
 782              		.loc 1 152 3 is_stmt 1 view .LVU243
 152:Drivers/BSP/STM32F769I-Discovery/stm32f769i_discovery_sdram.c ****   sdramHandle.Init.ReadBurst          = FMC_SDRAM_RBURST_ENABLE;
 783              		.loc 1 152 39 is_stmt 0 view .LVU244
 784 0036 4FF40063 		mov	r3, #2048
 785 003a 2362     		str	r3, [r4, #32]
 153:Drivers/BSP/STM32F769I-Discovery/stm32f769i_discovery_sdram.c ****   sdramHandle.Init.ReadPipeDelay      = FMC_SDRAM_RPIPE_DELAY_0;
ARM GAS  /var/folders/n6/c271nzx11xl4r4_m7sqjlt0m0000gn/T//cchiqZf1.s 			page 23


 786              		.loc 1 153 3 is_stmt 1 view .LVU245
 153:Drivers/BSP/STM32F769I-Discovery/stm32f769i_discovery_sdram.c ****   sdramHandle.Init.ReadPipeDelay      = FMC_SDRAM_RPIPE_DELAY_0;
 787              		.loc 1 153 39 is_stmt 0 view .LVU246
 788 003c 4FF48053 		mov	r3, #4096
 789 0040 6362     		str	r3, [r4, #36]
 154:Drivers/BSP/STM32F769I-Discovery/stm32f769i_discovery_sdram.c ****   
 790              		.loc 1 154 3 is_stmt 1 view .LVU247
 154:Drivers/BSP/STM32F769I-Discovery/stm32f769i_discovery_sdram.c ****   
 791              		.loc 1 154 39 is_stmt 0 view .LVU248
 792 0042 A162     		str	r1, [r4, #40]
 158:Drivers/BSP/STM32F769I-Discovery/stm32f769i_discovery_sdram.c **** 
 793              		.loc 1 158 3 is_stmt 1 view .LVU249
 794 0044 2046     		mov	r0, r4
 795 0046 FFF7FEFF 		bl	BSP_SDRAM_MspInit
 796              	.LVL46:
 160:Drivers/BSP/STM32F769I-Discovery/stm32f769i_discovery_sdram.c ****   {
 797              		.loc 1 160 3 view .LVU250
 160:Drivers/BSP/STM32F769I-Discovery/stm32f769i_discovery_sdram.c ****   {
 798              		.loc 1 160 6 is_stmt 0 view .LVU251
 799 004a 2946     		mov	r1, r5
 800 004c 2046     		mov	r0, r4
 801 004e FFF7FEFF 		bl	HAL_SDRAM_Init
 802              	.LVL47:
 160:Drivers/BSP/STM32F769I-Discovery/stm32f769i_discovery_sdram.c ****   {
 803              		.loc 1 160 5 discriminator 1 view .LVU252
 804 0052 48B1     		cbz	r0, .L35
 162:Drivers/BSP/STM32F769I-Discovery/stm32f769i_discovery_sdram.c ****   }
 805              		.loc 1 162 5 is_stmt 1 view .LVU253
 162:Drivers/BSP/STM32F769I-Discovery/stm32f769i_discovery_sdram.c ****   }
 806              		.loc 1 162 17 is_stmt 0 view .LVU254
 807 0054 094B     		ldr	r3, .L38+12
 808 0056 0122     		movs	r2, #1
 809 0058 1A70     		strb	r2, [r3]
 810              	.L36:
 170:Drivers/BSP/STM32F769I-Discovery/stm32f769i_discovery_sdram.c ****   
 811              		.loc 1 170 3 is_stmt 1 view .LVU255
 812 005a 40F20360 		movw	r0, #1539
 813 005e FFF7FEFF 		bl	BSP_SDRAM_Initialization_sequence
 814              	.LVL48:
 172:Drivers/BSP/STM32F769I-Discovery/stm32f769i_discovery_sdram.c **** }
 815              		.loc 1 172 3 view .LVU256
 173:Drivers/BSP/STM32F769I-Discovery/stm32f769i_discovery_sdram.c **** 
 816              		.loc 1 173 1 is_stmt 0 view .LVU257
 817 0062 064B     		ldr	r3, .L38+12
 818 0064 1878     		ldrb	r0, [r3]	@ zero_extendqisi2
 819 0066 38BD     		pop	{r3, r4, r5, pc}
 820              	.L35:
 166:Drivers/BSP/STM32F769I-Discovery/stm32f769i_discovery_sdram.c ****   }
 821              		.loc 1 166 5 is_stmt 1 view .LVU258
 166:Drivers/BSP/STM32F769I-Discovery/stm32f769i_discovery_sdram.c ****   }
 822              		.loc 1 166 17 is_stmt 0 view .LVU259
 823 0068 044B     		ldr	r3, .L38+12
 824 006a 0022     		movs	r2, #0
 825 006c 1A70     		strb	r2, [r3]
 826 006e F4E7     		b	.L36
 827              	.L39:
 828              		.align	2
ARM GAS  /var/folders/n6/c271nzx11xl4r4_m7sqjlt0m0000gn/T//cchiqZf1.s 			page 24


 829              	.L38:
 830 0070 00000000 		.word	sdramHandle
 831 0074 400100A0 		.word	-1610612416
 832 0078 00000000 		.word	Timing
 833 007c 00000000 		.word	sdramstatus.3
 834              		.cfi_endproc
 835              	.LFE141:
 837              		.section	.text.BSP_SDRAM_MspDeInit,"ax",%progbits
 838              		.align	1
 839              		.weak	BSP_SDRAM_MspDeInit
 840              		.syntax unified
 841              		.thumb
 842              		.thumb_func
 844              	BSP_SDRAM_MspDeInit:
 845              	.LVL49:
 846              	.LFB150:
 450:Drivers/BSP/STM32F769I-Discovery/stm32f769i_discovery_sdram.c **** 
 451:Drivers/BSP/STM32F769I-Discovery/stm32f769i_discovery_sdram.c **** /**
 452:Drivers/BSP/STM32F769I-Discovery/stm32f769i_discovery_sdram.c ****   * @brief  DeInitializes SDRAM MSP.
 453:Drivers/BSP/STM32F769I-Discovery/stm32f769i_discovery_sdram.c ****   * @param  hsdram: SDRAM handle
 454:Drivers/BSP/STM32F769I-Discovery/stm32f769i_discovery_sdram.c ****   * @param  Params  
 455:Drivers/BSP/STM32F769I-Discovery/stm32f769i_discovery_sdram.c ****   * @retval None
 456:Drivers/BSP/STM32F769I-Discovery/stm32f769i_discovery_sdram.c ****   */
 457:Drivers/BSP/STM32F769I-Discovery/stm32f769i_discovery_sdram.c **** __weak void BSP_SDRAM_MspDeInit(SDRAM_HandleTypeDef  *hsdram, void *Params)
 458:Drivers/BSP/STM32F769I-Discovery/stm32f769i_discovery_sdram.c **** {  
 847              		.loc 1 458 1 is_stmt 1 view -0
 848              		.cfi_startproc
 849              		@ args = 0, pretend = 0, frame = 0
 850              		@ frame_needed = 0, uses_anonymous_args = 0
 851              		.loc 1 458 1 is_stmt 0 view .LVU261
 852 0000 08B5     		push	{r3, lr}
 853              		.cfi_def_cfa_offset 8
 854              		.cfi_offset 3, -8
 855              		.cfi_offset 14, -4
 459:Drivers/BSP/STM32F769I-Discovery/stm32f769i_discovery_sdram.c ****     static DMA_HandleTypeDef dma_handle;
 856              		.loc 1 459 5 is_stmt 1 view .LVU262
 460:Drivers/BSP/STM32F769I-Discovery/stm32f769i_discovery_sdram.c ****   
 461:Drivers/BSP/STM32F769I-Discovery/stm32f769i_discovery_sdram.c ****     /* Disable NVIC configuration for DMA interrupt */
 462:Drivers/BSP/STM32F769I-Discovery/stm32f769i_discovery_sdram.c ****     HAL_NVIC_DisableIRQ(SDRAM_DMAx_IRQn);
 857              		.loc 1 462 5 view .LVU263
 858 0002 3820     		movs	r0, #56
 859              	.LVL50:
 860              		.loc 1 462 5 is_stmt 0 view .LVU264
 861 0004 FFF7FEFF 		bl	HAL_NVIC_DisableIRQ
 862              	.LVL51:
 463:Drivers/BSP/STM32F769I-Discovery/stm32f769i_discovery_sdram.c **** 
 464:Drivers/BSP/STM32F769I-Discovery/stm32f769i_discovery_sdram.c ****     /* Deinitialize the stream for new transfer */
 465:Drivers/BSP/STM32F769I-Discovery/stm32f769i_discovery_sdram.c ****     dma_handle.Instance = SDRAM_DMAx_STREAM;
 863              		.loc 1 465 5 is_stmt 1 view .LVU265
 864              		.loc 1 465 25 is_stmt 0 view .LVU266
 865 0008 0248     		ldr	r0, .L42
 866 000a 034B     		ldr	r3, .L42+4
 867 000c 0360     		str	r3, [r0]
 466:Drivers/BSP/STM32F769I-Discovery/stm32f769i_discovery_sdram.c ****     HAL_DMA_DeInit(&dma_handle);
 868              		.loc 1 466 5 is_stmt 1 view .LVU267
 869 000e FFF7FEFF 		bl	HAL_DMA_DeInit
 870              	.LVL52:
ARM GAS  /var/folders/n6/c271nzx11xl4r4_m7sqjlt0m0000gn/T//cchiqZf1.s 			page 25


 467:Drivers/BSP/STM32F769I-Discovery/stm32f769i_discovery_sdram.c **** 
 468:Drivers/BSP/STM32F769I-Discovery/stm32f769i_discovery_sdram.c ****     /* GPIO pins clock, FMC clock and DMA clock can be shut down in the applications
 469:Drivers/BSP/STM32F769I-Discovery/stm32f769i_discovery_sdram.c ****        by surcharging this __weak function */ 
 470:Drivers/BSP/STM32F769I-Discovery/stm32f769i_discovery_sdram.c **** }
 871              		.loc 1 470 1 is_stmt 0 view .LVU268
 872 0012 08BD     		pop	{r3, pc}
 873              	.L43:
 874              		.align	2
 875              	.L42:
 876 0014 00000000 		.word	dma_handle.0
 877 0018 10640240 		.word	1073898512
 878              		.cfi_endproc
 879              	.LFE150:
 881              		.section	.text.BSP_SDRAM_DeInit,"ax",%progbits
 882              		.align	1
 883              		.global	BSP_SDRAM_DeInit
 884              		.syntax unified
 885              		.thumb
 886              		.thumb_func
 888              	BSP_SDRAM_DeInit:
 889              	.LFB142:
 180:Drivers/BSP/STM32F769I-Discovery/stm32f769i_discovery_sdram.c ****   static uint8_t sdramstatus = SDRAM_ERROR;
 890              		.loc 1 180 1 is_stmt 1 view -0
 891              		.cfi_startproc
 892              		@ args = 0, pretend = 0, frame = 0
 893              		@ frame_needed = 0, uses_anonymous_args = 0
 894 0000 08B5     		push	{r3, lr}
 895              		.cfi_def_cfa_offset 8
 896              		.cfi_offset 3, -8
 897              		.cfi_offset 14, -4
 181:Drivers/BSP/STM32F769I-Discovery/stm32f769i_discovery_sdram.c ****   /* SDRAM device de-initialization */
 898              		.loc 1 181 3 view .LVU270
 183:Drivers/BSP/STM32F769I-Discovery/stm32f769i_discovery_sdram.c **** 
 899              		.loc 1 183 3 view .LVU271
 183:Drivers/BSP/STM32F769I-Discovery/stm32f769i_discovery_sdram.c **** 
 900              		.loc 1 183 24 is_stmt 0 view .LVU272
 901 0002 0A48     		ldr	r0, .L48
 902 0004 0A4B     		ldr	r3, .L48+4
 903 0006 0360     		str	r3, [r0]
 185:Drivers/BSP/STM32F769I-Discovery/stm32f769i_discovery_sdram.c ****   {
 904              		.loc 1 185 3 is_stmt 1 view .LVU273
 185:Drivers/BSP/STM32F769I-Discovery/stm32f769i_discovery_sdram.c ****   {
 905              		.loc 1 185 6 is_stmt 0 view .LVU274
 906 0008 FFF7FEFF 		bl	HAL_SDRAM_DeInit
 907              	.LVL53:
 185:Drivers/BSP/STM32F769I-Discovery/stm32f769i_discovery_sdram.c ****   {
 908              		.loc 1 185 5 discriminator 1 view .LVU275
 909 000c 48B1     		cbz	r0, .L45
 187:Drivers/BSP/STM32F769I-Discovery/stm32f769i_discovery_sdram.c ****   }
 910              		.loc 1 187 5 is_stmt 1 view .LVU276
 187:Drivers/BSP/STM32F769I-Discovery/stm32f769i_discovery_sdram.c ****   }
 911              		.loc 1 187 17 is_stmt 0 view .LVU277
 912 000e 094B     		ldr	r3, .L48+8
 913 0010 0122     		movs	r2, #1
 914 0012 1A70     		strb	r2, [r3]
 915              	.L46:
 195:Drivers/BSP/STM32F769I-Discovery/stm32f769i_discovery_sdram.c ****   
ARM GAS  /var/folders/n6/c271nzx11xl4r4_m7sqjlt0m0000gn/T//cchiqZf1.s 			page 26


 916              		.loc 1 195 3 is_stmt 1 view .LVU278
 917 0014 0021     		movs	r1, #0
 918 0016 0548     		ldr	r0, .L48
 919 0018 FFF7FEFF 		bl	BSP_SDRAM_MspDeInit
 920              	.LVL54:
 197:Drivers/BSP/STM32F769I-Discovery/stm32f769i_discovery_sdram.c **** }
 921              		.loc 1 197 3 view .LVU279
 198:Drivers/BSP/STM32F769I-Discovery/stm32f769i_discovery_sdram.c **** 
 922              		.loc 1 198 1 is_stmt 0 view .LVU280
 923 001c 054B     		ldr	r3, .L48+8
 924 001e 1878     		ldrb	r0, [r3]	@ zero_extendqisi2
 925 0020 08BD     		pop	{r3, pc}
 926              	.L45:
 191:Drivers/BSP/STM32F769I-Discovery/stm32f769i_discovery_sdram.c ****   }
 927              		.loc 1 191 5 is_stmt 1 view .LVU281
 191:Drivers/BSP/STM32F769I-Discovery/stm32f769i_discovery_sdram.c ****   }
 928              		.loc 1 191 17 is_stmt 0 view .LVU282
 929 0022 044B     		ldr	r3, .L48+8
 930 0024 0022     		movs	r2, #0
 931 0026 1A70     		strb	r2, [r3]
 932 0028 F4E7     		b	.L46
 933              	.L49:
 934 002a 00BF     		.align	2
 935              	.L48:
 936 002c 00000000 		.word	sdramHandle
 937 0030 400100A0 		.word	-1610612416
 938 0034 00000000 		.word	sdramstatus.2
 939              		.cfi_endproc
 940              	.LFE142:
 942              		.section	.bss.dma_handle.0,"aw",%nobits
 943              		.align	2
 946              	dma_handle.0:
 947 0000 00000000 		.space	96
 947      00000000 
 947      00000000 
 947      00000000 
 947      00000000 
 948              		.section	.bss.dma_handle.1,"aw",%nobits
 949              		.align	2
 952              	dma_handle.1:
 953 0000 00000000 		.space	96
 953      00000000 
 953      00000000 
 953      00000000 
 953      00000000 
 954              		.section	.data.sdramstatus.2,"aw"
 957              	sdramstatus.2:
 958 0000 01       		.byte	1
 959              		.section	.data.sdramstatus.3,"aw"
 962              	sdramstatus.3:
 963 0000 01       		.byte	1
 964              		.section	.bss.Command,"aw",%nobits
 965              		.align	2
 968              	Command:
 969 0000 00000000 		.space	16
 969      00000000 
 969      00000000 
ARM GAS  /var/folders/n6/c271nzx11xl4r4_m7sqjlt0m0000gn/T//cchiqZf1.s 			page 27


 969      00000000 
 970              		.section	.bss.Timing,"aw",%nobits
 971              		.align	2
 974              	Timing:
 975 0000 00000000 		.space	28
 975      00000000 
 975      00000000 
 975      00000000 
 975      00000000 
 976              		.global	sdramHandle
 977              		.section	.bss.sdramHandle,"aw",%nobits
 978              		.align	2
 981              	sdramHandle:
 982 0000 00000000 		.space	52
 982      00000000 
 982      00000000 
 982      00000000 
 982      00000000 
 983              		.text
 984              	.Letext0:
 985              		.file 2 "Drivers/CMSIS/Device/ST/STM32F7xx/Include/stm32f769xx.h"
 986              		.file 3 "/Users/killian/Library/Application Support/Code/User/globalStorage/bmd.stm32-for-vscode/@
 987              		.file 4 "/Users/killian/Library/Application Support/Code/User/globalStorage/bmd.stm32-for-vscode/@
 988              		.file 5 "Drivers/STM32F7xx_HAL_Driver/Inc/stm32f7xx_hal_def.h"
 989              		.file 6 "Drivers/STM32F7xx_HAL_Driver/Inc/stm32f7xx_hal_gpio.h"
 990              		.file 7 "Drivers/STM32F7xx_HAL_Driver/Inc/stm32f7xx_hal_dma.h"
 991              		.file 8 "Drivers/STM32F7xx_HAL_Driver/Inc/stm32f7xx_ll_fmc.h"
 992              		.file 9 "Drivers/STM32F7xx_HAL_Driver/Inc/stm32f7xx_hal_sdram.h"
 993              		.file 10 "Drivers/STM32F7xx_HAL_Driver/Inc/stm32f7xx_hal_cortex.h"
 994              		.file 11 "Drivers/STM32F7xx_HAL_Driver/Inc/stm32f7xx_hal.h"
ARM GAS  /var/folders/n6/c271nzx11xl4r4_m7sqjlt0m0000gn/T//cchiqZf1.s 			page 28

