ARM GAS  /var/folders/n6/c271nzx11xl4r4_m7sqjlt0m0000gn/T//cc2SfOSY.s 			page 1


   1              		.cpu cortex-m7
   2              		.arch armv7e-m
   3              		.fpu fpv5-d16
   4              		.eabi_attribute 28, 1
   5              		.eabi_attribute 20, 1
   6              		.eabi_attribute 21, 1
   7              		.eabi_attribute 23, 3
   8              		.eabi_attribute 24, 1
   9              		.eabi_attribute 25, 1
  10              		.eabi_attribute 26, 1
  11              		.eabi_attribute 30, 1
  12              		.eabi_attribute 34, 1
  13              		.eabi_attribute 18, 4
  14              		.file	"stmpe811.c"
  15              		.text
  16              	.Ltext0:
  17              		.cfi_sections	.debug_frame
  18              		.file 1 "Drivers/BSP/Components/stmpe811/stmpe811.c"
  19              		.section	.text.stmpe811_GetInstance,"ax",%progbits
  20              		.align	1
  21              		.syntax unified
  22              		.thumb
  23              		.thumb_func
  25              	stmpe811_GetInstance:
  26              	.LVL0:
  27              	.LFB33:
   1:Drivers/BSP/Components/stmpe811/stmpe811.c **** /**
   2:Drivers/BSP/Components/stmpe811/stmpe811.c ****   ******************************************************************************
   3:Drivers/BSP/Components/stmpe811/stmpe811.c ****   * @file    stmpe811.c
   4:Drivers/BSP/Components/stmpe811/stmpe811.c ****   * @author  MCD Application Team
   5:Drivers/BSP/Components/stmpe811/stmpe811.c ****   * @brief   This file provides a set of functions needed to manage the STMPE811
   6:Drivers/BSP/Components/stmpe811/stmpe811.c ****   *          IO Expander devices.
   7:Drivers/BSP/Components/stmpe811/stmpe811.c ****   ******************************************************************************
   8:Drivers/BSP/Components/stmpe811/stmpe811.c ****   * @attention
   9:Drivers/BSP/Components/stmpe811/stmpe811.c ****   *
  10:Drivers/BSP/Components/stmpe811/stmpe811.c ****   * <h2><center>&copy; COPYRIGHT(c) 2014 STMicroelectronics</center></h2>
  11:Drivers/BSP/Components/stmpe811/stmpe811.c ****   *
  12:Drivers/BSP/Components/stmpe811/stmpe811.c ****   * Redistribution and use in source and binary forms, with or without modification,
  13:Drivers/BSP/Components/stmpe811/stmpe811.c ****   * are permitted provided that the following conditions are met:
  14:Drivers/BSP/Components/stmpe811/stmpe811.c ****   *   1. Redistributions of source code must retain the above copyright notice,
  15:Drivers/BSP/Components/stmpe811/stmpe811.c ****   *      this list of conditions and the following disclaimer.
  16:Drivers/BSP/Components/stmpe811/stmpe811.c ****   *   2. Redistributions in binary form must reproduce the above copyright notice,
  17:Drivers/BSP/Components/stmpe811/stmpe811.c ****   *      this list of conditions and the following disclaimer in the documentation
  18:Drivers/BSP/Components/stmpe811/stmpe811.c ****   *      and/or other materials provided with the distribution.
  19:Drivers/BSP/Components/stmpe811/stmpe811.c ****   *   3. Neither the name of STMicroelectronics nor the names of its contributors
  20:Drivers/BSP/Components/stmpe811/stmpe811.c ****   *      may be used to endorse or promote products derived from this software
  21:Drivers/BSP/Components/stmpe811/stmpe811.c ****   *      without specific prior written permission.
  22:Drivers/BSP/Components/stmpe811/stmpe811.c ****   *
  23:Drivers/BSP/Components/stmpe811/stmpe811.c ****   * THIS SOFTWARE IS PROVIDED BY THE COPYRIGHT HOLDERS AND CONTRIBUTORS "AS IS"
  24:Drivers/BSP/Components/stmpe811/stmpe811.c ****   * AND ANY EXPRESS OR IMPLIED WARRANTIES, INCLUDING, BUT NOT LIMITED TO, THE
  25:Drivers/BSP/Components/stmpe811/stmpe811.c ****   * IMPLIED WARRANTIES OF MERCHANTABILITY AND FITNESS FOR A PARTICULAR PURPOSE ARE
  26:Drivers/BSP/Components/stmpe811/stmpe811.c ****   * DISCLAIMED. IN NO EVENT SHALL THE COPYRIGHT HOLDER OR CONTRIBUTORS BE LIABLE
  27:Drivers/BSP/Components/stmpe811/stmpe811.c ****   * FOR ANY DIRECT, INDIRECT, INCIDENTAL, SPECIAL, EXEMPLARY, OR CONSEQUENTIAL
  28:Drivers/BSP/Components/stmpe811/stmpe811.c ****   * DAMAGES (INCLUDING, BUT NOT LIMITED TO, PROCUREMENT OF SUBSTITUTE GOODS OR
  29:Drivers/BSP/Components/stmpe811/stmpe811.c ****   * SERVICES; LOSS OF USE, DATA, OR PROFITS; OR BUSINESS INTERRUPTION) HOWEVER
  30:Drivers/BSP/Components/stmpe811/stmpe811.c ****   * CAUSED AND ON ANY THEORY OF LIABILITY, WHETHER IN CONTRACT, STRICT LIABILITY,
  31:Drivers/BSP/Components/stmpe811/stmpe811.c ****   * OR TORT (INCLUDING NEGLIGENCE OR OTHERWISE) ARISING IN ANY WAY OUT OF THE USE
ARM GAS  /var/folders/n6/c271nzx11xl4r4_m7sqjlt0m0000gn/T//cc2SfOSY.s 			page 2


  32:Drivers/BSP/Components/stmpe811/stmpe811.c ****   * OF THIS SOFTWARE, EVEN IF ADVISED OF THE POSSIBILITY OF SUCH DAMAGE.
  33:Drivers/BSP/Components/stmpe811/stmpe811.c ****   *
  34:Drivers/BSP/Components/stmpe811/stmpe811.c ****   ******************************************************************************
  35:Drivers/BSP/Components/stmpe811/stmpe811.c ****   */  
  36:Drivers/BSP/Components/stmpe811/stmpe811.c **** 
  37:Drivers/BSP/Components/stmpe811/stmpe811.c **** /* Includes ------------------------------------------------------------------*/
  38:Drivers/BSP/Components/stmpe811/stmpe811.c **** #include "stmpe811.h"
  39:Drivers/BSP/Components/stmpe811/stmpe811.c **** 
  40:Drivers/BSP/Components/stmpe811/stmpe811.c **** /** @addtogroup BSP
  41:Drivers/BSP/Components/stmpe811/stmpe811.c ****   * @{
  42:Drivers/BSP/Components/stmpe811/stmpe811.c ****   */
  43:Drivers/BSP/Components/stmpe811/stmpe811.c **** 
  44:Drivers/BSP/Components/stmpe811/stmpe811.c **** /** @addtogroup Components
  45:Drivers/BSP/Components/stmpe811/stmpe811.c ****   * @{
  46:Drivers/BSP/Components/stmpe811/stmpe811.c ****   */ 
  47:Drivers/BSP/Components/stmpe811/stmpe811.c ****   
  48:Drivers/BSP/Components/stmpe811/stmpe811.c **** /** @defgroup STMPE811
  49:Drivers/BSP/Components/stmpe811/stmpe811.c ****   * @{
  50:Drivers/BSP/Components/stmpe811/stmpe811.c ****   */   
  51:Drivers/BSP/Components/stmpe811/stmpe811.c **** 
  52:Drivers/BSP/Components/stmpe811/stmpe811.c **** /** @defgroup STMPE811_Private_Types_Definitions
  53:Drivers/BSP/Components/stmpe811/stmpe811.c ****   * @{
  54:Drivers/BSP/Components/stmpe811/stmpe811.c ****   */ 
  55:Drivers/BSP/Components/stmpe811/stmpe811.c **** 
  56:Drivers/BSP/Components/stmpe811/stmpe811.c **** /** @defgroup STMPE811_Private_Defines
  57:Drivers/BSP/Components/stmpe811/stmpe811.c ****   * @{
  58:Drivers/BSP/Components/stmpe811/stmpe811.c ****   */ 
  59:Drivers/BSP/Components/stmpe811/stmpe811.c **** #define STMPE811_MAX_INSTANCE         2 
  60:Drivers/BSP/Components/stmpe811/stmpe811.c **** /**
  61:Drivers/BSP/Components/stmpe811/stmpe811.c ****   * @}
  62:Drivers/BSP/Components/stmpe811/stmpe811.c ****   */
  63:Drivers/BSP/Components/stmpe811/stmpe811.c **** 
  64:Drivers/BSP/Components/stmpe811/stmpe811.c **** /** @defgroup STMPE811_Private_Macros
  65:Drivers/BSP/Components/stmpe811/stmpe811.c ****   * @{
  66:Drivers/BSP/Components/stmpe811/stmpe811.c ****   */ 
  67:Drivers/BSP/Components/stmpe811/stmpe811.c **** /**
  68:Drivers/BSP/Components/stmpe811/stmpe811.c ****   * @}
  69:Drivers/BSP/Components/stmpe811/stmpe811.c ****   */ 
  70:Drivers/BSP/Components/stmpe811/stmpe811.c **** 
  71:Drivers/BSP/Components/stmpe811/stmpe811.c **** /** @defgroup STMPE811_Private_Variables
  72:Drivers/BSP/Components/stmpe811/stmpe811.c ****   * @{
  73:Drivers/BSP/Components/stmpe811/stmpe811.c ****   */ 
  74:Drivers/BSP/Components/stmpe811/stmpe811.c **** 
  75:Drivers/BSP/Components/stmpe811/stmpe811.c **** /* Touch screen driver structure initialization */  
  76:Drivers/BSP/Components/stmpe811/stmpe811.c **** TS_DrvTypeDef stmpe811_ts_drv = 
  77:Drivers/BSP/Components/stmpe811/stmpe811.c **** {
  78:Drivers/BSP/Components/stmpe811/stmpe811.c ****   stmpe811_Init,
  79:Drivers/BSP/Components/stmpe811/stmpe811.c ****   stmpe811_ReadID,
  80:Drivers/BSP/Components/stmpe811/stmpe811.c ****   stmpe811_Reset,
  81:Drivers/BSP/Components/stmpe811/stmpe811.c ****   stmpe811_TS_Start,
  82:Drivers/BSP/Components/stmpe811/stmpe811.c ****   stmpe811_TS_DetectTouch,
  83:Drivers/BSP/Components/stmpe811/stmpe811.c ****   stmpe811_TS_GetXY,
  84:Drivers/BSP/Components/stmpe811/stmpe811.c ****   stmpe811_TS_EnableIT,
  85:Drivers/BSP/Components/stmpe811/stmpe811.c ****   stmpe811_TS_ClearIT,
  86:Drivers/BSP/Components/stmpe811/stmpe811.c ****   stmpe811_TS_ITStatus,
  87:Drivers/BSP/Components/stmpe811/stmpe811.c ****   stmpe811_TS_DisableIT,
  88:Drivers/BSP/Components/stmpe811/stmpe811.c **** };
ARM GAS  /var/folders/n6/c271nzx11xl4r4_m7sqjlt0m0000gn/T//cc2SfOSY.s 			page 3


  89:Drivers/BSP/Components/stmpe811/stmpe811.c **** 
  90:Drivers/BSP/Components/stmpe811/stmpe811.c **** /* IO driver structure initialization */ 
  91:Drivers/BSP/Components/stmpe811/stmpe811.c **** IO_DrvTypeDef stmpe811_io_drv = 
  92:Drivers/BSP/Components/stmpe811/stmpe811.c **** {
  93:Drivers/BSP/Components/stmpe811/stmpe811.c ****   stmpe811_Init,
  94:Drivers/BSP/Components/stmpe811/stmpe811.c ****   stmpe811_ReadID,
  95:Drivers/BSP/Components/stmpe811/stmpe811.c ****   stmpe811_Reset,
  96:Drivers/BSP/Components/stmpe811/stmpe811.c ****   stmpe811_IO_Start,
  97:Drivers/BSP/Components/stmpe811/stmpe811.c ****   stmpe811_IO_Config,
  98:Drivers/BSP/Components/stmpe811/stmpe811.c ****   stmpe811_IO_WritePin,
  99:Drivers/BSP/Components/stmpe811/stmpe811.c ****   stmpe811_IO_ReadPin,
 100:Drivers/BSP/Components/stmpe811/stmpe811.c ****   stmpe811_IO_EnableIT,
 101:Drivers/BSP/Components/stmpe811/stmpe811.c ****   stmpe811_IO_DisableIT,
 102:Drivers/BSP/Components/stmpe811/stmpe811.c ****   stmpe811_IO_ITStatus,
 103:Drivers/BSP/Components/stmpe811/stmpe811.c ****   stmpe811_IO_ClearIT,
 104:Drivers/BSP/Components/stmpe811/stmpe811.c **** };
 105:Drivers/BSP/Components/stmpe811/stmpe811.c **** 
 106:Drivers/BSP/Components/stmpe811/stmpe811.c **** /* stmpe811 instances by address */
 107:Drivers/BSP/Components/stmpe811/stmpe811.c **** uint8_t stmpe811[STMPE811_MAX_INSTANCE] = {0};
 108:Drivers/BSP/Components/stmpe811/stmpe811.c **** /**
 109:Drivers/BSP/Components/stmpe811/stmpe811.c ****   * @}
 110:Drivers/BSP/Components/stmpe811/stmpe811.c ****   */ 
 111:Drivers/BSP/Components/stmpe811/stmpe811.c **** 
 112:Drivers/BSP/Components/stmpe811/stmpe811.c **** /** @defgroup STMPE811_Private_Function_Prototypes
 113:Drivers/BSP/Components/stmpe811/stmpe811.c ****   * @{
 114:Drivers/BSP/Components/stmpe811/stmpe811.c ****   */
 115:Drivers/BSP/Components/stmpe811/stmpe811.c **** static uint8_t stmpe811_GetInstance(uint16_t DeviceAddr); 
 116:Drivers/BSP/Components/stmpe811/stmpe811.c **** /**
 117:Drivers/BSP/Components/stmpe811/stmpe811.c ****   * @}
 118:Drivers/BSP/Components/stmpe811/stmpe811.c ****   */ 
 119:Drivers/BSP/Components/stmpe811/stmpe811.c **** 
 120:Drivers/BSP/Components/stmpe811/stmpe811.c **** /** @defgroup STMPE811_Private_Functions
 121:Drivers/BSP/Components/stmpe811/stmpe811.c ****   * @{
 122:Drivers/BSP/Components/stmpe811/stmpe811.c ****   */
 123:Drivers/BSP/Components/stmpe811/stmpe811.c **** 
 124:Drivers/BSP/Components/stmpe811/stmpe811.c **** /**
 125:Drivers/BSP/Components/stmpe811/stmpe811.c ****   * @brief  Initialize the stmpe811 and configure the needed hardware resources
 126:Drivers/BSP/Components/stmpe811/stmpe811.c ****   * @param  DeviceAddr: Device address on communication Bus.
 127:Drivers/BSP/Components/stmpe811/stmpe811.c ****   * @retval None
 128:Drivers/BSP/Components/stmpe811/stmpe811.c ****   */
 129:Drivers/BSP/Components/stmpe811/stmpe811.c **** void stmpe811_Init(uint16_t DeviceAddr)
 130:Drivers/BSP/Components/stmpe811/stmpe811.c **** {
 131:Drivers/BSP/Components/stmpe811/stmpe811.c ****   uint8_t instance;
 132:Drivers/BSP/Components/stmpe811/stmpe811.c ****   uint8_t empty;
 133:Drivers/BSP/Components/stmpe811/stmpe811.c ****   
 134:Drivers/BSP/Components/stmpe811/stmpe811.c ****   /* Check if device instance already exists */
 135:Drivers/BSP/Components/stmpe811/stmpe811.c ****   instance = stmpe811_GetInstance(DeviceAddr);
 136:Drivers/BSP/Components/stmpe811/stmpe811.c ****   
 137:Drivers/BSP/Components/stmpe811/stmpe811.c ****   /* To prevent double initialization */
 138:Drivers/BSP/Components/stmpe811/stmpe811.c ****   if(instance == 0xFF)
 139:Drivers/BSP/Components/stmpe811/stmpe811.c ****   {
 140:Drivers/BSP/Components/stmpe811/stmpe811.c ****     /* Look for empty instance */
 141:Drivers/BSP/Components/stmpe811/stmpe811.c ****     empty = stmpe811_GetInstance(0);
 142:Drivers/BSP/Components/stmpe811/stmpe811.c ****     
 143:Drivers/BSP/Components/stmpe811/stmpe811.c ****     if(empty < STMPE811_MAX_INSTANCE)
 144:Drivers/BSP/Components/stmpe811/stmpe811.c ****     {
 145:Drivers/BSP/Components/stmpe811/stmpe811.c ****       /* Register the current device instance */
ARM GAS  /var/folders/n6/c271nzx11xl4r4_m7sqjlt0m0000gn/T//cc2SfOSY.s 			page 4


 146:Drivers/BSP/Components/stmpe811/stmpe811.c ****       stmpe811[empty] = DeviceAddr;
 147:Drivers/BSP/Components/stmpe811/stmpe811.c ****       
 148:Drivers/BSP/Components/stmpe811/stmpe811.c ****       /* Initialize IO BUS layer */
 149:Drivers/BSP/Components/stmpe811/stmpe811.c ****       IOE_Init(); 
 150:Drivers/BSP/Components/stmpe811/stmpe811.c ****       
 151:Drivers/BSP/Components/stmpe811/stmpe811.c ****       /* Generate stmpe811 Software reset */
 152:Drivers/BSP/Components/stmpe811/stmpe811.c ****       stmpe811_Reset(DeviceAddr);
 153:Drivers/BSP/Components/stmpe811/stmpe811.c ****     }
 154:Drivers/BSP/Components/stmpe811/stmpe811.c ****   }
 155:Drivers/BSP/Components/stmpe811/stmpe811.c **** }
 156:Drivers/BSP/Components/stmpe811/stmpe811.c ****  
 157:Drivers/BSP/Components/stmpe811/stmpe811.c **** /**
 158:Drivers/BSP/Components/stmpe811/stmpe811.c ****   * @brief  Reset the stmpe811 by Software.
 159:Drivers/BSP/Components/stmpe811/stmpe811.c ****   * @param  DeviceAddr: Device address on communication Bus.  
 160:Drivers/BSP/Components/stmpe811/stmpe811.c ****   * @retval None
 161:Drivers/BSP/Components/stmpe811/stmpe811.c ****   */
 162:Drivers/BSP/Components/stmpe811/stmpe811.c **** void stmpe811_Reset(uint16_t DeviceAddr)
 163:Drivers/BSP/Components/stmpe811/stmpe811.c **** {
 164:Drivers/BSP/Components/stmpe811/stmpe811.c ****   /* Power Down the stmpe811 */  
 165:Drivers/BSP/Components/stmpe811/stmpe811.c ****   IOE_Write(DeviceAddr, STMPE811_REG_SYS_CTRL1, 2);
 166:Drivers/BSP/Components/stmpe811/stmpe811.c **** 
 167:Drivers/BSP/Components/stmpe811/stmpe811.c ****   /* Wait for a delay to ensure registers erasing */
 168:Drivers/BSP/Components/stmpe811/stmpe811.c ****   IOE_Delay(10); 
 169:Drivers/BSP/Components/stmpe811/stmpe811.c ****   
 170:Drivers/BSP/Components/stmpe811/stmpe811.c ****   /* Power On the Codec after the power off => all registers are reinitialized */
 171:Drivers/BSP/Components/stmpe811/stmpe811.c ****   IOE_Write(DeviceAddr, STMPE811_REG_SYS_CTRL1, 0);
 172:Drivers/BSP/Components/stmpe811/stmpe811.c ****   
 173:Drivers/BSP/Components/stmpe811/stmpe811.c ****   /* Wait for a delay to ensure registers erasing */
 174:Drivers/BSP/Components/stmpe811/stmpe811.c ****   IOE_Delay(2); 
 175:Drivers/BSP/Components/stmpe811/stmpe811.c **** }
 176:Drivers/BSP/Components/stmpe811/stmpe811.c **** 
 177:Drivers/BSP/Components/stmpe811/stmpe811.c **** /**
 178:Drivers/BSP/Components/stmpe811/stmpe811.c ****   * @brief  Read the stmpe811 IO Expander device ID.
 179:Drivers/BSP/Components/stmpe811/stmpe811.c ****   * @param  DeviceAddr: Device address on communication Bus.  
 180:Drivers/BSP/Components/stmpe811/stmpe811.c ****   * @retval The Device ID (two bytes).
 181:Drivers/BSP/Components/stmpe811/stmpe811.c ****   */
 182:Drivers/BSP/Components/stmpe811/stmpe811.c **** uint16_t stmpe811_ReadID(uint16_t DeviceAddr)
 183:Drivers/BSP/Components/stmpe811/stmpe811.c **** {
 184:Drivers/BSP/Components/stmpe811/stmpe811.c ****   /* Initialize IO BUS layer */
 185:Drivers/BSP/Components/stmpe811/stmpe811.c ****   IOE_Init(); 
 186:Drivers/BSP/Components/stmpe811/stmpe811.c ****   
 187:Drivers/BSP/Components/stmpe811/stmpe811.c ****   /* Return the device ID value */
 188:Drivers/BSP/Components/stmpe811/stmpe811.c ****   return ((IOE_Read(DeviceAddr, STMPE811_REG_CHP_ID_LSB) << 8) |\
 189:Drivers/BSP/Components/stmpe811/stmpe811.c ****           (IOE_Read(DeviceAddr, STMPE811_REG_CHP_ID_MSB)));
 190:Drivers/BSP/Components/stmpe811/stmpe811.c **** }
 191:Drivers/BSP/Components/stmpe811/stmpe811.c **** 
 192:Drivers/BSP/Components/stmpe811/stmpe811.c **** /**
 193:Drivers/BSP/Components/stmpe811/stmpe811.c ****   * @brief  Enable the Global interrupt.
 194:Drivers/BSP/Components/stmpe811/stmpe811.c ****   * @param  DeviceAddr: Device address on communication Bus.       
 195:Drivers/BSP/Components/stmpe811/stmpe811.c ****   * @retval None
 196:Drivers/BSP/Components/stmpe811/stmpe811.c ****   */
 197:Drivers/BSP/Components/stmpe811/stmpe811.c **** void stmpe811_EnableGlobalIT(uint16_t DeviceAddr)
 198:Drivers/BSP/Components/stmpe811/stmpe811.c **** {
 199:Drivers/BSP/Components/stmpe811/stmpe811.c ****   uint8_t tmp = 0;
 200:Drivers/BSP/Components/stmpe811/stmpe811.c ****   
 201:Drivers/BSP/Components/stmpe811/stmpe811.c ****   /* Read the Interrupt Control register  */
 202:Drivers/BSP/Components/stmpe811/stmpe811.c ****   tmp = IOE_Read(DeviceAddr, STMPE811_REG_INT_CTRL);
ARM GAS  /var/folders/n6/c271nzx11xl4r4_m7sqjlt0m0000gn/T//cc2SfOSY.s 			page 5


 203:Drivers/BSP/Components/stmpe811/stmpe811.c ****   
 204:Drivers/BSP/Components/stmpe811/stmpe811.c ****   /* Set the global interrupts to be Enabled */    
 205:Drivers/BSP/Components/stmpe811/stmpe811.c ****   tmp |= (uint8_t)STMPE811_GIT_EN;
 206:Drivers/BSP/Components/stmpe811/stmpe811.c ****   
 207:Drivers/BSP/Components/stmpe811/stmpe811.c ****   /* Write Back the Interrupt Control register */
 208:Drivers/BSP/Components/stmpe811/stmpe811.c ****   IOE_Write(DeviceAddr, STMPE811_REG_INT_CTRL, tmp); 
 209:Drivers/BSP/Components/stmpe811/stmpe811.c **** }
 210:Drivers/BSP/Components/stmpe811/stmpe811.c **** 
 211:Drivers/BSP/Components/stmpe811/stmpe811.c **** /**
 212:Drivers/BSP/Components/stmpe811/stmpe811.c ****   * @brief  Disable the Global interrupt.
 213:Drivers/BSP/Components/stmpe811/stmpe811.c ****   * @param  DeviceAddr: Device address on communication Bus.      
 214:Drivers/BSP/Components/stmpe811/stmpe811.c ****   * @retval None
 215:Drivers/BSP/Components/stmpe811/stmpe811.c ****   */
 216:Drivers/BSP/Components/stmpe811/stmpe811.c **** void stmpe811_DisableGlobalIT(uint16_t DeviceAddr)
 217:Drivers/BSP/Components/stmpe811/stmpe811.c **** {
 218:Drivers/BSP/Components/stmpe811/stmpe811.c ****   uint8_t tmp = 0;
 219:Drivers/BSP/Components/stmpe811/stmpe811.c ****   
 220:Drivers/BSP/Components/stmpe811/stmpe811.c ****   /* Read the Interrupt Control register  */
 221:Drivers/BSP/Components/stmpe811/stmpe811.c ****   tmp = IOE_Read(DeviceAddr, STMPE811_REG_INT_CTRL);
 222:Drivers/BSP/Components/stmpe811/stmpe811.c **** 
 223:Drivers/BSP/Components/stmpe811/stmpe811.c ****   /* Set the global interrupts to be Disabled */    
 224:Drivers/BSP/Components/stmpe811/stmpe811.c ****   tmp &= ~(uint8_t)STMPE811_GIT_EN;
 225:Drivers/BSP/Components/stmpe811/stmpe811.c ****  
 226:Drivers/BSP/Components/stmpe811/stmpe811.c ****   /* Write Back the Interrupt Control register */
 227:Drivers/BSP/Components/stmpe811/stmpe811.c ****   IOE_Write(DeviceAddr, STMPE811_REG_INT_CTRL, tmp);
 228:Drivers/BSP/Components/stmpe811/stmpe811.c ****     
 229:Drivers/BSP/Components/stmpe811/stmpe811.c **** }
 230:Drivers/BSP/Components/stmpe811/stmpe811.c **** 
 231:Drivers/BSP/Components/stmpe811/stmpe811.c **** /**
 232:Drivers/BSP/Components/stmpe811/stmpe811.c ****   * @brief  Enable the interrupt mode for the selected IT source
 233:Drivers/BSP/Components/stmpe811/stmpe811.c ****   * @param  DeviceAddr: Device address on communication Bus.  
 234:Drivers/BSP/Components/stmpe811/stmpe811.c ****   * @param Source: The interrupt source to be configured, could be:
 235:Drivers/BSP/Components/stmpe811/stmpe811.c ****   *   @arg  STMPE811_GIT_IO: IO interrupt 
 236:Drivers/BSP/Components/stmpe811/stmpe811.c ****   *   @arg  STMPE811_GIT_ADC : ADC interrupt    
 237:Drivers/BSP/Components/stmpe811/stmpe811.c ****   *   @arg  STMPE811_GIT_FE : Touch Screen Controller FIFO Error interrupt
 238:Drivers/BSP/Components/stmpe811/stmpe811.c ****   *   @arg  STMPE811_GIT_FF : Touch Screen Controller FIFO Full interrupt      
 239:Drivers/BSP/Components/stmpe811/stmpe811.c ****   *   @arg  STMPE811_GIT_FOV : Touch Screen Controller FIFO Overrun interrupt     
 240:Drivers/BSP/Components/stmpe811/stmpe811.c ****   *   @arg  STMPE811_GIT_FTH : Touch Screen Controller FIFO Threshold interrupt   
 241:Drivers/BSP/Components/stmpe811/stmpe811.c ****   *   @arg  STMPE811_GIT_TOUCH : Touch Screen Controller Touch Detected interrupt  
 242:Drivers/BSP/Components/stmpe811/stmpe811.c ****   * @retval None
 243:Drivers/BSP/Components/stmpe811/stmpe811.c ****   */
 244:Drivers/BSP/Components/stmpe811/stmpe811.c **** void stmpe811_EnableITSource(uint16_t DeviceAddr, uint8_t Source)
 245:Drivers/BSP/Components/stmpe811/stmpe811.c **** {
 246:Drivers/BSP/Components/stmpe811/stmpe811.c ****   uint8_t tmp = 0;
 247:Drivers/BSP/Components/stmpe811/stmpe811.c ****   
 248:Drivers/BSP/Components/stmpe811/stmpe811.c ****   /* Get the current value of the INT_EN register */
 249:Drivers/BSP/Components/stmpe811/stmpe811.c ****   tmp = IOE_Read(DeviceAddr, STMPE811_REG_INT_EN);
 250:Drivers/BSP/Components/stmpe811/stmpe811.c **** 
 251:Drivers/BSP/Components/stmpe811/stmpe811.c ****   /* Set the interrupts to be Enabled */    
 252:Drivers/BSP/Components/stmpe811/stmpe811.c ****   tmp |= Source; 
 253:Drivers/BSP/Components/stmpe811/stmpe811.c ****   
 254:Drivers/BSP/Components/stmpe811/stmpe811.c ****   /* Set the register */
 255:Drivers/BSP/Components/stmpe811/stmpe811.c ****   IOE_Write(DeviceAddr, STMPE811_REG_INT_EN, tmp);   
 256:Drivers/BSP/Components/stmpe811/stmpe811.c **** }
 257:Drivers/BSP/Components/stmpe811/stmpe811.c **** 
 258:Drivers/BSP/Components/stmpe811/stmpe811.c **** /**
 259:Drivers/BSP/Components/stmpe811/stmpe811.c ****   * @brief  Disable the interrupt mode for the selected IT source
ARM GAS  /var/folders/n6/c271nzx11xl4r4_m7sqjlt0m0000gn/T//cc2SfOSY.s 			page 6


 260:Drivers/BSP/Components/stmpe811/stmpe811.c ****   * @param  DeviceAddr: Device address on communication Bus.  
 261:Drivers/BSP/Components/stmpe811/stmpe811.c ****   * @param  Source: The interrupt source to be configured, could be:
 262:Drivers/BSP/Components/stmpe811/stmpe811.c ****   *   @arg  STMPE811_GIT_IO: IO interrupt 
 263:Drivers/BSP/Components/stmpe811/stmpe811.c ****   *   @arg  STMPE811_GIT_ADC : ADC interrupt    
 264:Drivers/BSP/Components/stmpe811/stmpe811.c ****   *   @arg  STMPE811_GIT_FE : Touch Screen Controller FIFO Error interrupt
 265:Drivers/BSP/Components/stmpe811/stmpe811.c ****   *   @arg  STMPE811_GIT_FF : Touch Screen Controller FIFO Full interrupt      
 266:Drivers/BSP/Components/stmpe811/stmpe811.c ****   *   @arg  STMPE811_GIT_FOV : Touch Screen Controller FIFO Overrun interrupt     
 267:Drivers/BSP/Components/stmpe811/stmpe811.c ****   *   @arg  STMPE811_GIT_FTH : Touch Screen Controller FIFO Threshold interrupt   
 268:Drivers/BSP/Components/stmpe811/stmpe811.c ****   *   @arg  STMPE811_GIT_TOUCH : Touch Screen Controller Touch Detected interrupt  
 269:Drivers/BSP/Components/stmpe811/stmpe811.c ****   * @retval None
 270:Drivers/BSP/Components/stmpe811/stmpe811.c ****   */
 271:Drivers/BSP/Components/stmpe811/stmpe811.c **** void stmpe811_DisableITSource(uint16_t DeviceAddr, uint8_t Source)
 272:Drivers/BSP/Components/stmpe811/stmpe811.c **** {
 273:Drivers/BSP/Components/stmpe811/stmpe811.c ****   uint8_t tmp = 0;
 274:Drivers/BSP/Components/stmpe811/stmpe811.c ****   
 275:Drivers/BSP/Components/stmpe811/stmpe811.c ****   /* Get the current value of the INT_EN register */
 276:Drivers/BSP/Components/stmpe811/stmpe811.c ****   tmp = IOE_Read(DeviceAddr, STMPE811_REG_INT_EN);
 277:Drivers/BSP/Components/stmpe811/stmpe811.c **** 
 278:Drivers/BSP/Components/stmpe811/stmpe811.c ****   /* Set the interrupts to be Enabled */    
 279:Drivers/BSP/Components/stmpe811/stmpe811.c ****   tmp &= ~Source; 
 280:Drivers/BSP/Components/stmpe811/stmpe811.c ****   
 281:Drivers/BSP/Components/stmpe811/stmpe811.c ****   /* Set the register */
 282:Drivers/BSP/Components/stmpe811/stmpe811.c ****   IOE_Write(DeviceAddr, STMPE811_REG_INT_EN, tmp);   
 283:Drivers/BSP/Components/stmpe811/stmpe811.c **** }
 284:Drivers/BSP/Components/stmpe811/stmpe811.c **** 
 285:Drivers/BSP/Components/stmpe811/stmpe811.c **** /**
 286:Drivers/BSP/Components/stmpe811/stmpe811.c ****   * @brief  Set the global interrupt Polarity.
 287:Drivers/BSP/Components/stmpe811/stmpe811.c ****   * @param  DeviceAddr: Device address on communication Bus.  
 288:Drivers/BSP/Components/stmpe811/stmpe811.c ****   * @param  Polarity: the IT mode polarity, could be one of the following values:
 289:Drivers/BSP/Components/stmpe811/stmpe811.c ****   *   @arg  STMPE811_POLARITY_LOW: Interrupt line is active Low/Falling edge      
 290:Drivers/BSP/Components/stmpe811/stmpe811.c ****   *   @arg  STMPE811_POLARITY_HIGH: Interrupt line is active High/Rising edge              
 291:Drivers/BSP/Components/stmpe811/stmpe811.c ****   * @retval None
 292:Drivers/BSP/Components/stmpe811/stmpe811.c ****   */
 293:Drivers/BSP/Components/stmpe811/stmpe811.c **** void stmpe811_SetITPolarity(uint16_t DeviceAddr, uint8_t Polarity)
 294:Drivers/BSP/Components/stmpe811/stmpe811.c **** {
 295:Drivers/BSP/Components/stmpe811/stmpe811.c ****   uint8_t tmp = 0;
 296:Drivers/BSP/Components/stmpe811/stmpe811.c ****   
 297:Drivers/BSP/Components/stmpe811/stmpe811.c ****   /* Get the current register value */ 
 298:Drivers/BSP/Components/stmpe811/stmpe811.c ****   tmp = IOE_Read(DeviceAddr, STMPE811_REG_INT_CTRL);
 299:Drivers/BSP/Components/stmpe811/stmpe811.c ****   
 300:Drivers/BSP/Components/stmpe811/stmpe811.c ****   /* Mask the polarity bits */
 301:Drivers/BSP/Components/stmpe811/stmpe811.c ****   tmp &= ~(uint8_t)0x04;
 302:Drivers/BSP/Components/stmpe811/stmpe811.c ****     
 303:Drivers/BSP/Components/stmpe811/stmpe811.c ****   /* Modify the Interrupt Output line configuration */
 304:Drivers/BSP/Components/stmpe811/stmpe811.c ****   tmp |= Polarity;
 305:Drivers/BSP/Components/stmpe811/stmpe811.c ****   
 306:Drivers/BSP/Components/stmpe811/stmpe811.c ****   /* Set the new register value */
 307:Drivers/BSP/Components/stmpe811/stmpe811.c ****   IOE_Write(DeviceAddr, STMPE811_REG_INT_CTRL, tmp);
 308:Drivers/BSP/Components/stmpe811/stmpe811.c ****  
 309:Drivers/BSP/Components/stmpe811/stmpe811.c **** }
 310:Drivers/BSP/Components/stmpe811/stmpe811.c **** 
 311:Drivers/BSP/Components/stmpe811/stmpe811.c **** /**
 312:Drivers/BSP/Components/stmpe811/stmpe811.c ****   * @brief  Set the global interrupt Type. 
 313:Drivers/BSP/Components/stmpe811/stmpe811.c ****   * @param  DeviceAddr: Device address on communication Bus.      
 314:Drivers/BSP/Components/stmpe811/stmpe811.c ****   * @param  Type: Interrupt line activity type, could be one of the following values:
 315:Drivers/BSP/Components/stmpe811/stmpe811.c ****   *   @arg  STMPE811_TYPE_LEVEL: Interrupt line is active in level model         
 316:Drivers/BSP/Components/stmpe811/stmpe811.c ****   *   @arg  STMPE811_TYPE_EDGE: Interrupt line is active in edge model           
ARM GAS  /var/folders/n6/c271nzx11xl4r4_m7sqjlt0m0000gn/T//cc2SfOSY.s 			page 7


 317:Drivers/BSP/Components/stmpe811/stmpe811.c ****   * @retval None
 318:Drivers/BSP/Components/stmpe811/stmpe811.c ****   */
 319:Drivers/BSP/Components/stmpe811/stmpe811.c **** void stmpe811_SetITType(uint16_t DeviceAddr, uint8_t Type)
 320:Drivers/BSP/Components/stmpe811/stmpe811.c **** {
 321:Drivers/BSP/Components/stmpe811/stmpe811.c ****   uint8_t tmp = 0;
 322:Drivers/BSP/Components/stmpe811/stmpe811.c ****   
 323:Drivers/BSP/Components/stmpe811/stmpe811.c ****   /* Get the current register value */ 
 324:Drivers/BSP/Components/stmpe811/stmpe811.c ****   tmp = IOE_Read(DeviceAddr, STMPE811_REG_INT_CTRL);
 325:Drivers/BSP/Components/stmpe811/stmpe811.c ****   
 326:Drivers/BSP/Components/stmpe811/stmpe811.c ****   /* Mask the type bits */
 327:Drivers/BSP/Components/stmpe811/stmpe811.c ****   tmp &= ~(uint8_t)0x02;
 328:Drivers/BSP/Components/stmpe811/stmpe811.c ****     
 329:Drivers/BSP/Components/stmpe811/stmpe811.c ****   /* Modify the Interrupt Output line configuration */
 330:Drivers/BSP/Components/stmpe811/stmpe811.c ****   tmp |= Type;
 331:Drivers/BSP/Components/stmpe811/stmpe811.c ****   
 332:Drivers/BSP/Components/stmpe811/stmpe811.c ****   /* Set the new register value */
 333:Drivers/BSP/Components/stmpe811/stmpe811.c ****   IOE_Write(DeviceAddr, STMPE811_REG_INT_CTRL, tmp);
 334:Drivers/BSP/Components/stmpe811/stmpe811.c ****  
 335:Drivers/BSP/Components/stmpe811/stmpe811.c **** }
 336:Drivers/BSP/Components/stmpe811/stmpe811.c **** 
 337:Drivers/BSP/Components/stmpe811/stmpe811.c **** /**
 338:Drivers/BSP/Components/stmpe811/stmpe811.c ****   * @brief  Check the selected Global interrupt source pending bit
 339:Drivers/BSP/Components/stmpe811/stmpe811.c ****   * @param  DeviceAddr: Device address on communication Bus. 
 340:Drivers/BSP/Components/stmpe811/stmpe811.c ****   * @param  Source: the Global interrupt source to be checked, could be:
 341:Drivers/BSP/Components/stmpe811/stmpe811.c ****   *   @arg  STMPE811_GIT_IO: IO interrupt 
 342:Drivers/BSP/Components/stmpe811/stmpe811.c ****   *   @arg  STMPE811_GIT_ADC : ADC interrupt    
 343:Drivers/BSP/Components/stmpe811/stmpe811.c ****   *   @arg  STMPE811_GIT_FE : Touch Screen Controller FIFO Error interrupt
 344:Drivers/BSP/Components/stmpe811/stmpe811.c ****   *   @arg  STMPE811_GIT_FF : Touch Screen Controller FIFO Full interrupt      
 345:Drivers/BSP/Components/stmpe811/stmpe811.c ****   *   @arg  STMPE811_GIT_FOV : Touch Screen Controller FIFO Overrun interrupt     
 346:Drivers/BSP/Components/stmpe811/stmpe811.c ****   *   @arg  STMPE811_GIT_FTH : Touch Screen Controller FIFO Threshold interrupt   
 347:Drivers/BSP/Components/stmpe811/stmpe811.c ****   *   @arg  STMPE811_GIT_TOUCH : Touch Screen Controller Touch Detected interrupt      
 348:Drivers/BSP/Components/stmpe811/stmpe811.c ****   * @retval The checked Global interrupt source status.
 349:Drivers/BSP/Components/stmpe811/stmpe811.c ****   */
 350:Drivers/BSP/Components/stmpe811/stmpe811.c **** uint8_t stmpe811_GlobalITStatus(uint16_t DeviceAddr, uint8_t Source)
 351:Drivers/BSP/Components/stmpe811/stmpe811.c **** {
 352:Drivers/BSP/Components/stmpe811/stmpe811.c ****   /* Return the global IT source status */
 353:Drivers/BSP/Components/stmpe811/stmpe811.c ****   return((IOE_Read(DeviceAddr, STMPE811_REG_INT_STA) & Source) == Source);
 354:Drivers/BSP/Components/stmpe811/stmpe811.c **** }
 355:Drivers/BSP/Components/stmpe811/stmpe811.c **** 
 356:Drivers/BSP/Components/stmpe811/stmpe811.c **** /**
 357:Drivers/BSP/Components/stmpe811/stmpe811.c ****   * @brief  Return the Global interrupts status
 358:Drivers/BSP/Components/stmpe811/stmpe811.c ****   * @param  DeviceAddr: Device address on communication Bus. 
 359:Drivers/BSP/Components/stmpe811/stmpe811.c ****   * @param  Source: the Global interrupt source to be checked, could be:
 360:Drivers/BSP/Components/stmpe811/stmpe811.c ****   *   @arg  STMPE811_GIT_IO: IO interrupt 
 361:Drivers/BSP/Components/stmpe811/stmpe811.c ****   *   @arg  STMPE811_GIT_ADC : ADC interrupt    
 362:Drivers/BSP/Components/stmpe811/stmpe811.c ****   *   @arg  STMPE811_GIT_FE : Touch Screen Controller FIFO Error interrupt
 363:Drivers/BSP/Components/stmpe811/stmpe811.c ****   *   @arg  STMPE811_GIT_FF : Touch Screen Controller FIFO Full interrupt      
 364:Drivers/BSP/Components/stmpe811/stmpe811.c ****   *   @arg  STMPE811_GIT_FOV : Touch Screen Controller FIFO Overrun interrupt     
 365:Drivers/BSP/Components/stmpe811/stmpe811.c ****   *   @arg  STMPE811_GIT_FTH : Touch Screen Controller FIFO Threshold interrupt   
 366:Drivers/BSP/Components/stmpe811/stmpe811.c ****   *   @arg  STMPE811_GIT_TOUCH : Touch Screen Controller Touch Detected interrupt      
 367:Drivers/BSP/Components/stmpe811/stmpe811.c ****   * @retval The checked Global interrupt source status.
 368:Drivers/BSP/Components/stmpe811/stmpe811.c ****   */
 369:Drivers/BSP/Components/stmpe811/stmpe811.c **** uint8_t stmpe811_ReadGITStatus(uint16_t DeviceAddr, uint8_t Source)
 370:Drivers/BSP/Components/stmpe811/stmpe811.c **** {
 371:Drivers/BSP/Components/stmpe811/stmpe811.c ****   /* Return the global IT source status */
 372:Drivers/BSP/Components/stmpe811/stmpe811.c ****   return((IOE_Read(DeviceAddr, STMPE811_REG_INT_STA) & Source));
 373:Drivers/BSP/Components/stmpe811/stmpe811.c **** }
ARM GAS  /var/folders/n6/c271nzx11xl4r4_m7sqjlt0m0000gn/T//cc2SfOSY.s 			page 8


 374:Drivers/BSP/Components/stmpe811/stmpe811.c **** 
 375:Drivers/BSP/Components/stmpe811/stmpe811.c **** /**
 376:Drivers/BSP/Components/stmpe811/stmpe811.c ****   * @brief  Clear the selected Global interrupt pending bit(s)
 377:Drivers/BSP/Components/stmpe811/stmpe811.c ****   * @param  DeviceAddr: Device address on communication Bus. 
 378:Drivers/BSP/Components/stmpe811/stmpe811.c ****   * @param  Source: the Global interrupt source to be cleared, could be any combination
 379:Drivers/BSP/Components/stmpe811/stmpe811.c ****   *         of the following values:        
 380:Drivers/BSP/Components/stmpe811/stmpe811.c ****   *   @arg  STMPE811_GIT_IO: IO interrupt 
 381:Drivers/BSP/Components/stmpe811/stmpe811.c ****   *   @arg  STMPE811_GIT_ADC : ADC interrupt    
 382:Drivers/BSP/Components/stmpe811/stmpe811.c ****   *   @arg  STMPE811_GIT_FE : Touch Screen Controller FIFO Error interrupt
 383:Drivers/BSP/Components/stmpe811/stmpe811.c ****   *   @arg  STMPE811_GIT_FF : Touch Screen Controller FIFO Full interrupt      
 384:Drivers/BSP/Components/stmpe811/stmpe811.c ****   *   @arg  STMPE811_GIT_FOV : Touch Screen Controller FIFO Overrun interrupt     
 385:Drivers/BSP/Components/stmpe811/stmpe811.c ****   *   @arg  STMPE811_GIT_FTH : Touch Screen Controller FIFO Threshold interrupt   
 386:Drivers/BSP/Components/stmpe811/stmpe811.c ****   *   @arg  STMPE811_GIT_TOUCH : Touch Screen Controller Touch Detected interrupt 
 387:Drivers/BSP/Components/stmpe811/stmpe811.c ****   * @retval None
 388:Drivers/BSP/Components/stmpe811/stmpe811.c ****   */
 389:Drivers/BSP/Components/stmpe811/stmpe811.c **** void stmpe811_ClearGlobalIT(uint16_t DeviceAddr, uint8_t Source)
 390:Drivers/BSP/Components/stmpe811/stmpe811.c **** {
 391:Drivers/BSP/Components/stmpe811/stmpe811.c ****   /* Write 1 to the bits that have to be cleared */
 392:Drivers/BSP/Components/stmpe811/stmpe811.c ****   IOE_Write(DeviceAddr, STMPE811_REG_INT_STA, Source);
 393:Drivers/BSP/Components/stmpe811/stmpe811.c **** }
 394:Drivers/BSP/Components/stmpe811/stmpe811.c **** 
 395:Drivers/BSP/Components/stmpe811/stmpe811.c **** /**
 396:Drivers/BSP/Components/stmpe811/stmpe811.c ****   * @brief  Start the IO functionality use and disable the AF for selected IO pin(s).
 397:Drivers/BSP/Components/stmpe811/stmpe811.c ****   * @param  DeviceAddr: Device address on communication Bus.  
 398:Drivers/BSP/Components/stmpe811/stmpe811.c ****   * @param  IO_Pin: The IO pin(s) to put in AF. This parameter can be one 
 399:Drivers/BSP/Components/stmpe811/stmpe811.c ****   *         of the following values:
 400:Drivers/BSP/Components/stmpe811/stmpe811.c ****   *   @arg  STMPE811_PIN_x: where x can be from 0 to 7.
 401:Drivers/BSP/Components/stmpe811/stmpe811.c ****   * @retval None
 402:Drivers/BSP/Components/stmpe811/stmpe811.c ****   */
 403:Drivers/BSP/Components/stmpe811/stmpe811.c **** void stmpe811_IO_Start(uint16_t DeviceAddr, uint32_t IO_Pin)
 404:Drivers/BSP/Components/stmpe811/stmpe811.c **** {
 405:Drivers/BSP/Components/stmpe811/stmpe811.c ****   uint8_t mode;
 406:Drivers/BSP/Components/stmpe811/stmpe811.c ****   
 407:Drivers/BSP/Components/stmpe811/stmpe811.c ****   /* Get the current register value */
 408:Drivers/BSP/Components/stmpe811/stmpe811.c ****   mode = IOE_Read(DeviceAddr, STMPE811_REG_SYS_CTRL2);
 409:Drivers/BSP/Components/stmpe811/stmpe811.c ****   
 410:Drivers/BSP/Components/stmpe811/stmpe811.c ****   /* Set the Functionalities to be Disabled */    
 411:Drivers/BSP/Components/stmpe811/stmpe811.c ****   mode &= ~(STMPE811_IO_FCT | STMPE811_ADC_FCT);  
 412:Drivers/BSP/Components/stmpe811/stmpe811.c ****   
 413:Drivers/BSP/Components/stmpe811/stmpe811.c ****   /* Write the new register value */  
 414:Drivers/BSP/Components/stmpe811/stmpe811.c ****   IOE_Write(DeviceAddr, STMPE811_REG_SYS_CTRL2, mode); 
 415:Drivers/BSP/Components/stmpe811/stmpe811.c **** 
 416:Drivers/BSP/Components/stmpe811/stmpe811.c ****   /* Disable AF for the selected IO pin(s) */
 417:Drivers/BSP/Components/stmpe811/stmpe811.c ****   stmpe811_IO_DisableAF(DeviceAddr, (uint8_t)IO_Pin);
 418:Drivers/BSP/Components/stmpe811/stmpe811.c **** }
 419:Drivers/BSP/Components/stmpe811/stmpe811.c **** 
 420:Drivers/BSP/Components/stmpe811/stmpe811.c **** /**
 421:Drivers/BSP/Components/stmpe811/stmpe811.c ****   * @brief  Configures the IO pin(s) according to IO mode structure value.
 422:Drivers/BSP/Components/stmpe811/stmpe811.c ****   * @param  DeviceAddr: Device address on communication Bus.  
 423:Drivers/BSP/Components/stmpe811/stmpe811.c ****   * @param  IO_Pin: The output pin to be set or reset. This parameter can be one 
 424:Drivers/BSP/Components/stmpe811/stmpe811.c ****   *         of the following values:   
 425:Drivers/BSP/Components/stmpe811/stmpe811.c ****   *   @arg  STMPE811_PIN_x: where x can be from 0 to 7.
 426:Drivers/BSP/Components/stmpe811/stmpe811.c ****   * @param  IO_Mode: The IO pin mode to configure, could be one of the following values:
 427:Drivers/BSP/Components/stmpe811/stmpe811.c ****   *   @arg  IO_MODE_INPUT
 428:Drivers/BSP/Components/stmpe811/stmpe811.c ****   *   @arg  IO_MODE_OUTPUT
 429:Drivers/BSP/Components/stmpe811/stmpe811.c ****   *   @arg  IO_MODE_IT_RISING_EDGE
 430:Drivers/BSP/Components/stmpe811/stmpe811.c ****   *   @arg  IO_MODE_IT_FALLING_EDGE
ARM GAS  /var/folders/n6/c271nzx11xl4r4_m7sqjlt0m0000gn/T//cc2SfOSY.s 			page 9


 431:Drivers/BSP/Components/stmpe811/stmpe811.c ****   *   @arg  IO_MODE_IT_LOW_LEVEL
 432:Drivers/BSP/Components/stmpe811/stmpe811.c ****   *   @arg  IO_MODE_IT_HIGH_LEVEL            
 433:Drivers/BSP/Components/stmpe811/stmpe811.c ****   * @retval 0 if no error, IO_Mode if error
 434:Drivers/BSP/Components/stmpe811/stmpe811.c ****   */
 435:Drivers/BSP/Components/stmpe811/stmpe811.c **** uint8_t stmpe811_IO_Config(uint16_t DeviceAddr, uint32_t IO_Pin, IO_ModeTypedef IO_Mode)
 436:Drivers/BSP/Components/stmpe811/stmpe811.c **** {
 437:Drivers/BSP/Components/stmpe811/stmpe811.c ****   uint8_t error_code = 0;
 438:Drivers/BSP/Components/stmpe811/stmpe811.c **** 
 439:Drivers/BSP/Components/stmpe811/stmpe811.c ****   /* Configure IO pin according to selected IO mode */
 440:Drivers/BSP/Components/stmpe811/stmpe811.c ****   switch(IO_Mode)
 441:Drivers/BSP/Components/stmpe811/stmpe811.c ****   {
 442:Drivers/BSP/Components/stmpe811/stmpe811.c ****   case IO_MODE_INPUT: /* Input mode */
 443:Drivers/BSP/Components/stmpe811/stmpe811.c ****     stmpe811_IO_InitPin(DeviceAddr, IO_Pin, STMPE811_DIRECTION_IN);
 444:Drivers/BSP/Components/stmpe811/stmpe811.c ****     break;
 445:Drivers/BSP/Components/stmpe811/stmpe811.c ****     
 446:Drivers/BSP/Components/stmpe811/stmpe811.c ****   case IO_MODE_OUTPUT: /* Output mode */
 447:Drivers/BSP/Components/stmpe811/stmpe811.c ****     stmpe811_IO_InitPin(DeviceAddr, IO_Pin, STMPE811_DIRECTION_OUT);
 448:Drivers/BSP/Components/stmpe811/stmpe811.c ****     break;
 449:Drivers/BSP/Components/stmpe811/stmpe811.c ****   
 450:Drivers/BSP/Components/stmpe811/stmpe811.c ****   case IO_MODE_IT_RISING_EDGE: /* Interrupt rising edge mode */
 451:Drivers/BSP/Components/stmpe811/stmpe811.c ****     stmpe811_IO_EnableIT(DeviceAddr);
 452:Drivers/BSP/Components/stmpe811/stmpe811.c ****     stmpe811_IO_EnablePinIT(DeviceAddr, IO_Pin);
 453:Drivers/BSP/Components/stmpe811/stmpe811.c ****     stmpe811_IO_InitPin(DeviceAddr, IO_Pin, STMPE811_DIRECTION_IN); 
 454:Drivers/BSP/Components/stmpe811/stmpe811.c ****     stmpe811_SetITType(DeviceAddr, STMPE811_TYPE_EDGE);      
 455:Drivers/BSP/Components/stmpe811/stmpe811.c ****     stmpe811_IO_SetEdgeMode(DeviceAddr, IO_Pin, STMPE811_EDGE_RISING); 
 456:Drivers/BSP/Components/stmpe811/stmpe811.c ****     break;
 457:Drivers/BSP/Components/stmpe811/stmpe811.c ****   
 458:Drivers/BSP/Components/stmpe811/stmpe811.c ****   case IO_MODE_IT_FALLING_EDGE: /* Interrupt falling edge mode */
 459:Drivers/BSP/Components/stmpe811/stmpe811.c ****     stmpe811_IO_EnableIT(DeviceAddr);
 460:Drivers/BSP/Components/stmpe811/stmpe811.c ****     stmpe811_IO_EnablePinIT(DeviceAddr, IO_Pin);
 461:Drivers/BSP/Components/stmpe811/stmpe811.c ****     stmpe811_IO_InitPin(DeviceAddr, IO_Pin, STMPE811_DIRECTION_IN); 
 462:Drivers/BSP/Components/stmpe811/stmpe811.c ****     stmpe811_SetITType(DeviceAddr, STMPE811_TYPE_EDGE);    
 463:Drivers/BSP/Components/stmpe811/stmpe811.c ****     stmpe811_IO_SetEdgeMode(DeviceAddr, IO_Pin, STMPE811_EDGE_FALLING); 
 464:Drivers/BSP/Components/stmpe811/stmpe811.c ****     break;
 465:Drivers/BSP/Components/stmpe811/stmpe811.c ****   
 466:Drivers/BSP/Components/stmpe811/stmpe811.c ****   case IO_MODE_IT_LOW_LEVEL: /* Low level interrupt mode */
 467:Drivers/BSP/Components/stmpe811/stmpe811.c ****     stmpe811_IO_EnableIT(DeviceAddr);
 468:Drivers/BSP/Components/stmpe811/stmpe811.c ****     stmpe811_IO_EnablePinIT(DeviceAddr, IO_Pin);
 469:Drivers/BSP/Components/stmpe811/stmpe811.c ****     stmpe811_IO_InitPin(DeviceAddr, IO_Pin, STMPE811_DIRECTION_IN); 
 470:Drivers/BSP/Components/stmpe811/stmpe811.c ****     stmpe811_SetITType(DeviceAddr, STMPE811_TYPE_LEVEL);
 471:Drivers/BSP/Components/stmpe811/stmpe811.c ****     stmpe811_SetITPolarity(DeviceAddr, STMPE811_POLARITY_LOW);      
 472:Drivers/BSP/Components/stmpe811/stmpe811.c ****     break;
 473:Drivers/BSP/Components/stmpe811/stmpe811.c ****     
 474:Drivers/BSP/Components/stmpe811/stmpe811.c ****   case IO_MODE_IT_HIGH_LEVEL: /* High level interrupt mode */
 475:Drivers/BSP/Components/stmpe811/stmpe811.c ****     stmpe811_IO_EnableIT(DeviceAddr);
 476:Drivers/BSP/Components/stmpe811/stmpe811.c ****     stmpe811_IO_EnablePinIT(DeviceAddr, IO_Pin);
 477:Drivers/BSP/Components/stmpe811/stmpe811.c ****     stmpe811_IO_InitPin(DeviceAddr, IO_Pin, STMPE811_DIRECTION_IN); 
 478:Drivers/BSP/Components/stmpe811/stmpe811.c ****     stmpe811_SetITType(DeviceAddr, STMPE811_TYPE_LEVEL);
 479:Drivers/BSP/Components/stmpe811/stmpe811.c ****     stmpe811_SetITPolarity(DeviceAddr, STMPE811_POLARITY_HIGH);  
 480:Drivers/BSP/Components/stmpe811/stmpe811.c ****     break;    
 481:Drivers/BSP/Components/stmpe811/stmpe811.c **** 
 482:Drivers/BSP/Components/stmpe811/stmpe811.c ****   default:
 483:Drivers/BSP/Components/stmpe811/stmpe811.c ****     error_code = (uint8_t) IO_Mode;
 484:Drivers/BSP/Components/stmpe811/stmpe811.c ****     break;
 485:Drivers/BSP/Components/stmpe811/stmpe811.c ****   } 
 486:Drivers/BSP/Components/stmpe811/stmpe811.c ****   return error_code;
 487:Drivers/BSP/Components/stmpe811/stmpe811.c **** }
ARM GAS  /var/folders/n6/c271nzx11xl4r4_m7sqjlt0m0000gn/T//cc2SfOSY.s 			page 10


 488:Drivers/BSP/Components/stmpe811/stmpe811.c **** 
 489:Drivers/BSP/Components/stmpe811/stmpe811.c **** /**
 490:Drivers/BSP/Components/stmpe811/stmpe811.c ****   * @brief  Initialize the selected IO pin direction.
 491:Drivers/BSP/Components/stmpe811/stmpe811.c ****   * @param  DeviceAddr: Device address on communication Bus.
 492:Drivers/BSP/Components/stmpe811/stmpe811.c ****   * @param  IO_Pin: The IO pin to be configured. This parameter could be any 
 493:Drivers/BSP/Components/stmpe811/stmpe811.c ****   *         combination of the following values:
 494:Drivers/BSP/Components/stmpe811/stmpe811.c ****   *   @arg  STMPE811_PIN_x: Where x can be from 0 to 7.   
 495:Drivers/BSP/Components/stmpe811/stmpe811.c ****   * @param  Direction: could be STMPE811_DIRECTION_IN or STMPE811_DIRECTION_OUT.      
 496:Drivers/BSP/Components/stmpe811/stmpe811.c ****   * @retval None
 497:Drivers/BSP/Components/stmpe811/stmpe811.c ****   */
 498:Drivers/BSP/Components/stmpe811/stmpe811.c **** void stmpe811_IO_InitPin(uint16_t DeviceAddr, uint32_t IO_Pin, uint8_t Direction)
 499:Drivers/BSP/Components/stmpe811/stmpe811.c **** {
 500:Drivers/BSP/Components/stmpe811/stmpe811.c ****   uint8_t tmp = 0;   
 501:Drivers/BSP/Components/stmpe811/stmpe811.c ****   
 502:Drivers/BSP/Components/stmpe811/stmpe811.c ****   /* Get all the Pins direction */
 503:Drivers/BSP/Components/stmpe811/stmpe811.c ****   tmp = IOE_Read(DeviceAddr, STMPE811_REG_IO_DIR);
 504:Drivers/BSP/Components/stmpe811/stmpe811.c ****   
 505:Drivers/BSP/Components/stmpe811/stmpe811.c ****   /* Set the selected pin direction */
 506:Drivers/BSP/Components/stmpe811/stmpe811.c ****   if (Direction != STMPE811_DIRECTION_IN)
 507:Drivers/BSP/Components/stmpe811/stmpe811.c ****   {
 508:Drivers/BSP/Components/stmpe811/stmpe811.c ****     tmp |= (uint8_t)IO_Pin;
 509:Drivers/BSP/Components/stmpe811/stmpe811.c ****   }  
 510:Drivers/BSP/Components/stmpe811/stmpe811.c ****   else 
 511:Drivers/BSP/Components/stmpe811/stmpe811.c ****   {
 512:Drivers/BSP/Components/stmpe811/stmpe811.c ****     tmp &= ~(uint8_t)IO_Pin;
 513:Drivers/BSP/Components/stmpe811/stmpe811.c ****   }
 514:Drivers/BSP/Components/stmpe811/stmpe811.c ****   
 515:Drivers/BSP/Components/stmpe811/stmpe811.c ****   /* Write the register new value */
 516:Drivers/BSP/Components/stmpe811/stmpe811.c ****   IOE_Write(DeviceAddr, STMPE811_REG_IO_DIR, tmp);   
 517:Drivers/BSP/Components/stmpe811/stmpe811.c **** }
 518:Drivers/BSP/Components/stmpe811/stmpe811.c **** 
 519:Drivers/BSP/Components/stmpe811/stmpe811.c **** /**
 520:Drivers/BSP/Components/stmpe811/stmpe811.c ****   * @brief  Disable the AF for the selected IO pin(s).
 521:Drivers/BSP/Components/stmpe811/stmpe811.c ****   * @param  DeviceAddr: Device address on communication Bus.  
 522:Drivers/BSP/Components/stmpe811/stmpe811.c ****   * @param  IO_Pin: The IO pin to be configured. This parameter could be any 
 523:Drivers/BSP/Components/stmpe811/stmpe811.c ****   *         combination of the following values:
 524:Drivers/BSP/Components/stmpe811/stmpe811.c ****   *   @arg  STMPE811_PIN_x: Where x can be from 0 to 7.        
 525:Drivers/BSP/Components/stmpe811/stmpe811.c ****   * @retval None
 526:Drivers/BSP/Components/stmpe811/stmpe811.c ****   */
 527:Drivers/BSP/Components/stmpe811/stmpe811.c **** void stmpe811_IO_DisableAF(uint16_t DeviceAddr, uint32_t IO_Pin)
 528:Drivers/BSP/Components/stmpe811/stmpe811.c **** {
 529:Drivers/BSP/Components/stmpe811/stmpe811.c ****   uint8_t tmp = 0;
 530:Drivers/BSP/Components/stmpe811/stmpe811.c ****   
 531:Drivers/BSP/Components/stmpe811/stmpe811.c ****   /* Get the current state of the IO_AF register */
 532:Drivers/BSP/Components/stmpe811/stmpe811.c ****   tmp = IOE_Read(DeviceAddr, STMPE811_REG_IO_AF);
 533:Drivers/BSP/Components/stmpe811/stmpe811.c **** 
 534:Drivers/BSP/Components/stmpe811/stmpe811.c ****   /* Enable the selected pins alternate function */
 535:Drivers/BSP/Components/stmpe811/stmpe811.c ****   tmp |= (uint8_t)IO_Pin;
 536:Drivers/BSP/Components/stmpe811/stmpe811.c **** 
 537:Drivers/BSP/Components/stmpe811/stmpe811.c ****   /* Write back the new value in IO AF register */
 538:Drivers/BSP/Components/stmpe811/stmpe811.c ****   IOE_Write(DeviceAddr, STMPE811_REG_IO_AF, tmp);
 539:Drivers/BSP/Components/stmpe811/stmpe811.c ****   
 540:Drivers/BSP/Components/stmpe811/stmpe811.c **** }
 541:Drivers/BSP/Components/stmpe811/stmpe811.c **** 
 542:Drivers/BSP/Components/stmpe811/stmpe811.c **** /**
 543:Drivers/BSP/Components/stmpe811/stmpe811.c ****   * @brief  Enable the AF for the selected IO pin(s).
 544:Drivers/BSP/Components/stmpe811/stmpe811.c ****   * @param  DeviceAddr: Device address on communication Bus.  
ARM GAS  /var/folders/n6/c271nzx11xl4r4_m7sqjlt0m0000gn/T//cc2SfOSY.s 			page 11


 545:Drivers/BSP/Components/stmpe811/stmpe811.c ****   * @param  IO_Pin: The IO pin to be configured. This parameter could be any 
 546:Drivers/BSP/Components/stmpe811/stmpe811.c ****   *         combination of the following values:
 547:Drivers/BSP/Components/stmpe811/stmpe811.c ****   *   @arg  STMPE811_PIN_x: Where x can be from 0 to 7.       
 548:Drivers/BSP/Components/stmpe811/stmpe811.c ****   * @retval None
 549:Drivers/BSP/Components/stmpe811/stmpe811.c ****   */
 550:Drivers/BSP/Components/stmpe811/stmpe811.c **** void stmpe811_IO_EnableAF(uint16_t DeviceAddr, uint32_t IO_Pin)
 551:Drivers/BSP/Components/stmpe811/stmpe811.c **** {
 552:Drivers/BSP/Components/stmpe811/stmpe811.c ****   uint8_t tmp = 0;
 553:Drivers/BSP/Components/stmpe811/stmpe811.c ****   
 554:Drivers/BSP/Components/stmpe811/stmpe811.c ****   /* Get the current register value */
 555:Drivers/BSP/Components/stmpe811/stmpe811.c ****   tmp = IOE_Read(DeviceAddr, STMPE811_REG_IO_AF);
 556:Drivers/BSP/Components/stmpe811/stmpe811.c **** 
 557:Drivers/BSP/Components/stmpe811/stmpe811.c ****   /* Enable the selected pins alternate function */   
 558:Drivers/BSP/Components/stmpe811/stmpe811.c ****   tmp &= ~(uint8_t)IO_Pin;   
 559:Drivers/BSP/Components/stmpe811/stmpe811.c ****   
 560:Drivers/BSP/Components/stmpe811/stmpe811.c ****   /* Write back the new register value */
 561:Drivers/BSP/Components/stmpe811/stmpe811.c ****   IOE_Write(DeviceAddr, STMPE811_REG_IO_AF, tmp); 
 562:Drivers/BSP/Components/stmpe811/stmpe811.c **** }
 563:Drivers/BSP/Components/stmpe811/stmpe811.c **** 
 564:Drivers/BSP/Components/stmpe811/stmpe811.c **** /**
 565:Drivers/BSP/Components/stmpe811/stmpe811.c ****   * @brief  Configure the Edge for which a transition is detectable for the
 566:Drivers/BSP/Components/stmpe811/stmpe811.c ****   *         selected pin.
 567:Drivers/BSP/Components/stmpe811/stmpe811.c ****   * @param  DeviceAddr: Device address on communication Bus.
 568:Drivers/BSP/Components/stmpe811/stmpe811.c ****   * @param  IO_Pin: The IO pin to be configured. This parameter could be any 
 569:Drivers/BSP/Components/stmpe811/stmpe811.c ****   *         combination of the following values:
 570:Drivers/BSP/Components/stmpe811/stmpe811.c ****   *   @arg  STMPE811_PIN_x: Where x can be from 0 to 7.  
 571:Drivers/BSP/Components/stmpe811/stmpe811.c ****   * @param  Edge: The edge which will be detected. This parameter can be one or
 572:Drivers/BSP/Components/stmpe811/stmpe811.c ****   *         a combination of following values: STMPE811_EDGE_FALLING and STMPE811_EDGE_RISING .
 573:Drivers/BSP/Components/stmpe811/stmpe811.c ****   * @retval None
 574:Drivers/BSP/Components/stmpe811/stmpe811.c ****   */
 575:Drivers/BSP/Components/stmpe811/stmpe811.c **** void stmpe811_IO_SetEdgeMode(uint16_t DeviceAddr, uint32_t IO_Pin, uint8_t Edge)
 576:Drivers/BSP/Components/stmpe811/stmpe811.c **** {
 577:Drivers/BSP/Components/stmpe811/stmpe811.c ****   uint8_t tmp1 = 0, tmp2 = 0;   
 578:Drivers/BSP/Components/stmpe811/stmpe811.c ****   
 579:Drivers/BSP/Components/stmpe811/stmpe811.c ****   /* Get the current registers values */
 580:Drivers/BSP/Components/stmpe811/stmpe811.c ****   tmp1 = IOE_Read(DeviceAddr, STMPE811_REG_IO_FE);
 581:Drivers/BSP/Components/stmpe811/stmpe811.c ****   tmp2 = IOE_Read(DeviceAddr, STMPE811_REG_IO_RE);
 582:Drivers/BSP/Components/stmpe811/stmpe811.c **** 
 583:Drivers/BSP/Components/stmpe811/stmpe811.c ****   /* Disable the Falling Edge */
 584:Drivers/BSP/Components/stmpe811/stmpe811.c ****   tmp1 &= ~(uint8_t)IO_Pin;
 585:Drivers/BSP/Components/stmpe811/stmpe811.c ****   
 586:Drivers/BSP/Components/stmpe811/stmpe811.c ****   /* Disable the Falling Edge */
 587:Drivers/BSP/Components/stmpe811/stmpe811.c ****   tmp2 &= ~(uint8_t)IO_Pin;
 588:Drivers/BSP/Components/stmpe811/stmpe811.c **** 
 589:Drivers/BSP/Components/stmpe811/stmpe811.c ****   /* Enable the Falling edge if selected */
 590:Drivers/BSP/Components/stmpe811/stmpe811.c ****   if (Edge & STMPE811_EDGE_FALLING)
 591:Drivers/BSP/Components/stmpe811/stmpe811.c ****   {
 592:Drivers/BSP/Components/stmpe811/stmpe811.c ****     tmp1 |= (uint8_t)IO_Pin;
 593:Drivers/BSP/Components/stmpe811/stmpe811.c ****   }
 594:Drivers/BSP/Components/stmpe811/stmpe811.c **** 
 595:Drivers/BSP/Components/stmpe811/stmpe811.c ****   /* Enable the Rising edge if selected */
 596:Drivers/BSP/Components/stmpe811/stmpe811.c ****   if (Edge & STMPE811_EDGE_RISING)
 597:Drivers/BSP/Components/stmpe811/stmpe811.c ****   {
 598:Drivers/BSP/Components/stmpe811/stmpe811.c ****     tmp2 |= (uint8_t)IO_Pin;
 599:Drivers/BSP/Components/stmpe811/stmpe811.c ****   }
 600:Drivers/BSP/Components/stmpe811/stmpe811.c **** 
 601:Drivers/BSP/Components/stmpe811/stmpe811.c ****   /* Write back the new registers values */
ARM GAS  /var/folders/n6/c271nzx11xl4r4_m7sqjlt0m0000gn/T//cc2SfOSY.s 			page 12


 602:Drivers/BSP/Components/stmpe811/stmpe811.c ****   IOE_Write(DeviceAddr, STMPE811_REG_IO_FE, tmp1);
 603:Drivers/BSP/Components/stmpe811/stmpe811.c ****   IOE_Write(DeviceAddr, STMPE811_REG_IO_RE, tmp2);
 604:Drivers/BSP/Components/stmpe811/stmpe811.c **** }
 605:Drivers/BSP/Components/stmpe811/stmpe811.c **** 
 606:Drivers/BSP/Components/stmpe811/stmpe811.c **** /**
 607:Drivers/BSP/Components/stmpe811/stmpe811.c ****   * @brief  Write a new IO pin state.
 608:Drivers/BSP/Components/stmpe811/stmpe811.c ****   * @param  DeviceAddr: Device address on communication Bus.  
 609:Drivers/BSP/Components/stmpe811/stmpe811.c ****   * @param IO_Pin: The output pin to be set or reset. This parameter can be one 
 610:Drivers/BSP/Components/stmpe811/stmpe811.c ****   *        of the following values:
 611:Drivers/BSP/Components/stmpe811/stmpe811.c ****   *   @arg  STMPE811_PIN_x: where x can be from 0 to 7. 
 612:Drivers/BSP/Components/stmpe811/stmpe811.c ****   * @param PinState: The new IO pin state.
 613:Drivers/BSP/Components/stmpe811/stmpe811.c ****   * @retval None
 614:Drivers/BSP/Components/stmpe811/stmpe811.c ****   */
 615:Drivers/BSP/Components/stmpe811/stmpe811.c **** void stmpe811_IO_WritePin(uint16_t DeviceAddr, uint32_t IO_Pin, uint8_t PinState)
 616:Drivers/BSP/Components/stmpe811/stmpe811.c **** {
 617:Drivers/BSP/Components/stmpe811/stmpe811.c ****   /* Apply the bit value to the selected pin */
 618:Drivers/BSP/Components/stmpe811/stmpe811.c ****   if (PinState != 0)
 619:Drivers/BSP/Components/stmpe811/stmpe811.c ****   {
 620:Drivers/BSP/Components/stmpe811/stmpe811.c ****     /* Set the register */
 621:Drivers/BSP/Components/stmpe811/stmpe811.c ****     IOE_Write(DeviceAddr, STMPE811_REG_IO_SET_PIN, (uint8_t)IO_Pin);
 622:Drivers/BSP/Components/stmpe811/stmpe811.c ****   }
 623:Drivers/BSP/Components/stmpe811/stmpe811.c ****   else
 624:Drivers/BSP/Components/stmpe811/stmpe811.c ****   {
 625:Drivers/BSP/Components/stmpe811/stmpe811.c ****     /* Set the register */
 626:Drivers/BSP/Components/stmpe811/stmpe811.c ****     IOE_Write(DeviceAddr, STMPE811_REG_IO_CLR_PIN, (uint8_t)IO_Pin);
 627:Drivers/BSP/Components/stmpe811/stmpe811.c ****   } 
 628:Drivers/BSP/Components/stmpe811/stmpe811.c **** }
 629:Drivers/BSP/Components/stmpe811/stmpe811.c **** 
 630:Drivers/BSP/Components/stmpe811/stmpe811.c **** /**
 631:Drivers/BSP/Components/stmpe811/stmpe811.c ****   * @brief  Return the state of the selected IO pin(s).
 632:Drivers/BSP/Components/stmpe811/stmpe811.c ****   * @param  DeviceAddr: Device address on communication Bus.  
 633:Drivers/BSP/Components/stmpe811/stmpe811.c ****   * @param IO_Pin: The output pin to be set or reset. This parameter can be one 
 634:Drivers/BSP/Components/stmpe811/stmpe811.c ****   *        of the following values:
 635:Drivers/BSP/Components/stmpe811/stmpe811.c ****   *   @arg  STMPE811_PIN_x: where x can be from 0 to 7. 
 636:Drivers/BSP/Components/stmpe811/stmpe811.c ****   * @retval IO pin(s) state.
 637:Drivers/BSP/Components/stmpe811/stmpe811.c ****   */
 638:Drivers/BSP/Components/stmpe811/stmpe811.c **** uint32_t stmpe811_IO_ReadPin(uint16_t DeviceAddr, uint32_t IO_Pin)
 639:Drivers/BSP/Components/stmpe811/stmpe811.c **** {
 640:Drivers/BSP/Components/stmpe811/stmpe811.c ****   return((uint32_t)(IOE_Read(DeviceAddr, STMPE811_REG_IO_MP_STA) & (uint8_t)IO_Pin));
 641:Drivers/BSP/Components/stmpe811/stmpe811.c **** }
 642:Drivers/BSP/Components/stmpe811/stmpe811.c **** 
 643:Drivers/BSP/Components/stmpe811/stmpe811.c **** /**
 644:Drivers/BSP/Components/stmpe811/stmpe811.c ****   * @brief  Enable the global IO interrupt source.
 645:Drivers/BSP/Components/stmpe811/stmpe811.c ****   * @param  DeviceAddr: Device address on communication Bus.  
 646:Drivers/BSP/Components/stmpe811/stmpe811.c ****   * @retval None
 647:Drivers/BSP/Components/stmpe811/stmpe811.c ****   */
 648:Drivers/BSP/Components/stmpe811/stmpe811.c **** void stmpe811_IO_EnableIT(uint16_t DeviceAddr)
 649:Drivers/BSP/Components/stmpe811/stmpe811.c **** { 
 650:Drivers/BSP/Components/stmpe811/stmpe811.c ****   IOE_ITConfig();
 651:Drivers/BSP/Components/stmpe811/stmpe811.c ****   
 652:Drivers/BSP/Components/stmpe811/stmpe811.c ****   /* Enable global IO IT source */
 653:Drivers/BSP/Components/stmpe811/stmpe811.c ****   stmpe811_EnableITSource(DeviceAddr, STMPE811_GIT_IO);
 654:Drivers/BSP/Components/stmpe811/stmpe811.c ****   
 655:Drivers/BSP/Components/stmpe811/stmpe811.c ****   /* Enable global interrupt */
 656:Drivers/BSP/Components/stmpe811/stmpe811.c ****   stmpe811_EnableGlobalIT(DeviceAddr); 
 657:Drivers/BSP/Components/stmpe811/stmpe811.c **** }
 658:Drivers/BSP/Components/stmpe811/stmpe811.c **** 
ARM GAS  /var/folders/n6/c271nzx11xl4r4_m7sqjlt0m0000gn/T//cc2SfOSY.s 			page 13


 659:Drivers/BSP/Components/stmpe811/stmpe811.c **** /**
 660:Drivers/BSP/Components/stmpe811/stmpe811.c ****   * @brief  Disable the global IO interrupt source.
 661:Drivers/BSP/Components/stmpe811/stmpe811.c ****   * @param  DeviceAddr: Device address on communication Bus.   
 662:Drivers/BSP/Components/stmpe811/stmpe811.c ****   * @retval None
 663:Drivers/BSP/Components/stmpe811/stmpe811.c ****   */
 664:Drivers/BSP/Components/stmpe811/stmpe811.c **** void stmpe811_IO_DisableIT(uint16_t DeviceAddr)
 665:Drivers/BSP/Components/stmpe811/stmpe811.c **** {
 666:Drivers/BSP/Components/stmpe811/stmpe811.c ****   /* Disable the global interrupt */
 667:Drivers/BSP/Components/stmpe811/stmpe811.c ****   stmpe811_DisableGlobalIT(DeviceAddr);
 668:Drivers/BSP/Components/stmpe811/stmpe811.c ****   
 669:Drivers/BSP/Components/stmpe811/stmpe811.c ****   /* Disable global IO IT source */
 670:Drivers/BSP/Components/stmpe811/stmpe811.c ****   stmpe811_DisableITSource(DeviceAddr, STMPE811_GIT_IO);    
 671:Drivers/BSP/Components/stmpe811/stmpe811.c **** }
 672:Drivers/BSP/Components/stmpe811/stmpe811.c **** 
 673:Drivers/BSP/Components/stmpe811/stmpe811.c **** /**
 674:Drivers/BSP/Components/stmpe811/stmpe811.c ****   * @brief  Enable interrupt mode for the selected IO pin(s).
 675:Drivers/BSP/Components/stmpe811/stmpe811.c ****   * @param  DeviceAddr: Device address on communication Bus.
 676:Drivers/BSP/Components/stmpe811/stmpe811.c ****   * @param  IO_Pin: The IO interrupt to be enabled. This parameter could be any 
 677:Drivers/BSP/Components/stmpe811/stmpe811.c ****   *         combination of the following values:
 678:Drivers/BSP/Components/stmpe811/stmpe811.c ****   *   @arg  STMPE811_PIN_x: where x can be from 0 to 7.
 679:Drivers/BSP/Components/stmpe811/stmpe811.c ****   * @retval None
 680:Drivers/BSP/Components/stmpe811/stmpe811.c ****   */
 681:Drivers/BSP/Components/stmpe811/stmpe811.c **** void stmpe811_IO_EnablePinIT(uint16_t DeviceAddr, uint32_t IO_Pin)
 682:Drivers/BSP/Components/stmpe811/stmpe811.c **** {
 683:Drivers/BSP/Components/stmpe811/stmpe811.c ****   uint8_t tmp = 0;
 684:Drivers/BSP/Components/stmpe811/stmpe811.c ****   
 685:Drivers/BSP/Components/stmpe811/stmpe811.c ****   /* Get the IO interrupt state */
 686:Drivers/BSP/Components/stmpe811/stmpe811.c ****   tmp = IOE_Read(DeviceAddr, STMPE811_REG_IO_INT_EN);
 687:Drivers/BSP/Components/stmpe811/stmpe811.c ****   
 688:Drivers/BSP/Components/stmpe811/stmpe811.c ****   /* Set the interrupts to be enabled */    
 689:Drivers/BSP/Components/stmpe811/stmpe811.c ****   tmp |= (uint8_t)IO_Pin;
 690:Drivers/BSP/Components/stmpe811/stmpe811.c ****   
 691:Drivers/BSP/Components/stmpe811/stmpe811.c ****   /* Write the register new value */
 692:Drivers/BSP/Components/stmpe811/stmpe811.c ****   IOE_Write(DeviceAddr, STMPE811_REG_IO_INT_EN, tmp);  
 693:Drivers/BSP/Components/stmpe811/stmpe811.c **** }
 694:Drivers/BSP/Components/stmpe811/stmpe811.c **** 
 695:Drivers/BSP/Components/stmpe811/stmpe811.c **** /**
 696:Drivers/BSP/Components/stmpe811/stmpe811.c ****   * @brief  Disable interrupt mode for the selected IO pin(s).
 697:Drivers/BSP/Components/stmpe811/stmpe811.c ****   * @param  DeviceAddr: Device address on communication Bus.
 698:Drivers/BSP/Components/stmpe811/stmpe811.c ****   * @param  IO_Pin: The IO interrupt to be disabled. This parameter could be any 
 699:Drivers/BSP/Components/stmpe811/stmpe811.c ****   *         combination of the following values:
 700:Drivers/BSP/Components/stmpe811/stmpe811.c ****   *   @arg  STMPE811_PIN_x: where x can be from 0 to 7.
 701:Drivers/BSP/Components/stmpe811/stmpe811.c ****   * @retval None
 702:Drivers/BSP/Components/stmpe811/stmpe811.c ****   */
 703:Drivers/BSP/Components/stmpe811/stmpe811.c **** void stmpe811_IO_DisablePinIT(uint16_t DeviceAddr, uint32_t IO_Pin)
 704:Drivers/BSP/Components/stmpe811/stmpe811.c **** {
 705:Drivers/BSP/Components/stmpe811/stmpe811.c ****   uint8_t tmp = 0;
 706:Drivers/BSP/Components/stmpe811/stmpe811.c ****   
 707:Drivers/BSP/Components/stmpe811/stmpe811.c ****   /* Get the IO interrupt state */
 708:Drivers/BSP/Components/stmpe811/stmpe811.c ****   tmp = IOE_Read(DeviceAddr, STMPE811_REG_IO_INT_EN);
 709:Drivers/BSP/Components/stmpe811/stmpe811.c ****   
 710:Drivers/BSP/Components/stmpe811/stmpe811.c ****   /* Set the interrupts to be Disabled */    
 711:Drivers/BSP/Components/stmpe811/stmpe811.c ****   tmp &= ~(uint8_t)IO_Pin;
 712:Drivers/BSP/Components/stmpe811/stmpe811.c ****   
 713:Drivers/BSP/Components/stmpe811/stmpe811.c ****   /* Write the register new value */
 714:Drivers/BSP/Components/stmpe811/stmpe811.c ****   IOE_Write(DeviceAddr, STMPE811_REG_IO_INT_EN, tmp);   
 715:Drivers/BSP/Components/stmpe811/stmpe811.c **** }
ARM GAS  /var/folders/n6/c271nzx11xl4r4_m7sqjlt0m0000gn/T//cc2SfOSY.s 			page 14


 716:Drivers/BSP/Components/stmpe811/stmpe811.c **** 
 717:Drivers/BSP/Components/stmpe811/stmpe811.c **** /**
 718:Drivers/BSP/Components/stmpe811/stmpe811.c ****   * @brief  Check the status of the selected IO interrupt pending bit
 719:Drivers/BSP/Components/stmpe811/stmpe811.c ****   * @param  DeviceAddr: Device address on communication Bus.
 720:Drivers/BSP/Components/stmpe811/stmpe811.c ****   * @param  IO_Pin: The IO interrupt to be checked could be:
 721:Drivers/BSP/Components/stmpe811/stmpe811.c ****   *   @arg  STMPE811_PIN_x Where x can be from 0 to 7.             
 722:Drivers/BSP/Components/stmpe811/stmpe811.c ****   * @retval Status of the checked IO pin(s).
 723:Drivers/BSP/Components/stmpe811/stmpe811.c ****   */
 724:Drivers/BSP/Components/stmpe811/stmpe811.c **** uint32_t stmpe811_IO_ITStatus(uint16_t DeviceAddr, uint32_t IO_Pin)
 725:Drivers/BSP/Components/stmpe811/stmpe811.c **** {
 726:Drivers/BSP/Components/stmpe811/stmpe811.c ****   /* Get the Interrupt status */
 727:Drivers/BSP/Components/stmpe811/stmpe811.c ****   return(IOE_Read(DeviceAddr, STMPE811_REG_IO_INT_STA) & (uint8_t)IO_Pin); 
 728:Drivers/BSP/Components/stmpe811/stmpe811.c **** }
 729:Drivers/BSP/Components/stmpe811/stmpe811.c **** 
 730:Drivers/BSP/Components/stmpe811/stmpe811.c **** /**
 731:Drivers/BSP/Components/stmpe811/stmpe811.c ****   * @brief  Clear the selected IO interrupt pending bit(s).
 732:Drivers/BSP/Components/stmpe811/stmpe811.c ****   * @param  DeviceAddr: Device address on communication Bus.
 733:Drivers/BSP/Components/stmpe811/stmpe811.c ****   * @param  IO_Pin: the IO interrupt to be cleared, could be:
 734:Drivers/BSP/Components/stmpe811/stmpe811.c ****   *   @arg  STMPE811_PIN_x: Where x can be from 0 to 7.            
 735:Drivers/BSP/Components/stmpe811/stmpe811.c ****   * @retval None
 736:Drivers/BSP/Components/stmpe811/stmpe811.c ****   */
 737:Drivers/BSP/Components/stmpe811/stmpe811.c **** void stmpe811_IO_ClearIT(uint16_t DeviceAddr, uint32_t IO_Pin)
 738:Drivers/BSP/Components/stmpe811/stmpe811.c **** {
 739:Drivers/BSP/Components/stmpe811/stmpe811.c ****   /* Clear the global IO IT pending bit */
 740:Drivers/BSP/Components/stmpe811/stmpe811.c ****   stmpe811_ClearGlobalIT(DeviceAddr, STMPE811_GIT_IO);
 741:Drivers/BSP/Components/stmpe811/stmpe811.c ****   
 742:Drivers/BSP/Components/stmpe811/stmpe811.c ****   /* Clear the IO IT pending bit(s) */
 743:Drivers/BSP/Components/stmpe811/stmpe811.c ****   IOE_Write(DeviceAddr, STMPE811_REG_IO_INT_STA, (uint8_t)IO_Pin);  
 744:Drivers/BSP/Components/stmpe811/stmpe811.c ****   
 745:Drivers/BSP/Components/stmpe811/stmpe811.c ****   /* Clear the Edge detection pending bit*/
 746:Drivers/BSP/Components/stmpe811/stmpe811.c ****   IOE_Write(DeviceAddr, STMPE811_REG_IO_ED, (uint8_t)IO_Pin);
 747:Drivers/BSP/Components/stmpe811/stmpe811.c ****   
 748:Drivers/BSP/Components/stmpe811/stmpe811.c ****   /* Clear the Rising edge pending bit */
 749:Drivers/BSP/Components/stmpe811/stmpe811.c ****   IOE_Write(DeviceAddr, STMPE811_REG_IO_RE, (uint8_t)IO_Pin);
 750:Drivers/BSP/Components/stmpe811/stmpe811.c ****   
 751:Drivers/BSP/Components/stmpe811/stmpe811.c ****   /* Clear the Falling edge pending bit */
 752:Drivers/BSP/Components/stmpe811/stmpe811.c ****   IOE_Write(DeviceAddr, STMPE811_REG_IO_FE, (uint8_t)IO_Pin); 
 753:Drivers/BSP/Components/stmpe811/stmpe811.c **** }
 754:Drivers/BSP/Components/stmpe811/stmpe811.c **** 
 755:Drivers/BSP/Components/stmpe811/stmpe811.c **** /**
 756:Drivers/BSP/Components/stmpe811/stmpe811.c ****   * @brief  Configures the touch Screen Controller (Single point detection)
 757:Drivers/BSP/Components/stmpe811/stmpe811.c ****   * @param  DeviceAddr: Device address on communication Bus.
 758:Drivers/BSP/Components/stmpe811/stmpe811.c ****   * @retval None.
 759:Drivers/BSP/Components/stmpe811/stmpe811.c ****   */
 760:Drivers/BSP/Components/stmpe811/stmpe811.c **** void stmpe811_TS_Start(uint16_t DeviceAddr)
 761:Drivers/BSP/Components/stmpe811/stmpe811.c **** {
 762:Drivers/BSP/Components/stmpe811/stmpe811.c ****   uint8_t mode;
 763:Drivers/BSP/Components/stmpe811/stmpe811.c ****   
 764:Drivers/BSP/Components/stmpe811/stmpe811.c ****   /* Get the current register value */
 765:Drivers/BSP/Components/stmpe811/stmpe811.c ****   mode = IOE_Read(DeviceAddr, STMPE811_REG_SYS_CTRL2);
 766:Drivers/BSP/Components/stmpe811/stmpe811.c ****   
 767:Drivers/BSP/Components/stmpe811/stmpe811.c ****   /* Set the Functionalities to be Enabled */    
 768:Drivers/BSP/Components/stmpe811/stmpe811.c ****   mode &= ~(STMPE811_IO_FCT);  
 769:Drivers/BSP/Components/stmpe811/stmpe811.c ****   
 770:Drivers/BSP/Components/stmpe811/stmpe811.c ****   /* Write the new register value */  
 771:Drivers/BSP/Components/stmpe811/stmpe811.c ****   IOE_Write(DeviceAddr, STMPE811_REG_SYS_CTRL2, mode); 
 772:Drivers/BSP/Components/stmpe811/stmpe811.c **** 
ARM GAS  /var/folders/n6/c271nzx11xl4r4_m7sqjlt0m0000gn/T//cc2SfOSY.s 			page 15


 773:Drivers/BSP/Components/stmpe811/stmpe811.c ****   /* Select TSC pins in TSC alternate mode */  
 774:Drivers/BSP/Components/stmpe811/stmpe811.c ****   stmpe811_IO_EnableAF(DeviceAddr, STMPE811_TOUCH_IO_ALL);
 775:Drivers/BSP/Components/stmpe811/stmpe811.c ****   
 776:Drivers/BSP/Components/stmpe811/stmpe811.c ****   /* Set the Functionalities to be Enabled */    
 777:Drivers/BSP/Components/stmpe811/stmpe811.c ****   mode &= ~(STMPE811_TS_FCT | STMPE811_ADC_FCT);  
 778:Drivers/BSP/Components/stmpe811/stmpe811.c ****   
 779:Drivers/BSP/Components/stmpe811/stmpe811.c ****   /* Set the new register value */  
 780:Drivers/BSP/Components/stmpe811/stmpe811.c ****   IOE_Write(DeviceAddr, STMPE811_REG_SYS_CTRL2, mode); 
 781:Drivers/BSP/Components/stmpe811/stmpe811.c ****   
 782:Drivers/BSP/Components/stmpe811/stmpe811.c ****   /* Select Sample Time, bit number and ADC Reference */
 783:Drivers/BSP/Components/stmpe811/stmpe811.c ****   IOE_Write(DeviceAddr, STMPE811_REG_ADC_CTRL1, 0x49);
 784:Drivers/BSP/Components/stmpe811/stmpe811.c ****   
 785:Drivers/BSP/Components/stmpe811/stmpe811.c ****   /* Wait for 2 ms */
 786:Drivers/BSP/Components/stmpe811/stmpe811.c ****   IOE_Delay(2); 
 787:Drivers/BSP/Components/stmpe811/stmpe811.c ****   
 788:Drivers/BSP/Components/stmpe811/stmpe811.c ****   /* Select the ADC clock speed: 3.25 MHz */
 789:Drivers/BSP/Components/stmpe811/stmpe811.c ****   IOE_Write(DeviceAddr, STMPE811_REG_ADC_CTRL2, 0x01);
 790:Drivers/BSP/Components/stmpe811/stmpe811.c ****   
 791:Drivers/BSP/Components/stmpe811/stmpe811.c ****   /* Select 2 nF filter capacitor */
 792:Drivers/BSP/Components/stmpe811/stmpe811.c ****   /* Configuration: 
 793:Drivers/BSP/Components/stmpe811/stmpe811.c ****      - Touch average control    : 4 samples
 794:Drivers/BSP/Components/stmpe811/stmpe811.c ****      - Touch delay time         : 500 uS
 795:Drivers/BSP/Components/stmpe811/stmpe811.c ****      - Panel driver setting time: 500 uS 
 796:Drivers/BSP/Components/stmpe811/stmpe811.c ****   */
 797:Drivers/BSP/Components/stmpe811/stmpe811.c ****   IOE_Write(DeviceAddr, STMPE811_REG_TSC_CFG, 0x9A); 
 798:Drivers/BSP/Components/stmpe811/stmpe811.c ****   
 799:Drivers/BSP/Components/stmpe811/stmpe811.c ****   /* Configure the Touch FIFO threshold: single point reading */
 800:Drivers/BSP/Components/stmpe811/stmpe811.c ****   IOE_Write(DeviceAddr, STMPE811_REG_FIFO_TH, 0x01);
 801:Drivers/BSP/Components/stmpe811/stmpe811.c ****   
 802:Drivers/BSP/Components/stmpe811/stmpe811.c ****   /* Clear the FIFO memory content. */
 803:Drivers/BSP/Components/stmpe811/stmpe811.c ****   IOE_Write(DeviceAddr, STMPE811_REG_FIFO_STA, 0x01);
 804:Drivers/BSP/Components/stmpe811/stmpe811.c ****   
 805:Drivers/BSP/Components/stmpe811/stmpe811.c ****   /* Put the FIFO back into operation mode  */
 806:Drivers/BSP/Components/stmpe811/stmpe811.c ****   IOE_Write(DeviceAddr, STMPE811_REG_FIFO_STA, 0x00);
 807:Drivers/BSP/Components/stmpe811/stmpe811.c ****   
 808:Drivers/BSP/Components/stmpe811/stmpe811.c ****   /* Set the range and accuracy pf the pressure measurement (Z) : 
 809:Drivers/BSP/Components/stmpe811/stmpe811.c ****      - Fractional part :7 
 810:Drivers/BSP/Components/stmpe811/stmpe811.c ****      - Whole part      :1 
 811:Drivers/BSP/Components/stmpe811/stmpe811.c ****   */
 812:Drivers/BSP/Components/stmpe811/stmpe811.c ****   IOE_Write(DeviceAddr, STMPE811_REG_TSC_FRACT_XYZ, 0x01);
 813:Drivers/BSP/Components/stmpe811/stmpe811.c ****   
 814:Drivers/BSP/Components/stmpe811/stmpe811.c ****   /* Set the driving capability (limit) of the device for TSC pins: 50mA */
 815:Drivers/BSP/Components/stmpe811/stmpe811.c ****   IOE_Write(DeviceAddr, STMPE811_REG_TSC_I_DRIVE, 0x01);
 816:Drivers/BSP/Components/stmpe811/stmpe811.c ****   
 817:Drivers/BSP/Components/stmpe811/stmpe811.c ****   /* Touch screen control configuration (enable TSC):
 818:Drivers/BSP/Components/stmpe811/stmpe811.c ****      - No window tracking index
 819:Drivers/BSP/Components/stmpe811/stmpe811.c ****      - XYZ acquisition mode
 820:Drivers/BSP/Components/stmpe811/stmpe811.c ****    */
 821:Drivers/BSP/Components/stmpe811/stmpe811.c ****   IOE_Write(DeviceAddr, STMPE811_REG_TSC_CTRL, 0x01);
 822:Drivers/BSP/Components/stmpe811/stmpe811.c ****   
 823:Drivers/BSP/Components/stmpe811/stmpe811.c ****   /*  Clear all the status pending bits if any */
 824:Drivers/BSP/Components/stmpe811/stmpe811.c ****   IOE_Write(DeviceAddr, STMPE811_REG_INT_STA, 0xFF);
 825:Drivers/BSP/Components/stmpe811/stmpe811.c **** 
 826:Drivers/BSP/Components/stmpe811/stmpe811.c ****   /* Wait for 2 ms delay */
 827:Drivers/BSP/Components/stmpe811/stmpe811.c ****   IOE_Delay(2); 
 828:Drivers/BSP/Components/stmpe811/stmpe811.c **** }
 829:Drivers/BSP/Components/stmpe811/stmpe811.c **** 
ARM GAS  /var/folders/n6/c271nzx11xl4r4_m7sqjlt0m0000gn/T//cc2SfOSY.s 			page 16


 830:Drivers/BSP/Components/stmpe811/stmpe811.c **** /**
 831:Drivers/BSP/Components/stmpe811/stmpe811.c ****   * @brief  Return if there is touch detected or not.
 832:Drivers/BSP/Components/stmpe811/stmpe811.c ****   * @param  DeviceAddr: Device address on communication Bus.
 833:Drivers/BSP/Components/stmpe811/stmpe811.c ****   * @retval Touch detected state.
 834:Drivers/BSP/Components/stmpe811/stmpe811.c ****   */
 835:Drivers/BSP/Components/stmpe811/stmpe811.c **** uint8_t stmpe811_TS_DetectTouch(uint16_t DeviceAddr)
 836:Drivers/BSP/Components/stmpe811/stmpe811.c **** {
 837:Drivers/BSP/Components/stmpe811/stmpe811.c ****   uint8_t state;
 838:Drivers/BSP/Components/stmpe811/stmpe811.c ****   uint8_t ret = 0;
 839:Drivers/BSP/Components/stmpe811/stmpe811.c ****   
 840:Drivers/BSP/Components/stmpe811/stmpe811.c ****   state = ((IOE_Read(DeviceAddr, STMPE811_REG_TSC_CTRL) & (uint8_t)STMPE811_TS_CTRL_STATUS) == (uin
 841:Drivers/BSP/Components/stmpe811/stmpe811.c ****   
 842:Drivers/BSP/Components/stmpe811/stmpe811.c ****   if(state > 0)
 843:Drivers/BSP/Components/stmpe811/stmpe811.c ****   {
 844:Drivers/BSP/Components/stmpe811/stmpe811.c ****     if(IOE_Read(DeviceAddr, STMPE811_REG_FIFO_SIZE) > 0)
 845:Drivers/BSP/Components/stmpe811/stmpe811.c ****     {
 846:Drivers/BSP/Components/stmpe811/stmpe811.c ****       ret = 1;
 847:Drivers/BSP/Components/stmpe811/stmpe811.c ****     }
 848:Drivers/BSP/Components/stmpe811/stmpe811.c ****   }
 849:Drivers/BSP/Components/stmpe811/stmpe811.c ****   else
 850:Drivers/BSP/Components/stmpe811/stmpe811.c ****   {
 851:Drivers/BSP/Components/stmpe811/stmpe811.c ****     /* Reset FIFO */
 852:Drivers/BSP/Components/stmpe811/stmpe811.c ****     IOE_Write(DeviceAddr, STMPE811_REG_FIFO_STA, 0x01);
 853:Drivers/BSP/Components/stmpe811/stmpe811.c ****     /* Enable the FIFO again */
 854:Drivers/BSP/Components/stmpe811/stmpe811.c ****     IOE_Write(DeviceAddr, STMPE811_REG_FIFO_STA, 0x00);
 855:Drivers/BSP/Components/stmpe811/stmpe811.c ****   }
 856:Drivers/BSP/Components/stmpe811/stmpe811.c ****   
 857:Drivers/BSP/Components/stmpe811/stmpe811.c ****   return ret;
 858:Drivers/BSP/Components/stmpe811/stmpe811.c **** }
 859:Drivers/BSP/Components/stmpe811/stmpe811.c **** 
 860:Drivers/BSP/Components/stmpe811/stmpe811.c **** /**
 861:Drivers/BSP/Components/stmpe811/stmpe811.c ****   * @brief  Get the touch screen X and Y positions values
 862:Drivers/BSP/Components/stmpe811/stmpe811.c ****   * @param  DeviceAddr: Device address on communication Bus.
 863:Drivers/BSP/Components/stmpe811/stmpe811.c ****   * @param  X: Pointer to X position value
 864:Drivers/BSP/Components/stmpe811/stmpe811.c ****   * @param  Y: Pointer to Y position value   
 865:Drivers/BSP/Components/stmpe811/stmpe811.c ****   * @retval None.
 866:Drivers/BSP/Components/stmpe811/stmpe811.c ****   */
 867:Drivers/BSP/Components/stmpe811/stmpe811.c **** void stmpe811_TS_GetXY(uint16_t DeviceAddr, uint16_t *X, uint16_t *Y)
 868:Drivers/BSP/Components/stmpe811/stmpe811.c **** {
 869:Drivers/BSP/Components/stmpe811/stmpe811.c ****   uint8_t  dataXYZ[4];
 870:Drivers/BSP/Components/stmpe811/stmpe811.c ****   uint32_t uldataXYZ;
 871:Drivers/BSP/Components/stmpe811/stmpe811.c ****   
 872:Drivers/BSP/Components/stmpe811/stmpe811.c ****   IOE_ReadMultiple(DeviceAddr, STMPE811_REG_TSC_DATA_NON_INC, dataXYZ, sizeof(dataXYZ)) ;
 873:Drivers/BSP/Components/stmpe811/stmpe811.c ****   
 874:Drivers/BSP/Components/stmpe811/stmpe811.c ****   /* Calculate positions values */
 875:Drivers/BSP/Components/stmpe811/stmpe811.c ****   uldataXYZ = (dataXYZ[0] << 24)|(dataXYZ[1] << 16)|(dataXYZ[2] << 8)|(dataXYZ[3] << 0);     
 876:Drivers/BSP/Components/stmpe811/stmpe811.c ****   *X = (uldataXYZ >> 20) & 0x00000FFF;     
 877:Drivers/BSP/Components/stmpe811/stmpe811.c ****   *Y = (uldataXYZ >>  8) & 0x00000FFF;     
 878:Drivers/BSP/Components/stmpe811/stmpe811.c ****   
 879:Drivers/BSP/Components/stmpe811/stmpe811.c ****   /* Reset FIFO */
 880:Drivers/BSP/Components/stmpe811/stmpe811.c ****   IOE_Write(DeviceAddr, STMPE811_REG_FIFO_STA, 0x01);
 881:Drivers/BSP/Components/stmpe811/stmpe811.c ****   /* Enable the FIFO again */
 882:Drivers/BSP/Components/stmpe811/stmpe811.c ****   IOE_Write(DeviceAddr, STMPE811_REG_FIFO_STA, 0x00);
 883:Drivers/BSP/Components/stmpe811/stmpe811.c **** }
 884:Drivers/BSP/Components/stmpe811/stmpe811.c **** 
 885:Drivers/BSP/Components/stmpe811/stmpe811.c **** /**
 886:Drivers/BSP/Components/stmpe811/stmpe811.c ****   * @brief  Configure the selected source to generate a global interrupt or not
ARM GAS  /var/folders/n6/c271nzx11xl4r4_m7sqjlt0m0000gn/T//cc2SfOSY.s 			page 17


 887:Drivers/BSP/Components/stmpe811/stmpe811.c ****   * @param  DeviceAddr: Device address on communication Bus.  
 888:Drivers/BSP/Components/stmpe811/stmpe811.c ****   * @retval None
 889:Drivers/BSP/Components/stmpe811/stmpe811.c ****   */
 890:Drivers/BSP/Components/stmpe811/stmpe811.c **** void stmpe811_TS_EnableIT(uint16_t DeviceAddr)
 891:Drivers/BSP/Components/stmpe811/stmpe811.c **** {
 892:Drivers/BSP/Components/stmpe811/stmpe811.c ****   IOE_ITConfig();
 893:Drivers/BSP/Components/stmpe811/stmpe811.c ****   
 894:Drivers/BSP/Components/stmpe811/stmpe811.c ****   /* Enable global TS IT source */
 895:Drivers/BSP/Components/stmpe811/stmpe811.c ****   stmpe811_EnableITSource(DeviceAddr, STMPE811_TS_IT); 
 896:Drivers/BSP/Components/stmpe811/stmpe811.c ****   
 897:Drivers/BSP/Components/stmpe811/stmpe811.c ****   /* Enable global interrupt */
 898:Drivers/BSP/Components/stmpe811/stmpe811.c ****   stmpe811_EnableGlobalIT(DeviceAddr);
 899:Drivers/BSP/Components/stmpe811/stmpe811.c **** }
 900:Drivers/BSP/Components/stmpe811/stmpe811.c **** 
 901:Drivers/BSP/Components/stmpe811/stmpe811.c **** /**
 902:Drivers/BSP/Components/stmpe811/stmpe811.c ****   * @brief  Configure the selected source to generate a global interrupt or not
 903:Drivers/BSP/Components/stmpe811/stmpe811.c ****   * @param  DeviceAddr: Device address on communication Bus.    
 904:Drivers/BSP/Components/stmpe811/stmpe811.c ****   * @retval None
 905:Drivers/BSP/Components/stmpe811/stmpe811.c ****   */
 906:Drivers/BSP/Components/stmpe811/stmpe811.c **** void stmpe811_TS_DisableIT(uint16_t DeviceAddr)
 907:Drivers/BSP/Components/stmpe811/stmpe811.c **** {
 908:Drivers/BSP/Components/stmpe811/stmpe811.c ****   /* Disable global interrupt */
 909:Drivers/BSP/Components/stmpe811/stmpe811.c ****   stmpe811_DisableGlobalIT(DeviceAddr);
 910:Drivers/BSP/Components/stmpe811/stmpe811.c ****   
 911:Drivers/BSP/Components/stmpe811/stmpe811.c ****   /* Disable global TS IT source */
 912:Drivers/BSP/Components/stmpe811/stmpe811.c ****   stmpe811_DisableITSource(DeviceAddr, STMPE811_TS_IT); 
 913:Drivers/BSP/Components/stmpe811/stmpe811.c **** }
 914:Drivers/BSP/Components/stmpe811/stmpe811.c **** 
 915:Drivers/BSP/Components/stmpe811/stmpe811.c **** /**
 916:Drivers/BSP/Components/stmpe811/stmpe811.c ****   * @brief  Configure the selected source to generate a global interrupt or not
 917:Drivers/BSP/Components/stmpe811/stmpe811.c ****   * @param  DeviceAddr: Device address on communication Bus.    
 918:Drivers/BSP/Components/stmpe811/stmpe811.c ****   * @retval TS interrupts status
 919:Drivers/BSP/Components/stmpe811/stmpe811.c ****   */
 920:Drivers/BSP/Components/stmpe811/stmpe811.c **** uint8_t stmpe811_TS_ITStatus(uint16_t DeviceAddr)
 921:Drivers/BSP/Components/stmpe811/stmpe811.c **** {
 922:Drivers/BSP/Components/stmpe811/stmpe811.c ****   /* Return TS interrupts status */
 923:Drivers/BSP/Components/stmpe811/stmpe811.c ****   return(stmpe811_ReadGITStatus(DeviceAddr, STMPE811_TS_IT));
 924:Drivers/BSP/Components/stmpe811/stmpe811.c **** }
 925:Drivers/BSP/Components/stmpe811/stmpe811.c **** 
 926:Drivers/BSP/Components/stmpe811/stmpe811.c **** /**
 927:Drivers/BSP/Components/stmpe811/stmpe811.c ****   * @brief  Configure the selected source to generate a global interrupt or not
 928:Drivers/BSP/Components/stmpe811/stmpe811.c ****   * @param  DeviceAddr: Device address on communication Bus.  
 929:Drivers/BSP/Components/stmpe811/stmpe811.c ****   * @retval None
 930:Drivers/BSP/Components/stmpe811/stmpe811.c ****   */
 931:Drivers/BSP/Components/stmpe811/stmpe811.c **** void stmpe811_TS_ClearIT(uint16_t DeviceAddr)
 932:Drivers/BSP/Components/stmpe811/stmpe811.c **** {
 933:Drivers/BSP/Components/stmpe811/stmpe811.c ****   /* Clear the global TS IT source */
 934:Drivers/BSP/Components/stmpe811/stmpe811.c ****   stmpe811_ClearGlobalIT(DeviceAddr, STMPE811_TS_IT);
 935:Drivers/BSP/Components/stmpe811/stmpe811.c **** }
 936:Drivers/BSP/Components/stmpe811/stmpe811.c **** 
 937:Drivers/BSP/Components/stmpe811/stmpe811.c **** /**
 938:Drivers/BSP/Components/stmpe811/stmpe811.c ****   * @brief  Check if the device instance of the selected address is already registered
 939:Drivers/BSP/Components/stmpe811/stmpe811.c ****   *         and return its index  
 940:Drivers/BSP/Components/stmpe811/stmpe811.c ****   * @param  DeviceAddr: Device address on communication Bus.
 941:Drivers/BSP/Components/stmpe811/stmpe811.c ****   * @retval Index of the device instance if registered, 0xFF if not.
 942:Drivers/BSP/Components/stmpe811/stmpe811.c ****   */
 943:Drivers/BSP/Components/stmpe811/stmpe811.c **** static uint8_t stmpe811_GetInstance(uint16_t DeviceAddr)
ARM GAS  /var/folders/n6/c271nzx11xl4r4_m7sqjlt0m0000gn/T//cc2SfOSY.s 			page 18


 944:Drivers/BSP/Components/stmpe811/stmpe811.c **** {
  28              		.loc 1 944 1 view -0
  29              		.cfi_startproc
  30              		@ args = 0, pretend = 0, frame = 0
  31              		@ frame_needed = 0, uses_anonymous_args = 0
  32              		@ link register save eliminated.
  33              		.loc 1 944 1 is_stmt 0 view .LVU1
  34 0000 0346     		mov	r3, r0
 945:Drivers/BSP/Components/stmpe811/stmpe811.c ****   uint8_t idx = 0;
  35              		.loc 1 945 3 is_stmt 1 view .LVU2
  36              	.LVL1:
 946:Drivers/BSP/Components/stmpe811/stmpe811.c ****   
 947:Drivers/BSP/Components/stmpe811/stmpe811.c ****   /* Check all the registered instances */
 948:Drivers/BSP/Components/stmpe811/stmpe811.c ****   for(idx = 0; idx < STMPE811_MAX_INSTANCE ; idx ++)
  37              		.loc 1 948 3 view .LVU3
  38              		.loc 1 948 11 is_stmt 0 view .LVU4
  39 0002 0020     		movs	r0, #0
  40              	.LVL2:
  41              	.L2:
  42              		.loc 1 948 20 is_stmt 1 discriminator 1 view .LVU5
  43 0004 0128     		cmp	r0, #1
  44 0006 06D8     		bhi	.L5
 949:Drivers/BSP/Components/stmpe811/stmpe811.c ****   {
 950:Drivers/BSP/Components/stmpe811/stmpe811.c ****     if(stmpe811[idx] == DeviceAddr)
  45              		.loc 1 950 5 view .LVU6
  46              		.loc 1 950 16 is_stmt 0 view .LVU7
  47 0008 044A     		ldr	r2, .L6
  48 000a 125C     		ldrb	r2, [r2, r0]	@ zero_extendqisi2
  49              		.loc 1 950 7 view .LVU8
  50 000c 9A42     		cmp	r2, r3
  51 000e 03D0     		beq	.L3
 948:Drivers/BSP/Components/stmpe811/stmpe811.c ****   {
  52              		.loc 1 948 50 is_stmt 1 discriminator 2 view .LVU9
  53 0010 0130     		adds	r0, r0, #1
  54              	.LVL3:
 948:Drivers/BSP/Components/stmpe811/stmpe811.c ****   {
  55              		.loc 1 948 50 is_stmt 0 discriminator 2 view .LVU10
  56 0012 C0B2     		uxtb	r0, r0
  57              	.LVL4:
 948:Drivers/BSP/Components/stmpe811/stmpe811.c ****   {
  58              		.loc 1 948 50 discriminator 2 view .LVU11
  59 0014 F6E7     		b	.L2
  60              	.L5:
 951:Drivers/BSP/Components/stmpe811/stmpe811.c ****     {
 952:Drivers/BSP/Components/stmpe811/stmpe811.c ****       return idx; 
 953:Drivers/BSP/Components/stmpe811/stmpe811.c ****     }
 954:Drivers/BSP/Components/stmpe811/stmpe811.c ****   }
 955:Drivers/BSP/Components/stmpe811/stmpe811.c ****   
 956:Drivers/BSP/Components/stmpe811/stmpe811.c ****   return 0xFF;
  61              		.loc 1 956 10 view .LVU12
  62 0016 FF20     		movs	r0, #255
  63              	.LVL5:
  64              	.L3:
 957:Drivers/BSP/Components/stmpe811/stmpe811.c **** }
  65              		.loc 1 957 1 view .LVU13
  66 0018 7047     		bx	lr
  67              	.L7:
ARM GAS  /var/folders/n6/c271nzx11xl4r4_m7sqjlt0m0000gn/T//cc2SfOSY.s 			page 19


  68 001a 00BF     		.align	2
  69              	.L6:
  70 001c 00000000 		.word	stmpe811
  71              		.cfi_endproc
  72              	.LFE33:
  74              		.section	.text.stmpe811_IO_WritePin,"ax",%progbits
  75              		.align	1
  76              		.global	stmpe811_IO_WritePin
  77              		.syntax unified
  78              		.thumb
  79              		.thumb_func
  81              	stmpe811_IO_WritePin:
  82              	.LVL6:
  83              	.LFB18:
 616:Drivers/BSP/Components/stmpe811/stmpe811.c ****   /* Apply the bit value to the selected pin */
  84              		.loc 1 616 1 is_stmt 1 view -0
  85              		.cfi_startproc
  86              		@ args = 0, pretend = 0, frame = 0
  87              		@ frame_needed = 0, uses_anonymous_args = 0
 616:Drivers/BSP/Components/stmpe811/stmpe811.c ****   /* Apply the bit value to the selected pin */
  88              		.loc 1 616 1 is_stmt 0 view .LVU15
  89 0000 08B5     		push	{r3, lr}
  90              		.cfi_def_cfa_offset 8
  91              		.cfi_offset 3, -8
  92              		.cfi_offset 14, -4
 618:Drivers/BSP/Components/stmpe811/stmpe811.c ****   {
  93              		.loc 1 618 3 is_stmt 1 view .LVU16
 618:Drivers/BSP/Components/stmpe811/stmpe811.c ****   {
  94              		.loc 1 618 6 is_stmt 0 view .LVU17
  95 0002 2AB1     		cbz	r2, .L9
 621:Drivers/BSP/Components/stmpe811/stmpe811.c ****   }
  96              		.loc 1 621 5 is_stmt 1 view .LVU18
  97 0004 CAB2     		uxtb	r2, r1
  98              	.LVL7:
 621:Drivers/BSP/Components/stmpe811/stmpe811.c ****   }
  99              		.loc 1 621 5 is_stmt 0 view .LVU19
 100 0006 1021     		movs	r1, #16
 101              	.LVL8:
 621:Drivers/BSP/Components/stmpe811/stmpe811.c ****   }
 102              		.loc 1 621 5 view .LVU20
 103 0008 C0B2     		uxtb	r0, r0
 104              	.LVL9:
 621:Drivers/BSP/Components/stmpe811/stmpe811.c ****   }
 105              		.loc 1 621 5 view .LVU21
 106 000a FFF7FEFF 		bl	IOE_Write
 107              	.LVL10:
 108              	.L8:
 628:Drivers/BSP/Components/stmpe811/stmpe811.c **** 
 109              		.loc 1 628 1 view .LVU22
 110 000e 08BD     		pop	{r3, pc}
 111              	.LVL11:
 112              	.L9:
 626:Drivers/BSP/Components/stmpe811/stmpe811.c ****   } 
 113              		.loc 1 626 5 is_stmt 1 view .LVU23
 114 0010 CAB2     		uxtb	r2, r1
 115              	.LVL12:
 626:Drivers/BSP/Components/stmpe811/stmpe811.c ****   } 
ARM GAS  /var/folders/n6/c271nzx11xl4r4_m7sqjlt0m0000gn/T//cc2SfOSY.s 			page 20


 116              		.loc 1 626 5 is_stmt 0 view .LVU24
 117 0012 1121     		movs	r1, #17
 118              	.LVL13:
 626:Drivers/BSP/Components/stmpe811/stmpe811.c ****   } 
 119              		.loc 1 626 5 view .LVU25
 120 0014 C0B2     		uxtb	r0, r0
 121              	.LVL14:
 626:Drivers/BSP/Components/stmpe811/stmpe811.c ****   } 
 122              		.loc 1 626 5 view .LVU26
 123 0016 FFF7FEFF 		bl	IOE_Write
 124              	.LVL15:
 628:Drivers/BSP/Components/stmpe811/stmpe811.c **** 
 125              		.loc 1 628 1 view .LVU27
 126 001a F8E7     		b	.L8
 127              		.cfi_endproc
 128              	.LFE18:
 130              		.section	.text.stmpe811_Reset,"ax",%progbits
 131              		.align	1
 132              		.global	stmpe811_Reset
 133              		.syntax unified
 134              		.thumb
 135              		.thumb_func
 137              	stmpe811_Reset:
 138              	.LVL16:
 139              	.LFB1:
 163:Drivers/BSP/Components/stmpe811/stmpe811.c ****   /* Power Down the stmpe811 */  
 140              		.loc 1 163 1 is_stmt 1 view -0
 141              		.cfi_startproc
 142              		@ args = 0, pretend = 0, frame = 0
 143              		@ frame_needed = 0, uses_anonymous_args = 0
 163:Drivers/BSP/Components/stmpe811/stmpe811.c ****   /* Power Down the stmpe811 */  
 144              		.loc 1 163 1 is_stmt 0 view .LVU29
 145 0000 10B5     		push	{r4, lr}
 146              		.cfi_def_cfa_offset 8
 147              		.cfi_offset 4, -8
 148              		.cfi_offset 14, -4
 165:Drivers/BSP/Components/stmpe811/stmpe811.c **** 
 149              		.loc 1 165 3 is_stmt 1 view .LVU30
 150 0002 C4B2     		uxtb	r4, r0
 151 0004 0222     		movs	r2, #2
 152 0006 0321     		movs	r1, #3
 153 0008 2046     		mov	r0, r4
 154              	.LVL17:
 165:Drivers/BSP/Components/stmpe811/stmpe811.c **** 
 155              		.loc 1 165 3 is_stmt 0 view .LVU31
 156 000a FFF7FEFF 		bl	IOE_Write
 157              	.LVL18:
 168:Drivers/BSP/Components/stmpe811/stmpe811.c ****   
 158              		.loc 1 168 3 is_stmt 1 view .LVU32
 159 000e 0A20     		movs	r0, #10
 160 0010 FFF7FEFF 		bl	IOE_Delay
 161              	.LVL19:
 171:Drivers/BSP/Components/stmpe811/stmpe811.c ****   
 162              		.loc 1 171 3 view .LVU33
 163 0014 0022     		movs	r2, #0
 164 0016 0321     		movs	r1, #3
 165 0018 2046     		mov	r0, r4
ARM GAS  /var/folders/n6/c271nzx11xl4r4_m7sqjlt0m0000gn/T//cc2SfOSY.s 			page 21


 166 001a FFF7FEFF 		bl	IOE_Write
 167              	.LVL20:
 174:Drivers/BSP/Components/stmpe811/stmpe811.c **** }
 168              		.loc 1 174 3 view .LVU34
 169 001e 0220     		movs	r0, #2
 170 0020 FFF7FEFF 		bl	IOE_Delay
 171              	.LVL21:
 175:Drivers/BSP/Components/stmpe811/stmpe811.c **** 
 172              		.loc 1 175 1 is_stmt 0 view .LVU35
 173 0024 10BD     		pop	{r4, pc}
 174              		.cfi_endproc
 175              	.LFE1:
 177              		.section	.text.stmpe811_Init,"ax",%progbits
 178              		.align	1
 179              		.global	stmpe811_Init
 180              		.syntax unified
 181              		.thumb
 182              		.thumb_func
 184              	stmpe811_Init:
 185              	.LVL22:
 186              	.LFB0:
 130:Drivers/BSP/Components/stmpe811/stmpe811.c ****   uint8_t instance;
 187              		.loc 1 130 1 is_stmt 1 view -0
 188              		.cfi_startproc
 189              		@ args = 0, pretend = 0, frame = 0
 190              		@ frame_needed = 0, uses_anonymous_args = 0
 130:Drivers/BSP/Components/stmpe811/stmpe811.c ****   uint8_t instance;
 191              		.loc 1 130 1 is_stmt 0 view .LVU37
 192 0000 10B5     		push	{r4, lr}
 193              		.cfi_def_cfa_offset 8
 194              		.cfi_offset 4, -8
 195              		.cfi_offset 14, -4
 196 0002 0446     		mov	r4, r0
 131:Drivers/BSP/Components/stmpe811/stmpe811.c ****   uint8_t empty;
 197              		.loc 1 131 3 is_stmt 1 view .LVU38
 132:Drivers/BSP/Components/stmpe811/stmpe811.c ****   
 198              		.loc 1 132 3 view .LVU39
 135:Drivers/BSP/Components/stmpe811/stmpe811.c ****   
 199              		.loc 1 135 3 view .LVU40
 135:Drivers/BSP/Components/stmpe811/stmpe811.c ****   
 200              		.loc 1 135 14 is_stmt 0 view .LVU41
 201 0004 FFF7FEFF 		bl	stmpe811_GetInstance
 202              	.LVL23:
 138:Drivers/BSP/Components/stmpe811/stmpe811.c ****   {
 203              		.loc 1 138 3 is_stmt 1 view .LVU42
 138:Drivers/BSP/Components/stmpe811/stmpe811.c ****   {
 204              		.loc 1 138 5 is_stmt 0 view .LVU43
 205 0008 FF28     		cmp	r0, #255
 206 000a 00D0     		beq	.L17
 207              	.LVL24:
 208              	.L14:
 155:Drivers/BSP/Components/stmpe811/stmpe811.c ****  
 209              		.loc 1 155 1 view .LVU44
 210 000c 10BD     		pop	{r4, pc}
 211              	.LVL25:
 212              	.L17:
 141:Drivers/BSP/Components/stmpe811/stmpe811.c ****     
ARM GAS  /var/folders/n6/c271nzx11xl4r4_m7sqjlt0m0000gn/T//cc2SfOSY.s 			page 22


 213              		.loc 1 141 5 is_stmt 1 view .LVU45
 141:Drivers/BSP/Components/stmpe811/stmpe811.c ****     
 214              		.loc 1 141 13 is_stmt 0 view .LVU46
 215 000e 0020     		movs	r0, #0
 216              	.LVL26:
 141:Drivers/BSP/Components/stmpe811/stmpe811.c ****     
 217              		.loc 1 141 13 view .LVU47
 218 0010 FFF7FEFF 		bl	stmpe811_GetInstance
 219              	.LVL27:
 143:Drivers/BSP/Components/stmpe811/stmpe811.c ****     {
 220              		.loc 1 143 5 is_stmt 1 view .LVU48
 143:Drivers/BSP/Components/stmpe811/stmpe811.c ****     {
 221              		.loc 1 143 7 is_stmt 0 view .LVU49
 222 0014 0128     		cmp	r0, #1
 223 0016 F9D8     		bhi	.L14
 146:Drivers/BSP/Components/stmpe811/stmpe811.c ****       
 224              		.loc 1 146 7 is_stmt 1 view .LVU50
 146:Drivers/BSP/Components/stmpe811/stmpe811.c ****       
 225              		.loc 1 146 23 is_stmt 0 view .LVU51
 226 0018 034B     		ldr	r3, .L18
 227 001a 1C54     		strb	r4, [r3, r0]
 149:Drivers/BSP/Components/stmpe811/stmpe811.c ****       
 228              		.loc 1 149 7 is_stmt 1 view .LVU52
 229 001c FFF7FEFF 		bl	IOE_Init
 230              	.LVL28:
 152:Drivers/BSP/Components/stmpe811/stmpe811.c ****     }
 231              		.loc 1 152 7 view .LVU53
 232 0020 2046     		mov	r0, r4
 233 0022 FFF7FEFF 		bl	stmpe811_Reset
 234              	.LVL29:
 155:Drivers/BSP/Components/stmpe811/stmpe811.c ****  
 235              		.loc 1 155 1 is_stmt 0 view .LVU54
 236 0026 F1E7     		b	.L14
 237              	.L19:
 238              		.align	2
 239              	.L18:
 240 0028 00000000 		.word	stmpe811
 241              		.cfi_endproc
 242              	.LFE0:
 244              		.section	.text.stmpe811_ReadID,"ax",%progbits
 245              		.align	1
 246              		.global	stmpe811_ReadID
 247              		.syntax unified
 248              		.thumb
 249              		.thumb_func
 251              	stmpe811_ReadID:
 252              	.LVL30:
 253              	.LFB2:
 183:Drivers/BSP/Components/stmpe811/stmpe811.c ****   /* Initialize IO BUS layer */
 254              		.loc 1 183 1 is_stmt 1 view -0
 255              		.cfi_startproc
 256              		@ args = 0, pretend = 0, frame = 0
 257              		@ frame_needed = 0, uses_anonymous_args = 0
 183:Drivers/BSP/Components/stmpe811/stmpe811.c ****   /* Initialize IO BUS layer */
 258              		.loc 1 183 1 is_stmt 0 view .LVU56
 259 0000 38B5     		push	{r3, r4, r5, lr}
 260              		.cfi_def_cfa_offset 16
ARM GAS  /var/folders/n6/c271nzx11xl4r4_m7sqjlt0m0000gn/T//cc2SfOSY.s 			page 23


 261              		.cfi_offset 3, -16
 262              		.cfi_offset 4, -12
 263              		.cfi_offset 5, -8
 264              		.cfi_offset 14, -4
 265 0002 0446     		mov	r4, r0
 185:Drivers/BSP/Components/stmpe811/stmpe811.c ****   
 266              		.loc 1 185 3 is_stmt 1 view .LVU57
 267 0004 FFF7FEFF 		bl	IOE_Init
 268              	.LVL31:
 188:Drivers/BSP/Components/stmpe811/stmpe811.c ****           (IOE_Read(DeviceAddr, STMPE811_REG_CHP_ID_MSB)));
 269              		.loc 1 188 3 view .LVU58
 188:Drivers/BSP/Components/stmpe811/stmpe811.c ****           (IOE_Read(DeviceAddr, STMPE811_REG_CHP_ID_MSB)));
 270              		.loc 1 188 12 is_stmt 0 view .LVU59
 271 0008 E4B2     		uxtb	r4, r4
 272              	.LVL32:
 188:Drivers/BSP/Components/stmpe811/stmpe811.c ****           (IOE_Read(DeviceAddr, STMPE811_REG_CHP_ID_MSB)));
 273              		.loc 1 188 12 view .LVU60
 274 000a 0021     		movs	r1, #0
 275 000c 2046     		mov	r0, r4
 276 000e FFF7FEFF 		bl	IOE_Read
 277              	.LVL33:
 278 0012 0546     		mov	r5, r0
 189:Drivers/BSP/Components/stmpe811/stmpe811.c **** }
 279              		.loc 1 189 12 view .LVU61
 280 0014 0121     		movs	r1, #1
 281 0016 2046     		mov	r0, r4
 282 0018 FFF7FEFF 		bl	IOE_Read
 283              	.LVL34:
 189:Drivers/BSP/Components/stmpe811/stmpe811.c **** }
 284              		.loc 1 189 12 discriminator 1 view .LVU62
 285 001c 03B2     		sxth	r3, r0
 188:Drivers/BSP/Components/stmpe811/stmpe811.c ****           (IOE_Read(DeviceAddr, STMPE811_REG_CHP_ID_MSB)));
 286              		.loc 1 188 64 view .LVU63
 287 001e 43EA0520 		orr	r0, r3, r5, lsl #8
 190:Drivers/BSP/Components/stmpe811/stmpe811.c **** 
 288              		.loc 1 190 1 view .LVU64
 289 0022 80B2     		uxth	r0, r0
 290 0024 38BD     		pop	{r3, r4, r5, pc}
 291              		.cfi_endproc
 292              	.LFE2:
 294              		.section	.text.stmpe811_IO_ReadPin,"ax",%progbits
 295              		.align	1
 296              		.global	stmpe811_IO_ReadPin
 297              		.syntax unified
 298              		.thumb
 299              		.thumb_func
 301              	stmpe811_IO_ReadPin:
 302              	.LVL35:
 303              	.LFB19:
 639:Drivers/BSP/Components/stmpe811/stmpe811.c ****   return((uint32_t)(IOE_Read(DeviceAddr, STMPE811_REG_IO_MP_STA) & (uint8_t)IO_Pin));
 304              		.loc 1 639 1 is_stmt 1 view -0
 305              		.cfi_startproc
 306              		@ args = 0, pretend = 0, frame = 0
 307              		@ frame_needed = 0, uses_anonymous_args = 0
 639:Drivers/BSP/Components/stmpe811/stmpe811.c ****   return((uint32_t)(IOE_Read(DeviceAddr, STMPE811_REG_IO_MP_STA) & (uint8_t)IO_Pin));
 308              		.loc 1 639 1 is_stmt 0 view .LVU66
 309 0000 10B5     		push	{r4, lr}
ARM GAS  /var/folders/n6/c271nzx11xl4r4_m7sqjlt0m0000gn/T//cc2SfOSY.s 			page 24


 310              		.cfi_def_cfa_offset 8
 311              		.cfi_offset 4, -8
 312              		.cfi_offset 14, -4
 313 0002 0C46     		mov	r4, r1
 640:Drivers/BSP/Components/stmpe811/stmpe811.c **** }
 314              		.loc 1 640 3 is_stmt 1 view .LVU67
 640:Drivers/BSP/Components/stmpe811/stmpe811.c **** }
 315              		.loc 1 640 21 is_stmt 0 view .LVU68
 316 0004 1221     		movs	r1, #18
 317              	.LVL36:
 640:Drivers/BSP/Components/stmpe811/stmpe811.c **** }
 318              		.loc 1 640 21 view .LVU69
 319 0006 C0B2     		uxtb	r0, r0
 320              	.LVL37:
 640:Drivers/BSP/Components/stmpe811/stmpe811.c **** }
 321              		.loc 1 640 21 view .LVU70
 322 0008 FFF7FEFF 		bl	IOE_Read
 323              	.LVL38:
 640:Drivers/BSP/Components/stmpe811/stmpe811.c **** }
 324              		.loc 1 640 68 discriminator 1 view .LVU71
 325 000c E4B2     		uxtb	r4, r4
 326              	.LVL39:
 641:Drivers/BSP/Components/stmpe811/stmpe811.c **** 
 327              		.loc 1 641 1 view .LVU72
 328 000e 2040     		ands	r0, r0, r4
 329 0010 10BD     		pop	{r4, pc}
 330              		.cfi_endproc
 331              	.LFE19:
 333              		.section	.text.stmpe811_IO_ITStatus,"ax",%progbits
 334              		.align	1
 335              		.global	stmpe811_IO_ITStatus
 336              		.syntax unified
 337              		.thumb
 338              		.thumb_func
 340              	stmpe811_IO_ITStatus:
 341              	.LVL40:
 342              	.LFB24:
 725:Drivers/BSP/Components/stmpe811/stmpe811.c ****   /* Get the Interrupt status */
 343              		.loc 1 725 1 is_stmt 1 view -0
 344              		.cfi_startproc
 345              		@ args = 0, pretend = 0, frame = 0
 346              		@ frame_needed = 0, uses_anonymous_args = 0
 725:Drivers/BSP/Components/stmpe811/stmpe811.c ****   /* Get the Interrupt status */
 347              		.loc 1 725 1 is_stmt 0 view .LVU74
 348 0000 10B5     		push	{r4, lr}
 349              		.cfi_def_cfa_offset 8
 350              		.cfi_offset 4, -8
 351              		.cfi_offset 14, -4
 352 0002 0C46     		mov	r4, r1
 727:Drivers/BSP/Components/stmpe811/stmpe811.c **** }
 353              		.loc 1 727 3 is_stmt 1 view .LVU75
 727:Drivers/BSP/Components/stmpe811/stmpe811.c **** }
 354              		.loc 1 727 10 is_stmt 0 view .LVU76
 355 0004 0D21     		movs	r1, #13
 356              	.LVL41:
 727:Drivers/BSP/Components/stmpe811/stmpe811.c **** }
 357              		.loc 1 727 10 view .LVU77
ARM GAS  /var/folders/n6/c271nzx11xl4r4_m7sqjlt0m0000gn/T//cc2SfOSY.s 			page 25


 358 0006 C0B2     		uxtb	r0, r0
 359              	.LVL42:
 727:Drivers/BSP/Components/stmpe811/stmpe811.c **** }
 360              		.loc 1 727 10 view .LVU78
 361 0008 FFF7FEFF 		bl	IOE_Read
 362              	.LVL43:
 727:Drivers/BSP/Components/stmpe811/stmpe811.c **** }
 363              		.loc 1 727 58 discriminator 1 view .LVU79
 364 000c E4B2     		uxtb	r4, r4
 365              	.LVL44:
 728:Drivers/BSP/Components/stmpe811/stmpe811.c **** 
 366              		.loc 1 728 1 view .LVU80
 367 000e 2040     		ands	r0, r0, r4
 368 0010 10BD     		pop	{r4, pc}
 369              		.cfi_endproc
 370              	.LFE24:
 372              		.section	.text.stmpe811_TS_DetectTouch,"ax",%progbits
 373              		.align	1
 374              		.global	stmpe811_TS_DetectTouch
 375              		.syntax unified
 376              		.thumb
 377              		.thumb_func
 379              	stmpe811_TS_DetectTouch:
 380              	.LVL45:
 381              	.LFB27:
 836:Drivers/BSP/Components/stmpe811/stmpe811.c ****   uint8_t state;
 382              		.loc 1 836 1 is_stmt 1 view -0
 383              		.cfi_startproc
 384              		@ args = 0, pretend = 0, frame = 0
 385              		@ frame_needed = 0, uses_anonymous_args = 0
 836:Drivers/BSP/Components/stmpe811/stmpe811.c ****   uint8_t state;
 386              		.loc 1 836 1 is_stmt 0 view .LVU82
 387 0000 10B5     		push	{r4, lr}
 388              		.cfi_def_cfa_offset 8
 389              		.cfi_offset 4, -8
 390              		.cfi_offset 14, -4
 837:Drivers/BSP/Components/stmpe811/stmpe811.c ****   uint8_t ret = 0;
 391              		.loc 1 837 3 is_stmt 1 view .LVU83
 838:Drivers/BSP/Components/stmpe811/stmpe811.c ****   
 392              		.loc 1 838 3 view .LVU84
 393              	.LVL46:
 840:Drivers/BSP/Components/stmpe811/stmpe811.c ****   
 394              		.loc 1 840 3 view .LVU85
 840:Drivers/BSP/Components/stmpe811/stmpe811.c ****   
 395              		.loc 1 840 13 is_stmt 0 view .LVU86
 396 0002 C4B2     		uxtb	r4, r0
 397 0004 4021     		movs	r1, #64
 398 0006 2046     		mov	r0, r4
 399              	.LVL47:
 840:Drivers/BSP/Components/stmpe811/stmpe811.c ****   
 400              		.loc 1 840 13 view .LVU87
 401 0008 FFF7FEFF 		bl	IOE_Read
 402              	.LVL48:
 842:Drivers/BSP/Components/stmpe811/stmpe811.c ****   {
 403              		.loc 1 842 3 is_stmt 1 view .LVU88
 842:Drivers/BSP/Components/stmpe811/stmpe811.c ****   {
 404              		.loc 1 842 5 is_stmt 0 view .LVU89
ARM GAS  /var/folders/n6/c271nzx11xl4r4_m7sqjlt0m0000gn/T//cc2SfOSY.s 			page 26


 405 000c 10F0800F 		tst	r0, #128
 406 0010 0BD1     		bne	.L31
 852:Drivers/BSP/Components/stmpe811/stmpe811.c ****     /* Enable the FIFO again */
 407              		.loc 1 852 5 is_stmt 1 view .LVU90
 408 0012 0122     		movs	r2, #1
 409 0014 4B21     		movs	r1, #75
 410 0016 2046     		mov	r0, r4
 411              	.LVL49:
 852:Drivers/BSP/Components/stmpe811/stmpe811.c ****     /* Enable the FIFO again */
 412              		.loc 1 852 5 is_stmt 0 view .LVU91
 413 0018 FFF7FEFF 		bl	IOE_Write
 414              	.LVL50:
 854:Drivers/BSP/Components/stmpe811/stmpe811.c ****   }
 415              		.loc 1 854 5 is_stmt 1 view .LVU92
 416 001c 0022     		movs	r2, #0
 417 001e 4B21     		movs	r1, #75
 418 0020 2046     		mov	r0, r4
 419 0022 FFF7FEFF 		bl	IOE_Write
 420              	.LVL51:
 838:Drivers/BSP/Components/stmpe811/stmpe811.c ****   
 421              		.loc 1 838 11 is_stmt 0 view .LVU93
 422 0026 0020     		movs	r0, #0
 423              	.L28:
 424              	.LVL52:
 857:Drivers/BSP/Components/stmpe811/stmpe811.c **** }
 425              		.loc 1 857 3 is_stmt 1 view .LVU94
 858:Drivers/BSP/Components/stmpe811/stmpe811.c **** 
 426              		.loc 1 858 1 is_stmt 0 view .LVU95
 427 0028 10BD     		pop	{r4, pc}
 428              	.LVL53:
 429              	.L31:
 844:Drivers/BSP/Components/stmpe811/stmpe811.c ****     {
 430              		.loc 1 844 5 is_stmt 1 view .LVU96
 844:Drivers/BSP/Components/stmpe811/stmpe811.c ****     {
 431              		.loc 1 844 8 is_stmt 0 view .LVU97
 432 002a 4C21     		movs	r1, #76
 433 002c 2046     		mov	r0, r4
 434              	.LVL54:
 844:Drivers/BSP/Components/stmpe811/stmpe811.c ****     {
 435              		.loc 1 844 8 view .LVU98
 436 002e FFF7FEFF 		bl	IOE_Read
 437              	.LVL55:
 844:Drivers/BSP/Components/stmpe811/stmpe811.c ****     {
 438              		.loc 1 844 7 discriminator 1 view .LVU99
 439 0032 0028     		cmp	r0, #0
 440 0034 F8D0     		beq	.L28
 846:Drivers/BSP/Components/stmpe811/stmpe811.c ****     }
 441              		.loc 1 846 11 view .LVU100
 442 0036 0120     		movs	r0, #1
 443 0038 F6E7     		b	.L28
 444              		.cfi_endproc
 445              	.LFE27:
 447              		.section	.text.stmpe811_TS_GetXY,"ax",%progbits
 448              		.align	1
 449              		.global	stmpe811_TS_GetXY
 450              		.syntax unified
 451              		.thumb
ARM GAS  /var/folders/n6/c271nzx11xl4r4_m7sqjlt0m0000gn/T//cc2SfOSY.s 			page 27


 452              		.thumb_func
 454              	stmpe811_TS_GetXY:
 455              	.LVL56:
 456              	.LFB28:
 868:Drivers/BSP/Components/stmpe811/stmpe811.c ****   uint8_t  dataXYZ[4];
 457              		.loc 1 868 1 is_stmt 1 view -0
 458              		.cfi_startproc
 459              		@ args = 0, pretend = 0, frame = 8
 460              		@ frame_needed = 0, uses_anonymous_args = 0
 868:Drivers/BSP/Components/stmpe811/stmpe811.c ****   uint8_t  dataXYZ[4];
 461              		.loc 1 868 1 is_stmt 0 view .LVU102
 462 0000 70B5     		push	{r4, r5, r6, lr}
 463              		.cfi_def_cfa_offset 16
 464              		.cfi_offset 4, -16
 465              		.cfi_offset 5, -12
 466              		.cfi_offset 6, -8
 467              		.cfi_offset 14, -4
 468 0002 82B0     		sub	sp, sp, #8
 469              		.cfi_def_cfa_offset 24
 470 0004 0E46     		mov	r6, r1
 471 0006 1546     		mov	r5, r2
 869:Drivers/BSP/Components/stmpe811/stmpe811.c ****   uint32_t uldataXYZ;
 472              		.loc 1 869 3 is_stmt 1 view .LVU103
 870:Drivers/BSP/Components/stmpe811/stmpe811.c ****   
 473              		.loc 1 870 3 view .LVU104
 872:Drivers/BSP/Components/stmpe811/stmpe811.c ****   
 474              		.loc 1 872 3 view .LVU105
 475 0008 C4B2     		uxtb	r4, r0
 476 000a 0423     		movs	r3, #4
 477 000c 0DEB0302 		add	r2, sp, r3
 478              	.LVL57:
 872:Drivers/BSP/Components/stmpe811/stmpe811.c ****   
 479              		.loc 1 872 3 is_stmt 0 view .LVU106
 480 0010 D721     		movs	r1, #215
 481              	.LVL58:
 872:Drivers/BSP/Components/stmpe811/stmpe811.c ****   
 482              		.loc 1 872 3 view .LVU107
 483 0012 2046     		mov	r0, r4
 484              	.LVL59:
 872:Drivers/BSP/Components/stmpe811/stmpe811.c ****   
 485              		.loc 1 872 3 view .LVU108
 486 0014 FFF7FEFF 		bl	IOE_ReadMultiple
 487              	.LVL60:
 875:Drivers/BSP/Components/stmpe811/stmpe811.c ****   *X = (uldataXYZ >> 20) & 0x00000FFF;     
 488              		.loc 1 875 3 is_stmt 1 view .LVU109
 875:Drivers/BSP/Components/stmpe811/stmpe811.c ****   *X = (uldataXYZ >> 20) & 0x00000FFF;     
 489              		.loc 1 875 23 is_stmt 0 view .LVU110
 490 0018 9DF80420 		ldrb	r2, [sp, #4]	@ zero_extendqisi2
 875:Drivers/BSP/Components/stmpe811/stmpe811.c ****   *X = (uldataXYZ >> 20) & 0x00000FFF;     
 491              		.loc 1 875 42 view .LVU111
 492 001c 9DF80530 		ldrb	r3, [sp, #5]	@ zero_extendqisi2
 875:Drivers/BSP/Components/stmpe811/stmpe811.c ****   *X = (uldataXYZ >> 20) & 0x00000FFF;     
 493              		.loc 1 875 46 view .LVU112
 494 0020 1B04     		lsls	r3, r3, #16
 875:Drivers/BSP/Components/stmpe811/stmpe811.c ****   *X = (uldataXYZ >> 20) & 0x00000FFF;     
 495              		.loc 1 875 33 view .LVU113
 496 0022 43EA0263 		orr	r3, r3, r2, lsl #24
ARM GAS  /var/folders/n6/c271nzx11xl4r4_m7sqjlt0m0000gn/T//cc2SfOSY.s 			page 28


 875:Drivers/BSP/Components/stmpe811/stmpe811.c ****   *X = (uldataXYZ >> 20) & 0x00000FFF;     
 497              		.loc 1 875 61 view .LVU114
 498 0026 9DF80600 		ldrb	r0, [sp, #6]	@ zero_extendqisi2
 875:Drivers/BSP/Components/stmpe811/stmpe811.c ****   *X = (uldataXYZ >> 20) & 0x00000FFF;     
 499              		.loc 1 875 52 view .LVU115
 500 002a 43EA0020 		orr	r0, r3, r0, lsl #8
 501              	.LVL61:
 876:Drivers/BSP/Components/stmpe811/stmpe811.c ****   *Y = (uldataXYZ >>  8) & 0x00000FFF;     
 502              		.loc 1 876 3 is_stmt 1 view .LVU116
 876:Drivers/BSP/Components/stmpe811/stmpe811.c ****   *Y = (uldataXYZ >>  8) & 0x00000FFF;     
 503              		.loc 1 876 19 is_stmt 0 view .LVU117
 504 002e 1B0D     		lsrs	r3, r3, #20
 876:Drivers/BSP/Components/stmpe811/stmpe811.c ****   *Y = (uldataXYZ >>  8) & 0x00000FFF;     
 505              		.loc 1 876 6 view .LVU118
 506 0030 3380     		strh	r3, [r6]	@ movhi
 877:Drivers/BSP/Components/stmpe811/stmpe811.c ****   
 507              		.loc 1 877 3 is_stmt 1 view .LVU119
 877:Drivers/BSP/Components/stmpe811/stmpe811.c ****   
 508              		.loc 1 877 26 is_stmt 0 view .LVU120
 509 0032 C0F30B23 		ubfx	r3, r0, #8, #12
 877:Drivers/BSP/Components/stmpe811/stmpe811.c ****   
 510              		.loc 1 877 6 view .LVU121
 511 0036 2B80     		strh	r3, [r5]	@ movhi
 880:Drivers/BSP/Components/stmpe811/stmpe811.c ****   /* Enable the FIFO again */
 512              		.loc 1 880 3 is_stmt 1 view .LVU122
 513 0038 0122     		movs	r2, #1
 514 003a 4B21     		movs	r1, #75
 515 003c 2046     		mov	r0, r4
 516 003e FFF7FEFF 		bl	IOE_Write
 517              	.LVL62:
 882:Drivers/BSP/Components/stmpe811/stmpe811.c **** }
 518              		.loc 1 882 3 view .LVU123
 519 0042 0022     		movs	r2, #0
 520 0044 4B21     		movs	r1, #75
 521 0046 2046     		mov	r0, r4
 522 0048 FFF7FEFF 		bl	IOE_Write
 523              	.LVL63:
 883:Drivers/BSP/Components/stmpe811/stmpe811.c **** 
 524              		.loc 1 883 1 is_stmt 0 view .LVU124
 525 004c 02B0     		add	sp, sp, #8
 526              		.cfi_def_cfa_offset 16
 527              		@ sp needed
 528 004e 70BD     		pop	{r4, r5, r6, pc}
 883:Drivers/BSP/Components/stmpe811/stmpe811.c **** 
 529              		.loc 1 883 1 view .LVU125
 530              		.cfi_endproc
 531              	.LFE28:
 533              		.section	.text.stmpe811_EnableGlobalIT,"ax",%progbits
 534              		.align	1
 535              		.global	stmpe811_EnableGlobalIT
 536              		.syntax unified
 537              		.thumb
 538              		.thumb_func
 540              	stmpe811_EnableGlobalIT:
 541              	.LVL64:
 542              	.LFB3:
 198:Drivers/BSP/Components/stmpe811/stmpe811.c ****   uint8_t tmp = 0;
ARM GAS  /var/folders/n6/c271nzx11xl4r4_m7sqjlt0m0000gn/T//cc2SfOSY.s 			page 29


 543              		.loc 1 198 1 is_stmt 1 view -0
 544              		.cfi_startproc
 545              		@ args = 0, pretend = 0, frame = 0
 546              		@ frame_needed = 0, uses_anonymous_args = 0
 198:Drivers/BSP/Components/stmpe811/stmpe811.c ****   uint8_t tmp = 0;
 547              		.loc 1 198 1 is_stmt 0 view .LVU127
 548 0000 10B5     		push	{r4, lr}
 549              		.cfi_def_cfa_offset 8
 550              		.cfi_offset 4, -8
 551              		.cfi_offset 14, -4
 199:Drivers/BSP/Components/stmpe811/stmpe811.c ****   
 552              		.loc 1 199 3 is_stmt 1 view .LVU128
 553              	.LVL65:
 202:Drivers/BSP/Components/stmpe811/stmpe811.c ****   
 554              		.loc 1 202 3 view .LVU129
 202:Drivers/BSP/Components/stmpe811/stmpe811.c ****   
 555              		.loc 1 202 9 is_stmt 0 view .LVU130
 556 0002 C4B2     		uxtb	r4, r0
 557 0004 0921     		movs	r1, #9
 558 0006 2046     		mov	r0, r4
 559              	.LVL66:
 202:Drivers/BSP/Components/stmpe811/stmpe811.c ****   
 560              		.loc 1 202 9 view .LVU131
 561 0008 FFF7FEFF 		bl	IOE_Read
 562              	.LVL67:
 205:Drivers/BSP/Components/stmpe811/stmpe811.c ****   
 563              		.loc 1 205 3 is_stmt 1 view .LVU132
 205:Drivers/BSP/Components/stmpe811/stmpe811.c ****   
 564              		.loc 1 205 7 is_stmt 0 view .LVU133
 565 000c 40F00102 		orr	r2, r0, #1
 566              	.LVL68:
 208:Drivers/BSP/Components/stmpe811/stmpe811.c **** }
 567              		.loc 1 208 3 is_stmt 1 view .LVU134
 568 0010 D2B2     		uxtb	r2, r2
 208:Drivers/BSP/Components/stmpe811/stmpe811.c **** }
 569              		.loc 1 208 3 is_stmt 0 view .LVU135
 570 0012 0921     		movs	r1, #9
 571 0014 2046     		mov	r0, r4
 572 0016 FFF7FEFF 		bl	IOE_Write
 573              	.LVL69:
 209:Drivers/BSP/Components/stmpe811/stmpe811.c **** 
 574              		.loc 1 209 1 view .LVU136
 575 001a 10BD     		pop	{r4, pc}
 576              		.cfi_endproc
 577              	.LFE3:
 579              		.section	.text.stmpe811_DisableGlobalIT,"ax",%progbits
 580              		.align	1
 581              		.global	stmpe811_DisableGlobalIT
 582              		.syntax unified
 583              		.thumb
 584              		.thumb_func
 586              	stmpe811_DisableGlobalIT:
 587              	.LVL70:
 588              	.LFB4:
 217:Drivers/BSP/Components/stmpe811/stmpe811.c ****   uint8_t tmp = 0;
 589              		.loc 1 217 1 is_stmt 1 view -0
 590              		.cfi_startproc
ARM GAS  /var/folders/n6/c271nzx11xl4r4_m7sqjlt0m0000gn/T//cc2SfOSY.s 			page 30


 591              		@ args = 0, pretend = 0, frame = 0
 592              		@ frame_needed = 0, uses_anonymous_args = 0
 217:Drivers/BSP/Components/stmpe811/stmpe811.c ****   uint8_t tmp = 0;
 593              		.loc 1 217 1 is_stmt 0 view .LVU138
 594 0000 10B5     		push	{r4, lr}
 595              		.cfi_def_cfa_offset 8
 596              		.cfi_offset 4, -8
 597              		.cfi_offset 14, -4
 218:Drivers/BSP/Components/stmpe811/stmpe811.c ****   
 598              		.loc 1 218 3 is_stmt 1 view .LVU139
 599              	.LVL71:
 221:Drivers/BSP/Components/stmpe811/stmpe811.c **** 
 600              		.loc 1 221 3 view .LVU140
 221:Drivers/BSP/Components/stmpe811/stmpe811.c **** 
 601              		.loc 1 221 9 is_stmt 0 view .LVU141
 602 0002 C4B2     		uxtb	r4, r0
 603 0004 0921     		movs	r1, #9
 604 0006 2046     		mov	r0, r4
 605              	.LVL72:
 221:Drivers/BSP/Components/stmpe811/stmpe811.c **** 
 606              		.loc 1 221 9 view .LVU142
 607 0008 FFF7FEFF 		bl	IOE_Read
 608              	.LVL73:
 224:Drivers/BSP/Components/stmpe811/stmpe811.c ****  
 609              		.loc 1 224 3 is_stmt 1 view .LVU143
 227:Drivers/BSP/Components/stmpe811/stmpe811.c ****     
 610              		.loc 1 227 3 view .LVU144
 611 000c 00F0FE02 		and	r2, r0, #254
 612 0010 0921     		movs	r1, #9
 613 0012 2046     		mov	r0, r4
 614              	.LVL74:
 227:Drivers/BSP/Components/stmpe811/stmpe811.c ****     
 615              		.loc 1 227 3 is_stmt 0 view .LVU145
 616 0014 FFF7FEFF 		bl	IOE_Write
 617              	.LVL75:
 229:Drivers/BSP/Components/stmpe811/stmpe811.c **** 
 618              		.loc 1 229 1 view .LVU146
 619 0018 10BD     		pop	{r4, pc}
 620              		.cfi_endproc
 621              	.LFE4:
 623              		.section	.text.stmpe811_EnableITSource,"ax",%progbits
 624              		.align	1
 625              		.global	stmpe811_EnableITSource
 626              		.syntax unified
 627              		.thumb
 628              		.thumb_func
 630              	stmpe811_EnableITSource:
 631              	.LVL76:
 632              	.LFB5:
 245:Drivers/BSP/Components/stmpe811/stmpe811.c ****   uint8_t tmp = 0;
 633              		.loc 1 245 1 is_stmt 1 view -0
 634              		.cfi_startproc
 635              		@ args = 0, pretend = 0, frame = 0
 636              		@ frame_needed = 0, uses_anonymous_args = 0
 245:Drivers/BSP/Components/stmpe811/stmpe811.c ****   uint8_t tmp = 0;
 637              		.loc 1 245 1 is_stmt 0 view .LVU148
 638 0000 38B5     		push	{r3, r4, r5, lr}
ARM GAS  /var/folders/n6/c271nzx11xl4r4_m7sqjlt0m0000gn/T//cc2SfOSY.s 			page 31


 639              		.cfi_def_cfa_offset 16
 640              		.cfi_offset 3, -16
 641              		.cfi_offset 4, -12
 642              		.cfi_offset 5, -8
 643              		.cfi_offset 14, -4
 644 0002 0D46     		mov	r5, r1
 246:Drivers/BSP/Components/stmpe811/stmpe811.c ****   
 645              		.loc 1 246 3 is_stmt 1 view .LVU149
 646              	.LVL77:
 249:Drivers/BSP/Components/stmpe811/stmpe811.c **** 
 647              		.loc 1 249 3 view .LVU150
 249:Drivers/BSP/Components/stmpe811/stmpe811.c **** 
 648              		.loc 1 249 9 is_stmt 0 view .LVU151
 649 0004 C4B2     		uxtb	r4, r0
 650 0006 0A21     		movs	r1, #10
 651              	.LVL78:
 249:Drivers/BSP/Components/stmpe811/stmpe811.c **** 
 652              		.loc 1 249 9 view .LVU152
 653 0008 2046     		mov	r0, r4
 654              	.LVL79:
 249:Drivers/BSP/Components/stmpe811/stmpe811.c **** 
 655              		.loc 1 249 9 view .LVU153
 656 000a FFF7FEFF 		bl	IOE_Read
 657              	.LVL80:
 252:Drivers/BSP/Components/stmpe811/stmpe811.c ****   
 658              		.loc 1 252 3 is_stmt 1 view .LVU154
 252:Drivers/BSP/Components/stmpe811/stmpe811.c ****   
 659              		.loc 1 252 7 is_stmt 0 view .LVU155
 660 000e 40EA0502 		orr	r2, r0, r5
 661              	.LVL81:
 255:Drivers/BSP/Components/stmpe811/stmpe811.c **** }
 662              		.loc 1 255 3 is_stmt 1 view .LVU156
 663 0012 D2B2     		uxtb	r2, r2
 255:Drivers/BSP/Components/stmpe811/stmpe811.c **** }
 664              		.loc 1 255 3 is_stmt 0 view .LVU157
 665 0014 0A21     		movs	r1, #10
 666 0016 2046     		mov	r0, r4
 667 0018 FFF7FEFF 		bl	IOE_Write
 668              	.LVL82:
 256:Drivers/BSP/Components/stmpe811/stmpe811.c **** 
 669              		.loc 1 256 1 view .LVU158
 670 001c 38BD     		pop	{r3, r4, r5, pc}
 256:Drivers/BSP/Components/stmpe811/stmpe811.c **** 
 671              		.loc 1 256 1 view .LVU159
 672              		.cfi_endproc
 673              	.LFE5:
 675              		.section	.text.stmpe811_IO_EnableIT,"ax",%progbits
 676              		.align	1
 677              		.global	stmpe811_IO_EnableIT
 678              		.syntax unified
 679              		.thumb
 680              		.thumb_func
 682              	stmpe811_IO_EnableIT:
 683              	.LVL83:
 684              	.LFB20:
 649:Drivers/BSP/Components/stmpe811/stmpe811.c ****   IOE_ITConfig();
 685              		.loc 1 649 1 is_stmt 1 view -0
ARM GAS  /var/folders/n6/c271nzx11xl4r4_m7sqjlt0m0000gn/T//cc2SfOSY.s 			page 32


 686              		.cfi_startproc
 687              		@ args = 0, pretend = 0, frame = 0
 688              		@ frame_needed = 0, uses_anonymous_args = 0
 649:Drivers/BSP/Components/stmpe811/stmpe811.c ****   IOE_ITConfig();
 689              		.loc 1 649 1 is_stmt 0 view .LVU161
 690 0000 10B5     		push	{r4, lr}
 691              		.cfi_def_cfa_offset 8
 692              		.cfi_offset 4, -8
 693              		.cfi_offset 14, -4
 694 0002 0446     		mov	r4, r0
 650:Drivers/BSP/Components/stmpe811/stmpe811.c ****   
 695              		.loc 1 650 3 is_stmt 1 view .LVU162
 696 0004 FFF7FEFF 		bl	IOE_ITConfig
 697              	.LVL84:
 653:Drivers/BSP/Components/stmpe811/stmpe811.c ****   
 698              		.loc 1 653 3 view .LVU163
 699 0008 8021     		movs	r1, #128
 700 000a 2046     		mov	r0, r4
 701 000c FFF7FEFF 		bl	stmpe811_EnableITSource
 702              	.LVL85:
 656:Drivers/BSP/Components/stmpe811/stmpe811.c **** }
 703              		.loc 1 656 3 view .LVU164
 704 0010 2046     		mov	r0, r4
 705 0012 FFF7FEFF 		bl	stmpe811_EnableGlobalIT
 706              	.LVL86:
 657:Drivers/BSP/Components/stmpe811/stmpe811.c **** 
 707              		.loc 1 657 1 is_stmt 0 view .LVU165
 708 0016 10BD     		pop	{r4, pc}
 657:Drivers/BSP/Components/stmpe811/stmpe811.c **** 
 709              		.loc 1 657 1 view .LVU166
 710              		.cfi_endproc
 711              	.LFE20:
 713              		.section	.text.stmpe811_TS_EnableIT,"ax",%progbits
 714              		.align	1
 715              		.global	stmpe811_TS_EnableIT
 716              		.syntax unified
 717              		.thumb
 718              		.thumb_func
 720              	stmpe811_TS_EnableIT:
 721              	.LVL87:
 722              	.LFB29:
 891:Drivers/BSP/Components/stmpe811/stmpe811.c ****   IOE_ITConfig();
 723              		.loc 1 891 1 is_stmt 1 view -0
 724              		.cfi_startproc
 725              		@ args = 0, pretend = 0, frame = 0
 726              		@ frame_needed = 0, uses_anonymous_args = 0
 891:Drivers/BSP/Components/stmpe811/stmpe811.c ****   IOE_ITConfig();
 727              		.loc 1 891 1 is_stmt 0 view .LVU168
 728 0000 10B5     		push	{r4, lr}
 729              		.cfi_def_cfa_offset 8
 730              		.cfi_offset 4, -8
 731              		.cfi_offset 14, -4
 732 0002 0446     		mov	r4, r0
 892:Drivers/BSP/Components/stmpe811/stmpe811.c ****   
 733              		.loc 1 892 3 is_stmt 1 view .LVU169
 734 0004 FFF7FEFF 		bl	IOE_ITConfig
 735              	.LVL88:
ARM GAS  /var/folders/n6/c271nzx11xl4r4_m7sqjlt0m0000gn/T//cc2SfOSY.s 			page 33


 895:Drivers/BSP/Components/stmpe811/stmpe811.c ****   
 736              		.loc 1 895 3 view .LVU170
 737 0008 1F21     		movs	r1, #31
 738 000a 2046     		mov	r0, r4
 739 000c FFF7FEFF 		bl	stmpe811_EnableITSource
 740              	.LVL89:
 898:Drivers/BSP/Components/stmpe811/stmpe811.c **** }
 741              		.loc 1 898 3 view .LVU171
 742 0010 2046     		mov	r0, r4
 743 0012 FFF7FEFF 		bl	stmpe811_EnableGlobalIT
 744              	.LVL90:
 899:Drivers/BSP/Components/stmpe811/stmpe811.c **** 
 745              		.loc 1 899 1 is_stmt 0 view .LVU172
 746 0016 10BD     		pop	{r4, pc}
 899:Drivers/BSP/Components/stmpe811/stmpe811.c **** 
 747              		.loc 1 899 1 view .LVU173
 748              		.cfi_endproc
 749              	.LFE29:
 751              		.section	.text.stmpe811_DisableITSource,"ax",%progbits
 752              		.align	1
 753              		.global	stmpe811_DisableITSource
 754              		.syntax unified
 755              		.thumb
 756              		.thumb_func
 758              	stmpe811_DisableITSource:
 759              	.LVL91:
 760              	.LFB6:
 272:Drivers/BSP/Components/stmpe811/stmpe811.c ****   uint8_t tmp = 0;
 761              		.loc 1 272 1 is_stmt 1 view -0
 762              		.cfi_startproc
 763              		@ args = 0, pretend = 0, frame = 0
 764              		@ frame_needed = 0, uses_anonymous_args = 0
 272:Drivers/BSP/Components/stmpe811/stmpe811.c ****   uint8_t tmp = 0;
 765              		.loc 1 272 1 is_stmt 0 view .LVU175
 766 0000 38B5     		push	{r3, r4, r5, lr}
 767              		.cfi_def_cfa_offset 16
 768              		.cfi_offset 3, -16
 769              		.cfi_offset 4, -12
 770              		.cfi_offset 5, -8
 771              		.cfi_offset 14, -4
 772 0002 0C46     		mov	r4, r1
 273:Drivers/BSP/Components/stmpe811/stmpe811.c ****   
 773              		.loc 1 273 3 is_stmt 1 view .LVU176
 774              	.LVL92:
 276:Drivers/BSP/Components/stmpe811/stmpe811.c **** 
 775              		.loc 1 276 3 view .LVU177
 276:Drivers/BSP/Components/stmpe811/stmpe811.c **** 
 776              		.loc 1 276 9 is_stmt 0 view .LVU178
 777 0004 C5B2     		uxtb	r5, r0
 778 0006 0A21     		movs	r1, #10
 779              	.LVL93:
 276:Drivers/BSP/Components/stmpe811/stmpe811.c **** 
 780              		.loc 1 276 9 view .LVU179
 781 0008 2846     		mov	r0, r5
 782              	.LVL94:
 276:Drivers/BSP/Components/stmpe811/stmpe811.c **** 
 783              		.loc 1 276 9 view .LVU180
ARM GAS  /var/folders/n6/c271nzx11xl4r4_m7sqjlt0m0000gn/T//cc2SfOSY.s 			page 34


 784 000a FFF7FEFF 		bl	IOE_Read
 785              	.LVL95:
 279:Drivers/BSP/Components/stmpe811/stmpe811.c ****   
 786              		.loc 1 279 3 is_stmt 1 view .LVU181
 279:Drivers/BSP/Components/stmpe811/stmpe811.c ****   
 787              		.loc 1 279 7 is_stmt 0 view .LVU182
 788 000e E443     		mvns	r4, r4
 789              	.LVL96:
 279:Drivers/BSP/Components/stmpe811/stmpe811.c ****   
 790              		.loc 1 279 7 view .LVU183
 791 0010 64B2     		sxtb	r4, r4
 792              	.LVL97:
 279:Drivers/BSP/Components/stmpe811/stmpe811.c ****   
 793              		.loc 1 279 7 view .LVU184
 794 0012 00EA0402 		and	r2, r0, r4
 795              	.LVL98:
 282:Drivers/BSP/Components/stmpe811/stmpe811.c **** }
 796              		.loc 1 282 3 is_stmt 1 view .LVU185
 797 0016 D2B2     		uxtb	r2, r2
 282:Drivers/BSP/Components/stmpe811/stmpe811.c **** }
 798              		.loc 1 282 3 is_stmt 0 view .LVU186
 799 0018 0A21     		movs	r1, #10
 800 001a 2846     		mov	r0, r5
 801 001c FFF7FEFF 		bl	IOE_Write
 802              	.LVL99:
 283:Drivers/BSP/Components/stmpe811/stmpe811.c **** 
 803              		.loc 1 283 1 view .LVU187
 804 0020 38BD     		pop	{r3, r4, r5, pc}
 805              		.cfi_endproc
 806              	.LFE6:
 808              		.section	.text.stmpe811_IO_DisableIT,"ax",%progbits
 809              		.align	1
 810              		.global	stmpe811_IO_DisableIT
 811              		.syntax unified
 812              		.thumb
 813              		.thumb_func
 815              	stmpe811_IO_DisableIT:
 816              	.LVL100:
 817              	.LFB21:
 665:Drivers/BSP/Components/stmpe811/stmpe811.c ****   /* Disable the global interrupt */
 818              		.loc 1 665 1 is_stmt 1 view -0
 819              		.cfi_startproc
 820              		@ args = 0, pretend = 0, frame = 0
 821              		@ frame_needed = 0, uses_anonymous_args = 0
 665:Drivers/BSP/Components/stmpe811/stmpe811.c ****   /* Disable the global interrupt */
 822              		.loc 1 665 1 is_stmt 0 view .LVU189
 823 0000 10B5     		push	{r4, lr}
 824              		.cfi_def_cfa_offset 8
 825              		.cfi_offset 4, -8
 826              		.cfi_offset 14, -4
 827 0002 0446     		mov	r4, r0
 667:Drivers/BSP/Components/stmpe811/stmpe811.c ****   
 828              		.loc 1 667 3 is_stmt 1 view .LVU190
 829 0004 FFF7FEFF 		bl	stmpe811_DisableGlobalIT
 830              	.LVL101:
 670:Drivers/BSP/Components/stmpe811/stmpe811.c **** }
 831              		.loc 1 670 3 view .LVU191
ARM GAS  /var/folders/n6/c271nzx11xl4r4_m7sqjlt0m0000gn/T//cc2SfOSY.s 			page 35


 832 0008 8021     		movs	r1, #128
 833 000a 2046     		mov	r0, r4
 834 000c FFF7FEFF 		bl	stmpe811_DisableITSource
 835              	.LVL102:
 671:Drivers/BSP/Components/stmpe811/stmpe811.c **** 
 836              		.loc 1 671 1 is_stmt 0 view .LVU192
 837 0010 10BD     		pop	{r4, pc}
 671:Drivers/BSP/Components/stmpe811/stmpe811.c **** 
 838              		.loc 1 671 1 view .LVU193
 839              		.cfi_endproc
 840              	.LFE21:
 842              		.section	.text.stmpe811_TS_DisableIT,"ax",%progbits
 843              		.align	1
 844              		.global	stmpe811_TS_DisableIT
 845              		.syntax unified
 846              		.thumb
 847              		.thumb_func
 849              	stmpe811_TS_DisableIT:
 850              	.LVL103:
 851              	.LFB30:
 907:Drivers/BSP/Components/stmpe811/stmpe811.c ****   /* Disable global interrupt */
 852              		.loc 1 907 1 is_stmt 1 view -0
 853              		.cfi_startproc
 854              		@ args = 0, pretend = 0, frame = 0
 855              		@ frame_needed = 0, uses_anonymous_args = 0
 907:Drivers/BSP/Components/stmpe811/stmpe811.c ****   /* Disable global interrupt */
 856              		.loc 1 907 1 is_stmt 0 view .LVU195
 857 0000 10B5     		push	{r4, lr}
 858              		.cfi_def_cfa_offset 8
 859              		.cfi_offset 4, -8
 860              		.cfi_offset 14, -4
 861 0002 0446     		mov	r4, r0
 909:Drivers/BSP/Components/stmpe811/stmpe811.c ****   
 862              		.loc 1 909 3 is_stmt 1 view .LVU196
 863 0004 FFF7FEFF 		bl	stmpe811_DisableGlobalIT
 864              	.LVL104:
 912:Drivers/BSP/Components/stmpe811/stmpe811.c **** }
 865              		.loc 1 912 3 view .LVU197
 866 0008 1F21     		movs	r1, #31
 867 000a 2046     		mov	r0, r4
 868 000c FFF7FEFF 		bl	stmpe811_DisableITSource
 869              	.LVL105:
 913:Drivers/BSP/Components/stmpe811/stmpe811.c **** 
 870              		.loc 1 913 1 is_stmt 0 view .LVU198
 871 0010 10BD     		pop	{r4, pc}
 913:Drivers/BSP/Components/stmpe811/stmpe811.c **** 
 872              		.loc 1 913 1 view .LVU199
 873              		.cfi_endproc
 874              	.LFE30:
 876              		.section	.text.stmpe811_SetITPolarity,"ax",%progbits
 877              		.align	1
 878              		.global	stmpe811_SetITPolarity
 879              		.syntax unified
 880              		.thumb
 881              		.thumb_func
 883              	stmpe811_SetITPolarity:
 884              	.LVL106:
ARM GAS  /var/folders/n6/c271nzx11xl4r4_m7sqjlt0m0000gn/T//cc2SfOSY.s 			page 36


 885              	.LFB7:
 294:Drivers/BSP/Components/stmpe811/stmpe811.c ****   uint8_t tmp = 0;
 886              		.loc 1 294 1 is_stmt 1 view -0
 887              		.cfi_startproc
 888              		@ args = 0, pretend = 0, frame = 0
 889              		@ frame_needed = 0, uses_anonymous_args = 0
 294:Drivers/BSP/Components/stmpe811/stmpe811.c ****   uint8_t tmp = 0;
 890              		.loc 1 294 1 is_stmt 0 view .LVU201
 891 0000 38B5     		push	{r3, r4, r5, lr}
 892              		.cfi_def_cfa_offset 16
 893              		.cfi_offset 3, -16
 894              		.cfi_offset 4, -12
 895              		.cfi_offset 5, -8
 896              		.cfi_offset 14, -4
 897 0002 0D46     		mov	r5, r1
 295:Drivers/BSP/Components/stmpe811/stmpe811.c ****   
 898              		.loc 1 295 3 is_stmt 1 view .LVU202
 899              	.LVL107:
 298:Drivers/BSP/Components/stmpe811/stmpe811.c ****   
 900              		.loc 1 298 3 view .LVU203
 298:Drivers/BSP/Components/stmpe811/stmpe811.c ****   
 901              		.loc 1 298 9 is_stmt 0 view .LVU204
 902 0004 C4B2     		uxtb	r4, r0
 903 0006 0921     		movs	r1, #9
 904              	.LVL108:
 298:Drivers/BSP/Components/stmpe811/stmpe811.c ****   
 905              		.loc 1 298 9 view .LVU205
 906 0008 2046     		mov	r0, r4
 907              	.LVL109:
 298:Drivers/BSP/Components/stmpe811/stmpe811.c ****   
 908              		.loc 1 298 9 view .LVU206
 909 000a FFF7FEFF 		bl	IOE_Read
 910              	.LVL110:
 301:Drivers/BSP/Components/stmpe811/stmpe811.c ****     
 911              		.loc 1 301 3 is_stmt 1 view .LVU207
 301:Drivers/BSP/Components/stmpe811/stmpe811.c ****     
 912              		.loc 1 301 7 is_stmt 0 view .LVU208
 913 000e 00F0FB02 		and	r2, r0, #251
 914              	.LVL111:
 304:Drivers/BSP/Components/stmpe811/stmpe811.c ****   
 915              		.loc 1 304 3 is_stmt 1 view .LVU209
 307:Drivers/BSP/Components/stmpe811/stmpe811.c ****  
 916              		.loc 1 307 3 view .LVU210
 917 0012 2A43     		orrs	r2, r2, r5
 918              	.LVL112:
 307:Drivers/BSP/Components/stmpe811/stmpe811.c ****  
 919              		.loc 1 307 3 is_stmt 0 view .LVU211
 920 0014 0921     		movs	r1, #9
 921 0016 2046     		mov	r0, r4
 922 0018 FFF7FEFF 		bl	IOE_Write
 923              	.LVL113:
 309:Drivers/BSP/Components/stmpe811/stmpe811.c **** 
 924              		.loc 1 309 1 view .LVU212
 925 001c 38BD     		pop	{r3, r4, r5, pc}
 309:Drivers/BSP/Components/stmpe811/stmpe811.c **** 
 926              		.loc 1 309 1 view .LVU213
 927              		.cfi_endproc
ARM GAS  /var/folders/n6/c271nzx11xl4r4_m7sqjlt0m0000gn/T//cc2SfOSY.s 			page 37


 928              	.LFE7:
 930              		.section	.text.stmpe811_SetITType,"ax",%progbits
 931              		.align	1
 932              		.global	stmpe811_SetITType
 933              		.syntax unified
 934              		.thumb
 935              		.thumb_func
 937              	stmpe811_SetITType:
 938              	.LVL114:
 939              	.LFB8:
 320:Drivers/BSP/Components/stmpe811/stmpe811.c ****   uint8_t tmp = 0;
 940              		.loc 1 320 1 is_stmt 1 view -0
 941              		.cfi_startproc
 942              		@ args = 0, pretend = 0, frame = 0
 943              		@ frame_needed = 0, uses_anonymous_args = 0
 320:Drivers/BSP/Components/stmpe811/stmpe811.c ****   uint8_t tmp = 0;
 944              		.loc 1 320 1 is_stmt 0 view .LVU215
 945 0000 38B5     		push	{r3, r4, r5, lr}
 946              		.cfi_def_cfa_offset 16
 947              		.cfi_offset 3, -16
 948              		.cfi_offset 4, -12
 949              		.cfi_offset 5, -8
 950              		.cfi_offset 14, -4
 951 0002 0D46     		mov	r5, r1
 321:Drivers/BSP/Components/stmpe811/stmpe811.c ****   
 952              		.loc 1 321 3 is_stmt 1 view .LVU216
 953              	.LVL115:
 324:Drivers/BSP/Components/stmpe811/stmpe811.c ****   
 954              		.loc 1 324 3 view .LVU217
 324:Drivers/BSP/Components/stmpe811/stmpe811.c ****   
 955              		.loc 1 324 9 is_stmt 0 view .LVU218
 956 0004 C4B2     		uxtb	r4, r0
 957 0006 0921     		movs	r1, #9
 958              	.LVL116:
 324:Drivers/BSP/Components/stmpe811/stmpe811.c ****   
 959              		.loc 1 324 9 view .LVU219
 960 0008 2046     		mov	r0, r4
 961              	.LVL117:
 324:Drivers/BSP/Components/stmpe811/stmpe811.c ****   
 962              		.loc 1 324 9 view .LVU220
 963 000a FFF7FEFF 		bl	IOE_Read
 964              	.LVL118:
 327:Drivers/BSP/Components/stmpe811/stmpe811.c ****     
 965              		.loc 1 327 3 is_stmt 1 view .LVU221
 327:Drivers/BSP/Components/stmpe811/stmpe811.c ****     
 966              		.loc 1 327 7 is_stmt 0 view .LVU222
 967 000e 00F0FD02 		and	r2, r0, #253
 968              	.LVL119:
 330:Drivers/BSP/Components/stmpe811/stmpe811.c ****   
 969              		.loc 1 330 3 is_stmt 1 view .LVU223
 333:Drivers/BSP/Components/stmpe811/stmpe811.c ****  
 970              		.loc 1 333 3 view .LVU224
 971 0012 2A43     		orrs	r2, r2, r5
 972              	.LVL120:
 333:Drivers/BSP/Components/stmpe811/stmpe811.c ****  
 973              		.loc 1 333 3 is_stmt 0 view .LVU225
 974 0014 0921     		movs	r1, #9
ARM GAS  /var/folders/n6/c271nzx11xl4r4_m7sqjlt0m0000gn/T//cc2SfOSY.s 			page 38


 975 0016 2046     		mov	r0, r4
 976 0018 FFF7FEFF 		bl	IOE_Write
 977              	.LVL121:
 335:Drivers/BSP/Components/stmpe811/stmpe811.c **** 
 978              		.loc 1 335 1 view .LVU226
 979 001c 38BD     		pop	{r3, r4, r5, pc}
 335:Drivers/BSP/Components/stmpe811/stmpe811.c **** 
 980              		.loc 1 335 1 view .LVU227
 981              		.cfi_endproc
 982              	.LFE8:
 984              		.section	.text.stmpe811_GlobalITStatus,"ax",%progbits
 985              		.align	1
 986              		.global	stmpe811_GlobalITStatus
 987              		.syntax unified
 988              		.thumb
 989              		.thumb_func
 991              	stmpe811_GlobalITStatus:
 992              	.LVL122:
 993              	.LFB9:
 351:Drivers/BSP/Components/stmpe811/stmpe811.c ****   /* Return the global IT source status */
 994              		.loc 1 351 1 is_stmt 1 view -0
 995              		.cfi_startproc
 996              		@ args = 0, pretend = 0, frame = 0
 997              		@ frame_needed = 0, uses_anonymous_args = 0
 351:Drivers/BSP/Components/stmpe811/stmpe811.c ****   /* Return the global IT source status */
 998              		.loc 1 351 1 is_stmt 0 view .LVU229
 999 0000 10B5     		push	{r4, lr}
 1000              		.cfi_def_cfa_offset 8
 1001              		.cfi_offset 4, -8
 1002              		.cfi_offset 14, -4
 1003 0002 0C46     		mov	r4, r1
 353:Drivers/BSP/Components/stmpe811/stmpe811.c **** }
 1004              		.loc 1 353 3 is_stmt 1 view .LVU230
 353:Drivers/BSP/Components/stmpe811/stmpe811.c **** }
 1005              		.loc 1 353 11 is_stmt 0 view .LVU231
 1006 0004 0B21     		movs	r1, #11
 1007              	.LVL123:
 353:Drivers/BSP/Components/stmpe811/stmpe811.c **** }
 1008              		.loc 1 353 11 view .LVU232
 1009 0006 C0B2     		uxtb	r0, r0
 1010              	.LVL124:
 353:Drivers/BSP/Components/stmpe811/stmpe811.c **** }
 1011              		.loc 1 353 11 view .LVU233
 1012 0008 FFF7FEFF 		bl	IOE_Read
 1013              	.LVL125:
 353:Drivers/BSP/Components/stmpe811/stmpe811.c **** }
 1014              		.loc 1 353 64 discriminator 1 view .LVU234
 1015 000c 8443     		bics	r4, r4, r0
 1016              	.LVL126:
 354:Drivers/BSP/Components/stmpe811/stmpe811.c **** 
 1017              		.loc 1 354 1 view .LVU235
 1018 000e 0CBF     		ite	eq
 1019 0010 0120     		moveq	r0, #1
 1020 0012 0020     		movne	r0, #0
 1021 0014 10BD     		pop	{r4, pc}
 1022              		.cfi_endproc
 1023              	.LFE9:
ARM GAS  /var/folders/n6/c271nzx11xl4r4_m7sqjlt0m0000gn/T//cc2SfOSY.s 			page 39


 1025              		.section	.text.stmpe811_ReadGITStatus,"ax",%progbits
 1026              		.align	1
 1027              		.global	stmpe811_ReadGITStatus
 1028              		.syntax unified
 1029              		.thumb
 1030              		.thumb_func
 1032              	stmpe811_ReadGITStatus:
 1033              	.LVL127:
 1034              	.LFB10:
 370:Drivers/BSP/Components/stmpe811/stmpe811.c ****   /* Return the global IT source status */
 1035              		.loc 1 370 1 is_stmt 1 view -0
 1036              		.cfi_startproc
 1037              		@ args = 0, pretend = 0, frame = 0
 1038              		@ frame_needed = 0, uses_anonymous_args = 0
 370:Drivers/BSP/Components/stmpe811/stmpe811.c ****   /* Return the global IT source status */
 1039              		.loc 1 370 1 is_stmt 0 view .LVU237
 1040 0000 10B5     		push	{r4, lr}
 1041              		.cfi_def_cfa_offset 8
 1042              		.cfi_offset 4, -8
 1043              		.cfi_offset 14, -4
 1044 0002 0C46     		mov	r4, r1
 372:Drivers/BSP/Components/stmpe811/stmpe811.c **** }
 1045              		.loc 1 372 3 is_stmt 1 view .LVU238
 372:Drivers/BSP/Components/stmpe811/stmpe811.c **** }
 1046              		.loc 1 372 11 is_stmt 0 view .LVU239
 1047 0004 0B21     		movs	r1, #11
 1048              	.LVL128:
 372:Drivers/BSP/Components/stmpe811/stmpe811.c **** }
 1049              		.loc 1 372 11 view .LVU240
 1050 0006 C0B2     		uxtb	r0, r0
 1051              	.LVL129:
 372:Drivers/BSP/Components/stmpe811/stmpe811.c **** }
 1052              		.loc 1 372 11 view .LVU241
 1053 0008 FFF7FEFF 		bl	IOE_Read
 1054              	.LVL130:
 373:Drivers/BSP/Components/stmpe811/stmpe811.c **** 
 1055              		.loc 1 373 1 view .LVU242
 1056 000c 2040     		ands	r0, r0, r4
 1057 000e 10BD     		pop	{r4, pc}
 373:Drivers/BSP/Components/stmpe811/stmpe811.c **** 
 1058              		.loc 1 373 1 view .LVU243
 1059              		.cfi_endproc
 1060              	.LFE10:
 1062              		.section	.text.stmpe811_TS_ITStatus,"ax",%progbits
 1063              		.align	1
 1064              		.global	stmpe811_TS_ITStatus
 1065              		.syntax unified
 1066              		.thumb
 1067              		.thumb_func
 1069              	stmpe811_TS_ITStatus:
 1070              	.LVL131:
 1071              	.LFB31:
 921:Drivers/BSP/Components/stmpe811/stmpe811.c ****   /* Return TS interrupts status */
 1072              		.loc 1 921 1 is_stmt 1 view -0
 1073              		.cfi_startproc
 1074              		@ args = 0, pretend = 0, frame = 0
 1075              		@ frame_needed = 0, uses_anonymous_args = 0
ARM GAS  /var/folders/n6/c271nzx11xl4r4_m7sqjlt0m0000gn/T//cc2SfOSY.s 			page 40


 921:Drivers/BSP/Components/stmpe811/stmpe811.c ****   /* Return TS interrupts status */
 1076              		.loc 1 921 1 is_stmt 0 view .LVU245
 1077 0000 08B5     		push	{r3, lr}
 1078              		.cfi_def_cfa_offset 8
 1079              		.cfi_offset 3, -8
 1080              		.cfi_offset 14, -4
 923:Drivers/BSP/Components/stmpe811/stmpe811.c **** }
 1081              		.loc 1 923 3 is_stmt 1 view .LVU246
 923:Drivers/BSP/Components/stmpe811/stmpe811.c **** }
 1082              		.loc 1 923 10 is_stmt 0 view .LVU247
 1083 0002 1F21     		movs	r1, #31
 1084 0004 FFF7FEFF 		bl	stmpe811_ReadGITStatus
 1085              	.LVL132:
 924:Drivers/BSP/Components/stmpe811/stmpe811.c **** 
 1086              		.loc 1 924 1 view .LVU248
 1087 0008 08BD     		pop	{r3, pc}
 1088              		.cfi_endproc
 1089              	.LFE31:
 1091              		.section	.text.stmpe811_ClearGlobalIT,"ax",%progbits
 1092              		.align	1
 1093              		.global	stmpe811_ClearGlobalIT
 1094              		.syntax unified
 1095              		.thumb
 1096              		.thumb_func
 1098              	stmpe811_ClearGlobalIT:
 1099              	.LVL133:
 1100              	.LFB11:
 390:Drivers/BSP/Components/stmpe811/stmpe811.c ****   /* Write 1 to the bits that have to be cleared */
 1101              		.loc 1 390 1 is_stmt 1 view -0
 1102              		.cfi_startproc
 1103              		@ args = 0, pretend = 0, frame = 0
 1104              		@ frame_needed = 0, uses_anonymous_args = 0
 390:Drivers/BSP/Components/stmpe811/stmpe811.c ****   /* Write 1 to the bits that have to be cleared */
 1105              		.loc 1 390 1 is_stmt 0 view .LVU250
 1106 0000 08B5     		push	{r3, lr}
 1107              		.cfi_def_cfa_offset 8
 1108              		.cfi_offset 3, -8
 1109              		.cfi_offset 14, -4
 1110 0002 0A46     		mov	r2, r1
 392:Drivers/BSP/Components/stmpe811/stmpe811.c **** }
 1111              		.loc 1 392 3 is_stmt 1 view .LVU251
 1112 0004 0B21     		movs	r1, #11
 1113              	.LVL134:
 392:Drivers/BSP/Components/stmpe811/stmpe811.c **** }
 1114              		.loc 1 392 3 is_stmt 0 view .LVU252
 1115 0006 C0B2     		uxtb	r0, r0
 1116              	.LVL135:
 392:Drivers/BSP/Components/stmpe811/stmpe811.c **** }
 1117              		.loc 1 392 3 view .LVU253
 1118 0008 FFF7FEFF 		bl	IOE_Write
 1119              	.LVL136:
 393:Drivers/BSP/Components/stmpe811/stmpe811.c **** 
 1120              		.loc 1 393 1 view .LVU254
 1121 000c 08BD     		pop	{r3, pc}
 1122              		.cfi_endproc
 1123              	.LFE11:
 1125              		.section	.text.stmpe811_IO_ClearIT,"ax",%progbits
ARM GAS  /var/folders/n6/c271nzx11xl4r4_m7sqjlt0m0000gn/T//cc2SfOSY.s 			page 41


 1126              		.align	1
 1127              		.global	stmpe811_IO_ClearIT
 1128              		.syntax unified
 1129              		.thumb
 1130              		.thumb_func
 1132              	stmpe811_IO_ClearIT:
 1133              	.LVL137:
 1134              	.LFB25:
 738:Drivers/BSP/Components/stmpe811/stmpe811.c ****   /* Clear the global IO IT pending bit */
 1135              		.loc 1 738 1 is_stmt 1 view -0
 1136              		.cfi_startproc
 1137              		@ args = 0, pretend = 0, frame = 0
 1138              		@ frame_needed = 0, uses_anonymous_args = 0
 738:Drivers/BSP/Components/stmpe811/stmpe811.c ****   /* Clear the global IO IT pending bit */
 1139              		.loc 1 738 1 is_stmt 0 view .LVU256
 1140 0000 38B5     		push	{r3, r4, r5, lr}
 1141              		.cfi_def_cfa_offset 16
 1142              		.cfi_offset 3, -16
 1143              		.cfi_offset 4, -12
 1144              		.cfi_offset 5, -8
 1145              		.cfi_offset 14, -4
 1146 0002 0446     		mov	r4, r0
 1147 0004 0D46     		mov	r5, r1
 740:Drivers/BSP/Components/stmpe811/stmpe811.c ****   
 1148              		.loc 1 740 3 is_stmt 1 view .LVU257
 1149 0006 8021     		movs	r1, #128
 1150              	.LVL138:
 740:Drivers/BSP/Components/stmpe811/stmpe811.c ****   
 1151              		.loc 1 740 3 is_stmt 0 view .LVU258
 1152 0008 FFF7FEFF 		bl	stmpe811_ClearGlobalIT
 1153              	.LVL139:
 743:Drivers/BSP/Components/stmpe811/stmpe811.c ****   
 1154              		.loc 1 743 3 is_stmt 1 view .LVU259
 1155 000c E4B2     		uxtb	r4, r4
 1156              	.LVL140:
 743:Drivers/BSP/Components/stmpe811/stmpe811.c ****   
 1157              		.loc 1 743 3 is_stmt 0 view .LVU260
 1158 000e EDB2     		uxtb	r5, r5
 1159              	.LVL141:
 743:Drivers/BSP/Components/stmpe811/stmpe811.c ****   
 1160              		.loc 1 743 3 view .LVU261
 1161 0010 2A46     		mov	r2, r5
 1162 0012 0D21     		movs	r1, #13
 1163 0014 2046     		mov	r0, r4
 1164 0016 FFF7FEFF 		bl	IOE_Write
 1165              	.LVL142:
 746:Drivers/BSP/Components/stmpe811/stmpe811.c ****   
 1166              		.loc 1 746 3 is_stmt 1 view .LVU262
 1167 001a 2A46     		mov	r2, r5
 1168 001c 1421     		movs	r1, #20
 1169 001e 2046     		mov	r0, r4
 1170 0020 FFF7FEFF 		bl	IOE_Write
 1171              	.LVL143:
 749:Drivers/BSP/Components/stmpe811/stmpe811.c ****   
 1172              		.loc 1 749 3 view .LVU263
 1173 0024 2A46     		mov	r2, r5
 1174 0026 1521     		movs	r1, #21
ARM GAS  /var/folders/n6/c271nzx11xl4r4_m7sqjlt0m0000gn/T//cc2SfOSY.s 			page 42


 1175 0028 2046     		mov	r0, r4
 1176 002a FFF7FEFF 		bl	IOE_Write
 1177              	.LVL144:
 752:Drivers/BSP/Components/stmpe811/stmpe811.c **** }
 1178              		.loc 1 752 3 view .LVU264
 1179 002e 2A46     		mov	r2, r5
 1180 0030 1621     		movs	r1, #22
 1181 0032 2046     		mov	r0, r4
 1182 0034 FFF7FEFF 		bl	IOE_Write
 1183              	.LVL145:
 753:Drivers/BSP/Components/stmpe811/stmpe811.c **** 
 1184              		.loc 1 753 1 is_stmt 0 view .LVU265
 1185 0038 38BD     		pop	{r3, r4, r5, pc}
 1186              		.cfi_endproc
 1187              	.LFE25:
 1189              		.section	.text.stmpe811_TS_ClearIT,"ax",%progbits
 1190              		.align	1
 1191              		.global	stmpe811_TS_ClearIT
 1192              		.syntax unified
 1193              		.thumb
 1194              		.thumb_func
 1196              	stmpe811_TS_ClearIT:
 1197              	.LVL146:
 1198              	.LFB32:
 932:Drivers/BSP/Components/stmpe811/stmpe811.c ****   /* Clear the global TS IT source */
 1199              		.loc 1 932 1 is_stmt 1 view -0
 1200              		.cfi_startproc
 1201              		@ args = 0, pretend = 0, frame = 0
 1202              		@ frame_needed = 0, uses_anonymous_args = 0
 932:Drivers/BSP/Components/stmpe811/stmpe811.c ****   /* Clear the global TS IT source */
 1203              		.loc 1 932 1 is_stmt 0 view .LVU267
 1204 0000 08B5     		push	{r3, lr}
 1205              		.cfi_def_cfa_offset 8
 1206              		.cfi_offset 3, -8
 1207              		.cfi_offset 14, -4
 934:Drivers/BSP/Components/stmpe811/stmpe811.c **** }
 1208              		.loc 1 934 3 is_stmt 1 view .LVU268
 1209 0002 1F21     		movs	r1, #31
 1210 0004 FFF7FEFF 		bl	stmpe811_ClearGlobalIT
 1211              	.LVL147:
 935:Drivers/BSP/Components/stmpe811/stmpe811.c **** 
 1212              		.loc 1 935 1 is_stmt 0 view .LVU269
 1213 0008 08BD     		pop	{r3, pc}
 1214              		.cfi_endproc
 1215              	.LFE32:
 1217              		.section	.text.stmpe811_IO_InitPin,"ax",%progbits
 1218              		.align	1
 1219              		.global	stmpe811_IO_InitPin
 1220              		.syntax unified
 1221              		.thumb
 1222              		.thumb_func
 1224              	stmpe811_IO_InitPin:
 1225              	.LVL148:
 1226              	.LFB14:
 499:Drivers/BSP/Components/stmpe811/stmpe811.c ****   uint8_t tmp = 0;   
 1227              		.loc 1 499 1 is_stmt 1 view -0
 1228              		.cfi_startproc
ARM GAS  /var/folders/n6/c271nzx11xl4r4_m7sqjlt0m0000gn/T//cc2SfOSY.s 			page 43


 1229              		@ args = 0, pretend = 0, frame = 0
 1230              		@ frame_needed = 0, uses_anonymous_args = 0
 499:Drivers/BSP/Components/stmpe811/stmpe811.c ****   uint8_t tmp = 0;   
 1231              		.loc 1 499 1 is_stmt 0 view .LVU271
 1232 0000 70B5     		push	{r4, r5, r6, lr}
 1233              		.cfi_def_cfa_offset 16
 1234              		.cfi_offset 4, -16
 1235              		.cfi_offset 5, -12
 1236              		.cfi_offset 6, -8
 1237              		.cfi_offset 14, -4
 1238 0002 0C46     		mov	r4, r1
 1239 0004 1646     		mov	r6, r2
 500:Drivers/BSP/Components/stmpe811/stmpe811.c ****   
 1240              		.loc 1 500 3 is_stmt 1 view .LVU272
 1241              	.LVL149:
 503:Drivers/BSP/Components/stmpe811/stmpe811.c ****   
 1242              		.loc 1 503 3 view .LVU273
 503:Drivers/BSP/Components/stmpe811/stmpe811.c ****   
 1243              		.loc 1 503 9 is_stmt 0 view .LVU274
 1244 0006 C5B2     		uxtb	r5, r0
 1245 0008 1321     		movs	r1, #19
 1246              	.LVL150:
 503:Drivers/BSP/Components/stmpe811/stmpe811.c ****   
 1247              		.loc 1 503 9 view .LVU275
 1248 000a 2846     		mov	r0, r5
 1249              	.LVL151:
 503:Drivers/BSP/Components/stmpe811/stmpe811.c ****   
 1250              		.loc 1 503 9 view .LVU276
 1251 000c FFF7FEFF 		bl	IOE_Read
 1252              	.LVL152:
 506:Drivers/BSP/Components/stmpe811/stmpe811.c ****   {
 1253              		.loc 1 506 3 is_stmt 1 view .LVU277
 506:Drivers/BSP/Components/stmpe811/stmpe811.c ****   {
 1254              		.loc 1 506 6 is_stmt 0 view .LVU278
 1255 0010 3EB1     		cbz	r6, .L67
 508:Drivers/BSP/Components/stmpe811/stmpe811.c ****   }  
 1256              		.loc 1 508 5 is_stmt 1 view .LVU279
 508:Drivers/BSP/Components/stmpe811/stmpe811.c ****   }  
 1257              		.loc 1 508 12 is_stmt 0 view .LVU280
 1258 0012 E4B2     		uxtb	r4, r4
 1259              	.LVL153:
 508:Drivers/BSP/Components/stmpe811/stmpe811.c ****   }  
 1260              		.loc 1 508 9 view .LVU281
 1261 0014 2043     		orrs	r0, r0, r4
 1262              	.LVL154:
 508:Drivers/BSP/Components/stmpe811/stmpe811.c ****   }  
 1263              		.loc 1 508 9 view .LVU282
 1264 0016 C2B2     		uxtb	r2, r0
 1265              	.LVL155:
 1266              	.L68:
 516:Drivers/BSP/Components/stmpe811/stmpe811.c **** }
 1267              		.loc 1 516 3 is_stmt 1 view .LVU283
 1268 0018 1321     		movs	r1, #19
 1269 001a 2846     		mov	r0, r5
 1270 001c FFF7FEFF 		bl	IOE_Write
 1271              	.LVL156:
 517:Drivers/BSP/Components/stmpe811/stmpe811.c **** 
ARM GAS  /var/folders/n6/c271nzx11xl4r4_m7sqjlt0m0000gn/T//cc2SfOSY.s 			page 44


 1272              		.loc 1 517 1 is_stmt 0 view .LVU284
 1273 0020 70BD     		pop	{r4, r5, r6, pc}
 1274              	.LVL157:
 1275              	.L67:
 512:Drivers/BSP/Components/stmpe811/stmpe811.c ****   }
 1276              		.loc 1 512 5 is_stmt 1 view .LVU285
 512:Drivers/BSP/Components/stmpe811/stmpe811.c ****   }
 1277              		.loc 1 512 9 is_stmt 0 view .LVU286
 1278 0022 E443     		mvns	r4, r4
 1279              	.LVL158:
 512:Drivers/BSP/Components/stmpe811/stmpe811.c ****   }
 1280              		.loc 1 512 9 view .LVU287
 1281 0024 64B2     		sxtb	r4, r4
 1282              	.LVL159:
 512:Drivers/BSP/Components/stmpe811/stmpe811.c ****   }
 1283              		.loc 1 512 9 view .LVU288
 1284 0026 00EA0402 		and	r2, r0, r4
 1285 002a D2B2     		uxtb	r2, r2
 1286              	.LVL160:
 512:Drivers/BSP/Components/stmpe811/stmpe811.c ****   }
 1287              		.loc 1 512 9 view .LVU289
 1288 002c F4E7     		b	.L68
 1289              		.cfi_endproc
 1290              	.LFE14:
 1292              		.section	.text.stmpe811_IO_DisableAF,"ax",%progbits
 1293              		.align	1
 1294              		.global	stmpe811_IO_DisableAF
 1295              		.syntax unified
 1296              		.thumb
 1297              		.thumb_func
 1299              	stmpe811_IO_DisableAF:
 1300              	.LVL161:
 1301              	.LFB15:
 528:Drivers/BSP/Components/stmpe811/stmpe811.c ****   uint8_t tmp = 0;
 1302              		.loc 1 528 1 is_stmt 1 view -0
 1303              		.cfi_startproc
 1304              		@ args = 0, pretend = 0, frame = 0
 1305              		@ frame_needed = 0, uses_anonymous_args = 0
 528:Drivers/BSP/Components/stmpe811/stmpe811.c ****   uint8_t tmp = 0;
 1306              		.loc 1 528 1 is_stmt 0 view .LVU291
 1307 0000 38B5     		push	{r3, r4, r5, lr}
 1308              		.cfi_def_cfa_offset 16
 1309              		.cfi_offset 3, -16
 1310              		.cfi_offset 4, -12
 1311              		.cfi_offset 5, -8
 1312              		.cfi_offset 14, -4
 1313 0002 0C46     		mov	r4, r1
 529:Drivers/BSP/Components/stmpe811/stmpe811.c ****   
 1314              		.loc 1 529 3 is_stmt 1 view .LVU292
 1315              	.LVL162:
 532:Drivers/BSP/Components/stmpe811/stmpe811.c **** 
 1316              		.loc 1 532 3 view .LVU293
 532:Drivers/BSP/Components/stmpe811/stmpe811.c **** 
 1317              		.loc 1 532 9 is_stmt 0 view .LVU294
 1318 0004 C5B2     		uxtb	r5, r0
 1319 0006 1721     		movs	r1, #23
 1320              	.LVL163:
ARM GAS  /var/folders/n6/c271nzx11xl4r4_m7sqjlt0m0000gn/T//cc2SfOSY.s 			page 45


 532:Drivers/BSP/Components/stmpe811/stmpe811.c **** 
 1321              		.loc 1 532 9 view .LVU295
 1322 0008 2846     		mov	r0, r5
 1323              	.LVL164:
 532:Drivers/BSP/Components/stmpe811/stmpe811.c **** 
 1324              		.loc 1 532 9 view .LVU296
 1325 000a FFF7FEFF 		bl	IOE_Read
 1326              	.LVL165:
 535:Drivers/BSP/Components/stmpe811/stmpe811.c **** 
 1327              		.loc 1 535 3 is_stmt 1 view .LVU297
 535:Drivers/BSP/Components/stmpe811/stmpe811.c **** 
 1328              		.loc 1 535 10 is_stmt 0 view .LVU298
 1329 000e E4B2     		uxtb	r4, r4
 1330              	.LVL166:
 535:Drivers/BSP/Components/stmpe811/stmpe811.c **** 
 1331              		.loc 1 535 7 view .LVU299
 1332 0010 0443     		orrs	r4, r4, r0
 1333              	.LVL167:
 538:Drivers/BSP/Components/stmpe811/stmpe811.c ****   
 1334              		.loc 1 538 3 is_stmt 1 view .LVU300
 1335 0012 E2B2     		uxtb	r2, r4
 1336 0014 1721     		movs	r1, #23
 1337 0016 2846     		mov	r0, r5
 1338 0018 FFF7FEFF 		bl	IOE_Write
 1339              	.LVL168:
 540:Drivers/BSP/Components/stmpe811/stmpe811.c **** 
 1340              		.loc 1 540 1 is_stmt 0 view .LVU301
 1341 001c 38BD     		pop	{r3, r4, r5, pc}
 540:Drivers/BSP/Components/stmpe811/stmpe811.c **** 
 1342              		.loc 1 540 1 view .LVU302
 1343              		.cfi_endproc
 1344              	.LFE15:
 1346              		.section	.text.stmpe811_IO_Start,"ax",%progbits
 1347              		.align	1
 1348              		.global	stmpe811_IO_Start
 1349              		.syntax unified
 1350              		.thumb
 1351              		.thumb_func
 1353              	stmpe811_IO_Start:
 1354              	.LVL169:
 1355              	.LFB12:
 404:Drivers/BSP/Components/stmpe811/stmpe811.c ****   uint8_t mode;
 1356              		.loc 1 404 1 is_stmt 1 view -0
 1357              		.cfi_startproc
 1358              		@ args = 0, pretend = 0, frame = 0
 1359              		@ frame_needed = 0, uses_anonymous_args = 0
 404:Drivers/BSP/Components/stmpe811/stmpe811.c ****   uint8_t mode;
 1360              		.loc 1 404 1 is_stmt 0 view .LVU304
 1361 0000 70B5     		push	{r4, r5, r6, lr}
 1362              		.cfi_def_cfa_offset 16
 1363              		.cfi_offset 4, -16
 1364              		.cfi_offset 5, -12
 1365              		.cfi_offset 6, -8
 1366              		.cfi_offset 14, -4
 1367 0002 0446     		mov	r4, r0
 1368 0004 0D46     		mov	r5, r1
 405:Drivers/BSP/Components/stmpe811/stmpe811.c ****   
ARM GAS  /var/folders/n6/c271nzx11xl4r4_m7sqjlt0m0000gn/T//cc2SfOSY.s 			page 46


 1369              		.loc 1 405 3 is_stmt 1 view .LVU305
 408:Drivers/BSP/Components/stmpe811/stmpe811.c ****   
 1370              		.loc 1 408 3 view .LVU306
 408:Drivers/BSP/Components/stmpe811/stmpe811.c ****   
 1371              		.loc 1 408 10 is_stmt 0 view .LVU307
 1372 0006 C6B2     		uxtb	r6, r0
 1373 0008 0421     		movs	r1, #4
 1374              	.LVL170:
 408:Drivers/BSP/Components/stmpe811/stmpe811.c ****   
 1375              		.loc 1 408 10 view .LVU308
 1376 000a 3046     		mov	r0, r6
 1377              	.LVL171:
 408:Drivers/BSP/Components/stmpe811/stmpe811.c ****   
 1378              		.loc 1 408 10 view .LVU309
 1379 000c FFF7FEFF 		bl	IOE_Read
 1380              	.LVL172:
 411:Drivers/BSP/Components/stmpe811/stmpe811.c ****   
 1381              		.loc 1 411 3 is_stmt 1 view .LVU310
 414:Drivers/BSP/Components/stmpe811/stmpe811.c **** 
 1382              		.loc 1 414 3 view .LVU311
 1383 0010 00F0FA02 		and	r2, r0, #250
 1384 0014 0421     		movs	r1, #4
 1385 0016 3046     		mov	r0, r6
 1386              	.LVL173:
 414:Drivers/BSP/Components/stmpe811/stmpe811.c **** 
 1387              		.loc 1 414 3 is_stmt 0 view .LVU312
 1388 0018 FFF7FEFF 		bl	IOE_Write
 1389              	.LVL174:
 417:Drivers/BSP/Components/stmpe811/stmpe811.c **** }
 1390              		.loc 1 417 3 is_stmt 1 view .LVU313
 1391 001c E9B2     		uxtb	r1, r5
 1392 001e 2046     		mov	r0, r4
 1393 0020 FFF7FEFF 		bl	stmpe811_IO_DisableAF
 1394              	.LVL175:
 418:Drivers/BSP/Components/stmpe811/stmpe811.c **** 
 1395              		.loc 1 418 1 is_stmt 0 view .LVU314
 1396 0024 70BD     		pop	{r4, r5, r6, pc}
 418:Drivers/BSP/Components/stmpe811/stmpe811.c **** 
 1397              		.loc 1 418 1 view .LVU315
 1398              		.cfi_endproc
 1399              	.LFE12:
 1401              		.section	.text.stmpe811_IO_EnableAF,"ax",%progbits
 1402              		.align	1
 1403              		.global	stmpe811_IO_EnableAF
 1404              		.syntax unified
 1405              		.thumb
 1406              		.thumb_func
 1408              	stmpe811_IO_EnableAF:
 1409              	.LVL176:
 1410              	.LFB16:
 551:Drivers/BSP/Components/stmpe811/stmpe811.c ****   uint8_t tmp = 0;
 1411              		.loc 1 551 1 is_stmt 1 view -0
 1412              		.cfi_startproc
 1413              		@ args = 0, pretend = 0, frame = 0
 1414              		@ frame_needed = 0, uses_anonymous_args = 0
 551:Drivers/BSP/Components/stmpe811/stmpe811.c ****   uint8_t tmp = 0;
 1415              		.loc 1 551 1 is_stmt 0 view .LVU317
ARM GAS  /var/folders/n6/c271nzx11xl4r4_m7sqjlt0m0000gn/T//cc2SfOSY.s 			page 47


 1416 0000 38B5     		push	{r3, r4, r5, lr}
 1417              		.cfi_def_cfa_offset 16
 1418              		.cfi_offset 3, -16
 1419              		.cfi_offset 4, -12
 1420              		.cfi_offset 5, -8
 1421              		.cfi_offset 14, -4
 1422 0002 0C46     		mov	r4, r1
 552:Drivers/BSP/Components/stmpe811/stmpe811.c ****   
 1423              		.loc 1 552 3 is_stmt 1 view .LVU318
 1424              	.LVL177:
 555:Drivers/BSP/Components/stmpe811/stmpe811.c **** 
 1425              		.loc 1 555 3 view .LVU319
 555:Drivers/BSP/Components/stmpe811/stmpe811.c **** 
 1426              		.loc 1 555 9 is_stmt 0 view .LVU320
 1427 0004 C5B2     		uxtb	r5, r0
 1428 0006 1721     		movs	r1, #23
 1429              	.LVL178:
 555:Drivers/BSP/Components/stmpe811/stmpe811.c **** 
 1430              		.loc 1 555 9 view .LVU321
 1431 0008 2846     		mov	r0, r5
 1432              	.LVL179:
 555:Drivers/BSP/Components/stmpe811/stmpe811.c **** 
 1433              		.loc 1 555 9 view .LVU322
 1434 000a FFF7FEFF 		bl	IOE_Read
 1435              	.LVL180:
 558:Drivers/BSP/Components/stmpe811/stmpe811.c ****   
 1436              		.loc 1 558 3 is_stmt 1 view .LVU323
 558:Drivers/BSP/Components/stmpe811/stmpe811.c ****   
 1437              		.loc 1 558 7 is_stmt 0 view .LVU324
 1438 000e E443     		mvns	r4, r4
 1439              	.LVL181:
 558:Drivers/BSP/Components/stmpe811/stmpe811.c ****   
 1440              		.loc 1 558 7 view .LVU325
 1441 0010 64B2     		sxtb	r4, r4
 1442              	.LVL182:
 558:Drivers/BSP/Components/stmpe811/stmpe811.c ****   
 1443              		.loc 1 558 7 view .LVU326
 1444 0012 00EA0402 		and	r2, r0, r4
 1445              	.LVL183:
 561:Drivers/BSP/Components/stmpe811/stmpe811.c **** }
 1446              		.loc 1 561 3 is_stmt 1 view .LVU327
 1447 0016 D2B2     		uxtb	r2, r2
 561:Drivers/BSP/Components/stmpe811/stmpe811.c **** }
 1448              		.loc 1 561 3 is_stmt 0 view .LVU328
 1449 0018 1721     		movs	r1, #23
 1450 001a 2846     		mov	r0, r5
 1451 001c FFF7FEFF 		bl	IOE_Write
 1452              	.LVL184:
 562:Drivers/BSP/Components/stmpe811/stmpe811.c **** 
 1453              		.loc 1 562 1 view .LVU329
 1454 0020 38BD     		pop	{r3, r4, r5, pc}
 1455              		.cfi_endproc
 1456              	.LFE16:
 1458              		.section	.text.stmpe811_TS_Start,"ax",%progbits
 1459              		.align	1
 1460              		.global	stmpe811_TS_Start
 1461              		.syntax unified
ARM GAS  /var/folders/n6/c271nzx11xl4r4_m7sqjlt0m0000gn/T//cc2SfOSY.s 			page 48


 1462              		.thumb
 1463              		.thumb_func
 1465              	stmpe811_TS_Start:
 1466              	.LVL185:
 1467              	.LFB26:
 761:Drivers/BSP/Components/stmpe811/stmpe811.c ****   uint8_t mode;
 1468              		.loc 1 761 1 is_stmt 1 view -0
 1469              		.cfi_startproc
 1470              		@ args = 0, pretend = 0, frame = 0
 1471              		@ frame_needed = 0, uses_anonymous_args = 0
 761:Drivers/BSP/Components/stmpe811/stmpe811.c ****   uint8_t mode;
 1472              		.loc 1 761 1 is_stmt 0 view .LVU331
 1473 0000 70B5     		push	{r4, r5, r6, lr}
 1474              		.cfi_def_cfa_offset 16
 1475              		.cfi_offset 4, -16
 1476              		.cfi_offset 5, -12
 1477              		.cfi_offset 6, -8
 1478              		.cfi_offset 14, -4
 1479 0002 0646     		mov	r6, r0
 762:Drivers/BSP/Components/stmpe811/stmpe811.c ****   
 1480              		.loc 1 762 3 is_stmt 1 view .LVU332
 765:Drivers/BSP/Components/stmpe811/stmpe811.c ****   
 1481              		.loc 1 765 3 view .LVU333
 765:Drivers/BSP/Components/stmpe811/stmpe811.c ****   
 1482              		.loc 1 765 10 is_stmt 0 view .LVU334
 1483 0004 C4B2     		uxtb	r4, r0
 1484 0006 0421     		movs	r1, #4
 1485 0008 2046     		mov	r0, r4
 1486              	.LVL186:
 765:Drivers/BSP/Components/stmpe811/stmpe811.c ****   
 1487              		.loc 1 765 10 view .LVU335
 1488 000a FFF7FEFF 		bl	IOE_Read
 1489              	.LVL187:
 1490 000e 0546     		mov	r5, r0
 1491              	.LVL188:
 768:Drivers/BSP/Components/stmpe811/stmpe811.c ****   
 1492              		.loc 1 768 3 is_stmt 1 view .LVU336
 771:Drivers/BSP/Components/stmpe811/stmpe811.c **** 
 1493              		.loc 1 771 3 view .LVU337
 1494 0010 00F0FB02 		and	r2, r0, #251
 1495 0014 0421     		movs	r1, #4
 1496 0016 2046     		mov	r0, r4
 1497              	.LVL189:
 771:Drivers/BSP/Components/stmpe811/stmpe811.c **** 
 1498              		.loc 1 771 3 is_stmt 0 view .LVU338
 1499 0018 FFF7FEFF 		bl	IOE_Write
 1500              	.LVL190:
 774:Drivers/BSP/Components/stmpe811/stmpe811.c ****   
 1501              		.loc 1 774 3 is_stmt 1 view .LVU339
 1502 001c F021     		movs	r1, #240
 1503 001e 3046     		mov	r0, r6
 1504 0020 FFF7FEFF 		bl	stmpe811_IO_EnableAF
 1505              	.LVL191:
 777:Drivers/BSP/Components/stmpe811/stmpe811.c ****   
 1506              		.loc 1 777 3 view .LVU340
 780:Drivers/BSP/Components/stmpe811/stmpe811.c ****   
 1507              		.loc 1 780 3 view .LVU341
ARM GAS  /var/folders/n6/c271nzx11xl4r4_m7sqjlt0m0000gn/T//cc2SfOSY.s 			page 49


 1508 0024 05F0F802 		and	r2, r5, #248
 1509 0028 0421     		movs	r1, #4
 1510 002a 2046     		mov	r0, r4
 1511 002c FFF7FEFF 		bl	IOE_Write
 1512              	.LVL192:
 783:Drivers/BSP/Components/stmpe811/stmpe811.c ****   
 1513              		.loc 1 783 3 view .LVU342
 1514 0030 4922     		movs	r2, #73
 1515 0032 2021     		movs	r1, #32
 1516 0034 2046     		mov	r0, r4
 1517 0036 FFF7FEFF 		bl	IOE_Write
 1518              	.LVL193:
 786:Drivers/BSP/Components/stmpe811/stmpe811.c ****   
 1519              		.loc 1 786 3 view .LVU343
 1520 003a 0220     		movs	r0, #2
 1521 003c FFF7FEFF 		bl	IOE_Delay
 1522              	.LVL194:
 789:Drivers/BSP/Components/stmpe811/stmpe811.c ****   
 1523              		.loc 1 789 3 view .LVU344
 1524 0040 0122     		movs	r2, #1
 1525 0042 2121     		movs	r1, #33
 1526 0044 2046     		mov	r0, r4
 1527 0046 FFF7FEFF 		bl	IOE_Write
 1528              	.LVL195:
 797:Drivers/BSP/Components/stmpe811/stmpe811.c ****   
 1529              		.loc 1 797 3 view .LVU345
 1530 004a 9A22     		movs	r2, #154
 1531 004c 4121     		movs	r1, #65
 1532 004e 2046     		mov	r0, r4
 1533 0050 FFF7FEFF 		bl	IOE_Write
 1534              	.LVL196:
 800:Drivers/BSP/Components/stmpe811/stmpe811.c ****   
 1535              		.loc 1 800 3 view .LVU346
 1536 0054 0122     		movs	r2, #1
 1537 0056 4A21     		movs	r1, #74
 1538 0058 2046     		mov	r0, r4
 1539 005a FFF7FEFF 		bl	IOE_Write
 1540              	.LVL197:
 803:Drivers/BSP/Components/stmpe811/stmpe811.c ****   
 1541              		.loc 1 803 3 view .LVU347
 1542 005e 0122     		movs	r2, #1
 1543 0060 4B21     		movs	r1, #75
 1544 0062 2046     		mov	r0, r4
 1545 0064 FFF7FEFF 		bl	IOE_Write
 1546              	.LVL198:
 806:Drivers/BSP/Components/stmpe811/stmpe811.c ****   
 1547              		.loc 1 806 3 view .LVU348
 1548 0068 0022     		movs	r2, #0
 1549 006a 4B21     		movs	r1, #75
 1550 006c 2046     		mov	r0, r4
 1551 006e FFF7FEFF 		bl	IOE_Write
 1552              	.LVL199:
 812:Drivers/BSP/Components/stmpe811/stmpe811.c ****   
 1553              		.loc 1 812 3 view .LVU349
 1554 0072 0122     		movs	r2, #1
 1555 0074 5621     		movs	r1, #86
 1556 0076 2046     		mov	r0, r4
ARM GAS  /var/folders/n6/c271nzx11xl4r4_m7sqjlt0m0000gn/T//cc2SfOSY.s 			page 50


 1557 0078 FFF7FEFF 		bl	IOE_Write
 1558              	.LVL200:
 815:Drivers/BSP/Components/stmpe811/stmpe811.c ****   
 1559              		.loc 1 815 3 view .LVU350
 1560 007c 0122     		movs	r2, #1
 1561 007e 5821     		movs	r1, #88
 1562 0080 2046     		mov	r0, r4
 1563 0082 FFF7FEFF 		bl	IOE_Write
 1564              	.LVL201:
 821:Drivers/BSP/Components/stmpe811/stmpe811.c ****   
 1565              		.loc 1 821 3 view .LVU351
 1566 0086 0122     		movs	r2, #1
 1567 0088 4021     		movs	r1, #64
 1568 008a 2046     		mov	r0, r4
 1569 008c FFF7FEFF 		bl	IOE_Write
 1570              	.LVL202:
 824:Drivers/BSP/Components/stmpe811/stmpe811.c **** 
 1571              		.loc 1 824 3 view .LVU352
 1572 0090 FF22     		movs	r2, #255
 1573 0092 0B21     		movs	r1, #11
 1574 0094 2046     		mov	r0, r4
 1575 0096 FFF7FEFF 		bl	IOE_Write
 1576              	.LVL203:
 827:Drivers/BSP/Components/stmpe811/stmpe811.c **** }
 1577              		.loc 1 827 3 view .LVU353
 1578 009a 0220     		movs	r0, #2
 1579 009c FFF7FEFF 		bl	IOE_Delay
 1580              	.LVL204:
 828:Drivers/BSP/Components/stmpe811/stmpe811.c **** 
 1581              		.loc 1 828 1 is_stmt 0 view .LVU354
 1582 00a0 70BD     		pop	{r4, r5, r6, pc}
 828:Drivers/BSP/Components/stmpe811/stmpe811.c **** 
 1583              		.loc 1 828 1 view .LVU355
 1584              		.cfi_endproc
 1585              	.LFE26:
 1587              		.section	.text.stmpe811_IO_SetEdgeMode,"ax",%progbits
 1588              		.align	1
 1589              		.global	stmpe811_IO_SetEdgeMode
 1590              		.syntax unified
 1591              		.thumb
 1592              		.thumb_func
 1594              	stmpe811_IO_SetEdgeMode:
 1595              	.LVL205:
 1596              	.LFB17:
 576:Drivers/BSP/Components/stmpe811/stmpe811.c ****   uint8_t tmp1 = 0, tmp2 = 0;   
 1597              		.loc 1 576 1 is_stmt 1 view -0
 1598              		.cfi_startproc
 1599              		@ args = 0, pretend = 0, frame = 0
 1600              		@ frame_needed = 0, uses_anonymous_args = 0
 576:Drivers/BSP/Components/stmpe811/stmpe811.c ****   uint8_t tmp1 = 0, tmp2 = 0;   
 1601              		.loc 1 576 1 is_stmt 0 view .LVU357
 1602 0000 2DE9F041 		push	{r4, r5, r6, r7, r8, lr}
 1603              		.cfi_def_cfa_offset 24
 1604              		.cfi_offset 4, -24
 1605              		.cfi_offset 5, -20
 1606              		.cfi_offset 6, -16
 1607              		.cfi_offset 7, -12
ARM GAS  /var/folders/n6/c271nzx11xl4r4_m7sqjlt0m0000gn/T//cc2SfOSY.s 			page 51


 1608              		.cfi_offset 8, -8
 1609              		.cfi_offset 14, -4
 1610 0004 0F46     		mov	r7, r1
 1611 0006 9046     		mov	r8, r2
 577:Drivers/BSP/Components/stmpe811/stmpe811.c ****   
 1612              		.loc 1 577 3 is_stmt 1 view .LVU358
 1613              	.LVL206:
 580:Drivers/BSP/Components/stmpe811/stmpe811.c ****   tmp2 = IOE_Read(DeviceAddr, STMPE811_REG_IO_RE);
 1614              		.loc 1 580 3 view .LVU359
 580:Drivers/BSP/Components/stmpe811/stmpe811.c ****   tmp2 = IOE_Read(DeviceAddr, STMPE811_REG_IO_RE);
 1615              		.loc 1 580 10 is_stmt 0 view .LVU360
 1616 0008 C5B2     		uxtb	r5, r0
 1617 000a 1621     		movs	r1, #22
 1618              	.LVL207:
 580:Drivers/BSP/Components/stmpe811/stmpe811.c ****   tmp2 = IOE_Read(DeviceAddr, STMPE811_REG_IO_RE);
 1619              		.loc 1 580 10 view .LVU361
 1620 000c 2846     		mov	r0, r5
 1621              	.LVL208:
 580:Drivers/BSP/Components/stmpe811/stmpe811.c ****   tmp2 = IOE_Read(DeviceAddr, STMPE811_REG_IO_RE);
 1622              		.loc 1 580 10 view .LVU362
 1623 000e FFF7FEFF 		bl	IOE_Read
 1624              	.LVL209:
 580:Drivers/BSP/Components/stmpe811/stmpe811.c ****   tmp2 = IOE_Read(DeviceAddr, STMPE811_REG_IO_RE);
 1625              		.loc 1 580 10 view .LVU363
 1626 0012 0646     		mov	r6, r0
 1627              	.LVL210:
 581:Drivers/BSP/Components/stmpe811/stmpe811.c **** 
 1628              		.loc 1 581 3 is_stmt 1 view .LVU364
 581:Drivers/BSP/Components/stmpe811/stmpe811.c **** 
 1629              		.loc 1 581 10 is_stmt 0 view .LVU365
 1630 0014 1521     		movs	r1, #21
 1631 0016 2846     		mov	r0, r5
 1632 0018 FFF7FEFF 		bl	IOE_Read
 1633              	.LVL211:
 584:Drivers/BSP/Components/stmpe811/stmpe811.c ****   
 1634              		.loc 1 584 3 is_stmt 1 view .LVU366
 584:Drivers/BSP/Components/stmpe811/stmpe811.c ****   
 1635              		.loc 1 584 8 is_stmt 0 view .LVU367
 1636 001c FC43     		mvns	r4, r7
 1637 001e E4B2     		uxtb	r4, r4
 1638 0020 04EA0602 		and	r2, r4, r6
 1639              	.LVL212:
 587:Drivers/BSP/Components/stmpe811/stmpe811.c **** 
 1640              		.loc 1 587 3 is_stmt 1 view .LVU368
 587:Drivers/BSP/Components/stmpe811/stmpe811.c **** 
 1641              		.loc 1 587 8 is_stmt 0 view .LVU369
 1642 0024 0440     		ands	r4, r4, r0
 1643              	.LVL213:
 590:Drivers/BSP/Components/stmpe811/stmpe811.c ****   {
 1644              		.loc 1 590 3 is_stmt 1 view .LVU370
 590:Drivers/BSP/Components/stmpe811/stmpe811.c ****   {
 1645              		.loc 1 590 6 is_stmt 0 view .LVU371
 1646 0026 18F0010F 		tst	r8, #1
 1647 002a 01D0     		beq	.L79
 592:Drivers/BSP/Components/stmpe811/stmpe811.c ****   }
 1648              		.loc 1 592 5 is_stmt 1 view .LVU372
 592:Drivers/BSP/Components/stmpe811/stmpe811.c ****   }
ARM GAS  /var/folders/n6/c271nzx11xl4r4_m7sqjlt0m0000gn/T//cc2SfOSY.s 			page 52


 1649              		.loc 1 592 13 is_stmt 0 view .LVU373
 1650 002c FBB2     		uxtb	r3, r7
 592:Drivers/BSP/Components/stmpe811/stmpe811.c ****   }
 1651              		.loc 1 592 10 view .LVU374
 1652 002e 1A43     		orrs	r2, r2, r3
 1653              	.LVL214:
 1654              	.L79:
 596:Drivers/BSP/Components/stmpe811/stmpe811.c ****   {
 1655              		.loc 1 596 3 is_stmt 1 view .LVU375
 596:Drivers/BSP/Components/stmpe811/stmpe811.c ****   {
 1656              		.loc 1 596 6 is_stmt 0 view .LVU376
 1657 0030 18F0020F 		tst	r8, #2
 1658 0034 01D0     		beq	.L80
 598:Drivers/BSP/Components/stmpe811/stmpe811.c ****   }
 1659              		.loc 1 598 5 is_stmt 1 view .LVU377
 598:Drivers/BSP/Components/stmpe811/stmpe811.c ****   }
 1660              		.loc 1 598 13 is_stmt 0 view .LVU378
 1661 0036 FFB2     		uxtb	r7, r7
 1662              	.LVL215:
 598:Drivers/BSP/Components/stmpe811/stmpe811.c ****   }
 1663              		.loc 1 598 10 view .LVU379
 1664 0038 3C43     		orrs	r4, r4, r7
 1665              	.LVL216:
 1666              	.L80:
 602:Drivers/BSP/Components/stmpe811/stmpe811.c ****   IOE_Write(DeviceAddr, STMPE811_REG_IO_RE, tmp2);
 1667              		.loc 1 602 3 is_stmt 1 view .LVU380
 1668 003a 1621     		movs	r1, #22
 1669 003c 2846     		mov	r0, r5
 1670 003e FFF7FEFF 		bl	IOE_Write
 1671              	.LVL217:
 603:Drivers/BSP/Components/stmpe811/stmpe811.c **** }
 1672              		.loc 1 603 3 view .LVU381
 1673 0042 2246     		mov	r2, r4
 1674 0044 1521     		movs	r1, #21
 1675 0046 2846     		mov	r0, r5
 1676 0048 FFF7FEFF 		bl	IOE_Write
 1677              	.LVL218:
 604:Drivers/BSP/Components/stmpe811/stmpe811.c **** 
 1678              		.loc 1 604 1 is_stmt 0 view .LVU382
 1679 004c BDE8F081 		pop	{r4, r5, r6, r7, r8, pc}
 604:Drivers/BSP/Components/stmpe811/stmpe811.c **** 
 1680              		.loc 1 604 1 view .LVU383
 1681              		.cfi_endproc
 1682              	.LFE17:
 1684              		.section	.text.stmpe811_IO_EnablePinIT,"ax",%progbits
 1685              		.align	1
 1686              		.global	stmpe811_IO_EnablePinIT
 1687              		.syntax unified
 1688              		.thumb
 1689              		.thumb_func
 1691              	stmpe811_IO_EnablePinIT:
 1692              	.LVL219:
 1693              	.LFB22:
 682:Drivers/BSP/Components/stmpe811/stmpe811.c ****   uint8_t tmp = 0;
 1694              		.loc 1 682 1 is_stmt 1 view -0
 1695              		.cfi_startproc
 1696              		@ args = 0, pretend = 0, frame = 0
ARM GAS  /var/folders/n6/c271nzx11xl4r4_m7sqjlt0m0000gn/T//cc2SfOSY.s 			page 53


 1697              		@ frame_needed = 0, uses_anonymous_args = 0
 682:Drivers/BSP/Components/stmpe811/stmpe811.c ****   uint8_t tmp = 0;
 1698              		.loc 1 682 1 is_stmt 0 view .LVU385
 1699 0000 38B5     		push	{r3, r4, r5, lr}
 1700              		.cfi_def_cfa_offset 16
 1701              		.cfi_offset 3, -16
 1702              		.cfi_offset 4, -12
 1703              		.cfi_offset 5, -8
 1704              		.cfi_offset 14, -4
 1705 0002 0C46     		mov	r4, r1
 683:Drivers/BSP/Components/stmpe811/stmpe811.c ****   
 1706              		.loc 1 683 3 is_stmt 1 view .LVU386
 1707              	.LVL220:
 686:Drivers/BSP/Components/stmpe811/stmpe811.c ****   
 1708              		.loc 1 686 3 view .LVU387
 686:Drivers/BSP/Components/stmpe811/stmpe811.c ****   
 1709              		.loc 1 686 9 is_stmt 0 view .LVU388
 1710 0004 C5B2     		uxtb	r5, r0
 1711 0006 0C21     		movs	r1, #12
 1712              	.LVL221:
 686:Drivers/BSP/Components/stmpe811/stmpe811.c ****   
 1713              		.loc 1 686 9 view .LVU389
 1714 0008 2846     		mov	r0, r5
 1715              	.LVL222:
 686:Drivers/BSP/Components/stmpe811/stmpe811.c ****   
 1716              		.loc 1 686 9 view .LVU390
 1717 000a FFF7FEFF 		bl	IOE_Read
 1718              	.LVL223:
 689:Drivers/BSP/Components/stmpe811/stmpe811.c ****   
 1719              		.loc 1 689 3 is_stmt 1 view .LVU391
 689:Drivers/BSP/Components/stmpe811/stmpe811.c ****   
 1720              		.loc 1 689 10 is_stmt 0 view .LVU392
 1721 000e E4B2     		uxtb	r4, r4
 1722              	.LVL224:
 689:Drivers/BSP/Components/stmpe811/stmpe811.c ****   
 1723              		.loc 1 689 7 view .LVU393
 1724 0010 0443     		orrs	r4, r4, r0
 1725              	.LVL225:
 692:Drivers/BSP/Components/stmpe811/stmpe811.c **** }
 1726              		.loc 1 692 3 is_stmt 1 view .LVU394
 1727 0012 E2B2     		uxtb	r2, r4
 1728 0014 0C21     		movs	r1, #12
 1729 0016 2846     		mov	r0, r5
 1730 0018 FFF7FEFF 		bl	IOE_Write
 1731              	.LVL226:
 693:Drivers/BSP/Components/stmpe811/stmpe811.c **** 
 1732              		.loc 1 693 1 is_stmt 0 view .LVU395
 1733 001c 38BD     		pop	{r3, r4, r5, pc}
 693:Drivers/BSP/Components/stmpe811/stmpe811.c **** 
 1734              		.loc 1 693 1 view .LVU396
 1735              		.cfi_endproc
 1736              	.LFE22:
 1738              		.section	.text.stmpe811_IO_Config,"ax",%progbits
 1739              		.align	1
 1740              		.global	stmpe811_IO_Config
 1741              		.syntax unified
 1742              		.thumb
ARM GAS  /var/folders/n6/c271nzx11xl4r4_m7sqjlt0m0000gn/T//cc2SfOSY.s 			page 54


 1743              		.thumb_func
 1745              	stmpe811_IO_Config:
 1746              	.LVL227:
 1747              	.LFB13:
 436:Drivers/BSP/Components/stmpe811/stmpe811.c ****   uint8_t error_code = 0;
 1748              		.loc 1 436 1 is_stmt 1 view -0
 1749              		.cfi_startproc
 1750              		@ args = 0, pretend = 0, frame = 0
 1751              		@ frame_needed = 0, uses_anonymous_args = 0
 436:Drivers/BSP/Components/stmpe811/stmpe811.c ****   uint8_t error_code = 0;
 1752              		.loc 1 436 1 is_stmt 0 view .LVU398
 1753 0000 70B5     		push	{r4, r5, r6, lr}
 1754              		.cfi_def_cfa_offset 16
 1755              		.cfi_offset 4, -16
 1756              		.cfi_offset 5, -12
 1757              		.cfi_offset 6, -8
 1758              		.cfi_offset 14, -4
 1759 0002 0546     		mov	r5, r0
 1760 0004 0E46     		mov	r6, r1
 1761 0006 1446     		mov	r4, r2
 437:Drivers/BSP/Components/stmpe811/stmpe811.c **** 
 1762              		.loc 1 437 3 is_stmt 1 view .LVU399
 1763              	.LVL228:
 440:Drivers/BSP/Components/stmpe811/stmpe811.c ****   {
 1764              		.loc 1 440 3 view .LVU400
 1765 0008 052A     		cmp	r2, #5
 1766 000a 64D8     		bhi	.L93
 1767 000c DFE802F0 		tbb	[pc, r2]
 1768              	.L87:
 1769 0010 03       		.byte	(.L92-.L87)/2
 1770 0011 08       		.byte	(.L91-.L87)/2
 1771 0012 0D       		.byte	(.L90-.L87)/2
 1772 0013 23       		.byte	(.L89-.L87)/2
 1773 0014 39       		.byte	(.L88-.L87)/2
 1774 0015 4E       		.byte	(.L86-.L87)/2
 1775              		.p2align 1
 1776              	.L92:
 443:Drivers/BSP/Components/stmpe811/stmpe811.c ****     break;
 1777              		.loc 1 443 5 view .LVU401
 1778 0016 0022     		movs	r2, #0
 1779              	.LVL229:
 443:Drivers/BSP/Components/stmpe811/stmpe811.c ****     break;
 1780              		.loc 1 443 5 is_stmt 0 view .LVU402
 1781 0018 FFF7FEFF 		bl	stmpe811_IO_InitPin
 1782              	.LVL230:
 444:Drivers/BSP/Components/stmpe811/stmpe811.c ****     
 1783              		.loc 1 444 5 is_stmt 1 view .LVU403
 437:Drivers/BSP/Components/stmpe811/stmpe811.c **** 
 1784              		.loc 1 437 11 is_stmt 0 view .LVU404
 1785 001c 2046     		mov	r0, r4
 1786              	.L85:
 1787              	.LVL231:
 486:Drivers/BSP/Components/stmpe811/stmpe811.c **** }
 1788              		.loc 1 486 3 is_stmt 1 view .LVU405
 487:Drivers/BSP/Components/stmpe811/stmpe811.c **** 
 1789              		.loc 1 487 1 is_stmt 0 view .LVU406
 1790 001e 70BD     		pop	{r4, r5, r6, pc}
ARM GAS  /var/folders/n6/c271nzx11xl4r4_m7sqjlt0m0000gn/T//cc2SfOSY.s 			page 55


 1791              	.LVL232:
 1792              	.L91:
 447:Drivers/BSP/Components/stmpe811/stmpe811.c ****     break;
 1793              		.loc 1 447 5 is_stmt 1 view .LVU407
 1794 0020 0122     		movs	r2, #1
 1795              	.LVL233:
 447:Drivers/BSP/Components/stmpe811/stmpe811.c ****     break;
 1796              		.loc 1 447 5 is_stmt 0 view .LVU408
 1797 0022 FFF7FEFF 		bl	stmpe811_IO_InitPin
 1798              	.LVL234:
 448:Drivers/BSP/Components/stmpe811/stmpe811.c ****   
 1799              		.loc 1 448 5 is_stmt 1 view .LVU409
 437:Drivers/BSP/Components/stmpe811/stmpe811.c **** 
 1800              		.loc 1 437 11 is_stmt 0 view .LVU410
 1801 0026 0020     		movs	r0, #0
 448:Drivers/BSP/Components/stmpe811/stmpe811.c ****   
 1802              		.loc 1 448 5 view .LVU411
 1803 0028 F9E7     		b	.L85
 1804              	.LVL235:
 1805              	.L90:
 451:Drivers/BSP/Components/stmpe811/stmpe811.c ****     stmpe811_IO_EnablePinIT(DeviceAddr, IO_Pin);
 1806              		.loc 1 451 5 is_stmt 1 view .LVU412
 1807 002a FFF7FEFF 		bl	stmpe811_IO_EnableIT
 1808              	.LVL236:
 452:Drivers/BSP/Components/stmpe811/stmpe811.c ****     stmpe811_IO_InitPin(DeviceAddr, IO_Pin, STMPE811_DIRECTION_IN); 
 1809              		.loc 1 452 5 view .LVU413
 1810 002e 3146     		mov	r1, r6
 1811 0030 2846     		mov	r0, r5
 1812 0032 FFF7FEFF 		bl	stmpe811_IO_EnablePinIT
 1813              	.LVL237:
 453:Drivers/BSP/Components/stmpe811/stmpe811.c ****     stmpe811_SetITType(DeviceAddr, STMPE811_TYPE_EDGE);      
 1814              		.loc 1 453 5 view .LVU414
 1815 0036 0022     		movs	r2, #0
 1816 0038 3146     		mov	r1, r6
 1817 003a 2846     		mov	r0, r5
 1818 003c FFF7FEFF 		bl	stmpe811_IO_InitPin
 1819              	.LVL238:
 454:Drivers/BSP/Components/stmpe811/stmpe811.c ****     stmpe811_IO_SetEdgeMode(DeviceAddr, IO_Pin, STMPE811_EDGE_RISING); 
 1820              		.loc 1 454 5 view .LVU415
 1821 0040 0221     		movs	r1, #2
 1822 0042 2846     		mov	r0, r5
 1823 0044 FFF7FEFF 		bl	stmpe811_SetITType
 1824              	.LVL239:
 455:Drivers/BSP/Components/stmpe811/stmpe811.c ****     break;
 1825              		.loc 1 455 5 view .LVU416
 1826 0048 0222     		movs	r2, #2
 1827 004a 3146     		mov	r1, r6
 1828 004c 2846     		mov	r0, r5
 1829 004e FFF7FEFF 		bl	stmpe811_IO_SetEdgeMode
 1830              	.LVL240:
 456:Drivers/BSP/Components/stmpe811/stmpe811.c ****   
 1831              		.loc 1 456 5 view .LVU417
 437:Drivers/BSP/Components/stmpe811/stmpe811.c **** 
 1832              		.loc 1 437 11 is_stmt 0 view .LVU418
 1833 0052 0020     		movs	r0, #0
 456:Drivers/BSP/Components/stmpe811/stmpe811.c ****   
 1834              		.loc 1 456 5 view .LVU419
ARM GAS  /var/folders/n6/c271nzx11xl4r4_m7sqjlt0m0000gn/T//cc2SfOSY.s 			page 56


 1835 0054 E3E7     		b	.L85
 1836              	.LVL241:
 1837              	.L89:
 459:Drivers/BSP/Components/stmpe811/stmpe811.c ****     stmpe811_IO_EnablePinIT(DeviceAddr, IO_Pin);
 1838              		.loc 1 459 5 is_stmt 1 view .LVU420
 1839 0056 FFF7FEFF 		bl	stmpe811_IO_EnableIT
 1840              	.LVL242:
 460:Drivers/BSP/Components/stmpe811/stmpe811.c ****     stmpe811_IO_InitPin(DeviceAddr, IO_Pin, STMPE811_DIRECTION_IN); 
 1841              		.loc 1 460 5 view .LVU421
 1842 005a 3146     		mov	r1, r6
 1843 005c 2846     		mov	r0, r5
 1844 005e FFF7FEFF 		bl	stmpe811_IO_EnablePinIT
 1845              	.LVL243:
 461:Drivers/BSP/Components/stmpe811/stmpe811.c ****     stmpe811_SetITType(DeviceAddr, STMPE811_TYPE_EDGE);    
 1846              		.loc 1 461 5 view .LVU422
 1847 0062 0022     		movs	r2, #0
 1848 0064 3146     		mov	r1, r6
 1849 0066 2846     		mov	r0, r5
 1850 0068 FFF7FEFF 		bl	stmpe811_IO_InitPin
 1851              	.LVL244:
 462:Drivers/BSP/Components/stmpe811/stmpe811.c ****     stmpe811_IO_SetEdgeMode(DeviceAddr, IO_Pin, STMPE811_EDGE_FALLING); 
 1852              		.loc 1 462 5 view .LVU423
 1853 006c 0221     		movs	r1, #2
 1854 006e 2846     		mov	r0, r5
 1855 0070 FFF7FEFF 		bl	stmpe811_SetITType
 1856              	.LVL245:
 463:Drivers/BSP/Components/stmpe811/stmpe811.c ****     break;
 1857              		.loc 1 463 5 view .LVU424
 1858 0074 0122     		movs	r2, #1
 1859 0076 3146     		mov	r1, r6
 1860 0078 2846     		mov	r0, r5
 1861 007a FFF7FEFF 		bl	stmpe811_IO_SetEdgeMode
 1862              	.LVL246:
 464:Drivers/BSP/Components/stmpe811/stmpe811.c ****   
 1863              		.loc 1 464 5 view .LVU425
 437:Drivers/BSP/Components/stmpe811/stmpe811.c **** 
 1864              		.loc 1 437 11 is_stmt 0 view .LVU426
 1865 007e 0020     		movs	r0, #0
 464:Drivers/BSP/Components/stmpe811/stmpe811.c ****   
 1866              		.loc 1 464 5 view .LVU427
 1867 0080 CDE7     		b	.L85
 1868              	.LVL247:
 1869              	.L88:
 467:Drivers/BSP/Components/stmpe811/stmpe811.c ****     stmpe811_IO_EnablePinIT(DeviceAddr, IO_Pin);
 1870              		.loc 1 467 5 is_stmt 1 view .LVU428
 1871 0082 FFF7FEFF 		bl	stmpe811_IO_EnableIT
 1872              	.LVL248:
 468:Drivers/BSP/Components/stmpe811/stmpe811.c ****     stmpe811_IO_InitPin(DeviceAddr, IO_Pin, STMPE811_DIRECTION_IN); 
 1873              		.loc 1 468 5 view .LVU429
 1874 0086 3146     		mov	r1, r6
 1875 0088 2846     		mov	r0, r5
 1876 008a FFF7FEFF 		bl	stmpe811_IO_EnablePinIT
 1877              	.LVL249:
 469:Drivers/BSP/Components/stmpe811/stmpe811.c ****     stmpe811_SetITType(DeviceAddr, STMPE811_TYPE_LEVEL);
 1878              		.loc 1 469 5 view .LVU430
 1879 008e 0022     		movs	r2, #0
 1880 0090 3146     		mov	r1, r6
ARM GAS  /var/folders/n6/c271nzx11xl4r4_m7sqjlt0m0000gn/T//cc2SfOSY.s 			page 57


 1881 0092 2846     		mov	r0, r5
 1882 0094 FFF7FEFF 		bl	stmpe811_IO_InitPin
 1883              	.LVL250:
 470:Drivers/BSP/Components/stmpe811/stmpe811.c ****     stmpe811_SetITPolarity(DeviceAddr, STMPE811_POLARITY_LOW);      
 1884              		.loc 1 470 5 view .LVU431
 1885 0098 0021     		movs	r1, #0
 1886 009a 2846     		mov	r0, r5
 1887 009c FFF7FEFF 		bl	stmpe811_SetITType
 1888              	.LVL251:
 471:Drivers/BSP/Components/stmpe811/stmpe811.c ****     break;
 1889              		.loc 1 471 5 view .LVU432
 1890 00a0 0021     		movs	r1, #0
 1891 00a2 2846     		mov	r0, r5
 1892 00a4 FFF7FEFF 		bl	stmpe811_SetITPolarity
 1893              	.LVL252:
 472:Drivers/BSP/Components/stmpe811/stmpe811.c ****     
 1894              		.loc 1 472 5 view .LVU433
 437:Drivers/BSP/Components/stmpe811/stmpe811.c **** 
 1895              		.loc 1 437 11 is_stmt 0 view .LVU434
 1896 00a8 0020     		movs	r0, #0
 472:Drivers/BSP/Components/stmpe811/stmpe811.c ****     
 1897              		.loc 1 472 5 view .LVU435
 1898 00aa B8E7     		b	.L85
 1899              	.LVL253:
 1900              	.L86:
 475:Drivers/BSP/Components/stmpe811/stmpe811.c ****     stmpe811_IO_EnablePinIT(DeviceAddr, IO_Pin);
 1901              		.loc 1 475 5 is_stmt 1 view .LVU436
 1902 00ac FFF7FEFF 		bl	stmpe811_IO_EnableIT
 1903              	.LVL254:
 476:Drivers/BSP/Components/stmpe811/stmpe811.c ****     stmpe811_IO_InitPin(DeviceAddr, IO_Pin, STMPE811_DIRECTION_IN); 
 1904              		.loc 1 476 5 view .LVU437
 1905 00b0 3146     		mov	r1, r6
 1906 00b2 2846     		mov	r0, r5
 1907 00b4 FFF7FEFF 		bl	stmpe811_IO_EnablePinIT
 1908              	.LVL255:
 477:Drivers/BSP/Components/stmpe811/stmpe811.c ****     stmpe811_SetITType(DeviceAddr, STMPE811_TYPE_LEVEL);
 1909              		.loc 1 477 5 view .LVU438
 1910 00b8 0022     		movs	r2, #0
 1911 00ba 3146     		mov	r1, r6
 1912 00bc 2846     		mov	r0, r5
 1913 00be FFF7FEFF 		bl	stmpe811_IO_InitPin
 1914              	.LVL256:
 478:Drivers/BSP/Components/stmpe811/stmpe811.c ****     stmpe811_SetITPolarity(DeviceAddr, STMPE811_POLARITY_HIGH);  
 1915              		.loc 1 478 5 view .LVU439
 1916 00c2 0021     		movs	r1, #0
 1917 00c4 2846     		mov	r0, r5
 1918 00c6 FFF7FEFF 		bl	stmpe811_SetITType
 1919              	.LVL257:
 479:Drivers/BSP/Components/stmpe811/stmpe811.c ****     break;    
 1920              		.loc 1 479 5 view .LVU440
 1921 00ca 0421     		movs	r1, #4
 1922 00cc 2846     		mov	r0, r5
 1923 00ce FFF7FEFF 		bl	stmpe811_SetITPolarity
 1924              	.LVL258:
 480:Drivers/BSP/Components/stmpe811/stmpe811.c **** 
 1925              		.loc 1 480 5 view .LVU441
 437:Drivers/BSP/Components/stmpe811/stmpe811.c **** 
ARM GAS  /var/folders/n6/c271nzx11xl4r4_m7sqjlt0m0000gn/T//cc2SfOSY.s 			page 58


 1926              		.loc 1 437 11 is_stmt 0 view .LVU442
 1927 00d2 0020     		movs	r0, #0
 480:Drivers/BSP/Components/stmpe811/stmpe811.c **** 
 1928              		.loc 1 480 5 view .LVU443
 1929 00d4 A3E7     		b	.L85
 1930              	.LVL259:
 1931              	.L93:
 440:Drivers/BSP/Components/stmpe811/stmpe811.c ****   {
 1932              		.loc 1 440 3 view .LVU444
 1933 00d6 1046     		mov	r0, r2
 1934              	.LVL260:
 440:Drivers/BSP/Components/stmpe811/stmpe811.c ****   {
 1935              		.loc 1 440 3 view .LVU445
 1936 00d8 A1E7     		b	.L85
 1937              		.cfi_endproc
 1938              	.LFE13:
 1940              		.section	.text.stmpe811_IO_DisablePinIT,"ax",%progbits
 1941              		.align	1
 1942              		.global	stmpe811_IO_DisablePinIT
 1943              		.syntax unified
 1944              		.thumb
 1945              		.thumb_func
 1947              	stmpe811_IO_DisablePinIT:
 1948              	.LVL261:
 1949              	.LFB23:
 704:Drivers/BSP/Components/stmpe811/stmpe811.c ****   uint8_t tmp = 0;
 1950              		.loc 1 704 1 is_stmt 1 view -0
 1951              		.cfi_startproc
 1952              		@ args = 0, pretend = 0, frame = 0
 1953              		@ frame_needed = 0, uses_anonymous_args = 0
 704:Drivers/BSP/Components/stmpe811/stmpe811.c ****   uint8_t tmp = 0;
 1954              		.loc 1 704 1 is_stmt 0 view .LVU447
 1955 0000 38B5     		push	{r3, r4, r5, lr}
 1956              		.cfi_def_cfa_offset 16
 1957              		.cfi_offset 3, -16
 1958              		.cfi_offset 4, -12
 1959              		.cfi_offset 5, -8
 1960              		.cfi_offset 14, -4
 1961 0002 0C46     		mov	r4, r1
 705:Drivers/BSP/Components/stmpe811/stmpe811.c ****   
 1962              		.loc 1 705 3 is_stmt 1 view .LVU448
 1963              	.LVL262:
 708:Drivers/BSP/Components/stmpe811/stmpe811.c ****   
 1964              		.loc 1 708 3 view .LVU449
 708:Drivers/BSP/Components/stmpe811/stmpe811.c ****   
 1965              		.loc 1 708 9 is_stmt 0 view .LVU450
 1966 0004 C5B2     		uxtb	r5, r0
 1967 0006 0C21     		movs	r1, #12
 1968              	.LVL263:
 708:Drivers/BSP/Components/stmpe811/stmpe811.c ****   
 1969              		.loc 1 708 9 view .LVU451
 1970 0008 2846     		mov	r0, r5
 1971              	.LVL264:
 708:Drivers/BSP/Components/stmpe811/stmpe811.c ****   
 1972              		.loc 1 708 9 view .LVU452
 1973 000a FFF7FEFF 		bl	IOE_Read
 1974              	.LVL265:
ARM GAS  /var/folders/n6/c271nzx11xl4r4_m7sqjlt0m0000gn/T//cc2SfOSY.s 			page 59


 711:Drivers/BSP/Components/stmpe811/stmpe811.c ****   
 1975              		.loc 1 711 3 is_stmt 1 view .LVU453
 711:Drivers/BSP/Components/stmpe811/stmpe811.c ****   
 1976              		.loc 1 711 7 is_stmt 0 view .LVU454
 1977 000e E443     		mvns	r4, r4
 1978              	.LVL266:
 711:Drivers/BSP/Components/stmpe811/stmpe811.c ****   
 1979              		.loc 1 711 7 view .LVU455
 1980 0010 64B2     		sxtb	r4, r4
 1981              	.LVL267:
 711:Drivers/BSP/Components/stmpe811/stmpe811.c ****   
 1982              		.loc 1 711 7 view .LVU456
 1983 0012 00EA0402 		and	r2, r0, r4
 1984              	.LVL268:
 714:Drivers/BSP/Components/stmpe811/stmpe811.c **** }
 1985              		.loc 1 714 3 is_stmt 1 view .LVU457
 1986 0016 D2B2     		uxtb	r2, r2
 714:Drivers/BSP/Components/stmpe811/stmpe811.c **** }
 1987              		.loc 1 714 3 is_stmt 0 view .LVU458
 1988 0018 0C21     		movs	r1, #12
 1989 001a 2846     		mov	r0, r5
 1990 001c FFF7FEFF 		bl	IOE_Write
 1991              	.LVL269:
 715:Drivers/BSP/Components/stmpe811/stmpe811.c **** 
 1992              		.loc 1 715 1 view .LVU459
 1993 0020 38BD     		pop	{r3, r4, r5, pc}
 1994              		.cfi_endproc
 1995              	.LFE23:
 1997              		.global	stmpe811
 1998              		.section	.bss.stmpe811,"aw",%nobits
 1999              		.align	2
 2002              	stmpe811:
 2003 0000 0000     		.space	2
 2004              		.global	stmpe811_io_drv
 2005              		.section	.data.stmpe811_io_drv,"aw"
 2006              		.align	2
 2009              	stmpe811_io_drv:
 2010 0000 00000000 		.word	stmpe811_Init
 2011 0004 00000000 		.word	stmpe811_ReadID
 2012 0008 00000000 		.word	stmpe811_Reset
 2013 000c 00000000 		.word	stmpe811_IO_Start
 2014 0010 00000000 		.word	stmpe811_IO_Config
 2015 0014 00000000 		.word	stmpe811_IO_WritePin
 2016 0018 00000000 		.word	stmpe811_IO_ReadPin
 2017 001c 00000000 		.word	stmpe811_IO_EnableIT
 2018 0020 00000000 		.word	stmpe811_IO_DisableIT
 2019 0024 00000000 		.word	stmpe811_IO_ITStatus
 2020 0028 00000000 		.word	stmpe811_IO_ClearIT
 2021              		.global	stmpe811_ts_drv
 2022              		.section	.data.stmpe811_ts_drv,"aw"
 2023              		.align	2
 2026              	stmpe811_ts_drv:
 2027 0000 00000000 		.word	stmpe811_Init
 2028 0004 00000000 		.word	stmpe811_ReadID
 2029 0008 00000000 		.word	stmpe811_Reset
 2030 000c 00000000 		.word	stmpe811_TS_Start
 2031 0010 00000000 		.word	stmpe811_TS_DetectTouch
ARM GAS  /var/folders/n6/c271nzx11xl4r4_m7sqjlt0m0000gn/T//cc2SfOSY.s 			page 60


 2032 0014 00000000 		.word	stmpe811_TS_GetXY
 2033 0018 00000000 		.word	stmpe811_TS_EnableIT
 2034 001c 00000000 		.word	stmpe811_TS_ClearIT
 2035 0020 00000000 		.word	stmpe811_TS_ITStatus
 2036 0024 00000000 		.word	stmpe811_TS_DisableIT
 2037              		.text
 2038              	.Letext0:
 2039              		.file 2 "/Users/killian/Library/Application Support/Code/User/globalStorage/bmd.stm32-for-vscode/@
 2040              		.file 3 "/Users/killian/Library/Application Support/Code/User/globalStorage/bmd.stm32-for-vscode/@
 2041              		.file 4 "Drivers/BSP/Components/stmpe811/../Common/ts.h"
 2042              		.file 5 "Drivers/BSP/Components/stmpe811/../Common/io.h"
 2043              		.file 6 "Drivers/BSP/Components/stmpe811/stmpe811.h"
ARM GAS  /var/folders/n6/c271nzx11xl4r4_m7sqjlt0m0000gn/T//cc2SfOSY.s 			page 61

